///////////////////////////////////////////////////////////////////////////////
//
// IAR C/C++ Compiler V10.10.1.4655 for 8051              22/Nov/2023  15:42:39
// Copyright 2004-2017 IAR Systems AB.
// Standalone license - IAR Embedded Workbench for 8051
//
//    Core               =  plain
//    Code model         =  banked
//    Data model         =  large
//    Calling convention =  xdata reentrant
//    Constant location  =  data_rom
//    Dptr setup         =  1,16
//                          
//    Source file        =  
//        D:\fuzzing-coordinator-response-collection\Components\stack\af\AF.c
//    Command line       =  
//        -f C:\Users\ADMINI~1\AppData\Local\Temp\EW98A5.tmp
//        (D:\fuzzing-coordinator-response-collection\Components\stack\af\AF.c
//        -D SECURE=1 -D TC_LINKKEY_JOIN -D NV_INIT -D NV_RESTORE -D
//        MULTICAST_ENABLED=FALSE -D ZCL_READ -D ZCL_DISCOVER -D ZCL_WRITE -D
//        ZCL_BASIC -D ZCL_IDENTIFY -D ISR_KEYINTERRUPT -D HAL_UART=TRUE -D
//        HAL_LCD=FALSE -D ZCL_ON_OFF -D INT_HEAP_LEN=2800 -D
//        HAL_UART_DMA_RX_MAX=256 -D HAL_UART_DMA_TX_MAX=256 -lC
//        D:\fuzzing-coordinator-response-collection\Projects\zstack\HomeAutomation\SampleSwitch\CC2530DB\CoordinatorEB\List
//        -lA
//        D:\fuzzing-coordinator-response-collection\Projects\zstack\HomeAutomation\SampleSwitch\CC2530DB\CoordinatorEB\List
//        --diag_suppress Pe001,Pa010 -o
//        D:\fuzzing-coordinator-response-collection\Projects\zstack\HomeAutomation\SampleSwitch\CC2530DB\CoordinatorEB\Obj
//        -e --debug --core=plain --dptr=16,1 --data_model=large
//        --code_model=banked --calling_convention=xdata_reentrant
//        --place_constants=data_rom --nr_virtual_regs 8 -f
//        D:\fuzzing-coordinator-response-collection\Projects\zstack\HomeAutomation\SampleSwitch\CC2530DB\..\..\..\Tools\CC2530DB\f8wCoord.cfg
//        (-DCPU32MHZ -DROOT=__near_func -DMAC_CFG_APP_PENDING_QUEUE=TRUE
//        -DMAC_CFG_TX_DATA_MAX=5 -DMAC_CFG_TX_MAX=8 -DMAC_CFG_RX_MAX=5
//        -DZDO_COORDINATOR -DRTR_NWK) -f
//        D:\fuzzing-coordinator-response-collection\Projects\zstack\HomeAutomation\SampleSwitch\CC2530DB\..\..\..\Tools\CC2530DB\f8wConfig.cfg
//        (-DZIGBEEPRO -DSECURE=1 -DZG_SECURE_DYNAMIC=0 -DREFLECTOR
//        -DDEFAULT_CHANLIST=0x00000800 -DZDAPP_CONFIG_PAN_ID=0xFFFF
//        -DNWK_START_DELAY=100 -DEXTENDED_JOINING_RANDOM_MASK=0x007F
//        -DBEACON_REQUEST_DELAY=100 -DBEACON_REQ_DELAY_MASK=0x00FF
//        -DLINK_STATUS_JITTER_MASK=0x007F -DROUTE_EXPIRY_TIME=30
//        -DAPSC_ACK_WAIT_DURATION_POLLED=3000 -DNWK_INDIRECT_MSG_TIMEOUT=7
//        -DMAX_RREQ_ENTRIES=8 -DAPSC_MAX_FRAME_RETRIES=3
//        -DNWK_MAX_DATA_RETRIES=2 -DMAX_POLL_FAILURE_RETRIES=2 -DMAX_BCAST=9
//        -DAPS_MAX_GROUPS=16 -DMAX_RTG_ENTRIES=40 -DNWK_MAX_BINDING_ENTRIES=4
//        -DMAX_BINDING_CLUSTER_IDS=4 "-DDEFAULT_KEY={0x00, 0x01, 0x02, 0x03,
//        0x04, 0x05, 0x06, 0x07, 0x08, 0x09, 0x0A, 0x0B, 0x0C, 0x0D, 0x0E,
//        0x0F}" -DMAC_MAX_FRAME_SIZE=116 -DZDNWKMGR_MIN_TRANSMISSIONS=20
//        "-DCONST=const __code" -DGENERIC=__generic -DRFD_RCVC_ALWAYS_ON=FALSE
//        -DPOLL_RATE=1000 -DQUEUED_POLL_RATE=100 -DRESPONSE_POLL_RATE=100
//        -DREJOIN_POLL_RATE=440 -DREJOIN_BACKOFF=900000 -DREJOIN_SCAN=900000
//        -DENABLE_LED4_DISABLE_S1) -f
//        D:\fuzzing-coordinator-response-collection\Projects\zstack\HomeAutomation\SampleSwitch\CC2530DB\..\..\..\Tools\CC2530DB\f8wZCL.cfg
//        -I
//        D:\fuzzing-coordinator-response-collection\Projects\zstack\HomeAutomation\SampleSwitch\CC2530DB\
//        -I
//        D:\fuzzing-coordinator-response-collection\Projects\zstack\HomeAutomation\SampleSwitch\CC2530DB\..\Source\
//        -I
//        D:\fuzzing-coordinator-response-collection\Projects\zstack\HomeAutomation\SampleSwitch\CC2530DB\..\..\Source\
//        -I
//        D:\fuzzing-coordinator-response-collection\Projects\zstack\HomeAutomation\SampleSwitch\CC2530DB\..\..\..\ZMain\TI2530DB\
//        -I
//        D:\fuzzing-coordinator-response-collection\Projects\zstack\HomeAutomation\SampleSwitch\CC2530DB\..\..\..\..\..\Components\hal\include\
//        -I
//        D:\fuzzing-coordinator-response-collection\Projects\zstack\HomeAutomation\SampleSwitch\CC2530DB\..\..\..\..\..\Components\hal\target\CC2530EB\
//        -I
//        D:\fuzzing-coordinator-response-collection\Projects\zstack\HomeAutomation\SampleSwitch\CC2530DB\..\..\..\..\..\Components\mac\include\
//        -I
//        D:\fuzzing-coordinator-response-collection\Projects\zstack\HomeAutomation\SampleSwitch\CC2530DB\..\..\..\..\..\Components\mac\high_level\
//        -I
//        D:\fuzzing-coordinator-response-collection\Projects\zstack\HomeAutomation\SampleSwitch\CC2530DB\..\..\..\..\..\Components\mac\low_level\srf04\
//        -I
//        D:\fuzzing-coordinator-response-collection\Projects\zstack\HomeAutomation\SampleSwitch\CC2530DB\..\..\..\..\..\Components\mac\low_level\srf04\single_chip\
//        -I
//        D:\fuzzing-coordinator-response-collection\Projects\zstack\HomeAutomation\SampleSwitch\CC2530DB\..\..\..\..\..\Components\mt\
//        -I
//        D:\fuzzing-coordinator-response-collection\Projects\zstack\HomeAutomation\SampleSwitch\CC2530DB\..\..\..\..\..\Components\osal\include\
//        -I
//        D:\fuzzing-coordinator-response-collection\Projects\zstack\HomeAutomation\SampleSwitch\CC2530DB\..\..\..\..\..\Components\services\saddr\
//        -I
//        D:\fuzzing-coordinator-response-collection\Projects\zstack\HomeAutomation\SampleSwitch\CC2530DB\..\..\..\..\..\Components\services\sdata\
//        -I
//        D:\fuzzing-coordinator-response-collection\Projects\zstack\HomeAutomation\SampleSwitch\CC2530DB\..\..\..\..\..\Components\stack\af\
//        -I
//        D:\fuzzing-coordinator-response-collection\Projects\zstack\HomeAutomation\SampleSwitch\CC2530DB\..\..\..\..\..\Components\stack\bdb\
//        -I
//        D:\fuzzing-coordinator-response-collection\Projects\zstack\HomeAutomation\SampleSwitch\CC2530DB\..\..\..\..\..\Components\stack\gp\
//        -I
//        D:\fuzzing-coordinator-response-collection\Projects\zstack\HomeAutomation\SampleSwitch\CC2530DB\..\..\..\..\..\Components\stack\nwk\
//        -I
//        D:\fuzzing-coordinator-response-collection\Projects\zstack\HomeAutomation\SampleSwitch\CC2530DB\..\..\..\..\..\Components\stack\sapi\
//        -I
//        D:\fuzzing-coordinator-response-collection\Projects\zstack\HomeAutomation\SampleSwitch\CC2530DB\..\..\..\..\..\Components\stack\sec\
//        -I
//        D:\fuzzing-coordinator-response-collection\Projects\zstack\HomeAutomation\SampleSwitch\CC2530DB\..\..\..\..\..\Components\stack\sys\
//        -I
//        D:\fuzzing-coordinator-response-collection\Projects\zstack\HomeAutomation\SampleSwitch\CC2530DB\..\..\..\..\..\Components\stack\zcl\
//        -I
//        D:\fuzzing-coordinator-response-collection\Projects\zstack\HomeAutomation\SampleSwitch\CC2530DB\..\..\..\..\..\Components\stack\zdo\
//        -I
//        D:\fuzzing-coordinator-response-collection\Projects\zstack\HomeAutomation\SampleSwitch\CC2530DB\..\..\..\..\..\Components\zmac\
//        -I
//        D:\fuzzing-coordinator-response-collection\Projects\zstack\HomeAutomation\SampleSwitch\CC2530DB\..\..\..\..\..\Components\zmac\f8w\
//        -I
//        D:\fuzzing-coordinator-response-collection\Projects\zstack\HomeAutomation\SampleSwitch\CC2530DB\..\..\..\..\..\Components\hal\target\CC2530EB\Common\
//        -I
//        D:\fuzzing-coordinator-response-collection\Projects\zstack\HomeAutomation\SampleSwitch\CC2530DB\..\..\..\..\..\Components\hal\target\CC2530EB\SPI\
//        -I
//        D:\fuzzing-coordinator-response-collection\Projects\zstack\HomeAutomation\SampleSwitch\CC2530DB\..\..\..\..\..\Components\hal\target\CC2530EB\HW_LCD\Font\
//        -I
//        D:\fuzzing-coordinator-response-collection\Projects\zstack\HomeAutomation\SampleSwitch\CC2530DB\..\..\..\..\..\Components\hal\target\CC2530EB\HW_LCD\HAL_LCD_SPI\
//        -I
//        D:\fuzzing-coordinator-response-collection\Projects\zstack\HomeAutomation\SampleSwitch\CC2530DB\..\..\..\..\..\Components\hal\target\CC2530EB\HW_LCD\HAL_OLED\
//        -I
//        D:\fuzzing-coordinator-response-collection\Projects\zstack\HomeAutomation\SampleSwitch\CC2530DB\..\..\..\..\..\Components\hal\target\CC2530EB\HW_LCD\HAL_TFT\
//        -Ohz --require_prototypes)
//    Locale             =  Chinese (Simplified)_China.936
//    List file          =  
//        D:\fuzzing-coordinator-response-collection\Projects\zstack\HomeAutomation\SampleSwitch\CC2530DB\CoordinatorEB\List\AF.s51
//
///////////////////////////////////////////////////////////////////////////////

        NAME AF

        RTMODEL "__SystemLibrary", "CLib"
        RTMODEL "__calling_convention", "xdata_reentrant"
        RTMODEL "__code_model", "banked"
        RTMODEL "__core", "plain"
        RTMODEL "__data_model", "large"
        RTMODEL "__dptr_size", "16"
        RTMODEL "__extended_stack", "disabled"
        RTMODEL "__location_for_constants", "data"
        RTMODEL "__number_of_dptrs", "1"
        RTMODEL "__register_banks", "*"
        RTMODEL "__rt_version", "1"

        RSEG DOVERLAY:DATA:NOROOT(0)
        RSEG IOVERLAY:IDATA:NOROOT(0)
        RSEG ISTACK:IDATA:NOROOT(0)
        RSEG PSTACK:XDATA:NOROOT(0)
        RSEG XSTACK:XDATA:NOROOT(0)

        EXTERN ?V0
        EXTERN ?V1
        EXTERN ?V2
        EXTERN ?V3
        EXTERN ?V4
        EXTERN ?V5
        EXTERN ?V6
        EXTERN ?V7
        EXTERN ?ALLOC_XSTACK8
        EXTERN ?BANKED_ENTER_XDATA
        EXTERN ?BANKED_LEAVE_XDATA
        EXTERN ?BDISPATCH
        EXTERN ?BRET
        EXTERN ?CALL_IND
        EXTERN ?DEALLOC_XSTACK8
        EXTERN ?L_MOV_X
        EXTERN ?PUSH_XSTACK8_X_TWO
        EXTERN ?PUSH_XSTACK_I_FOUR
        EXTERN ?PUSH_XSTACK_I_ONE
        EXTERN ?PUSH_XSTACK_I_THREE
        EXTERN ?PUSH_XSTACK_I_TWO
        EXTERN ?XLOAD_R0123
        EXTERN ?XSP
        EXTERN ?XSTACK_DISP0_8
        EXTERN ?XSTACK_DISP101_8
        EXTERN ?XSTORE_R0123
        EXTERN __INIT_XDATA_I
        EXTERN __INIT_XDATA_Z

        PUBLIC `??AF_DataRequest::?relay`
        FUNCTION `??AF_DataRequest::?relay`,0203H
        PUBLIC `??AF_DataRequestSrcRtg::?relay`
        FUNCTION `??AF_DataRequestSrcRtg::?relay`,0203H
        PUBLIC `??afAPSF_ConfigGet::?relay`
        FUNCTION `??afAPSF_ConfigGet::?relay`,0203H
        PUBLIC `??afAPSF_ConfigSet::?relay`
        FUNCTION `??afAPSF_ConfigSet::?relay`,0203H
        FUNCTION `??afBuildMSGIncoming::?relay`,0203H
        PUBLIC `??afCopyAddress::?relay`
        FUNCTION `??afCopyAddress::?relay`,0203H
        PUBLIC `??afDataConfirm::?relay`
        FUNCTION `??afDataConfirm::?relay`,0203H
        PUBLIC `??afDataReqMTU::?relay`
        FUNCTION `??afDataReqMTU::?relay`,0203H
        PUBLIC `??afDelete::?relay`
        FUNCTION `??afDelete::?relay`,0203H
        PUBLIC `??afEndPoints::?relay`
        FUNCTION `??afEndPoints::?relay`,0203H
        PUBLIC `??afFindEndPointDesc::?relay`
        FUNCTION `??afFindEndPointDesc::?relay`,0203H
        FUNCTION `??afFindEndPointDescList::?relay`,0203H
        PUBLIC `??afFindSimpleDesc::?relay`
        FUNCTION `??afFindSimpleDesc::?relay`,0203H
        PUBLIC `??afGetMatch::?relay`
        FUNCTION `??afGetMatch::?relay`,0203H
        PUBLIC `??afIncomingData::?relay`
        FUNCTION `??afIncomingData::?relay`,0203H
        PUBLIC `??afNumEndPoints::?relay`
        FUNCTION `??afNumEndPoints::?relay`,0203H
        PUBLIC `??afReflectError::?relay`
        FUNCTION `??afReflectError::?relay`,0203H
        PUBLIC `??afRegister::?relay`
        FUNCTION `??afRegister::?relay`,0203H
        PUBLIC `??afRegisterExtended::?relay`
        FUNCTION `??afRegisterExtended::?relay`,0203H
        PUBLIC `??afSetApplCB::?relay`
        FUNCTION `??afSetApplCB::?relay`,0203H
        PUBLIC `??afSetMatch::?relay`
        FUNCTION `??afSetMatch::?relay`,0203H
        PUBLIC AF_DataRequest
        FUNCTION AF_DataRequest,0a1203H
        ARGFRAME XSTACK, 21, STACK
        ARGFRAME IOVERLAY, 0, STATIC
        ARGFRAME DOVERLAY, 0, STATIC
        LOCFRAME ISTACK, 1, STACK
        LOCFRAME XSTACK, 49, STACK
        PUBLIC AF_DataRequestDiscoverRoute
        PUBLIC AF_DataRequestSrcRtg
        FUNCTION AF_DataRequestSrcRtg,0a1203H
        ARGFRAME XSTACK, 12, STACK
        LOCFRAME XSTACK, 21, STACK
        PUBLIC afAPSF_ConfigGet
        FUNCTION afAPSF_ConfigGet,0a1203H
        ARGFRAME XSTACK, 0, STACK
        LOCFRAME XSTACK, 15, STACK
        PUBLIC afAPSF_ConfigSet
        FUNCTION afAPSF_ConfigSet,0a1203H
        ARGFRAME XSTACK, 0, STACK
        LOCFRAME XSTACK, 18, STACK
        FUNCTION afBuildMSGIncoming,0a1203H
        ARGFRAME XSTACK, 40, STACK
        ARGFRAME IOVERLAY, 0, STATIC
        ARGFRAME DOVERLAY, 0, STATIC
        LOCFRAME ISTACK, 1, STACK
        LOCFRAME XSTACK, 22, STACK
        PUBLIC afCopyAddress
        FUNCTION afCopyAddress,021203H
        ARGFRAME XSTACK, 19, STACK
        ARGFRAME IOVERLAY, 0, STATIC
        ARGFRAME DOVERLAY, 0, STATIC
        LOCFRAME ISTACK, 1, STACK
        LOCFRAME XSTACK, 9, STACK
        PUBLIC afDataConfirm
        FUNCTION afDataConfirm,0a1203H
        ARGFRAME XSTACK, 49, STACK
        ARGFRAME IOVERLAY, 0, STATIC
        ARGFRAME DOVERLAY, 0, STATIC
        LOCFRAME ISTACK, 1, STACK
        LOCFRAME XSTACK, 14, STACK
        PUBLIC afDataReqMTU
        FUNCTION afDataReqMTU,021203H
        ARGFRAME XSTACK, 49, STACK
        ARGFRAME IOVERLAY, 0, STATIC
        ARGFRAME DOVERLAY, 0, STATIC
        LOCFRAME XSTACK, 9, STACK
        PUBLIC afDelete
        FUNCTION afDelete,021203H
        ARGFRAME XSTACK, 0, STACK
        LOCFRAME XSTACK, 9, STACK
        PUBLIC afEndPoints
        FUNCTION afEndPoints,0203H
        ARGFRAME XSTACK, 0, STACK
        LOCFRAME ISTACK, 3, STACK
        PUBLIC afFindEndPointDesc
        FUNCTION afFindEndPointDesc,0a1203H
        ARGFRAME XSTACK, 28, STACK
        ARGFRAME IOVERLAY, 0, STATIC
        ARGFRAME DOVERLAY, 0, STATIC
        LOCFRAME XSTACK, 10, STACK
        FUNCTION afFindEndPointDescList,0203H
        ARGFRAME XSTACK, 49, STACK
        ARGFRAME IOVERLAY, 0, STATIC
        ARGFRAME DOVERLAY, 0, STATIC
        LOCFRAME ISTACK, 2, STACK
        PUBLIC afFindSimpleDesc
        FUNCTION afFindSimpleDesc,0a1203H
        ARGFRAME XSTACK, 0, STACK
        LOCFRAME XSTACK, 12, STACK
        PUBLIC afGetMatch
        FUNCTION afGetMatch,0a1203H
        ARGFRAME XSTACK, 0, STACK
        LOCFRAME XSTACK, 10, STACK
        PUBLIC afIncomingData
        FUNCTION afIncomingData,0a1203H
        ARGFRAME XSTACK, 10, STACK
        LOCFRAME ISTACK, 1, STACK
        LOCFRAME XSTACK, 40, STACK
        PUBLIC afNumEndPoints
        FUNCTION afNumEndPoints,0203H
        ARGFRAME XSTACK, 0, STACK
        LOCFRAME ISTACK, 2, STACK
        PUBLIC afReflectError
        FUNCTION afReflectError,0a1203H
        ARGFRAME XSTACK, 2, STACK
        LOCFRAME ISTACK, 1, STACK
        LOCFRAME XSTACK, 16, STACK
        PUBLIC afRegister
        FUNCTION afRegister,0a1203H
        ARGFRAME XSTACK, 0, STACK
        LOCFRAME XSTACK, 12, STACK
        PUBLIC afRegisterExtended
        FUNCTION afRegisterExtended,0a1203H
        ARGFRAME XSTACK, 12, STACK
        ARGFRAME IOVERLAY, 0, STATIC
        ARGFRAME DOVERLAY, 0, STATIC
        LOCFRAME ISTACK, 1, STACK
        LOCFRAME XSTACK, 14, STACK
        PUBLIC afSetApplCB
        FUNCTION afSetApplCB,0a1203H
        ARGFRAME XSTACK, 0, STACK
        LOCFRAME XSTACK, 12, STACK
        PUBLIC afSetMatch
        FUNCTION afSetMatch,0a1203H
        ARGFRAME XSTACK, 0, STACK
        LOCFRAME XSTACK, 10, STACK
        PUBLIC epList
        
          CFI Names cfiNames0
          CFI StackFrame CFA_SP SP IDATA
          CFI StackFrame CFA_PSP16 PSP16 XDATA
          CFI StackFrame CFA_XSP16 XSP16 XDATA
          CFI StaticOverlayFrame CFA_IOVERLAY IOVERLAY
          CFI StaticOverlayFrame CFA_DOVERLAY DOVERLAY
          CFI Resource `PSW.CY`:1, `B.BR0`:1, `B.BR1`:1, `B.BR2`:1, `B.BR3`:1
          CFI Resource `B.BR4`:1, `B.BR5`:1, `B.BR6`:1, `B.BR7`:1, `VB.BR8`:1
          CFI Resource `VB.BR9`:1, `VB.BR10`:1, `VB.BR11`:1, `VB.BR12`:1
          CFI Resource `VB.BR13`:1, `VB.BR14`:1, `VB.BR15`:1, VB:8, B:8, A:8
          CFI Resource PSW:8, DPL0:8, DPH0:8, R0:8, R1:8, R2:8, R3:8, R4:8, R5:8
          CFI Resource R6:8, R7:8, V0:8, V1:8, V2:8, V3:8, V4:8, V5:8, V6:8, V7:8
          CFI Resource SP:8, PSPH:8, PSPL:8, PSP16:16, XSPH:8, XSPL:8, XSP16:16
          CFI VirtualResource ?RET:24
          CFI Resource ?BRET_EXT:8
          CFI VirtualResource ?RET_HIGH:8, ?RET_LOW:8
          CFI ResourceParts PSP16 PSPH, PSPL
          CFI ResourceParts XSP16 XSPH, XSPL
          CFI ResourceParts ?RET ?BRET_EXT, ?RET_HIGH, ?RET_LOW
          CFI EndNames cfiNames0
        
          CFI Common cfiCommon0 Using cfiNames0
          CFI CodeAlign 1
          CFI DataAlign -1
          CFI ReturnAddress ?RET CODE
          CFI CFA_DOVERLAY Used
          CFI CFA_IOVERLAY Used
          CFI CFA_SP SP+-3
          CFI CFA_PSP16 PSP16+0
          CFI CFA_XSP16 XSP16+0
          CFI `PSW.CY` SameValue
          CFI `B.BR0` SameValue
          CFI `B.BR1` SameValue
          CFI `B.BR2` SameValue
          CFI `B.BR3` SameValue
          CFI `B.BR4` SameValue
          CFI `B.BR5` SameValue
          CFI `B.BR6` SameValue
          CFI `B.BR7` SameValue
          CFI `VB.BR8` SameValue
          CFI `VB.BR9` SameValue
          CFI `VB.BR10` SameValue
          CFI `VB.BR11` SameValue
          CFI `VB.BR12` SameValue
          CFI `VB.BR13` SameValue
          CFI `VB.BR14` SameValue
          CFI `VB.BR15` SameValue
          CFI VB SameValue
          CFI B Undefined
          CFI A Undefined
          CFI PSW SameValue
          CFI DPL0 SameValue
          CFI DPH0 SameValue
          CFI R0 Undefined
          CFI R1 Undefined
          CFI R2 Undefined
          CFI R3 Undefined
          CFI R4 Undefined
          CFI R5 Undefined
          CFI R6 SameValue
          CFI R7 SameValue
          CFI V0 SameValue
          CFI V1 SameValue
          CFI V2 SameValue
          CFI V3 SameValue
          CFI V4 SameValue
          CFI V5 SameValue
          CFI V6 SameValue
          CFI V7 SameValue
          CFI PSPH Undefined
          CFI PSPL Undefined
          CFI XSPH Undefined
          CFI XSPL Undefined
          CFI ?RET Concat
          CFI ?BRET_EXT Frame(CFA_SP, 3)
          CFI ?RET_HIGH Frame(CFA_SP, 2)
          CFI ?RET_LOW Frame(CFA_SP, 1)
          CFI EndCommon cfiCommon0
        
        
          CFI Common cfiCommon1 Using cfiNames0
          CFI CodeAlign 1
          CFI DataAlign -1
          CFI ReturnAddress ?RET CODE
          CFI CFA_DOVERLAY Used
          CFI CFA_IOVERLAY Used
          CFI CFA_SP SP+-2
          CFI CFA_PSP16 PSP16+0
          CFI CFA_XSP16 XSP16+0
          CFI `PSW.CY` SameValue
          CFI `B.BR0` SameValue
          CFI `B.BR1` SameValue
          CFI `B.BR2` SameValue
          CFI `B.BR3` SameValue
          CFI `B.BR4` SameValue
          CFI `B.BR5` SameValue
          CFI `B.BR6` SameValue
          CFI `B.BR7` SameValue
          CFI `VB.BR8` SameValue
          CFI `VB.BR9` SameValue
          CFI `VB.BR10` SameValue
          CFI `VB.BR11` SameValue
          CFI `VB.BR12` SameValue
          CFI `VB.BR13` SameValue
          CFI `VB.BR14` SameValue
          CFI `VB.BR15` SameValue
          CFI VB SameValue
          CFI B SameValue
          CFI A SameValue
          CFI PSW SameValue
          CFI DPL0 SameValue
          CFI DPH0 SameValue
          CFI R0 SameValue
          CFI R1 SameValue
          CFI R2 SameValue
          CFI R3 SameValue
          CFI R4 SameValue
          CFI R5 SameValue
          CFI R6 SameValue
          CFI R7 SameValue
          CFI V0 SameValue
          CFI V1 SameValue
          CFI V2 SameValue
          CFI V3 SameValue
          CFI V4 SameValue
          CFI V5 SameValue
          CFI V6 SameValue
          CFI V7 SameValue
          CFI PSPH Undefined
          CFI PSPL Undefined
          CFI XSPH Undefined
          CFI XSPL Undefined
          CFI ?RET Concat
          CFI ?BRET_EXT SameValue
          CFI ?RET_HIGH Frame(CFA_SP, 2)
          CFI ?RET_LOW Frame(CFA_SP, 1)
          CFI EndCommon cfiCommon1
        
APSDE_DataReq       SYMBOL "APSDE_DataReq"
`??APSDE_DataReq::?relay` SYMBOL "?relay", APSDE_DataReq
APSDE_DataReqMTU    SYMBOL "APSDE_DataReqMTU"
`??APSDE_DataReqMTU::?relay` SYMBOL "?relay", APSDE_DataReqMTU
NLME_GetShortAddr   SYMBOL "NLME_GetShortAddr"
`??NLME_GetShortAddr::?relay` SYMBOL "?relay", NLME_GetShortAddr
NLME_IsAddressBroadcast SYMBOL "NLME_IsAddressBroadcast"
`??NLME_IsAddressBroadcast::?relay` SYMBOL "?relay", NLME_IsAddressBroadcast
RTG_AddSrcRtgEntry_Guaranteed SYMBOL "RTG_AddSrcRtgEntry_Guaranteed"
`??RTG_AddSrcRtgEntry_Guaranteed::?relay` SYMBOL "?relay", RTG_AddSrcRtgEntry_Guaranteed
RTG_CheckRtStatus   SYMBOL "RTG_CheckRtStatus"
`??RTG_CheckRtStatus::?relay` SYMBOL "?relay", RTG_CheckRtStatus
aps_FindGroupForEndpoint SYMBOL "aps_FindGroupForEndpoint"
`??aps_FindGroupForEndpoint::?relay` SYMBOL "?relay", aps_FindGroupForEndpoint
bdb_zclFindingBindingEpType SYMBOL "bdb_zclFindingBindingEpType"
`??bdb_zclFindingBindingEpType::?relay` SYMBOL "?relay", bdb_zclFindingBindingEpType
osal_mem_alloc      SYMBOL "osal_mem_alloc"
`??osal_mem_alloc::?relay` SYMBOL "?relay", osal_mem_alloc
osal_mem_free       SYMBOL "osal_mem_free"
`??osal_mem_free::?relay` SYMBOL "?relay", osal_mem_free
osal_memcpy         SYMBOL "osal_memcpy"
`??osal_memcpy::?relay` SYMBOL "?relay", osal_memcpy
osal_msg_allocate   SYMBOL "osal_msg_allocate"
`??osal_msg_allocate::?relay` SYMBOL "?relay", osal_msg_allocate
osal_msg_send       SYMBOL "osal_msg_send"
`??osal_msg_send::?relay` SYMBOL "?relay", osal_msg_send
sAddrExtCpy         SYMBOL "sAddrExtCpy"
`??sAddrExtCpy::?relay` SYMBOL "?relay", sAddrExtCpy
AF_DataRequest      SYMBOL "AF_DataRequest"
`??AF_DataRequest::?relay` SYMBOL "?relay", AF_DataRequest
AF_DataRequestSrcRtg SYMBOL "AF_DataRequestSrcRtg"
`??AF_DataRequestSrcRtg::?relay` SYMBOL "?relay", AF_DataRequestSrcRtg
afAPSF_ConfigGet    SYMBOL "afAPSF_ConfigGet"
`??afAPSF_ConfigGet::?relay` SYMBOL "?relay", afAPSF_ConfigGet
afAPSF_ConfigSet    SYMBOL "afAPSF_ConfigSet"
`??afAPSF_ConfigSet::?relay` SYMBOL "?relay", afAPSF_ConfigSet
afCopyAddress       SYMBOL "afCopyAddress"
`??afCopyAddress::?relay` SYMBOL "?relay", afCopyAddress
afDataConfirm       SYMBOL "afDataConfirm"
`??afDataConfirm::?relay` SYMBOL "?relay", afDataConfirm
afDataReqMTU        SYMBOL "afDataReqMTU"
`??afDataReqMTU::?relay` SYMBOL "?relay", afDataReqMTU
afDelete            SYMBOL "afDelete"
`??afDelete::?relay` SYMBOL "?relay", afDelete
afEndPoints         SYMBOL "afEndPoints"
`??afEndPoints::?relay` SYMBOL "?relay", afEndPoints
afFindEndPointDesc  SYMBOL "afFindEndPointDesc"
`??afFindEndPointDesc::?relay` SYMBOL "?relay", afFindEndPointDesc
afFindSimpleDesc    SYMBOL "afFindSimpleDesc"
`??afFindSimpleDesc::?relay` SYMBOL "?relay", afFindSimpleDesc
afGetMatch          SYMBOL "afGetMatch"
`??afGetMatch::?relay` SYMBOL "?relay", afGetMatch
afIncomingData      SYMBOL "afIncomingData"
`??afIncomingData::?relay` SYMBOL "?relay", afIncomingData
afNumEndPoints      SYMBOL "afNumEndPoints"
`??afNumEndPoints::?relay` SYMBOL "?relay", afNumEndPoints
afReflectError      SYMBOL "afReflectError"
`??afReflectError::?relay` SYMBOL "?relay", afReflectError
afRegister          SYMBOL "afRegister"
`??afRegister::?relay` SYMBOL "?relay", afRegister
afRegisterExtended  SYMBOL "afRegisterExtended"
`??afRegisterExtended::?relay` SYMBOL "?relay", afRegisterExtended
afSetApplCB         SYMBOL "afSetApplCB"
`??afSetApplCB::?relay` SYMBOL "?relay", afSetApplCB
afSetMatch          SYMBOL "afSetMatch"
`??afSetMatch::?relay` SYMBOL "?relay", afSetMatch

        EXTERN `??APSDE_DataReq::?relay`
        FUNCTION `??APSDE_DataReq::?relay`,00H
        EXTERN `??APSDE_DataReqMTU::?relay`
        FUNCTION `??APSDE_DataReqMTU::?relay`,00H
        EXTERN `??NLME_GetShortAddr::?relay`
        FUNCTION `??NLME_GetShortAddr::?relay`,00H
        EXTERN `??NLME_IsAddressBroadcast::?relay`
        FUNCTION `??NLME_IsAddressBroadcast::?relay`,00H
        EXTERN `??RTG_AddSrcRtgEntry_Guaranteed::?relay`
        FUNCTION `??RTG_AddSrcRtgEntry_Guaranteed::?relay`,00H
        EXTERN `??RTG_CheckRtStatus::?relay`
        FUNCTION `??RTG_CheckRtStatus::?relay`,00H
        EXTERN `??aps_FindGroupForEndpoint::?relay`
        FUNCTION `??aps_FindGroupForEndpoint::?relay`,00H
        EXTERN `??bdb_zclFindingBindingEpType::?relay`
        FUNCTION `??bdb_zclFindingBindingEpType::?relay`,00H
        EXTERN `??osal_mem_alloc::?relay`
        FUNCTION `??osal_mem_alloc::?relay`,00H
        EXTERN `??osal_mem_free::?relay`
        FUNCTION `??osal_mem_free::?relay`,00H
        EXTERN `??osal_memcpy::?relay`
        FUNCTION `??osal_memcpy::?relay`,00H
        EXTERN `??osal_msg_allocate::?relay`
        FUNCTION `??osal_msg_allocate::?relay`,00H
        EXTERN `??osal_msg_send::?relay`
        FUNCTION `??osal_msg_send::?relay`,00H
        EXTERN `??sAddrExtCpy::?relay`
        FUNCTION `??sAddrExtCpy::?relay`,00H
        EXTERN APSDE_DataReq
        FUNCTION APSDE_DataReq,0202H
        ARGFRAME ISTACK, 0, STACK
        ARGFRAME PSTACK, 0, STACK
        ARGFRAME XSTACK, 49, STACK
        ARGFRAME IOVERLAY, 0, STATIC
        ARGFRAME DOVERLAY, 0, STATIC
        EXTERN APSDE_DataReqMTU
        FUNCTION APSDE_DataReqMTU,0202H
        ARGFRAME ISTACK, 0, STACK
        ARGFRAME PSTACK, 0, STACK
        ARGFRAME XSTACK, 9, STACK
        ARGFRAME IOVERLAY, 0, STATIC
        ARGFRAME DOVERLAY, 0, STATIC
        EXTERN NLME_GetShortAddr
        FUNCTION NLME_GetShortAddr,0202H
        ARGFRAME ISTACK, 0, STACK
        ARGFRAME PSTACK, 0, STACK
        ARGFRAME XSTACK, 49, STACK
        ARGFRAME IOVERLAY, 0, STATIC
        ARGFRAME DOVERLAY, 0, STATIC
        EXTERN NLME_IsAddressBroadcast
        FUNCTION NLME_IsAddressBroadcast,0202H
        ARGFRAME ISTACK, 0, STACK
        ARGFRAME PSTACK, 0, STACK
        ARGFRAME XSTACK, 49, STACK
        ARGFRAME IOVERLAY, 0, STATIC
        ARGFRAME DOVERLAY, 0, STATIC
        EXTERN RTG_AddSrcRtgEntry_Guaranteed
        FUNCTION RTG_AddSrcRtgEntry_Guaranteed,0202H
        ARGFRAME ISTACK, 0, STACK
        ARGFRAME PSTACK, 0, STACK
        ARGFRAME XSTACK, 12, STACK
        ARGFRAME IOVERLAY, 0, STATIC
        ARGFRAME DOVERLAY, 0, STATIC
        EXTERN RTG_CheckRtStatus
        FUNCTION RTG_CheckRtStatus,0202H
        ARGFRAME ISTACK, 0, STACK
        ARGFRAME PSTACK, 0, STACK
        ARGFRAME XSTACK, 49, STACK
        ARGFRAME IOVERLAY, 0, STATIC
        ARGFRAME DOVERLAY, 0, STATIC
        EXTERN aps_FindGroupForEndpoint
        FUNCTION aps_FindGroupForEndpoint,0202H
        ARGFRAME ISTACK, 0, STACK
        ARGFRAME PSTACK, 0, STACK
        ARGFRAME XSTACK, 28, STACK
        ARGFRAME IOVERLAY, 0, STATIC
        ARGFRAME DOVERLAY, 0, STATIC
        EXTERN apsfSendFragmented
        EXTERN bdb_HeadEpDescriptorList
        EXTERN bdb_zclFindingBindingEpType
        FUNCTION bdb_zclFindingBindingEpType,0202H
        ARGFRAME ISTACK, 0, STACK
        ARGFRAME PSTACK, 0, STACK
        ARGFRAME XSTACK, 14, STACK
        ARGFRAME IOVERLAY, 0, STATIC
        ARGFRAME DOVERLAY, 0, STATIC
        EXTERN osal_mem_alloc
        FUNCTION osal_mem_alloc,0202H
        ARGFRAME ISTACK, 0, STACK
        ARGFRAME PSTACK, 0, STACK
        ARGFRAME XSTACK, 14, STACK
        ARGFRAME IOVERLAY, 0, STATIC
        ARGFRAME DOVERLAY, 0, STATIC
        EXTERN osal_mem_free
        FUNCTION osal_mem_free,0202H
        ARGFRAME ISTACK, 0, STACK
        ARGFRAME PSTACK, 0, STACK
        ARGFRAME XSTACK, 49, STACK
        ARGFRAME IOVERLAY, 0, STATIC
        ARGFRAME DOVERLAY, 0, STATIC
        EXTERN osal_memcpy
        FUNCTION osal_memcpy,0202H
        ARGFRAME ISTACK, 0, STACK
        ARGFRAME PSTACK, 0, STACK
        ARGFRAME XSTACK, 22, STACK
        ARGFRAME IOVERLAY, 0, STATIC
        ARGFRAME DOVERLAY, 0, STATIC
        EXTERN osal_msg_allocate
        FUNCTION osal_msg_allocate,0202H
        ARGFRAME ISTACK, 0, STACK
        ARGFRAME PSTACK, 0, STACK
        ARGFRAME XSTACK, 28, STACK
        ARGFRAME IOVERLAY, 0, STATIC
        ARGFRAME DOVERLAY, 0, STATIC
        EXTERN osal_msg_send
        FUNCTION osal_msg_send,0202H
        ARGFRAME ISTACK, 0, STACK
        ARGFRAME PSTACK, 0, STACK
        ARGFRAME XSTACK, 28, STACK
        ARGFRAME IOVERLAY, 0, STATIC
        ARGFRAME DOVERLAY, 0, STATIC
        EXTERN sAddrExtCpy
        FUNCTION sAddrExtCpy,0202H
        ARGFRAME ISTACK, 0, STACK
        ARGFRAME PSTACK, 0, STACK
        ARGFRAME XSTACK, 49, STACK
        ARGFRAME IOVERLAY, 0, STATIC
        ARGFRAME DOVERLAY, 0, STATIC

// D:\fuzzing-coordinator-response-collection\Components\stack\af\AF.c
//    1 /**************************************************************************************************
//    2   Filename:       AF.c
//    3   Revised:        $Date: 2014-11-04 10:53:36 -0800 (Tue, 04 Nov 2014) $
//    4   Revision:       $Revision: 40974 $
//    5 
//    6   Description:    Application Framework - Device Description helper functions
//    7 
//    8 
//    9   Copyright 2004-2014 Texas Instruments Incorporated. All rights reserved.
//   10 
//   11   IMPORTANT: Your use of this Software is limited to those specific rights
//   12   granted under the terms of a software license agreement between the user
//   13   who downloaded the software, his/her employer (which must be your employer)
//   14   and Texas Instruments Incorporated (the "License").  You may not use this
//   15   Software unless you agree to abide by the terms of the License. The License
//   16   limits your use, and you acknowledge, that the Software may not be modified,
//   17   copied or distributed unless embedded on a Texas Instruments microcontroller
//   18   or used solely and exclusively in conjunction with a Texas Instruments radio
//   19   frequency transceiver, which is integrated into your product.  Other than for
//   20   the foregoing purpose, you may not use, reproduce, copy, prepare derivative
//   21   works of, modify, distribute, perform, display or sell this Software and/or
//   22   its documentation for any purpose.
//   23 
//   24   YOU FURTHER ACKNOWLEDGE AND AGREE THAT THE SOFTWARE AND DOCUMENTATION ARE
//   25   PROVIDED "AS IS" WITHOUT WARRANTY OF ANY KIND, EITHER EXPRESS OR IMPLIED,
//   26   INCLUDING WITHOUT LIMITATION, ANY WARRANTY OF MERCHANTABILITY, TITLE,
//   27   NON-INFRINGEMENT AND FITNESS FOR A PARTICULAR PURPOSE. IN NO EVENT SHALL
//   28   TEXAS INSTRUMENTS OR ITS LICENSORS BE LIABLE OR OBLIGATED UNDER CONTRACT,
//   29   NEGLIGENCE, STRICT LIABILITY, CONTRIBUTION, BREACH OF WARRANTY, OR OTHER
//   30   LEGAL EQUITABLE THEORY ANY DIRECT OR INDIRECT DAMAGES OR EXPENSES
//   31   INCLUDING BUT NOT LIMITED TO ANY INCIDENTAL, SPECIAL, INDIRECT, PUNITIVE
//   32   OR CONSEQUENTIAL DAMAGES, LOST PROFITS OR LOST DATA, COST OF PROCUREMENT
//   33   OF SUBSTITUTE GOODS, TECHNOLOGY, SERVICES, OR ANY CLAIMS BY THIRD PARTIES
//   34   (INCLUDING BUT NOT LIMITED TO ANY DEFENSE THEREOF), OR OTHER SIMILAR COSTS.
//   35 
//   36   Should you have any questions regarding your right to use this Software,
//   37   contact Texas Instruments Incorporated at www.TI.com.
//   38 **************************************************************************************************/
//   39 
//   40 /*********************************************************************
//   41  * INCLUDES
//   42  */
//   43 
//   44 #include "OSAL.h"
//   45 #include "AF.h"
//   46 #include "nwk_globals.h"
//   47 #include "nwk_util.h"
//   48 #include "aps_groups.h"
//   49 #include "ZDProfile.h"
//   50 #include "aps_frag.h"
//   51 #include "rtg.h"
//   52 
//   53 #include "hal_uart.h"
//   54 
//   55 #include <stdio.h>
//   56 
//   57 #if defined ( MT_AF_CB_FUNC )
//   58   #include "MT_AF.h"
//   59 #endif
//   60 
//   61 #if defined ( INTER_PAN )
//   62   #include "stub_aps.h"
//   63 #endif
//   64 
//   65 #include "bdb.h" 
//   66 #if (BDB_TOUCHLINK_CAPABILITY_ENABLED==1)
//   67   #include "bdb_tlCommissioning.h"
//   68 #endif
//   69 
//   70 /*********************************************************************
//   71  * MACROS
//   72  */
//   73 
//   74 /*********************************************************************
//   75  * @fn      afSend
//   76  *
//   77  * @brief   Helper macro for V1 API to invoke V2 API.
//   78  *
//   79  * input parameters
//   80  *
//   81  * @param  *dstAddr - Full ZB destination address: Nwk Addr + End Point.
//   82  * @param   srcEP - Origination (i.e. respond to or ack to) End Point.
//   83  * @param   cID - A valid cluster ID as specified by the Profile.
//   84  * @param   len - Number of bytes of data pointed to by next param.
//   85  * @param  *buf - A pointer to the data bytes to send.
//   86  * @param   options - Valid bit mask of AF Tx Options as defined in AF.h.
//   87  * @param  *transID - A pointer to a byte which can be modified and which will
//   88  *                    be used as the transaction sequence number of the msg.
//   89  *
//   90  * output parameters
//   91  *
//   92  * @param  *transID - Incremented by one if the return value is success.
//   93  *
//   94  * @return  afStatus_t - See previous definition of afStatus_... types.
//   95  */
//   96 #define afSend( dstAddr, srcEP, cID, len, buf, transID, options, radius ) \ 
//   97         AF_DataRequest( (dstAddr), afFindEndPointDesc( (srcEP) ), \ 
//   98                           (cID), (len), (buf), (transID), (options), (radius) )
//   99 
//  100 /*********************************************************************
//  101  * GLOBAL VARIABLES
//  102  */
//  103 

        RSEG XDATA_Z:XDATA:NOROOT(0)
        DATA16
//  104 epList_t *epList;
epList:
        DS 2
        REQUIRE __INIT_XDATA_Z
//  105 
//  106 /*********************************************************************
//  107  * LOCAL FUNCTIONS
//  108  */
//  109 
//  110 static void afBuildMSGIncoming( aps_FrameFormat_t *aff, endPointDesc_t *epDesc,
//  111                 zAddrType_t *SrcAddress, uint16 SrcPanId, NLDE_Signal_t *sig,
//  112                 uint8 nwkSeqNum, uint8 SecurityUse, uint32 timestamp, uint8 radius );
//  113 
//  114 static epList_t *afFindEndPointDescList( uint8 EndPoint );
//  115 
//  116 static pDescCB afGetDescCB( endPointDesc_t *epDesc );
//  117 
//  118 /*********************************************************************
//  119  * PUBLIC FUNCTIONS
//  120  */
//  121 
//  122 /*********************************************************************
//  123  * @fn      afInit
//  124  *
//  125  * @brief   Initialization function for the AF.
//  126  *
//  127  * @param   none
//  128  *
//  129  * @return  none
//  130 void afInit( void )
//  131 {
//  132 }
//  133  */
//  134 
//  135 /*********************************************************************
//  136  * @fn      afRegisterExtended
//  137  *
//  138  * @brief   Register an Application's EndPoint description.
//  139  *
//  140  * @param   epDesc - pointer to the Application's endpoint descriptor.
//  141  * @param   descFn - pointer to descriptor callback function
//  142  * @param   applFn - pointer to the Application callback function
//  143  *
//  144  * NOTE:  The memory that epDesc is pointing to must exist after this call.
//  145  *
//  146  * @return  Pointer to epList_t on success, NULL otherwise.
//  147  */

        RSEG BANKED_CODE:HUGECODE:NOROOT(0)
//  148 epList_t *afRegisterExtended( endPointDesc_t *epDesc, pDescCB descFn, pApplCB applFn )
afRegisterExtended:
          CFI Block cfiBlock0 Using cfiCommon0
          CFI Function afRegisterExtended
        CODE
//  149 {
        FUNCALL afRegisterExtended, osal_mem_alloc
        LOCFRAME ISTACK, 0, STACK
        LOCFRAME PSTACK, 0, STACK
        LOCFRAME XSTACK, 14, STACK
        LOCFRAME IOVERLAY, 0, STATIC
        LOCFRAME DOVERLAY, 0, STATIC
        ARGFRAME ISTACK, 0, STACK
        ARGFRAME PSTACK, 0, STACK
        ARGFRAME XSTACK, 14, STACK
        ARGFRAME IOVERLAY, 0, STATIC
        ARGFRAME DOVERLAY, 0, STATIC
        FUNCALL afRegisterExtended, bdb_zclFindingBindingEpType
        LOCFRAME ISTACK, 0, STACK
        LOCFRAME PSTACK, 0, STACK
        LOCFRAME XSTACK, 14, STACK
        LOCFRAME IOVERLAY, 0, STATIC
        LOCFRAME DOVERLAY, 0, STATIC
        ARGFRAME ISTACK, 0, STACK
        ARGFRAME PSTACK, 0, STACK
        ARGFRAME XSTACK, 14, STACK
        ARGFRAME IOVERLAY, 0, STATIC
        ARGFRAME DOVERLAY, 0, STATIC
        REQUIRE ?V0
        REQUIRE ?V1
        REQUIRE ?V2
        REQUIRE ?V3
        REQUIRE ?V4
        REQUIRE ?V5
        MOV       A,#-0xe
        LCALL     ?BANKED_ENTER_XDATA
          CFI DPH0 load(1, XDATA, add(CFA_XSP16, literal(-1)))
          CFI DPL0 load(1, XDATA, add(CFA_XSP16, literal(-2)))
          CFI ?BRET_EXT load(1, XDATA, add(CFA_XSP16, literal(-3)))
          CFI ?RET_HIGH load(1, XDATA, add(CFA_XSP16, literal(-4)))
          CFI ?RET_LOW load(1, XDATA, add(CFA_XSP16, literal(-5)))
          CFI R7 load(1, XDATA, add(CFA_XSP16, literal(-6)))
          CFI V5 load(1, XDATA, add(CFA_XSP16, literal(-7)))
          CFI V4 load(1, XDATA, add(CFA_XSP16, literal(-8)))
          CFI V3 load(1, XDATA, add(CFA_XSP16, literal(-9)))
          CFI V2 load(1, XDATA, add(CFA_XSP16, literal(-10)))
          CFI V1 load(1, XDATA, add(CFA_XSP16, literal(-11)))
          CFI V0 load(1, XDATA, add(CFA_XSP16, literal(-12)))
          CFI VB load(1, XDATA, add(CFA_XSP16, literal(-13)))
          CFI R6 load(1, XDATA, add(CFA_XSP16, literal(-14)))
          CFI CFA_SP SP+0
          CFI CFA_XSP16 add(XSP16, 14)
        ; Saved register size: 14
        ; Auto size: 0
        MOV       ?V4,R2
        MOV       ?V5,R3
        MOV       ?V2,R4
        MOV       ?V3,R5
//  150   epList_t *ep = osal_mem_alloc(sizeof(epList_t));
        ; Setup parameters for call to function osal_mem_alloc
        MOV       R2,#0xb
        MOV       R3,#0x0
        LCALL     `??osal_mem_alloc::?relay`; Banked call to: osal_mem_alloc
        MOV       ?V0,R2
        MOV       ?V1,R3
        MOV       R6,?V0
        MOV       R7,?V1
//  151 
//  152   if (ep != NULL)
        MOV       A,R6
        ORL       A,R7
        JZ        ??afRegisterExtended_0
//  153   {
//  154     ep->nextDesc = epList;
        MOV       DPTR,#epList
        LCALL     ?Subroutine15 & 0xFFFF
//  155     epList = ep;
??CrossCallReturnLabel_18:
        MOV       DPTR,#epList
        MOV       A,R6
        MOVX      @DPTR,A
        INC       DPTR
        MOV       A,R7
        MOVX      @DPTR,A
//  156     ep->epDesc = epDesc;
        MOV       A,R6
        ADD       A,#0x2
        MOV       ?V0,A
        CLR       A
        ADDC      A,R7
        MOV       ?V1,A
        MOV       DPL,?V0
        MOV       DPH,A
        MOV       A,?V4
        MOVX      @DPTR,A
        INC       DPTR
        MOV       A,?V5
        LCALL     ?Subroutine31 & 0xFFFF
//  157     ep->pfnDescCB = descFn;
??CrossCallReturnLabel_54:
        MOV       A,?V2
        MOVX      @DPTR,A
        INC       DPTR
        MOV       A,?V3
        LCALL     ?Subroutine31 & 0xFFFF
//  158     ep->apsfCfg.frameDelay = APSF_DEFAULT_INTERFRAME_DELAY;
??CrossCallReturnLabel_55:
        INC       DPTR
        INC       DPTR
        MOV       A,#0x32
        LCALL     ?Subroutine30 & 0xFFFF
//  159     ep->apsfCfg.windowSize = APSF_DEFAULT_WINDOW_SIZE;
??CrossCallReturnLabel_52:
        MOV       A,#0x1
        LCALL     ?Subroutine30 & 0xFFFF
//  160     ep->flags = eEP_AllowMatch;  // Default to allow Match Descriptor.
??CrossCallReturnLabel_53:
        INC       DPTR
        MOVX      @DPTR,A
//  161     ep->pfnApplCB = applFn;
        MOV       A,#0xe
        LCALL     ?XSTACK_DISP0_8
        LCALL     ?Subroutine16 & 0xFFFF
??CrossCallReturnLabel_20:
        INC       DPTR
        INC       DPTR
        INC       DPTR
        INC       DPTR
        INC       DPTR
        LCALL     ??Subroutine55_0 & 0xFFFF
//  162     
//  163   #if (BDB_FINDING_BINDING_CAPABILITY_ENABLED==1) 
//  164     //Make sure we add at least one application endpoint
//  165     if ((epDesc->endPoint != 0)  || (epDesc->endPoint < BDB_ZIGBEE_RESERVED_ENDPOINTS_START))
//  166     {
//  167       bdb_HeadEpDescriptorList = epList;
??CrossCallReturnLabel_102:
        MOV       DPTR,#epList
        LCALL     ??Subroutine57_0 & 0xFFFF
??CrossCallReturnLabel_117:
        MOV       DPTR,#bdb_HeadEpDescriptorList
        LCALL     ??Subroutine55_0 & 0xFFFF
//  168       ep->epDesc->epType = bdb_zclFindingBindingEpType(ep->epDesc);
??CrossCallReturnLabel_103:
        ; Setup parameters for call to function bdb_zclFindingBindingEpType
        MOV       DPL,?V0
        MOV       DPH,?V1
        LCALL     ??Subroutine61_0 & 0xFFFF
//  169     }
//  170 
//  171   #endif
//  172 #if defined ( BDB_TL_INITIATOR ) || defined ( BDB_TL_TARGET )
//  173     // find the first empty entry in the device info table
//  174     for ( uint8 i = 0; i < 5; i++ )
//  175     {
//  176       if ( touchLinkSubDevicesTbl[i] == NULL )
//  177       {
//  178         touchLinkSubDevicesTbl[i] = osal_mem_alloc(sizeof(bdbTLDeviceInfo_t));
//  179         if ( touchLinkSubDevicesTbl[i] != NULL )
//  180         {
//  181           touchLinkSubDevicesTbl[i]->deviceID = epDesc->simpleDesc->AppDeviceId;
//  182           touchLinkSubDevicesTbl[i]->endpoint = epDesc->simpleDesc->EndPoint;
//  183           touchLinkSubDevicesTbl[i]->profileID = epDesc->simpleDesc->AppProfId;
//  184           touchLinkSubDevicesTbl[i]->version = epDesc->simpleDesc->AppDevVer;
//  185           break;
//  186         }
//  187       }
//  188     }
//  189 #endif  // BDB_TL_INITIATOR || BDB_TL_TARGET
//  190   }
??CrossCallReturnLabel_138:
        LCALL     `??bdb_zclFindingBindingEpType::?relay`; Banked call to: bdb_zclFindingBindingEpType
        MOV       DPL,?V0
        MOV       DPH,?V1
        LCALL     ?Subroutine14 & 0xFFFF
??CrossCallReturnLabel_15:
        MOV       A,R1
        MOVX      @DPTR,A
//  191  
//  192   return ep;
??afRegisterExtended_0:
        MOV       A,R6
        MOV       R2,A
        MOV       A,R7
        MOV       R3,A
          CFI EndBlock cfiBlock0
        REQUIRE ?Subroutine0
        ; // Fall through to label ?Subroutine0
//  193 }

        RSEG BANKED_CODE:HUGECODE:NOROOT(0)
?Subroutine0:
          CFI Block cfiBlock1 Using cfiCommon0
          CFI NoFunction
          CFI CFA_SP SP+0
          CFI CFA_XSP16 add(XSP16, 14)
          CFI VB load(1, XDATA, add(CFA_XSP16, literal(-13)))
          CFI DPL0 load(1, XDATA, add(CFA_XSP16, literal(-2)))
          CFI DPH0 load(1, XDATA, add(CFA_XSP16, literal(-1)))
          CFI R6 load(1, XDATA, add(CFA_XSP16, literal(-14)))
          CFI R7 load(1, XDATA, add(CFA_XSP16, literal(-6)))
          CFI V0 load(1, XDATA, add(CFA_XSP16, literal(-12)))
          CFI V1 load(1, XDATA, add(CFA_XSP16, literal(-11)))
          CFI V2 load(1, XDATA, add(CFA_XSP16, literal(-10)))
          CFI V3 load(1, XDATA, add(CFA_XSP16, literal(-9)))
          CFI V4 load(1, XDATA, add(CFA_XSP16, literal(-8)))
          CFI V5 load(1, XDATA, add(CFA_XSP16, literal(-7)))
          CFI ?BRET_EXT load(1, XDATA, add(CFA_XSP16, literal(-3)))
          CFI ?RET_HIGH load(1, XDATA, add(CFA_XSP16, literal(-4)))
          CFI ?RET_LOW load(1, XDATA, add(CFA_XSP16, literal(-5)))
        MOV       R7,#0x6
        LJMP      ?BANKED_LEAVE_XDATA
          CFI EndBlock cfiBlock1

        RSEG BANKED_CODE:HUGECODE:NOROOT(0)
?Subroutine31:
          CFI Block cfiCond2 Using cfiCommon0
          CFI Function afRegisterExtended
          CFI Conditional ??CrossCallReturnLabel_54
          CFI R6 load(1, XDATA, add(CFA_XSP16, literal(-14)))
          CFI VB load(1, XDATA, add(CFA_XSP16, literal(-13)))
          CFI V0 load(1, XDATA, add(CFA_XSP16, literal(-12)))
          CFI V1 load(1, XDATA, add(CFA_XSP16, literal(-11)))
          CFI V2 load(1, XDATA, add(CFA_XSP16, literal(-10)))
          CFI V3 load(1, XDATA, add(CFA_XSP16, literal(-9)))
          CFI V4 load(1, XDATA, add(CFA_XSP16, literal(-8)))
          CFI V5 load(1, XDATA, add(CFA_XSP16, literal(-7)))
          CFI R7 load(1, XDATA, add(CFA_XSP16, literal(-6)))
          CFI ?RET_LOW load(1, XDATA, add(CFA_XSP16, literal(-5)))
          CFI ?RET_HIGH load(1, XDATA, add(CFA_XSP16, literal(-4)))
          CFI ?BRET_EXT load(1, XDATA, add(CFA_XSP16, literal(-3)))
          CFI DPL0 load(1, XDATA, add(CFA_XSP16, literal(-2)))
          CFI DPH0 load(1, XDATA, add(CFA_XSP16, literal(-1)))
          CFI CFA_SP SP+-2
          CFI CFA_XSP16 add(XSP16, 14)
          CFI Block cfiCond3 Using cfiCommon0
          CFI (cfiCond3) Function afRegisterExtended
          CFI (cfiCond3) Conditional ??CrossCallReturnLabel_55
          CFI (cfiCond3) R6 load(1, XDATA, add(CFA_XSP16, literal(-14)))
          CFI (cfiCond3) VB load(1, XDATA, add(CFA_XSP16, literal(-13)))
          CFI (cfiCond3) V0 load(1, XDATA, add(CFA_XSP16, literal(-12)))
          CFI (cfiCond3) V1 load(1, XDATA, add(CFA_XSP16, literal(-11)))
          CFI (cfiCond3) V2 load(1, XDATA, add(CFA_XSP16, literal(-10)))
          CFI (cfiCond3) V3 load(1, XDATA, add(CFA_XSP16, literal(-9)))
          CFI (cfiCond3) V4 load(1, XDATA, add(CFA_XSP16, literal(-8)))
          CFI (cfiCond3) V5 load(1, XDATA, add(CFA_XSP16, literal(-7)))
          CFI (cfiCond3) R7 load(1, XDATA, add(CFA_XSP16, literal(-6)))
          CFI (cfiCond3) ?RET_LOW load(1, XDATA, add(CFA_XSP16, literal(-5)))
          CFI (cfiCond3) ?RET_HIGH load(1, XDATA, add(CFA_XSP16, literal(-4)))
          CFI (cfiCond3) ?BRET_EXT load(1, XDATA, add(CFA_XSP16, literal(-3)))
          CFI (cfiCond3) DPL0 load(1, XDATA, add(CFA_XSP16, literal(-2)))
          CFI (cfiCond3) DPH0 load(1, XDATA, add(CFA_XSP16, literal(-1)))
          CFI (cfiCond3) CFA_SP SP+-2
          CFI (cfiCond3) CFA_XSP16 add(XSP16, 14)
          CFI Block cfiPicker4 Using cfiCommon1
          CFI (cfiPicker4) NoFunction
          CFI (cfiPicker4) Picker
        LCALL     ?Subroutine40 & 0xFFFF
??CrossCallReturnLabel_73:
        RET
          CFI EndBlock cfiCond2
          CFI EndBlock cfiCond3
          CFI EndBlock cfiPicker4

        RSEG BANKED_CODE:HUGECODE:NOROOT(0)
?Subroutine40:
          CFI Block cfiCond5 Using cfiCommon0
          CFI Function afRegisterExtended
          CFI Conditional ??CrossCallReturnLabel_73, ??CrossCallReturnLabel_54
          CFI R6 load(1, XDATA, add(CFA_XSP16, literal(-14)))
          CFI VB load(1, XDATA, add(CFA_XSP16, literal(-13)))
          CFI V0 load(1, XDATA, add(CFA_XSP16, literal(-12)))
          CFI V1 load(1, XDATA, add(CFA_XSP16, literal(-11)))
          CFI V2 load(1, XDATA, add(CFA_XSP16, literal(-10)))
          CFI V3 load(1, XDATA, add(CFA_XSP16, literal(-9)))
          CFI V4 load(1, XDATA, add(CFA_XSP16, literal(-8)))
          CFI V5 load(1, XDATA, add(CFA_XSP16, literal(-7)))
          CFI R7 load(1, XDATA, add(CFA_XSP16, literal(-6)))
          CFI ?RET_LOW load(1, XDATA, add(CFA_XSP16, literal(-5)))
          CFI ?RET_HIGH load(1, XDATA, add(CFA_XSP16, literal(-4)))
          CFI ?BRET_EXT load(1, XDATA, add(CFA_XSP16, literal(-3)))
          CFI DPL0 load(1, XDATA, add(CFA_XSP16, literal(-2)))
          CFI DPH0 load(1, XDATA, add(CFA_XSP16, literal(-1)))
          CFI CFA_SP SP+-4
          CFI CFA_XSP16 add(XSP16, 14)
          CFI Block cfiCond6 Using cfiCommon0
          CFI (cfiCond6) Function afRegisterExtended
          CFI (cfiCond6) Conditional ??CrossCallReturnLabel_73, ??CrossCallReturnLabel_55
          CFI (cfiCond6) R6 load(1, XDATA, add(CFA_XSP16, literal(-14)))
          CFI (cfiCond6) VB load(1, XDATA, add(CFA_XSP16, literal(-13)))
          CFI (cfiCond6) V0 load(1, XDATA, add(CFA_XSP16, literal(-12)))
          CFI (cfiCond6) V1 load(1, XDATA, add(CFA_XSP16, literal(-11)))
          CFI (cfiCond6) V2 load(1, XDATA, add(CFA_XSP16, literal(-10)))
          CFI (cfiCond6) V3 load(1, XDATA, add(CFA_XSP16, literal(-9)))
          CFI (cfiCond6) V4 load(1, XDATA, add(CFA_XSP16, literal(-8)))
          CFI (cfiCond6) V5 load(1, XDATA, add(CFA_XSP16, literal(-7)))
          CFI (cfiCond6) R7 load(1, XDATA, add(CFA_XSP16, literal(-6)))
          CFI (cfiCond6) ?RET_LOW load(1, XDATA, add(CFA_XSP16, literal(-5)))
          CFI (cfiCond6) ?RET_HIGH load(1, XDATA, add(CFA_XSP16, literal(-4)))
          CFI (cfiCond6) ?BRET_EXT load(1, XDATA, add(CFA_XSP16, literal(-3)))
          CFI (cfiCond6) DPL0 load(1, XDATA, add(CFA_XSP16, literal(-2)))
          CFI (cfiCond6) DPH0 load(1, XDATA, add(CFA_XSP16, literal(-1)))
          CFI (cfiCond6) CFA_SP SP+-4
          CFI (cfiCond6) CFA_XSP16 add(XSP16, 14)
          CFI Block cfiCond7 Using cfiCommon0
          CFI (cfiCond7) Function afRegisterExtended
          CFI (cfiCond7) Conditional ??CrossCallReturnLabel_74, ??CrossCallReturnLabel_52
          CFI (cfiCond7) R6 load(1, XDATA, add(CFA_XSP16, literal(-14)))
          CFI (cfiCond7) VB load(1, XDATA, add(CFA_XSP16, literal(-13)))
          CFI (cfiCond7) V0 load(1, XDATA, add(CFA_XSP16, literal(-12)))
          CFI (cfiCond7) V1 load(1, XDATA, add(CFA_XSP16, literal(-11)))
          CFI (cfiCond7) V2 load(1, XDATA, add(CFA_XSP16, literal(-10)))
          CFI (cfiCond7) V3 load(1, XDATA, add(CFA_XSP16, literal(-9)))
          CFI (cfiCond7) V4 load(1, XDATA, add(CFA_XSP16, literal(-8)))
          CFI (cfiCond7) V5 load(1, XDATA, add(CFA_XSP16, literal(-7)))
          CFI (cfiCond7) R7 load(1, XDATA, add(CFA_XSP16, literal(-6)))
          CFI (cfiCond7) ?RET_LOW load(1, XDATA, add(CFA_XSP16, literal(-5)))
          CFI (cfiCond7) ?RET_HIGH load(1, XDATA, add(CFA_XSP16, literal(-4)))
          CFI (cfiCond7) ?BRET_EXT load(1, XDATA, add(CFA_XSP16, literal(-3)))
          CFI (cfiCond7) DPL0 load(1, XDATA, add(CFA_XSP16, literal(-2)))
          CFI (cfiCond7) DPH0 load(1, XDATA, add(CFA_XSP16, literal(-1)))
          CFI (cfiCond7) CFA_SP SP+-4
          CFI (cfiCond7) CFA_XSP16 add(XSP16, 14)
          CFI Block cfiCond8 Using cfiCommon0
          CFI (cfiCond8) Function afRegisterExtended
          CFI (cfiCond8) Conditional ??CrossCallReturnLabel_74, ??CrossCallReturnLabel_53
          CFI (cfiCond8) R6 load(1, XDATA, add(CFA_XSP16, literal(-14)))
          CFI (cfiCond8) VB load(1, XDATA, add(CFA_XSP16, literal(-13)))
          CFI (cfiCond8) V0 load(1, XDATA, add(CFA_XSP16, literal(-12)))
          CFI (cfiCond8) V1 load(1, XDATA, add(CFA_XSP16, literal(-11)))
          CFI (cfiCond8) V2 load(1, XDATA, add(CFA_XSP16, literal(-10)))
          CFI (cfiCond8) V3 load(1, XDATA, add(CFA_XSP16, literal(-9)))
          CFI (cfiCond8) V4 load(1, XDATA, add(CFA_XSP16, literal(-8)))
          CFI (cfiCond8) V5 load(1, XDATA, add(CFA_XSP16, literal(-7)))
          CFI (cfiCond8) R7 load(1, XDATA, add(CFA_XSP16, literal(-6)))
          CFI (cfiCond8) ?RET_LOW load(1, XDATA, add(CFA_XSP16, literal(-5)))
          CFI (cfiCond8) ?RET_HIGH load(1, XDATA, add(CFA_XSP16, literal(-4)))
          CFI (cfiCond8) ?BRET_EXT load(1, XDATA, add(CFA_XSP16, literal(-3)))
          CFI (cfiCond8) DPL0 load(1, XDATA, add(CFA_XSP16, literal(-2)))
          CFI (cfiCond8) DPH0 load(1, XDATA, add(CFA_XSP16, literal(-1)))
          CFI (cfiCond8) CFA_SP SP+-4
          CFI (cfiCond8) CFA_XSP16 add(XSP16, 14)
          CFI Block cfiPicker9 Using cfiCommon1
          CFI (cfiPicker9) NoFunction
          CFI (cfiPicker9) Picker
        MOVX      @DPTR,A
        MOV       DPL,R6
        MOV       DPH,R7
        INC       DPTR
        INC       DPTR
        INC       DPTR
        INC       DPTR
        RET
          CFI EndBlock cfiCond5
          CFI EndBlock cfiCond6
          CFI EndBlock cfiCond7
          CFI EndBlock cfiCond8
          CFI EndBlock cfiPicker9

        RSEG BANKED_CODE:HUGECODE:NOROOT(0)
?Subroutine30:
          CFI Block cfiCond10 Using cfiCommon0
          CFI Function afRegisterExtended
          CFI Conditional ??CrossCallReturnLabel_52
          CFI R6 load(1, XDATA, add(CFA_XSP16, literal(-14)))
          CFI VB load(1, XDATA, add(CFA_XSP16, literal(-13)))
          CFI V0 load(1, XDATA, add(CFA_XSP16, literal(-12)))
          CFI V1 load(1, XDATA, add(CFA_XSP16, literal(-11)))
          CFI V2 load(1, XDATA, add(CFA_XSP16, literal(-10)))
          CFI V3 load(1, XDATA, add(CFA_XSP16, literal(-9)))
          CFI V4 load(1, XDATA, add(CFA_XSP16, literal(-8)))
          CFI V5 load(1, XDATA, add(CFA_XSP16, literal(-7)))
          CFI R7 load(1, XDATA, add(CFA_XSP16, literal(-6)))
          CFI ?RET_LOW load(1, XDATA, add(CFA_XSP16, literal(-5)))
          CFI ?RET_HIGH load(1, XDATA, add(CFA_XSP16, literal(-4)))
          CFI ?BRET_EXT load(1, XDATA, add(CFA_XSP16, literal(-3)))
          CFI DPL0 load(1, XDATA, add(CFA_XSP16, literal(-2)))
          CFI DPH0 load(1, XDATA, add(CFA_XSP16, literal(-1)))
          CFI CFA_SP SP+-2
          CFI CFA_XSP16 add(XSP16, 14)
          CFI Block cfiCond11 Using cfiCommon0
          CFI (cfiCond11) Function afRegisterExtended
          CFI (cfiCond11) Conditional ??CrossCallReturnLabel_53
          CFI (cfiCond11) R6 load(1, XDATA, add(CFA_XSP16, literal(-14)))
          CFI (cfiCond11) VB load(1, XDATA, add(CFA_XSP16, literal(-13)))
          CFI (cfiCond11) V0 load(1, XDATA, add(CFA_XSP16, literal(-12)))
          CFI (cfiCond11) V1 load(1, XDATA, add(CFA_XSP16, literal(-11)))
          CFI (cfiCond11) V2 load(1, XDATA, add(CFA_XSP16, literal(-10)))
          CFI (cfiCond11) V3 load(1, XDATA, add(CFA_XSP16, literal(-9)))
          CFI (cfiCond11) V4 load(1, XDATA, add(CFA_XSP16, literal(-8)))
          CFI (cfiCond11) V5 load(1, XDATA, add(CFA_XSP16, literal(-7)))
          CFI (cfiCond11) R7 load(1, XDATA, add(CFA_XSP16, literal(-6)))
          CFI (cfiCond11) ?RET_LOW load(1, XDATA, add(CFA_XSP16, literal(-5)))
          CFI (cfiCond11) ?RET_HIGH load(1, XDATA, add(CFA_XSP16, literal(-4)))
          CFI (cfiCond11) ?BRET_EXT load(1, XDATA, add(CFA_XSP16, literal(-3)))
          CFI (cfiCond11) DPL0 load(1, XDATA, add(CFA_XSP16, literal(-2)))
          CFI (cfiCond11) DPH0 load(1, XDATA, add(CFA_XSP16, literal(-1)))
          CFI (cfiCond11) CFA_SP SP+-2
          CFI (cfiCond11) CFA_XSP16 add(XSP16, 14)
          CFI Block cfiPicker12 Using cfiCommon1
          CFI (cfiPicker12) NoFunction
          CFI (cfiPicker12) Picker
        LCALL     ?Subroutine40 & 0xFFFF
??CrossCallReturnLabel_74:
        INC       DPTR
        INC       DPTR
        INC       DPTR
        RET
          CFI EndBlock cfiCond10
          CFI EndBlock cfiCond11
          CFI EndBlock cfiPicker12
//  194 
//  195 /*********************************************************************
//  196  * @fn      afRegister
//  197  *
//  198  * @brief   Register an Application's EndPoint description.
//  199  *
//  200  * @param   epDesc - pointer to the Application's endpoint descriptor.
//  201  *
//  202  * NOTE:  The memory that epDesc is pointing to must exist after this call.
//  203  *
//  204  * @return  afStatus_SUCCESS - Registered
//  205  *          afStatus_MEM_FAIL - not enough memory to add descriptor
//  206  *          afStatus_INVALID_PARAMETER - duplicate endpoint
//  207  */

        RSEG BANKED_CODE:HUGECODE:NOROOT(0)
//  208 afStatus_t afRegister( endPointDesc_t *epDesc )
afRegister:
          CFI Block cfiBlock13 Using cfiCommon0
          CFI Function afRegister
        CODE
//  209 {
        FUNCALL afRegister, afFindEndPointDescList
        LOCFRAME ISTACK, 0, STACK
        LOCFRAME PSTACK, 0, STACK
        LOCFRAME XSTACK, 10, STACK
        LOCFRAME IOVERLAY, 0, STATIC
        LOCFRAME DOVERLAY, 0, STATIC
        ARGFRAME ISTACK, 0, STACK
        ARGFRAME PSTACK, 0, STACK
        ARGFRAME XSTACK, 10, STACK
        ARGFRAME IOVERLAY, 0, STATIC
        ARGFRAME DOVERLAY, 0, STATIC
        FUNCALL afRegister, afRegisterExtended
        LOCFRAME ISTACK, 0, STACK
        LOCFRAME PSTACK, 0, STACK
        LOCFRAME XSTACK, 12, STACK
        LOCFRAME IOVERLAY, 0, STATIC
        LOCFRAME DOVERLAY, 0, STATIC
        ARGFRAME ISTACK, 0, STACK
        ARGFRAME PSTACK, 0, STACK
        ARGFRAME XSTACK, 12, STACK
        ARGFRAME IOVERLAY, 0, STATIC
        ARGFRAME DOVERLAY, 0, STATIC
        REQUIRE ?V0
        REQUIRE ?V1
        MOV       A,#-0xa
        LCALL     ?BANKED_ENTER_XDATA
          CFI DPH0 load(1, XDATA, add(CFA_XSP16, literal(-1)))
          CFI DPL0 load(1, XDATA, add(CFA_XSP16, literal(-2)))
          CFI ?BRET_EXT load(1, XDATA, add(CFA_XSP16, literal(-3)))
          CFI ?RET_HIGH load(1, XDATA, add(CFA_XSP16, literal(-4)))
          CFI ?RET_LOW load(1, XDATA, add(CFA_XSP16, literal(-5)))
          CFI R7 load(1, XDATA, add(CFA_XSP16, literal(-6)))
          CFI V1 load(1, XDATA, add(CFA_XSP16, literal(-7)))
          CFI V0 load(1, XDATA, add(CFA_XSP16, literal(-8)))
          CFI VB load(1, XDATA, add(CFA_XSP16, literal(-9)))
          CFI R6 load(1, XDATA, add(CFA_XSP16, literal(-10)))
          CFI CFA_SP SP+0
          CFI CFA_XSP16 add(XSP16, 10)
        ; Saved register size: 10
        ; Auto size: 0
        MOV       A,R2
        MOV       R6,A
        MOV       A,R3
        MOV       R7,A
//  210   if (afFindEndPointDescList(epDesc->endPoint))  // Look for duplicate endpoint.
        ; Setup parameters for call to function afFindEndPointDescList
        MOV       DPL,R6
        MOV       DPH,R7
        MOVX      A,@DPTR
        MOV       R1,A
        LCALL     `??afFindEndPointDescList::?relay`; Banked call to: afFindEndPointDescList
        MOV       ?V1,R3
        MOV       A,R2
        ORL       A,?V1
        JZ        ??afRegister_0
//  211   {
//  212     return afStatus_INVALID_PARAMETER;
        MOV       R1,#0x2
        SJMP      ??afRegister_1
//  213   }
//  214 
//  215   return ((NULL == afRegisterExtended(epDesc, NULL, NULL)) ? afStatus_MEM_FAIL : afStatus_SUCCESS);
??afRegister_0:
        ; Setup parameters for call to function afRegisterExtended
        CLR       A
        MOV       ?V0,A
        MOV       ?V1,A
        MOV       R0,#?V0
        LCALL     ?PUSH_XSTACK_I_TWO
          CFI CFA_XSP16 add(XSP16, 12)
        MOV       R4,#0x0
        MOV       R5,#0x0
        MOV       A,R6
        MOV       R2,A
        MOV       A,R7
        MOV       R3,A
        LCALL     `??afRegisterExtended::?relay`; Banked call to: afRegisterExtended
        MOV       A,#0x2
        LCALL     ?DEALLOC_XSTACK8
          CFI CFA_XSP16 add(XSP16, 10)
        MOV       ?V1,R3
        MOV       A,R2
        ORL       A,?V1
        JNZ       ??afRegister_2
        MOV       R1,#0x10
        SJMP      ??afRegister_1
??afRegister_2:
        MOV       R1,#0x0
??afRegister_1:
        LJMP      ?Subroutine1 & 0xFFFF
//  216 }
          CFI EndBlock cfiBlock13
//  217 
//  218 /*********************************************************************
//  219  * @fn      afDelete
//  220  *
//  221  * @brief   Delete an Application's EndPoint descriptor and frees the memory
//  222  *
//  223  * @param   EndPoint - Application Endpoint to delete
//  224  *
//  225  * @return  afStatus_SUCCESS - endpoint deleted
//  226  *          afStatus_INVALID_PARAMETER - endpoint not found
//  227  *          afStatus_FAILED - endpoint list empty
//  228  */

        RSEG BANKED_CODE:HUGECODE:NOROOT(0)
//  229 afStatus_t afDelete( uint8 EndPoint )
afDelete:
          CFI Block cfiBlock14 Using cfiCommon0
          CFI Function afDelete
        CODE
//  230 {
        FUNCALL afDelete, osal_mem_free
        LOCFRAME ISTACK, 0, STACK
        LOCFRAME PSTACK, 0, STACK
        LOCFRAME XSTACK, 9, STACK
        LOCFRAME IOVERLAY, 0, STATIC
        LOCFRAME DOVERLAY, 0, STATIC
        ARGFRAME ISTACK, 0, STACK
        ARGFRAME PSTACK, 0, STACK
        ARGFRAME XSTACK, 9, STACK
        ARGFRAME IOVERLAY, 0, STATIC
        ARGFRAME DOVERLAY, 0, STATIC
        FUNCALL afDelete, osal_mem_free
        LOCFRAME ISTACK, 0, STACK
        LOCFRAME PSTACK, 0, STACK
        LOCFRAME XSTACK, 9, STACK
        LOCFRAME IOVERLAY, 0, STATIC
        LOCFRAME DOVERLAY, 0, STATIC
        ARGFRAME ISTACK, 0, STACK
        ARGFRAME PSTACK, 0, STACK
        ARGFRAME XSTACK, 9, STACK
        ARGFRAME IOVERLAY, 0, STATIC
        ARGFRAME DOVERLAY, 0, STATIC
        MOV       A,#-0x9
        LCALL     ?BANKED_ENTER_XDATA
          CFI DPH0 load(1, XDATA, add(CFA_XSP16, literal(-1)))
          CFI DPL0 load(1, XDATA, add(CFA_XSP16, literal(-2)))
          CFI ?BRET_EXT load(1, XDATA, add(CFA_XSP16, literal(-3)))
          CFI ?RET_HIGH load(1, XDATA, add(CFA_XSP16, literal(-4)))
          CFI ?RET_LOW load(1, XDATA, add(CFA_XSP16, literal(-5)))
          CFI R7 load(1, XDATA, add(CFA_XSP16, literal(-6)))
          CFI V0 load(1, XDATA, add(CFA_XSP16, literal(-7)))
          CFI VB load(1, XDATA, add(CFA_XSP16, literal(-8)))
          CFI R6 load(1, XDATA, add(CFA_XSP16, literal(-9)))
          CFI CFA_SP SP+0
          CFI CFA_XSP16 add(XSP16, 9)
        ; Saved register size: 9
        ; Auto size: 0
        MOV       A,R1
        MOV       R6,A
//  231   epList_t *epCurrent;
//  232   epList_t *epPrevious;
//  233 
//  234   if ( epList != NULL )
        MOV       DPTR,#epList
        LCALL     ?Subroutine8 & 0xFFFF
??CrossCallReturnLabel_2:
        JZ        ??afDelete_0
//  235   {
//  236     epPrevious = epCurrent = epList;
        MOV       DPTR,#epList
        LCALL     ??Subroutine61_0 & 0xFFFF
//  237 
//  238     // first element of the list matches
//  239     if ( epCurrent->epDesc->endPoint == EndPoint )
??CrossCallReturnLabel_139:
        LCALL     ?Subroutine10 & 0xFFFF
??CrossCallReturnLabel_9:
        JNZ       ??afDelete_1
//  240     {
//  241       epList = epCurrent->nextDesc;
        MOV       DPTR,#epList
        SJMP      ??afDelete_2
//  242       osal_mem_free( epCurrent );
//  243 
//  244       return ( afStatus_SUCCESS );
//  245     }
//  246     else
//  247     {
//  248       // search the list
//  249       for ( epCurrent = epPrevious->nextDesc;
//  250             epCurrent != NULL;
//  251             epCurrent = epCurrent->nextDesc )
//  252       {
//  253         if ( epCurrent->epDesc->endPoint == EndPoint )
//  254         {
//  255           epPrevious->nextDesc = epCurrent->nextDesc;
//  256           osal_mem_free( epCurrent );
//  257 
//  258           // delete the entry and free the memory
//  259           return ( afStatus_SUCCESS );
//  260         }
//  261         epPrevious = epCurrent;
??afDelete_3:
        MOV       A,R2
        MOV       R0,A
        MOV       A,R3
        MOV       R1,A
??afDelete_1:
        MOV       A,R4
        MOV       R2,A
        MOV       A,R5
        MOV       R3,A
        MOV       A,R2
        ORL       A,R3
        JZ        ??afDelete_4
        LCALL     ?Subroutine10 & 0xFFFF
??CrossCallReturnLabel_10:
        JNZ       ??afDelete_3
        MOV       DPL,R0
        MOV       DPH,R1
??afDelete_2:
        MOV       A,R4
        MOVX      @DPTR,A
        INC       DPTR
        MOV       A,R5
        MOVX      @DPTR,A
        ; Setup parameters for call to function osal_mem_free
        LCALL     `??osal_mem_free::?relay`; Banked call to: osal_mem_free
        MOV       R1,#0x0
        SJMP      ??afDelete_5
//  262       }
//  263     }
//  264 
//  265     // no endpoint found
//  266     return ( afStatus_INVALID_PARAMETER );
??afDelete_4:
        MOV       R1,#0x2
        SJMP      ??afDelete_5
//  267   }
//  268   else
//  269   {
//  270     // epList is empty
//  271     return ( afStatus_FAILED );
??afDelete_0:
        MOV       R1,#0x1
//  272   }
??afDelete_5:
          CFI EndBlock cfiBlock14
        REQUIRE ?Subroutine2
        ; // Fall through to label ?Subroutine2
//  273 }

        RSEG BANKED_CODE:HUGECODE:NOROOT(0)
?Subroutine2:
          CFI Block cfiBlock15 Using cfiCommon0
          CFI NoFunction
          CFI CFA_SP SP+0
          CFI CFA_XSP16 add(XSP16, 9)
          CFI VB load(1, XDATA, add(CFA_XSP16, literal(-8)))
          CFI DPL0 load(1, XDATA, add(CFA_XSP16, literal(-2)))
          CFI DPH0 load(1, XDATA, add(CFA_XSP16, literal(-1)))
          CFI R6 load(1, XDATA, add(CFA_XSP16, literal(-9)))
          CFI R7 load(1, XDATA, add(CFA_XSP16, literal(-6)))
          CFI V0 load(1, XDATA, add(CFA_XSP16, literal(-7)))
          CFI ?BRET_EXT load(1, XDATA, add(CFA_XSP16, literal(-3)))
          CFI ?RET_HIGH load(1, XDATA, add(CFA_XSP16, literal(-4)))
          CFI ?RET_LOW load(1, XDATA, add(CFA_XSP16, literal(-5)))
        MOV       R7,#0x1
        LJMP      ?BANKED_LEAVE_XDATA
          CFI EndBlock cfiBlock15

        RSEG BANKED_CODE:HUGECODE:NOROOT(0)
?Subroutine10:
          CFI Block cfiCond16 Using cfiCommon0
          CFI Function afDelete
          CFI Conditional ??CrossCallReturnLabel_9
          CFI R6 load(1, XDATA, add(CFA_XSP16, literal(-9)))
          CFI VB load(1, XDATA, add(CFA_XSP16, literal(-8)))
          CFI V0 load(1, XDATA, add(CFA_XSP16, literal(-7)))
          CFI R7 load(1, XDATA, add(CFA_XSP16, literal(-6)))
          CFI ?RET_LOW load(1, XDATA, add(CFA_XSP16, literal(-5)))
          CFI ?RET_HIGH load(1, XDATA, add(CFA_XSP16, literal(-4)))
          CFI ?BRET_EXT load(1, XDATA, add(CFA_XSP16, literal(-3)))
          CFI DPL0 load(1, XDATA, add(CFA_XSP16, literal(-2)))
          CFI DPH0 load(1, XDATA, add(CFA_XSP16, literal(-1)))
          CFI CFA_SP SP+-2
          CFI CFA_XSP16 add(XSP16, 9)
          CFI Block cfiCond17 Using cfiCommon0
          CFI (cfiCond17) Function afDelete
          CFI (cfiCond17) Conditional ??CrossCallReturnLabel_10
          CFI (cfiCond17) R6 load(1, XDATA, add(CFA_XSP16, literal(-9)))
          CFI (cfiCond17) VB load(1, XDATA, add(CFA_XSP16, literal(-8)))
          CFI (cfiCond17) V0 load(1, XDATA, add(CFA_XSP16, literal(-7)))
          CFI (cfiCond17) R7 load(1, XDATA, add(CFA_XSP16, literal(-6)))
          CFI (cfiCond17) ?RET_LOW load(1, XDATA, add(CFA_XSP16, literal(-5)))
          CFI (cfiCond17) ?RET_HIGH load(1, XDATA, add(CFA_XSP16, literal(-4)))
          CFI (cfiCond17) ?BRET_EXT load(1, XDATA, add(CFA_XSP16, literal(-3)))
          CFI (cfiCond17) DPL0 load(1, XDATA, add(CFA_XSP16, literal(-2)))
          CFI (cfiCond17) DPH0 load(1, XDATA, add(CFA_XSP16, literal(-1)))
          CFI (cfiCond17) CFA_SP SP+-2
          CFI (cfiCond17) CFA_XSP16 add(XSP16, 9)
          CFI Block cfiPicker18 Using cfiCommon1
          CFI (cfiPicker18) NoFunction
          CFI (cfiPicker18) Picker
        MOV       DPL,R2
        MOV       DPH,R3
        LCALL     ?Subroutine43 & 0xFFFF
??CrossCallReturnLabel_78:
        MOV       DPL,R2
        MOV       DPH,R3
        INC       DPTR
        INC       DPTR
        MOVX      A,@DPTR
        MOV       R7,A
        INC       DPTR
        MOVX      A,@DPTR
        MOV       DPH,A
        MOV       DPL,R7
        MOVX      A,@DPTR
        XRL       A,R6
        RET
          CFI EndBlock cfiCond16
          CFI EndBlock cfiCond17
          CFI EndBlock cfiPicker18
//  274 
//  275 /*********************************************************************
//  276  * @fn          afDataConfirm
//  277  *
//  278  * @brief       This function will generate the Data Confirm back to
//  279  *              the application.
//  280  *
//  281  * @param       endPoint - confirm end point
//  282  * @param       transID - transaction ID from APSDE_DATA_REQUEST
//  283  * @param       status - status of APSDE_DATA_REQUEST
//  284  *
//  285  * @return      none
//  286  */

        RSEG BANKED_CODE:HUGECODE:NOROOT(0)
//  287 void afDataConfirm( uint8 endPoint, uint8 transID, ZStatus_t status )
afDataConfirm:
          CFI Block cfiBlock19 Using cfiCommon0
          CFI Function afDataConfirm
        CODE
//  288 {
        FUNCALL afDataConfirm, afFindEndPointDesc
        LOCFRAME ISTACK, 0, STACK
        LOCFRAME PSTACK, 0, STACK
        LOCFRAME XSTACK, 14, STACK
        LOCFRAME IOVERLAY, 0, STATIC
        LOCFRAME DOVERLAY, 0, STATIC
        ARGFRAME ISTACK, 0, STACK
        ARGFRAME PSTACK, 0, STACK
        ARGFRAME XSTACK, 14, STACK
        ARGFRAME IOVERLAY, 0, STATIC
        ARGFRAME DOVERLAY, 0, STATIC
        FUNCALL afDataConfirm, osal_msg_allocate
        LOCFRAME ISTACK, 0, STACK
        LOCFRAME PSTACK, 0, STACK
        LOCFRAME XSTACK, 14, STACK
        LOCFRAME IOVERLAY, 0, STATIC
        LOCFRAME DOVERLAY, 0, STATIC
        ARGFRAME ISTACK, 0, STACK
        ARGFRAME PSTACK, 0, STACK
        ARGFRAME XSTACK, 14, STACK
        ARGFRAME IOVERLAY, 0, STATIC
        ARGFRAME DOVERLAY, 0, STATIC
        FUNCALL afDataConfirm, osal_msg_send
        LOCFRAME ISTACK, 0, STACK
        LOCFRAME PSTACK, 0, STACK
        LOCFRAME XSTACK, 14, STACK
        LOCFRAME IOVERLAY, 0, STATIC
        LOCFRAME DOVERLAY, 0, STATIC
        ARGFRAME ISTACK, 0, STACK
        ARGFRAME PSTACK, 0, STACK
        ARGFRAME XSTACK, 14, STACK
        ARGFRAME IOVERLAY, 0, STATIC
        ARGFRAME DOVERLAY, 0, STATIC
        REQUIRE ?V0
        REQUIRE ?V2
        REQUIRE ?V3
        REQUIRE ?V4
        REQUIRE ?V5
        MOV       A,#-0xe
        LCALL     ?BANKED_ENTER_XDATA
          CFI DPH0 load(1, XDATA, add(CFA_XSP16, literal(-1)))
          CFI DPL0 load(1, XDATA, add(CFA_XSP16, literal(-2)))
          CFI ?BRET_EXT load(1, XDATA, add(CFA_XSP16, literal(-3)))
          CFI ?RET_HIGH load(1, XDATA, add(CFA_XSP16, literal(-4)))
          CFI ?RET_LOW load(1, XDATA, add(CFA_XSP16, literal(-5)))
          CFI R7 load(1, XDATA, add(CFA_XSP16, literal(-6)))
          CFI V5 load(1, XDATA, add(CFA_XSP16, literal(-7)))
          CFI V4 load(1, XDATA, add(CFA_XSP16, literal(-8)))
          CFI V3 load(1, XDATA, add(CFA_XSP16, literal(-9)))
          CFI V2 load(1, XDATA, add(CFA_XSP16, literal(-10)))
          CFI V1 load(1, XDATA, add(CFA_XSP16, literal(-11)))
          CFI V0 load(1, XDATA, add(CFA_XSP16, literal(-12)))
          CFI VB load(1, XDATA, add(CFA_XSP16, literal(-13)))
          CFI R6 load(1, XDATA, add(CFA_XSP16, literal(-14)))
          CFI CFA_SP SP+0
          CFI CFA_XSP16 add(XSP16, 14)
        ; Saved register size: 14
        ; Auto size: 0
        MOV       A,R1
        MOV       R6,A
        MOV       A,R2
        MOV       R7,A
        MOV       ?V0,R3
//  289   endPointDesc_t *epDesc;
//  290   afDataConfirm_t *msgPtr;
//  291 
//  292   // Find the endpoint description
//  293   epDesc = afFindEndPointDesc( endPoint );
        ; Setup parameters for call to function afFindEndPointDesc
        LCALL     `??afFindEndPointDesc::?relay`; Banked call to: afFindEndPointDesc
        MOV       ?V4,R2
        MOV       ?V5,R3
//  294   if ( epDesc == NULL )
        MOV       A,R2
        ORL       A,?V5
        JZ        ??afDataConfirm_0
//  295     return;
//  296 
//  297   // Determine the incoming command type
//  298   msgPtr = (afDataConfirm_t *)osal_msg_allocate( sizeof(afDataConfirm_t) );
        ; Setup parameters for call to function osal_msg_allocate
        MOV       R2,#0x4
        MOV       R3,#0x0
        LCALL     `??osal_msg_allocate::?relay`; Banked call to: osal_msg_allocate
//  299   if ( msgPtr )
        MOV       A,R2
        ORL       A,R3
        JZ        ??afDataConfirm_0
//  300   {
//  301     // Build the Data Confirm message
//  302     msgPtr->hdr.event = AF_DATA_CONFIRM_CMD;
        MOV       DPL,R2
        MOV       DPH,R3
        MOV       A,#-0x3
        MOVX      @DPTR,A
//  303     msgPtr->hdr.status = status;
        INC       DPTR
        MOV       A,?V0
        LCALL     ?Subroutine35 & 0xFFFF
//  304     msgPtr->endpoint = endPoint;
??CrossCallReturnLabel_64:
        MOVX      @DPTR,A
//  305     msgPtr->transID = transID;
        MOV       A,R7
        MOV       DPL,R2
        MOV       DPH,R3
        INC       DPTR
        INC       DPTR
        INC       DPTR
        MOVX      @DPTR,A
//  306 
//  307 #if defined ( MT_AF_CB_FUNC )
//  308     /* If MT has subscribed for this callback, don't send as a message. */
//  309     if ( AFCB_CHECK(CB_ID_AF_DATA_CNF,*(epDesc->task_id)) )
//  310     {
//  311       /* Send callback if it's subscribed */
//  312       MT_AfDataConfirm ((void *)msgPtr);
//  313       /* Release the memory. */
//  314       osal_msg_deallocate( (void *)msgPtr );
//  315     }
//  316     else
//  317 #endif
//  318     {
//  319       /* send message through task message */
//  320       osal_msg_send( *(epDesc->task_id), (uint8 *)msgPtr );
        ; Setup parameters for call to function osal_msg_send
        MOV       DPL,?V4
        MOV       DPH,?V5
        LCALL     ?Subroutine7 & 0xFFFF
//  321     }
//  322   }
??CrossCallReturnLabel_84:
        LCALL     `??osal_msg_send::?relay`; Banked call to: osal_msg_send
//  323 }
??afDataConfirm_0:
        LJMP      ?Subroutine0 & 0xFFFF
          CFI EndBlock cfiBlock19
//  324 
//  325 /*********************************************************************
//  326  * @fn          afReflectError
//  327  *
//  328  * @brief       This function will generate the Reflect Error message to
//  329  *              the application.
//  330  *
//  331  * @param       srcEP - Source Endpoint
//  332  * @param       dstAddrMode - mode of dstAdd - 0 - normal short addr, 1 - group Address
//  333  * @param       dstAddr - intended destination
//  334  * @param       dstEP - Destination Endpoint
//  335  * @param       transID - transaction ID from APSDE_DATA_REQUEST
//  336  * @param       status - status of APSDE_DATA_REQUEST
//  337  *
//  338  * @return      none
//  339  */

        RSEG BANKED_CODE:HUGECODE:NOROOT(0)
//  340 void afReflectError( uint8 srcEP, uint8 dstAddrMode, uint16 dstAddr, uint8 dstEP,
afReflectError:
          CFI Block cfiBlock20 Using cfiCommon0
          CFI Function afReflectError
        CODE
//  341                      uint8 transID, ZStatus_t status )
//  342 {
        FUNCALL afReflectError, afFindEndPointDesc
        LOCFRAME ISTACK, 0, STACK
        LOCFRAME PSTACK, 0, STACK
        LOCFRAME XSTACK, 16, STACK
        LOCFRAME IOVERLAY, 0, STATIC
        LOCFRAME DOVERLAY, 0, STATIC
        ARGFRAME ISTACK, 0, STACK
        ARGFRAME PSTACK, 0, STACK
        ARGFRAME XSTACK, 16, STACK
        ARGFRAME IOVERLAY, 0, STATIC
        ARGFRAME DOVERLAY, 0, STATIC
        FUNCALL afReflectError, osal_msg_allocate
        LOCFRAME ISTACK, 0, STACK
        LOCFRAME PSTACK, 0, STACK
        LOCFRAME XSTACK, 16, STACK
        LOCFRAME IOVERLAY, 0, STATIC
        LOCFRAME DOVERLAY, 0, STATIC
        ARGFRAME ISTACK, 0, STACK
        ARGFRAME PSTACK, 0, STACK
        ARGFRAME XSTACK, 16, STACK
        ARGFRAME IOVERLAY, 0, STATIC
        ARGFRAME DOVERLAY, 0, STATIC
        FUNCALL afReflectError, osal_msg_send
        LOCFRAME ISTACK, 0, STACK
        LOCFRAME PSTACK, 0, STACK
        LOCFRAME XSTACK, 16, STACK
        LOCFRAME IOVERLAY, 0, STATIC
        LOCFRAME DOVERLAY, 0, STATIC
        ARGFRAME ISTACK, 0, STACK
        ARGFRAME PSTACK, 0, STACK
        ARGFRAME XSTACK, 16, STACK
        ARGFRAME IOVERLAY, 0, STATIC
        ARGFRAME DOVERLAY, 0, STATIC
        REQUIRE ?V0
        REQUIRE ?V1
        REQUIRE ?V2
        REQUIRE ?V3
        REQUIRE ?V4
        REQUIRE ?V6
        REQUIRE ?V7
        MOV       A,#-0x10
        LCALL     ?BANKED_ENTER_XDATA
          CFI DPH0 load(1, XDATA, add(CFA_XSP16, literal(-1)))
          CFI DPL0 load(1, XDATA, add(CFA_XSP16, literal(-2)))
          CFI ?BRET_EXT load(1, XDATA, add(CFA_XSP16, literal(-3)))
          CFI ?RET_HIGH load(1, XDATA, add(CFA_XSP16, literal(-4)))
          CFI ?RET_LOW load(1, XDATA, add(CFA_XSP16, literal(-5)))
          CFI R7 load(1, XDATA, add(CFA_XSP16, literal(-6)))
          CFI V7 load(1, XDATA, add(CFA_XSP16, literal(-7)))
          CFI V6 load(1, XDATA, add(CFA_XSP16, literal(-8)))
          CFI V5 load(1, XDATA, add(CFA_XSP16, literal(-9)))
          CFI V4 load(1, XDATA, add(CFA_XSP16, literal(-10)))
          CFI V3 load(1, XDATA, add(CFA_XSP16, literal(-11)))
          CFI V2 load(1, XDATA, add(CFA_XSP16, literal(-12)))
          CFI V1 load(1, XDATA, add(CFA_XSP16, literal(-13)))
          CFI V0 load(1, XDATA, add(CFA_XSP16, literal(-14)))
          CFI VB load(1, XDATA, add(CFA_XSP16, literal(-15)))
          CFI R6 load(1, XDATA, add(CFA_XSP16, literal(-16)))
          CFI CFA_SP SP+0
          CFI CFA_XSP16 add(XSP16, 16)
        ; Saved register size: 16
        ; Auto size: 0
        MOV       ?V0,R2
        MOV       ?V6,R4
        MOV       ?V7,R5
        MOV       ?V1,R3
//  343   endPointDesc_t *epDesc;
//  344   afReflectError_t *msgPtr;
//  345 
//  346   // Find the endpoint description
//  347   epDesc = afFindEndPointDesc( srcEP );
        ; Setup parameters for call to function afFindEndPointDesc
        LCALL     `??afFindEndPointDesc::?relay`; Banked call to: afFindEndPointDesc
        MOV       ?V2,R2
        MOV       ?V3,R3
        MOV       R6,?V2
        MOV       R7,?V3
//  348   if ( epDesc == NULL )
        MOV       A,R6
        ORL       A,R7
        JZ        ??afReflectError_0
//  349     return;
//  350 
//  351   // Determine the incoming command type
//  352   msgPtr = (afReflectError_t *)osal_msg_allocate( sizeof(afReflectError_t) );
        ; Setup parameters for call to function osal_msg_allocate
        MOV       R2,#0x7
        MOV       R3,#0x0
        LCALL     `??osal_msg_allocate::?relay`; Banked call to: osal_msg_allocate
//  353   if ( msgPtr )
        MOV       A,R2
        ORL       A,R3
        JZ        ??afReflectError_0
//  354   {
//  355     // Build the Data Confirm message
//  356     msgPtr->hdr.event = AF_REFLECT_ERROR_CMD;
        MOV       DPL,R2
        MOV       DPH,R3
        MOV       A,#-0x2
        MOVX      @DPTR,A
//  357     msgPtr->hdr.status = status;
        MOV       A,#0x11
        LCALL     ?XSTACK_DISP0_8
        MOVX      A,@DPTR
        MOV       DPL,R2
        MOV       DPH,R3
        INC       DPTR
        LCALL     ?Subroutine33 & 0xFFFF
//  358     msgPtr->endpoint = dstEP;
??CrossCallReturnLabel_58:
        MOV       A,?V1
        MOVX      @DPTR,A
//  359     msgPtr->transID = transID;
        MOV       A,#0x10
        LCALL     ?XSTACK_DISP0_8
        LCALL     ?Subroutine25 & 0xFFFF
??CrossCallReturnLabel_41:
        LCALL     ?Subroutine32 & 0xFFFF
//  360     msgPtr->dstAddrMode = dstAddrMode;
??CrossCallReturnLabel_56:
        MOV       A,?V0
        LCALL     ?Subroutine32 & 0xFFFF
//  361     msgPtr->dstAddr = dstAddr;
??CrossCallReturnLabel_57:
        INC       DPTR
        MOV       A,?V6
        MOVX      @DPTR,A
        INC       DPTR
        MOV       A,?V7
        MOVX      @DPTR,A
//  362 
//  363 #if defined ( MT_AF_CB_FUNC )
//  364     /* If MT has subscribed for this callback, don't send as a message. */
//  365     if ( AFCB_CHECK( CB_ID_AF_REFLECT_ERROR, *(epDesc->task_id) ) )
//  366     {
//  367       /* Send callback if it's subscribed */
//  368       MT_AfReflectError( (void *)msgPtr );
//  369       /* Release the memory. */
//  370       osal_msg_deallocate( (void *)msgPtr );
//  371     }
//  372     else
//  373 #endif
//  374     {
//  375       /* send message through task message */
//  376       osal_msg_send( *(epDesc->task_id), (uint8 *)msgPtr );
        ; Setup parameters for call to function osal_msg_send
        MOV       DPL,R6
        MOV       DPH,R7
        LCALL     ?Subroutine7 & 0xFFFF
//  377     }
//  378   }
??CrossCallReturnLabel_85:
        LCALL     `??osal_msg_send::?relay`; Banked call to: osal_msg_send
//  379 }
??afReflectError_0:
        LJMP      ??Subroutine54_0 & 0xFFFF
          CFI EndBlock cfiBlock20

        RSEG BANKED_CODE:HUGECODE:NOROOT(0)
?Subroutine32:
          CFI Block cfiCond21 Using cfiCommon0
          CFI Function afReflectError
          CFI Conditional ??CrossCallReturnLabel_56
          CFI R6 load(1, XDATA, add(CFA_XSP16, literal(-16)))
          CFI VB load(1, XDATA, add(CFA_XSP16, literal(-15)))
          CFI V0 load(1, XDATA, add(CFA_XSP16, literal(-14)))
          CFI V1 load(1, XDATA, add(CFA_XSP16, literal(-13)))
          CFI V2 load(1, XDATA, add(CFA_XSP16, literal(-12)))
          CFI V3 load(1, XDATA, add(CFA_XSP16, literal(-11)))
          CFI V4 load(1, XDATA, add(CFA_XSP16, literal(-10)))
          CFI V5 load(1, XDATA, add(CFA_XSP16, literal(-9)))
          CFI V6 load(1, XDATA, add(CFA_XSP16, literal(-8)))
          CFI V7 load(1, XDATA, add(CFA_XSP16, literal(-7)))
          CFI R7 load(1, XDATA, add(CFA_XSP16, literal(-6)))
          CFI ?RET_LOW load(1, XDATA, add(CFA_XSP16, literal(-5)))
          CFI ?RET_HIGH load(1, XDATA, add(CFA_XSP16, literal(-4)))
          CFI ?BRET_EXT load(1, XDATA, add(CFA_XSP16, literal(-3)))
          CFI DPL0 load(1, XDATA, add(CFA_XSP16, literal(-2)))
          CFI DPH0 load(1, XDATA, add(CFA_XSP16, literal(-1)))
          CFI CFA_SP SP+-2
          CFI CFA_XSP16 add(XSP16, 16)
          CFI Block cfiCond22 Using cfiCommon0
          CFI (cfiCond22) Function afReflectError
          CFI (cfiCond22) Conditional ??CrossCallReturnLabel_57
          CFI (cfiCond22) R6 load(1, XDATA, add(CFA_XSP16, literal(-16)))
          CFI (cfiCond22) VB load(1, XDATA, add(CFA_XSP16, literal(-15)))
          CFI (cfiCond22) V0 load(1, XDATA, add(CFA_XSP16, literal(-14)))
          CFI (cfiCond22) V1 load(1, XDATA, add(CFA_XSP16, literal(-13)))
          CFI (cfiCond22) V2 load(1, XDATA, add(CFA_XSP16, literal(-12)))
          CFI (cfiCond22) V3 load(1, XDATA, add(CFA_XSP16, literal(-11)))
          CFI (cfiCond22) V4 load(1, XDATA, add(CFA_XSP16, literal(-10)))
          CFI (cfiCond22) V5 load(1, XDATA, add(CFA_XSP16, literal(-9)))
          CFI (cfiCond22) V6 load(1, XDATA, add(CFA_XSP16, literal(-8)))
          CFI (cfiCond22) V7 load(1, XDATA, add(CFA_XSP16, literal(-7)))
          CFI (cfiCond22) R7 load(1, XDATA, add(CFA_XSP16, literal(-6)))
          CFI (cfiCond22) ?RET_LOW load(1, XDATA, add(CFA_XSP16, literal(-5)))
          CFI (cfiCond22) ?RET_HIGH load(1, XDATA, add(CFA_XSP16, literal(-4)))
          CFI (cfiCond22) ?BRET_EXT load(1, XDATA, add(CFA_XSP16, literal(-3)))
          CFI (cfiCond22) DPL0 load(1, XDATA, add(CFA_XSP16, literal(-2)))
          CFI (cfiCond22) DPH0 load(1, XDATA, add(CFA_XSP16, literal(-1)))
          CFI (cfiCond22) CFA_SP SP+-2
          CFI (cfiCond22) CFA_XSP16 add(XSP16, 16)
          CFI Block cfiPicker23 Using cfiCommon1
          CFI (cfiPicker23) NoFunction
          CFI (cfiPicker23) Picker
        MOVX      @DPTR,A
        MOV       DPL,R2
        MOV       DPH,R3
        INC       DPTR
        INC       DPTR
        INC       DPTR
        INC       DPTR
        RET
          CFI EndBlock cfiCond21
          CFI EndBlock cfiCond22
          CFI EndBlock cfiPicker23

        RSEG BANKED_CODE:HUGECODE:NOROOT(0)
?Subroutine7:
          CFI Block cfiCond24 Using cfiCommon0
          CFI Function afDataConfirm
          CFI Conditional ??CrossCallReturnLabel_84
          CFI R6 load(1, XDATA, add(CFA_XSP16, literal(-14)))
          CFI VB load(1, XDATA, add(CFA_XSP16, literal(-13)))
          CFI V0 load(1, XDATA, add(CFA_XSP16, literal(-12)))
          CFI V1 load(1, XDATA, add(CFA_XSP16, literal(-11)))
          CFI V2 load(1, XDATA, add(CFA_XSP16, literal(-10)))
          CFI V3 load(1, XDATA, add(CFA_XSP16, literal(-9)))
          CFI V4 load(1, XDATA, add(CFA_XSP16, literal(-8)))
          CFI V5 load(1, XDATA, add(CFA_XSP16, literal(-7)))
          CFI R7 load(1, XDATA, add(CFA_XSP16, literal(-6)))
          CFI ?RET_LOW load(1, XDATA, add(CFA_XSP16, literal(-5)))
          CFI ?RET_HIGH load(1, XDATA, add(CFA_XSP16, literal(-4)))
          CFI ?BRET_EXT load(1, XDATA, add(CFA_XSP16, literal(-3)))
          CFI DPL0 load(1, XDATA, add(CFA_XSP16, literal(-2)))
          CFI DPH0 load(1, XDATA, add(CFA_XSP16, literal(-1)))
          CFI CFA_SP SP+-2
          CFI CFA_XSP16 add(XSP16, 14)
          CFI Block cfiCond25 Using cfiCommon0
          CFI (cfiCond25) Function afReflectError
          CFI (cfiCond25) Conditional ??CrossCallReturnLabel_85
          CFI (cfiCond25) R6 load(1, XDATA, add(CFA_XSP16, literal(-16)))
          CFI (cfiCond25) VB load(1, XDATA, add(CFA_XSP16, literal(-15)))
          CFI (cfiCond25) V0 load(1, XDATA, add(CFA_XSP16, literal(-14)))
          CFI (cfiCond25) V1 load(1, XDATA, add(CFA_XSP16, literal(-13)))
          CFI (cfiCond25) V2 load(1, XDATA, add(CFA_XSP16, literal(-12)))
          CFI (cfiCond25) V3 load(1, XDATA, add(CFA_XSP16, literal(-11)))
          CFI (cfiCond25) V4 load(1, XDATA, add(CFA_XSP16, literal(-10)))
          CFI (cfiCond25) V5 load(1, XDATA, add(CFA_XSP16, literal(-9)))
          CFI (cfiCond25) V6 load(1, XDATA, add(CFA_XSP16, literal(-8)))
          CFI (cfiCond25) V7 load(1, XDATA, add(CFA_XSP16, literal(-7)))
          CFI (cfiCond25) R7 load(1, XDATA, add(CFA_XSP16, literal(-6)))
          CFI (cfiCond25) ?RET_LOW load(1, XDATA, add(CFA_XSP16, literal(-5)))
          CFI (cfiCond25) ?RET_HIGH load(1, XDATA, add(CFA_XSP16, literal(-4)))
          CFI (cfiCond25) ?BRET_EXT load(1, XDATA, add(CFA_XSP16, literal(-3)))
          CFI (cfiCond25) DPL0 load(1, XDATA, add(CFA_XSP16, literal(-2)))
          CFI (cfiCond25) DPH0 load(1, XDATA, add(CFA_XSP16, literal(-1)))
          CFI (cfiCond25) CFA_SP SP+-2
          CFI (cfiCond25) CFA_XSP16 add(XSP16, 16)
          CFI Block cfiCond26 Using cfiCommon0
          CFI (cfiCond26) Function afIncomingData
          CFI (cfiCond26) Conditional ??CrossCallReturnLabel_86
          CFI (cfiCond26) R6 load(1, XDATA, add(CFA_XSP16, literal(-15)))
          CFI (cfiCond26) VB load(1, XDATA, add(CFA_XSP16, literal(-14)))
          CFI (cfiCond26) V0 load(1, XDATA, add(CFA_XSP16, literal(-13)))
          CFI (cfiCond26) V1 load(1, XDATA, add(CFA_XSP16, literal(-12)))
          CFI (cfiCond26) V2 load(1, XDATA, add(CFA_XSP16, literal(-11)))
          CFI (cfiCond26) V3 load(1, XDATA, add(CFA_XSP16, literal(-10)))
          CFI (cfiCond26) V4 load(1, XDATA, add(CFA_XSP16, literal(-9)))
          CFI (cfiCond26) V5 load(1, XDATA, add(CFA_XSP16, literal(-8)))
          CFI (cfiCond26) V6 load(1, XDATA, add(CFA_XSP16, literal(-7)))
          CFI (cfiCond26) R7 load(1, XDATA, add(CFA_XSP16, literal(-6)))
          CFI (cfiCond26) ?RET_LOW load(1, XDATA, add(CFA_XSP16, literal(-5)))
          CFI (cfiCond26) ?RET_HIGH load(1, XDATA, add(CFA_XSP16, literal(-4)))
          CFI (cfiCond26) ?BRET_EXT load(1, XDATA, add(CFA_XSP16, literal(-3)))
          CFI (cfiCond26) DPL0 load(1, XDATA, add(CFA_XSP16, literal(-2)))
          CFI (cfiCond26) DPH0 load(1, XDATA, add(CFA_XSP16, literal(-1)))
          CFI (cfiCond26) CFA_SP SP+-2
          CFI (cfiCond26) CFA_XSP16 add(XSP16, 28)
          CFI Block cfiCond27 Using cfiCommon0
          CFI (cfiCond27) Function afBuildMSGIncoming
          CFI (cfiCond27) Conditional ??CrossCallReturnLabel_87
          CFI (cfiCond27) R6 load(1, XDATA, add(CFA_XSP16, literal(-16)))
          CFI (cfiCond27) VB load(1, XDATA, add(CFA_XSP16, literal(-15)))
          CFI (cfiCond27) V0 load(1, XDATA, add(CFA_XSP16, literal(-14)))
          CFI (cfiCond27) V1 load(1, XDATA, add(CFA_XSP16, literal(-13)))
          CFI (cfiCond27) V2 load(1, XDATA, add(CFA_XSP16, literal(-12)))
          CFI (cfiCond27) V3 load(1, XDATA, add(CFA_XSP16, literal(-11)))
          CFI (cfiCond27) V4 load(1, XDATA, add(CFA_XSP16, literal(-10)))
          CFI (cfiCond27) V5 load(1, XDATA, add(CFA_XSP16, literal(-9)))
          CFI (cfiCond27) V6 load(1, XDATA, add(CFA_XSP16, literal(-8)))
          CFI (cfiCond27) V7 load(1, XDATA, add(CFA_XSP16, literal(-7)))
          CFI (cfiCond27) R7 load(1, XDATA, add(CFA_XSP16, literal(-6)))
          CFI (cfiCond27) ?RET_LOW load(1, XDATA, add(CFA_XSP16, literal(-5)))
          CFI (cfiCond27) ?RET_HIGH load(1, XDATA, add(CFA_XSP16, literal(-4)))
          CFI (cfiCond27) ?BRET_EXT load(1, XDATA, add(CFA_XSP16, literal(-3)))
          CFI (cfiCond27) DPL0 load(1, XDATA, add(CFA_XSP16, literal(-2)))
          CFI (cfiCond27) DPH0 load(1, XDATA, add(CFA_XSP16, literal(-1)))
          CFI (cfiCond27) CFA_SP SP+-2
          CFI (cfiCond27) CFA_XSP16 add(XSP16, 19)
          CFI Block cfiPicker28 Using cfiCommon1
          CFI (cfiPicker28) NoFunction
          CFI (cfiPicker28) Picker
        INC       DPTR
        INC       DPTR
          CFI EndBlock cfiCond24
          CFI EndBlock cfiCond25
          CFI EndBlock cfiCond26
          CFI EndBlock cfiCond27
          CFI EndBlock cfiPicker28
        REQUIRE ??Subroutine49_0
        ; // Fall through to label ??Subroutine49_0

        RSEG BANKED_CODE:HUGECODE:NOROOT(0)
??Subroutine49_0:
          CFI Block cfiCond29 Using cfiCommon0
          CFI Function afIncomingData
          CFI Conditional ??CrossCallReturnLabel_83
          CFI R6 load(1, XDATA, add(CFA_XSP16, literal(-15)))
          CFI VB load(1, XDATA, add(CFA_XSP16, literal(-14)))
          CFI V0 load(1, XDATA, add(CFA_XSP16, literal(-13)))
          CFI V1 load(1, XDATA, add(CFA_XSP16, literal(-12)))
          CFI V2 load(1, XDATA, add(CFA_XSP16, literal(-11)))
          CFI V3 load(1, XDATA, add(CFA_XSP16, literal(-10)))
          CFI V4 load(1, XDATA, add(CFA_XSP16, literal(-9)))
          CFI V5 load(1, XDATA, add(CFA_XSP16, literal(-8)))
          CFI V6 load(1, XDATA, add(CFA_XSP16, literal(-7)))
          CFI R7 load(1, XDATA, add(CFA_XSP16, literal(-6)))
          CFI ?RET_LOW load(1, XDATA, add(CFA_XSP16, literal(-5)))
          CFI ?RET_HIGH load(1, XDATA, add(CFA_XSP16, literal(-4)))
          CFI ?BRET_EXT load(1, XDATA, add(CFA_XSP16, literal(-3)))
          CFI DPL0 load(1, XDATA, add(CFA_XSP16, literal(-2)))
          CFI DPH0 load(1, XDATA, add(CFA_XSP16, literal(-1)))
          CFI CFA_SP SP+-2
          CFI CFA_XSP16 add(XSP16, 28)
          CFI Block cfiCond30 Using cfiCommon0
          CFI (cfiCond30) Function afDataConfirm
          CFI (cfiCond30) Conditional ??CrossCallReturnLabel_84
          CFI (cfiCond30) R6 load(1, XDATA, add(CFA_XSP16, literal(-14)))
          CFI (cfiCond30) VB load(1, XDATA, add(CFA_XSP16, literal(-13)))
          CFI (cfiCond30) V0 load(1, XDATA, add(CFA_XSP16, literal(-12)))
          CFI (cfiCond30) V1 load(1, XDATA, add(CFA_XSP16, literal(-11)))
          CFI (cfiCond30) V2 load(1, XDATA, add(CFA_XSP16, literal(-10)))
          CFI (cfiCond30) V3 load(1, XDATA, add(CFA_XSP16, literal(-9)))
          CFI (cfiCond30) V4 load(1, XDATA, add(CFA_XSP16, literal(-8)))
          CFI (cfiCond30) V5 load(1, XDATA, add(CFA_XSP16, literal(-7)))
          CFI (cfiCond30) R7 load(1, XDATA, add(CFA_XSP16, literal(-6)))
          CFI (cfiCond30) ?RET_LOW load(1, XDATA, add(CFA_XSP16, literal(-5)))
          CFI (cfiCond30) ?RET_HIGH load(1, XDATA, add(CFA_XSP16, literal(-4)))
          CFI (cfiCond30) ?BRET_EXT load(1, XDATA, add(CFA_XSP16, literal(-3)))
          CFI (cfiCond30) DPL0 load(1, XDATA, add(CFA_XSP16, literal(-2)))
          CFI (cfiCond30) DPH0 load(1, XDATA, add(CFA_XSP16, literal(-1)))
          CFI (cfiCond30) CFA_SP SP+-2
          CFI (cfiCond30) CFA_XSP16 add(XSP16, 14)
          CFI Block cfiCond31 Using cfiCommon0
          CFI (cfiCond31) Function afReflectError
          CFI (cfiCond31) Conditional ??CrossCallReturnLabel_85
          CFI (cfiCond31) R6 load(1, XDATA, add(CFA_XSP16, literal(-16)))
          CFI (cfiCond31) VB load(1, XDATA, add(CFA_XSP16, literal(-15)))
          CFI (cfiCond31) V0 load(1, XDATA, add(CFA_XSP16, literal(-14)))
          CFI (cfiCond31) V1 load(1, XDATA, add(CFA_XSP16, literal(-13)))
          CFI (cfiCond31) V2 load(1, XDATA, add(CFA_XSP16, literal(-12)))
          CFI (cfiCond31) V3 load(1, XDATA, add(CFA_XSP16, literal(-11)))
          CFI (cfiCond31) V4 load(1, XDATA, add(CFA_XSP16, literal(-10)))
          CFI (cfiCond31) V5 load(1, XDATA, add(CFA_XSP16, literal(-9)))
          CFI (cfiCond31) V6 load(1, XDATA, add(CFA_XSP16, literal(-8)))
          CFI (cfiCond31) V7 load(1, XDATA, add(CFA_XSP16, literal(-7)))
          CFI (cfiCond31) R7 load(1, XDATA, add(CFA_XSP16, literal(-6)))
          CFI (cfiCond31) ?RET_LOW load(1, XDATA, add(CFA_XSP16, literal(-5)))
          CFI (cfiCond31) ?RET_HIGH load(1, XDATA, add(CFA_XSP16, literal(-4)))
          CFI (cfiCond31) ?BRET_EXT load(1, XDATA, add(CFA_XSP16, literal(-3)))
          CFI (cfiCond31) DPL0 load(1, XDATA, add(CFA_XSP16, literal(-2)))
          CFI (cfiCond31) DPH0 load(1, XDATA, add(CFA_XSP16, literal(-1)))
          CFI (cfiCond31) CFA_SP SP+-2
          CFI (cfiCond31) CFA_XSP16 add(XSP16, 16)
          CFI Block cfiCond32 Using cfiCommon0
          CFI (cfiCond32) Function afIncomingData
          CFI (cfiCond32) Conditional ??CrossCallReturnLabel_86
          CFI (cfiCond32) R6 load(1, XDATA, add(CFA_XSP16, literal(-15)))
          CFI (cfiCond32) VB load(1, XDATA, add(CFA_XSP16, literal(-14)))
          CFI (cfiCond32) V0 load(1, XDATA, add(CFA_XSP16, literal(-13)))
          CFI (cfiCond32) V1 load(1, XDATA, add(CFA_XSP16, literal(-12)))
          CFI (cfiCond32) V2 load(1, XDATA, add(CFA_XSP16, literal(-11)))
          CFI (cfiCond32) V3 load(1, XDATA, add(CFA_XSP16, literal(-10)))
          CFI (cfiCond32) V4 load(1, XDATA, add(CFA_XSP16, literal(-9)))
          CFI (cfiCond32) V5 load(1, XDATA, add(CFA_XSP16, literal(-8)))
          CFI (cfiCond32) V6 load(1, XDATA, add(CFA_XSP16, literal(-7)))
          CFI (cfiCond32) R7 load(1, XDATA, add(CFA_XSP16, literal(-6)))
          CFI (cfiCond32) ?RET_LOW load(1, XDATA, add(CFA_XSP16, literal(-5)))
          CFI (cfiCond32) ?RET_HIGH load(1, XDATA, add(CFA_XSP16, literal(-4)))
          CFI (cfiCond32) ?BRET_EXT load(1, XDATA, add(CFA_XSP16, literal(-3)))
          CFI (cfiCond32) DPL0 load(1, XDATA, add(CFA_XSP16, literal(-2)))
          CFI (cfiCond32) DPH0 load(1, XDATA, add(CFA_XSP16, literal(-1)))
          CFI (cfiCond32) CFA_SP SP+-2
          CFI (cfiCond32) CFA_XSP16 add(XSP16, 28)
          CFI Block cfiCond33 Using cfiCommon0
          CFI (cfiCond33) Function afBuildMSGIncoming
          CFI (cfiCond33) Conditional ??CrossCallReturnLabel_87
          CFI (cfiCond33) R6 load(1, XDATA, add(CFA_XSP16, literal(-16)))
          CFI (cfiCond33) VB load(1, XDATA, add(CFA_XSP16, literal(-15)))
          CFI (cfiCond33) V0 load(1, XDATA, add(CFA_XSP16, literal(-14)))
          CFI (cfiCond33) V1 load(1, XDATA, add(CFA_XSP16, literal(-13)))
          CFI (cfiCond33) V2 load(1, XDATA, add(CFA_XSP16, literal(-12)))
          CFI (cfiCond33) V3 load(1, XDATA, add(CFA_XSP16, literal(-11)))
          CFI (cfiCond33) V4 load(1, XDATA, add(CFA_XSP16, literal(-10)))
          CFI (cfiCond33) V5 load(1, XDATA, add(CFA_XSP16, literal(-9)))
          CFI (cfiCond33) V6 load(1, XDATA, add(CFA_XSP16, literal(-8)))
          CFI (cfiCond33) V7 load(1, XDATA, add(CFA_XSP16, literal(-7)))
          CFI (cfiCond33) R7 load(1, XDATA, add(CFA_XSP16, literal(-6)))
          CFI (cfiCond33) ?RET_LOW load(1, XDATA, add(CFA_XSP16, literal(-5)))
          CFI (cfiCond33) ?RET_HIGH load(1, XDATA, add(CFA_XSP16, literal(-4)))
          CFI (cfiCond33) ?BRET_EXT load(1, XDATA, add(CFA_XSP16, literal(-3)))
          CFI (cfiCond33) DPL0 load(1, XDATA, add(CFA_XSP16, literal(-2)))
          CFI (cfiCond33) DPH0 load(1, XDATA, add(CFA_XSP16, literal(-1)))
          CFI (cfiCond33) CFA_SP SP+-2
          CFI (cfiCond33) CFA_XSP16 add(XSP16, 19)
          CFI Block cfiPicker34 Using cfiCommon1
          CFI (cfiPicker34) NoFunction
          CFI (cfiPicker34) Picker
        LCALL     ?Subroutine41 & 0xFFFF
??CrossCallReturnLabel_91:
        MOV       R1,A
        RET
          CFI EndBlock cfiCond29
          CFI EndBlock cfiCond30
          CFI EndBlock cfiCond31
          CFI EndBlock cfiCond32
          CFI EndBlock cfiCond33
          CFI EndBlock cfiPicker34
//  380 
//  381 /*********************************************************************
//  382  * @fn          afIncomingData
//  383  *
//  384  * @brief       Transfer a data PDU (ASDU) from the APS sub-layer to the AF.
//  385  *
//  386  * @param       aff  - pointer to APS frame format
//  387  * @param       SrcAddress  - Source address
//  388  * @param       SrcPanId  - Source PAN ID
//  389  * @param       sig - incoming message's link quality
//  390  * @param       nwkSeqNum - incoming network sequence number (from nwk header frame)
//  391  * @param       SecurityUse - Security enable/disable
//  392  * @param       timestamp - the MAC Timer2 timestamp at Rx.
//  393  * @param       radius - incoming messages received radius
//  394  *
//  395  * @return      none
//  396  */

        RSEG BANKED_CODE:HUGECODE:NOROOT(0)
//  397 void afIncomingData( aps_FrameFormat_t *aff, zAddrType_t *SrcAddress, uint16 SrcPanId,
afIncomingData:
          CFI Block cfiBlock35 Using cfiCommon0
          CFI Function afIncomingData
        CODE
//  398                      NLDE_Signal_t *sig, uint8 nwkSeqNum, uint8 SecurityUse,
//  399                      uint32 timestamp, uint8 radius )
//  400 {
        FUNCALL afIncomingData, osal_msg_allocate
        LOCFRAME ISTACK, 0, STACK
        LOCFRAME PSTACK, 0, STACK
        LOCFRAME XSTACK, 28, STACK
        LOCFRAME IOVERLAY, 0, STATIC
        LOCFRAME DOVERLAY, 0, STATIC
        ARGFRAME ISTACK, 0, STACK
        ARGFRAME PSTACK, 0, STACK
        ARGFRAME XSTACK, 28, STACK
        ARGFRAME IOVERLAY, 0, STATIC
        ARGFRAME DOVERLAY, 0, STATIC
        FUNCALL afIncomingData, afFindEndPointDesc
        LOCFRAME ISTACK, 0, STACK
        LOCFRAME PSTACK, 0, STACK
        LOCFRAME XSTACK, 28, STACK
        LOCFRAME IOVERLAY, 0, STATIC
        LOCFRAME DOVERLAY, 0, STATIC
        ARGFRAME ISTACK, 0, STACK
        ARGFRAME PSTACK, 0, STACK
        ARGFRAME XSTACK, 28, STACK
        ARGFRAME IOVERLAY, 0, STATIC
        ARGFRAME DOVERLAY, 0, STATIC
        FUNCALL afIncomingData, osal_msg_send
        LOCFRAME ISTACK, 0, STACK
        LOCFRAME PSTACK, 0, STACK
        LOCFRAME XSTACK, 28, STACK
        LOCFRAME IOVERLAY, 0, STATIC
        LOCFRAME DOVERLAY, 0, STATIC
        ARGFRAME ISTACK, 0, STACK
        ARGFRAME PSTACK, 0, STACK
        ARGFRAME XSTACK, 28, STACK
        ARGFRAME IOVERLAY, 0, STATIC
        ARGFRAME DOVERLAY, 0, STATIC
        FUNCALL afIncomingData, aps_FindGroupForEndpoint
        LOCFRAME ISTACK, 0, STACK
        LOCFRAME PSTACK, 0, STACK
        LOCFRAME XSTACK, 28, STACK
        LOCFRAME IOVERLAY, 0, STATIC
        LOCFRAME DOVERLAY, 0, STATIC
        ARGFRAME ISTACK, 0, STACK
        ARGFRAME PSTACK, 0, STACK
        ARGFRAME XSTACK, 28, STACK
        ARGFRAME IOVERLAY, 0, STATIC
        ARGFRAME DOVERLAY, 0, STATIC
        FUNCALL afIncomingData, afFindEndPointDesc
        LOCFRAME ISTACK, 0, STACK
        LOCFRAME PSTACK, 0, STACK
        LOCFRAME XSTACK, 28, STACK
        LOCFRAME IOVERLAY, 0, STATIC
        LOCFRAME DOVERLAY, 0, STATIC
        ARGFRAME ISTACK, 0, STACK
        ARGFRAME PSTACK, 0, STACK
        ARGFRAME XSTACK, 28, STACK
        ARGFRAME IOVERLAY, 0, STATIC
        ARGFRAME DOVERLAY, 0, STATIC
        FUNCALL afIncomingData, afFindEndPointDesc
        LOCFRAME ISTACK, 0, STACK
        LOCFRAME PSTACK, 0, STACK
        LOCFRAME XSTACK, 28, STACK
        LOCFRAME IOVERLAY, 0, STATIC
        LOCFRAME DOVERLAY, 0, STATIC
        ARGFRAME ISTACK, 0, STACK
        ARGFRAME PSTACK, 0, STACK
        ARGFRAME XSTACK, 28, STACK
        ARGFRAME IOVERLAY, 0, STATIC
        ARGFRAME DOVERLAY, 0, STATIC
        FUNCALL afIncomingData, afFindEndPointDescList
        LOCFRAME ISTACK, 0, STACK
        LOCFRAME PSTACK, 0, STACK
        LOCFRAME XSTACK, 28, STACK
        LOCFRAME IOVERLAY, 0, STATIC
        LOCFRAME DOVERLAY, 0, STATIC
        ARGFRAME ISTACK, 0, STACK
        ARGFRAME PSTACK, 0, STACK
        ARGFRAME XSTACK, 28, STACK
        ARGFRAME IOVERLAY, 0, STATIC
        ARGFRAME DOVERLAY, 0, STATIC
        FUNCALL afIncomingData, afFindEndPointDescList
        LOCFRAME ISTACK, 0, STACK
        LOCFRAME PSTACK, 0, STACK
        LOCFRAME XSTACK, 28, STACK
        LOCFRAME IOVERLAY, 0, STATIC
        LOCFRAME DOVERLAY, 0, STATIC
        ARGFRAME ISTACK, 0, STACK
        ARGFRAME PSTACK, 0, STACK
        ARGFRAME XSTACK, 28, STACK
        ARGFRAME IOVERLAY, 0, STATIC
        ARGFRAME DOVERLAY, 0, STATIC
        FUNCALL afIncomingData, osal_mem_free
        LOCFRAME ISTACK, 0, STACK
        LOCFRAME PSTACK, 0, STACK
        LOCFRAME XSTACK, 28, STACK
        LOCFRAME IOVERLAY, 0, STATIC
        LOCFRAME DOVERLAY, 0, STATIC
        ARGFRAME ISTACK, 0, STACK
        ARGFRAME PSTACK, 0, STACK
        ARGFRAME XSTACK, 28, STACK
        ARGFRAME IOVERLAY, 0, STATIC
        ARGFRAME DOVERLAY, 0, STATIC
        FUNCALL afIncomingData, afBuildMSGIncoming
        LOCFRAME ISTACK, 0, STACK
        LOCFRAME PSTACK, 0, STACK
        LOCFRAME XSTACK, 40, STACK
        LOCFRAME IOVERLAY, 0, STATIC
        LOCFRAME DOVERLAY, 0, STATIC
        ARGFRAME ISTACK, 0, STACK
        ARGFRAME PSTACK, 0, STACK
        ARGFRAME XSTACK, 40, STACK
        ARGFRAME IOVERLAY, 0, STATIC
        ARGFRAME DOVERLAY, 0, STATIC
        FUNCALL afIncomingData, aps_FindGroupForEndpoint
        LOCFRAME ISTACK, 0, STACK
        LOCFRAME PSTACK, 0, STACK
        LOCFRAME XSTACK, 28, STACK
        LOCFRAME IOVERLAY, 0, STATIC
        LOCFRAME DOVERLAY, 0, STATIC
        ARGFRAME ISTACK, 0, STACK
        ARGFRAME PSTACK, 0, STACK
        ARGFRAME XSTACK, 28, STACK
        ARGFRAME IOVERLAY, 0, STATIC
        ARGFRAME DOVERLAY, 0, STATIC
        FUNCALL afIncomingData, afFindEndPointDesc
        LOCFRAME ISTACK, 0, STACK
        LOCFRAME PSTACK, 0, STACK
        LOCFRAME XSTACK, 28, STACK
        LOCFRAME IOVERLAY, 0, STATIC
        LOCFRAME DOVERLAY, 0, STATIC
        ARGFRAME ISTACK, 0, STACK
        ARGFRAME PSTACK, 0, STACK
        ARGFRAME XSTACK, 28, STACK
        ARGFRAME IOVERLAY, 0, STATIC
        ARGFRAME DOVERLAY, 0, STATIC
        REQUIRE ?V0
        REQUIRE ?V1
        REQUIRE ?V2
        REQUIRE ?V3
        REQUIRE ?V4
        REQUIRE ?V5
        REQUIRE ?V6
        MOV       A,#-0xf
        LCALL     ?BANKED_ENTER_XDATA
          CFI DPH0 load(1, XDATA, add(CFA_XSP16, literal(-1)))
          CFI DPL0 load(1, XDATA, add(CFA_XSP16, literal(-2)))
          CFI ?BRET_EXT load(1, XDATA, add(CFA_XSP16, literal(-3)))
          CFI ?RET_HIGH load(1, XDATA, add(CFA_XSP16, literal(-4)))
          CFI ?RET_LOW load(1, XDATA, add(CFA_XSP16, literal(-5)))
          CFI R7 load(1, XDATA, add(CFA_XSP16, literal(-6)))
          CFI V6 load(1, XDATA, add(CFA_XSP16, literal(-7)))
          CFI V5 load(1, XDATA, add(CFA_XSP16, literal(-8)))
          CFI V4 load(1, XDATA, add(CFA_XSP16, literal(-9)))
          CFI V3 load(1, XDATA, add(CFA_XSP16, literal(-10)))
          CFI V2 load(1, XDATA, add(CFA_XSP16, literal(-11)))
          CFI V1 load(1, XDATA, add(CFA_XSP16, literal(-12)))
          CFI V0 load(1, XDATA, add(CFA_XSP16, literal(-13)))
          CFI VB load(1, XDATA, add(CFA_XSP16, literal(-14)))
          CFI R6 load(1, XDATA, add(CFA_XSP16, literal(-15)))
          CFI CFA_SP SP+0
          CFI CFA_XSP16 add(XSP16, 15)
        ; Saved register size: 15
        ; Auto size: 13
        MOV       A,#-0xd
        LCALL     ?ALLOC_XSTACK8
          CFI CFA_XSP16 add(XSP16, 28)
        MOV       DPL,?XSP + 0
        MOV       DPH,?XSP + 1
        MOV       A,R2
        MOVX      @DPTR,A
        INC       DPTR
        MOV       A,R3
        MOVX      @DPTR,A
        MOV       A,#0xb
        LCALL     ?XSTACK_DISP0_8
        MOV       A,R4
        MOVX      @DPTR,A
        INC       DPTR
        MOV       A,R5
        MOVX      @DPTR,A
        MOV       A,#0x8
        LCALL     ?XSTACK_DISP0_8
        MOV       A,R1
        LCALL     ?Subroutine27 & 0xFFFF
//  401   // JC update: manually generate the packet
//  402   uint16 len = 13 + aff->asduLength;
??CrossCallReturnLabel_45:
        ADD       A,#0x10
        MOV       ?V2,A
        INC       DPTR
        MOVX      A,@DPTR
        ADDC      A,#0x0
        MOV       ?V3,A
        MOV       DPL,?V2
        MOV       DPH,A
        MOVX      A,@DPTR
        ADD       A,#0xd
        MOV       R6,A
        CLR       A
        ADDC      A,#0x0
        MOV       R7,A
//  403   uint8 *my_msg = osal_msg_allocate( len );
        ; Setup parameters for call to function osal_msg_allocate
        MOV       A,R6
        MOV       R2,A
        MOV       A,R7
        MOV       R3,A
        LCALL     `??osal_msg_allocate::?relay`; Banked call to: osal_msg_allocate
        MOV       ?V0,R2
        MOV       ?V1,R3
//  404   my_msg[0] = CMD_JC_ZCLREQ;
        MOV       DPL,R2
        MOV       DPH,R3
        MOV       A,#0x7
        MOVX      @DPTR,A
//  405   my_msg[1] = 0x00;
        INC       DPTR
        CLR       A
        LCALL     ?Subroutine33 & 0xFFFF
//  406   my_msg[2] = SUCCESS;
??CrossCallReturnLabel_59:
        LCALL     ?Subroutine33 & 0xFFFF
//  407   my_msg[3] = 0x00;
??CrossCallReturnLabel_60:
        INC       DPTR
        LCALL     ?Subroutine35 & 0xFFFF
//  408   my_msg[4] = len;
??CrossCallReturnLabel_65:
        LCALL     ?Subroutine38 & 0xFFFF
//  409   my_msg[5] = aff->FrmCtrl;
??CrossCallReturnLabel_92:
        LCALL     ?Subroutine18 & 0xFFFF
??CrossCallReturnLabel_24:
        MOV       DPL,R2
        MOV       DPH,R3
        INC       DPTR
        INC       DPTR
        INC       DPTR
        INC       DPTR
        INC       DPTR
        LCALL     ?Subroutine27 & 0xFFFF
//  410   my_msg[6] = aff->DstEndPoint;
??CrossCallReturnLabel_46:
        ADD       A,#0x2
        MOV       R0,A
        INC       DPTR
        MOVX      A,@DPTR
        ADDC      A,#0x0
        MOV       R1,A
        MOV       A,#0x4
        LCALL     ?XSTACK_DISP0_8
        LCALL     ??Subroutine55_0 & 0xFFFF
??CrossCallReturnLabel_104:
        MOV       A,#0x4
        LCALL     ?XSTACK_DISP0_8
        LCALL     ?Subroutine12 & 0xFFFF
??CrossCallReturnLabel_11:
        LCALL     ?Subroutine27 & 0xFFFF
//  411   my_msg[7] = (uint8)(aff->ClusterID & 0xff); my_msg[8] = (uint8)((aff->ClusterID >> 8) & 0xff);
??CrossCallReturnLabel_47:
        ADD       A,#0x6
        MOV       R0,A
        INC       DPTR
        MOVX      A,@DPTR
        ADDC      A,#0x0
        MOV       R1,A
        MOV       DPL,R0
        MOV       DPH,R1
        LCALL     ?Subroutine25 & 0xFFFF
??CrossCallReturnLabel_42:
        INC       DPTR
        INC       DPTR
        INC       DPTR
        INC       DPTR
        LCALL     ?Subroutine34 & 0xFFFF
??CrossCallReturnLabel_61:
        LCALL     ?Subroutine19 & 0xFFFF
??CrossCallReturnLabel_32:
        LCALL     ?Subroutine27 & 0xFFFF
//  412   my_msg[9] = (uint8)(aff->ProfileID & 0xff); my_msg[10] = (uint8)((aff->ProfileID >> 8) & 0xff);
??CrossCallReturnLabel_48:
        ADD       A,#0x8
        MOV       R0,A
        INC       DPTR
        MOVX      A,@DPTR
        ADDC      A,#0x0
        MOV       R1,A
        MOV       A,#0x6
        LCALL     ?XSTACK_DISP0_8
        LCALL     ??Subroutine55_0 & 0xFFFF
??CrossCallReturnLabel_105:
        MOV       A,#0x6
        LCALL     ?XSTACK_DISP0_8
        LCALL     ?Subroutine12 & 0xFFFF
??CrossCallReturnLabel_12:
        INC       DPTR
        INC       DPTR
        INC       DPTR
        MOVX      @DPTR,A
        MOV       A,#0x6
        LCALL     ?XSTACK_DISP0_8
        LCALL     ?Subroutine14 & 0xFFFF
??CrossCallReturnLabel_16:
        LCALL     ?Subroutine19 & 0xFFFF
??CrossCallReturnLabel_33:
        LCALL     ?Subroutine38 & 0xFFFF
//  413   my_msg[11] = aff->SrcEndPoint;
??CrossCallReturnLabel_93:
        LCALL     ?Subroutine14 & 0xFFFF
??CrossCallReturnLabel_17:
        INC       DPTR
        INC       DPTR
        MOVX      A,@DPTR
        PUSH      A
          CFI CFA_SP SP+-1
        MOV       A,R2
        ADD       A,#0xb
        MOV       DPL,A
        CLR       A
        ADDC      A,?V1
        MOV       DPH,A
        POP       A
          CFI CFA_SP SP+0
        LCALL     ?Subroutine27 & 0xFFFF
//  414   my_msg[12] = aff->ApsCounter;
??CrossCallReturnLabel_49:
        MOV       R0,A
        INC       DPTR
        MOVX      A,@DPTR
        XCH       A,R0
        ADD       A,#0x11
        MOV       DPL,A
        CLR       A
        ADDC      A,R0
        MOV       DPH,A
        MOVX      A,@DPTR
        PUSH      A
          CFI CFA_SP SP+-1
        MOV       A,R2
        LCALL     ?Subroutine37 & 0xFFFF
??CrossCallReturnLabel_68:
        POP       A
          CFI CFA_SP SP+0
        MOVX      @DPTR,A
//  415   for (int i = 0; i < aff->asduLength; i++) {
        MOV       R0,#0x0
        MOV       R1,#0x0
        SJMP      ??afIncomingData_0
//  416     my_msg[13+i] = aff->asdu[i];
??afIncomingData_1:
        MOV       DPL,?XSP + 0
        MOV       DPH,?XSP + 1
        MOVX      A,@DPTR
        MOV       R2,A
        INC       DPTR
        MOVX      A,@DPTR
        XCH       A,R2
        ADD       A,#0xe
        MOV       DPL,A
        CLR       A
        ADDC      A,R2
        MOV       DPH,A
        MOVX      A,@DPTR
        ADD       A,R0
        MOV       R2,A
        INC       DPTR
        MOVX      A,@DPTR
        ADDC      A,R1
        MOV       DPL,R2
        MOV       DPH,A
        MOVX      A,@DPTR
        PUSH      A
          CFI CFA_SP SP+-1
        MOV       A,?V0
        ADD       A,R0
        MOV       R2,A
        MOV       A,?V1
        ADDC      A,R1
        MOV       R3,A
        MOV       A,R2
        ADD       A,#0xd
        MOV       DPL,A
        CLR       A
        ADDC      A,R3
        MOV       DPH,A
        POP       A
          CFI CFA_SP SP+0
        MOVX      @DPTR,A
//  417   }
        INC       R0
        MOV       A,R0
        JNZ       ??afIncomingData_0
        INC       R1
??afIncomingData_0:
        MOV       DPL,?V2
        MOV       DPH,?V3
        MOVX      A,@DPTR
        MOV       R2,A
        CLR       C
        MOV       A,R0
        SUBB      A,R2
        MOV       A,R1
        SUBB      A,#0x0
        MOV       C,0xD0 /* PSW */.2
        XRL       A,PSW
        RLC       A
        JC        ??afIncomingData_1
//  418   uint8 sampleApp_task_id = *(afFindEndPointDesc(8)->task_id); // Endpoint 8 defined for SAMPLES_HA_ENDPOINT
        ; Setup parameters for call to function afFindEndPointDesc
        MOV       R1,#0x8
        LCALL     `??afFindEndPointDesc::?relay`; Banked call to: afFindEndPointDesc
        MOV       DPL,R2
        MOV       DPH,R3
//  419   osal_msg_send( sampleApp_task_id, my_msg);
        ; Setup parameters for call to function osal_msg_send
        MOV       R2,?V0
        MOV       R3,?V1
        LCALL     ?Subroutine7 & 0xFFFF
??CrossCallReturnLabel_86:
        LCALL     `??osal_msg_send::?relay`; Banked call to: osal_msg_send
//  420   // JC update end
//  421 
//  422   endPointDesc_t *epDesc = NULL;
//  423   epList_t *pList = epList;
        MOV       DPTR,#epList
        LCALL     ??Subroutine57_0 & 0xFFFF
??CrossCallReturnLabel_118:
        MOV       A,#0x2
        LCALL     ?XSTACK_DISP0_8
        LCALL     ??Subroutine55_0 & 0xFFFF
//  424 #if !defined ( APS_NO_GROUPS )
//  425   uint8 grpEp = APS_GROUPS_EP_NOT_FOUND;
??CrossCallReturnLabel_106:
        MOV       ?V6,#-0x2
//  426 #endif
//  427 
//  428   if ( ((aff->FrmCtrl & APS_DELIVERYMODE_MASK) == APS_FC_DM_GROUP) )
        MOV       DPL,?XSP + 0
        MOV       DPH,?XSP + 1
        MOVX      A,@DPTR
        ADD       A,#0x4
        MOV       R0,A
        INC       DPTR
        MOVX      A,@DPTR
        ADDC      A,#0x0
        MOV       R1,A
        MOV       A,#0x9
        LCALL     ?XSTACK_DISP0_8
        LCALL     ??Subroutine55_0 & 0xFFFF
??CrossCallReturnLabel_107:
        LCALL     ?Subroutine17 & 0xFFFF
??CrossCallReturnLabel_22:
        JNZ       ??afIncomingData_2
//  429   {
//  430 #if !defined ( APS_NO_GROUPS )
//  431     // Find the first endpoint for this group
//  432     grpEp = aps_FindGroupForEndpoint( aff->GroupID, APS_GROUPS_FIND_FIRST );
        ; Setup parameters for call to function aps_FindGroupForEndpoint
        MOV       R1,#-0x2
        MOV       A,#0x9
        LCALL     ?XSTACK_DISP0_8
        LCALL     ?Subroutine11 & 0xFFFF
??CrossCallReturnLabel_149:
        LCALL     `??aps_FindGroupForEndpoint::?relay`; Banked call to: aps_FindGroupForEndpoint
        MOV       A,R1
        MOV       ?V6,A
//  433     if ( grpEp == APS_GROUPS_EP_NOT_FOUND )
        MOV       A,#-0x2
        XRL       A,?V6
        JNZ       $+5
        LJMP      ??afIncomingData_3 & 0xFFFF
//  434       return;   // No endpoint found
//  435 
//  436     epDesc = afFindEndPointDesc( grpEp );
        ; Setup parameters for call to function afFindEndPointDesc
        LCALL     `??afFindEndPointDesc::?relay`; Banked call to: afFindEndPointDesc
        MOV       ?V0,R2
        MOV       ?V1,R3
        MOV       R6,?V0
        MOV       R7,?V1
//  437     if ( epDesc == NULL )
        MOV       A,R6
        ORL       A,R7
        JNZ       ??afIncomingData_4
//  438       return;   // Endpoint descriptor not found
        LJMP      ??afIncomingData_3 & 0xFFFF
//  439 
//  440     pList = afFindEndPointDescList( epDesc->endPoint );
//  441 #else
//  442     return; // Not supported
//  443 #endif
//  444   }
//  445   else if ( aff->DstEndPoint == AF_BROADCAST_ENDPOINT )
??afIncomingData_2:
        MOV       A,#0x4
        LCALL     ?XSTACK_DISP0_8
        LCALL     ??Subroutine49_0 & 0xFFFF
??CrossCallReturnLabel_83:
        MOV       A,#-0x1
        XRL       A,R1
        JNZ       ??afIncomingData_5
//  446   {
//  447     // Set the list
//  448     if ( pList != NULL )
        MOV       A,#0x2
        LCALL     ?XSTACK_DISP0_8
        LCALL     ?Subroutine8 & 0xFFFF
??CrossCallReturnLabel_3:
        JNZ       $+5
        LJMP      ??afIncomingData_3 & 0xFFFF
//  449     {
//  450       epDesc = pList->epDesc;
        MOV       A,#0x2
        LCALL     ?XSTACK_DISP0_8
        LCALL     ?Subroutine20 & 0xFFFF
//  451     }
//  452   }
??CrossCallReturnLabel_34:
        MOV       A,#0x21
        LCALL     ?XSTACK_DISP0_8
        MOV       R0,#?V0
        LCALL     ?L_MOV_X
        SJMP      ??CrossCallReturnLabel_35
//  453   else if ( (epDesc = afFindEndPointDesc( aff->DstEndPoint )) )
??afIncomingData_5:
        ; Setup parameters for call to function afFindEndPointDesc
        LCALL     `??afFindEndPointDesc::?relay`; Banked call to: afFindEndPointDesc
        MOV       ?V0,R2
        MOV       ?V1,R3
        MOV       R0,?V0
        MOV       R1,?V1
        MOV       A,R0
        MOV       R6,A
        MOV       A,R1
        MOV       R7,A
        MOV       A,R0
        ORL       A,R1
        JZ        ??CrossCallReturnLabel_34
//  454   {
//  455     pList = afFindEndPointDescList( epDesc->endPoint );
??afIncomingData_4:
        ; Setup parameters for call to function afFindEndPointDescList
        MOV       DPL,R6
        MOV       DPH,R7
        MOVX      A,@DPTR
        MOV       R1,A
        LCALL     `??afFindEndPointDescList::?relay`; Banked call to: afFindEndPointDescList
        MOV       A,#0x2
        LCALL     ?XSTACK_DISP0_8
        MOV       A,R2
        MOVX      @DPTR,A
        INC       DPTR
        MOV       A,R3
        MOVX      @DPTR,A
        SJMP      ??CrossCallReturnLabel_34
//  456   }
//  457 
//  458   while ( epDesc )
//  459   {
//  460     uint16 epProfileID = 0xFFFE;  // Invalid Profile ID
//  461 
//  462     if ( pList->pfnDescCB )
//  463     {
//  464       uint16 *pID = (uint16 *)(pList->pfnDescCB(
//  465                                  AF_DESCRIPTOR_PROFILE_ID, epDesc->endPoint ));
//  466       if ( pID )
//  467       {
//  468         epProfileID = *pID;
//  469         osal_mem_free( pID );
//  470       }
//  471     }
//  472     else if ( epDesc->simpleDesc )
//  473     {
//  474       epProfileID = epDesc->simpleDesc->AppProfId;
//  475     }
//  476 
//  477     // First part of verification is to make sure that:
//  478     // the local Endpoint ProfileID matches the received ProfileID OR
//  479     // the message is specifically send to ZDO (this excludes the broadcast endpoint) OR
//  480     // if the Wildcard ProfileID is received the message should not be sent to ZDO endpoint
//  481     /**
//  482      * JC NOTES: Here we temporally remove the first check, as some devices (e.g., Philips Hue) do not strictly follow the rule that "an endpoint can only support one profile".
//  483     */
//  484 
//  485     //if ( (aff->ProfileID == epProfileID) ||
//  486     //     ((epDesc->endPoint == ZDO_EP) && (aff->ProfileID == ZDO_PROFILE_ID)) ||
//  487     //     ((epDesc->endPoint != ZDO_EP) && ( aff->ProfileID == ZDO_WILDCARD_PROFILE_ID )) )
//  488     if ((epDesc->endPoint != ZDO_EP) && (aff->ProfileID >=0) ||
//  489       ((epDesc->endPoint == ZDO_EP) && (aff->ProfileID == ZDO_PROFILE_ID)) ||
//  490          ((epDesc->endPoint != ZDO_EP) && ( aff->ProfileID == ZDO_WILDCARD_PROFILE_ID )) )
//  491     {
//  492       // Save original endpoint
//  493       uint8 endpoint = aff->DstEndPoint;
//  494 
//  495       // overwrite with descriptor's endpoint
//  496       aff->DstEndPoint = epDesc->endPoint;
//  497 
//  498       afBuildMSGIncoming( aff, epDesc, SrcAddress, SrcPanId, sig,
//  499                          nwkSeqNum, SecurityUse, timestamp, radius );
//  500 
//  501       // Restore with original endpoint
//  502       aff->DstEndPoint = endpoint;
//  503     }
//  504 
//  505     if ( ((aff->FrmCtrl & APS_DELIVERYMODE_MASK) == APS_FC_DM_GROUP) )
//  506     {
//  507 #if !defined ( APS_NO_GROUPS )
//  508       // Find the next endpoint for this group
//  509       grpEp = aps_FindGroupForEndpoint( aff->GroupID, grpEp );
//  510       if ( grpEp == APS_GROUPS_EP_NOT_FOUND )
//  511         return;   // No endpoint found
//  512 
//  513       epDesc = afFindEndPointDesc( grpEp );
//  514       if ( epDesc == NULL )
//  515         return;   // Endpoint descriptor not found
//  516 
//  517       pList = afFindEndPointDescList( epDesc->endPoint );
//  518 #else
//  519       return;
//  520 #endif
//  521     }
//  522     else if ( aff->DstEndPoint == AF_BROADCAST_ENDPOINT )
//  523     {
//  524       pList = pList->nextDesc;
//  525       if ( pList )
//  526         epDesc = pList->epDesc;
??afIncomingData_6:
        LCALL     ?Subroutine20 & 0xFFFF
??CrossCallReturnLabel_35:
        MOV       A,R6
        ORL       A,R7
        JNZ       $+5
        LJMP      ??afIncomingData_3 & 0xFFFF
        SJMP      ??afIncomingData_7
??afIncomingData_8:
        ; Setup parameters for call to function afFindEndPointDescList
        MOV       DPL,R6
        MOV       DPH,R7
        MOVX      A,@DPTR
        MOV       R1,A
        LCALL     `??afFindEndPointDescList::?relay`; Banked call to: afFindEndPointDescList
        MOV       A,#0x2
        LCALL     ?XSTACK_DISP0_8
        MOV       A,R2
        MOVX      @DPTR,A
        INC       DPTR
        MOV       A,R3
        MOVX      @DPTR,A
??afIncomingData_7:
        MOV       A,#0x2
        LCALL     ?XSTACK_DISP0_8
        LCALL     ?Subroutine13 & 0xFFFF
??CrossCallReturnLabel_13:
        MOV       A,R0
        MOV       R4,A
        MOV       A,R1
        MOV       R5,A
        MOV       A,R4
        ORL       A,R5
        JZ        ??afIncomingData_9
        ; Setup parameters for indirect call
        MOV       DPL,R6
        MOV       DPH,R7
        LCALL     ?Subroutine26 & 0xFFFF
??CrossCallReturnLabel_43:
        LCALL     ?CALL_IND
        MOV       A,R2
        ORL       A,R3
        JZ        ??afIncomingData_9
        ; Setup parameters for call to function osal_mem_free
        LCALL     `??osal_mem_free::?relay`; Banked call to: osal_mem_free
??afIncomingData_9:
        MOV       DPL,R6
        MOV       DPH,R7
        MOVX      A,@DPTR
        MOV       R2,A
        JNZ       ??afIncomingData_10
        MOV       A,#0x6
        LCALL     ?XSTACK_DISP0_8
        LCALL     ?Subroutine24 & 0xFFFF
??CrossCallReturnLabel_97:
        LCALL     ?Subroutine8 & 0xFFFF
??CrossCallReturnLabel_4:
        JNZ       ??afIncomingData_11
??afIncomingData_10:
        MOV       A,#0x4
        LCALL     ?XSTACK_DISP0_8
        LCALL     ?Subroutine18 & 0xFFFF
??CrossCallReturnLabel_25:
        MOV       ?V5,A
        MOV       A,#0x4
        LCALL     ?XSTACK_DISP0_8
        LCALL     ??Subroutine51_0 & 0xFFFF
??CrossCallReturnLabel_96:
        MOV       A,R2
        MOVX      @DPTR,A
        ; Setup parameters for call to function afBuildMSGIncoming
        MOV       A,#0x25
        LCALL     ?XSTACK_DISP0_8
        MOVX      A,@DPTR
        MOV       ?V4,A
        MOV       R0,#?V4
        LCALL     ?PUSH_XSTACK_I_ONE
          CFI CFA_XSP16 add(XSP16, 29)
        MOV       R0,#?V0
        LCALL     ?PUSH_XSTACK_I_FOUR
          CFI CFA_XSP16 add(XSP16, 33)
        MOV       A,#0x25
        LCALL     ?XSTACK_DISP0_8
        MOVX      A,@DPTR
        MOV       ?V4,A
        MOV       R0,#?V4
        LCALL     ?PUSH_XSTACK_I_ONE
          CFI CFA_XSP16 add(XSP16, 34)
        MOV       A,#0x24
        LCALL     ?XSTACK_DISP0_8
        LCALL     ?PUSH_XSTACK8_X_TWO
          CFI CFA_XSP16 add(XSP16, 36)
        MOV       A,#0x24
        LCALL     ?XSTACK_DISP0_8
        LCALL     ?PUSH_XSTACK8_X_TWO
          CFI CFA_XSP16 add(XSP16, 38)
        MOV       A,#0x15
        LCALL     ?XSTACK_DISP0_8
        LCALL     ?PUSH_XSTACK8_X_TWO
          CFI CFA_XSP16 add(XSP16, 40)
        MOV       A,#0x14
        LCALL     ?XSTACK_DISP0_8
        MOVX      A,@DPTR
        MOV       R1,A
        MOV       A,R6
        MOV       R4,A
        MOV       A,R7
        MOV       R5,A
        MOV       A,#0xc
        LCALL     ?XSTACK_DISP0_8
        LCALL     ??Subroutine61_0 & 0xFFFF
??CrossCallReturnLabel_140:
        LCALL     `??afBuildMSGIncoming::?relay`; Banked call to: afBuildMSGIncoming
        MOV       A,#0xc
        LCALL     ?DEALLOC_XSTACK8
          CFI CFA_XSP16 add(XSP16, 28)
        MOV       A,#0x4
        LCALL     ?XSTACK_DISP0_8
        LCALL     ?Subroutine24 & 0xFFFF
??CrossCallReturnLabel_98:
        MOV       A,?V5
        MOVX      @DPTR,A
??afIncomingData_11:
        LCALL     ?Subroutine17 & 0xFFFF
??CrossCallReturnLabel_23:
        JNZ       ??afIncomingData_12
        ; Setup parameters for call to function aps_FindGroupForEndpoint
        MOV       R1,?V6
        MOV       A,#0x9
        LCALL     ?XSTACK_DISP0_8
        LCALL     ?Subroutine11 & 0xFFFF
??CrossCallReturnLabel_150:
        LCALL     `??aps_FindGroupForEndpoint::?relay`; Banked call to: aps_FindGroupForEndpoint
        MOV       A,R1
        MOV       ?V6,A
        MOV       A,#-0x2
        XRL       A,?V6
        JZ        ??afIncomingData_3
        ; Setup parameters for call to function afFindEndPointDesc
        LCALL     `??afFindEndPointDesc::?relay`; Banked call to: afFindEndPointDesc
        MOV       ?V4,R2
        MOV       ?V5,R3
        MOV       R6,?V4
        MOV       R7,?V5
        MOV       A,R6
        ORL       A,R7
        JZ        $+5
        LJMP      ??afIncomingData_8 & 0xFFFF
        SJMP      ??afIncomingData_3
??afIncomingData_12:
        MOV       A,#0x4
        LCALL     ?XSTACK_DISP0_8
        LCALL     ?Subroutine18 & 0xFFFF
??CrossCallReturnLabel_26:
        CPL       A
        JNZ       ??afIncomingData_3
        MOV       A,#0x2
        LCALL     ?XSTACK_DISP0_8
        LCALL     ?Subroutine18 & 0xFFFF
??CrossCallReturnLabel_27:
        MOV       R0,A
        INC       DPTR
        MOVX      A,@DPTR
        MOV       R1,A
        MOV       A,#0x2
        LCALL     ?XSTACK_DISP0_8
        LCALL     ??Subroutine55_0 & 0xFFFF
??CrossCallReturnLabel_108:
        MOV       A,#0x2
        LCALL     ?XSTACK_DISP0_8
        MOVX      A,@DPTR
        MOV       R0,A
        ORL       A,R1
        JZ        $+5
        LJMP      ??afIncomingData_6 & 0xFFFF
//  527       else
//  528         epDesc = NULL;
//  529     }
//  530     else
//  531       epDesc = NULL;
//  532   }
//  533 }
??afIncomingData_3:
        MOV       A,#0xd
        LCALL     ?DEALLOC_XSTACK8
          CFI EndBlock cfiBlock35
        REQUIRE ?Subroutine4
        ; // Fall through to label ?Subroutine4

        RSEG BANKED_CODE:HUGECODE:NOROOT(0)
?Subroutine4:
          CFI Block cfiBlock36 Using cfiCommon0
          CFI NoFunction
          CFI CFA_SP SP+0
          CFI CFA_XSP16 add(XSP16, 15)
          CFI VB load(1, XDATA, add(CFA_XSP16, literal(-14)))
          CFI DPL0 load(1, XDATA, add(CFA_XSP16, literal(-2)))
          CFI DPH0 load(1, XDATA, add(CFA_XSP16, literal(-1)))
          CFI R6 load(1, XDATA, add(CFA_XSP16, literal(-15)))
          CFI R7 load(1, XDATA, add(CFA_XSP16, literal(-6)))
          CFI V0 load(1, XDATA, add(CFA_XSP16, literal(-13)))
          CFI V1 load(1, XDATA, add(CFA_XSP16, literal(-12)))
          CFI V2 load(1, XDATA, add(CFA_XSP16, literal(-11)))
          CFI V3 load(1, XDATA, add(CFA_XSP16, literal(-10)))
          CFI V4 load(1, XDATA, add(CFA_XSP16, literal(-9)))
          CFI V5 load(1, XDATA, add(CFA_XSP16, literal(-8)))
          CFI V6 load(1, XDATA, add(CFA_XSP16, literal(-7)))
          CFI ?BRET_EXT load(1, XDATA, add(CFA_XSP16, literal(-3)))
          CFI ?RET_HIGH load(1, XDATA, add(CFA_XSP16, literal(-4)))
          CFI ?RET_LOW load(1, XDATA, add(CFA_XSP16, literal(-5)))
        MOV       R7,#0x7
        LJMP      ?BANKED_LEAVE_XDATA
          CFI EndBlock cfiBlock36

        RSEG BANKED_CODE:HUGECODE:NOROOT(0)
?Subroutine38:
          CFI Block cfiCond37 Using cfiCommon0
          CFI Function afIncomingData
          CFI Conditional ??CrossCallReturnLabel_92
          CFI R6 load(1, XDATA, add(CFA_XSP16, literal(-15)))
          CFI VB load(1, XDATA, add(CFA_XSP16, literal(-14)))
          CFI V0 load(1, XDATA, add(CFA_XSP16, literal(-13)))
          CFI V1 load(1, XDATA, add(CFA_XSP16, literal(-12)))
          CFI V2 load(1, XDATA, add(CFA_XSP16, literal(-11)))
          CFI V3 load(1, XDATA, add(CFA_XSP16, literal(-10)))
          CFI V4 load(1, XDATA, add(CFA_XSP16, literal(-9)))
          CFI V5 load(1, XDATA, add(CFA_XSP16, literal(-8)))
          CFI V6 load(1, XDATA, add(CFA_XSP16, literal(-7)))
          CFI R7 load(1, XDATA, add(CFA_XSP16, literal(-6)))
          CFI ?RET_LOW load(1, XDATA, add(CFA_XSP16, literal(-5)))
          CFI ?RET_HIGH load(1, XDATA, add(CFA_XSP16, literal(-4)))
          CFI ?BRET_EXT load(1, XDATA, add(CFA_XSP16, literal(-3)))
          CFI DPL0 load(1, XDATA, add(CFA_XSP16, literal(-2)))
          CFI DPH0 load(1, XDATA, add(CFA_XSP16, literal(-1)))
          CFI CFA_SP SP+-2
          CFI CFA_XSP16 add(XSP16, 28)
          CFI Block cfiCond38 Using cfiCommon0
          CFI (cfiCond38) Function afIncomingData
          CFI (cfiCond38) Conditional ??CrossCallReturnLabel_93
          CFI (cfiCond38) R6 load(1, XDATA, add(CFA_XSP16, literal(-15)))
          CFI (cfiCond38) VB load(1, XDATA, add(CFA_XSP16, literal(-14)))
          CFI (cfiCond38) V0 load(1, XDATA, add(CFA_XSP16, literal(-13)))
          CFI (cfiCond38) V1 load(1, XDATA, add(CFA_XSP16, literal(-12)))
          CFI (cfiCond38) V2 load(1, XDATA, add(CFA_XSP16, literal(-11)))
          CFI (cfiCond38) V3 load(1, XDATA, add(CFA_XSP16, literal(-10)))
          CFI (cfiCond38) V4 load(1, XDATA, add(CFA_XSP16, literal(-9)))
          CFI (cfiCond38) V5 load(1, XDATA, add(CFA_XSP16, literal(-8)))
          CFI (cfiCond38) V6 load(1, XDATA, add(CFA_XSP16, literal(-7)))
          CFI (cfiCond38) R7 load(1, XDATA, add(CFA_XSP16, literal(-6)))
          CFI (cfiCond38) ?RET_LOW load(1, XDATA, add(CFA_XSP16, literal(-5)))
          CFI (cfiCond38) ?RET_HIGH load(1, XDATA, add(CFA_XSP16, literal(-4)))
          CFI (cfiCond38) ?BRET_EXT load(1, XDATA, add(CFA_XSP16, literal(-3)))
          CFI (cfiCond38) DPL0 load(1, XDATA, add(CFA_XSP16, literal(-2)))
          CFI (cfiCond38) DPH0 load(1, XDATA, add(CFA_XSP16, literal(-1)))
          CFI (cfiCond38) CFA_SP SP+-2
          CFI (cfiCond38) CFA_XSP16 add(XSP16, 28)
          CFI Block cfiPicker39 Using cfiCommon1
          CFI (cfiPicker39) NoFunction
          CFI (cfiPicker39) Picker
        INC       DPTR
        INC       DPTR
          CFI EndBlock cfiCond37
          CFI EndBlock cfiCond38
          CFI EndBlock cfiPicker39
        REQUIRE ??Subroutine50_0
        ; // Fall through to label ??Subroutine50_0

        RSEG BANKED_CODE:HUGECODE:NOROOT(0)
??Subroutine50_0:
          CFI Block cfiCond40 Using cfiCommon0
          CFI Function afIncomingData
          CFI Conditional ??CrossCallReturnLabel_94, ??CrossCallReturnLabel_45
          CFI R6 load(1, XDATA, add(CFA_XSP16, literal(-15)))
          CFI VB load(1, XDATA, add(CFA_XSP16, literal(-14)))
          CFI V0 load(1, XDATA, add(CFA_XSP16, literal(-13)))
          CFI V1 load(1, XDATA, add(CFA_XSP16, literal(-12)))
          CFI V2 load(1, XDATA, add(CFA_XSP16, literal(-11)))
          CFI V3 load(1, XDATA, add(CFA_XSP16, literal(-10)))
          CFI V4 load(1, XDATA, add(CFA_XSP16, literal(-9)))
          CFI V5 load(1, XDATA, add(CFA_XSP16, literal(-8)))
          CFI V6 load(1, XDATA, add(CFA_XSP16, literal(-7)))
          CFI R7 load(1, XDATA, add(CFA_XSP16, literal(-6)))
          CFI ?RET_LOW load(1, XDATA, add(CFA_XSP16, literal(-5)))
          CFI ?RET_HIGH load(1, XDATA, add(CFA_XSP16, literal(-4)))
          CFI ?BRET_EXT load(1, XDATA, add(CFA_XSP16, literal(-3)))
          CFI DPL0 load(1, XDATA, add(CFA_XSP16, literal(-2)))
          CFI DPH0 load(1, XDATA, add(CFA_XSP16, literal(-1)))
          CFI CFA_SP SP+-4
          CFI CFA_XSP16 add(XSP16, 28)
          CFI Block cfiCond41 Using cfiCommon0
          CFI (cfiCond41) Function afIncomingData
          CFI (cfiCond41) Conditional ??CrossCallReturnLabel_94, ??CrossCallReturnLabel_46
          CFI (cfiCond41) R6 load(1, XDATA, add(CFA_XSP16, literal(-15)))
          CFI (cfiCond41) VB load(1, XDATA, add(CFA_XSP16, literal(-14)))
          CFI (cfiCond41) V0 load(1, XDATA, add(CFA_XSP16, literal(-13)))
          CFI (cfiCond41) V1 load(1, XDATA, add(CFA_XSP16, literal(-12)))
          CFI (cfiCond41) V2 load(1, XDATA, add(CFA_XSP16, literal(-11)))
          CFI (cfiCond41) V3 load(1, XDATA, add(CFA_XSP16, literal(-10)))
          CFI (cfiCond41) V4 load(1, XDATA, add(CFA_XSP16, literal(-9)))
          CFI (cfiCond41) V5 load(1, XDATA, add(CFA_XSP16, literal(-8)))
          CFI (cfiCond41) V6 load(1, XDATA, add(CFA_XSP16, literal(-7)))
          CFI (cfiCond41) R7 load(1, XDATA, add(CFA_XSP16, literal(-6)))
          CFI (cfiCond41) ?RET_LOW load(1, XDATA, add(CFA_XSP16, literal(-5)))
          CFI (cfiCond41) ?RET_HIGH load(1, XDATA, add(CFA_XSP16, literal(-4)))
          CFI (cfiCond41) ?BRET_EXT load(1, XDATA, add(CFA_XSP16, literal(-3)))
          CFI (cfiCond41) DPL0 load(1, XDATA, add(CFA_XSP16, literal(-2)))
          CFI (cfiCond41) DPH0 load(1, XDATA, add(CFA_XSP16, literal(-1)))
          CFI (cfiCond41) CFA_SP SP+-4
          CFI (cfiCond41) CFA_XSP16 add(XSP16, 28)
          CFI Block cfiCond42 Using cfiCommon0
          CFI (cfiCond42) Function afIncomingData
          CFI (cfiCond42) Conditional ??CrossCallReturnLabel_94, ??CrossCallReturnLabel_47
          CFI (cfiCond42) R6 load(1, XDATA, add(CFA_XSP16, literal(-15)))
          CFI (cfiCond42) VB load(1, XDATA, add(CFA_XSP16, literal(-14)))
          CFI (cfiCond42) V0 load(1, XDATA, add(CFA_XSP16, literal(-13)))
          CFI (cfiCond42) V1 load(1, XDATA, add(CFA_XSP16, literal(-12)))
          CFI (cfiCond42) V2 load(1, XDATA, add(CFA_XSP16, literal(-11)))
          CFI (cfiCond42) V3 load(1, XDATA, add(CFA_XSP16, literal(-10)))
          CFI (cfiCond42) V4 load(1, XDATA, add(CFA_XSP16, literal(-9)))
          CFI (cfiCond42) V5 load(1, XDATA, add(CFA_XSP16, literal(-8)))
          CFI (cfiCond42) V6 load(1, XDATA, add(CFA_XSP16, literal(-7)))
          CFI (cfiCond42) R7 load(1, XDATA, add(CFA_XSP16, literal(-6)))
          CFI (cfiCond42) ?RET_LOW load(1, XDATA, add(CFA_XSP16, literal(-5)))
          CFI (cfiCond42) ?RET_HIGH load(1, XDATA, add(CFA_XSP16, literal(-4)))
          CFI (cfiCond42) ?BRET_EXT load(1, XDATA, add(CFA_XSP16, literal(-3)))
          CFI (cfiCond42) DPL0 load(1, XDATA, add(CFA_XSP16, literal(-2)))
          CFI (cfiCond42) DPH0 load(1, XDATA, add(CFA_XSP16, literal(-1)))
          CFI (cfiCond42) CFA_SP SP+-4
          CFI (cfiCond42) CFA_XSP16 add(XSP16, 28)
          CFI Block cfiCond43 Using cfiCommon0
          CFI (cfiCond43) Function afIncomingData
          CFI (cfiCond43) Conditional ??CrossCallReturnLabel_94, ??CrossCallReturnLabel_48
          CFI (cfiCond43) R6 load(1, XDATA, add(CFA_XSP16, literal(-15)))
          CFI (cfiCond43) VB load(1, XDATA, add(CFA_XSP16, literal(-14)))
          CFI (cfiCond43) V0 load(1, XDATA, add(CFA_XSP16, literal(-13)))
          CFI (cfiCond43) V1 load(1, XDATA, add(CFA_XSP16, literal(-12)))
          CFI (cfiCond43) V2 load(1, XDATA, add(CFA_XSP16, literal(-11)))
          CFI (cfiCond43) V3 load(1, XDATA, add(CFA_XSP16, literal(-10)))
          CFI (cfiCond43) V4 load(1, XDATA, add(CFA_XSP16, literal(-9)))
          CFI (cfiCond43) V5 load(1, XDATA, add(CFA_XSP16, literal(-8)))
          CFI (cfiCond43) V6 load(1, XDATA, add(CFA_XSP16, literal(-7)))
          CFI (cfiCond43) R7 load(1, XDATA, add(CFA_XSP16, literal(-6)))
          CFI (cfiCond43) ?RET_LOW load(1, XDATA, add(CFA_XSP16, literal(-5)))
          CFI (cfiCond43) ?RET_HIGH load(1, XDATA, add(CFA_XSP16, literal(-4)))
          CFI (cfiCond43) ?BRET_EXT load(1, XDATA, add(CFA_XSP16, literal(-3)))
          CFI (cfiCond43) DPL0 load(1, XDATA, add(CFA_XSP16, literal(-2)))
          CFI (cfiCond43) DPH0 load(1, XDATA, add(CFA_XSP16, literal(-1)))
          CFI (cfiCond43) CFA_SP SP+-4
          CFI (cfiCond43) CFA_XSP16 add(XSP16, 28)
          CFI Block cfiCond44 Using cfiCommon0
          CFI (cfiCond44) Function afIncomingData
          CFI (cfiCond44) Conditional ??CrossCallReturnLabel_94, ??CrossCallReturnLabel_49
          CFI (cfiCond44) R6 load(1, XDATA, add(CFA_XSP16, literal(-15)))
          CFI (cfiCond44) VB load(1, XDATA, add(CFA_XSP16, literal(-14)))
          CFI (cfiCond44) V0 load(1, XDATA, add(CFA_XSP16, literal(-13)))
          CFI (cfiCond44) V1 load(1, XDATA, add(CFA_XSP16, literal(-12)))
          CFI (cfiCond44) V2 load(1, XDATA, add(CFA_XSP16, literal(-11)))
          CFI (cfiCond44) V3 load(1, XDATA, add(CFA_XSP16, literal(-10)))
          CFI (cfiCond44) V4 load(1, XDATA, add(CFA_XSP16, literal(-9)))
          CFI (cfiCond44) V5 load(1, XDATA, add(CFA_XSP16, literal(-8)))
          CFI (cfiCond44) V6 load(1, XDATA, add(CFA_XSP16, literal(-7)))
          CFI (cfiCond44) R7 load(1, XDATA, add(CFA_XSP16, literal(-6)))
          CFI (cfiCond44) ?RET_LOW load(1, XDATA, add(CFA_XSP16, literal(-5)))
          CFI (cfiCond44) ?RET_HIGH load(1, XDATA, add(CFA_XSP16, literal(-4)))
          CFI (cfiCond44) ?BRET_EXT load(1, XDATA, add(CFA_XSP16, literal(-3)))
          CFI (cfiCond44) DPL0 load(1, XDATA, add(CFA_XSP16, literal(-2)))
          CFI (cfiCond44) DPH0 load(1, XDATA, add(CFA_XSP16, literal(-1)))
          CFI (cfiCond44) CFA_SP SP+-4
          CFI (cfiCond44) CFA_XSP16 add(XSP16, 28)
          CFI Block cfiCond45 Using cfiCommon0
          CFI (cfiCond45) Function afIncomingData
          CFI (cfiCond45) Conditional ??CrossCallReturnLabel_92
          CFI (cfiCond45) R6 load(1, XDATA, add(CFA_XSP16, literal(-15)))
          CFI (cfiCond45) VB load(1, XDATA, add(CFA_XSP16, literal(-14)))
          CFI (cfiCond45) V0 load(1, XDATA, add(CFA_XSP16, literal(-13)))
          CFI (cfiCond45) V1 load(1, XDATA, add(CFA_XSP16, literal(-12)))
          CFI (cfiCond45) V2 load(1, XDATA, add(CFA_XSP16, literal(-11)))
          CFI (cfiCond45) V3 load(1, XDATA, add(CFA_XSP16, literal(-10)))
          CFI (cfiCond45) V4 load(1, XDATA, add(CFA_XSP16, literal(-9)))
          CFI (cfiCond45) V5 load(1, XDATA, add(CFA_XSP16, literal(-8)))
          CFI (cfiCond45) V6 load(1, XDATA, add(CFA_XSP16, literal(-7)))
          CFI (cfiCond45) R7 load(1, XDATA, add(CFA_XSP16, literal(-6)))
          CFI (cfiCond45) ?RET_LOW load(1, XDATA, add(CFA_XSP16, literal(-5)))
          CFI (cfiCond45) ?RET_HIGH load(1, XDATA, add(CFA_XSP16, literal(-4)))
          CFI (cfiCond45) ?BRET_EXT load(1, XDATA, add(CFA_XSP16, literal(-3)))
          CFI (cfiCond45) DPL0 load(1, XDATA, add(CFA_XSP16, literal(-2)))
          CFI (cfiCond45) DPH0 load(1, XDATA, add(CFA_XSP16, literal(-1)))
          CFI (cfiCond45) CFA_SP SP+-2
          CFI (cfiCond45) CFA_XSP16 add(XSP16, 28)
          CFI Block cfiCond46 Using cfiCommon0
          CFI (cfiCond46) Function afIncomingData
          CFI (cfiCond46) Conditional ??CrossCallReturnLabel_93
          CFI (cfiCond46) R6 load(1, XDATA, add(CFA_XSP16, literal(-15)))
          CFI (cfiCond46) VB load(1, XDATA, add(CFA_XSP16, literal(-14)))
          CFI (cfiCond46) V0 load(1, XDATA, add(CFA_XSP16, literal(-13)))
          CFI (cfiCond46) V1 load(1, XDATA, add(CFA_XSP16, literal(-12)))
          CFI (cfiCond46) V2 load(1, XDATA, add(CFA_XSP16, literal(-11)))
          CFI (cfiCond46) V3 load(1, XDATA, add(CFA_XSP16, literal(-10)))
          CFI (cfiCond46) V4 load(1, XDATA, add(CFA_XSP16, literal(-9)))
          CFI (cfiCond46) V5 load(1, XDATA, add(CFA_XSP16, literal(-8)))
          CFI (cfiCond46) V6 load(1, XDATA, add(CFA_XSP16, literal(-7)))
          CFI (cfiCond46) R7 load(1, XDATA, add(CFA_XSP16, literal(-6)))
          CFI (cfiCond46) ?RET_LOW load(1, XDATA, add(CFA_XSP16, literal(-5)))
          CFI (cfiCond46) ?RET_HIGH load(1, XDATA, add(CFA_XSP16, literal(-4)))
          CFI (cfiCond46) ?BRET_EXT load(1, XDATA, add(CFA_XSP16, literal(-3)))
          CFI (cfiCond46) DPL0 load(1, XDATA, add(CFA_XSP16, literal(-2)))
          CFI (cfiCond46) DPH0 load(1, XDATA, add(CFA_XSP16, literal(-1)))
          CFI (cfiCond46) CFA_SP SP+-2
          CFI (cfiCond46) CFA_XSP16 add(XSP16, 28)
          CFI Block cfiPicker47 Using cfiCommon1
          CFI (cfiPicker47) NoFunction
          CFI (cfiPicker47) Picker
        MOVX      @DPTR,A
        MOV       DPL,?XSP + 0
        MOV       DPH,?XSP + 1
        RET
          CFI EndBlock cfiCond40
          CFI EndBlock cfiCond41
          CFI EndBlock cfiCond42
          CFI EndBlock cfiCond43
          CFI EndBlock cfiCond44
          CFI EndBlock cfiCond45
          CFI EndBlock cfiCond46
          CFI EndBlock cfiPicker47

        RSEG BANKED_CODE:HUGECODE:NOROOT(0)
?Subroutine35:
          CFI Block cfiCond48 Using cfiCommon0
          CFI Function afDataConfirm
          CFI Conditional ??CrossCallReturnLabel_64
          CFI R6 load(1, XDATA, add(CFA_XSP16, literal(-14)))
          CFI VB load(1, XDATA, add(CFA_XSP16, literal(-13)))
          CFI V0 load(1, XDATA, add(CFA_XSP16, literal(-12)))
          CFI V1 load(1, XDATA, add(CFA_XSP16, literal(-11)))
          CFI V2 load(1, XDATA, add(CFA_XSP16, literal(-10)))
          CFI V3 load(1, XDATA, add(CFA_XSP16, literal(-9)))
          CFI V4 load(1, XDATA, add(CFA_XSP16, literal(-8)))
          CFI V5 load(1, XDATA, add(CFA_XSP16, literal(-7)))
          CFI R7 load(1, XDATA, add(CFA_XSP16, literal(-6)))
          CFI ?RET_LOW load(1, XDATA, add(CFA_XSP16, literal(-5)))
          CFI ?RET_HIGH load(1, XDATA, add(CFA_XSP16, literal(-4)))
          CFI ?BRET_EXT load(1, XDATA, add(CFA_XSP16, literal(-3)))
          CFI DPL0 load(1, XDATA, add(CFA_XSP16, literal(-2)))
          CFI DPH0 load(1, XDATA, add(CFA_XSP16, literal(-1)))
          CFI CFA_SP SP+-2
          CFI CFA_XSP16 add(XSP16, 14)
          CFI Block cfiCond49 Using cfiCommon0
          CFI (cfiCond49) Function afIncomingData
          CFI (cfiCond49) Conditional ??CrossCallReturnLabel_65
          CFI (cfiCond49) R6 load(1, XDATA, add(CFA_XSP16, literal(-15)))
          CFI (cfiCond49) VB load(1, XDATA, add(CFA_XSP16, literal(-14)))
          CFI (cfiCond49) V0 load(1, XDATA, add(CFA_XSP16, literal(-13)))
          CFI (cfiCond49) V1 load(1, XDATA, add(CFA_XSP16, literal(-12)))
          CFI (cfiCond49) V2 load(1, XDATA, add(CFA_XSP16, literal(-11)))
          CFI (cfiCond49) V3 load(1, XDATA, add(CFA_XSP16, literal(-10)))
          CFI (cfiCond49) V4 load(1, XDATA, add(CFA_XSP16, literal(-9)))
          CFI (cfiCond49) V5 load(1, XDATA, add(CFA_XSP16, literal(-8)))
          CFI (cfiCond49) V6 load(1, XDATA, add(CFA_XSP16, literal(-7)))
          CFI (cfiCond49) R7 load(1, XDATA, add(CFA_XSP16, literal(-6)))
          CFI (cfiCond49) ?RET_LOW load(1, XDATA, add(CFA_XSP16, literal(-5)))
          CFI (cfiCond49) ?RET_HIGH load(1, XDATA, add(CFA_XSP16, literal(-4)))
          CFI (cfiCond49) ?BRET_EXT load(1, XDATA, add(CFA_XSP16, literal(-3)))
          CFI (cfiCond49) DPL0 load(1, XDATA, add(CFA_XSP16, literal(-2)))
          CFI (cfiCond49) DPH0 load(1, XDATA, add(CFA_XSP16, literal(-1)))
          CFI (cfiCond49) CFA_SP SP+-2
          CFI (cfiCond49) CFA_XSP16 add(XSP16, 28)
          CFI Block cfiPicker50 Using cfiCommon1
          CFI (cfiPicker50) NoFunction
          CFI (cfiPicker50) Picker
        MOVX      @DPTR,A
        MOV       A,R6
        MOV       DPL,R2
        MOV       DPH,R3
        INC       DPTR
        INC       DPTR
        RET
          CFI EndBlock cfiCond48
          CFI EndBlock cfiCond49
          CFI EndBlock cfiPicker50

        RSEG BANKED_CODE:HUGECODE:NOROOT(0)
?Subroutine33:
          CFI Block cfiCond51 Using cfiCommon0
          CFI Function afReflectError
          CFI Conditional ??CrossCallReturnLabel_58
          CFI R6 load(1, XDATA, add(CFA_XSP16, literal(-16)))
          CFI VB load(1, XDATA, add(CFA_XSP16, literal(-15)))
          CFI V0 load(1, XDATA, add(CFA_XSP16, literal(-14)))
          CFI V1 load(1, XDATA, add(CFA_XSP16, literal(-13)))
          CFI V2 load(1, XDATA, add(CFA_XSP16, literal(-12)))
          CFI V3 load(1, XDATA, add(CFA_XSP16, literal(-11)))
          CFI V4 load(1, XDATA, add(CFA_XSP16, literal(-10)))
          CFI V5 load(1, XDATA, add(CFA_XSP16, literal(-9)))
          CFI V6 load(1, XDATA, add(CFA_XSP16, literal(-8)))
          CFI V7 load(1, XDATA, add(CFA_XSP16, literal(-7)))
          CFI R7 load(1, XDATA, add(CFA_XSP16, literal(-6)))
          CFI ?RET_LOW load(1, XDATA, add(CFA_XSP16, literal(-5)))
          CFI ?RET_HIGH load(1, XDATA, add(CFA_XSP16, literal(-4)))
          CFI ?BRET_EXT load(1, XDATA, add(CFA_XSP16, literal(-3)))
          CFI DPL0 load(1, XDATA, add(CFA_XSP16, literal(-2)))
          CFI DPH0 load(1, XDATA, add(CFA_XSP16, literal(-1)))
          CFI CFA_SP SP+-2
          CFI CFA_XSP16 add(XSP16, 16)
          CFI Block cfiCond52 Using cfiCommon0
          CFI (cfiCond52) Function afIncomingData
          CFI (cfiCond52) Conditional ??CrossCallReturnLabel_59
          CFI (cfiCond52) R6 load(1, XDATA, add(CFA_XSP16, literal(-15)))
          CFI (cfiCond52) VB load(1, XDATA, add(CFA_XSP16, literal(-14)))
          CFI (cfiCond52) V0 load(1, XDATA, add(CFA_XSP16, literal(-13)))
          CFI (cfiCond52) V1 load(1, XDATA, add(CFA_XSP16, literal(-12)))
          CFI (cfiCond52) V2 load(1, XDATA, add(CFA_XSP16, literal(-11)))
          CFI (cfiCond52) V3 load(1, XDATA, add(CFA_XSP16, literal(-10)))
          CFI (cfiCond52) V4 load(1, XDATA, add(CFA_XSP16, literal(-9)))
          CFI (cfiCond52) V5 load(1, XDATA, add(CFA_XSP16, literal(-8)))
          CFI (cfiCond52) V6 load(1, XDATA, add(CFA_XSP16, literal(-7)))
          CFI (cfiCond52) R7 load(1, XDATA, add(CFA_XSP16, literal(-6)))
          CFI (cfiCond52) ?RET_LOW load(1, XDATA, add(CFA_XSP16, literal(-5)))
          CFI (cfiCond52) ?RET_HIGH load(1, XDATA, add(CFA_XSP16, literal(-4)))
          CFI (cfiCond52) ?BRET_EXT load(1, XDATA, add(CFA_XSP16, literal(-3)))
          CFI (cfiCond52) DPL0 load(1, XDATA, add(CFA_XSP16, literal(-2)))
          CFI (cfiCond52) DPH0 load(1, XDATA, add(CFA_XSP16, literal(-1)))
          CFI (cfiCond52) CFA_SP SP+-2
          CFI (cfiCond52) CFA_XSP16 add(XSP16, 28)
          CFI Block cfiCond53 Using cfiCommon0
          CFI (cfiCond53) Function afIncomingData
          CFI (cfiCond53) Conditional ??CrossCallReturnLabel_60
          CFI (cfiCond53) R6 load(1, XDATA, add(CFA_XSP16, literal(-15)))
          CFI (cfiCond53) VB load(1, XDATA, add(CFA_XSP16, literal(-14)))
          CFI (cfiCond53) V0 load(1, XDATA, add(CFA_XSP16, literal(-13)))
          CFI (cfiCond53) V1 load(1, XDATA, add(CFA_XSP16, literal(-12)))
          CFI (cfiCond53) V2 load(1, XDATA, add(CFA_XSP16, literal(-11)))
          CFI (cfiCond53) V3 load(1, XDATA, add(CFA_XSP16, literal(-10)))
          CFI (cfiCond53) V4 load(1, XDATA, add(CFA_XSP16, literal(-9)))
          CFI (cfiCond53) V5 load(1, XDATA, add(CFA_XSP16, literal(-8)))
          CFI (cfiCond53) V6 load(1, XDATA, add(CFA_XSP16, literal(-7)))
          CFI (cfiCond53) R7 load(1, XDATA, add(CFA_XSP16, literal(-6)))
          CFI (cfiCond53) ?RET_LOW load(1, XDATA, add(CFA_XSP16, literal(-5)))
          CFI (cfiCond53) ?RET_HIGH load(1, XDATA, add(CFA_XSP16, literal(-4)))
          CFI (cfiCond53) ?BRET_EXT load(1, XDATA, add(CFA_XSP16, literal(-3)))
          CFI (cfiCond53) DPL0 load(1, XDATA, add(CFA_XSP16, literal(-2)))
          CFI (cfiCond53) DPH0 load(1, XDATA, add(CFA_XSP16, literal(-1)))
          CFI (cfiCond53) CFA_SP SP+-2
          CFI (cfiCond53) CFA_XSP16 add(XSP16, 28)
          CFI Block cfiPicker54 Using cfiCommon1
          CFI (cfiPicker54) NoFunction
          CFI (cfiPicker54) Picker
        MOVX      @DPTR,A
        MOV       DPL,R2
        MOV       DPH,R3
        INC       DPTR
        INC       DPTR
        RET
          CFI EndBlock cfiCond51
          CFI EndBlock cfiCond52
          CFI EndBlock cfiCond53
          CFI EndBlock cfiPicker54

        RSEG BANKED_CODE:HUGECODE:NOROOT(0)
?Subroutine27:
          CFI Block cfiCond55 Using cfiCommon0
          CFI Function afIncomingData
          CFI Conditional ??CrossCallReturnLabel_45
          CFI R6 load(1, XDATA, add(CFA_XSP16, literal(-15)))
          CFI VB load(1, XDATA, add(CFA_XSP16, literal(-14)))
          CFI V0 load(1, XDATA, add(CFA_XSP16, literal(-13)))
          CFI V1 load(1, XDATA, add(CFA_XSP16, literal(-12)))
          CFI V2 load(1, XDATA, add(CFA_XSP16, literal(-11)))
          CFI V3 load(1, XDATA, add(CFA_XSP16, literal(-10)))
          CFI V4 load(1, XDATA, add(CFA_XSP16, literal(-9)))
          CFI V5 load(1, XDATA, add(CFA_XSP16, literal(-8)))
          CFI V6 load(1, XDATA, add(CFA_XSP16, literal(-7)))
          CFI R7 load(1, XDATA, add(CFA_XSP16, literal(-6)))
          CFI ?RET_LOW load(1, XDATA, add(CFA_XSP16, literal(-5)))
          CFI ?RET_HIGH load(1, XDATA, add(CFA_XSP16, literal(-4)))
          CFI ?BRET_EXT load(1, XDATA, add(CFA_XSP16, literal(-3)))
          CFI DPL0 load(1, XDATA, add(CFA_XSP16, literal(-2)))
          CFI DPH0 load(1, XDATA, add(CFA_XSP16, literal(-1)))
          CFI CFA_SP SP+-2
          CFI CFA_XSP16 add(XSP16, 28)
          CFI Block cfiCond56 Using cfiCommon0
          CFI (cfiCond56) Function afIncomingData
          CFI (cfiCond56) Conditional ??CrossCallReturnLabel_46
          CFI (cfiCond56) R6 load(1, XDATA, add(CFA_XSP16, literal(-15)))
          CFI (cfiCond56) VB load(1, XDATA, add(CFA_XSP16, literal(-14)))
          CFI (cfiCond56) V0 load(1, XDATA, add(CFA_XSP16, literal(-13)))
          CFI (cfiCond56) V1 load(1, XDATA, add(CFA_XSP16, literal(-12)))
          CFI (cfiCond56) V2 load(1, XDATA, add(CFA_XSP16, literal(-11)))
          CFI (cfiCond56) V3 load(1, XDATA, add(CFA_XSP16, literal(-10)))
          CFI (cfiCond56) V4 load(1, XDATA, add(CFA_XSP16, literal(-9)))
          CFI (cfiCond56) V5 load(1, XDATA, add(CFA_XSP16, literal(-8)))
          CFI (cfiCond56) V6 load(1, XDATA, add(CFA_XSP16, literal(-7)))
          CFI (cfiCond56) R7 load(1, XDATA, add(CFA_XSP16, literal(-6)))
          CFI (cfiCond56) ?RET_LOW load(1, XDATA, add(CFA_XSP16, literal(-5)))
          CFI (cfiCond56) ?RET_HIGH load(1, XDATA, add(CFA_XSP16, literal(-4)))
          CFI (cfiCond56) ?BRET_EXT load(1, XDATA, add(CFA_XSP16, literal(-3)))
          CFI (cfiCond56) DPL0 load(1, XDATA, add(CFA_XSP16, literal(-2)))
          CFI (cfiCond56) DPH0 load(1, XDATA, add(CFA_XSP16, literal(-1)))
          CFI (cfiCond56) CFA_SP SP+-2
          CFI (cfiCond56) CFA_XSP16 add(XSP16, 28)
          CFI Block cfiCond57 Using cfiCommon0
          CFI (cfiCond57) Function afIncomingData
          CFI (cfiCond57) Conditional ??CrossCallReturnLabel_47
          CFI (cfiCond57) R6 load(1, XDATA, add(CFA_XSP16, literal(-15)))
          CFI (cfiCond57) VB load(1, XDATA, add(CFA_XSP16, literal(-14)))
          CFI (cfiCond57) V0 load(1, XDATA, add(CFA_XSP16, literal(-13)))
          CFI (cfiCond57) V1 load(1, XDATA, add(CFA_XSP16, literal(-12)))
          CFI (cfiCond57) V2 load(1, XDATA, add(CFA_XSP16, literal(-11)))
          CFI (cfiCond57) V3 load(1, XDATA, add(CFA_XSP16, literal(-10)))
          CFI (cfiCond57) V4 load(1, XDATA, add(CFA_XSP16, literal(-9)))
          CFI (cfiCond57) V5 load(1, XDATA, add(CFA_XSP16, literal(-8)))
          CFI (cfiCond57) V6 load(1, XDATA, add(CFA_XSP16, literal(-7)))
          CFI (cfiCond57) R7 load(1, XDATA, add(CFA_XSP16, literal(-6)))
          CFI (cfiCond57) ?RET_LOW load(1, XDATA, add(CFA_XSP16, literal(-5)))
          CFI (cfiCond57) ?RET_HIGH load(1, XDATA, add(CFA_XSP16, literal(-4)))
          CFI (cfiCond57) ?BRET_EXT load(1, XDATA, add(CFA_XSP16, literal(-3)))
          CFI (cfiCond57) DPL0 load(1, XDATA, add(CFA_XSP16, literal(-2)))
          CFI (cfiCond57) DPH0 load(1, XDATA, add(CFA_XSP16, literal(-1)))
          CFI (cfiCond57) CFA_SP SP+-2
          CFI (cfiCond57) CFA_XSP16 add(XSP16, 28)
          CFI Block cfiCond58 Using cfiCommon0
          CFI (cfiCond58) Function afIncomingData
          CFI (cfiCond58) Conditional ??CrossCallReturnLabel_48
          CFI (cfiCond58) R6 load(1, XDATA, add(CFA_XSP16, literal(-15)))
          CFI (cfiCond58) VB load(1, XDATA, add(CFA_XSP16, literal(-14)))
          CFI (cfiCond58) V0 load(1, XDATA, add(CFA_XSP16, literal(-13)))
          CFI (cfiCond58) V1 load(1, XDATA, add(CFA_XSP16, literal(-12)))
          CFI (cfiCond58) V2 load(1, XDATA, add(CFA_XSP16, literal(-11)))
          CFI (cfiCond58) V3 load(1, XDATA, add(CFA_XSP16, literal(-10)))
          CFI (cfiCond58) V4 load(1, XDATA, add(CFA_XSP16, literal(-9)))
          CFI (cfiCond58) V5 load(1, XDATA, add(CFA_XSP16, literal(-8)))
          CFI (cfiCond58) V6 load(1, XDATA, add(CFA_XSP16, literal(-7)))
          CFI (cfiCond58) R7 load(1, XDATA, add(CFA_XSP16, literal(-6)))
          CFI (cfiCond58) ?RET_LOW load(1, XDATA, add(CFA_XSP16, literal(-5)))
          CFI (cfiCond58) ?RET_HIGH load(1, XDATA, add(CFA_XSP16, literal(-4)))
          CFI (cfiCond58) ?BRET_EXT load(1, XDATA, add(CFA_XSP16, literal(-3)))
          CFI (cfiCond58) DPL0 load(1, XDATA, add(CFA_XSP16, literal(-2)))
          CFI (cfiCond58) DPH0 load(1, XDATA, add(CFA_XSP16, literal(-1)))
          CFI (cfiCond58) CFA_SP SP+-2
          CFI (cfiCond58) CFA_XSP16 add(XSP16, 28)
          CFI Block cfiCond59 Using cfiCommon0
          CFI (cfiCond59) Function afIncomingData
          CFI (cfiCond59) Conditional ??CrossCallReturnLabel_49
          CFI (cfiCond59) R6 load(1, XDATA, add(CFA_XSP16, literal(-15)))
          CFI (cfiCond59) VB load(1, XDATA, add(CFA_XSP16, literal(-14)))
          CFI (cfiCond59) V0 load(1, XDATA, add(CFA_XSP16, literal(-13)))
          CFI (cfiCond59) V1 load(1, XDATA, add(CFA_XSP16, literal(-12)))
          CFI (cfiCond59) V2 load(1, XDATA, add(CFA_XSP16, literal(-11)))
          CFI (cfiCond59) V3 load(1, XDATA, add(CFA_XSP16, literal(-10)))
          CFI (cfiCond59) V4 load(1, XDATA, add(CFA_XSP16, literal(-9)))
          CFI (cfiCond59) V5 load(1, XDATA, add(CFA_XSP16, literal(-8)))
          CFI (cfiCond59) V6 load(1, XDATA, add(CFA_XSP16, literal(-7)))
          CFI (cfiCond59) R7 load(1, XDATA, add(CFA_XSP16, literal(-6)))
          CFI (cfiCond59) ?RET_LOW load(1, XDATA, add(CFA_XSP16, literal(-5)))
          CFI (cfiCond59) ?RET_HIGH load(1, XDATA, add(CFA_XSP16, literal(-4)))
          CFI (cfiCond59) ?BRET_EXT load(1, XDATA, add(CFA_XSP16, literal(-3)))
          CFI (cfiCond59) DPL0 load(1, XDATA, add(CFA_XSP16, literal(-2)))
          CFI (cfiCond59) DPH0 load(1, XDATA, add(CFA_XSP16, literal(-1)))
          CFI (cfiCond59) CFA_SP SP+-2
          CFI (cfiCond59) CFA_XSP16 add(XSP16, 28)
          CFI Block cfiPicker60 Using cfiCommon1
          CFI (cfiPicker60) NoFunction
          CFI (cfiPicker60) Picker
        LCALL     ??Subroutine50_0 & 0xFFFF
??CrossCallReturnLabel_94:
        MOVX      A,@DPTR
        RET
          CFI EndBlock cfiCond55
          CFI EndBlock cfiCond56
          CFI EndBlock cfiCond57
          CFI EndBlock cfiCond58
          CFI EndBlock cfiCond59
          CFI EndBlock cfiPicker60

        RSEG BANKED_CODE:HUGECODE:NOROOT(0)
?Subroutine25:
          CFI Block cfiCond61 Using cfiCommon0
          CFI Function afReflectError
          CFI Conditional ??CrossCallReturnLabel_41
          CFI R6 load(1, XDATA, add(CFA_XSP16, literal(-16)))
          CFI VB load(1, XDATA, add(CFA_XSP16, literal(-15)))
          CFI V0 load(1, XDATA, add(CFA_XSP16, literal(-14)))
          CFI V1 load(1, XDATA, add(CFA_XSP16, literal(-13)))
          CFI V2 load(1, XDATA, add(CFA_XSP16, literal(-12)))
          CFI V3 load(1, XDATA, add(CFA_XSP16, literal(-11)))
          CFI V4 load(1, XDATA, add(CFA_XSP16, literal(-10)))
          CFI V5 load(1, XDATA, add(CFA_XSP16, literal(-9)))
          CFI V6 load(1, XDATA, add(CFA_XSP16, literal(-8)))
          CFI V7 load(1, XDATA, add(CFA_XSP16, literal(-7)))
          CFI R7 load(1, XDATA, add(CFA_XSP16, literal(-6)))
          CFI ?RET_LOW load(1, XDATA, add(CFA_XSP16, literal(-5)))
          CFI ?RET_HIGH load(1, XDATA, add(CFA_XSP16, literal(-4)))
          CFI ?BRET_EXT load(1, XDATA, add(CFA_XSP16, literal(-3)))
          CFI DPL0 load(1, XDATA, add(CFA_XSP16, literal(-2)))
          CFI DPH0 load(1, XDATA, add(CFA_XSP16, literal(-1)))
          CFI CFA_SP SP+-2
          CFI CFA_XSP16 add(XSP16, 16)
          CFI Block cfiCond62 Using cfiCommon0
          CFI (cfiCond62) Function afIncomingData
          CFI (cfiCond62) Conditional ??CrossCallReturnLabel_42
          CFI (cfiCond62) R6 load(1, XDATA, add(CFA_XSP16, literal(-15)))
          CFI (cfiCond62) VB load(1, XDATA, add(CFA_XSP16, literal(-14)))
          CFI (cfiCond62) V0 load(1, XDATA, add(CFA_XSP16, literal(-13)))
          CFI (cfiCond62) V1 load(1, XDATA, add(CFA_XSP16, literal(-12)))
          CFI (cfiCond62) V2 load(1, XDATA, add(CFA_XSP16, literal(-11)))
          CFI (cfiCond62) V3 load(1, XDATA, add(CFA_XSP16, literal(-10)))
          CFI (cfiCond62) V4 load(1, XDATA, add(CFA_XSP16, literal(-9)))
          CFI (cfiCond62) V5 load(1, XDATA, add(CFA_XSP16, literal(-8)))
          CFI (cfiCond62) V6 load(1, XDATA, add(CFA_XSP16, literal(-7)))
          CFI (cfiCond62) R7 load(1, XDATA, add(CFA_XSP16, literal(-6)))
          CFI (cfiCond62) ?RET_LOW load(1, XDATA, add(CFA_XSP16, literal(-5)))
          CFI (cfiCond62) ?RET_HIGH load(1, XDATA, add(CFA_XSP16, literal(-4)))
          CFI (cfiCond62) ?BRET_EXT load(1, XDATA, add(CFA_XSP16, literal(-3)))
          CFI (cfiCond62) DPL0 load(1, XDATA, add(CFA_XSP16, literal(-2)))
          CFI (cfiCond62) DPH0 load(1, XDATA, add(CFA_XSP16, literal(-1)))
          CFI (cfiCond62) CFA_SP SP+-2
          CFI (cfiCond62) CFA_XSP16 add(XSP16, 28)
          CFI Block cfiPicker63 Using cfiCommon1
          CFI (cfiPicker63) NoFunction
          CFI (cfiPicker63) Picker
        LCALL     ?Subroutine47 & 0xFFFF
??CrossCallReturnLabel_82:
        RET
          CFI EndBlock cfiCond61
          CFI EndBlock cfiCond62
          CFI EndBlock cfiPicker63

        RSEG BANKED_CODE:HUGECODE:NOROOT(0)
?Subroutine47:
          CFI Block cfiCond64 Using cfiCommon0
          CFI Function afReflectError
          CFI Conditional ??CrossCallReturnLabel_82, ??CrossCallReturnLabel_41
          CFI R6 load(1, XDATA, add(CFA_XSP16, literal(-16)))
          CFI VB load(1, XDATA, add(CFA_XSP16, literal(-15)))
          CFI V0 load(1, XDATA, add(CFA_XSP16, literal(-14)))
          CFI V1 load(1, XDATA, add(CFA_XSP16, literal(-13)))
          CFI V2 load(1, XDATA, add(CFA_XSP16, literal(-12)))
          CFI V3 load(1, XDATA, add(CFA_XSP16, literal(-11)))
          CFI V4 load(1, XDATA, add(CFA_XSP16, literal(-10)))
          CFI V5 load(1, XDATA, add(CFA_XSP16, literal(-9)))
          CFI V6 load(1, XDATA, add(CFA_XSP16, literal(-8)))
          CFI V7 load(1, XDATA, add(CFA_XSP16, literal(-7)))
          CFI R7 load(1, XDATA, add(CFA_XSP16, literal(-6)))
          CFI ?RET_LOW load(1, XDATA, add(CFA_XSP16, literal(-5)))
          CFI ?RET_HIGH load(1, XDATA, add(CFA_XSP16, literal(-4)))
          CFI ?BRET_EXT load(1, XDATA, add(CFA_XSP16, literal(-3)))
          CFI DPL0 load(1, XDATA, add(CFA_XSP16, literal(-2)))
          CFI DPH0 load(1, XDATA, add(CFA_XSP16, literal(-1)))
          CFI CFA_SP SP+-4
          CFI CFA_XSP16 add(XSP16, 16)
          CFI Block cfiCond65 Using cfiCommon0
          CFI (cfiCond65) Function afIncomingData
          CFI (cfiCond65) Conditional ??CrossCallReturnLabel_82, ??CrossCallReturnLabel_42
          CFI (cfiCond65) R6 load(1, XDATA, add(CFA_XSP16, literal(-15)))
          CFI (cfiCond65) VB load(1, XDATA, add(CFA_XSP16, literal(-14)))
          CFI (cfiCond65) V0 load(1, XDATA, add(CFA_XSP16, literal(-13)))
          CFI (cfiCond65) V1 load(1, XDATA, add(CFA_XSP16, literal(-12)))
          CFI (cfiCond65) V2 load(1, XDATA, add(CFA_XSP16, literal(-11)))
          CFI (cfiCond65) V3 load(1, XDATA, add(CFA_XSP16, literal(-10)))
          CFI (cfiCond65) V4 load(1, XDATA, add(CFA_XSP16, literal(-9)))
          CFI (cfiCond65) V5 load(1, XDATA, add(CFA_XSP16, literal(-8)))
          CFI (cfiCond65) V6 load(1, XDATA, add(CFA_XSP16, literal(-7)))
          CFI (cfiCond65) R7 load(1, XDATA, add(CFA_XSP16, literal(-6)))
          CFI (cfiCond65) ?RET_LOW load(1, XDATA, add(CFA_XSP16, literal(-5)))
          CFI (cfiCond65) ?RET_HIGH load(1, XDATA, add(CFA_XSP16, literal(-4)))
          CFI (cfiCond65) ?BRET_EXT load(1, XDATA, add(CFA_XSP16, literal(-3)))
          CFI (cfiCond65) DPL0 load(1, XDATA, add(CFA_XSP16, literal(-2)))
          CFI (cfiCond65) DPH0 load(1, XDATA, add(CFA_XSP16, literal(-1)))
          CFI (cfiCond65) CFA_SP SP+-4
          CFI (cfiCond65) CFA_XSP16 add(XSP16, 28)
          CFI Block cfiCond66 Using cfiCommon0
          CFI (cfiCond66) Function afIncomingData
          CFI (cfiCond66) Conditional ??CrossCallReturnLabel_81, ??CrossCallReturnLabel_32
          CFI (cfiCond66) R6 load(1, XDATA, add(CFA_XSP16, literal(-15)))
          CFI (cfiCond66) VB load(1, XDATA, add(CFA_XSP16, literal(-14)))
          CFI (cfiCond66) V0 load(1, XDATA, add(CFA_XSP16, literal(-13)))
          CFI (cfiCond66) V1 load(1, XDATA, add(CFA_XSP16, literal(-12)))
          CFI (cfiCond66) V2 load(1, XDATA, add(CFA_XSP16, literal(-11)))
          CFI (cfiCond66) V3 load(1, XDATA, add(CFA_XSP16, literal(-10)))
          CFI (cfiCond66) V4 load(1, XDATA, add(CFA_XSP16, literal(-9)))
          CFI (cfiCond66) V5 load(1, XDATA, add(CFA_XSP16, literal(-8)))
          CFI (cfiCond66) V6 load(1, XDATA, add(CFA_XSP16, literal(-7)))
          CFI (cfiCond66) R7 load(1, XDATA, add(CFA_XSP16, literal(-6)))
          CFI (cfiCond66) ?RET_LOW load(1, XDATA, add(CFA_XSP16, literal(-5)))
          CFI (cfiCond66) ?RET_HIGH load(1, XDATA, add(CFA_XSP16, literal(-4)))
          CFI (cfiCond66) ?BRET_EXT load(1, XDATA, add(CFA_XSP16, literal(-3)))
          CFI (cfiCond66) DPL0 load(1, XDATA, add(CFA_XSP16, literal(-2)))
          CFI (cfiCond66) DPH0 load(1, XDATA, add(CFA_XSP16, literal(-1)))
          CFI (cfiCond66) CFA_SP SP+-4
          CFI (cfiCond66) CFA_XSP16 add(XSP16, 28)
          CFI Block cfiCond67 Using cfiCommon0
          CFI (cfiCond67) Function afIncomingData
          CFI (cfiCond67) Conditional ??CrossCallReturnLabel_81, ??CrossCallReturnLabel_33
          CFI (cfiCond67) R6 load(1, XDATA, add(CFA_XSP16, literal(-15)))
          CFI (cfiCond67) VB load(1, XDATA, add(CFA_XSP16, literal(-14)))
          CFI (cfiCond67) V0 load(1, XDATA, add(CFA_XSP16, literal(-13)))
          CFI (cfiCond67) V1 load(1, XDATA, add(CFA_XSP16, literal(-12)))
          CFI (cfiCond67) V2 load(1, XDATA, add(CFA_XSP16, literal(-11)))
          CFI (cfiCond67) V3 load(1, XDATA, add(CFA_XSP16, literal(-10)))
          CFI (cfiCond67) V4 load(1, XDATA, add(CFA_XSP16, literal(-9)))
          CFI (cfiCond67) V5 load(1, XDATA, add(CFA_XSP16, literal(-8)))
          CFI (cfiCond67) V6 load(1, XDATA, add(CFA_XSP16, literal(-7)))
          CFI (cfiCond67) R7 load(1, XDATA, add(CFA_XSP16, literal(-6)))
          CFI (cfiCond67) ?RET_LOW load(1, XDATA, add(CFA_XSP16, literal(-5)))
          CFI (cfiCond67) ?RET_HIGH load(1, XDATA, add(CFA_XSP16, literal(-4)))
          CFI (cfiCond67) ?BRET_EXT load(1, XDATA, add(CFA_XSP16, literal(-3)))
          CFI (cfiCond67) DPL0 load(1, XDATA, add(CFA_XSP16, literal(-2)))
          CFI (cfiCond67) DPH0 load(1, XDATA, add(CFA_XSP16, literal(-1)))
          CFI (cfiCond67) CFA_SP SP+-4
          CFI (cfiCond67) CFA_XSP16 add(XSP16, 28)
          CFI Block cfiPicker68 Using cfiCommon1
          CFI (cfiPicker68) NoFunction
          CFI (cfiPicker68) Picker
        MOVX      A,@DPTR
        MOV       DPL,R2
        MOV       DPH,R3
        INC       DPTR
        INC       DPTR
        INC       DPTR
        RET
          CFI EndBlock cfiCond64
          CFI EndBlock cfiCond65
          CFI EndBlock cfiCond66
          CFI EndBlock cfiCond67
          CFI EndBlock cfiPicker68

        RSEG BANKED_CODE:HUGECODE:NOROOT(0)
?Subroutine24:
          CFI Block cfiCond69 Using cfiCommon0
          CFI Function afIncomingData
          CFI Conditional ??CrossCallReturnLabel_97
          CFI R6 load(1, XDATA, add(CFA_XSP16, literal(-15)))
          CFI VB load(1, XDATA, add(CFA_XSP16, literal(-14)))
          CFI V0 load(1, XDATA, add(CFA_XSP16, literal(-13)))
          CFI V1 load(1, XDATA, add(CFA_XSP16, literal(-12)))
          CFI V2 load(1, XDATA, add(CFA_XSP16, literal(-11)))
          CFI V3 load(1, XDATA, add(CFA_XSP16, literal(-10)))
          CFI V4 load(1, XDATA, add(CFA_XSP16, literal(-9)))
          CFI V5 load(1, XDATA, add(CFA_XSP16, literal(-8)))
          CFI V6 load(1, XDATA, add(CFA_XSP16, literal(-7)))
          CFI R7 load(1, XDATA, add(CFA_XSP16, literal(-6)))
          CFI ?RET_LOW load(1, XDATA, add(CFA_XSP16, literal(-5)))
          CFI ?RET_HIGH load(1, XDATA, add(CFA_XSP16, literal(-4)))
          CFI ?BRET_EXT load(1, XDATA, add(CFA_XSP16, literal(-3)))
          CFI DPL0 load(1, XDATA, add(CFA_XSP16, literal(-2)))
          CFI DPH0 load(1, XDATA, add(CFA_XSP16, literal(-1)))
          CFI CFA_SP SP+-2
          CFI CFA_XSP16 add(XSP16, 28)
          CFI Block cfiCond70 Using cfiCommon0
          CFI (cfiCond70) Function afIncomingData
          CFI (cfiCond70) Conditional ??CrossCallReturnLabel_98
          CFI (cfiCond70) R6 load(1, XDATA, add(CFA_XSP16, literal(-15)))
          CFI (cfiCond70) VB load(1, XDATA, add(CFA_XSP16, literal(-14)))
          CFI (cfiCond70) V0 load(1, XDATA, add(CFA_XSP16, literal(-13)))
          CFI (cfiCond70) V1 load(1, XDATA, add(CFA_XSP16, literal(-12)))
          CFI (cfiCond70) V2 load(1, XDATA, add(CFA_XSP16, literal(-11)))
          CFI (cfiCond70) V3 load(1, XDATA, add(CFA_XSP16, literal(-10)))
          CFI (cfiCond70) V4 load(1, XDATA, add(CFA_XSP16, literal(-9)))
          CFI (cfiCond70) V5 load(1, XDATA, add(CFA_XSP16, literal(-8)))
          CFI (cfiCond70) V6 load(1, XDATA, add(CFA_XSP16, literal(-7)))
          CFI (cfiCond70) R7 load(1, XDATA, add(CFA_XSP16, literal(-6)))
          CFI (cfiCond70) ?RET_LOW load(1, XDATA, add(CFA_XSP16, literal(-5)))
          CFI (cfiCond70) ?RET_HIGH load(1, XDATA, add(CFA_XSP16, literal(-4)))
          CFI (cfiCond70) ?BRET_EXT load(1, XDATA, add(CFA_XSP16, literal(-3)))
          CFI (cfiCond70) DPL0 load(1, XDATA, add(CFA_XSP16, literal(-2)))
          CFI (cfiCond70) DPH0 load(1, XDATA, add(CFA_XSP16, literal(-1)))
          CFI (cfiCond70) CFA_SP SP+-2
          CFI (cfiCond70) CFA_XSP16 add(XSP16, 28)
          CFI Block cfiPicker71 Using cfiCommon1
          CFI (cfiPicker71) NoFunction
          CFI (cfiPicker71) Picker
        MOVX      A,@DPTR
        MOV       R0,A
          CFI EndBlock cfiCond69
          CFI EndBlock cfiCond70
          CFI EndBlock cfiPicker71
        REQUIRE ??Subroutine51_0
        ; // Fall through to label ??Subroutine51_0

        RSEG BANKED_CODE:HUGECODE:NOROOT(0)
??Subroutine51_0:
          CFI Block cfiCond72 Using cfiCommon0
          CFI Function afIncomingData
          CFI Conditional ??CrossCallReturnLabel_96
          CFI R6 load(1, XDATA, add(CFA_XSP16, literal(-15)))
          CFI VB load(1, XDATA, add(CFA_XSP16, literal(-14)))
          CFI V0 load(1, XDATA, add(CFA_XSP16, literal(-13)))
          CFI V1 load(1, XDATA, add(CFA_XSP16, literal(-12)))
          CFI V2 load(1, XDATA, add(CFA_XSP16, literal(-11)))
          CFI V3 load(1, XDATA, add(CFA_XSP16, literal(-10)))
          CFI V4 load(1, XDATA, add(CFA_XSP16, literal(-9)))
          CFI V5 load(1, XDATA, add(CFA_XSP16, literal(-8)))
          CFI V6 load(1, XDATA, add(CFA_XSP16, literal(-7)))
          CFI R7 load(1, XDATA, add(CFA_XSP16, literal(-6)))
          CFI ?RET_LOW load(1, XDATA, add(CFA_XSP16, literal(-5)))
          CFI ?RET_HIGH load(1, XDATA, add(CFA_XSP16, literal(-4)))
          CFI ?BRET_EXT load(1, XDATA, add(CFA_XSP16, literal(-3)))
          CFI DPL0 load(1, XDATA, add(CFA_XSP16, literal(-2)))
          CFI DPH0 load(1, XDATA, add(CFA_XSP16, literal(-1)))
          CFI CFA_SP SP+-2
          CFI CFA_XSP16 add(XSP16, 28)
          CFI Block cfiCond73 Using cfiCommon0
          CFI (cfiCond73) Function afIncomingData
          CFI (cfiCond73) Conditional ??CrossCallReturnLabel_97
          CFI (cfiCond73) R6 load(1, XDATA, add(CFA_XSP16, literal(-15)))
          CFI (cfiCond73) VB load(1, XDATA, add(CFA_XSP16, literal(-14)))
          CFI (cfiCond73) V0 load(1, XDATA, add(CFA_XSP16, literal(-13)))
          CFI (cfiCond73) V1 load(1, XDATA, add(CFA_XSP16, literal(-12)))
          CFI (cfiCond73) V2 load(1, XDATA, add(CFA_XSP16, literal(-11)))
          CFI (cfiCond73) V3 load(1, XDATA, add(CFA_XSP16, literal(-10)))
          CFI (cfiCond73) V4 load(1, XDATA, add(CFA_XSP16, literal(-9)))
          CFI (cfiCond73) V5 load(1, XDATA, add(CFA_XSP16, literal(-8)))
          CFI (cfiCond73) V6 load(1, XDATA, add(CFA_XSP16, literal(-7)))
          CFI (cfiCond73) R7 load(1, XDATA, add(CFA_XSP16, literal(-6)))
          CFI (cfiCond73) ?RET_LOW load(1, XDATA, add(CFA_XSP16, literal(-5)))
          CFI (cfiCond73) ?RET_HIGH load(1, XDATA, add(CFA_XSP16, literal(-4)))
          CFI (cfiCond73) ?BRET_EXT load(1, XDATA, add(CFA_XSP16, literal(-3)))
          CFI (cfiCond73) DPL0 load(1, XDATA, add(CFA_XSP16, literal(-2)))
          CFI (cfiCond73) DPH0 load(1, XDATA, add(CFA_XSP16, literal(-1)))
          CFI (cfiCond73) CFA_SP SP+-2
          CFI (cfiCond73) CFA_XSP16 add(XSP16, 28)
          CFI Block cfiCond74 Using cfiCommon0
          CFI (cfiCond74) Function afIncomingData
          CFI (cfiCond74) Conditional ??CrossCallReturnLabel_98
          CFI (cfiCond74) R6 load(1, XDATA, add(CFA_XSP16, literal(-15)))
          CFI (cfiCond74) VB load(1, XDATA, add(CFA_XSP16, literal(-14)))
          CFI (cfiCond74) V0 load(1, XDATA, add(CFA_XSP16, literal(-13)))
          CFI (cfiCond74) V1 load(1, XDATA, add(CFA_XSP16, literal(-12)))
          CFI (cfiCond74) V2 load(1, XDATA, add(CFA_XSP16, literal(-11)))
          CFI (cfiCond74) V3 load(1, XDATA, add(CFA_XSP16, literal(-10)))
          CFI (cfiCond74) V4 load(1, XDATA, add(CFA_XSP16, literal(-9)))
          CFI (cfiCond74) V5 load(1, XDATA, add(CFA_XSP16, literal(-8)))
          CFI (cfiCond74) V6 load(1, XDATA, add(CFA_XSP16, literal(-7)))
          CFI (cfiCond74) R7 load(1, XDATA, add(CFA_XSP16, literal(-6)))
          CFI (cfiCond74) ?RET_LOW load(1, XDATA, add(CFA_XSP16, literal(-5)))
          CFI (cfiCond74) ?RET_HIGH load(1, XDATA, add(CFA_XSP16, literal(-4)))
          CFI (cfiCond74) ?BRET_EXT load(1, XDATA, add(CFA_XSP16, literal(-3)))
          CFI (cfiCond74) DPL0 load(1, XDATA, add(CFA_XSP16, literal(-2)))
          CFI (cfiCond74) DPH0 load(1, XDATA, add(CFA_XSP16, literal(-1)))
          CFI (cfiCond74) CFA_SP SP+-2
          CFI (cfiCond74) CFA_XSP16 add(XSP16, 28)
          CFI Block cfiPicker75 Using cfiCommon1
          CFI (cfiPicker75) NoFunction
          CFI (cfiPicker75) Picker
        INC       DPTR
          CFI EndBlock cfiCond72
          CFI EndBlock cfiCond73
          CFI EndBlock cfiCond74
          CFI EndBlock cfiPicker75
        REQUIRE ??Subroutine52_0
        ; // Fall through to label ??Subroutine52_0

        RSEG BANKED_CODE:HUGECODE:NOROOT(0)
??Subroutine52_0:
          CFI Block cfiCond76 Using cfiCommon0
          CFI Function AF_DataRequest
          CFI Conditional ??CrossCallReturnLabel_95
          CFI R6 load(1, XDATA, add(CFA_XSP16, literal(-16)))
          CFI VB load(1, XDATA, add(CFA_XSP16, literal(-15)))
          CFI V0 load(1, XDATA, add(CFA_XSP16, literal(-14)))
          CFI V1 load(1, XDATA, add(CFA_XSP16, literal(-13)))
          CFI V2 load(1, XDATA, add(CFA_XSP16, literal(-12)))
          CFI V3 load(1, XDATA, add(CFA_XSP16, literal(-11)))
          CFI V4 load(1, XDATA, add(CFA_XSP16, literal(-10)))
          CFI V5 load(1, XDATA, add(CFA_XSP16, literal(-9)))
          CFI V6 load(1, XDATA, add(CFA_XSP16, literal(-8)))
          CFI V7 load(1, XDATA, add(CFA_XSP16, literal(-7)))
          CFI R7 load(1, XDATA, add(CFA_XSP16, literal(-6)))
          CFI ?RET_LOW load(1, XDATA, add(CFA_XSP16, literal(-5)))
          CFI ?RET_HIGH load(1, XDATA, add(CFA_XSP16, literal(-4)))
          CFI ?BRET_EXT load(1, XDATA, add(CFA_XSP16, literal(-3)))
          CFI DPL0 load(1, XDATA, add(CFA_XSP16, literal(-2)))
          CFI DPH0 load(1, XDATA, add(CFA_XSP16, literal(-1)))
          CFI CFA_SP SP+-2
          CFI CFA_XSP16 add(XSP16, 49)
          CFI Block cfiCond77 Using cfiCommon0
          CFI (cfiCond77) Function afIncomingData
          CFI (cfiCond77) Conditional ??CrossCallReturnLabel_96
          CFI (cfiCond77) R6 load(1, XDATA, add(CFA_XSP16, literal(-15)))
          CFI (cfiCond77) VB load(1, XDATA, add(CFA_XSP16, literal(-14)))
          CFI (cfiCond77) V0 load(1, XDATA, add(CFA_XSP16, literal(-13)))
          CFI (cfiCond77) V1 load(1, XDATA, add(CFA_XSP16, literal(-12)))
          CFI (cfiCond77) V2 load(1, XDATA, add(CFA_XSP16, literal(-11)))
          CFI (cfiCond77) V3 load(1, XDATA, add(CFA_XSP16, literal(-10)))
          CFI (cfiCond77) V4 load(1, XDATA, add(CFA_XSP16, literal(-9)))
          CFI (cfiCond77) V5 load(1, XDATA, add(CFA_XSP16, literal(-8)))
          CFI (cfiCond77) V6 load(1, XDATA, add(CFA_XSP16, literal(-7)))
          CFI (cfiCond77) R7 load(1, XDATA, add(CFA_XSP16, literal(-6)))
          CFI (cfiCond77) ?RET_LOW load(1, XDATA, add(CFA_XSP16, literal(-5)))
          CFI (cfiCond77) ?RET_HIGH load(1, XDATA, add(CFA_XSP16, literal(-4)))
          CFI (cfiCond77) ?BRET_EXT load(1, XDATA, add(CFA_XSP16, literal(-3)))
          CFI (cfiCond77) DPL0 load(1, XDATA, add(CFA_XSP16, literal(-2)))
          CFI (cfiCond77) DPH0 load(1, XDATA, add(CFA_XSP16, literal(-1)))
          CFI (cfiCond77) CFA_SP SP+-2
          CFI (cfiCond77) CFA_XSP16 add(XSP16, 28)
          CFI Block cfiCond78 Using cfiCommon0
          CFI (cfiCond78) Function afIncomingData
          CFI (cfiCond78) Conditional ??CrossCallReturnLabel_97
          CFI (cfiCond78) R6 load(1, XDATA, add(CFA_XSP16, literal(-15)))
          CFI (cfiCond78) VB load(1, XDATA, add(CFA_XSP16, literal(-14)))
          CFI (cfiCond78) V0 load(1, XDATA, add(CFA_XSP16, literal(-13)))
          CFI (cfiCond78) V1 load(1, XDATA, add(CFA_XSP16, literal(-12)))
          CFI (cfiCond78) V2 load(1, XDATA, add(CFA_XSP16, literal(-11)))
          CFI (cfiCond78) V3 load(1, XDATA, add(CFA_XSP16, literal(-10)))
          CFI (cfiCond78) V4 load(1, XDATA, add(CFA_XSP16, literal(-9)))
          CFI (cfiCond78) V5 load(1, XDATA, add(CFA_XSP16, literal(-8)))
          CFI (cfiCond78) V6 load(1, XDATA, add(CFA_XSP16, literal(-7)))
          CFI (cfiCond78) R7 load(1, XDATA, add(CFA_XSP16, literal(-6)))
          CFI (cfiCond78) ?RET_LOW load(1, XDATA, add(CFA_XSP16, literal(-5)))
          CFI (cfiCond78) ?RET_HIGH load(1, XDATA, add(CFA_XSP16, literal(-4)))
          CFI (cfiCond78) ?BRET_EXT load(1, XDATA, add(CFA_XSP16, literal(-3)))
          CFI (cfiCond78) DPL0 load(1, XDATA, add(CFA_XSP16, literal(-2)))
          CFI (cfiCond78) DPH0 load(1, XDATA, add(CFA_XSP16, literal(-1)))
          CFI (cfiCond78) CFA_SP SP+-2
          CFI (cfiCond78) CFA_XSP16 add(XSP16, 28)
          CFI Block cfiCond79 Using cfiCommon0
          CFI (cfiCond79) Function afIncomingData
          CFI (cfiCond79) Conditional ??CrossCallReturnLabel_98
          CFI (cfiCond79) R6 load(1, XDATA, add(CFA_XSP16, literal(-15)))
          CFI (cfiCond79) VB load(1, XDATA, add(CFA_XSP16, literal(-14)))
          CFI (cfiCond79) V0 load(1, XDATA, add(CFA_XSP16, literal(-13)))
          CFI (cfiCond79) V1 load(1, XDATA, add(CFA_XSP16, literal(-12)))
          CFI (cfiCond79) V2 load(1, XDATA, add(CFA_XSP16, literal(-11)))
          CFI (cfiCond79) V3 load(1, XDATA, add(CFA_XSP16, literal(-10)))
          CFI (cfiCond79) V4 load(1, XDATA, add(CFA_XSP16, literal(-9)))
          CFI (cfiCond79) V5 load(1, XDATA, add(CFA_XSP16, literal(-8)))
          CFI (cfiCond79) V6 load(1, XDATA, add(CFA_XSP16, literal(-7)))
          CFI (cfiCond79) R7 load(1, XDATA, add(CFA_XSP16, literal(-6)))
          CFI (cfiCond79) ?RET_LOW load(1, XDATA, add(CFA_XSP16, literal(-5)))
          CFI (cfiCond79) ?RET_HIGH load(1, XDATA, add(CFA_XSP16, literal(-4)))
          CFI (cfiCond79) ?BRET_EXT load(1, XDATA, add(CFA_XSP16, literal(-3)))
          CFI (cfiCond79) DPL0 load(1, XDATA, add(CFA_XSP16, literal(-2)))
          CFI (cfiCond79) DPH0 load(1, XDATA, add(CFA_XSP16, literal(-1)))
          CFI (cfiCond79) CFA_SP SP+-2
          CFI (cfiCond79) CFA_XSP16 add(XSP16, 28)
          CFI Block cfiPicker80 Using cfiCommon1
          CFI (cfiPicker80) NoFunction
          CFI (cfiPicker80) Picker
        LCALL     ??Subroutine60_0 & 0xFFFF
??CrossCallReturnLabel_134:
        RET
          CFI EndBlock cfiCond76
          CFI EndBlock cfiCond77
          CFI EndBlock cfiCond78
          CFI EndBlock cfiCond79
          CFI EndBlock cfiPicker80

        RSEG BANKED_CODE:HUGECODE:NOROOT(0)
?Subroutine20:
          CFI Block cfiCond81 Using cfiCommon0
          CFI Function afIncomingData
          CFI Conditional ??CrossCallReturnLabel_34
          CFI R6 load(1, XDATA, add(CFA_XSP16, literal(-15)))
          CFI VB load(1, XDATA, add(CFA_XSP16, literal(-14)))
          CFI V0 load(1, XDATA, add(CFA_XSP16, literal(-13)))
          CFI V1 load(1, XDATA, add(CFA_XSP16, literal(-12)))
          CFI V2 load(1, XDATA, add(CFA_XSP16, literal(-11)))
          CFI V3 load(1, XDATA, add(CFA_XSP16, literal(-10)))
          CFI V4 load(1, XDATA, add(CFA_XSP16, literal(-9)))
          CFI V5 load(1, XDATA, add(CFA_XSP16, literal(-8)))
          CFI V6 load(1, XDATA, add(CFA_XSP16, literal(-7)))
          CFI R7 load(1, XDATA, add(CFA_XSP16, literal(-6)))
          CFI ?RET_LOW load(1, XDATA, add(CFA_XSP16, literal(-5)))
          CFI ?RET_HIGH load(1, XDATA, add(CFA_XSP16, literal(-4)))
          CFI ?BRET_EXT load(1, XDATA, add(CFA_XSP16, literal(-3)))
          CFI DPL0 load(1, XDATA, add(CFA_XSP16, literal(-2)))
          CFI DPH0 load(1, XDATA, add(CFA_XSP16, literal(-1)))
          CFI CFA_SP SP+-2
          CFI CFA_XSP16 add(XSP16, 28)
          CFI Block cfiCond82 Using cfiCommon0
          CFI (cfiCond82) Function afIncomingData
          CFI (cfiCond82) Conditional ??CrossCallReturnLabel_35
          CFI (cfiCond82) R6 load(1, XDATA, add(CFA_XSP16, literal(-15)))
          CFI (cfiCond82) VB load(1, XDATA, add(CFA_XSP16, literal(-14)))
          CFI (cfiCond82) V0 load(1, XDATA, add(CFA_XSP16, literal(-13)))
          CFI (cfiCond82) V1 load(1, XDATA, add(CFA_XSP16, literal(-12)))
          CFI (cfiCond82) V2 load(1, XDATA, add(CFA_XSP16, literal(-11)))
          CFI (cfiCond82) V3 load(1, XDATA, add(CFA_XSP16, literal(-10)))
          CFI (cfiCond82) V4 load(1, XDATA, add(CFA_XSP16, literal(-9)))
          CFI (cfiCond82) V5 load(1, XDATA, add(CFA_XSP16, literal(-8)))
          CFI (cfiCond82) V6 load(1, XDATA, add(CFA_XSP16, literal(-7)))
          CFI (cfiCond82) R7 load(1, XDATA, add(CFA_XSP16, literal(-6)))
          CFI (cfiCond82) ?RET_LOW load(1, XDATA, add(CFA_XSP16, literal(-5)))
          CFI (cfiCond82) ?RET_HIGH load(1, XDATA, add(CFA_XSP16, literal(-4)))
          CFI (cfiCond82) ?BRET_EXT load(1, XDATA, add(CFA_XSP16, literal(-3)))
          CFI (cfiCond82) DPL0 load(1, XDATA, add(CFA_XSP16, literal(-2)))
          CFI (cfiCond82) DPH0 load(1, XDATA, add(CFA_XSP16, literal(-1)))
          CFI (cfiCond82) CFA_SP SP+-2
          CFI (cfiCond82) CFA_XSP16 add(XSP16, 28)
          CFI Block cfiPicker83 Using cfiCommon1
          CFI (cfiPicker83) NoFunction
          CFI (cfiPicker83) Picker
        LCALL     ??Subroutine53_0 & 0xFFFF
??CrossCallReturnLabel_99:
        INC       DPTR
        MOVX      A,@DPTR
        MOV       R6,A
        INC       DPTR
        MOVX      A,@DPTR
        MOV       R7,A
        RET
          CFI EndBlock cfiCond81
          CFI EndBlock cfiCond82
          CFI EndBlock cfiPicker83

        RSEG BANKED_CODE:HUGECODE:NOROOT(0)
?Subroutine19:
          CFI Block cfiCond84 Using cfiCommon0
          CFI Function afIncomingData
          CFI Conditional ??CrossCallReturnLabel_32
          CFI R6 load(1, XDATA, add(CFA_XSP16, literal(-15)))
          CFI VB load(1, XDATA, add(CFA_XSP16, literal(-14)))
          CFI V0 load(1, XDATA, add(CFA_XSP16, literal(-13)))
          CFI V1 load(1, XDATA, add(CFA_XSP16, literal(-12)))
          CFI V2 load(1, XDATA, add(CFA_XSP16, literal(-11)))
          CFI V3 load(1, XDATA, add(CFA_XSP16, literal(-10)))
          CFI V4 load(1, XDATA, add(CFA_XSP16, literal(-9)))
          CFI V5 load(1, XDATA, add(CFA_XSP16, literal(-8)))
          CFI V6 load(1, XDATA, add(CFA_XSP16, literal(-7)))
          CFI R7 load(1, XDATA, add(CFA_XSP16, literal(-6)))
          CFI ?RET_LOW load(1, XDATA, add(CFA_XSP16, literal(-5)))
          CFI ?RET_HIGH load(1, XDATA, add(CFA_XSP16, literal(-4)))
          CFI ?BRET_EXT load(1, XDATA, add(CFA_XSP16, literal(-3)))
          CFI DPL0 load(1, XDATA, add(CFA_XSP16, literal(-2)))
          CFI DPH0 load(1, XDATA, add(CFA_XSP16, literal(-1)))
          CFI CFA_SP SP+-2
          CFI CFA_XSP16 add(XSP16, 28)
          CFI Block cfiCond85 Using cfiCommon0
          CFI (cfiCond85) Function afIncomingData
          CFI (cfiCond85) Conditional ??CrossCallReturnLabel_33
          CFI (cfiCond85) R6 load(1, XDATA, add(CFA_XSP16, literal(-15)))
          CFI (cfiCond85) VB load(1, XDATA, add(CFA_XSP16, literal(-14)))
          CFI (cfiCond85) V0 load(1, XDATA, add(CFA_XSP16, literal(-13)))
          CFI (cfiCond85) V1 load(1, XDATA, add(CFA_XSP16, literal(-12)))
          CFI (cfiCond85) V2 load(1, XDATA, add(CFA_XSP16, literal(-11)))
          CFI (cfiCond85) V3 load(1, XDATA, add(CFA_XSP16, literal(-10)))
          CFI (cfiCond85) V4 load(1, XDATA, add(CFA_XSP16, literal(-9)))
          CFI (cfiCond85) V5 load(1, XDATA, add(CFA_XSP16, literal(-8)))
          CFI (cfiCond85) V6 load(1, XDATA, add(CFA_XSP16, literal(-7)))
          CFI (cfiCond85) R7 load(1, XDATA, add(CFA_XSP16, literal(-6)))
          CFI (cfiCond85) ?RET_LOW load(1, XDATA, add(CFA_XSP16, literal(-5)))
          CFI (cfiCond85) ?RET_HIGH load(1, XDATA, add(CFA_XSP16, literal(-4)))
          CFI (cfiCond85) ?BRET_EXT load(1, XDATA, add(CFA_XSP16, literal(-3)))
          CFI (cfiCond85) DPL0 load(1, XDATA, add(CFA_XSP16, literal(-2)))
          CFI (cfiCond85) DPH0 load(1, XDATA, add(CFA_XSP16, literal(-1)))
          CFI (cfiCond85) CFA_SP SP+-2
          CFI (cfiCond85) CFA_XSP16 add(XSP16, 28)
          CFI Block cfiPicker86 Using cfiCommon1
          CFI (cfiPicker86) NoFunction
          CFI (cfiPicker86) Picker
        LCALL     ?Subroutine47 & 0xFFFF
??CrossCallReturnLabel_81:
        INC       DPTR
        INC       DPTR
        INC       DPTR
        INC       DPTR
        INC       DPTR
        RET
          CFI EndBlock cfiCond84
          CFI EndBlock cfiCond85
          CFI EndBlock cfiPicker86

        RSEG BANKED_CODE:HUGECODE:NOROOT(0)
?Subroutine17:
          CFI Block cfiCond87 Using cfiCommon0
          CFI Function afIncomingData
          CFI Conditional ??CrossCallReturnLabel_22
          CFI R6 load(1, XDATA, add(CFA_XSP16, literal(-15)))
          CFI VB load(1, XDATA, add(CFA_XSP16, literal(-14)))
          CFI V0 load(1, XDATA, add(CFA_XSP16, literal(-13)))
          CFI V1 load(1, XDATA, add(CFA_XSP16, literal(-12)))
          CFI V2 load(1, XDATA, add(CFA_XSP16, literal(-11)))
          CFI V3 load(1, XDATA, add(CFA_XSP16, literal(-10)))
          CFI V4 load(1, XDATA, add(CFA_XSP16, literal(-9)))
          CFI V5 load(1, XDATA, add(CFA_XSP16, literal(-8)))
          CFI V6 load(1, XDATA, add(CFA_XSP16, literal(-7)))
          CFI R7 load(1, XDATA, add(CFA_XSP16, literal(-6)))
          CFI ?RET_LOW load(1, XDATA, add(CFA_XSP16, literal(-5)))
          CFI ?RET_HIGH load(1, XDATA, add(CFA_XSP16, literal(-4)))
          CFI ?BRET_EXT load(1, XDATA, add(CFA_XSP16, literal(-3)))
          CFI DPL0 load(1, XDATA, add(CFA_XSP16, literal(-2)))
          CFI DPH0 load(1, XDATA, add(CFA_XSP16, literal(-1)))
          CFI CFA_SP SP+-2
          CFI CFA_XSP16 add(XSP16, 28)
          CFI Block cfiCond88 Using cfiCommon0
          CFI (cfiCond88) Function afIncomingData
          CFI (cfiCond88) Conditional ??CrossCallReturnLabel_23
          CFI (cfiCond88) R6 load(1, XDATA, add(CFA_XSP16, literal(-15)))
          CFI (cfiCond88) VB load(1, XDATA, add(CFA_XSP16, literal(-14)))
          CFI (cfiCond88) V0 load(1, XDATA, add(CFA_XSP16, literal(-13)))
          CFI (cfiCond88) V1 load(1, XDATA, add(CFA_XSP16, literal(-12)))
          CFI (cfiCond88) V2 load(1, XDATA, add(CFA_XSP16, literal(-11)))
          CFI (cfiCond88) V3 load(1, XDATA, add(CFA_XSP16, literal(-10)))
          CFI (cfiCond88) V4 load(1, XDATA, add(CFA_XSP16, literal(-9)))
          CFI (cfiCond88) V5 load(1, XDATA, add(CFA_XSP16, literal(-8)))
          CFI (cfiCond88) V6 load(1, XDATA, add(CFA_XSP16, literal(-7)))
          CFI (cfiCond88) R7 load(1, XDATA, add(CFA_XSP16, literal(-6)))
          CFI (cfiCond88) ?RET_LOW load(1, XDATA, add(CFA_XSP16, literal(-5)))
          CFI (cfiCond88) ?RET_HIGH load(1, XDATA, add(CFA_XSP16, literal(-4)))
          CFI (cfiCond88) ?BRET_EXT load(1, XDATA, add(CFA_XSP16, literal(-3)))
          CFI (cfiCond88) DPL0 load(1, XDATA, add(CFA_XSP16, literal(-2)))
          CFI (cfiCond88) DPH0 load(1, XDATA, add(CFA_XSP16, literal(-1)))
          CFI (cfiCond88) CFA_SP SP+-2
          CFI (cfiCond88) CFA_XSP16 add(XSP16, 28)
          CFI Block cfiPicker89 Using cfiCommon1
          CFI (cfiPicker89) NoFunction
          CFI (cfiPicker89) Picker
        MOV       DPL,?XSP + 0
        MOV       DPH,?XSP + 1
        LCALL     ?Subroutine41 & 0xFFFF
??CrossCallReturnLabel_89:
        ANL       A,#0xc
        XRL       A,#0xc
        RET
          CFI EndBlock cfiCond87
          CFI EndBlock cfiCond88
          CFI EndBlock cfiPicker89

        RSEG BANKED_CODE:HUGECODE:NOROOT(0)
?Subroutine14:
          CFI Block cfiCond90 Using cfiCommon0
          CFI Function afRegisterExtended
          CFI Conditional ??CrossCallReturnLabel_15
          CFI R6 load(1, XDATA, add(CFA_XSP16, literal(-14)))
          CFI VB load(1, XDATA, add(CFA_XSP16, literal(-13)))
          CFI V0 load(1, XDATA, add(CFA_XSP16, literal(-12)))
          CFI V1 load(1, XDATA, add(CFA_XSP16, literal(-11)))
          CFI V2 load(1, XDATA, add(CFA_XSP16, literal(-10)))
          CFI V3 load(1, XDATA, add(CFA_XSP16, literal(-9)))
          CFI V4 load(1, XDATA, add(CFA_XSP16, literal(-8)))
          CFI V5 load(1, XDATA, add(CFA_XSP16, literal(-7)))
          CFI R7 load(1, XDATA, add(CFA_XSP16, literal(-6)))
          CFI ?RET_LOW load(1, XDATA, add(CFA_XSP16, literal(-5)))
          CFI ?RET_HIGH load(1, XDATA, add(CFA_XSP16, literal(-4)))
          CFI ?BRET_EXT load(1, XDATA, add(CFA_XSP16, literal(-3)))
          CFI DPL0 load(1, XDATA, add(CFA_XSP16, literal(-2)))
          CFI DPH0 load(1, XDATA, add(CFA_XSP16, literal(-1)))
          CFI CFA_SP SP+-2
          CFI CFA_XSP16 add(XSP16, 14)
          CFI Block cfiCond91 Using cfiCommon0
          CFI (cfiCond91) Function afIncomingData
          CFI (cfiCond91) Conditional ??CrossCallReturnLabel_16
          CFI (cfiCond91) R6 load(1, XDATA, add(CFA_XSP16, literal(-15)))
          CFI (cfiCond91) VB load(1, XDATA, add(CFA_XSP16, literal(-14)))
          CFI (cfiCond91) V0 load(1, XDATA, add(CFA_XSP16, literal(-13)))
          CFI (cfiCond91) V1 load(1, XDATA, add(CFA_XSP16, literal(-12)))
          CFI (cfiCond91) V2 load(1, XDATA, add(CFA_XSP16, literal(-11)))
          CFI (cfiCond91) V3 load(1, XDATA, add(CFA_XSP16, literal(-10)))
          CFI (cfiCond91) V4 load(1, XDATA, add(CFA_XSP16, literal(-9)))
          CFI (cfiCond91) V5 load(1, XDATA, add(CFA_XSP16, literal(-8)))
          CFI (cfiCond91) V6 load(1, XDATA, add(CFA_XSP16, literal(-7)))
          CFI (cfiCond91) R7 load(1, XDATA, add(CFA_XSP16, literal(-6)))
          CFI (cfiCond91) ?RET_LOW load(1, XDATA, add(CFA_XSP16, literal(-5)))
          CFI (cfiCond91) ?RET_HIGH load(1, XDATA, add(CFA_XSP16, literal(-4)))
          CFI (cfiCond91) ?BRET_EXT load(1, XDATA, add(CFA_XSP16, literal(-3)))
          CFI (cfiCond91) DPL0 load(1, XDATA, add(CFA_XSP16, literal(-2)))
          CFI (cfiCond91) DPH0 load(1, XDATA, add(CFA_XSP16, literal(-1)))
          CFI (cfiCond91) CFA_SP SP+-2
          CFI (cfiCond91) CFA_XSP16 add(XSP16, 28)
          CFI Block cfiCond92 Using cfiCommon0
          CFI (cfiCond92) Function afIncomingData
          CFI (cfiCond92) Conditional ??CrossCallReturnLabel_17
          CFI (cfiCond92) R6 load(1, XDATA, add(CFA_XSP16, literal(-15)))
          CFI (cfiCond92) VB load(1, XDATA, add(CFA_XSP16, literal(-14)))
          CFI (cfiCond92) V0 load(1, XDATA, add(CFA_XSP16, literal(-13)))
          CFI (cfiCond92) V1 load(1, XDATA, add(CFA_XSP16, literal(-12)))
          CFI (cfiCond92) V2 load(1, XDATA, add(CFA_XSP16, literal(-11)))
          CFI (cfiCond92) V3 load(1, XDATA, add(CFA_XSP16, literal(-10)))
          CFI (cfiCond92) V4 load(1, XDATA, add(CFA_XSP16, literal(-9)))
          CFI (cfiCond92) V5 load(1, XDATA, add(CFA_XSP16, literal(-8)))
          CFI (cfiCond92) V6 load(1, XDATA, add(CFA_XSP16, literal(-7)))
          CFI (cfiCond92) R7 load(1, XDATA, add(CFA_XSP16, literal(-6)))
          CFI (cfiCond92) ?RET_LOW load(1, XDATA, add(CFA_XSP16, literal(-5)))
          CFI (cfiCond92) ?RET_HIGH load(1, XDATA, add(CFA_XSP16, literal(-4)))
          CFI (cfiCond92) ?BRET_EXT load(1, XDATA, add(CFA_XSP16, literal(-3)))
          CFI (cfiCond92) DPL0 load(1, XDATA, add(CFA_XSP16, literal(-2)))
          CFI (cfiCond92) DPH0 load(1, XDATA, add(CFA_XSP16, literal(-1)))
          CFI (cfiCond92) CFA_SP SP+-2
          CFI (cfiCond92) CFA_XSP16 add(XSP16, 28)
          CFI Block cfiPicker93 Using cfiCommon1
          CFI (cfiPicker93) NoFunction
          CFI (cfiPicker93) Picker
        LCALL     ?Subroutine44 & 0xFFFF
??CrossCallReturnLabel_101:
        RET
          CFI EndBlock cfiCond90
          CFI EndBlock cfiCond91
          CFI EndBlock cfiCond92
          CFI EndBlock cfiPicker93

        RSEG BANKED_CODE:HUGECODE:NOROOT(0)
?Subroutine44:
          CFI Block cfiCond94 Using cfiCommon0
          CFI Function afRegisterExtended
          CFI Conditional ??CrossCallReturnLabel_101, ??CrossCallReturnLabel_15
          CFI R6 load(1, XDATA, add(CFA_XSP16, literal(-14)))
          CFI VB load(1, XDATA, add(CFA_XSP16, literal(-13)))
          CFI V0 load(1, XDATA, add(CFA_XSP16, literal(-12)))
          CFI V1 load(1, XDATA, add(CFA_XSP16, literal(-11)))
          CFI V2 load(1, XDATA, add(CFA_XSP16, literal(-10)))
          CFI V3 load(1, XDATA, add(CFA_XSP16, literal(-9)))
          CFI V4 load(1, XDATA, add(CFA_XSP16, literal(-8)))
          CFI V5 load(1, XDATA, add(CFA_XSP16, literal(-7)))
          CFI R7 load(1, XDATA, add(CFA_XSP16, literal(-6)))
          CFI ?RET_LOW load(1, XDATA, add(CFA_XSP16, literal(-5)))
          CFI ?RET_HIGH load(1, XDATA, add(CFA_XSP16, literal(-4)))
          CFI ?BRET_EXT load(1, XDATA, add(CFA_XSP16, literal(-3)))
          CFI DPL0 load(1, XDATA, add(CFA_XSP16, literal(-2)))
          CFI DPH0 load(1, XDATA, add(CFA_XSP16, literal(-1)))
          CFI CFA_SP SP+-4
          CFI CFA_XSP16 add(XSP16, 14)
          CFI Block cfiCond95 Using cfiCommon0
          CFI (cfiCond95) Function afIncomingData
          CFI (cfiCond95) Conditional ??CrossCallReturnLabel_101, ??CrossCallReturnLabel_16
          CFI (cfiCond95) R6 load(1, XDATA, add(CFA_XSP16, literal(-15)))
          CFI (cfiCond95) VB load(1, XDATA, add(CFA_XSP16, literal(-14)))
          CFI (cfiCond95) V0 load(1, XDATA, add(CFA_XSP16, literal(-13)))
          CFI (cfiCond95) V1 load(1, XDATA, add(CFA_XSP16, literal(-12)))
          CFI (cfiCond95) V2 load(1, XDATA, add(CFA_XSP16, literal(-11)))
          CFI (cfiCond95) V3 load(1, XDATA, add(CFA_XSP16, literal(-10)))
          CFI (cfiCond95) V4 load(1, XDATA, add(CFA_XSP16, literal(-9)))
          CFI (cfiCond95) V5 load(1, XDATA, add(CFA_XSP16, literal(-8)))
          CFI (cfiCond95) V6 load(1, XDATA, add(CFA_XSP16, literal(-7)))
          CFI (cfiCond95) R7 load(1, XDATA, add(CFA_XSP16, literal(-6)))
          CFI (cfiCond95) ?RET_LOW load(1, XDATA, add(CFA_XSP16, literal(-5)))
          CFI (cfiCond95) ?RET_HIGH load(1, XDATA, add(CFA_XSP16, literal(-4)))
          CFI (cfiCond95) ?BRET_EXT load(1, XDATA, add(CFA_XSP16, literal(-3)))
          CFI (cfiCond95) DPL0 load(1, XDATA, add(CFA_XSP16, literal(-2)))
          CFI (cfiCond95) DPH0 load(1, XDATA, add(CFA_XSP16, literal(-1)))
          CFI (cfiCond95) CFA_SP SP+-4
          CFI (cfiCond95) CFA_XSP16 add(XSP16, 28)
          CFI Block cfiCond96 Using cfiCommon0
          CFI (cfiCond96) Function afIncomingData
          CFI (cfiCond96) Conditional ??CrossCallReturnLabel_101, ??CrossCallReturnLabel_17
          CFI (cfiCond96) R6 load(1, XDATA, add(CFA_XSP16, literal(-15)))
          CFI (cfiCond96) VB load(1, XDATA, add(CFA_XSP16, literal(-14)))
          CFI (cfiCond96) V0 load(1, XDATA, add(CFA_XSP16, literal(-13)))
          CFI (cfiCond96) V1 load(1, XDATA, add(CFA_XSP16, literal(-12)))
          CFI (cfiCond96) V2 load(1, XDATA, add(CFA_XSP16, literal(-11)))
          CFI (cfiCond96) V3 load(1, XDATA, add(CFA_XSP16, literal(-10)))
          CFI (cfiCond96) V4 load(1, XDATA, add(CFA_XSP16, literal(-9)))
          CFI (cfiCond96) V5 load(1, XDATA, add(CFA_XSP16, literal(-8)))
          CFI (cfiCond96) V6 load(1, XDATA, add(CFA_XSP16, literal(-7)))
          CFI (cfiCond96) R7 load(1, XDATA, add(CFA_XSP16, literal(-6)))
          CFI (cfiCond96) ?RET_LOW load(1, XDATA, add(CFA_XSP16, literal(-5)))
          CFI (cfiCond96) ?RET_HIGH load(1, XDATA, add(CFA_XSP16, literal(-4)))
          CFI (cfiCond96) ?BRET_EXT load(1, XDATA, add(CFA_XSP16, literal(-3)))
          CFI (cfiCond96) DPL0 load(1, XDATA, add(CFA_XSP16, literal(-2)))
          CFI (cfiCond96) DPH0 load(1, XDATA, add(CFA_XSP16, literal(-1)))
          CFI (cfiCond96) CFA_SP SP+-4
          CFI (cfiCond96) CFA_XSP16 add(XSP16, 28)
          CFI Block cfiCond97 Using cfiCommon0
          CFI (cfiCond97) Function afIncomingData
          CFI (cfiCond97) Conditional ??CrossCallReturnLabel_100, ??CrossCallReturnLabel_13
          CFI (cfiCond97) R6 load(1, XDATA, add(CFA_XSP16, literal(-15)))
          CFI (cfiCond97) VB load(1, XDATA, add(CFA_XSP16, literal(-14)))
          CFI (cfiCond97) V0 load(1, XDATA, add(CFA_XSP16, literal(-13)))
          CFI (cfiCond97) V1 load(1, XDATA, add(CFA_XSP16, literal(-12)))
          CFI (cfiCond97) V2 load(1, XDATA, add(CFA_XSP16, literal(-11)))
          CFI (cfiCond97) V3 load(1, XDATA, add(CFA_XSP16, literal(-10)))
          CFI (cfiCond97) V4 load(1, XDATA, add(CFA_XSP16, literal(-9)))
          CFI (cfiCond97) V5 load(1, XDATA, add(CFA_XSP16, literal(-8)))
          CFI (cfiCond97) V6 load(1, XDATA, add(CFA_XSP16, literal(-7)))
          CFI (cfiCond97) R7 load(1, XDATA, add(CFA_XSP16, literal(-6)))
          CFI (cfiCond97) ?RET_LOW load(1, XDATA, add(CFA_XSP16, literal(-5)))
          CFI (cfiCond97) ?RET_HIGH load(1, XDATA, add(CFA_XSP16, literal(-4)))
          CFI (cfiCond97) ?BRET_EXT load(1, XDATA, add(CFA_XSP16, literal(-3)))
          CFI (cfiCond97) DPL0 load(1, XDATA, add(CFA_XSP16, literal(-2)))
          CFI (cfiCond97) DPH0 load(1, XDATA, add(CFA_XSP16, literal(-1)))
          CFI (cfiCond97) CFA_SP SP+-4
          CFI (cfiCond97) CFA_XSP16 add(XSP16, 28)
          CFI Block cfiCond98 Using cfiCommon0
          CFI (cfiCond98) Function afFindSimpleDesc
          CFI (cfiCond98) Conditional ??CrossCallReturnLabel_100, ??CrossCallReturnLabel_14
          CFI (cfiCond98) R6 load(1, XDATA, add(CFA_XSP16, literal(-12)))
          CFI (cfiCond98) VB load(1, XDATA, add(CFA_XSP16, literal(-11)))
          CFI (cfiCond98) V0 load(1, XDATA, add(CFA_XSP16, literal(-10)))
          CFI (cfiCond98) V1 load(1, XDATA, add(CFA_XSP16, literal(-9)))
          CFI (cfiCond98) V2 load(1, XDATA, add(CFA_XSP16, literal(-8)))
          CFI (cfiCond98) V3 load(1, XDATA, add(CFA_XSP16, literal(-7)))
          CFI (cfiCond98) R7 load(1, XDATA, add(CFA_XSP16, literal(-6)))
          CFI (cfiCond98) ?RET_LOW load(1, XDATA, add(CFA_XSP16, literal(-5)))
          CFI (cfiCond98) ?RET_HIGH load(1, XDATA, add(CFA_XSP16, literal(-4)))
          CFI (cfiCond98) ?BRET_EXT load(1, XDATA, add(CFA_XSP16, literal(-3)))
          CFI (cfiCond98) DPL0 load(1, XDATA, add(CFA_XSP16, literal(-2)))
          CFI (cfiCond98) DPH0 load(1, XDATA, add(CFA_XSP16, literal(-1)))
          CFI (cfiCond98) CFA_SP SP+-4
          CFI (cfiCond98) CFA_XSP16 add(XSP16, 12)
          CFI Block cfiPicker99 Using cfiCommon1
          CFI (cfiPicker99) NoFunction
          CFI (cfiPicker99) Picker
        MOVX      A,@DPTR
        MOV       R0,A
          CFI EndBlock cfiCond94
          CFI EndBlock cfiCond95
          CFI EndBlock cfiCond96
          CFI EndBlock cfiCond97
          CFI EndBlock cfiCond98
          CFI EndBlock cfiPicker99
        REQUIRE ??Subroutine53_0
        ; // Fall through to label ??Subroutine53_0

        RSEG BANKED_CODE:HUGECODE:NOROOT(0)
??Subroutine53_0:
          CFI Block cfiCond100 Using cfiCommon0
          CFI Function afIncomingData
          CFI Conditional ??CrossCallReturnLabel_99, ??CrossCallReturnLabel_34
          CFI R6 load(1, XDATA, add(CFA_XSP16, literal(-15)))
          CFI VB load(1, XDATA, add(CFA_XSP16, literal(-14)))
          CFI V0 load(1, XDATA, add(CFA_XSP16, literal(-13)))
          CFI V1 load(1, XDATA, add(CFA_XSP16, literal(-12)))
          CFI V2 load(1, XDATA, add(CFA_XSP16, literal(-11)))
          CFI V3 load(1, XDATA, add(CFA_XSP16, literal(-10)))
          CFI V4 load(1, XDATA, add(CFA_XSP16, literal(-9)))
          CFI V5 load(1, XDATA, add(CFA_XSP16, literal(-8)))
          CFI V6 load(1, XDATA, add(CFA_XSP16, literal(-7)))
          CFI R7 load(1, XDATA, add(CFA_XSP16, literal(-6)))
          CFI ?RET_LOW load(1, XDATA, add(CFA_XSP16, literal(-5)))
          CFI ?RET_HIGH load(1, XDATA, add(CFA_XSP16, literal(-4)))
          CFI ?BRET_EXT load(1, XDATA, add(CFA_XSP16, literal(-3)))
          CFI DPL0 load(1, XDATA, add(CFA_XSP16, literal(-2)))
          CFI DPH0 load(1, XDATA, add(CFA_XSP16, literal(-1)))
          CFI CFA_SP SP+-4
          CFI CFA_XSP16 add(XSP16, 28)
          CFI Block cfiCond101 Using cfiCommon0
          CFI (cfiCond101) Function afIncomingData
          CFI (cfiCond101) Conditional ??CrossCallReturnLabel_99, ??CrossCallReturnLabel_35
          CFI (cfiCond101) R6 load(1, XDATA, add(CFA_XSP16, literal(-15)))
          CFI (cfiCond101) VB load(1, XDATA, add(CFA_XSP16, literal(-14)))
          CFI (cfiCond101) V0 load(1, XDATA, add(CFA_XSP16, literal(-13)))
          CFI (cfiCond101) V1 load(1, XDATA, add(CFA_XSP16, literal(-12)))
          CFI (cfiCond101) V2 load(1, XDATA, add(CFA_XSP16, literal(-11)))
          CFI (cfiCond101) V3 load(1, XDATA, add(CFA_XSP16, literal(-10)))
          CFI (cfiCond101) V4 load(1, XDATA, add(CFA_XSP16, literal(-9)))
          CFI (cfiCond101) V5 load(1, XDATA, add(CFA_XSP16, literal(-8)))
          CFI (cfiCond101) V6 load(1, XDATA, add(CFA_XSP16, literal(-7)))
          CFI (cfiCond101) R7 load(1, XDATA, add(CFA_XSP16, literal(-6)))
          CFI (cfiCond101) ?RET_LOW load(1, XDATA, add(CFA_XSP16, literal(-5)))
          CFI (cfiCond101) ?RET_HIGH load(1, XDATA, add(CFA_XSP16, literal(-4)))
          CFI (cfiCond101) ?BRET_EXT load(1, XDATA, add(CFA_XSP16, literal(-3)))
          CFI (cfiCond101) DPL0 load(1, XDATA, add(CFA_XSP16, literal(-2)))
          CFI (cfiCond101) DPH0 load(1, XDATA, add(CFA_XSP16, literal(-1)))
          CFI (cfiCond101) CFA_SP SP+-4
          CFI (cfiCond101) CFA_XSP16 add(XSP16, 28)
          CFI Block cfiCond102 Using cfiCommon0
          CFI (cfiCond102) Function afRegisterExtended
          CFI (cfiCond102) Conditional ??CrossCallReturnLabel_101, ??CrossCallReturnLabel_15
          CFI (cfiCond102) R6 load(1, XDATA, add(CFA_XSP16, literal(-14)))
          CFI (cfiCond102) VB load(1, XDATA, add(CFA_XSP16, literal(-13)))
          CFI (cfiCond102) V0 load(1, XDATA, add(CFA_XSP16, literal(-12)))
          CFI (cfiCond102) V1 load(1, XDATA, add(CFA_XSP16, literal(-11)))
          CFI (cfiCond102) V2 load(1, XDATA, add(CFA_XSP16, literal(-10)))
          CFI (cfiCond102) V3 load(1, XDATA, add(CFA_XSP16, literal(-9)))
          CFI (cfiCond102) V4 load(1, XDATA, add(CFA_XSP16, literal(-8)))
          CFI (cfiCond102) V5 load(1, XDATA, add(CFA_XSP16, literal(-7)))
          CFI (cfiCond102) R7 load(1, XDATA, add(CFA_XSP16, literal(-6)))
          CFI (cfiCond102) ?RET_LOW load(1, XDATA, add(CFA_XSP16, literal(-5)))
          CFI (cfiCond102) ?RET_HIGH load(1, XDATA, add(CFA_XSP16, literal(-4)))
          CFI (cfiCond102) ?BRET_EXT load(1, XDATA, add(CFA_XSP16, literal(-3)))
          CFI (cfiCond102) DPL0 load(1, XDATA, add(CFA_XSP16, literal(-2)))
          CFI (cfiCond102) DPH0 load(1, XDATA, add(CFA_XSP16, literal(-1)))
          CFI (cfiCond102) CFA_SP SP+-4
          CFI (cfiCond102) CFA_XSP16 add(XSP16, 14)
          CFI Block cfiCond103 Using cfiCommon0
          CFI (cfiCond103) Function afIncomingData
          CFI (cfiCond103) Conditional ??CrossCallReturnLabel_101, ??CrossCallReturnLabel_16
          CFI (cfiCond103) R6 load(1, XDATA, add(CFA_XSP16, literal(-15)))
          CFI (cfiCond103) VB load(1, XDATA, add(CFA_XSP16, literal(-14)))
          CFI (cfiCond103) V0 load(1, XDATA, add(CFA_XSP16, literal(-13)))
          CFI (cfiCond103) V1 load(1, XDATA, add(CFA_XSP16, literal(-12)))
          CFI (cfiCond103) V2 load(1, XDATA, add(CFA_XSP16, literal(-11)))
          CFI (cfiCond103) V3 load(1, XDATA, add(CFA_XSP16, literal(-10)))
          CFI (cfiCond103) V4 load(1, XDATA, add(CFA_XSP16, literal(-9)))
          CFI (cfiCond103) V5 load(1, XDATA, add(CFA_XSP16, literal(-8)))
          CFI (cfiCond103) V6 load(1, XDATA, add(CFA_XSP16, literal(-7)))
          CFI (cfiCond103) R7 load(1, XDATA, add(CFA_XSP16, literal(-6)))
          CFI (cfiCond103) ?RET_LOW load(1, XDATA, add(CFA_XSP16, literal(-5)))
          CFI (cfiCond103) ?RET_HIGH load(1, XDATA, add(CFA_XSP16, literal(-4)))
          CFI (cfiCond103) ?BRET_EXT load(1, XDATA, add(CFA_XSP16, literal(-3)))
          CFI (cfiCond103) DPL0 load(1, XDATA, add(CFA_XSP16, literal(-2)))
          CFI (cfiCond103) DPH0 load(1, XDATA, add(CFA_XSP16, literal(-1)))
          CFI (cfiCond103) CFA_SP SP+-4
          CFI (cfiCond103) CFA_XSP16 add(XSP16, 28)
          CFI Block cfiCond104 Using cfiCommon0
          CFI (cfiCond104) Function afIncomingData
          CFI (cfiCond104) Conditional ??CrossCallReturnLabel_101, ??CrossCallReturnLabel_17
          CFI (cfiCond104) R6 load(1, XDATA, add(CFA_XSP16, literal(-15)))
          CFI (cfiCond104) VB load(1, XDATA, add(CFA_XSP16, literal(-14)))
          CFI (cfiCond104) V0 load(1, XDATA, add(CFA_XSP16, literal(-13)))
          CFI (cfiCond104) V1 load(1, XDATA, add(CFA_XSP16, literal(-12)))
          CFI (cfiCond104) V2 load(1, XDATA, add(CFA_XSP16, literal(-11)))
          CFI (cfiCond104) V3 load(1, XDATA, add(CFA_XSP16, literal(-10)))
          CFI (cfiCond104) V4 load(1, XDATA, add(CFA_XSP16, literal(-9)))
          CFI (cfiCond104) V5 load(1, XDATA, add(CFA_XSP16, literal(-8)))
          CFI (cfiCond104) V6 load(1, XDATA, add(CFA_XSP16, literal(-7)))
          CFI (cfiCond104) R7 load(1, XDATA, add(CFA_XSP16, literal(-6)))
          CFI (cfiCond104) ?RET_LOW load(1, XDATA, add(CFA_XSP16, literal(-5)))
          CFI (cfiCond104) ?RET_HIGH load(1, XDATA, add(CFA_XSP16, literal(-4)))
          CFI (cfiCond104) ?BRET_EXT load(1, XDATA, add(CFA_XSP16, literal(-3)))
          CFI (cfiCond104) DPL0 load(1, XDATA, add(CFA_XSP16, literal(-2)))
          CFI (cfiCond104) DPH0 load(1, XDATA, add(CFA_XSP16, literal(-1)))
          CFI (cfiCond104) CFA_SP SP+-4
          CFI (cfiCond104) CFA_XSP16 add(XSP16, 28)
          CFI Block cfiCond105 Using cfiCommon0
          CFI (cfiCond105) Function afIncomingData
          CFI (cfiCond105) Conditional ??CrossCallReturnLabel_100, ??CrossCallReturnLabel_13
          CFI (cfiCond105) R6 load(1, XDATA, add(CFA_XSP16, literal(-15)))
          CFI (cfiCond105) VB load(1, XDATA, add(CFA_XSP16, literal(-14)))
          CFI (cfiCond105) V0 load(1, XDATA, add(CFA_XSP16, literal(-13)))
          CFI (cfiCond105) V1 load(1, XDATA, add(CFA_XSP16, literal(-12)))
          CFI (cfiCond105) V2 load(1, XDATA, add(CFA_XSP16, literal(-11)))
          CFI (cfiCond105) V3 load(1, XDATA, add(CFA_XSP16, literal(-10)))
          CFI (cfiCond105) V4 load(1, XDATA, add(CFA_XSP16, literal(-9)))
          CFI (cfiCond105) V5 load(1, XDATA, add(CFA_XSP16, literal(-8)))
          CFI (cfiCond105) V6 load(1, XDATA, add(CFA_XSP16, literal(-7)))
          CFI (cfiCond105) R7 load(1, XDATA, add(CFA_XSP16, literal(-6)))
          CFI (cfiCond105) ?RET_LOW load(1, XDATA, add(CFA_XSP16, literal(-5)))
          CFI (cfiCond105) ?RET_HIGH load(1, XDATA, add(CFA_XSP16, literal(-4)))
          CFI (cfiCond105) ?BRET_EXT load(1, XDATA, add(CFA_XSP16, literal(-3)))
          CFI (cfiCond105) DPL0 load(1, XDATA, add(CFA_XSP16, literal(-2)))
          CFI (cfiCond105) DPH0 load(1, XDATA, add(CFA_XSP16, literal(-1)))
          CFI (cfiCond105) CFA_SP SP+-4
          CFI (cfiCond105) CFA_XSP16 add(XSP16, 28)
          CFI Block cfiCond106 Using cfiCommon0
          CFI (cfiCond106) Function afFindSimpleDesc
          CFI (cfiCond106) Conditional ??CrossCallReturnLabel_100, ??CrossCallReturnLabel_14
          CFI (cfiCond106) R6 load(1, XDATA, add(CFA_XSP16, literal(-12)))
          CFI (cfiCond106) VB load(1, XDATA, add(CFA_XSP16, literal(-11)))
          CFI (cfiCond106) V0 load(1, XDATA, add(CFA_XSP16, literal(-10)))
          CFI (cfiCond106) V1 load(1, XDATA, add(CFA_XSP16, literal(-9)))
          CFI (cfiCond106) V2 load(1, XDATA, add(CFA_XSP16, literal(-8)))
          CFI (cfiCond106) V3 load(1, XDATA, add(CFA_XSP16, literal(-7)))
          CFI (cfiCond106) R7 load(1, XDATA, add(CFA_XSP16, literal(-6)))
          CFI (cfiCond106) ?RET_LOW load(1, XDATA, add(CFA_XSP16, literal(-5)))
          CFI (cfiCond106) ?RET_HIGH load(1, XDATA, add(CFA_XSP16, literal(-4)))
          CFI (cfiCond106) ?BRET_EXT load(1, XDATA, add(CFA_XSP16, literal(-3)))
          CFI (cfiCond106) DPL0 load(1, XDATA, add(CFA_XSP16, literal(-2)))
          CFI (cfiCond106) DPH0 load(1, XDATA, add(CFA_XSP16, literal(-1)))
          CFI (cfiCond106) CFA_SP SP+-4
          CFI (cfiCond106) CFA_XSP16 add(XSP16, 12)
          CFI Block cfiPicker107 Using cfiCommon1
          CFI (cfiPicker107) NoFunction
          CFI (cfiPicker107) Picker
        LCALL     ??Subroutine59_0 & 0xFFFF
??CrossCallReturnLabel_137:
        INC       DPTR
        RET
          CFI EndBlock cfiCond100
          CFI EndBlock cfiCond101
          CFI EndBlock cfiCond102
          CFI EndBlock cfiCond103
          CFI EndBlock cfiCond104
          CFI EndBlock cfiCond105
          CFI EndBlock cfiCond106
          CFI EndBlock cfiPicker107

        RSEG BANKED_CODE:HUGECODE:NOROOT(0)
?Subroutine12:
          CFI Block cfiCond108 Using cfiCommon0
          CFI Function afIncomingData
          CFI Conditional ??CrossCallReturnLabel_11
          CFI R6 load(1, XDATA, add(CFA_XSP16, literal(-15)))
          CFI VB load(1, XDATA, add(CFA_XSP16, literal(-14)))
          CFI V0 load(1, XDATA, add(CFA_XSP16, literal(-13)))
          CFI V1 load(1, XDATA, add(CFA_XSP16, literal(-12)))
          CFI V2 load(1, XDATA, add(CFA_XSP16, literal(-11)))
          CFI V3 load(1, XDATA, add(CFA_XSP16, literal(-10)))
          CFI V4 load(1, XDATA, add(CFA_XSP16, literal(-9)))
          CFI V5 load(1, XDATA, add(CFA_XSP16, literal(-8)))
          CFI V6 load(1, XDATA, add(CFA_XSP16, literal(-7)))
          CFI R7 load(1, XDATA, add(CFA_XSP16, literal(-6)))
          CFI ?RET_LOW load(1, XDATA, add(CFA_XSP16, literal(-5)))
          CFI ?RET_HIGH load(1, XDATA, add(CFA_XSP16, literal(-4)))
          CFI ?BRET_EXT load(1, XDATA, add(CFA_XSP16, literal(-3)))
          CFI DPL0 load(1, XDATA, add(CFA_XSP16, literal(-2)))
          CFI DPH0 load(1, XDATA, add(CFA_XSP16, literal(-1)))
          CFI CFA_SP SP+-2
          CFI CFA_XSP16 add(XSP16, 28)
          CFI Block cfiCond109 Using cfiCommon0
          CFI (cfiCond109) Function afIncomingData
          CFI (cfiCond109) Conditional ??CrossCallReturnLabel_12
          CFI (cfiCond109) R6 load(1, XDATA, add(CFA_XSP16, literal(-15)))
          CFI (cfiCond109) VB load(1, XDATA, add(CFA_XSP16, literal(-14)))
          CFI (cfiCond109) V0 load(1, XDATA, add(CFA_XSP16, literal(-13)))
          CFI (cfiCond109) V1 load(1, XDATA, add(CFA_XSP16, literal(-12)))
          CFI (cfiCond109) V2 load(1, XDATA, add(CFA_XSP16, literal(-11)))
          CFI (cfiCond109) V3 load(1, XDATA, add(CFA_XSP16, literal(-10)))
          CFI (cfiCond109) V4 load(1, XDATA, add(CFA_XSP16, literal(-9)))
          CFI (cfiCond109) V5 load(1, XDATA, add(CFA_XSP16, literal(-8)))
          CFI (cfiCond109) V6 load(1, XDATA, add(CFA_XSP16, literal(-7)))
          CFI (cfiCond109) R7 load(1, XDATA, add(CFA_XSP16, literal(-6)))
          CFI (cfiCond109) ?RET_LOW load(1, XDATA, add(CFA_XSP16, literal(-5)))
          CFI (cfiCond109) ?RET_HIGH load(1, XDATA, add(CFA_XSP16, literal(-4)))
          CFI (cfiCond109) ?BRET_EXT load(1, XDATA, add(CFA_XSP16, literal(-3)))
          CFI (cfiCond109) DPL0 load(1, XDATA, add(CFA_XSP16, literal(-2)))
          CFI (cfiCond109) DPH0 load(1, XDATA, add(CFA_XSP16, literal(-1)))
          CFI (cfiCond109) CFA_SP SP+-2
          CFI (cfiCond109) CFA_XSP16 add(XSP16, 28)
          CFI Block cfiPicker110 Using cfiCommon1
          CFI (cfiPicker110) NoFunction
          CFI (cfiPicker110) Picker
        LCALL     ?Subroutine41 & 0xFFFF
??CrossCallReturnLabel_88:
        MOV       DPL,R2
        MOV       DPH,R3
        INC       DPTR
        INC       DPTR
        INC       DPTR
        INC       DPTR
        INC       DPTR
        INC       DPTR
        RET
          CFI EndBlock cfiCond108
          CFI EndBlock cfiCond109
          CFI EndBlock cfiPicker110
//  534 
//  535 /*********************************************************************
//  536  * @fn          afBuildMSGIncoming
//  537  *
//  538  * @brief       Build the message for the app
//  539  *
//  540  * @param
//  541  *
//  542  * @return      pointer to next in data buffer
//  543  */

        RSEG BANKED_CODE:HUGECODE:NOROOT(0)
//  544 static void afBuildMSGIncoming( aps_FrameFormat_t *aff, endPointDesc_t *epDesc,
afBuildMSGIncoming:
          CFI Block cfiBlock111 Using cfiCommon0
          CFI Function afBuildMSGIncoming
        CODE
//  545                  zAddrType_t *SrcAddress, uint16 SrcPanId, NLDE_Signal_t *sig,
//  546                  uint8 nwkSeqNum, uint8 SecurityUse, uint32 timestamp, uint8 radius )
//  547 {
        FUNCALL afBuildMSGIncoming, osal_msg_allocate
        LOCFRAME ISTACK, 0, STACK
        LOCFRAME PSTACK, 0, STACK
        LOCFRAME XSTACK, 19, STACK
        LOCFRAME IOVERLAY, 0, STATIC
        LOCFRAME DOVERLAY, 0, STATIC
        ARGFRAME ISTACK, 0, STACK
        ARGFRAME PSTACK, 0, STACK
        ARGFRAME XSTACK, 19, STACK
        ARGFRAME IOVERLAY, 0, STATIC
        ARGFRAME DOVERLAY, 0, STATIC
        FUNCALL afBuildMSGIncoming, afCopyAddress
        LOCFRAME ISTACK, 0, STACK
        LOCFRAME PSTACK, 0, STACK
        LOCFRAME XSTACK, 19, STACK
        LOCFRAME IOVERLAY, 0, STATIC
        LOCFRAME DOVERLAY, 0, STATIC
        ARGFRAME ISTACK, 0, STACK
        ARGFRAME PSTACK, 0, STACK
        ARGFRAME XSTACK, 19, STACK
        ARGFRAME IOVERLAY, 0, STATIC
        ARGFRAME DOVERLAY, 0, STATIC
        FUNCALL afBuildMSGIncoming, osal_memcpy
        LOCFRAME ISTACK, 0, STACK
        LOCFRAME PSTACK, 0, STACK
        LOCFRAME XSTACK, 22, STACK
        LOCFRAME IOVERLAY, 0, STATIC
        LOCFRAME DOVERLAY, 0, STATIC
        ARGFRAME ISTACK, 0, STACK
        ARGFRAME PSTACK, 0, STACK
        ARGFRAME XSTACK, 22, STACK
        ARGFRAME IOVERLAY, 0, STATIC
        ARGFRAME DOVERLAY, 0, STATIC
        FUNCALL afBuildMSGIncoming, osal_msg_send
        LOCFRAME ISTACK, 0, STACK
        LOCFRAME PSTACK, 0, STACK
        LOCFRAME XSTACK, 19, STACK
        LOCFRAME IOVERLAY, 0, STATIC
        LOCFRAME DOVERLAY, 0, STATIC
        ARGFRAME ISTACK, 0, STACK
        ARGFRAME PSTACK, 0, STACK
        ARGFRAME XSTACK, 19, STACK
        ARGFRAME IOVERLAY, 0, STATIC
        ARGFRAME DOVERLAY, 0, STATIC
        REQUIRE ?V0
        REQUIRE ?V1
        REQUIRE ?V2
        REQUIRE ?V3
        REQUIRE ?V4
        REQUIRE ?V5
        REQUIRE ?V6
        REQUIRE ?V7
        MOV       A,#-0x10
        LCALL     ?BANKED_ENTER_XDATA
          CFI DPH0 load(1, XDATA, add(CFA_XSP16, literal(-1)))
          CFI DPL0 load(1, XDATA, add(CFA_XSP16, literal(-2)))
          CFI ?BRET_EXT load(1, XDATA, add(CFA_XSP16, literal(-3)))
          CFI ?RET_HIGH load(1, XDATA, add(CFA_XSP16, literal(-4)))
          CFI ?RET_LOW load(1, XDATA, add(CFA_XSP16, literal(-5)))
          CFI R7 load(1, XDATA, add(CFA_XSP16, literal(-6)))
          CFI V7 load(1, XDATA, add(CFA_XSP16, literal(-7)))
          CFI V6 load(1, XDATA, add(CFA_XSP16, literal(-8)))
          CFI V5 load(1, XDATA, add(CFA_XSP16, literal(-9)))
          CFI V4 load(1, XDATA, add(CFA_XSP16, literal(-10)))
          CFI V3 load(1, XDATA, add(CFA_XSP16, literal(-11)))
          CFI V2 load(1, XDATA, add(CFA_XSP16, literal(-12)))
          CFI V1 load(1, XDATA, add(CFA_XSP16, literal(-13)))
          CFI V0 load(1, XDATA, add(CFA_XSP16, literal(-14)))
          CFI VB load(1, XDATA, add(CFA_XSP16, literal(-15)))
          CFI R6 load(1, XDATA, add(CFA_XSP16, literal(-16)))
          CFI CFA_SP SP+0
          CFI CFA_XSP16 add(XSP16, 16)
        ; Saved register size: 16
        ; Auto size: 3
        MOV       A,#-0x3
        LCALL     ?ALLOC_XSTACK8
          CFI CFA_XSP16 add(XSP16, 19)
        MOV       A,R1
        MOV       DPL,?XSP + 0
        MOV       DPH,?XSP + 1
        MOVX      @DPTR,A
        MOV       ?V0,R2
        MOV       ?V1,R3
        MOV       ?V6,R4
        MOV       ?V7,R5
//  548   afIncomingMSGPacket_t *MSGpkt;
//  549   const uint8 len = sizeof( afIncomingMSGPacket_t ) + aff->asduLength;
//  550   uint8 *asdu = aff->asdu;
        MOV       A,R2
        ADD       A,#0xe
        MOV       DPL,A
        CLR       A
        ADDC      A,?V1
        MOV       DPH,A
        LCALL     ??Subroutine57_0 & 0xFFFF
??CrossCallReturnLabel_119:
        MOV       A,#0x1
        LCALL     ?XSTACK_DISP0_8
        LCALL     ??Subroutine55_0 & 0xFFFF
//  551   MSGpkt = (afIncomingMSGPacket_t *)osal_msg_allocate( len );
??CrossCallReturnLabel_109:
        MOV       A,R2
        ADD       A,#0x10
        MOV       ?V2,A
        CLR       A
        ADDC      A,?V1
        MOV       ?V3,A
        ; Setup parameters for call to function osal_msg_allocate
        MOV       DPL,?V2
        MOV       DPH,A
        MOVX      A,@DPTR
        ADD       A,#0x27
        MOV       R2,A
        MOV       R3,#0x0
        LCALL     `??osal_msg_allocate::?relay`; Banked call to: osal_msg_allocate
        MOV       ?V4,R2
        MOV       ?V5,R3
        MOV       R6,?V4
        MOV       R7,?V5
//  552 
//  553   if ( MSGpkt == NULL )
        MOV       A,R6
        ORL       A,R7
        JNZ       $+5
        LJMP      ??afBuildMSGIncoming_0 & 0xFFFF
//  554   {
//  555     return;
//  556   }
//  557 
//  558   MSGpkt->hdr.event = AF_INCOMING_MSG_CMD;
        MOV       DPL,R6
        MOV       DPH,R7
        MOV       A,#0x1a
        LCALL     ?Subroutine39 & 0xFFFF
//  559   MSGpkt->groupId = aff->GroupID;
??CrossCallReturnLabel_70:
        LCALL     ?Subroutine23 & 0xFFFF
??CrossCallReturnLabel_125:
        MOV       DPL,R6
        MOV       DPH,R7
        INC       DPTR
        INC       DPTR
        LCALL     ?Subroutine28 & 0xFFFF
//  560   MSGpkt->clusterId = aff->ClusterID;
??CrossCallReturnLabel_50:
        LCALL     ?Subroutine16 & 0xFFFF
??CrossCallReturnLabel_21:
        LCALL     ??Subroutine55_0 & 0xFFFF
//  561   afCopyAddress( &MSGpkt->srcAddr, SrcAddress );
??CrossCallReturnLabel_110:
        ; Setup parameters for call to function afCopyAddress
        MOV       A,#0x13
        LCALL     ?XSTACK_DISP0_8
        LCALL     ?Subroutine43 & 0xFFFF
??CrossCallReturnLabel_75:
        MOV       A,R6
        ADD       A,#0x6
        MOV       R2,A
        CLR       A
        ADDC      A,R7
        MOV       R3,A
        LCALL     `??afCopyAddress::?relay`; Banked call to: afCopyAddress
//  562   MSGpkt->srcAddr.endPoint = aff->SrcEndPoint;
        MOV       DPL,?V0
        MOV       DPH,?V1
        INC       DPTR
        INC       DPTR
        INC       DPTR
        MOVX      A,@DPTR
        PUSH      A
          CFI CFA_SP SP+-1
        MOV       A,R6
        ADD       A,#0xf
        MOV       DPL,A
        CLR       A
        ADDC      A,R7
        MOV       DPH,A
        POP       A
          CFI CFA_SP SP+0
        MOVX      @DPTR,A
//  563   MSGpkt->endPoint = epDesc->endPoint;
        MOV       DPL,?V6
        MOV       DPH,?V7
        MOVX      A,@DPTR
        PUSH      A
          CFI CFA_SP SP+-1
        MOV       A,R6
        ADD       A,#0x14
        MOV       DPL,A
        CLR       A
        ADDC      A,R7
        MOV       DPH,A
        POP       A
          CFI CFA_SP SP+0
        MOVX      @DPTR,A
//  564   MSGpkt->wasBroadcast = aff->wasBroadcast;
        MOV       A,?V0
        LCALL     ?Subroutine37 & 0xFFFF
??CrossCallReturnLabel_69:
        MOVX      A,@DPTR
        PUSH      A
          CFI CFA_SP SP+-1
        MOV       A,R6
        ADD       A,#0x15
        MOV       DPL,A
        CLR       A
        ADDC      A,R7
        MOV       DPH,A
        POP       A
          CFI CFA_SP SP+0
        MOVX      @DPTR,A
        MOV       A,#0x17
        LCALL     ?XSTACK_DISP0_8
        LCALL     ?Subroutine21 & 0xFFFF
//  565   MSGpkt->LinkQuality = sig->LinkQuality;
??CrossCallReturnLabel_36:
        MOVX      A,@DPTR
        PUSH      A
          CFI CFA_SP SP+-1
        MOV       A,R6
        ADD       A,#0x16
        MOV       DPL,A
        CLR       A
        ADDC      A,R7
        MOV       DPH,A
        POP       A
          CFI CFA_SP SP+0
        LCALL     ?Subroutine34 & 0xFFFF
//  566   MSGpkt->correlation = sig->correlation;
??CrossCallReturnLabel_62:
        MOVX      A,@DPTR
        PUSH      A
          CFI CFA_SP SP+-1
        MOV       A,R6
        ADD       A,#0x17
        MOV       DPL,A
        CLR       A
        ADDC      A,R7
        MOV       DPH,A
        POP       A
          CFI CFA_SP SP+0
        LCALL     ?Subroutine34 & 0xFFFF
//  567   MSGpkt->rssi = sig->rssi;
??CrossCallReturnLabel_63:
        INC       DPTR
        MOVX      A,@DPTR
        PUSH      A
          CFI CFA_SP SP+-1
        MOV       A,R6
        ADD       A,#0x18
        MOV       DPL,A
        CLR       A
        ADDC      A,R7
        MOV       DPH,A
        POP       A
          CFI CFA_SP SP+0
        MOVX      @DPTR,A
//  568   MSGpkt->SecurityUse = SecurityUse;
        MOV       A,#0x19
        LCALL     ?XSTACK_DISP0_8
        MOVX      A,@DPTR
        PUSH      A
          CFI CFA_SP SP+-1
        MOV       A,R6
        ADD       A,#0x19
        MOV       DPL,A
        CLR       A
        ADDC      A,R7
        MOV       DPH,A
        POP       A
          CFI CFA_SP SP+0
        MOVX      @DPTR,A
//  569   MSGpkt->timestamp = timestamp;
        MOV       A,#0x1a
        LCALL     ?XSTACK_DISP0_8
        LCALL     ?XLOAD_R0123
        MOV       A,R6
        ADD       A,#0x1a
        MOV       DPL,A
        CLR       A
        ADDC      A,R7
        MOV       DPH,A
        LCALL     ?XSTORE_R0123
//  570   MSGpkt->nwkSeqNum = nwkSeqNum;
        MOV       DPL,?XSP + 0
        MOV       DPH,?XSP + 1
        MOVX      A,@DPTR
        PUSH      A
          CFI CFA_SP SP+-1
        MOV       A,R6
        ADD       A,#0x1e
        MOV       DPL,A
        CLR       A
        ADDC      A,R7
        MOV       DPH,A
        POP       A
          CFI CFA_SP SP+0
        MOVX      @DPTR,A
//  571   MSGpkt->macSrcAddr = aff->macSrcAddr;
        MOV       A,?V0
        ADD       A,#0x15
        MOV       DPL,A
        CLR       A
        ADDC      A,?V1
        MOV       DPH,A
        LCALL     ?Subroutine22 & 0xFFFF
??CrossCallReturnLabel_38:
        ADD       A,#0x24
        MOV       DPL,A
        CLR       A
        ADDC      A,R7
        MOV       DPH,A
        LCALL     ?Subroutine28 & 0xFFFF
//  572   MSGpkt->macDestAddr = aff->macDestAddr;
??CrossCallReturnLabel_51:
        INC       DPTR
        INC       DPTR
        INC       DPTR
        INC       DPTR
        LCALL     ?Subroutine22 & 0xFFFF
??CrossCallReturnLabel_39:
        ADD       A,#0x12
        LCALL     ?Subroutine29 & 0xFFFF
//  573   MSGpkt->srcAddr.panId = SrcPanId;
??CrossCallReturnLabel_115:
        MOV       A,#0x15
        LCALL     ?XSTACK_DISP0_8
        LCALL     ?Subroutine22 & 0xFFFF
??CrossCallReturnLabel_40:
        ADD       A,#0x10
        LCALL     ?Subroutine29 & 0xFFFF
//  574   MSGpkt->cmd.TransSeqNumber = 0;
??CrossCallReturnLabel_116:
        MOV       A,R6
        ADD       A,#0x1f
        MOV       DPL,A
        CLR       A
        ADDC      A,R7
        MOV       DPH,A
        CLR       A
        MOVX      @DPTR,A
//  575   MSGpkt->cmd.DataLength = aff->asduLength;
        MOV       A,R6
        ADD       A,#0x20
        MOV       R4,A
        CLR       A
        ADDC      A,R7
        MOV       R5,A
        MOV       DPL,?V2
        MOV       DPH,?V3
        MOVX      A,@DPTR
        MOV       DPL,R4
        MOV       DPH,R5
        MOVX      @DPTR,A
        INC       DPTR
        CLR       A
        MOVX      @DPTR,A
//  576   MSGpkt->radius = radius;
        MOV       A,#0x1e
        LCALL     ?XSTACK_DISP0_8
        MOVX      A,@DPTR
        PUSH      A
          CFI CFA_SP SP+-1
        MOV       A,R6
        ADD       A,#0x26
        MOV       DPL,A
        CLR       A
        ADDC      A,R7
        MOV       DPH,A
        POP       A
          CFI CFA_SP SP+0
        MOVX      @DPTR,A
//  577 
//  578   if ( MSGpkt->cmd.DataLength )
        MOV       A,R6
        ADD       A,#0x22
        MOV       R0,A
        CLR       A
        ADDC      A,R7
        MOV       R1,A
        MOV       DPL,R4
        MOV       DPH,R5
        LCALL     ??Subroutine61_0 & 0xFFFF
??CrossCallReturnLabel_141:
        MOV       A,R2
        ORL       A,R3
        JZ        ??afBuildMSGIncoming_1
//  579   {
//  580     MSGpkt->cmd.Data = (uint8 *)(MSGpkt + 1);
        MOV       A,R6
        ADD       A,#0x27
        MOV       R2,A
        CLR       A
        ADDC      A,R7
        MOV       R3,A
        MOV       DPL,R0
        MOV       DPH,R1
        MOV       A,R2
        MOVX      @DPTR,A
        INC       DPTR
        MOV       A,R3
        MOVX      @DPTR,A
//  581     osal_memcpy( MSGpkt->cmd.Data, asdu, MSGpkt->cmd.DataLength );
        ; Setup parameters for call to function osal_memcpy
        MOV       A,#0x1
        LCALL     ?XSTACK_DISP0_8
        MOVX      A,@DPTR
        MOV       ?V0,A
        INC       DPTR
        MOVX      A,@DPTR
        MOV       ?V1,A
        MOV       ?V2,#0x0
        MOV       R0,#?V0
        LCALL     ?PUSH_XSTACK_I_THREE
          CFI CFA_XSP16 add(XSP16, 22)
        MOV       DPL,R4
        MOV       DPH,R5
        LCALL     ?Subroutine43 & 0xFFFF
//  582   }
??CrossCallReturnLabel_76:
        LCALL     `??osal_memcpy::?relay`; Banked call to: osal_memcpy
        MOV       A,#0x3
        LCALL     ?DEALLOC_XSTACK8
          CFI CFA_XSP16 add(XSP16, 19)
        SJMP      ??afBuildMSGIncoming_2
//  583   else
//  584   {
//  585     MSGpkt->cmd.Data = NULL;
??afBuildMSGIncoming_1:
        MOV       DPL,R0
        MOV       DPH,R1
        CLR       A
        MOVX      @DPTR,A
        INC       DPTR
        MOVX      @DPTR,A
//  586   }
//  587 
//  588 #if defined ( MT_AF_CB_FUNC )
//  589   // If ZDO or SAPI have registered for this endpoint, dont intercept it here
//  590   if (AFCB_CHECK(CB_ID_AF_DATA_IND, *(epDesc->task_id)))
//  591   {
//  592     MT_AfIncomingMsg( (void *)MSGpkt );
//  593     // Release the memory.
//  594     osal_msg_deallocate( (void *)MSGpkt );
//  595   }
//  596   else
//  597 #endif
//  598   {
//  599     // Send message through task message.
//  600     osal_msg_send( *(epDesc->task_id), (uint8 *)MSGpkt );
??afBuildMSGIncoming_2:
        ; Setup parameters for call to function osal_msg_send
        MOV       A,R6
        MOV       R2,A
        MOV       A,R7
        MOV       R3,A
        MOV       DPL,?V6
        MOV       DPH,?V7
        LCALL     ?Subroutine7 & 0xFFFF
//  601   }
??CrossCallReturnLabel_87:
        LCALL     `??osal_msg_send::?relay`; Banked call to: osal_msg_send
//  602 }
??afBuildMSGIncoming_0:
        MOV       A,#0x3
          CFI EndBlock cfiBlock111
        REQUIRE ?Subroutine3
        ; // Fall through to label ?Subroutine3

        RSEG BANKED_CODE:HUGECODE:NOROOT(0)
?Subroutine3:
          CFI Block cfiBlock112 Using cfiCommon0
          CFI NoFunction
          CFI CFA_SP SP+0
          CFI CFA_XSP16 add(XSP16, 19)
          CFI VB load(1, XDATA, add(CFA_XSP16, literal(-15)))
          CFI DPL0 load(1, XDATA, add(CFA_XSP16, literal(-2)))
          CFI DPH0 load(1, XDATA, add(CFA_XSP16, literal(-1)))
          CFI R6 load(1, XDATA, add(CFA_XSP16, literal(-16)))
          CFI R7 load(1, XDATA, add(CFA_XSP16, literal(-6)))
          CFI V0 load(1, XDATA, add(CFA_XSP16, literal(-14)))
          CFI V1 load(1, XDATA, add(CFA_XSP16, literal(-13)))
          CFI V2 load(1, XDATA, add(CFA_XSP16, literal(-12)))
          CFI V3 load(1, XDATA, add(CFA_XSP16, literal(-11)))
          CFI V4 load(1, XDATA, add(CFA_XSP16, literal(-10)))
          CFI V5 load(1, XDATA, add(CFA_XSP16, literal(-9)))
          CFI V6 load(1, XDATA, add(CFA_XSP16, literal(-8)))
          CFI V7 load(1, XDATA, add(CFA_XSP16, literal(-7)))
          CFI ?BRET_EXT load(1, XDATA, add(CFA_XSP16, literal(-3)))
          CFI ?RET_HIGH load(1, XDATA, add(CFA_XSP16, literal(-4)))
          CFI ?RET_LOW load(1, XDATA, add(CFA_XSP16, literal(-5)))
          CFI Invalid
        LCALL     ?DEALLOC_XSTACK8
          CFI EndBlock cfiBlock112
        REQUIRE ??Subroutine54_0
        ; // Fall through to label ??Subroutine54_0

        RSEG BANKED_CODE:HUGECODE:NOROOT(0)
??Subroutine54_0:
          CFI Block cfiBlock113 Using cfiCommon0
          CFI NoFunction
          CFI CFA_SP SP+0
          CFI CFA_XSP16 add(XSP16, 16)
          CFI VB load(1, XDATA, add(CFA_XSP16, literal(-15)))
          CFI DPL0 load(1, XDATA, add(CFA_XSP16, literal(-2)))
          CFI DPH0 load(1, XDATA, add(CFA_XSP16, literal(-1)))
          CFI R6 load(1, XDATA, add(CFA_XSP16, literal(-16)))
          CFI R7 load(1, XDATA, add(CFA_XSP16, literal(-6)))
          CFI V0 load(1, XDATA, add(CFA_XSP16, literal(-14)))
          CFI V1 load(1, XDATA, add(CFA_XSP16, literal(-13)))
          CFI V2 load(1, XDATA, add(CFA_XSP16, literal(-12)))
          CFI V3 load(1, XDATA, add(CFA_XSP16, literal(-11)))
          CFI V4 load(1, XDATA, add(CFA_XSP16, literal(-10)))
          CFI V5 load(1, XDATA, add(CFA_XSP16, literal(-9)))
          CFI V6 load(1, XDATA, add(CFA_XSP16, literal(-8)))
          CFI V7 load(1, XDATA, add(CFA_XSP16, literal(-7)))
          CFI ?BRET_EXT load(1, XDATA, add(CFA_XSP16, literal(-3)))
          CFI ?RET_HIGH load(1, XDATA, add(CFA_XSP16, literal(-4)))
          CFI ?RET_LOW load(1, XDATA, add(CFA_XSP16, literal(-5)))
        MOV       R7,#0x8
        LJMP      ?BANKED_LEAVE_XDATA
          CFI EndBlock cfiBlock113

        RSEG BANKED_CODE:HUGECODE:NOROOT(0)
?Subroutine43:
          CFI Block cfiCond114 Using cfiCommon0
          CFI Function afDelete
          CFI Conditional ??CrossCallReturnLabel_78, ??CrossCallReturnLabel_9
          CFI R6 load(1, XDATA, add(CFA_XSP16, literal(-9)))
          CFI VB load(1, XDATA, add(CFA_XSP16, literal(-8)))
          CFI V0 load(1, XDATA, add(CFA_XSP16, literal(-7)))
          CFI R7 load(1, XDATA, add(CFA_XSP16, literal(-6)))
          CFI ?RET_LOW load(1, XDATA, add(CFA_XSP16, literal(-5)))
          CFI ?RET_HIGH load(1, XDATA, add(CFA_XSP16, literal(-4)))
          CFI ?BRET_EXT load(1, XDATA, add(CFA_XSP16, literal(-3)))
          CFI DPL0 load(1, XDATA, add(CFA_XSP16, literal(-2)))
          CFI DPH0 load(1, XDATA, add(CFA_XSP16, literal(-1)))
          CFI CFA_SP SP+-4
          CFI CFA_XSP16 add(XSP16, 9)
          CFI Block cfiCond115 Using cfiCommon0
          CFI (cfiCond115) Function afDelete
          CFI (cfiCond115) Conditional ??CrossCallReturnLabel_78, ??CrossCallReturnLabel_10
          CFI (cfiCond115) R6 load(1, XDATA, add(CFA_XSP16, literal(-9)))
          CFI (cfiCond115) VB load(1, XDATA, add(CFA_XSP16, literal(-8)))
          CFI (cfiCond115) V0 load(1, XDATA, add(CFA_XSP16, literal(-7)))
          CFI (cfiCond115) R7 load(1, XDATA, add(CFA_XSP16, literal(-6)))
          CFI (cfiCond115) ?RET_LOW load(1, XDATA, add(CFA_XSP16, literal(-5)))
          CFI (cfiCond115) ?RET_HIGH load(1, XDATA, add(CFA_XSP16, literal(-4)))
          CFI (cfiCond115) ?BRET_EXT load(1, XDATA, add(CFA_XSP16, literal(-3)))
          CFI (cfiCond115) DPL0 load(1, XDATA, add(CFA_XSP16, literal(-2)))
          CFI (cfiCond115) DPH0 load(1, XDATA, add(CFA_XSP16, literal(-1)))
          CFI (cfiCond115) CFA_SP SP+-4
          CFI (cfiCond115) CFA_XSP16 add(XSP16, 9)
          CFI Block cfiCond116 Using cfiCommon0
          CFI (cfiCond116) Function afBuildMSGIncoming
          CFI (cfiCond116) Conditional ??CrossCallReturnLabel_75
          CFI (cfiCond116) R6 load(1, XDATA, add(CFA_XSP16, literal(-16)))
          CFI (cfiCond116) VB load(1, XDATA, add(CFA_XSP16, literal(-15)))
          CFI (cfiCond116) V0 load(1, XDATA, add(CFA_XSP16, literal(-14)))
          CFI (cfiCond116) V1 load(1, XDATA, add(CFA_XSP16, literal(-13)))
          CFI (cfiCond116) V2 load(1, XDATA, add(CFA_XSP16, literal(-12)))
          CFI (cfiCond116) V3 load(1, XDATA, add(CFA_XSP16, literal(-11)))
          CFI (cfiCond116) V4 load(1, XDATA, add(CFA_XSP16, literal(-10)))
          CFI (cfiCond116) V5 load(1, XDATA, add(CFA_XSP16, literal(-9)))
          CFI (cfiCond116) V6 load(1, XDATA, add(CFA_XSP16, literal(-8)))
          CFI (cfiCond116) V7 load(1, XDATA, add(CFA_XSP16, literal(-7)))
          CFI (cfiCond116) R7 load(1, XDATA, add(CFA_XSP16, literal(-6)))
          CFI (cfiCond116) ?RET_LOW load(1, XDATA, add(CFA_XSP16, literal(-5)))
          CFI (cfiCond116) ?RET_HIGH load(1, XDATA, add(CFA_XSP16, literal(-4)))
          CFI (cfiCond116) ?BRET_EXT load(1, XDATA, add(CFA_XSP16, literal(-3)))
          CFI (cfiCond116) DPL0 load(1, XDATA, add(CFA_XSP16, literal(-2)))
          CFI (cfiCond116) DPH0 load(1, XDATA, add(CFA_XSP16, literal(-1)))
          CFI (cfiCond116) CFA_SP SP+-2
          CFI (cfiCond116) CFA_XSP16 add(XSP16, 19)
          CFI Block cfiCond117 Using cfiCommon0
          CFI (cfiCond117) Function afBuildMSGIncoming
          CFI (cfiCond117) Conditional ??CrossCallReturnLabel_76
          CFI (cfiCond117) R6 load(1, XDATA, add(CFA_XSP16, literal(-16)))
          CFI (cfiCond117) VB load(1, XDATA, add(CFA_XSP16, literal(-15)))
          CFI (cfiCond117) V0 load(1, XDATA, add(CFA_XSP16, literal(-14)))
          CFI (cfiCond117) V1 load(1, XDATA, add(CFA_XSP16, literal(-13)))
          CFI (cfiCond117) V2 load(1, XDATA, add(CFA_XSP16, literal(-12)))
          CFI (cfiCond117) V3 load(1, XDATA, add(CFA_XSP16, literal(-11)))
          CFI (cfiCond117) V4 load(1, XDATA, add(CFA_XSP16, literal(-10)))
          CFI (cfiCond117) V5 load(1, XDATA, add(CFA_XSP16, literal(-9)))
          CFI (cfiCond117) V6 load(1, XDATA, add(CFA_XSP16, literal(-8)))
          CFI (cfiCond117) V7 load(1, XDATA, add(CFA_XSP16, literal(-7)))
          CFI (cfiCond117) R7 load(1, XDATA, add(CFA_XSP16, literal(-6)))
          CFI (cfiCond117) ?RET_LOW load(1, XDATA, add(CFA_XSP16, literal(-5)))
          CFI (cfiCond117) ?RET_HIGH load(1, XDATA, add(CFA_XSP16, literal(-4)))
          CFI (cfiCond117) ?BRET_EXT load(1, XDATA, add(CFA_XSP16, literal(-3)))
          CFI (cfiCond117) DPL0 load(1, XDATA, add(CFA_XSP16, literal(-2)))
          CFI (cfiCond117) DPH0 load(1, XDATA, add(CFA_XSP16, literal(-1)))
          CFI (cfiCond117) CFA_SP SP+-2
          CFI (cfiCond117) CFA_XSP16 add(XSP16, 22)
          CFI Block cfiCond118 Using cfiCommon0
          CFI (cfiCond118) Function AF_DataRequestSrcRtg
          CFI (cfiCond118) Conditional ??CrossCallReturnLabel_77
          CFI (cfiCond118) R6 load(1, XDATA, add(CFA_XSP16, literal(-12)))
          CFI (cfiCond118) VB load(1, XDATA, add(CFA_XSP16, literal(-11)))
          CFI (cfiCond118) V0 load(1, XDATA, add(CFA_XSP16, literal(-10)))
          CFI (cfiCond118) V1 load(1, XDATA, add(CFA_XSP16, literal(-9)))
          CFI (cfiCond118) V2 load(1, XDATA, add(CFA_XSP16, literal(-8)))
          CFI (cfiCond118) V3 load(1, XDATA, add(CFA_XSP16, literal(-7)))
          CFI (cfiCond118) R7 load(1, XDATA, add(CFA_XSP16, literal(-6)))
          CFI (cfiCond118) ?RET_LOW load(1, XDATA, add(CFA_XSP16, literal(-5)))
          CFI (cfiCond118) ?RET_HIGH load(1, XDATA, add(CFA_XSP16, literal(-4)))
          CFI (cfiCond118) ?BRET_EXT load(1, XDATA, add(CFA_XSP16, literal(-3)))
          CFI (cfiCond118) DPL0 load(1, XDATA, add(CFA_XSP16, literal(-2)))
          CFI (cfiCond118) DPH0 load(1, XDATA, add(CFA_XSP16, literal(-1)))
          CFI (cfiCond118) CFA_SP SP+-2
          CFI (cfiCond118) CFA_XSP16 add(XSP16, 12)
          CFI Block cfiPicker119 Using cfiCommon1
          CFI (cfiPicker119) NoFunction
          CFI (cfiPicker119) Picker
        MOVX      A,@DPTR
        MOV       R4,A
        INC       DPTR
        MOVX      A,@DPTR
        MOV       R5,A
        RET
          CFI EndBlock cfiCond114
          CFI EndBlock cfiCond115
          CFI EndBlock cfiCond116
          CFI EndBlock cfiCond117
          CFI EndBlock cfiCond118
          CFI EndBlock cfiPicker119

        RSEG BANKED_CODE:HUGECODE:NOROOT(0)
?Subroutine37:
          CFI Block cfiCond120 Using cfiCommon0
          CFI Function afIncomingData
          CFI Conditional ??CrossCallReturnLabel_68
          CFI R6 load(1, XDATA, add(CFA_XSP16, literal(-15)))
          CFI VB load(1, XDATA, add(CFA_XSP16, literal(-14)))
          CFI V0 load(1, XDATA, add(CFA_XSP16, literal(-13)))
          CFI V1 load(1, XDATA, add(CFA_XSP16, literal(-12)))
          CFI V2 load(1, XDATA, add(CFA_XSP16, literal(-11)))
          CFI V3 load(1, XDATA, add(CFA_XSP16, literal(-10)))
          CFI V4 load(1, XDATA, add(CFA_XSP16, literal(-9)))
          CFI V5 load(1, XDATA, add(CFA_XSP16, literal(-8)))
          CFI V6 load(1, XDATA, add(CFA_XSP16, literal(-7)))
          CFI R7 load(1, XDATA, add(CFA_XSP16, literal(-6)))
          CFI ?RET_LOW load(1, XDATA, add(CFA_XSP16, literal(-5)))
          CFI ?RET_HIGH load(1, XDATA, add(CFA_XSP16, literal(-4)))
          CFI ?BRET_EXT load(1, XDATA, add(CFA_XSP16, literal(-3)))
          CFI DPL0 load(1, XDATA, add(CFA_XSP16, literal(-2)))
          CFI DPH0 load(1, XDATA, add(CFA_XSP16, literal(-1)))
          CFI CFA_XSP16 add(XSP16, 28)
          CFI Block cfiCond121 Using cfiCommon0
          CFI (cfiCond121) Function afBuildMSGIncoming
          CFI (cfiCond121) Conditional ??CrossCallReturnLabel_69
          CFI (cfiCond121) R6 load(1, XDATA, add(CFA_XSP16, literal(-16)))
          CFI (cfiCond121) VB load(1, XDATA, add(CFA_XSP16, literal(-15)))
          CFI (cfiCond121) V0 load(1, XDATA, add(CFA_XSP16, literal(-14)))
          CFI (cfiCond121) V1 load(1, XDATA, add(CFA_XSP16, literal(-13)))
          CFI (cfiCond121) V2 load(1, XDATA, add(CFA_XSP16, literal(-12)))
          CFI (cfiCond121) V3 load(1, XDATA, add(CFA_XSP16, literal(-11)))
          CFI (cfiCond121) V4 load(1, XDATA, add(CFA_XSP16, literal(-10)))
          CFI (cfiCond121) V5 load(1, XDATA, add(CFA_XSP16, literal(-9)))
          CFI (cfiCond121) V6 load(1, XDATA, add(CFA_XSP16, literal(-8)))
          CFI (cfiCond121) V7 load(1, XDATA, add(CFA_XSP16, literal(-7)))
          CFI (cfiCond121) R7 load(1, XDATA, add(CFA_XSP16, literal(-6)))
          CFI (cfiCond121) ?RET_LOW load(1, XDATA, add(CFA_XSP16, literal(-5)))
          CFI (cfiCond121) ?RET_HIGH load(1, XDATA, add(CFA_XSP16, literal(-4)))
          CFI (cfiCond121) ?BRET_EXT load(1, XDATA, add(CFA_XSP16, literal(-3)))
          CFI (cfiCond121) DPL0 load(1, XDATA, add(CFA_XSP16, literal(-2)))
          CFI (cfiCond121) DPH0 load(1, XDATA, add(CFA_XSP16, literal(-1)))
          CFI (cfiCond121) CFA_SP SP+-2
          CFI (cfiCond121) CFA_XSP16 add(XSP16, 19)
          CFI Block cfiPicker122 Using cfiCommon1
          CFI (cfiPicker122) NoFunction
          CFI (cfiPicker122) Picker
        ADD       A,#0xc
        MOV       DPL,A
        CLR       A
        ADDC      A,?V1
        MOV       DPH,A
        RET
          CFI EndBlock cfiCond120
          CFI EndBlock cfiCond121
          CFI EndBlock cfiPicker122

        RSEG BANKED_CODE:HUGECODE:NOROOT(0)
?Subroutine34:
          CFI Block cfiCond123 Using cfiCommon0
          CFI Function afIncomingData
          CFI Conditional ??CrossCallReturnLabel_61
          CFI R6 load(1, XDATA, add(CFA_XSP16, literal(-15)))
          CFI VB load(1, XDATA, add(CFA_XSP16, literal(-14)))
          CFI V0 load(1, XDATA, add(CFA_XSP16, literal(-13)))
          CFI V1 load(1, XDATA, add(CFA_XSP16, literal(-12)))
          CFI V2 load(1, XDATA, add(CFA_XSP16, literal(-11)))
          CFI V3 load(1, XDATA, add(CFA_XSP16, literal(-10)))
          CFI V4 load(1, XDATA, add(CFA_XSP16, literal(-9)))
          CFI V5 load(1, XDATA, add(CFA_XSP16, literal(-8)))
          CFI V6 load(1, XDATA, add(CFA_XSP16, literal(-7)))
          CFI R7 load(1, XDATA, add(CFA_XSP16, literal(-6)))
          CFI ?RET_LOW load(1, XDATA, add(CFA_XSP16, literal(-5)))
          CFI ?RET_HIGH load(1, XDATA, add(CFA_XSP16, literal(-4)))
          CFI ?BRET_EXT load(1, XDATA, add(CFA_XSP16, literal(-3)))
          CFI DPL0 load(1, XDATA, add(CFA_XSP16, literal(-2)))
          CFI DPH0 load(1, XDATA, add(CFA_XSP16, literal(-1)))
          CFI CFA_SP SP+-2
          CFI CFA_XSP16 add(XSP16, 28)
          CFI Block cfiCond124 Using cfiCommon0
          CFI (cfiCond124) Function afBuildMSGIncoming
          CFI (cfiCond124) Conditional ??CrossCallReturnLabel_62
          CFI (cfiCond124) R6 load(1, XDATA, add(CFA_XSP16, literal(-16)))
          CFI (cfiCond124) VB load(1, XDATA, add(CFA_XSP16, literal(-15)))
          CFI (cfiCond124) V0 load(1, XDATA, add(CFA_XSP16, literal(-14)))
          CFI (cfiCond124) V1 load(1, XDATA, add(CFA_XSP16, literal(-13)))
          CFI (cfiCond124) V2 load(1, XDATA, add(CFA_XSP16, literal(-12)))
          CFI (cfiCond124) V3 load(1, XDATA, add(CFA_XSP16, literal(-11)))
          CFI (cfiCond124) V4 load(1, XDATA, add(CFA_XSP16, literal(-10)))
          CFI (cfiCond124) V5 load(1, XDATA, add(CFA_XSP16, literal(-9)))
          CFI (cfiCond124) V6 load(1, XDATA, add(CFA_XSP16, literal(-8)))
          CFI (cfiCond124) V7 load(1, XDATA, add(CFA_XSP16, literal(-7)))
          CFI (cfiCond124) R7 load(1, XDATA, add(CFA_XSP16, literal(-6)))
          CFI (cfiCond124) ?RET_LOW load(1, XDATA, add(CFA_XSP16, literal(-5)))
          CFI (cfiCond124) ?RET_HIGH load(1, XDATA, add(CFA_XSP16, literal(-4)))
          CFI (cfiCond124) ?BRET_EXT load(1, XDATA, add(CFA_XSP16, literal(-3)))
          CFI (cfiCond124) DPL0 load(1, XDATA, add(CFA_XSP16, literal(-2)))
          CFI (cfiCond124) DPH0 load(1, XDATA, add(CFA_XSP16, literal(-1)))
          CFI (cfiCond124) CFA_SP SP+-2
          CFI (cfiCond124) CFA_XSP16 add(XSP16, 19)
          CFI Block cfiCond125 Using cfiCommon0
          CFI (cfiCond125) Function afBuildMSGIncoming
          CFI (cfiCond125) Conditional ??CrossCallReturnLabel_63
          CFI (cfiCond125) R6 load(1, XDATA, add(CFA_XSP16, literal(-16)))
          CFI (cfiCond125) VB load(1, XDATA, add(CFA_XSP16, literal(-15)))
          CFI (cfiCond125) V0 load(1, XDATA, add(CFA_XSP16, literal(-14)))
          CFI (cfiCond125) V1 load(1, XDATA, add(CFA_XSP16, literal(-13)))
          CFI (cfiCond125) V2 load(1, XDATA, add(CFA_XSP16, literal(-12)))
          CFI (cfiCond125) V3 load(1, XDATA, add(CFA_XSP16, literal(-11)))
          CFI (cfiCond125) V4 load(1, XDATA, add(CFA_XSP16, literal(-10)))
          CFI (cfiCond125) V5 load(1, XDATA, add(CFA_XSP16, literal(-9)))
          CFI (cfiCond125) V6 load(1, XDATA, add(CFA_XSP16, literal(-8)))
          CFI (cfiCond125) V7 load(1, XDATA, add(CFA_XSP16, literal(-7)))
          CFI (cfiCond125) R7 load(1, XDATA, add(CFA_XSP16, literal(-6)))
          CFI (cfiCond125) ?RET_LOW load(1, XDATA, add(CFA_XSP16, literal(-5)))
          CFI (cfiCond125) ?RET_HIGH load(1, XDATA, add(CFA_XSP16, literal(-4)))
          CFI (cfiCond125) ?BRET_EXT load(1, XDATA, add(CFA_XSP16, literal(-3)))
          CFI (cfiCond125) DPL0 load(1, XDATA, add(CFA_XSP16, literal(-2)))
          CFI (cfiCond125) DPH0 load(1, XDATA, add(CFA_XSP16, literal(-1)))
          CFI (cfiCond125) CFA_SP SP+-2
          CFI (cfiCond125) CFA_XSP16 add(XSP16, 19)
          CFI Block cfiPicker126 Using cfiCommon1
          CFI (cfiPicker126) NoFunction
          CFI (cfiPicker126) Picker
        MOVX      @DPTR,A
        MOV       DPL,R0
        MOV       DPH,R1
        INC       DPTR
        RET
          CFI EndBlock cfiCond123
          CFI EndBlock cfiCond124
          CFI EndBlock cfiCond125
          CFI EndBlock cfiPicker126

        RSEG BANKED_CODE:HUGECODE:NOROOT(0)
?Subroutine29:
          CFI Block cfiCond127 Using cfiCommon0
          CFI Function afBuildMSGIncoming
          CFI Conditional ??CrossCallReturnLabel_115
          CFI R6 load(1, XDATA, add(CFA_XSP16, literal(-16)))
          CFI VB load(1, XDATA, add(CFA_XSP16, literal(-15)))
          CFI V0 load(1, XDATA, add(CFA_XSP16, literal(-14)))
          CFI V1 load(1, XDATA, add(CFA_XSP16, literal(-13)))
          CFI V2 load(1, XDATA, add(CFA_XSP16, literal(-12)))
          CFI V3 load(1, XDATA, add(CFA_XSP16, literal(-11)))
          CFI V4 load(1, XDATA, add(CFA_XSP16, literal(-10)))
          CFI V5 load(1, XDATA, add(CFA_XSP16, literal(-9)))
          CFI V6 load(1, XDATA, add(CFA_XSP16, literal(-8)))
          CFI V7 load(1, XDATA, add(CFA_XSP16, literal(-7)))
          CFI R7 load(1, XDATA, add(CFA_XSP16, literal(-6)))
          CFI ?RET_LOW load(1, XDATA, add(CFA_XSP16, literal(-5)))
          CFI ?RET_HIGH load(1, XDATA, add(CFA_XSP16, literal(-4)))
          CFI ?BRET_EXT load(1, XDATA, add(CFA_XSP16, literal(-3)))
          CFI DPL0 load(1, XDATA, add(CFA_XSP16, literal(-2)))
          CFI DPH0 load(1, XDATA, add(CFA_XSP16, literal(-1)))
          CFI CFA_SP SP+-2
          CFI CFA_XSP16 add(XSP16, 19)
          CFI Block cfiCond128 Using cfiCommon0
          CFI (cfiCond128) Function afBuildMSGIncoming
          CFI (cfiCond128) Conditional ??CrossCallReturnLabel_116
          CFI (cfiCond128) R6 load(1, XDATA, add(CFA_XSP16, literal(-16)))
          CFI (cfiCond128) VB load(1, XDATA, add(CFA_XSP16, literal(-15)))
          CFI (cfiCond128) V0 load(1, XDATA, add(CFA_XSP16, literal(-14)))
          CFI (cfiCond128) V1 load(1, XDATA, add(CFA_XSP16, literal(-13)))
          CFI (cfiCond128) V2 load(1, XDATA, add(CFA_XSP16, literal(-12)))
          CFI (cfiCond128) V3 load(1, XDATA, add(CFA_XSP16, literal(-11)))
          CFI (cfiCond128) V4 load(1, XDATA, add(CFA_XSP16, literal(-10)))
          CFI (cfiCond128) V5 load(1, XDATA, add(CFA_XSP16, literal(-9)))
          CFI (cfiCond128) V6 load(1, XDATA, add(CFA_XSP16, literal(-8)))
          CFI (cfiCond128) V7 load(1, XDATA, add(CFA_XSP16, literal(-7)))
          CFI (cfiCond128) R7 load(1, XDATA, add(CFA_XSP16, literal(-6)))
          CFI (cfiCond128) ?RET_LOW load(1, XDATA, add(CFA_XSP16, literal(-5)))
          CFI (cfiCond128) ?RET_HIGH load(1, XDATA, add(CFA_XSP16, literal(-4)))
          CFI (cfiCond128) ?BRET_EXT load(1, XDATA, add(CFA_XSP16, literal(-3)))
          CFI (cfiCond128) DPL0 load(1, XDATA, add(CFA_XSP16, literal(-2)))
          CFI (cfiCond128) DPH0 load(1, XDATA, add(CFA_XSP16, literal(-1)))
          CFI (cfiCond128) CFA_SP SP+-2
          CFI (cfiCond128) CFA_XSP16 add(XSP16, 19)
          CFI Block cfiPicker129 Using cfiCommon1
          CFI (cfiPicker129) NoFunction
          CFI (cfiPicker129) Picker
        MOV       DPL,A
        CLR       A
        ADDC      A,R7
        MOV       DPH,A
          CFI EndBlock cfiCond127
          CFI EndBlock cfiCond128
          CFI EndBlock cfiPicker129
        REQUIRE ??Subroutine55_0
        ; // Fall through to label ??Subroutine55_0

        RSEG BANKED_CODE:HUGECODE:NOROOT(0)
??Subroutine55_0:
          CFI Block cfiCond130 Using cfiCommon0
          CFI Function afRegisterExtended
          CFI Conditional ??CrossCallReturnLabel_102
          CFI R6 load(1, XDATA, add(CFA_XSP16, literal(-14)))
          CFI VB load(1, XDATA, add(CFA_XSP16, literal(-13)))
          CFI V0 load(1, XDATA, add(CFA_XSP16, literal(-12)))
          CFI V1 load(1, XDATA, add(CFA_XSP16, literal(-11)))
          CFI V2 load(1, XDATA, add(CFA_XSP16, literal(-10)))
          CFI V3 load(1, XDATA, add(CFA_XSP16, literal(-9)))
          CFI V4 load(1, XDATA, add(CFA_XSP16, literal(-8)))
          CFI V5 load(1, XDATA, add(CFA_XSP16, literal(-7)))
          CFI R7 load(1, XDATA, add(CFA_XSP16, literal(-6)))
          CFI ?RET_LOW load(1, XDATA, add(CFA_XSP16, literal(-5)))
          CFI ?RET_HIGH load(1, XDATA, add(CFA_XSP16, literal(-4)))
          CFI ?BRET_EXT load(1, XDATA, add(CFA_XSP16, literal(-3)))
          CFI DPL0 load(1, XDATA, add(CFA_XSP16, literal(-2)))
          CFI DPH0 load(1, XDATA, add(CFA_XSP16, literal(-1)))
          CFI CFA_SP SP+-2
          CFI CFA_XSP16 add(XSP16, 14)
          CFI Block cfiCond131 Using cfiCommon0
          CFI (cfiCond131) Function afRegisterExtended
          CFI (cfiCond131) Conditional ??CrossCallReturnLabel_103
          CFI (cfiCond131) R6 load(1, XDATA, add(CFA_XSP16, literal(-14)))
          CFI (cfiCond131) VB load(1, XDATA, add(CFA_XSP16, literal(-13)))
          CFI (cfiCond131) V0 load(1, XDATA, add(CFA_XSP16, literal(-12)))
          CFI (cfiCond131) V1 load(1, XDATA, add(CFA_XSP16, literal(-11)))
          CFI (cfiCond131) V2 load(1, XDATA, add(CFA_XSP16, literal(-10)))
          CFI (cfiCond131) V3 load(1, XDATA, add(CFA_XSP16, literal(-9)))
          CFI (cfiCond131) V4 load(1, XDATA, add(CFA_XSP16, literal(-8)))
          CFI (cfiCond131) V5 load(1, XDATA, add(CFA_XSP16, literal(-7)))
          CFI (cfiCond131) R7 load(1, XDATA, add(CFA_XSP16, literal(-6)))
          CFI (cfiCond131) ?RET_LOW load(1, XDATA, add(CFA_XSP16, literal(-5)))
          CFI (cfiCond131) ?RET_HIGH load(1, XDATA, add(CFA_XSP16, literal(-4)))
          CFI (cfiCond131) ?BRET_EXT load(1, XDATA, add(CFA_XSP16, literal(-3)))
          CFI (cfiCond131) DPL0 load(1, XDATA, add(CFA_XSP16, literal(-2)))
          CFI (cfiCond131) DPH0 load(1, XDATA, add(CFA_XSP16, literal(-1)))
          CFI (cfiCond131) CFA_SP SP+-2
          CFI (cfiCond131) CFA_XSP16 add(XSP16, 14)
          CFI Block cfiCond132 Using cfiCommon0
          CFI (cfiCond132) Function afIncomingData
          CFI (cfiCond132) Conditional ??CrossCallReturnLabel_104
          CFI (cfiCond132) R6 load(1, XDATA, add(CFA_XSP16, literal(-15)))
          CFI (cfiCond132) VB load(1, XDATA, add(CFA_XSP16, literal(-14)))
          CFI (cfiCond132) V0 load(1, XDATA, add(CFA_XSP16, literal(-13)))
          CFI (cfiCond132) V1 load(1, XDATA, add(CFA_XSP16, literal(-12)))
          CFI (cfiCond132) V2 load(1, XDATA, add(CFA_XSP16, literal(-11)))
          CFI (cfiCond132) V3 load(1, XDATA, add(CFA_XSP16, literal(-10)))
          CFI (cfiCond132) V4 load(1, XDATA, add(CFA_XSP16, literal(-9)))
          CFI (cfiCond132) V5 load(1, XDATA, add(CFA_XSP16, literal(-8)))
          CFI (cfiCond132) V6 load(1, XDATA, add(CFA_XSP16, literal(-7)))
          CFI (cfiCond132) R7 load(1, XDATA, add(CFA_XSP16, literal(-6)))
          CFI (cfiCond132) ?RET_LOW load(1, XDATA, add(CFA_XSP16, literal(-5)))
          CFI (cfiCond132) ?RET_HIGH load(1, XDATA, add(CFA_XSP16, literal(-4)))
          CFI (cfiCond132) ?BRET_EXT load(1, XDATA, add(CFA_XSP16, literal(-3)))
          CFI (cfiCond132) DPL0 load(1, XDATA, add(CFA_XSP16, literal(-2)))
          CFI (cfiCond132) DPH0 load(1, XDATA, add(CFA_XSP16, literal(-1)))
          CFI (cfiCond132) CFA_SP SP+-2
          CFI (cfiCond132) CFA_XSP16 add(XSP16, 28)
          CFI Block cfiCond133 Using cfiCommon0
          CFI (cfiCond133) Function afIncomingData
          CFI (cfiCond133) Conditional ??CrossCallReturnLabel_105
          CFI (cfiCond133) R6 load(1, XDATA, add(CFA_XSP16, literal(-15)))
          CFI (cfiCond133) VB load(1, XDATA, add(CFA_XSP16, literal(-14)))
          CFI (cfiCond133) V0 load(1, XDATA, add(CFA_XSP16, literal(-13)))
          CFI (cfiCond133) V1 load(1, XDATA, add(CFA_XSP16, literal(-12)))
          CFI (cfiCond133) V2 load(1, XDATA, add(CFA_XSP16, literal(-11)))
          CFI (cfiCond133) V3 load(1, XDATA, add(CFA_XSP16, literal(-10)))
          CFI (cfiCond133) V4 load(1, XDATA, add(CFA_XSP16, literal(-9)))
          CFI (cfiCond133) V5 load(1, XDATA, add(CFA_XSP16, literal(-8)))
          CFI (cfiCond133) V6 load(1, XDATA, add(CFA_XSP16, literal(-7)))
          CFI (cfiCond133) R7 load(1, XDATA, add(CFA_XSP16, literal(-6)))
          CFI (cfiCond133) ?RET_LOW load(1, XDATA, add(CFA_XSP16, literal(-5)))
          CFI (cfiCond133) ?RET_HIGH load(1, XDATA, add(CFA_XSP16, literal(-4)))
          CFI (cfiCond133) ?BRET_EXT load(1, XDATA, add(CFA_XSP16, literal(-3)))
          CFI (cfiCond133) DPL0 load(1, XDATA, add(CFA_XSP16, literal(-2)))
          CFI (cfiCond133) DPH0 load(1, XDATA, add(CFA_XSP16, literal(-1)))
          CFI (cfiCond133) CFA_SP SP+-2
          CFI (cfiCond133) CFA_XSP16 add(XSP16, 28)
          CFI Block cfiCond134 Using cfiCommon0
          CFI (cfiCond134) Function afIncomingData
          CFI (cfiCond134) Conditional ??CrossCallReturnLabel_106
          CFI (cfiCond134) R6 load(1, XDATA, add(CFA_XSP16, literal(-15)))
          CFI (cfiCond134) VB load(1, XDATA, add(CFA_XSP16, literal(-14)))
          CFI (cfiCond134) V0 load(1, XDATA, add(CFA_XSP16, literal(-13)))
          CFI (cfiCond134) V1 load(1, XDATA, add(CFA_XSP16, literal(-12)))
          CFI (cfiCond134) V2 load(1, XDATA, add(CFA_XSP16, literal(-11)))
          CFI (cfiCond134) V3 load(1, XDATA, add(CFA_XSP16, literal(-10)))
          CFI (cfiCond134) V4 load(1, XDATA, add(CFA_XSP16, literal(-9)))
          CFI (cfiCond134) V5 load(1, XDATA, add(CFA_XSP16, literal(-8)))
          CFI (cfiCond134) V6 load(1, XDATA, add(CFA_XSP16, literal(-7)))
          CFI (cfiCond134) R7 load(1, XDATA, add(CFA_XSP16, literal(-6)))
          CFI (cfiCond134) ?RET_LOW load(1, XDATA, add(CFA_XSP16, literal(-5)))
          CFI (cfiCond134) ?RET_HIGH load(1, XDATA, add(CFA_XSP16, literal(-4)))
          CFI (cfiCond134) ?BRET_EXT load(1, XDATA, add(CFA_XSP16, literal(-3)))
          CFI (cfiCond134) DPL0 load(1, XDATA, add(CFA_XSP16, literal(-2)))
          CFI (cfiCond134) DPH0 load(1, XDATA, add(CFA_XSP16, literal(-1)))
          CFI (cfiCond134) CFA_SP SP+-2
          CFI (cfiCond134) CFA_XSP16 add(XSP16, 28)
          CFI Block cfiCond135 Using cfiCommon0
          CFI (cfiCond135) Function afIncomingData
          CFI (cfiCond135) Conditional ??CrossCallReturnLabel_107
          CFI (cfiCond135) R6 load(1, XDATA, add(CFA_XSP16, literal(-15)))
          CFI (cfiCond135) VB load(1, XDATA, add(CFA_XSP16, literal(-14)))
          CFI (cfiCond135) V0 load(1, XDATA, add(CFA_XSP16, literal(-13)))
          CFI (cfiCond135) V1 load(1, XDATA, add(CFA_XSP16, literal(-12)))
          CFI (cfiCond135) V2 load(1, XDATA, add(CFA_XSP16, literal(-11)))
          CFI (cfiCond135) V3 load(1, XDATA, add(CFA_XSP16, literal(-10)))
          CFI (cfiCond135) V4 load(1, XDATA, add(CFA_XSP16, literal(-9)))
          CFI (cfiCond135) V5 load(1, XDATA, add(CFA_XSP16, literal(-8)))
          CFI (cfiCond135) V6 load(1, XDATA, add(CFA_XSP16, literal(-7)))
          CFI (cfiCond135) R7 load(1, XDATA, add(CFA_XSP16, literal(-6)))
          CFI (cfiCond135) ?RET_LOW load(1, XDATA, add(CFA_XSP16, literal(-5)))
          CFI (cfiCond135) ?RET_HIGH load(1, XDATA, add(CFA_XSP16, literal(-4)))
          CFI (cfiCond135) ?BRET_EXT load(1, XDATA, add(CFA_XSP16, literal(-3)))
          CFI (cfiCond135) DPL0 load(1, XDATA, add(CFA_XSP16, literal(-2)))
          CFI (cfiCond135) DPH0 load(1, XDATA, add(CFA_XSP16, literal(-1)))
          CFI (cfiCond135) CFA_SP SP+-2
          CFI (cfiCond135) CFA_XSP16 add(XSP16, 28)
          CFI Block cfiCond136 Using cfiCommon0
          CFI (cfiCond136) Function afIncomingData
          CFI (cfiCond136) Conditional ??CrossCallReturnLabel_108
          CFI (cfiCond136) R6 load(1, XDATA, add(CFA_XSP16, literal(-15)))
          CFI (cfiCond136) VB load(1, XDATA, add(CFA_XSP16, literal(-14)))
          CFI (cfiCond136) V0 load(1, XDATA, add(CFA_XSP16, literal(-13)))
          CFI (cfiCond136) V1 load(1, XDATA, add(CFA_XSP16, literal(-12)))
          CFI (cfiCond136) V2 load(1, XDATA, add(CFA_XSP16, literal(-11)))
          CFI (cfiCond136) V3 load(1, XDATA, add(CFA_XSP16, literal(-10)))
          CFI (cfiCond136) V4 load(1, XDATA, add(CFA_XSP16, literal(-9)))
          CFI (cfiCond136) V5 load(1, XDATA, add(CFA_XSP16, literal(-8)))
          CFI (cfiCond136) V6 load(1, XDATA, add(CFA_XSP16, literal(-7)))
          CFI (cfiCond136) R7 load(1, XDATA, add(CFA_XSP16, literal(-6)))
          CFI (cfiCond136) ?RET_LOW load(1, XDATA, add(CFA_XSP16, literal(-5)))
          CFI (cfiCond136) ?RET_HIGH load(1, XDATA, add(CFA_XSP16, literal(-4)))
          CFI (cfiCond136) ?BRET_EXT load(1, XDATA, add(CFA_XSP16, literal(-3)))
          CFI (cfiCond136) DPL0 load(1, XDATA, add(CFA_XSP16, literal(-2)))
          CFI (cfiCond136) DPH0 load(1, XDATA, add(CFA_XSP16, literal(-1)))
          CFI (cfiCond136) CFA_SP SP+-2
          CFI (cfiCond136) CFA_XSP16 add(XSP16, 28)
          CFI Block cfiCond137 Using cfiCommon0
          CFI (cfiCond137) Function afBuildMSGIncoming
          CFI (cfiCond137) Conditional ??CrossCallReturnLabel_109
          CFI (cfiCond137) R6 load(1, XDATA, add(CFA_XSP16, literal(-16)))
          CFI (cfiCond137) VB load(1, XDATA, add(CFA_XSP16, literal(-15)))
          CFI (cfiCond137) V0 load(1, XDATA, add(CFA_XSP16, literal(-14)))
          CFI (cfiCond137) V1 load(1, XDATA, add(CFA_XSP16, literal(-13)))
          CFI (cfiCond137) V2 load(1, XDATA, add(CFA_XSP16, literal(-12)))
          CFI (cfiCond137) V3 load(1, XDATA, add(CFA_XSP16, literal(-11)))
          CFI (cfiCond137) V4 load(1, XDATA, add(CFA_XSP16, literal(-10)))
          CFI (cfiCond137) V5 load(1, XDATA, add(CFA_XSP16, literal(-9)))
          CFI (cfiCond137) V6 load(1, XDATA, add(CFA_XSP16, literal(-8)))
          CFI (cfiCond137) V7 load(1, XDATA, add(CFA_XSP16, literal(-7)))
          CFI (cfiCond137) R7 load(1, XDATA, add(CFA_XSP16, literal(-6)))
          CFI (cfiCond137) ?RET_LOW load(1, XDATA, add(CFA_XSP16, literal(-5)))
          CFI (cfiCond137) ?RET_HIGH load(1, XDATA, add(CFA_XSP16, literal(-4)))
          CFI (cfiCond137) ?BRET_EXT load(1, XDATA, add(CFA_XSP16, literal(-3)))
          CFI (cfiCond137) DPL0 load(1, XDATA, add(CFA_XSP16, literal(-2)))
          CFI (cfiCond137) DPH0 load(1, XDATA, add(CFA_XSP16, literal(-1)))
          CFI (cfiCond137) CFA_SP SP+-2
          CFI (cfiCond137) CFA_XSP16 add(XSP16, 19)
          CFI Block cfiCond138 Using cfiCommon0
          CFI (cfiCond138) Function afBuildMSGIncoming
          CFI (cfiCond138) Conditional ??CrossCallReturnLabel_110
          CFI (cfiCond138) R6 load(1, XDATA, add(CFA_XSP16, literal(-16)))
          CFI (cfiCond138) VB load(1, XDATA, add(CFA_XSP16, literal(-15)))
          CFI (cfiCond138) V0 load(1, XDATA, add(CFA_XSP16, literal(-14)))
          CFI (cfiCond138) V1 load(1, XDATA, add(CFA_XSP16, literal(-13)))
          CFI (cfiCond138) V2 load(1, XDATA, add(CFA_XSP16, literal(-12)))
          CFI (cfiCond138) V3 load(1, XDATA, add(CFA_XSP16, literal(-11)))
          CFI (cfiCond138) V4 load(1, XDATA, add(CFA_XSP16, literal(-10)))
          CFI (cfiCond138) V5 load(1, XDATA, add(CFA_XSP16, literal(-9)))
          CFI (cfiCond138) V6 load(1, XDATA, add(CFA_XSP16, literal(-8)))
          CFI (cfiCond138) V7 load(1, XDATA, add(CFA_XSP16, literal(-7)))
          CFI (cfiCond138) R7 load(1, XDATA, add(CFA_XSP16, literal(-6)))
          CFI (cfiCond138) ?RET_LOW load(1, XDATA, add(CFA_XSP16, literal(-5)))
          CFI (cfiCond138) ?RET_HIGH load(1, XDATA, add(CFA_XSP16, literal(-4)))
          CFI (cfiCond138) ?BRET_EXT load(1, XDATA, add(CFA_XSP16, literal(-3)))
          CFI (cfiCond138) DPL0 load(1, XDATA, add(CFA_XSP16, literal(-2)))
          CFI (cfiCond138) DPH0 load(1, XDATA, add(CFA_XSP16, literal(-1)))
          CFI (cfiCond138) CFA_SP SP+-2
          CFI (cfiCond138) CFA_XSP16 add(XSP16, 19)
          CFI Block cfiCond139 Using cfiCommon0
          CFI (cfiCond139) Function AF_DataRequest
          CFI (cfiCond139) Conditional ??CrossCallReturnLabel_111
          CFI (cfiCond139) R6 load(1, XDATA, add(CFA_XSP16, literal(-16)))
          CFI (cfiCond139) VB load(1, XDATA, add(CFA_XSP16, literal(-15)))
          CFI (cfiCond139) V0 load(1, XDATA, add(CFA_XSP16, literal(-14)))
          CFI (cfiCond139) V1 load(1, XDATA, add(CFA_XSP16, literal(-13)))
          CFI (cfiCond139) V2 load(1, XDATA, add(CFA_XSP16, literal(-12)))
          CFI (cfiCond139) V3 load(1, XDATA, add(CFA_XSP16, literal(-11)))
          CFI (cfiCond139) V4 load(1, XDATA, add(CFA_XSP16, literal(-10)))
          CFI (cfiCond139) V5 load(1, XDATA, add(CFA_XSP16, literal(-9)))
          CFI (cfiCond139) V6 load(1, XDATA, add(CFA_XSP16, literal(-8)))
          CFI (cfiCond139) V7 load(1, XDATA, add(CFA_XSP16, literal(-7)))
          CFI (cfiCond139) R7 load(1, XDATA, add(CFA_XSP16, literal(-6)))
          CFI (cfiCond139) ?RET_LOW load(1, XDATA, add(CFA_XSP16, literal(-5)))
          CFI (cfiCond139) ?RET_HIGH load(1, XDATA, add(CFA_XSP16, literal(-4)))
          CFI (cfiCond139) ?BRET_EXT load(1, XDATA, add(CFA_XSP16, literal(-3)))
          CFI (cfiCond139) DPL0 load(1, XDATA, add(CFA_XSP16, literal(-2)))
          CFI (cfiCond139) DPH0 load(1, XDATA, add(CFA_XSP16, literal(-1)))
          CFI (cfiCond139) CFA_SP SP+-2
          CFI (cfiCond139) CFA_XSP16 add(XSP16, 49)
          CFI Block cfiCond140 Using cfiCommon0
          CFI (cfiCond140) Function AF_DataRequest
          CFI (cfiCond140) Conditional ??CrossCallReturnLabel_112
          CFI (cfiCond140) R6 load(1, XDATA, add(CFA_XSP16, literal(-16)))
          CFI (cfiCond140) VB load(1, XDATA, add(CFA_XSP16, literal(-15)))
          CFI (cfiCond140) V0 load(1, XDATA, add(CFA_XSP16, literal(-14)))
          CFI (cfiCond140) V1 load(1, XDATA, add(CFA_XSP16, literal(-13)))
          CFI (cfiCond140) V2 load(1, XDATA, add(CFA_XSP16, literal(-12)))
          CFI (cfiCond140) V3 load(1, XDATA, add(CFA_XSP16, literal(-11)))
          CFI (cfiCond140) V4 load(1, XDATA, add(CFA_XSP16, literal(-10)))
          CFI (cfiCond140) V5 load(1, XDATA, add(CFA_XSP16, literal(-9)))
          CFI (cfiCond140) V6 load(1, XDATA, add(CFA_XSP16, literal(-8)))
          CFI (cfiCond140) V7 load(1, XDATA, add(CFA_XSP16, literal(-7)))
          CFI (cfiCond140) R7 load(1, XDATA, add(CFA_XSP16, literal(-6)))
          CFI (cfiCond140) ?RET_LOW load(1, XDATA, add(CFA_XSP16, literal(-5)))
          CFI (cfiCond140) ?RET_HIGH load(1, XDATA, add(CFA_XSP16, literal(-4)))
          CFI (cfiCond140) ?BRET_EXT load(1, XDATA, add(CFA_XSP16, literal(-3)))
          CFI (cfiCond140) DPL0 load(1, XDATA, add(CFA_XSP16, literal(-2)))
          CFI (cfiCond140) DPH0 load(1, XDATA, add(CFA_XSP16, literal(-1)))
          CFI (cfiCond140) CFA_SP SP+-2
          CFI (cfiCond140) CFA_XSP16 add(XSP16, 49)
          CFI Block cfiCond141 Using cfiCommon0
          CFI (cfiCond141) Function AF_DataRequest
          CFI (cfiCond141) Conditional ??CrossCallReturnLabel_113
          CFI (cfiCond141) R6 load(1, XDATA, add(CFA_XSP16, literal(-16)))
          CFI (cfiCond141) VB load(1, XDATA, add(CFA_XSP16, literal(-15)))
          CFI (cfiCond141) V0 load(1, XDATA, add(CFA_XSP16, literal(-14)))
          CFI (cfiCond141) V1 load(1, XDATA, add(CFA_XSP16, literal(-13)))
          CFI (cfiCond141) V2 load(1, XDATA, add(CFA_XSP16, literal(-12)))
          CFI (cfiCond141) V3 load(1, XDATA, add(CFA_XSP16, literal(-11)))
          CFI (cfiCond141) V4 load(1, XDATA, add(CFA_XSP16, literal(-10)))
          CFI (cfiCond141) V5 load(1, XDATA, add(CFA_XSP16, literal(-9)))
          CFI (cfiCond141) V6 load(1, XDATA, add(CFA_XSP16, literal(-8)))
          CFI (cfiCond141) V7 load(1, XDATA, add(CFA_XSP16, literal(-7)))
          CFI (cfiCond141) R7 load(1, XDATA, add(CFA_XSP16, literal(-6)))
          CFI (cfiCond141) ?RET_LOW load(1, XDATA, add(CFA_XSP16, literal(-5)))
          CFI (cfiCond141) ?RET_HIGH load(1, XDATA, add(CFA_XSP16, literal(-4)))
          CFI (cfiCond141) ?BRET_EXT load(1, XDATA, add(CFA_XSP16, literal(-3)))
          CFI (cfiCond141) DPL0 load(1, XDATA, add(CFA_XSP16, literal(-2)))
          CFI (cfiCond141) DPH0 load(1, XDATA, add(CFA_XSP16, literal(-1)))
          CFI (cfiCond141) CFA_SP SP+-2
          CFI (cfiCond141) CFA_XSP16 add(XSP16, 49)
          CFI Block cfiCond142 Using cfiCommon0
          CFI (cfiCond142) Function AF_DataRequest
          CFI (cfiCond142) Conditional ??CrossCallReturnLabel_114
          CFI (cfiCond142) R6 load(1, XDATA, add(CFA_XSP16, literal(-16)))
          CFI (cfiCond142) VB load(1, XDATA, add(CFA_XSP16, literal(-15)))
          CFI (cfiCond142) V0 load(1, XDATA, add(CFA_XSP16, literal(-14)))
          CFI (cfiCond142) V1 load(1, XDATA, add(CFA_XSP16, literal(-13)))
          CFI (cfiCond142) V2 load(1, XDATA, add(CFA_XSP16, literal(-12)))
          CFI (cfiCond142) V3 load(1, XDATA, add(CFA_XSP16, literal(-11)))
          CFI (cfiCond142) V4 load(1, XDATA, add(CFA_XSP16, literal(-10)))
          CFI (cfiCond142) V5 load(1, XDATA, add(CFA_XSP16, literal(-9)))
          CFI (cfiCond142) V6 load(1, XDATA, add(CFA_XSP16, literal(-8)))
          CFI (cfiCond142) V7 load(1, XDATA, add(CFA_XSP16, literal(-7)))
          CFI (cfiCond142) R7 load(1, XDATA, add(CFA_XSP16, literal(-6)))
          CFI (cfiCond142) ?RET_LOW load(1, XDATA, add(CFA_XSP16, literal(-5)))
          CFI (cfiCond142) ?RET_HIGH load(1, XDATA, add(CFA_XSP16, literal(-4)))
          CFI (cfiCond142) ?BRET_EXT load(1, XDATA, add(CFA_XSP16, literal(-3)))
          CFI (cfiCond142) DPL0 load(1, XDATA, add(CFA_XSP16, literal(-2)))
          CFI (cfiCond142) DPH0 load(1, XDATA, add(CFA_XSP16, literal(-1)))
          CFI (cfiCond142) CFA_SP SP+-2
          CFI (cfiCond142) CFA_XSP16 add(XSP16, 49)
          CFI Block cfiCond143 Using cfiCommon0
          CFI (cfiCond143) Function afBuildMSGIncoming
          CFI (cfiCond143) Conditional ??CrossCallReturnLabel_115
          CFI (cfiCond143) R6 load(1, XDATA, add(CFA_XSP16, literal(-16)))
          CFI (cfiCond143) VB load(1, XDATA, add(CFA_XSP16, literal(-15)))
          CFI (cfiCond143) V0 load(1, XDATA, add(CFA_XSP16, literal(-14)))
          CFI (cfiCond143) V1 load(1, XDATA, add(CFA_XSP16, literal(-13)))
          CFI (cfiCond143) V2 load(1, XDATA, add(CFA_XSP16, literal(-12)))
          CFI (cfiCond143) V3 load(1, XDATA, add(CFA_XSP16, literal(-11)))
          CFI (cfiCond143) V4 load(1, XDATA, add(CFA_XSP16, literal(-10)))
          CFI (cfiCond143) V5 load(1, XDATA, add(CFA_XSP16, literal(-9)))
          CFI (cfiCond143) V6 load(1, XDATA, add(CFA_XSP16, literal(-8)))
          CFI (cfiCond143) V7 load(1, XDATA, add(CFA_XSP16, literal(-7)))
          CFI (cfiCond143) R7 load(1, XDATA, add(CFA_XSP16, literal(-6)))
          CFI (cfiCond143) ?RET_LOW load(1, XDATA, add(CFA_XSP16, literal(-5)))
          CFI (cfiCond143) ?RET_HIGH load(1, XDATA, add(CFA_XSP16, literal(-4)))
          CFI (cfiCond143) ?BRET_EXT load(1, XDATA, add(CFA_XSP16, literal(-3)))
          CFI (cfiCond143) DPL0 load(1, XDATA, add(CFA_XSP16, literal(-2)))
          CFI (cfiCond143) DPH0 load(1, XDATA, add(CFA_XSP16, literal(-1)))
          CFI (cfiCond143) CFA_SP SP+-2
          CFI (cfiCond143) CFA_XSP16 add(XSP16, 19)
          CFI Block cfiCond144 Using cfiCommon0
          CFI (cfiCond144) Function afBuildMSGIncoming
          CFI (cfiCond144) Conditional ??CrossCallReturnLabel_116
          CFI (cfiCond144) R6 load(1, XDATA, add(CFA_XSP16, literal(-16)))
          CFI (cfiCond144) VB load(1, XDATA, add(CFA_XSP16, literal(-15)))
          CFI (cfiCond144) V0 load(1, XDATA, add(CFA_XSP16, literal(-14)))
          CFI (cfiCond144) V1 load(1, XDATA, add(CFA_XSP16, literal(-13)))
          CFI (cfiCond144) V2 load(1, XDATA, add(CFA_XSP16, literal(-12)))
          CFI (cfiCond144) V3 load(1, XDATA, add(CFA_XSP16, literal(-11)))
          CFI (cfiCond144) V4 load(1, XDATA, add(CFA_XSP16, literal(-10)))
          CFI (cfiCond144) V5 load(1, XDATA, add(CFA_XSP16, literal(-9)))
          CFI (cfiCond144) V6 load(1, XDATA, add(CFA_XSP16, literal(-8)))
          CFI (cfiCond144) V7 load(1, XDATA, add(CFA_XSP16, literal(-7)))
          CFI (cfiCond144) R7 load(1, XDATA, add(CFA_XSP16, literal(-6)))
          CFI (cfiCond144) ?RET_LOW load(1, XDATA, add(CFA_XSP16, literal(-5)))
          CFI (cfiCond144) ?RET_HIGH load(1, XDATA, add(CFA_XSP16, literal(-4)))
          CFI (cfiCond144) ?BRET_EXT load(1, XDATA, add(CFA_XSP16, literal(-3)))
          CFI (cfiCond144) DPL0 load(1, XDATA, add(CFA_XSP16, literal(-2)))
          CFI (cfiCond144) DPH0 load(1, XDATA, add(CFA_XSP16, literal(-1)))
          CFI (cfiCond144) CFA_SP SP+-2
          CFI (cfiCond144) CFA_XSP16 add(XSP16, 19)
          CFI Block cfiPicker145 Using cfiCommon1
          CFI (cfiPicker145) NoFunction
          CFI (cfiPicker145) Picker
        MOV       A,R0
        MOVX      @DPTR,A
        INC       DPTR
        MOV       A,R1
        MOVX      @DPTR,A
        RET
          CFI EndBlock cfiCond130
          CFI EndBlock cfiCond131
          CFI EndBlock cfiCond132
          CFI EndBlock cfiCond133
          CFI EndBlock cfiCond134
          CFI EndBlock cfiCond135
          CFI EndBlock cfiCond136
          CFI EndBlock cfiCond137
          CFI EndBlock cfiCond138
          CFI EndBlock cfiCond139
          CFI EndBlock cfiCond140
          CFI EndBlock cfiCond141
          CFI EndBlock cfiCond142
          CFI EndBlock cfiCond143
          CFI EndBlock cfiCond144
          CFI EndBlock cfiPicker145

        RSEG BANKED_CODE:HUGECODE:NOROOT(0)
?Subroutine28:
          CFI Block cfiCond146 Using cfiCommon0
          CFI Function afBuildMSGIncoming
          CFI Conditional ??CrossCallReturnLabel_50
          CFI R6 load(1, XDATA, add(CFA_XSP16, literal(-16)))
          CFI VB load(1, XDATA, add(CFA_XSP16, literal(-15)))
          CFI V0 load(1, XDATA, add(CFA_XSP16, literal(-14)))
          CFI V1 load(1, XDATA, add(CFA_XSP16, literal(-13)))
          CFI V2 load(1, XDATA, add(CFA_XSP16, literal(-12)))
          CFI V3 load(1, XDATA, add(CFA_XSP16, literal(-11)))
          CFI V4 load(1, XDATA, add(CFA_XSP16, literal(-10)))
          CFI V5 load(1, XDATA, add(CFA_XSP16, literal(-9)))
          CFI V6 load(1, XDATA, add(CFA_XSP16, literal(-8)))
          CFI V7 load(1, XDATA, add(CFA_XSP16, literal(-7)))
          CFI R7 load(1, XDATA, add(CFA_XSP16, literal(-6)))
          CFI ?RET_LOW load(1, XDATA, add(CFA_XSP16, literal(-5)))
          CFI ?RET_HIGH load(1, XDATA, add(CFA_XSP16, literal(-4)))
          CFI ?BRET_EXT load(1, XDATA, add(CFA_XSP16, literal(-3)))
          CFI DPL0 load(1, XDATA, add(CFA_XSP16, literal(-2)))
          CFI DPH0 load(1, XDATA, add(CFA_XSP16, literal(-1)))
          CFI CFA_SP SP+-2
          CFI CFA_XSP16 add(XSP16, 19)
          CFI Block cfiCond147 Using cfiCommon0
          CFI (cfiCond147) Function afBuildMSGIncoming
          CFI (cfiCond147) Conditional ??CrossCallReturnLabel_51
          CFI (cfiCond147) R6 load(1, XDATA, add(CFA_XSP16, literal(-16)))
          CFI (cfiCond147) VB load(1, XDATA, add(CFA_XSP16, literal(-15)))
          CFI (cfiCond147) V0 load(1, XDATA, add(CFA_XSP16, literal(-14)))
          CFI (cfiCond147) V1 load(1, XDATA, add(CFA_XSP16, literal(-13)))
          CFI (cfiCond147) V2 load(1, XDATA, add(CFA_XSP16, literal(-12)))
          CFI (cfiCond147) V3 load(1, XDATA, add(CFA_XSP16, literal(-11)))
          CFI (cfiCond147) V4 load(1, XDATA, add(CFA_XSP16, literal(-10)))
          CFI (cfiCond147) V5 load(1, XDATA, add(CFA_XSP16, literal(-9)))
          CFI (cfiCond147) V6 load(1, XDATA, add(CFA_XSP16, literal(-8)))
          CFI (cfiCond147) V7 load(1, XDATA, add(CFA_XSP16, literal(-7)))
          CFI (cfiCond147) R7 load(1, XDATA, add(CFA_XSP16, literal(-6)))
          CFI (cfiCond147) ?RET_LOW load(1, XDATA, add(CFA_XSP16, literal(-5)))
          CFI (cfiCond147) ?RET_HIGH load(1, XDATA, add(CFA_XSP16, literal(-4)))
          CFI (cfiCond147) ?BRET_EXT load(1, XDATA, add(CFA_XSP16, literal(-3)))
          CFI (cfiCond147) DPL0 load(1, XDATA, add(CFA_XSP16, literal(-2)))
          CFI (cfiCond147) DPH0 load(1, XDATA, add(CFA_XSP16, literal(-1)))
          CFI (cfiCond147) CFA_SP SP+-2
          CFI (cfiCond147) CFA_XSP16 add(XSP16, 19)
          CFI Block cfiPicker148 Using cfiCommon1
          CFI (cfiPicker148) NoFunction
          CFI (cfiPicker148) Picker
        MOV       A,R0
        MOVX      @DPTR,A
        INC       DPTR
        MOV       A,R1
        LCALL     ?Subroutine39 & 0xFFFF
??CrossCallReturnLabel_71:
        INC       DPTR
        INC       DPTR
        INC       DPTR
        INC       DPTR
        INC       DPTR
        INC       DPTR
        RET
          CFI EndBlock cfiCond146
          CFI EndBlock cfiCond147
          CFI EndBlock cfiPicker148

        RSEG BANKED_CODE:HUGECODE:NOROOT(0)
?Subroutine39:
          CFI Block cfiCond149 Using cfiCommon0
          CFI Function afBuildMSGIncoming
          CFI Conditional ??CrossCallReturnLabel_70
          CFI R6 load(1, XDATA, add(CFA_XSP16, literal(-16)))
          CFI VB load(1, XDATA, add(CFA_XSP16, literal(-15)))
          CFI V0 load(1, XDATA, add(CFA_XSP16, literal(-14)))
          CFI V1 load(1, XDATA, add(CFA_XSP16, literal(-13)))
          CFI V2 load(1, XDATA, add(CFA_XSP16, literal(-12)))
          CFI V3 load(1, XDATA, add(CFA_XSP16, literal(-11)))
          CFI V4 load(1, XDATA, add(CFA_XSP16, literal(-10)))
          CFI V5 load(1, XDATA, add(CFA_XSP16, literal(-9)))
          CFI V6 load(1, XDATA, add(CFA_XSP16, literal(-8)))
          CFI V7 load(1, XDATA, add(CFA_XSP16, literal(-7)))
          CFI R7 load(1, XDATA, add(CFA_XSP16, literal(-6)))
          CFI ?RET_LOW load(1, XDATA, add(CFA_XSP16, literal(-5)))
          CFI ?RET_HIGH load(1, XDATA, add(CFA_XSP16, literal(-4)))
          CFI ?BRET_EXT load(1, XDATA, add(CFA_XSP16, literal(-3)))
          CFI DPL0 load(1, XDATA, add(CFA_XSP16, literal(-2)))
          CFI DPH0 load(1, XDATA, add(CFA_XSP16, literal(-1)))
          CFI CFA_SP SP+-2
          CFI CFA_XSP16 add(XSP16, 19)
          CFI Block cfiCond150 Using cfiCommon0
          CFI (cfiCond150) Function afBuildMSGIncoming
          CFI (cfiCond150) Conditional ??CrossCallReturnLabel_71, ??CrossCallReturnLabel_50
          CFI (cfiCond150) R6 load(1, XDATA, add(CFA_XSP16, literal(-16)))
          CFI (cfiCond150) VB load(1, XDATA, add(CFA_XSP16, literal(-15)))
          CFI (cfiCond150) V0 load(1, XDATA, add(CFA_XSP16, literal(-14)))
          CFI (cfiCond150) V1 load(1, XDATA, add(CFA_XSP16, literal(-13)))
          CFI (cfiCond150) V2 load(1, XDATA, add(CFA_XSP16, literal(-12)))
          CFI (cfiCond150) V3 load(1, XDATA, add(CFA_XSP16, literal(-11)))
          CFI (cfiCond150) V4 load(1, XDATA, add(CFA_XSP16, literal(-10)))
          CFI (cfiCond150) V5 load(1, XDATA, add(CFA_XSP16, literal(-9)))
          CFI (cfiCond150) V6 load(1, XDATA, add(CFA_XSP16, literal(-8)))
          CFI (cfiCond150) V7 load(1, XDATA, add(CFA_XSP16, literal(-7)))
          CFI (cfiCond150) R7 load(1, XDATA, add(CFA_XSP16, literal(-6)))
          CFI (cfiCond150) ?RET_LOW load(1, XDATA, add(CFA_XSP16, literal(-5)))
          CFI (cfiCond150) ?RET_HIGH load(1, XDATA, add(CFA_XSP16, literal(-4)))
          CFI (cfiCond150) ?BRET_EXT load(1, XDATA, add(CFA_XSP16, literal(-3)))
          CFI (cfiCond150) DPL0 load(1, XDATA, add(CFA_XSP16, literal(-2)))
          CFI (cfiCond150) DPH0 load(1, XDATA, add(CFA_XSP16, literal(-1)))
          CFI (cfiCond150) CFA_SP SP+-4
          CFI (cfiCond150) CFA_XSP16 add(XSP16, 19)
          CFI Block cfiCond151 Using cfiCommon0
          CFI (cfiCond151) Function afBuildMSGIncoming
          CFI (cfiCond151) Conditional ??CrossCallReturnLabel_71, ??CrossCallReturnLabel_51
          CFI (cfiCond151) R6 load(1, XDATA, add(CFA_XSP16, literal(-16)))
          CFI (cfiCond151) VB load(1, XDATA, add(CFA_XSP16, literal(-15)))
          CFI (cfiCond151) V0 load(1, XDATA, add(CFA_XSP16, literal(-14)))
          CFI (cfiCond151) V1 load(1, XDATA, add(CFA_XSP16, literal(-13)))
          CFI (cfiCond151) V2 load(1, XDATA, add(CFA_XSP16, literal(-12)))
          CFI (cfiCond151) V3 load(1, XDATA, add(CFA_XSP16, literal(-11)))
          CFI (cfiCond151) V4 load(1, XDATA, add(CFA_XSP16, literal(-10)))
          CFI (cfiCond151) V5 load(1, XDATA, add(CFA_XSP16, literal(-9)))
          CFI (cfiCond151) V6 load(1, XDATA, add(CFA_XSP16, literal(-8)))
          CFI (cfiCond151) V7 load(1, XDATA, add(CFA_XSP16, literal(-7)))
          CFI (cfiCond151) R7 load(1, XDATA, add(CFA_XSP16, literal(-6)))
          CFI (cfiCond151) ?RET_LOW load(1, XDATA, add(CFA_XSP16, literal(-5)))
          CFI (cfiCond151) ?RET_HIGH load(1, XDATA, add(CFA_XSP16, literal(-4)))
          CFI (cfiCond151) ?BRET_EXT load(1, XDATA, add(CFA_XSP16, literal(-3)))
          CFI (cfiCond151) DPL0 load(1, XDATA, add(CFA_XSP16, literal(-2)))
          CFI (cfiCond151) DPH0 load(1, XDATA, add(CFA_XSP16, literal(-1)))
          CFI (cfiCond151) CFA_SP SP+-4
          CFI (cfiCond151) CFA_XSP16 add(XSP16, 19)
          CFI Block cfiCond152 Using cfiCommon0
          CFI (cfiCond152) Function AF_DataRequest
          CFI (cfiCond152) Conditional ??CrossCallReturnLabel_72, ??CrossCallReturnLabel_66
          CFI (cfiCond152) R6 load(1, XDATA, add(CFA_XSP16, literal(-16)))
          CFI (cfiCond152) VB load(1, XDATA, add(CFA_XSP16, literal(-15)))
          CFI (cfiCond152) V0 load(1, XDATA, add(CFA_XSP16, literal(-14)))
          CFI (cfiCond152) V1 load(1, XDATA, add(CFA_XSP16, literal(-13)))
          CFI (cfiCond152) V2 load(1, XDATA, add(CFA_XSP16, literal(-12)))
          CFI (cfiCond152) V3 load(1, XDATA, add(CFA_XSP16, literal(-11)))
          CFI (cfiCond152) V4 load(1, XDATA, add(CFA_XSP16, literal(-10)))
          CFI (cfiCond152) V5 load(1, XDATA, add(CFA_XSP16, literal(-9)))
          CFI (cfiCond152) V6 load(1, XDATA, add(CFA_XSP16, literal(-8)))
          CFI (cfiCond152) V7 load(1, XDATA, add(CFA_XSP16, literal(-7)))
          CFI (cfiCond152) R7 load(1, XDATA, add(CFA_XSP16, literal(-6)))
          CFI (cfiCond152) ?RET_LOW load(1, XDATA, add(CFA_XSP16, literal(-5)))
          CFI (cfiCond152) ?RET_HIGH load(1, XDATA, add(CFA_XSP16, literal(-4)))
          CFI (cfiCond152) ?BRET_EXT load(1, XDATA, add(CFA_XSP16, literal(-3)))
          CFI (cfiCond152) DPL0 load(1, XDATA, add(CFA_XSP16, literal(-2)))
          CFI (cfiCond152) DPH0 load(1, XDATA, add(CFA_XSP16, literal(-1)))
          CFI (cfiCond152) CFA_SP SP+-4
          CFI (cfiCond152) CFA_XSP16 add(XSP16, 49)
          CFI Block cfiCond153 Using cfiCommon0
          CFI (cfiCond153) Function AF_DataRequest
          CFI (cfiCond153) Conditional ??CrossCallReturnLabel_72, ??CrossCallReturnLabel_67
          CFI (cfiCond153) R6 load(1, XDATA, add(CFA_XSP16, literal(-16)))
          CFI (cfiCond153) VB load(1, XDATA, add(CFA_XSP16, literal(-15)))
          CFI (cfiCond153) V0 load(1, XDATA, add(CFA_XSP16, literal(-14)))
          CFI (cfiCond153) V1 load(1, XDATA, add(CFA_XSP16, literal(-13)))
          CFI (cfiCond153) V2 load(1, XDATA, add(CFA_XSP16, literal(-12)))
          CFI (cfiCond153) V3 load(1, XDATA, add(CFA_XSP16, literal(-11)))
          CFI (cfiCond153) V4 load(1, XDATA, add(CFA_XSP16, literal(-10)))
          CFI (cfiCond153) V5 load(1, XDATA, add(CFA_XSP16, literal(-9)))
          CFI (cfiCond153) V6 load(1, XDATA, add(CFA_XSP16, literal(-8)))
          CFI (cfiCond153) V7 load(1, XDATA, add(CFA_XSP16, literal(-7)))
          CFI (cfiCond153) R7 load(1, XDATA, add(CFA_XSP16, literal(-6)))
          CFI (cfiCond153) ?RET_LOW load(1, XDATA, add(CFA_XSP16, literal(-5)))
          CFI (cfiCond153) ?RET_HIGH load(1, XDATA, add(CFA_XSP16, literal(-4)))
          CFI (cfiCond153) ?BRET_EXT load(1, XDATA, add(CFA_XSP16, literal(-3)))
          CFI (cfiCond153) DPL0 load(1, XDATA, add(CFA_XSP16, literal(-2)))
          CFI (cfiCond153) DPH0 load(1, XDATA, add(CFA_XSP16, literal(-1)))
          CFI (cfiCond153) CFA_SP SP+-4
          CFI (cfiCond153) CFA_XSP16 add(XSP16, 49)
          CFI Block cfiPicker154 Using cfiCommon1
          CFI (cfiPicker154) NoFunction
          CFI (cfiPicker154) Picker
        MOVX      @DPTR,A
        ; Setup parameters for call to function afFindEndPointDescList
        MOV       DPL,?V0
        MOV       DPH,?V1
        RET
          CFI EndBlock cfiCond149
          CFI EndBlock cfiCond150
          CFI EndBlock cfiCond151
          CFI EndBlock cfiCond152
          CFI EndBlock cfiCond153
          CFI EndBlock cfiPicker154

        RSEG BANKED_CODE:HUGECODE:NOROOT(0)
?Subroutine23:
          CFI Block cfiCond155 Using cfiCommon0
          CFI Function afBuildMSGIncoming
          CFI Conditional ??CrossCallReturnLabel_125
          CFI R6 load(1, XDATA, add(CFA_XSP16, literal(-16)))
          CFI VB load(1, XDATA, add(CFA_XSP16, literal(-15)))
          CFI V0 load(1, XDATA, add(CFA_XSP16, literal(-14)))
          CFI V1 load(1, XDATA, add(CFA_XSP16, literal(-13)))
          CFI V2 load(1, XDATA, add(CFA_XSP16, literal(-12)))
          CFI V3 load(1, XDATA, add(CFA_XSP16, literal(-11)))
          CFI V4 load(1, XDATA, add(CFA_XSP16, literal(-10)))
          CFI V5 load(1, XDATA, add(CFA_XSP16, literal(-9)))
          CFI V6 load(1, XDATA, add(CFA_XSP16, literal(-8)))
          CFI V7 load(1, XDATA, add(CFA_XSP16, literal(-7)))
          CFI R7 load(1, XDATA, add(CFA_XSP16, literal(-6)))
          CFI ?RET_LOW load(1, XDATA, add(CFA_XSP16, literal(-5)))
          CFI ?RET_HIGH load(1, XDATA, add(CFA_XSP16, literal(-4)))
          CFI ?BRET_EXT load(1, XDATA, add(CFA_XSP16, literal(-3)))
          CFI DPL0 load(1, XDATA, add(CFA_XSP16, literal(-2)))
          CFI DPH0 load(1, XDATA, add(CFA_XSP16, literal(-1)))
          CFI CFA_SP SP+-2
          CFI CFA_XSP16 add(XSP16, 19)
          CFI Block cfiCond156 Using cfiCommon0
          CFI (cfiCond156) Function AF_DataRequest
          CFI (cfiCond156) Conditional ??CrossCallReturnLabel_126
          CFI (cfiCond156) R6 load(1, XDATA, add(CFA_XSP16, literal(-16)))
          CFI (cfiCond156) VB load(1, XDATA, add(CFA_XSP16, literal(-15)))
          CFI (cfiCond156) V0 load(1, XDATA, add(CFA_XSP16, literal(-14)))
          CFI (cfiCond156) V1 load(1, XDATA, add(CFA_XSP16, literal(-13)))
          CFI (cfiCond156) V2 load(1, XDATA, add(CFA_XSP16, literal(-12)))
          CFI (cfiCond156) V3 load(1, XDATA, add(CFA_XSP16, literal(-11)))
          CFI (cfiCond156) V4 load(1, XDATA, add(CFA_XSP16, literal(-10)))
          CFI (cfiCond156) V5 load(1, XDATA, add(CFA_XSP16, literal(-9)))
          CFI (cfiCond156) V6 load(1, XDATA, add(CFA_XSP16, literal(-8)))
          CFI (cfiCond156) V7 load(1, XDATA, add(CFA_XSP16, literal(-7)))
          CFI (cfiCond156) R7 load(1, XDATA, add(CFA_XSP16, literal(-6)))
          CFI (cfiCond156) ?RET_LOW load(1, XDATA, add(CFA_XSP16, literal(-5)))
          CFI (cfiCond156) ?RET_HIGH load(1, XDATA, add(CFA_XSP16, literal(-4)))
          CFI (cfiCond156) ?BRET_EXT load(1, XDATA, add(CFA_XSP16, literal(-3)))
          CFI (cfiCond156) DPL0 load(1, XDATA, add(CFA_XSP16, literal(-2)))
          CFI (cfiCond156) DPH0 load(1, XDATA, add(CFA_XSP16, literal(-1)))
          CFI (cfiCond156) CFA_SP SP+-2
          CFI (cfiCond156) CFA_XSP16 add(XSP16, 49)
          CFI Block cfiPicker157 Using cfiCommon1
          CFI (cfiPicker157) NoFunction
          CFI (cfiPicker157) Picker
        INC       DPTR
        INC       DPTR
        INC       DPTR
          CFI EndBlock cfiCond155
          CFI EndBlock cfiCond156
          CFI EndBlock cfiPicker157
        REQUIRE ??Subroutine56_0
        ; // Fall through to label ??Subroutine56_0

        RSEG BANKED_CODE:HUGECODE:NOROOT(0)
??Subroutine56_0:
          CFI Block cfiCond158 Using cfiCommon0
          CFI Function AF_DataRequest
          CFI Conditional ??CrossCallReturnLabel_124
          CFI R6 load(1, XDATA, add(CFA_XSP16, literal(-16)))
          CFI VB load(1, XDATA, add(CFA_XSP16, literal(-15)))
          CFI V0 load(1, XDATA, add(CFA_XSP16, literal(-14)))
          CFI V1 load(1, XDATA, add(CFA_XSP16, literal(-13)))
          CFI V2 load(1, XDATA, add(CFA_XSP16, literal(-12)))
          CFI V3 load(1, XDATA, add(CFA_XSP16, literal(-11)))
          CFI V4 load(1, XDATA, add(CFA_XSP16, literal(-10)))
          CFI V5 load(1, XDATA, add(CFA_XSP16, literal(-9)))
          CFI V6 load(1, XDATA, add(CFA_XSP16, literal(-8)))
          CFI V7 load(1, XDATA, add(CFA_XSP16, literal(-7)))
          CFI R7 load(1, XDATA, add(CFA_XSP16, literal(-6)))
          CFI ?RET_LOW load(1, XDATA, add(CFA_XSP16, literal(-5)))
          CFI ?RET_HIGH load(1, XDATA, add(CFA_XSP16, literal(-4)))
          CFI ?BRET_EXT load(1, XDATA, add(CFA_XSP16, literal(-3)))
          CFI DPL0 load(1, XDATA, add(CFA_XSP16, literal(-2)))
          CFI DPH0 load(1, XDATA, add(CFA_XSP16, literal(-1)))
          CFI CFA_SP SP+-2
          CFI CFA_XSP16 add(XSP16, 49)
          CFI Block cfiCond159 Using cfiCommon0
          CFI (cfiCond159) Function afBuildMSGIncoming
          CFI (cfiCond159) Conditional ??CrossCallReturnLabel_125
          CFI (cfiCond159) R6 load(1, XDATA, add(CFA_XSP16, literal(-16)))
          CFI (cfiCond159) VB load(1, XDATA, add(CFA_XSP16, literal(-15)))
          CFI (cfiCond159) V0 load(1, XDATA, add(CFA_XSP16, literal(-14)))
          CFI (cfiCond159) V1 load(1, XDATA, add(CFA_XSP16, literal(-13)))
          CFI (cfiCond159) V2 load(1, XDATA, add(CFA_XSP16, literal(-12)))
          CFI (cfiCond159) V3 load(1, XDATA, add(CFA_XSP16, literal(-11)))
          CFI (cfiCond159) V4 load(1, XDATA, add(CFA_XSP16, literal(-10)))
          CFI (cfiCond159) V5 load(1, XDATA, add(CFA_XSP16, literal(-9)))
          CFI (cfiCond159) V6 load(1, XDATA, add(CFA_XSP16, literal(-8)))
          CFI (cfiCond159) V7 load(1, XDATA, add(CFA_XSP16, literal(-7)))
          CFI (cfiCond159) R7 load(1, XDATA, add(CFA_XSP16, literal(-6)))
          CFI (cfiCond159) ?RET_LOW load(1, XDATA, add(CFA_XSP16, literal(-5)))
          CFI (cfiCond159) ?RET_HIGH load(1, XDATA, add(CFA_XSP16, literal(-4)))
          CFI (cfiCond159) ?BRET_EXT load(1, XDATA, add(CFA_XSP16, literal(-3)))
          CFI (cfiCond159) DPL0 load(1, XDATA, add(CFA_XSP16, literal(-2)))
          CFI (cfiCond159) DPH0 load(1, XDATA, add(CFA_XSP16, literal(-1)))
          CFI (cfiCond159) CFA_SP SP+-2
          CFI (cfiCond159) CFA_XSP16 add(XSP16, 19)
          CFI Block cfiCond160 Using cfiCommon0
          CFI (cfiCond160) Function AF_DataRequest
          CFI (cfiCond160) Conditional ??CrossCallReturnLabel_126
          CFI (cfiCond160) R6 load(1, XDATA, add(CFA_XSP16, literal(-16)))
          CFI (cfiCond160) VB load(1, XDATA, add(CFA_XSP16, literal(-15)))
          CFI (cfiCond160) V0 load(1, XDATA, add(CFA_XSP16, literal(-14)))
          CFI (cfiCond160) V1 load(1, XDATA, add(CFA_XSP16, literal(-13)))
          CFI (cfiCond160) V2 load(1, XDATA, add(CFA_XSP16, literal(-12)))
          CFI (cfiCond160) V3 load(1, XDATA, add(CFA_XSP16, literal(-11)))
          CFI (cfiCond160) V4 load(1, XDATA, add(CFA_XSP16, literal(-10)))
          CFI (cfiCond160) V5 load(1, XDATA, add(CFA_XSP16, literal(-9)))
          CFI (cfiCond160) V6 load(1, XDATA, add(CFA_XSP16, literal(-8)))
          CFI (cfiCond160) V7 load(1, XDATA, add(CFA_XSP16, literal(-7)))
          CFI (cfiCond160) R7 load(1, XDATA, add(CFA_XSP16, literal(-6)))
          CFI (cfiCond160) ?RET_LOW load(1, XDATA, add(CFA_XSP16, literal(-5)))
          CFI (cfiCond160) ?RET_HIGH load(1, XDATA, add(CFA_XSP16, literal(-4)))
          CFI (cfiCond160) ?BRET_EXT load(1, XDATA, add(CFA_XSP16, literal(-3)))
          CFI (cfiCond160) DPL0 load(1, XDATA, add(CFA_XSP16, literal(-2)))
          CFI (cfiCond160) DPH0 load(1, XDATA, add(CFA_XSP16, literal(-1)))
          CFI (cfiCond160) CFA_SP SP+-2
          CFI (cfiCond160) CFA_XSP16 add(XSP16, 49)
          CFI Block cfiPicker161 Using cfiCommon1
          CFI (cfiPicker161) NoFunction
          CFI (cfiPicker161) Picker
        INC       DPTR
          CFI EndBlock cfiCond158
          CFI EndBlock cfiCond159
          CFI EndBlock cfiCond160
          CFI EndBlock cfiPicker161
        REQUIRE ??Subroutine57_0
        ; // Fall through to label ??Subroutine57_0

        RSEG BANKED_CODE:HUGECODE:NOROOT(0)
??Subroutine57_0:
          CFI Block cfiCond162 Using cfiCommon0
          CFI Function afRegisterExtended
          CFI Conditional ??CrossCallReturnLabel_117
          CFI R6 load(1, XDATA, add(CFA_XSP16, literal(-14)))
          CFI VB load(1, XDATA, add(CFA_XSP16, literal(-13)))
          CFI V0 load(1, XDATA, add(CFA_XSP16, literal(-12)))
          CFI V1 load(1, XDATA, add(CFA_XSP16, literal(-11)))
          CFI V2 load(1, XDATA, add(CFA_XSP16, literal(-10)))
          CFI V3 load(1, XDATA, add(CFA_XSP16, literal(-9)))
          CFI V4 load(1, XDATA, add(CFA_XSP16, literal(-8)))
          CFI V5 load(1, XDATA, add(CFA_XSP16, literal(-7)))
          CFI R7 load(1, XDATA, add(CFA_XSP16, literal(-6)))
          CFI ?RET_LOW load(1, XDATA, add(CFA_XSP16, literal(-5)))
          CFI ?RET_HIGH load(1, XDATA, add(CFA_XSP16, literal(-4)))
          CFI ?BRET_EXT load(1, XDATA, add(CFA_XSP16, literal(-3)))
          CFI DPL0 load(1, XDATA, add(CFA_XSP16, literal(-2)))
          CFI DPH0 load(1, XDATA, add(CFA_XSP16, literal(-1)))
          CFI CFA_SP SP+-2
          CFI CFA_XSP16 add(XSP16, 14)
          CFI Block cfiCond163 Using cfiCommon0
          CFI (cfiCond163) Function afIncomingData
          CFI (cfiCond163) Conditional ??CrossCallReturnLabel_118
          CFI (cfiCond163) R6 load(1, XDATA, add(CFA_XSP16, literal(-15)))
          CFI (cfiCond163) VB load(1, XDATA, add(CFA_XSP16, literal(-14)))
          CFI (cfiCond163) V0 load(1, XDATA, add(CFA_XSP16, literal(-13)))
          CFI (cfiCond163) V1 load(1, XDATA, add(CFA_XSP16, literal(-12)))
          CFI (cfiCond163) V2 load(1, XDATA, add(CFA_XSP16, literal(-11)))
          CFI (cfiCond163) V3 load(1, XDATA, add(CFA_XSP16, literal(-10)))
          CFI (cfiCond163) V4 load(1, XDATA, add(CFA_XSP16, literal(-9)))
          CFI (cfiCond163) V5 load(1, XDATA, add(CFA_XSP16, literal(-8)))
          CFI (cfiCond163) V6 load(1, XDATA, add(CFA_XSP16, literal(-7)))
          CFI (cfiCond163) R7 load(1, XDATA, add(CFA_XSP16, literal(-6)))
          CFI (cfiCond163) ?RET_LOW load(1, XDATA, add(CFA_XSP16, literal(-5)))
          CFI (cfiCond163) ?RET_HIGH load(1, XDATA, add(CFA_XSP16, literal(-4)))
          CFI (cfiCond163) ?BRET_EXT load(1, XDATA, add(CFA_XSP16, literal(-3)))
          CFI (cfiCond163) DPL0 load(1, XDATA, add(CFA_XSP16, literal(-2)))
          CFI (cfiCond163) DPH0 load(1, XDATA, add(CFA_XSP16, literal(-1)))
          CFI (cfiCond163) CFA_SP SP+-2
          CFI (cfiCond163) CFA_XSP16 add(XSP16, 28)
          CFI Block cfiCond164 Using cfiCommon0
          CFI (cfiCond164) Function afBuildMSGIncoming
          CFI (cfiCond164) Conditional ??CrossCallReturnLabel_119
          CFI (cfiCond164) R6 load(1, XDATA, add(CFA_XSP16, literal(-16)))
          CFI (cfiCond164) VB load(1, XDATA, add(CFA_XSP16, literal(-15)))
          CFI (cfiCond164) V0 load(1, XDATA, add(CFA_XSP16, literal(-14)))
          CFI (cfiCond164) V1 load(1, XDATA, add(CFA_XSP16, literal(-13)))
          CFI (cfiCond164) V2 load(1, XDATA, add(CFA_XSP16, literal(-12)))
          CFI (cfiCond164) V3 load(1, XDATA, add(CFA_XSP16, literal(-11)))
          CFI (cfiCond164) V4 load(1, XDATA, add(CFA_XSP16, literal(-10)))
          CFI (cfiCond164) V5 load(1, XDATA, add(CFA_XSP16, literal(-9)))
          CFI (cfiCond164) V6 load(1, XDATA, add(CFA_XSP16, literal(-8)))
          CFI (cfiCond164) V7 load(1, XDATA, add(CFA_XSP16, literal(-7)))
          CFI (cfiCond164) R7 load(1, XDATA, add(CFA_XSP16, literal(-6)))
          CFI (cfiCond164) ?RET_LOW load(1, XDATA, add(CFA_XSP16, literal(-5)))
          CFI (cfiCond164) ?RET_HIGH load(1, XDATA, add(CFA_XSP16, literal(-4)))
          CFI (cfiCond164) ?BRET_EXT load(1, XDATA, add(CFA_XSP16, literal(-3)))
          CFI (cfiCond164) DPL0 load(1, XDATA, add(CFA_XSP16, literal(-2)))
          CFI (cfiCond164) DPH0 load(1, XDATA, add(CFA_XSP16, literal(-1)))
          CFI (cfiCond164) CFA_SP SP+-2
          CFI (cfiCond164) CFA_XSP16 add(XSP16, 19)
          CFI Block cfiCond165 Using cfiCommon0
          CFI (cfiCond165) Function AF_DataRequest
          CFI (cfiCond165) Conditional ??CrossCallReturnLabel_120
          CFI (cfiCond165) R6 load(1, XDATA, add(CFA_XSP16, literal(-16)))
          CFI (cfiCond165) VB load(1, XDATA, add(CFA_XSP16, literal(-15)))
          CFI (cfiCond165) V0 load(1, XDATA, add(CFA_XSP16, literal(-14)))
          CFI (cfiCond165) V1 load(1, XDATA, add(CFA_XSP16, literal(-13)))
          CFI (cfiCond165) V2 load(1, XDATA, add(CFA_XSP16, literal(-12)))
          CFI (cfiCond165) V3 load(1, XDATA, add(CFA_XSP16, literal(-11)))
          CFI (cfiCond165) V4 load(1, XDATA, add(CFA_XSP16, literal(-10)))
          CFI (cfiCond165) V5 load(1, XDATA, add(CFA_XSP16, literal(-9)))
          CFI (cfiCond165) V6 load(1, XDATA, add(CFA_XSP16, literal(-8)))
          CFI (cfiCond165) V7 load(1, XDATA, add(CFA_XSP16, literal(-7)))
          CFI (cfiCond165) R7 load(1, XDATA, add(CFA_XSP16, literal(-6)))
          CFI (cfiCond165) ?RET_LOW load(1, XDATA, add(CFA_XSP16, literal(-5)))
          CFI (cfiCond165) ?RET_HIGH load(1, XDATA, add(CFA_XSP16, literal(-4)))
          CFI (cfiCond165) ?BRET_EXT load(1, XDATA, add(CFA_XSP16, literal(-3)))
          CFI (cfiCond165) DPL0 load(1, XDATA, add(CFA_XSP16, literal(-2)))
          CFI (cfiCond165) DPH0 load(1, XDATA, add(CFA_XSP16, literal(-1)))
          CFI (cfiCond165) CFA_SP SP+-2
          CFI (cfiCond165) CFA_XSP16 add(XSP16, 49)
          CFI Block cfiCond166 Using cfiCommon0
          CFI (cfiCond166) Function AF_DataRequest
          CFI (cfiCond166) Conditional ??CrossCallReturnLabel_121
          CFI (cfiCond166) R6 load(1, XDATA, add(CFA_XSP16, literal(-16)))
          CFI (cfiCond166) VB load(1, XDATA, add(CFA_XSP16, literal(-15)))
          CFI (cfiCond166) V0 load(1, XDATA, add(CFA_XSP16, literal(-14)))
          CFI (cfiCond166) V1 load(1, XDATA, add(CFA_XSP16, literal(-13)))
          CFI (cfiCond166) V2 load(1, XDATA, add(CFA_XSP16, literal(-12)))
          CFI (cfiCond166) V3 load(1, XDATA, add(CFA_XSP16, literal(-11)))
          CFI (cfiCond166) V4 load(1, XDATA, add(CFA_XSP16, literal(-10)))
          CFI (cfiCond166) V5 load(1, XDATA, add(CFA_XSP16, literal(-9)))
          CFI (cfiCond166) V6 load(1, XDATA, add(CFA_XSP16, literal(-8)))
          CFI (cfiCond166) V7 load(1, XDATA, add(CFA_XSP16, literal(-7)))
          CFI (cfiCond166) R7 load(1, XDATA, add(CFA_XSP16, literal(-6)))
          CFI (cfiCond166) ?RET_LOW load(1, XDATA, add(CFA_XSP16, literal(-5)))
          CFI (cfiCond166) ?RET_HIGH load(1, XDATA, add(CFA_XSP16, literal(-4)))
          CFI (cfiCond166) ?BRET_EXT load(1, XDATA, add(CFA_XSP16, literal(-3)))
          CFI (cfiCond166) DPL0 load(1, XDATA, add(CFA_XSP16, literal(-2)))
          CFI (cfiCond166) DPH0 load(1, XDATA, add(CFA_XSP16, literal(-1)))
          CFI (cfiCond166) CFA_SP SP+-2
          CFI (cfiCond166) CFA_XSP16 add(XSP16, 49)
          CFI Block cfiCond167 Using cfiCommon0
          CFI (cfiCond167) Function AF_DataRequest
          CFI (cfiCond167) Conditional ??CrossCallReturnLabel_122
          CFI (cfiCond167) R6 load(1, XDATA, add(CFA_XSP16, literal(-16)))
          CFI (cfiCond167) VB load(1, XDATA, add(CFA_XSP16, literal(-15)))
          CFI (cfiCond167) V0 load(1, XDATA, add(CFA_XSP16, literal(-14)))
          CFI (cfiCond167) V1 load(1, XDATA, add(CFA_XSP16, literal(-13)))
          CFI (cfiCond167) V2 load(1, XDATA, add(CFA_XSP16, literal(-12)))
          CFI (cfiCond167) V3 load(1, XDATA, add(CFA_XSP16, literal(-11)))
          CFI (cfiCond167) V4 load(1, XDATA, add(CFA_XSP16, literal(-10)))
          CFI (cfiCond167) V5 load(1, XDATA, add(CFA_XSP16, literal(-9)))
          CFI (cfiCond167) V6 load(1, XDATA, add(CFA_XSP16, literal(-8)))
          CFI (cfiCond167) V7 load(1, XDATA, add(CFA_XSP16, literal(-7)))
          CFI (cfiCond167) R7 load(1, XDATA, add(CFA_XSP16, literal(-6)))
          CFI (cfiCond167) ?RET_LOW load(1, XDATA, add(CFA_XSP16, literal(-5)))
          CFI (cfiCond167) ?RET_HIGH load(1, XDATA, add(CFA_XSP16, literal(-4)))
          CFI (cfiCond167) ?BRET_EXT load(1, XDATA, add(CFA_XSP16, literal(-3)))
          CFI (cfiCond167) DPL0 load(1, XDATA, add(CFA_XSP16, literal(-2)))
          CFI (cfiCond167) DPH0 load(1, XDATA, add(CFA_XSP16, literal(-1)))
          CFI (cfiCond167) CFA_SP SP+-2
          CFI (cfiCond167) CFA_XSP16 add(XSP16, 49)
          CFI Block cfiCond168 Using cfiCommon0
          CFI (cfiCond168) Function AF_DataRequest
          CFI (cfiCond168) Conditional ??CrossCallReturnLabel_123
          CFI (cfiCond168) R6 load(1, XDATA, add(CFA_XSP16, literal(-16)))
          CFI (cfiCond168) VB load(1, XDATA, add(CFA_XSP16, literal(-15)))
          CFI (cfiCond168) V0 load(1, XDATA, add(CFA_XSP16, literal(-14)))
          CFI (cfiCond168) V1 load(1, XDATA, add(CFA_XSP16, literal(-13)))
          CFI (cfiCond168) V2 load(1, XDATA, add(CFA_XSP16, literal(-12)))
          CFI (cfiCond168) V3 load(1, XDATA, add(CFA_XSP16, literal(-11)))
          CFI (cfiCond168) V4 load(1, XDATA, add(CFA_XSP16, literal(-10)))
          CFI (cfiCond168) V5 load(1, XDATA, add(CFA_XSP16, literal(-9)))
          CFI (cfiCond168) V6 load(1, XDATA, add(CFA_XSP16, literal(-8)))
          CFI (cfiCond168) V7 load(1, XDATA, add(CFA_XSP16, literal(-7)))
          CFI (cfiCond168) R7 load(1, XDATA, add(CFA_XSP16, literal(-6)))
          CFI (cfiCond168) ?RET_LOW load(1, XDATA, add(CFA_XSP16, literal(-5)))
          CFI (cfiCond168) ?RET_HIGH load(1, XDATA, add(CFA_XSP16, literal(-4)))
          CFI (cfiCond168) ?BRET_EXT load(1, XDATA, add(CFA_XSP16, literal(-3)))
          CFI (cfiCond168) DPL0 load(1, XDATA, add(CFA_XSP16, literal(-2)))
          CFI (cfiCond168) DPH0 load(1, XDATA, add(CFA_XSP16, literal(-1)))
          CFI (cfiCond168) CFA_SP SP+-2
          CFI (cfiCond168) CFA_XSP16 add(XSP16, 49)
          CFI Block cfiCond169 Using cfiCommon0
          CFI (cfiCond169) Function AF_DataRequest
          CFI (cfiCond169) Conditional ??CrossCallReturnLabel_124
          CFI (cfiCond169) R6 load(1, XDATA, add(CFA_XSP16, literal(-16)))
          CFI (cfiCond169) VB load(1, XDATA, add(CFA_XSP16, literal(-15)))
          CFI (cfiCond169) V0 load(1, XDATA, add(CFA_XSP16, literal(-14)))
          CFI (cfiCond169) V1 load(1, XDATA, add(CFA_XSP16, literal(-13)))
          CFI (cfiCond169) V2 load(1, XDATA, add(CFA_XSP16, literal(-12)))
          CFI (cfiCond169) V3 load(1, XDATA, add(CFA_XSP16, literal(-11)))
          CFI (cfiCond169) V4 load(1, XDATA, add(CFA_XSP16, literal(-10)))
          CFI (cfiCond169) V5 load(1, XDATA, add(CFA_XSP16, literal(-9)))
          CFI (cfiCond169) V6 load(1, XDATA, add(CFA_XSP16, literal(-8)))
          CFI (cfiCond169) V7 load(1, XDATA, add(CFA_XSP16, literal(-7)))
          CFI (cfiCond169) R7 load(1, XDATA, add(CFA_XSP16, literal(-6)))
          CFI (cfiCond169) ?RET_LOW load(1, XDATA, add(CFA_XSP16, literal(-5)))
          CFI (cfiCond169) ?RET_HIGH load(1, XDATA, add(CFA_XSP16, literal(-4)))
          CFI (cfiCond169) ?BRET_EXT load(1, XDATA, add(CFA_XSP16, literal(-3)))
          CFI (cfiCond169) DPL0 load(1, XDATA, add(CFA_XSP16, literal(-2)))
          CFI (cfiCond169) DPH0 load(1, XDATA, add(CFA_XSP16, literal(-1)))
          CFI (cfiCond169) CFA_SP SP+-2
          CFI (cfiCond169) CFA_XSP16 add(XSP16, 49)
          CFI Block cfiCond170 Using cfiCommon0
          CFI (cfiCond170) Function afBuildMSGIncoming
          CFI (cfiCond170) Conditional ??CrossCallReturnLabel_125
          CFI (cfiCond170) R6 load(1, XDATA, add(CFA_XSP16, literal(-16)))
          CFI (cfiCond170) VB load(1, XDATA, add(CFA_XSP16, literal(-15)))
          CFI (cfiCond170) V0 load(1, XDATA, add(CFA_XSP16, literal(-14)))
          CFI (cfiCond170) V1 load(1, XDATA, add(CFA_XSP16, literal(-13)))
          CFI (cfiCond170) V2 load(1, XDATA, add(CFA_XSP16, literal(-12)))
          CFI (cfiCond170) V3 load(1, XDATA, add(CFA_XSP16, literal(-11)))
          CFI (cfiCond170) V4 load(1, XDATA, add(CFA_XSP16, literal(-10)))
          CFI (cfiCond170) V5 load(1, XDATA, add(CFA_XSP16, literal(-9)))
          CFI (cfiCond170) V6 load(1, XDATA, add(CFA_XSP16, literal(-8)))
          CFI (cfiCond170) V7 load(1, XDATA, add(CFA_XSP16, literal(-7)))
          CFI (cfiCond170) R7 load(1, XDATA, add(CFA_XSP16, literal(-6)))
          CFI (cfiCond170) ?RET_LOW load(1, XDATA, add(CFA_XSP16, literal(-5)))
          CFI (cfiCond170) ?RET_HIGH load(1, XDATA, add(CFA_XSP16, literal(-4)))
          CFI (cfiCond170) ?BRET_EXT load(1, XDATA, add(CFA_XSP16, literal(-3)))
          CFI (cfiCond170) DPL0 load(1, XDATA, add(CFA_XSP16, literal(-2)))
          CFI (cfiCond170) DPH0 load(1, XDATA, add(CFA_XSP16, literal(-1)))
          CFI (cfiCond170) CFA_SP SP+-2
          CFI (cfiCond170) CFA_XSP16 add(XSP16, 19)
          CFI Block cfiCond171 Using cfiCommon0
          CFI (cfiCond171) Function AF_DataRequest
          CFI (cfiCond171) Conditional ??CrossCallReturnLabel_126
          CFI (cfiCond171) R6 load(1, XDATA, add(CFA_XSP16, literal(-16)))
          CFI (cfiCond171) VB load(1, XDATA, add(CFA_XSP16, literal(-15)))
          CFI (cfiCond171) V0 load(1, XDATA, add(CFA_XSP16, literal(-14)))
          CFI (cfiCond171) V1 load(1, XDATA, add(CFA_XSP16, literal(-13)))
          CFI (cfiCond171) V2 load(1, XDATA, add(CFA_XSP16, literal(-12)))
          CFI (cfiCond171) V3 load(1, XDATA, add(CFA_XSP16, literal(-11)))
          CFI (cfiCond171) V4 load(1, XDATA, add(CFA_XSP16, literal(-10)))
          CFI (cfiCond171) V5 load(1, XDATA, add(CFA_XSP16, literal(-9)))
          CFI (cfiCond171) V6 load(1, XDATA, add(CFA_XSP16, literal(-8)))
          CFI (cfiCond171) V7 load(1, XDATA, add(CFA_XSP16, literal(-7)))
          CFI (cfiCond171) R7 load(1, XDATA, add(CFA_XSP16, literal(-6)))
          CFI (cfiCond171) ?RET_LOW load(1, XDATA, add(CFA_XSP16, literal(-5)))
          CFI (cfiCond171) ?RET_HIGH load(1, XDATA, add(CFA_XSP16, literal(-4)))
          CFI (cfiCond171) ?BRET_EXT load(1, XDATA, add(CFA_XSP16, literal(-3)))
          CFI (cfiCond171) DPL0 load(1, XDATA, add(CFA_XSP16, literal(-2)))
          CFI (cfiCond171) DPH0 load(1, XDATA, add(CFA_XSP16, literal(-1)))
          CFI (cfiCond171) CFA_SP SP+-2
          CFI (cfiCond171) CFA_XSP16 add(XSP16, 49)
          CFI Block cfiPicker172 Using cfiCommon1
          CFI (cfiPicker172) NoFunction
          CFI (cfiPicker172) Picker
        LCALL     ?Subroutine46 & 0xFFFF
??CrossCallReturnLabel_130:
        RET
          CFI EndBlock cfiCond162
          CFI EndBlock cfiCond163
          CFI EndBlock cfiCond164
          CFI EndBlock cfiCond165
          CFI EndBlock cfiCond166
          CFI EndBlock cfiCond167
          CFI EndBlock cfiCond168
          CFI EndBlock cfiCond169
          CFI EndBlock cfiCond170
          CFI EndBlock cfiCond171
          CFI EndBlock cfiPicker172

        RSEG BANKED_CODE:HUGECODE:NOROOT(0)
?Subroutine22:
          CFI Block cfiCond173 Using cfiCommon0
          CFI Function afBuildMSGIncoming
          CFI Conditional ??CrossCallReturnLabel_38
          CFI R6 load(1, XDATA, add(CFA_XSP16, literal(-16)))
          CFI VB load(1, XDATA, add(CFA_XSP16, literal(-15)))
          CFI V0 load(1, XDATA, add(CFA_XSP16, literal(-14)))
          CFI V1 load(1, XDATA, add(CFA_XSP16, literal(-13)))
          CFI V2 load(1, XDATA, add(CFA_XSP16, literal(-12)))
          CFI V3 load(1, XDATA, add(CFA_XSP16, literal(-11)))
          CFI V4 load(1, XDATA, add(CFA_XSP16, literal(-10)))
          CFI V5 load(1, XDATA, add(CFA_XSP16, literal(-9)))
          CFI V6 load(1, XDATA, add(CFA_XSP16, literal(-8)))
          CFI V7 load(1, XDATA, add(CFA_XSP16, literal(-7)))
          CFI R7 load(1, XDATA, add(CFA_XSP16, literal(-6)))
          CFI ?RET_LOW load(1, XDATA, add(CFA_XSP16, literal(-5)))
          CFI ?RET_HIGH load(1, XDATA, add(CFA_XSP16, literal(-4)))
          CFI ?BRET_EXT load(1, XDATA, add(CFA_XSP16, literal(-3)))
          CFI DPL0 load(1, XDATA, add(CFA_XSP16, literal(-2)))
          CFI DPH0 load(1, XDATA, add(CFA_XSP16, literal(-1)))
          CFI CFA_SP SP+-2
          CFI CFA_XSP16 add(XSP16, 19)
          CFI Block cfiCond174 Using cfiCommon0
          CFI (cfiCond174) Function afBuildMSGIncoming
          CFI (cfiCond174) Conditional ??CrossCallReturnLabel_39
          CFI (cfiCond174) R6 load(1, XDATA, add(CFA_XSP16, literal(-16)))
          CFI (cfiCond174) VB load(1, XDATA, add(CFA_XSP16, literal(-15)))
          CFI (cfiCond174) V0 load(1, XDATA, add(CFA_XSP16, literal(-14)))
          CFI (cfiCond174) V1 load(1, XDATA, add(CFA_XSP16, literal(-13)))
          CFI (cfiCond174) V2 load(1, XDATA, add(CFA_XSP16, literal(-12)))
          CFI (cfiCond174) V3 load(1, XDATA, add(CFA_XSP16, literal(-11)))
          CFI (cfiCond174) V4 load(1, XDATA, add(CFA_XSP16, literal(-10)))
          CFI (cfiCond174) V5 load(1, XDATA, add(CFA_XSP16, literal(-9)))
          CFI (cfiCond174) V6 load(1, XDATA, add(CFA_XSP16, literal(-8)))
          CFI (cfiCond174) V7 load(1, XDATA, add(CFA_XSP16, literal(-7)))
          CFI (cfiCond174) R7 load(1, XDATA, add(CFA_XSP16, literal(-6)))
          CFI (cfiCond174) ?RET_LOW load(1, XDATA, add(CFA_XSP16, literal(-5)))
          CFI (cfiCond174) ?RET_HIGH load(1, XDATA, add(CFA_XSP16, literal(-4)))
          CFI (cfiCond174) ?BRET_EXT load(1, XDATA, add(CFA_XSP16, literal(-3)))
          CFI (cfiCond174) DPL0 load(1, XDATA, add(CFA_XSP16, literal(-2)))
          CFI (cfiCond174) DPH0 load(1, XDATA, add(CFA_XSP16, literal(-1)))
          CFI (cfiCond174) CFA_SP SP+-2
          CFI (cfiCond174) CFA_XSP16 add(XSP16, 19)
          CFI Block cfiCond175 Using cfiCommon0
          CFI (cfiCond175) Function afBuildMSGIncoming
          CFI (cfiCond175) Conditional ??CrossCallReturnLabel_40
          CFI (cfiCond175) R6 load(1, XDATA, add(CFA_XSP16, literal(-16)))
          CFI (cfiCond175) VB load(1, XDATA, add(CFA_XSP16, literal(-15)))
          CFI (cfiCond175) V0 load(1, XDATA, add(CFA_XSP16, literal(-14)))
          CFI (cfiCond175) V1 load(1, XDATA, add(CFA_XSP16, literal(-13)))
          CFI (cfiCond175) V2 load(1, XDATA, add(CFA_XSP16, literal(-12)))
          CFI (cfiCond175) V3 load(1, XDATA, add(CFA_XSP16, literal(-11)))
          CFI (cfiCond175) V4 load(1, XDATA, add(CFA_XSP16, literal(-10)))
          CFI (cfiCond175) V5 load(1, XDATA, add(CFA_XSP16, literal(-9)))
          CFI (cfiCond175) V6 load(1, XDATA, add(CFA_XSP16, literal(-8)))
          CFI (cfiCond175) V7 load(1, XDATA, add(CFA_XSP16, literal(-7)))
          CFI (cfiCond175) R7 load(1, XDATA, add(CFA_XSP16, literal(-6)))
          CFI (cfiCond175) ?RET_LOW load(1, XDATA, add(CFA_XSP16, literal(-5)))
          CFI (cfiCond175) ?RET_HIGH load(1, XDATA, add(CFA_XSP16, literal(-4)))
          CFI (cfiCond175) ?BRET_EXT load(1, XDATA, add(CFA_XSP16, literal(-3)))
          CFI (cfiCond175) DPL0 load(1, XDATA, add(CFA_XSP16, literal(-2)))
          CFI (cfiCond175) DPH0 load(1, XDATA, add(CFA_XSP16, literal(-1)))
          CFI (cfiCond175) CFA_SP SP+-2
          CFI (cfiCond175) CFA_XSP16 add(XSP16, 19)
          CFI Block cfiPicker176 Using cfiCommon1
          CFI (cfiPicker176) NoFunction
          CFI (cfiPicker176) Picker
        LCALL     ?Subroutine46 & 0xFFFF
??CrossCallReturnLabel_129:
        MOV       A,R6
        RET
          CFI EndBlock cfiCond173
          CFI EndBlock cfiCond174
          CFI EndBlock cfiCond175
          CFI EndBlock cfiPicker176

        RSEG BANKED_CODE:HUGECODE:NOROOT(0)
?Subroutine16:
          CFI Block cfiCond177 Using cfiCommon0
          CFI Function afRegisterExtended
          CFI Conditional ??CrossCallReturnLabel_20
          CFI R6 load(1, XDATA, add(CFA_XSP16, literal(-14)))
          CFI VB load(1, XDATA, add(CFA_XSP16, literal(-13)))
          CFI V0 load(1, XDATA, add(CFA_XSP16, literal(-12)))
          CFI V1 load(1, XDATA, add(CFA_XSP16, literal(-11)))
          CFI V2 load(1, XDATA, add(CFA_XSP16, literal(-10)))
          CFI V3 load(1, XDATA, add(CFA_XSP16, literal(-9)))
          CFI V4 load(1, XDATA, add(CFA_XSP16, literal(-8)))
          CFI V5 load(1, XDATA, add(CFA_XSP16, literal(-7)))
          CFI R7 load(1, XDATA, add(CFA_XSP16, literal(-6)))
          CFI ?RET_LOW load(1, XDATA, add(CFA_XSP16, literal(-5)))
          CFI ?RET_HIGH load(1, XDATA, add(CFA_XSP16, literal(-4)))
          CFI ?BRET_EXT load(1, XDATA, add(CFA_XSP16, literal(-3)))
          CFI DPL0 load(1, XDATA, add(CFA_XSP16, literal(-2)))
          CFI DPH0 load(1, XDATA, add(CFA_XSP16, literal(-1)))
          CFI CFA_SP SP+-2
          CFI CFA_XSP16 add(XSP16, 14)
          CFI Block cfiCond178 Using cfiCommon0
          CFI (cfiCond178) Function afBuildMSGIncoming
          CFI (cfiCond178) Conditional ??CrossCallReturnLabel_21
          CFI (cfiCond178) R6 load(1, XDATA, add(CFA_XSP16, literal(-16)))
          CFI (cfiCond178) VB load(1, XDATA, add(CFA_XSP16, literal(-15)))
          CFI (cfiCond178) V0 load(1, XDATA, add(CFA_XSP16, literal(-14)))
          CFI (cfiCond178) V1 load(1, XDATA, add(CFA_XSP16, literal(-13)))
          CFI (cfiCond178) V2 load(1, XDATA, add(CFA_XSP16, literal(-12)))
          CFI (cfiCond178) V3 load(1, XDATA, add(CFA_XSP16, literal(-11)))
          CFI (cfiCond178) V4 load(1, XDATA, add(CFA_XSP16, literal(-10)))
          CFI (cfiCond178) V5 load(1, XDATA, add(CFA_XSP16, literal(-9)))
          CFI (cfiCond178) V6 load(1, XDATA, add(CFA_XSP16, literal(-8)))
          CFI (cfiCond178) V7 load(1, XDATA, add(CFA_XSP16, literal(-7)))
          CFI (cfiCond178) R7 load(1, XDATA, add(CFA_XSP16, literal(-6)))
          CFI (cfiCond178) ?RET_LOW load(1, XDATA, add(CFA_XSP16, literal(-5)))
          CFI (cfiCond178) ?RET_HIGH load(1, XDATA, add(CFA_XSP16, literal(-4)))
          CFI (cfiCond178) ?BRET_EXT load(1, XDATA, add(CFA_XSP16, literal(-3)))
          CFI (cfiCond178) DPL0 load(1, XDATA, add(CFA_XSP16, literal(-2)))
          CFI (cfiCond178) DPH0 load(1, XDATA, add(CFA_XSP16, literal(-1)))
          CFI (cfiCond178) CFA_SP SP+-2
          CFI (cfiCond178) CFA_XSP16 add(XSP16, 19)
          CFI Block cfiPicker179 Using cfiCommon1
          CFI (cfiPicker179) NoFunction
          CFI (cfiPicker179) Picker
        LCALL     ?Subroutine42 & 0xFFFF
??CrossCallReturnLabel_133:
        INC       DPTR
        INC       DPTR
        INC       DPTR
        INC       DPTR
        RET
          CFI EndBlock cfiCond177
          CFI EndBlock cfiCond178
          CFI EndBlock cfiPicker179

        RSEG BANKED_CODE:HUGECODE:NOROOT(0)
?Subroutine42:
          CFI Block cfiCond180 Using cfiCommon0
          CFI Function afRegisterExtended
          CFI Conditional ??CrossCallReturnLabel_133, ??CrossCallReturnLabel_20
          CFI R6 load(1, XDATA, add(CFA_XSP16, literal(-14)))
          CFI VB load(1, XDATA, add(CFA_XSP16, literal(-13)))
          CFI V0 load(1, XDATA, add(CFA_XSP16, literal(-12)))
          CFI V1 load(1, XDATA, add(CFA_XSP16, literal(-11)))
          CFI V2 load(1, XDATA, add(CFA_XSP16, literal(-10)))
          CFI V3 load(1, XDATA, add(CFA_XSP16, literal(-9)))
          CFI V4 load(1, XDATA, add(CFA_XSP16, literal(-8)))
          CFI V5 load(1, XDATA, add(CFA_XSP16, literal(-7)))
          CFI R7 load(1, XDATA, add(CFA_XSP16, literal(-6)))
          CFI ?RET_LOW load(1, XDATA, add(CFA_XSP16, literal(-5)))
          CFI ?RET_HIGH load(1, XDATA, add(CFA_XSP16, literal(-4)))
          CFI ?BRET_EXT load(1, XDATA, add(CFA_XSP16, literal(-3)))
          CFI DPL0 load(1, XDATA, add(CFA_XSP16, literal(-2)))
          CFI DPH0 load(1, XDATA, add(CFA_XSP16, literal(-1)))
          CFI CFA_SP SP+-4
          CFI CFA_XSP16 add(XSP16, 14)
          CFI Block cfiCond181 Using cfiCommon0
          CFI (cfiCond181) Function afBuildMSGIncoming
          CFI (cfiCond181) Conditional ??CrossCallReturnLabel_133, ??CrossCallReturnLabel_21
          CFI (cfiCond181) R6 load(1, XDATA, add(CFA_XSP16, literal(-16)))
          CFI (cfiCond181) VB load(1, XDATA, add(CFA_XSP16, literal(-15)))
          CFI (cfiCond181) V0 load(1, XDATA, add(CFA_XSP16, literal(-14)))
          CFI (cfiCond181) V1 load(1, XDATA, add(CFA_XSP16, literal(-13)))
          CFI (cfiCond181) V2 load(1, XDATA, add(CFA_XSP16, literal(-12)))
          CFI (cfiCond181) V3 load(1, XDATA, add(CFA_XSP16, literal(-11)))
          CFI (cfiCond181) V4 load(1, XDATA, add(CFA_XSP16, literal(-10)))
          CFI (cfiCond181) V5 load(1, XDATA, add(CFA_XSP16, literal(-9)))
          CFI (cfiCond181) V6 load(1, XDATA, add(CFA_XSP16, literal(-8)))
          CFI (cfiCond181) V7 load(1, XDATA, add(CFA_XSP16, literal(-7)))
          CFI (cfiCond181) R7 load(1, XDATA, add(CFA_XSP16, literal(-6)))
          CFI (cfiCond181) ?RET_LOW load(1, XDATA, add(CFA_XSP16, literal(-5)))
          CFI (cfiCond181) ?RET_HIGH load(1, XDATA, add(CFA_XSP16, literal(-4)))
          CFI (cfiCond181) ?BRET_EXT load(1, XDATA, add(CFA_XSP16, literal(-3)))
          CFI (cfiCond181) DPL0 load(1, XDATA, add(CFA_XSP16, literal(-2)))
          CFI (cfiCond181) DPH0 load(1, XDATA, add(CFA_XSP16, literal(-1)))
          CFI (cfiCond181) CFA_SP SP+-4
          CFI (cfiCond181) CFA_XSP16 add(XSP16, 19)
          CFI Block cfiCond182 Using cfiCommon0
          CFI (cfiCond182) Function afRegisterExtended
          CFI (cfiCond182) Conditional ??CrossCallReturnLabel_132, ??CrossCallReturnLabel_18
          CFI (cfiCond182) R6 load(1, XDATA, add(CFA_XSP16, literal(-14)))
          CFI (cfiCond182) VB load(1, XDATA, add(CFA_XSP16, literal(-13)))
          CFI (cfiCond182) V0 load(1, XDATA, add(CFA_XSP16, literal(-12)))
          CFI (cfiCond182) V1 load(1, XDATA, add(CFA_XSP16, literal(-11)))
          CFI (cfiCond182) V2 load(1, XDATA, add(CFA_XSP16, literal(-10)))
          CFI (cfiCond182) V3 load(1, XDATA, add(CFA_XSP16, literal(-9)))
          CFI (cfiCond182) V4 load(1, XDATA, add(CFA_XSP16, literal(-8)))
          CFI (cfiCond182) V5 load(1, XDATA, add(CFA_XSP16, literal(-7)))
          CFI (cfiCond182) R7 load(1, XDATA, add(CFA_XSP16, literal(-6)))
          CFI (cfiCond182) ?RET_LOW load(1, XDATA, add(CFA_XSP16, literal(-5)))
          CFI (cfiCond182) ?RET_HIGH load(1, XDATA, add(CFA_XSP16, literal(-4)))
          CFI (cfiCond182) ?BRET_EXT load(1, XDATA, add(CFA_XSP16, literal(-3)))
          CFI (cfiCond182) DPL0 load(1, XDATA, add(CFA_XSP16, literal(-2)))
          CFI (cfiCond182) DPH0 load(1, XDATA, add(CFA_XSP16, literal(-1)))
          CFI (cfiCond182) CFA_SP SP+-4
          CFI (cfiCond182) CFA_XSP16 add(XSP16, 14)
          CFI Block cfiCond183 Using cfiCommon0
          CFI (cfiCond183) Function afCopyAddress
          CFI (cfiCond183) Conditional ??CrossCallReturnLabel_132, ??CrossCallReturnLabel_19
          CFI (cfiCond183) R6 load(1, XDATA, add(CFA_XSP16, literal(-9)))
          CFI (cfiCond183) VB load(1, XDATA, add(CFA_XSP16, literal(-8)))
          CFI (cfiCond183) V0 load(1, XDATA, add(CFA_XSP16, literal(-7)))
          CFI (cfiCond183) R7 load(1, XDATA, add(CFA_XSP16, literal(-6)))
          CFI (cfiCond183) ?RET_LOW load(1, XDATA, add(CFA_XSP16, literal(-5)))
          CFI (cfiCond183) ?RET_HIGH load(1, XDATA, add(CFA_XSP16, literal(-4)))
          CFI (cfiCond183) ?BRET_EXT load(1, XDATA, add(CFA_XSP16, literal(-3)))
          CFI (cfiCond183) DPL0 load(1, XDATA, add(CFA_XSP16, literal(-2)))
          CFI (cfiCond183) DPH0 load(1, XDATA, add(CFA_XSP16, literal(-1)))
          CFI (cfiCond183) CFA_SP SP+-4
          CFI (cfiCond183) CFA_XSP16 add(XSP16, 9)
          CFI Block cfiPicker184 Using cfiCommon1
          CFI (cfiPicker184) NoFunction
          CFI (cfiPicker184) Picker
        MOVX      A,@DPTR
        MOV       R0,A
        INC       DPTR
          CFI EndBlock cfiCond180
          CFI EndBlock cfiCond181
          CFI EndBlock cfiCond182
          CFI EndBlock cfiCond183
          CFI EndBlock cfiPicker184
        REQUIRE ??Subroutine58_0
        ; // Fall through to label ??Subroutine58_0

        RSEG BANKED_CODE:HUGECODE:NOROOT(0)
??Subroutine58_0:
          CFI Block cfiCond185 Using cfiCommon0
          CFI Function AF_DataRequestSrcRtg
          CFI Conditional ??CrossCallReturnLabel_131
          CFI R6 load(1, XDATA, add(CFA_XSP16, literal(-12)))
          CFI VB load(1, XDATA, add(CFA_XSP16, literal(-11)))
          CFI V0 load(1, XDATA, add(CFA_XSP16, literal(-10)))
          CFI V1 load(1, XDATA, add(CFA_XSP16, literal(-9)))
          CFI V2 load(1, XDATA, add(CFA_XSP16, literal(-8)))
          CFI V3 load(1, XDATA, add(CFA_XSP16, literal(-7)))
          CFI R7 load(1, XDATA, add(CFA_XSP16, literal(-6)))
          CFI ?RET_LOW load(1, XDATA, add(CFA_XSP16, literal(-5)))
          CFI ?RET_HIGH load(1, XDATA, add(CFA_XSP16, literal(-4)))
          CFI ?BRET_EXT load(1, XDATA, add(CFA_XSP16, literal(-3)))
          CFI DPL0 load(1, XDATA, add(CFA_XSP16, literal(-2)))
          CFI DPH0 load(1, XDATA, add(CFA_XSP16, literal(-1)))
          CFI CFA_SP SP+-2
          CFI CFA_XSP16 add(XSP16, 12)
          CFI Block cfiCond186 Using cfiCommon0
          CFI (cfiCond186) Function afRegisterExtended
          CFI (cfiCond186) Conditional ??CrossCallReturnLabel_133, ??CrossCallReturnLabel_20
          CFI (cfiCond186) R6 load(1, XDATA, add(CFA_XSP16, literal(-14)))
          CFI (cfiCond186) VB load(1, XDATA, add(CFA_XSP16, literal(-13)))
          CFI (cfiCond186) V0 load(1, XDATA, add(CFA_XSP16, literal(-12)))
          CFI (cfiCond186) V1 load(1, XDATA, add(CFA_XSP16, literal(-11)))
          CFI (cfiCond186) V2 load(1, XDATA, add(CFA_XSP16, literal(-10)))
          CFI (cfiCond186) V3 load(1, XDATA, add(CFA_XSP16, literal(-9)))
          CFI (cfiCond186) V4 load(1, XDATA, add(CFA_XSP16, literal(-8)))
          CFI (cfiCond186) V5 load(1, XDATA, add(CFA_XSP16, literal(-7)))
          CFI (cfiCond186) R7 load(1, XDATA, add(CFA_XSP16, literal(-6)))
          CFI (cfiCond186) ?RET_LOW load(1, XDATA, add(CFA_XSP16, literal(-5)))
          CFI (cfiCond186) ?RET_HIGH load(1, XDATA, add(CFA_XSP16, literal(-4)))
          CFI (cfiCond186) ?BRET_EXT load(1, XDATA, add(CFA_XSP16, literal(-3)))
          CFI (cfiCond186) DPL0 load(1, XDATA, add(CFA_XSP16, literal(-2)))
          CFI (cfiCond186) DPH0 load(1, XDATA, add(CFA_XSP16, literal(-1)))
          CFI (cfiCond186) CFA_SP SP+-4
          CFI (cfiCond186) CFA_XSP16 add(XSP16, 14)
          CFI Block cfiCond187 Using cfiCommon0
          CFI (cfiCond187) Function afBuildMSGIncoming
          CFI (cfiCond187) Conditional ??CrossCallReturnLabel_133, ??CrossCallReturnLabel_21
          CFI (cfiCond187) R6 load(1, XDATA, add(CFA_XSP16, literal(-16)))
          CFI (cfiCond187) VB load(1, XDATA, add(CFA_XSP16, literal(-15)))
          CFI (cfiCond187) V0 load(1, XDATA, add(CFA_XSP16, literal(-14)))
          CFI (cfiCond187) V1 load(1, XDATA, add(CFA_XSP16, literal(-13)))
          CFI (cfiCond187) V2 load(1, XDATA, add(CFA_XSP16, literal(-12)))
          CFI (cfiCond187) V3 load(1, XDATA, add(CFA_XSP16, literal(-11)))
          CFI (cfiCond187) V4 load(1, XDATA, add(CFA_XSP16, literal(-10)))
          CFI (cfiCond187) V5 load(1, XDATA, add(CFA_XSP16, literal(-9)))
          CFI (cfiCond187) V6 load(1, XDATA, add(CFA_XSP16, literal(-8)))
          CFI (cfiCond187) V7 load(1, XDATA, add(CFA_XSP16, literal(-7)))
          CFI (cfiCond187) R7 load(1, XDATA, add(CFA_XSP16, literal(-6)))
          CFI (cfiCond187) ?RET_LOW load(1, XDATA, add(CFA_XSP16, literal(-5)))
          CFI (cfiCond187) ?RET_HIGH load(1, XDATA, add(CFA_XSP16, literal(-4)))
          CFI (cfiCond187) ?BRET_EXT load(1, XDATA, add(CFA_XSP16, literal(-3)))
          CFI (cfiCond187) DPL0 load(1, XDATA, add(CFA_XSP16, literal(-2)))
          CFI (cfiCond187) DPH0 load(1, XDATA, add(CFA_XSP16, literal(-1)))
          CFI (cfiCond187) CFA_SP SP+-4
          CFI (cfiCond187) CFA_XSP16 add(XSP16, 19)
          CFI Block cfiCond188 Using cfiCommon0
          CFI (cfiCond188) Function afRegisterExtended
          CFI (cfiCond188) Conditional ??CrossCallReturnLabel_132, ??CrossCallReturnLabel_18
          CFI (cfiCond188) R6 load(1, XDATA, add(CFA_XSP16, literal(-14)))
          CFI (cfiCond188) VB load(1, XDATA, add(CFA_XSP16, literal(-13)))
          CFI (cfiCond188) V0 load(1, XDATA, add(CFA_XSP16, literal(-12)))
          CFI (cfiCond188) V1 load(1, XDATA, add(CFA_XSP16, literal(-11)))
          CFI (cfiCond188) V2 load(1, XDATA, add(CFA_XSP16, literal(-10)))
          CFI (cfiCond188) V3 load(1, XDATA, add(CFA_XSP16, literal(-9)))
          CFI (cfiCond188) V4 load(1, XDATA, add(CFA_XSP16, literal(-8)))
          CFI (cfiCond188) V5 load(1, XDATA, add(CFA_XSP16, literal(-7)))
          CFI (cfiCond188) R7 load(1, XDATA, add(CFA_XSP16, literal(-6)))
          CFI (cfiCond188) ?RET_LOW load(1, XDATA, add(CFA_XSP16, literal(-5)))
          CFI (cfiCond188) ?RET_HIGH load(1, XDATA, add(CFA_XSP16, literal(-4)))
          CFI (cfiCond188) ?BRET_EXT load(1, XDATA, add(CFA_XSP16, literal(-3)))
          CFI (cfiCond188) DPL0 load(1, XDATA, add(CFA_XSP16, literal(-2)))
          CFI (cfiCond188) DPH0 load(1, XDATA, add(CFA_XSP16, literal(-1)))
          CFI (cfiCond188) CFA_SP SP+-4
          CFI (cfiCond188) CFA_XSP16 add(XSP16, 14)
          CFI Block cfiCond189 Using cfiCommon0
          CFI (cfiCond189) Function afCopyAddress
          CFI (cfiCond189) Conditional ??CrossCallReturnLabel_132, ??CrossCallReturnLabel_19
          CFI (cfiCond189) R6 load(1, XDATA, add(CFA_XSP16, literal(-9)))
          CFI (cfiCond189) VB load(1, XDATA, add(CFA_XSP16, literal(-8)))
          CFI (cfiCond189) V0 load(1, XDATA, add(CFA_XSP16, literal(-7)))
          CFI (cfiCond189) R7 load(1, XDATA, add(CFA_XSP16, literal(-6)))
          CFI (cfiCond189) ?RET_LOW load(1, XDATA, add(CFA_XSP16, literal(-5)))
          CFI (cfiCond189) ?RET_HIGH load(1, XDATA, add(CFA_XSP16, literal(-4)))
          CFI (cfiCond189) ?BRET_EXT load(1, XDATA, add(CFA_XSP16, literal(-3)))
          CFI (cfiCond189) DPL0 load(1, XDATA, add(CFA_XSP16, literal(-2)))
          CFI (cfiCond189) DPH0 load(1, XDATA, add(CFA_XSP16, literal(-1)))
          CFI (cfiCond189) CFA_SP SP+-4
          CFI (cfiCond189) CFA_XSP16 add(XSP16, 9)
          CFI Block cfiPicker190 Using cfiCommon1
          CFI (cfiPicker190) NoFunction
          CFI (cfiPicker190) Picker
        MOVX      A,@DPTR
        MOV       R1,A
        MOV       DPL,R6
        MOV       DPH,R7
        RET
          CFI EndBlock cfiCond185
          CFI EndBlock cfiCond186
          CFI EndBlock cfiCond187
          CFI EndBlock cfiCond188
          CFI EndBlock cfiCond189
          CFI EndBlock cfiPicker190
//  603 
//  604 /*********************************************************************
//  605  * @fn      AF_DataRequest
//  606  *
//  607  * @brief   Common functionality for invoking APSDE_DataReq() for both
//  608  *          SendMulti and MSG-Send.
//  609  *
//  610  * input parameters
//  611  *
//  612  * @param  *dstAddr - Full ZB destination address: Nwk Addr + End Point.
//  613  * @param  *srcEP - Origination (i.e. respond to or ack to) End Point Descr.
//  614  * @param   cID - A valid cluster ID as specified by the Profile.
//  615  * @param   len - Number of bytes of data pointed to by next param.
//  616  * @param  *buf - A pointer to the data bytes to send.
//  617  * @param  *transID - A pointer to a byte which can be modified and which will
//  618  *                    be used as the transaction sequence number of the msg.
//  619  * @param   options - Valid bit mask of Tx options.
//  620  * @param   radius - Normally set to AF_DEFAULT_RADIUS.
//  621  *
//  622  * output parameters
//  623  *
//  624  * @param  *transID - Incremented by one if the return value is success.
//  625  *
//  626  * @return  afStatus_t - See previous definition of afStatus_... types.
//  627  */

        RSEG XDATA_I:XDATA:NOROOT(0)
//  628 uint8 AF_DataRequestDiscoverRoute = DISC_ROUTE_NETWORK;
AF_DataRequestDiscoverRoute:
        DATA8
        DS 1
        REQUIRE `?<Initializer for AF_DataRequestDiscoverRoute>`
        REQUIRE __INIT_XDATA_I

        RSEG BANKED_CODE:HUGECODE:NOROOT(0)
//  629 afStatus_t AF_DataRequest( afAddrType_t *dstAddr, endPointDesc_t *srcEP,
AF_DataRequest:
          CFI Block cfiBlock191 Using cfiCommon0
          CFI Function AF_DataRequest
        CODE
//  630                            uint16 cID, uint16 len, uint8 *buf, uint8 *transID,
//  631                            uint8 options, uint8 radius )
//  632 {
        FUNCALL AF_DataRequest, NLME_GetShortAddr
        LOCFRAME ISTACK, 0, STACK
        LOCFRAME PSTACK, 0, STACK
        LOCFRAME XSTACK, 49, STACK
        LOCFRAME IOVERLAY, 0, STATIC
        LOCFRAME DOVERLAY, 0, STATIC
        ARGFRAME ISTACK, 0, STACK
        ARGFRAME PSTACK, 0, STACK
        ARGFRAME XSTACK, 49, STACK
        ARGFRAME IOVERLAY, 0, STATIC
        ARGFRAME DOVERLAY, 0, STATIC
        FUNCALL AF_DataRequest, RTG_CheckRtStatus
        LOCFRAME ISTACK, 0, STACK
        LOCFRAME PSTACK, 0, STACK
        LOCFRAME XSTACK, 49, STACK
        LOCFRAME IOVERLAY, 0, STATIC
        LOCFRAME DOVERLAY, 0, STATIC
        ARGFRAME ISTACK, 0, STACK
        ARGFRAME PSTACK, 0, STACK
        ARGFRAME XSTACK, 49, STACK
        ARGFRAME IOVERLAY, 0, STATIC
        ARGFRAME DOVERLAY, 0, STATIC
        FUNCALL AF_DataRequest, NLME_IsAddressBroadcast
        LOCFRAME ISTACK, 0, STACK
        LOCFRAME PSTACK, 0, STACK
        LOCFRAME XSTACK, 49, STACK
        LOCFRAME IOVERLAY, 0, STATIC
        LOCFRAME DOVERLAY, 0, STATIC
        ARGFRAME ISTACK, 0, STACK
        ARGFRAME PSTACK, 0, STACK
        ARGFRAME XSTACK, 49, STACK
        ARGFRAME IOVERLAY, 0, STATIC
        ARGFRAME DOVERLAY, 0, STATIC
        FUNCALL AF_DataRequest, sAddrExtCpy
        LOCFRAME ISTACK, 0, STACK
        LOCFRAME PSTACK, 0, STACK
        LOCFRAME XSTACK, 49, STACK
        LOCFRAME IOVERLAY, 0, STATIC
        LOCFRAME DOVERLAY, 0, STATIC
        ARGFRAME ISTACK, 0, STACK
        ARGFRAME PSTACK, 0, STACK
        ARGFRAME XSTACK, 49, STACK
        ARGFRAME IOVERLAY, 0, STATIC
        ARGFRAME DOVERLAY, 0, STATIC
        FUNCALL AF_DataRequest, osal_mem_free
        LOCFRAME ISTACK, 0, STACK
        LOCFRAME PSTACK, 0, STACK
        LOCFRAME XSTACK, 49, STACK
        LOCFRAME IOVERLAY, 0, STATIC
        LOCFRAME DOVERLAY, 0, STATIC
        ARGFRAME ISTACK, 0, STACK
        ARGFRAME PSTACK, 0, STACK
        ARGFRAME XSTACK, 49, STACK
        ARGFRAME IOVERLAY, 0, STATIC
        ARGFRAME DOVERLAY, 0, STATIC
        FUNCALL AF_DataRequest, afFindEndPointDescList
        LOCFRAME ISTACK, 0, STACK
        LOCFRAME PSTACK, 0, STACK
        LOCFRAME XSTACK, 49, STACK
        LOCFRAME IOVERLAY, 0, STATIC
        LOCFRAME DOVERLAY, 0, STATIC
        ARGFRAME ISTACK, 0, STACK
        ARGFRAME PSTACK, 0, STACK
        ARGFRAME XSTACK, 49, STACK
        ARGFRAME IOVERLAY, 0, STATIC
        ARGFRAME DOVERLAY, 0, STATIC
        FUNCALL AF_DataRequest, afDataReqMTU
        LOCFRAME ISTACK, 0, STACK
        LOCFRAME PSTACK, 0, STACK
        LOCFRAME XSTACK, 49, STACK
        LOCFRAME IOVERLAY, 0, STATIC
        LOCFRAME DOVERLAY, 0, STATIC
        ARGFRAME ISTACK, 0, STACK
        ARGFRAME PSTACK, 0, STACK
        ARGFRAME XSTACK, 49, STACK
        ARGFRAME IOVERLAY, 0, STATIC
        ARGFRAME DOVERLAY, 0, STATIC
        FUNCALL AF_DataRequest, APSDE_DataReq
        LOCFRAME ISTACK, 0, STACK
        LOCFRAME PSTACK, 0, STACK
        LOCFRAME XSTACK, 49, STACK
        LOCFRAME IOVERLAY, 0, STATIC
        LOCFRAME DOVERLAY, 0, STATIC
        ARGFRAME ISTACK, 0, STACK
        ARGFRAME PSTACK, 0, STACK
        ARGFRAME XSTACK, 49, STACK
        ARGFRAME IOVERLAY, 0, STATIC
        ARGFRAME DOVERLAY, 0, STATIC
        FUNCALL AF_DataRequest, NLME_GetShortAddr
        LOCFRAME ISTACK, 0, STACK
        LOCFRAME PSTACK, 0, STACK
        LOCFRAME XSTACK, 49, STACK
        LOCFRAME IOVERLAY, 0, STATIC
        LOCFRAME DOVERLAY, 0, STATIC
        ARGFRAME ISTACK, 0, STACK
        ARGFRAME PSTACK, 0, STACK
        ARGFRAME XSTACK, 49, STACK
        ARGFRAME IOVERLAY, 0, STATIC
        ARGFRAME DOVERLAY, 0, STATIC
        FUNCALL AF_DataRequest, afDataConfirm
        LOCFRAME ISTACK, 0, STACK
        LOCFRAME PSTACK, 0, STACK
        LOCFRAME XSTACK, 49, STACK
        LOCFRAME IOVERLAY, 0, STATIC
        LOCFRAME DOVERLAY, 0, STATIC
        ARGFRAME ISTACK, 0, STACK
        ARGFRAME PSTACK, 0, STACK
        ARGFRAME XSTACK, 49, STACK
        ARGFRAME IOVERLAY, 0, STATIC
        ARGFRAME DOVERLAY, 0, STATIC
        REQUIRE ?V0
        REQUIRE ?V1
        REQUIRE ?V2
        REQUIRE ?V4
        REQUIRE ?V5
        REQUIRE ?V6
        REQUIRE ?V7
        MOV       A,#-0x10
        LCALL     ?BANKED_ENTER_XDATA
          CFI DPH0 load(1, XDATA, add(CFA_XSP16, literal(-1)))
          CFI DPL0 load(1, XDATA, add(CFA_XSP16, literal(-2)))
          CFI ?BRET_EXT load(1, XDATA, add(CFA_XSP16, literal(-3)))
          CFI ?RET_HIGH load(1, XDATA, add(CFA_XSP16, literal(-4)))
          CFI ?RET_LOW load(1, XDATA, add(CFA_XSP16, literal(-5)))
          CFI R7 load(1, XDATA, add(CFA_XSP16, literal(-6)))
          CFI V7 load(1, XDATA, add(CFA_XSP16, literal(-7)))
          CFI V6 load(1, XDATA, add(CFA_XSP16, literal(-8)))
          CFI V5 load(1, XDATA, add(CFA_XSP16, literal(-9)))
          CFI V4 load(1, XDATA, add(CFA_XSP16, literal(-10)))
          CFI V3 load(1, XDATA, add(CFA_XSP16, literal(-11)))
          CFI V2 load(1, XDATA, add(CFA_XSP16, literal(-12)))
          CFI V1 load(1, XDATA, add(CFA_XSP16, literal(-13)))
          CFI V0 load(1, XDATA, add(CFA_XSP16, literal(-14)))
          CFI VB load(1, XDATA, add(CFA_XSP16, literal(-15)))
          CFI R6 load(1, XDATA, add(CFA_XSP16, literal(-16)))
          CFI CFA_SP SP+0
          CFI CFA_XSP16 add(XSP16, 16)
        ; Saved register size: 16
        ; Auto size: 33
        MOV       A,#-0x21
        LCALL     ?ALLOC_XSTACK8
          CFI CFA_XSP16 add(XSP16, 49)
        MOV       ?V6,R2
        MOV       ?V7,R3
        MOV       ?V0,R4
        MOV       ?V1,R5
        MOV       ?V2,R1
//  633   pDescCB pfnDescCB;
//  634   ZStatus_t stat;
//  635   APSDE_DataReq_t req;
//  636   afDataReqMTU_t mtu;
//  637   epList_t *pList;
//  638 
//  639   // Verify source end point
//  640   if ( srcEP == NULL )
        MOV       A,R4
        ORL       A,?V1
        JNZ       $+5
        LJMP      ??AF_DataRequest_0 & 0xFFFF
//  641   {
//  642     return afStatus_INVALID_PARAMETER;
//  643   }
//  644 
//  645 #if !defined( REFLECTOR )
//  646   if ( dstAddr->addrMode == afAddrNotPresent )
//  647   {
//  648     return afStatus_INVALID_PARAMETER;
//  649   }
//  650 #endif
//  651   
//  652   // copy the addressing mode, to get the length of the packet
//  653   mtu.aps.addressingMode = dstAddr->addrMode; 
        MOV       A,R2
        ADD       A,#0x8
        MOV       R6,A
        CLR       A
        ADDC      A,?V7
        MOV       R7,A
        MOV       DPL,R6
        MOV       DPH,R7
        MOVX      A,@DPTR
        PUSH      A
          CFI CFA_SP SP+-1
        MOV       A,#0x2
        LCALL     ?XSTACK_DISP0_8
        POP       A
          CFI CFA_SP SP+0
        MOVX      @DPTR,A
//  654 
//  655   // Check if route is available before sending data
//  656   if ( options & AF_LIMIT_CONCENTRATOR  )
        MOV       A,R1
        MOV       C,0xE0 /* A   */.3
        JNC       ??AF_DataRequest_1
//  657   {
//  658     if ( dstAddr->addrMode != afAddr16Bit )
        MOV       DPL,R6
        MOV       DPH,R7
        MOVX      A,@DPTR
        XRL       A,#0x2
        JZ        $+5
        LJMP      ??AF_DataRequest_0 & 0xFFFF
//  659     {
//  660       return ( afStatus_INVALID_PARAMETER );
//  661     }
//  662 
//  663     // First, make sure the destination is not its self, then check for an existing route.
//  664     if ( (dstAddr->addr.shortAddr != NLME_GetShortAddr())
//  665         && (RTG_CheckRtStatus( dstAddr->addr.shortAddr, RT_ACTIVE, (MTO_ROUTE | NO_ROUTE_CACHE) ) != RTG_SUCCESS) )
        ; Setup parameters for call to function NLME_GetShortAddr
        LCALL     `??NLME_GetShortAddr::?relay`; Banked call to: NLME_GetShortAddr
        MOV       ?V4,R2
        MOV       ?V5,R3
        MOV       DPL,?V6
        MOV       DPH,?V7
        LCALL     ??Subroutine61_0 & 0xFFFF
??CrossCallReturnLabel_142:
        MOV       A,?V4
        XRL       A,R2
        JNZ       ??AF_DataRequest_2
        MOV       A,?V5
        XRL       A,R3
??AF_DataRequest_2:
        JZ        ??AF_DataRequest_1
        ; Setup parameters for call to function RTG_CheckRtStatus
        MOV       R4,#0x3
        MOV       R1,#0x1
        LCALL     `??RTG_CheckRtStatus::?relay`; Banked call to: RTG_CheckRtStatus
        MOV       A,R1
        JZ        ??AF_DataRequest_1
//  666     {
//  667       // A valid route to a concentrator wasn't found
//  668       return ( afStatus_NO_ROUTE );
        MOV       R1,#-0x33
        LJMP      ??AF_DataRequest_3 & 0xFFFF
//  669     }
//  670   }
//  671 
//  672   // Validate broadcasting
//  673   if ( ( dstAddr->addrMode == afAddr16Bit     ) ||
//  674        ( dstAddr->addrMode == afAddrBroadcast )    )
??AF_DataRequest_1:
        MOV       DPL,R6
        MOV       DPH,R7
        MOVX      A,@DPTR
        MOV       R0,A
        MOV       A,#0x2
        XRL       A,R0
        JZ        ??AF_DataRequest_4
        MOV       A,#0xf
        XRL       A,R0
        JNZ       ??AF_DataRequest_5
//  675   {
//  676     // Check for valid broadcast values
//  677     if( ADDR_NOT_BCAST != NLME_IsAddressBroadcast( dstAddr->addr.shortAddr )  )
??AF_DataRequest_4:
        ; Setup parameters for call to function NLME_IsAddressBroadcast
        MOV       DPL,?V6
        MOV       DPH,?V7
        LCALL     ??Subroutine61_0 & 0xFFFF
??CrossCallReturnLabel_143:
        LCALL     `??NLME_IsAddressBroadcast::?relay`; Banked call to: NLME_IsAddressBroadcast
        MOV       A,R1
        MOV       DPL,R6
        MOV       DPH,R7
        JZ        ??AF_DataRequest_6
//  678     {
//  679       // Force mode to broadcast
//  680       dstAddr->addrMode = afAddrBroadcast;
        MOV       A,#0xf
        MOVX      @DPTR,A
//  681     }
//  682     else
//  683     {
//  684       // Address is not a valid broadcast type
//  685       if ( dstAddr->addrMode == afAddrBroadcast )
//  686       {
//  687         return afStatus_INVALID_PARAMETER;
//  688       }
//  689     }
//  690   }
//  691   else if ( dstAddr->addrMode != afAddr64Bit &&
//  692             dstAddr->addrMode != afAddrGroup &&
//  693             dstAddr->addrMode != afAddrNotPresent )
//  694   {
//  695     return afStatus_INVALID_PARAMETER;
//  696   }
//  697 
//  698   // Set destination address
//  699   req.dstAddr.addrMode = dstAddr->addrMode;
??AF_DataRequest_7:
        MOVX      A,@DPTR
        PUSH      A
          CFI CFA_SP SP+-1
        MOV       A,#0xb
        LCALL     ?XSTACK_DISP0_8
        POP       A
          CFI CFA_SP SP+0
        MOVX      @DPTR,A
//  700   if ( dstAddr->addrMode == afAddr64Bit )
        MOV       DPL,R6
        MOV       DPH,R7
        MOVX      A,@DPTR
        XRL       A,#0x3
        JNZ       ??AF_DataRequest_8
//  701   {
//  702     osal_cpyExtAddr( req.dstAddr.addr.extAddr, dstAddr->addr.extAddr );
        ; Setup parameters for call to function sAddrExtCpy
        MOV       R4,?V6
        MOV       R5,?V7
        MOV       A,#0x3
        LCALL     ?XSTACK_DISP101_8
        LCALL     `??sAddrExtCpy::?relay`; Banked call to: sAddrExtCpy
        SJMP      ??CrossCallReturnLabel_111
//  703   }
??AF_DataRequest_6:
        MOVX      A,@DPTR
        XRL       A,#0xf
        JNZ       ??AF_DataRequest_7
        SJMP      ??AF_DataRequest_0
??AF_DataRequest_5:
        MOV       A,#0x3
        XRL       A,R0
        JZ        ??AF_DataRequest_7
        MOV       A,#0x1
        XRL       A,R0
        JZ        ??AF_DataRequest_7
        MOV       A,R0
        JZ        ??AF_DataRequest_7
??AF_DataRequest_0:
        MOV       R1,#0x2
        LJMP      ??AF_DataRequest_3 & 0xFFFF
//  704   else
//  705   {
//  706     req.dstAddr.addr.shortAddr = dstAddr->addr.shortAddr;
??AF_DataRequest_8:
        MOV       DPL,?V6
        MOV       DPH,?V7
        LCALL     ??Subroutine57_0 & 0xFFFF
//  707   }
??CrossCallReturnLabel_120:
        MOV       A,#0x3
        LCALL     ?XSTACK_DISP0_8
        LCALL     ??Subroutine55_0 & 0xFFFF
//  708 
//  709   // This option is to use Wildcard ProfileID in outgoing packets
//  710   if ( options & AF_WILDCARD_PROFILEID )
??CrossCallReturnLabel_111:
        MOV       A,?V2
        MOV       C,0xE0 /* A   */.1
        MOV       A,#0x12
        JNC       ??AF_DataRequest_9
//  711   {
//  712     req.profileID = ZDO_WILDCARD_PROFILE_ID;
        LCALL     ?XSTACK_DISP0_8
        MOV       A,#-0x1
        MOVX      @DPTR,A
        INC       DPTR
        SJMP      ??AF_DataRequest_10
//  713   }
//  714   else
//  715   {
//  716     req.profileID = ZDO_PROFILE_ID;
??AF_DataRequest_9:
        LCALL     ?XSTACK_DISP0_8
        CLR       A
        MOVX      @DPTR,A
        INC       DPTR
        MOVX      @DPTR,A
//  717 
//  718     if ( (pfnDescCB = afGetDescCB( srcEP )) )
        MOV       DPTR,#epList
??AF_DataRequest_11:
        LCALL     ?Subroutine8 & 0xFFFF
??CrossCallReturnLabel_0:
        JZ        ??AF_DataRequest_12
        MOV       DPL,R0
        MOV       DPH,R1
        INC       DPTR
        INC       DPTR
        LCALL     ??Subroutine61_0 & 0xFFFF
??CrossCallReturnLabel_144:
        MOV       A,?V0
        XRL       A,R2
        JNZ       ??AF_DataRequest_13
        MOV       A,?V1
        XRL       A,R3
??AF_DataRequest_13:
        MOV       DPL,R0
        MOV       DPH,R1
        JNZ       ??AF_DataRequest_11
        LCALL     ?Subroutine23 & 0xFFFF
//  719     {
//  720       uint16 *pID = (uint16 *)(pfnDescCB(
//  721                                    AF_DESCRIPTOR_PROFILE_ID, srcEP->endPoint ));
//  722       if ( pID )
//  723       {
//  724         req.profileID = *pID;
//  725         osal_mem_free( pID );
//  726       }
//  727     }
//  728     else if ( srcEP->simpleDesc )
//  729     {
//  730       req.profileID = srcEP->simpleDesc->AppProfId;
//  731     }
//  732   }
??CrossCallReturnLabel_126:
        MOV       A,R0
        MOV       R4,A
        MOV       A,R1
        MOV       R5,A
        MOV       A,R4
        ORL       A,R5
        JZ        ??AF_DataRequest_12
        ; Setup parameters for indirect call
        MOV       DPL,?V0
        MOV       DPH,?V1
        LCALL     ?Subroutine26 & 0xFFFF
??CrossCallReturnLabel_44:
        LCALL     ?CALL_IND
        MOV       A,R2
        ORL       A,R3
        JZ        ??AF_DataRequest_14
        MOV       DPL,R2
        MOV       DPH,R3
        LCALL     ??Subroutine57_0 & 0xFFFF
??CrossCallReturnLabel_121:
        MOV       A,#0x12
        LCALL     ?XSTACK_DISP0_8
        LCALL     ??Subroutine55_0 & 0xFFFF
??CrossCallReturnLabel_112:
        ; Setup parameters for call to function osal_mem_free
        LCALL     `??osal_mem_free::?relay`; Banked call to: osal_mem_free
        SJMP      ??AF_DataRequest_14
??AF_DataRequest_12:
        MOV       DPL,?V0
        MOV       DPH,?V1
        LCALL     ?Subroutine9 & 0xFFFF
??CrossCallReturnLabel_6:
        JZ        ??AF_DataRequest_14
        LCALL     ??Subroutine56_0 & 0xFFFF
??CrossCallReturnLabel_124:
        MOV       A,#0x12
        LCALL     ?XSTACK_DISP0_8
        MOV       A,R0
        MOVX      @DPTR,A
        INC       DPTR
        MOV       A,R1
??AF_DataRequest_10:
        MOVX      @DPTR,A
//  733 
//  734   req.txOptions = 0;
??AF_DataRequest_14:
        MOV       A,#0x18
        LCALL     ?XSTACK_DISP0_8
        CLR       A
        MOVX      @DPTR,A
        INC       DPTR
        MOVX      @DPTR,A
//  735 
//  736   if ( ( options & AF_ACK_REQUEST              ) &&
//  737        ( req.dstAddr.addrMode != AddrBroadcast ) &&
//  738        ( req.dstAddr.addrMode != AddrGroup     )    )
        MOV       A,?V2
        MOV       C,0xE0 /* A   */.4
        JNC       ??AF_DataRequest_15
        MOV       A,#0xb
        LCALL     ?XSTACK_DISP0_8
        MOVX      A,@DPTR
        MOV       R0,A
        MOV       A,#0xf
        XRL       A,R0
        JZ        ??AF_DataRequest_15
        MOV       A,#0x1
        XRL       A,R0
        JZ        ??AF_DataRequest_15
//  739   {
//  740     req.txOptions |=  APS_TX_OPTIONS_ACK;
        MOV       A,#0x18
        LCALL     ?XSTACK_DISP0_8
        MOV       A,#0x4
        MOVX      @DPTR,A
        INC       DPTR
        CLR       A
        MOVX      @DPTR,A
//  741   }
//  742 
//  743   if ( options & AF_SKIP_ROUTING )
??AF_DataRequest_15:
        MOV       A,?V2
        MOV       C,0xE0 /* A   */.7
        JNC       ??AF_DataRequest_16
//  744   {
//  745     req.txOptions |=  APS_TX_OPTIONS_SKIP_ROUTING;
        MOV       A,#0x18
        LCALL     ?XSTACK_DISP0_8
        MOVX      A,@DPTR
        ORL       A,#0x10
        MOVX      @DPTR,A
//  746   }
//  747 
//  748   if ( options & AF_EN_SECURITY )
??AF_DataRequest_16:
        MOV       A,?V2
        MOV       C,0xE0 /* A   */.6
        JNC       ??AF_DataRequest_17
//  749   {
//  750     req.txOptions |= APS_TX_OPTIONS_SECURITY_ENABLE;
        MOV       A,#0x18
        LCALL     ?XSTACK_DISP0_8
        MOVX      A,@DPTR
        ORL       A,#0x1
        MOVX      @DPTR,A
//  751     mtu.aps.secure = TRUE;
        MOV       A,#0x1
        LCALL     ?XSTACK_DISP0_8
        MOV       A,#0x1
        SJMP      ??AF_DataRequest_18
//  752   }
//  753   else
//  754   {
//  755     mtu.aps.secure = FALSE;
??AF_DataRequest_17:
        MOV       A,#0x1
        LCALL     ?XSTACK_DISP0_8
        CLR       A
??AF_DataRequest_18:
        MOVX      @DPTR,A
//  756   }
//  757 
//  758   if ( options & AF_PREPROCESS )
        MOV       A,?V2
        MOV       C,0xE0 /* A   */.2
        JNC       ??AF_DataRequest_19
//  759   {
//  760     req.txOptions |=  APS_TX_OPTIONS_PREPROCESS;
        MOV       A,#0x18
        LCALL     ?XSTACK_DISP0_8
        MOVX      A,@DPTR
        ORL       A,#0x40
        MOVX      @DPTR,A
//  761   }
//  762 
//  763   mtu.kvp = FALSE;
??AF_DataRequest_19:
        MOV       DPL,?XSP + 0
        MOV       DPH,?XSP + 1
        CLR       A
        MOVX      @DPTR,A
//  764 
//  765   if ( options & AF_SUPRESS_ROUTE_DISC_NETWORK )
        MOV       A,?V2
        MOV       C,0xE0 /* A   */.5
        JNC       ??AF_DataRequest_20
//  766   {
//  767     req.discoverRoute = DISC_ROUTE_INITIATE;
        MOV       A,#0x1b
        LCALL     ?XSTACK_DISP0_8
        MOV       A,#0x4
        SJMP      ??AF_DataRequest_21
//  768   }
//  769   else
//  770   {
//  771     req.discoverRoute = AF_DataRequestDiscoverRoute;
??AF_DataRequest_20:
        MOV       DPTR,#AF_DataRequestDiscoverRoute
        MOVX      A,@DPTR
        PUSH      A
          CFI CFA_SP SP+-1
        MOV       A,#0x1b
        LCALL     ?XSTACK_DISP0_8
        POP       A
          CFI CFA_SP SP+0
??AF_DataRequest_21:
        MOVX      @DPTR,A
//  772   }
//  773 
//  774   req.transID       = *transID;
        MOV       A,#0x37
        LCALL     ?XSTACK_DISP0_8
        LCALL     ?Subroutine18 & 0xFFFF
??CrossCallReturnLabel_28:
        PUSH      A
          CFI CFA_SP SP+-1
        MOV       A,#0x1a
        LCALL     ?XSTACK_DISP0_8
        POP       A
          CFI CFA_SP SP+0
        LCALL     ?Subroutine36 & 0xFFFF
//  775   req.srcEP         = srcEP->endPoint;
??CrossCallReturnLabel_66:
        PUSH      A
          CFI CFA_SP SP+-1
        MOV       A,#0xc
        LCALL     ?XSTACK_DISP0_8
        POP       A
          CFI CFA_SP SP+0
        MOVX      @DPTR,A
//  776   req.dstEP         = dstAddr->endPoint;
        MOV       DPL,?V6
        MOV       DPH,?V7
        INC       DPTR
        INC       DPTR
        INC       DPTR
        INC       DPTR
        INC       DPTR
        INC       DPTR
        INC       DPTR
        INC       DPTR
        INC       DPTR
        MOVX      A,@DPTR
        PUSH      A
          CFI CFA_SP SP+-1
        MOV       A,#0xd
        LCALL     ?XSTACK_DISP0_8
        POP       A
          CFI CFA_SP SP+0
        MOVX      @DPTR,A
//  777   req.clusterID     = cID;
        MOV       A,#0x31
        LCALL     ?XSTACK_DISP0_8
        LCALL     ??Subroutine57_0 & 0xFFFF
??CrossCallReturnLabel_122:
        MOV       A,#0x10
        LCALL     ?XSTACK_DISP0_8
        LCALL     ??Subroutine55_0 & 0xFFFF
??CrossCallReturnLabel_113:
        MOV       A,#0x33
        LCALL     ?XSTACK_DISP0_8
        MOVX      A,@DPTR
        MOV       R6,A
        INC       DPTR
        MOVX      A,@DPTR
        MOV       R7,A
//  778   req.asduLen       = len;
        MOV       A,#0x14
        LCALL     ?XSTACK_DISP0_8
        MOV       A,R6
        MOVX      @DPTR,A
        INC       DPTR
        MOV       A,R7
        MOVX      @DPTR,A
//  779   req.asdu          = buf;
        MOV       A,#0x35
        LCALL     ?XSTACK_DISP0_8
        LCALL     ??Subroutine57_0 & 0xFFFF
??CrossCallReturnLabel_123:
        MOV       A,#0x16
        LCALL     ?XSTACK_DISP0_8
        LCALL     ??Subroutine55_0 & 0xFFFF
//  780   req.radiusCounter = radius;
??CrossCallReturnLabel_114:
        MOV       A,#0x39
        LCALL     ?XSTACK_DISP0_8
        MOVX      A,@DPTR
        PUSH      A
          CFI CFA_SP SP+-1
        MOV       A,#0x1c
        LCALL     ?XSTACK_DISP0_8
        POP       A
          CFI CFA_SP SP+0
        LCALL     ?Subroutine36 & 0xFFFF
//  781 #if defined ( INTER_PAN )
//  782   req.dstPanId      = dstAddr->panId;
//  783 #endif // INTER_PAN
//  784 
//  785   // Look if there is a Callback function registered for this endpoint
//  786   // The callback is used to control the AF Transaction ID used when sending messages
//  787   pList = afFindEndPointDescList( srcEP->endPoint );
??CrossCallReturnLabel_67:
        MOV       R1,A
        LCALL     `??afFindEndPointDescList::?relay`; Banked call to: afFindEndPointDescList
        MOV       DPL,R2
        MOV       DPH,R3
//  788 
//  789   if ( ( pList != NULL ) && ( pList->pfnApplCB != NULL ) )
        MOV       A,DPL
        ORL       A,DPH
        JZ        ??AF_DataRequest_22
        INC       DPTR
        INC       DPTR
        INC       DPTR
        INC       DPTR
        INC       DPTR
        LCALL     ?Subroutine9 & 0xFFFF
??CrossCallReturnLabel_7:
        JZ        ??AF_DataRequest_22
//  790   {
//  791     pList->pfnApplCB( &req );
        ; Setup parameters for indirect call
        MOV       A,#0x3
        LCALL     ?XSTACK_DISP101_8
        LCALL     ?CALL_IND
//  792   }
//  793 
//  794 #if defined ( INTER_PAN )
//  795   if ( StubAPS_InterPan( dstAddr->panId, dstAddr->endPoint ) )
//  796   {
//  797     if ( len > INTERP_DataReqMTU() )
//  798     {
//  799       stat = afStatus_INVALID_PARAMETER;
//  800     }
//  801     else
//  802     {
//  803       stat = INTERP_DataReq( &req );
//  804     }
//  805   }
//  806   else
//  807 #endif // INTER_PAN
//  808   {
//  809     if (len > afDataReqMTU( &mtu ) )
??AF_DataRequest_22:
        ; Setup parameters for call to function afDataReqMTU
        MOV       R2,?XSP + 0
        MOV       R3,?XSP + 1
        LCALL     `??afDataReqMTU::?relay`; Banked call to: afDataReqMTU
        MOV       A,R1
        CLR       C
        SUBB      A,R6
        CLR       A
        SUBB      A,R7
        JNC       ??AF_DataRequest_23
//  810     {
//  811       if (apsfSendFragmented)
        MOV       DPTR,#apsfSendFragmented
        LCALL     ?Subroutine8 & 0xFFFF
??CrossCallReturnLabel_5:
        JZ        ??AF_DataRequest_24
//  812       {
//  813         stat = (*apsfSendFragmented)( &req );
        ; Setup parameters for indirect call
        MOV       A,#0x3
        LCALL     ?XSTACK_DISP101_8
        LCALL     ??Subroutine52_0 & 0xFFFF
//  814       }
??CrossCallReturnLabel_95:
        LCALL     ?CALL_IND
        SJMP      ??AF_DataRequest_25
//  815       else
//  816       {
//  817         stat = afStatus_INVALID_PARAMETER;
??AF_DataRequest_24:
        MOV       R6,#0x2
        SJMP      ??AF_DataRequest_26
//  818       }
//  819     }
//  820     else
//  821     {
//  822       stat = APSDE_DataReq( &req );
??AF_DataRequest_23:
        ; Setup parameters for call to function APSDE_DataReq
        MOV       A,#0x3
        LCALL     ?XSTACK_DISP101_8
        LCALL     `??APSDE_DataReq::?relay`; Banked call to: APSDE_DataReq
??AF_DataRequest_25:
        MOV       A,R1
        MOV       R6,A
//  823     }
//  824   }
//  825 
//  826   /*
//  827    * If this is an EndPoint-to-EndPoint message on the same device, it will not
//  828    * get added to the NWK databufs. So it will not go OTA and it will not get
//  829    * a MACCB_DATA_CONFIRM_CMD callback. Thus it is necessary to generate the
//  830    * AF_DATA_CONFIRM_CMD here. Note that APSDE_DataConfirm() only generates one
//  831    * message with the first in line TransSeqNumber, even on a multi message.
//  832    * Also note that a reflected msg will not have its confirmation generated
//  833    * here.
//  834    */
//  835   if ( (req.dstAddr.addrMode == Addr16Bit) &&
//  836        (req.dstAddr.addr.shortAddr == NLME_GetShortAddr()) )
??AF_DataRequest_26:
        MOV       A,#0xb
        LCALL     ?XSTACK_DISP0_8
        MOVX      A,@DPTR
        XRL       A,#0x2
        JNZ       ??AF_DataRequest_27
        ; Setup parameters for call to function NLME_GetShortAddr
        LCALL     `??NLME_GetShortAddr::?relay`; Banked call to: NLME_GetShortAddr
        MOV       ?V4,R2
        MOV       ?V5,R3
        MOV       R0,?V4
        MOV       R1,?V5
        MOV       A,#0x3
        LCALL     ?XSTACK_DISP0_8
        MOVX      A,@DPTR
        XRL       A,R0
        JNZ       ??AF_DataRequest_28
        INC       DPTR
        MOVX      A,@DPTR
        XRL       A,R1
??AF_DataRequest_28:
        JNZ       ??AF_DataRequest_27
//  837   {
//  838     afDataConfirm( srcEP->endPoint, *transID, stat );
        ; Setup parameters for call to function afDataConfirm
        MOV       A,R6
        MOV       R3,A
        MOV       A,#0x37
        LCALL     ?XSTACK_DISP0_8
        LCALL     ?Subroutine18 & 0xFFFF
//  839   }
??CrossCallReturnLabel_29:
        MOV       R2,A
        MOV       DPL,?V0
        MOV       DPH,?V1
        MOVX      A,@DPTR
        MOV       R1,A
        LCALL     `??afDataConfirm::?relay`; Banked call to: afDataConfirm
//  840 
//  841   if ( stat == afStatus_SUCCESS )
??AF_DataRequest_27:
        MOV       A,R6
        JNZ       ??AF_DataRequest_29
//  842   {
//  843     (*transID)++;
        MOV       A,#0x37
        LCALL     ?XSTACK_DISP0_8
        LCALL     ?Subroutine18 & 0xFFFF
//  844   }
??CrossCallReturnLabel_30:
        INC       A
        MOVX      @DPTR,A
//  845 
//  846   return (afStatus_t)stat;
??AF_DataRequest_29:
        MOV       A,R6
        MOV       R1,A
??AF_DataRequest_3:
        MOV       A,#0x21
        LJMP      ?Subroutine3 & 0xFFFF
//  847 }
          CFI EndBlock cfiBlock191

        RSEG BANKED_CODE:HUGECODE:NOROOT(0)
?Subroutine36:
          CFI Block cfiCond192 Using cfiCommon0
          CFI Function AF_DataRequest
          CFI Conditional ??CrossCallReturnLabel_66
          CFI R6 load(1, XDATA, add(CFA_XSP16, literal(-16)))
          CFI VB load(1, XDATA, add(CFA_XSP16, literal(-15)))
          CFI V0 load(1, XDATA, add(CFA_XSP16, literal(-14)))
          CFI V1 load(1, XDATA, add(CFA_XSP16, literal(-13)))
          CFI V2 load(1, XDATA, add(CFA_XSP16, literal(-12)))
          CFI V3 load(1, XDATA, add(CFA_XSP16, literal(-11)))
          CFI V4 load(1, XDATA, add(CFA_XSP16, literal(-10)))
          CFI V5 load(1, XDATA, add(CFA_XSP16, literal(-9)))
          CFI V6 load(1, XDATA, add(CFA_XSP16, literal(-8)))
          CFI V7 load(1, XDATA, add(CFA_XSP16, literal(-7)))
          CFI R7 load(1, XDATA, add(CFA_XSP16, literal(-6)))
          CFI ?RET_LOW load(1, XDATA, add(CFA_XSP16, literal(-5)))
          CFI ?RET_HIGH load(1, XDATA, add(CFA_XSP16, literal(-4)))
          CFI ?BRET_EXT load(1, XDATA, add(CFA_XSP16, literal(-3)))
          CFI DPL0 load(1, XDATA, add(CFA_XSP16, literal(-2)))
          CFI DPH0 load(1, XDATA, add(CFA_XSP16, literal(-1)))
          CFI CFA_SP SP+-2
          CFI CFA_XSP16 add(XSP16, 49)
          CFI Block cfiCond193 Using cfiCommon0
          CFI (cfiCond193) Function AF_DataRequest
          CFI (cfiCond193) Conditional ??CrossCallReturnLabel_67
          CFI (cfiCond193) R6 load(1, XDATA, add(CFA_XSP16, literal(-16)))
          CFI (cfiCond193) VB load(1, XDATA, add(CFA_XSP16, literal(-15)))
          CFI (cfiCond193) V0 load(1, XDATA, add(CFA_XSP16, literal(-14)))
          CFI (cfiCond193) V1 load(1, XDATA, add(CFA_XSP16, literal(-13)))
          CFI (cfiCond193) V2 load(1, XDATA, add(CFA_XSP16, literal(-12)))
          CFI (cfiCond193) V3 load(1, XDATA, add(CFA_XSP16, literal(-11)))
          CFI (cfiCond193) V4 load(1, XDATA, add(CFA_XSP16, literal(-10)))
          CFI (cfiCond193) V5 load(1, XDATA, add(CFA_XSP16, literal(-9)))
          CFI (cfiCond193) V6 load(1, XDATA, add(CFA_XSP16, literal(-8)))
          CFI (cfiCond193) V7 load(1, XDATA, add(CFA_XSP16, literal(-7)))
          CFI (cfiCond193) R7 load(1, XDATA, add(CFA_XSP16, literal(-6)))
          CFI (cfiCond193) ?RET_LOW load(1, XDATA, add(CFA_XSP16, literal(-5)))
          CFI (cfiCond193) ?RET_HIGH load(1, XDATA, add(CFA_XSP16, literal(-4)))
          CFI (cfiCond193) ?BRET_EXT load(1, XDATA, add(CFA_XSP16, literal(-3)))
          CFI (cfiCond193) DPL0 load(1, XDATA, add(CFA_XSP16, literal(-2)))
          CFI (cfiCond193) DPH0 load(1, XDATA, add(CFA_XSP16, literal(-1)))
          CFI (cfiCond193) CFA_SP SP+-2
          CFI (cfiCond193) CFA_XSP16 add(XSP16, 49)
          CFI Block cfiPicker194 Using cfiCommon1
          CFI (cfiPicker194) NoFunction
          CFI (cfiPicker194) Picker
        LCALL     ?Subroutine39 & 0xFFFF
??CrossCallReturnLabel_72:
        MOVX      A,@DPTR
        RET
          CFI EndBlock cfiCond192
          CFI EndBlock cfiCond193
          CFI EndBlock cfiPicker194

        RSEG BANKED_CODE:HUGECODE:NOROOT(0)
?Subroutine26:
          CFI Block cfiCond195 Using cfiCommon0
          CFI Function afIncomingData
          CFI Conditional ??CrossCallReturnLabel_43
          CFI R6 load(1, XDATA, add(CFA_XSP16, literal(-15)))
          CFI VB load(1, XDATA, add(CFA_XSP16, literal(-14)))
          CFI V0 load(1, XDATA, add(CFA_XSP16, literal(-13)))
          CFI V1 load(1, XDATA, add(CFA_XSP16, literal(-12)))
          CFI V2 load(1, XDATA, add(CFA_XSP16, literal(-11)))
          CFI V3 load(1, XDATA, add(CFA_XSP16, literal(-10)))
          CFI V4 load(1, XDATA, add(CFA_XSP16, literal(-9)))
          CFI V5 load(1, XDATA, add(CFA_XSP16, literal(-8)))
          CFI V6 load(1, XDATA, add(CFA_XSP16, literal(-7)))
          CFI R7 load(1, XDATA, add(CFA_XSP16, literal(-6)))
          CFI ?RET_LOW load(1, XDATA, add(CFA_XSP16, literal(-5)))
          CFI ?RET_HIGH load(1, XDATA, add(CFA_XSP16, literal(-4)))
          CFI ?BRET_EXT load(1, XDATA, add(CFA_XSP16, literal(-3)))
          CFI DPL0 load(1, XDATA, add(CFA_XSP16, literal(-2)))
          CFI DPH0 load(1, XDATA, add(CFA_XSP16, literal(-1)))
          CFI CFA_SP SP+-2
          CFI CFA_XSP16 add(XSP16, 28)
          CFI Block cfiCond196 Using cfiCommon0
          CFI (cfiCond196) Function AF_DataRequest
          CFI (cfiCond196) Conditional ??CrossCallReturnLabel_44
          CFI (cfiCond196) R6 load(1, XDATA, add(CFA_XSP16, literal(-16)))
          CFI (cfiCond196) VB load(1, XDATA, add(CFA_XSP16, literal(-15)))
          CFI (cfiCond196) V0 load(1, XDATA, add(CFA_XSP16, literal(-14)))
          CFI (cfiCond196) V1 load(1, XDATA, add(CFA_XSP16, literal(-13)))
          CFI (cfiCond196) V2 load(1, XDATA, add(CFA_XSP16, literal(-12)))
          CFI (cfiCond196) V3 load(1, XDATA, add(CFA_XSP16, literal(-11)))
          CFI (cfiCond196) V4 load(1, XDATA, add(CFA_XSP16, literal(-10)))
          CFI (cfiCond196) V5 load(1, XDATA, add(CFA_XSP16, literal(-9)))
          CFI (cfiCond196) V6 load(1, XDATA, add(CFA_XSP16, literal(-8)))
          CFI (cfiCond196) V7 load(1, XDATA, add(CFA_XSP16, literal(-7)))
          CFI (cfiCond196) R7 load(1, XDATA, add(CFA_XSP16, literal(-6)))
          CFI (cfiCond196) ?RET_LOW load(1, XDATA, add(CFA_XSP16, literal(-5)))
          CFI (cfiCond196) ?RET_HIGH load(1, XDATA, add(CFA_XSP16, literal(-4)))
          CFI (cfiCond196) ?BRET_EXT load(1, XDATA, add(CFA_XSP16, literal(-3)))
          CFI (cfiCond196) DPL0 load(1, XDATA, add(CFA_XSP16, literal(-2)))
          CFI (cfiCond196) DPH0 load(1, XDATA, add(CFA_XSP16, literal(-1)))
          CFI (cfiCond196) CFA_SP SP+-2
          CFI (cfiCond196) CFA_XSP16 add(XSP16, 49)
          CFI Block cfiPicker197 Using cfiCommon1
          CFI (cfiPicker197) NoFunction
          CFI (cfiPicker197) Picker
        MOVX      A,@DPTR
        MOV       R2,A
        MOV       R1,#0x2
        MOV       DPL,R4
        MOV       DPH,R5
        RET
          CFI EndBlock cfiCond195
          CFI EndBlock cfiCond196
          CFI EndBlock cfiPicker197

        RSEG BANKED_CODE:HUGECODE:NOROOT(0)
?Subroutine18:
          CFI Block cfiCond198 Using cfiCommon0
          CFI Function afIncomingData
          CFI Conditional ??CrossCallReturnLabel_24
          CFI R6 load(1, XDATA, add(CFA_XSP16, literal(-15)))
          CFI VB load(1, XDATA, add(CFA_XSP16, literal(-14)))
          CFI V0 load(1, XDATA, add(CFA_XSP16, literal(-13)))
          CFI V1 load(1, XDATA, add(CFA_XSP16, literal(-12)))
          CFI V2 load(1, XDATA, add(CFA_XSP16, literal(-11)))
          CFI V3 load(1, XDATA, add(CFA_XSP16, literal(-10)))
          CFI V4 load(1, XDATA, add(CFA_XSP16, literal(-9)))
          CFI V5 load(1, XDATA, add(CFA_XSP16, literal(-8)))
          CFI V6 load(1, XDATA, add(CFA_XSP16, literal(-7)))
          CFI R7 load(1, XDATA, add(CFA_XSP16, literal(-6)))
          CFI ?RET_LOW load(1, XDATA, add(CFA_XSP16, literal(-5)))
          CFI ?RET_HIGH load(1, XDATA, add(CFA_XSP16, literal(-4)))
          CFI ?BRET_EXT load(1, XDATA, add(CFA_XSP16, literal(-3)))
          CFI DPL0 load(1, XDATA, add(CFA_XSP16, literal(-2)))
          CFI DPH0 load(1, XDATA, add(CFA_XSP16, literal(-1)))
          CFI CFA_SP SP+-2
          CFI CFA_XSP16 add(XSP16, 28)
          CFI Block cfiCond199 Using cfiCommon0
          CFI (cfiCond199) Function afIncomingData
          CFI (cfiCond199) Conditional ??CrossCallReturnLabel_25
          CFI (cfiCond199) R6 load(1, XDATA, add(CFA_XSP16, literal(-15)))
          CFI (cfiCond199) VB load(1, XDATA, add(CFA_XSP16, literal(-14)))
          CFI (cfiCond199) V0 load(1, XDATA, add(CFA_XSP16, literal(-13)))
          CFI (cfiCond199) V1 load(1, XDATA, add(CFA_XSP16, literal(-12)))
          CFI (cfiCond199) V2 load(1, XDATA, add(CFA_XSP16, literal(-11)))
          CFI (cfiCond199) V3 load(1, XDATA, add(CFA_XSP16, literal(-10)))
          CFI (cfiCond199) V4 load(1, XDATA, add(CFA_XSP16, literal(-9)))
          CFI (cfiCond199) V5 load(1, XDATA, add(CFA_XSP16, literal(-8)))
          CFI (cfiCond199) V6 load(1, XDATA, add(CFA_XSP16, literal(-7)))
          CFI (cfiCond199) R7 load(1, XDATA, add(CFA_XSP16, literal(-6)))
          CFI (cfiCond199) ?RET_LOW load(1, XDATA, add(CFA_XSP16, literal(-5)))
          CFI (cfiCond199) ?RET_HIGH load(1, XDATA, add(CFA_XSP16, literal(-4)))
          CFI (cfiCond199) ?BRET_EXT load(1, XDATA, add(CFA_XSP16, literal(-3)))
          CFI (cfiCond199) DPL0 load(1, XDATA, add(CFA_XSP16, literal(-2)))
          CFI (cfiCond199) DPH0 load(1, XDATA, add(CFA_XSP16, literal(-1)))
          CFI (cfiCond199) CFA_SP SP+-2
          CFI (cfiCond199) CFA_XSP16 add(XSP16, 28)
          CFI Block cfiCond200 Using cfiCommon0
          CFI (cfiCond200) Function afIncomingData
          CFI (cfiCond200) Conditional ??CrossCallReturnLabel_26
          CFI (cfiCond200) R6 load(1, XDATA, add(CFA_XSP16, literal(-15)))
          CFI (cfiCond200) VB load(1, XDATA, add(CFA_XSP16, literal(-14)))
          CFI (cfiCond200) V0 load(1, XDATA, add(CFA_XSP16, literal(-13)))
          CFI (cfiCond200) V1 load(1, XDATA, add(CFA_XSP16, literal(-12)))
          CFI (cfiCond200) V2 load(1, XDATA, add(CFA_XSP16, literal(-11)))
          CFI (cfiCond200) V3 load(1, XDATA, add(CFA_XSP16, literal(-10)))
          CFI (cfiCond200) V4 load(1, XDATA, add(CFA_XSP16, literal(-9)))
          CFI (cfiCond200) V5 load(1, XDATA, add(CFA_XSP16, literal(-8)))
          CFI (cfiCond200) V6 load(1, XDATA, add(CFA_XSP16, literal(-7)))
          CFI (cfiCond200) R7 load(1, XDATA, add(CFA_XSP16, literal(-6)))
          CFI (cfiCond200) ?RET_LOW load(1, XDATA, add(CFA_XSP16, literal(-5)))
          CFI (cfiCond200) ?RET_HIGH load(1, XDATA, add(CFA_XSP16, literal(-4)))
          CFI (cfiCond200) ?BRET_EXT load(1, XDATA, add(CFA_XSP16, literal(-3)))
          CFI (cfiCond200) DPL0 load(1, XDATA, add(CFA_XSP16, literal(-2)))
          CFI (cfiCond200) DPH0 load(1, XDATA, add(CFA_XSP16, literal(-1)))
          CFI (cfiCond200) CFA_SP SP+-2
          CFI (cfiCond200) CFA_XSP16 add(XSP16, 28)
          CFI Block cfiCond201 Using cfiCommon0
          CFI (cfiCond201) Function afIncomingData
          CFI (cfiCond201) Conditional ??CrossCallReturnLabel_27
          CFI (cfiCond201) R6 load(1, XDATA, add(CFA_XSP16, literal(-15)))
          CFI (cfiCond201) VB load(1, XDATA, add(CFA_XSP16, literal(-14)))
          CFI (cfiCond201) V0 load(1, XDATA, add(CFA_XSP16, literal(-13)))
          CFI (cfiCond201) V1 load(1, XDATA, add(CFA_XSP16, literal(-12)))
          CFI (cfiCond201) V2 load(1, XDATA, add(CFA_XSP16, literal(-11)))
          CFI (cfiCond201) V3 load(1, XDATA, add(CFA_XSP16, literal(-10)))
          CFI (cfiCond201) V4 load(1, XDATA, add(CFA_XSP16, literal(-9)))
          CFI (cfiCond201) V5 load(1, XDATA, add(CFA_XSP16, literal(-8)))
          CFI (cfiCond201) V6 load(1, XDATA, add(CFA_XSP16, literal(-7)))
          CFI (cfiCond201) R7 load(1, XDATA, add(CFA_XSP16, literal(-6)))
          CFI (cfiCond201) ?RET_LOW load(1, XDATA, add(CFA_XSP16, literal(-5)))
          CFI (cfiCond201) ?RET_HIGH load(1, XDATA, add(CFA_XSP16, literal(-4)))
          CFI (cfiCond201) ?BRET_EXT load(1, XDATA, add(CFA_XSP16, literal(-3)))
          CFI (cfiCond201) DPL0 load(1, XDATA, add(CFA_XSP16, literal(-2)))
          CFI (cfiCond201) DPH0 load(1, XDATA, add(CFA_XSP16, literal(-1)))
          CFI (cfiCond201) CFA_SP SP+-2
          CFI (cfiCond201) CFA_XSP16 add(XSP16, 28)
          CFI Block cfiCond202 Using cfiCommon0
          CFI (cfiCond202) Function AF_DataRequest
          CFI (cfiCond202) Conditional ??CrossCallReturnLabel_28
          CFI (cfiCond202) R6 load(1, XDATA, add(CFA_XSP16, literal(-16)))
          CFI (cfiCond202) VB load(1, XDATA, add(CFA_XSP16, literal(-15)))
          CFI (cfiCond202) V0 load(1, XDATA, add(CFA_XSP16, literal(-14)))
          CFI (cfiCond202) V1 load(1, XDATA, add(CFA_XSP16, literal(-13)))
          CFI (cfiCond202) V2 load(1, XDATA, add(CFA_XSP16, literal(-12)))
          CFI (cfiCond202) V3 load(1, XDATA, add(CFA_XSP16, literal(-11)))
          CFI (cfiCond202) V4 load(1, XDATA, add(CFA_XSP16, literal(-10)))
          CFI (cfiCond202) V5 load(1, XDATA, add(CFA_XSP16, literal(-9)))
          CFI (cfiCond202) V6 load(1, XDATA, add(CFA_XSP16, literal(-8)))
          CFI (cfiCond202) V7 load(1, XDATA, add(CFA_XSP16, literal(-7)))
          CFI (cfiCond202) R7 load(1, XDATA, add(CFA_XSP16, literal(-6)))
          CFI (cfiCond202) ?RET_LOW load(1, XDATA, add(CFA_XSP16, literal(-5)))
          CFI (cfiCond202) ?RET_HIGH load(1, XDATA, add(CFA_XSP16, literal(-4)))
          CFI (cfiCond202) ?BRET_EXT load(1, XDATA, add(CFA_XSP16, literal(-3)))
          CFI (cfiCond202) DPL0 load(1, XDATA, add(CFA_XSP16, literal(-2)))
          CFI (cfiCond202) DPH0 load(1, XDATA, add(CFA_XSP16, literal(-1)))
          CFI (cfiCond202) CFA_SP SP+-2
          CFI (cfiCond202) CFA_XSP16 add(XSP16, 49)
          CFI Block cfiCond203 Using cfiCommon0
          CFI (cfiCond203) Function AF_DataRequest
          CFI (cfiCond203) Conditional ??CrossCallReturnLabel_29
          CFI (cfiCond203) R6 load(1, XDATA, add(CFA_XSP16, literal(-16)))
          CFI (cfiCond203) VB load(1, XDATA, add(CFA_XSP16, literal(-15)))
          CFI (cfiCond203) V0 load(1, XDATA, add(CFA_XSP16, literal(-14)))
          CFI (cfiCond203) V1 load(1, XDATA, add(CFA_XSP16, literal(-13)))
          CFI (cfiCond203) V2 load(1, XDATA, add(CFA_XSP16, literal(-12)))
          CFI (cfiCond203) V3 load(1, XDATA, add(CFA_XSP16, literal(-11)))
          CFI (cfiCond203) V4 load(1, XDATA, add(CFA_XSP16, literal(-10)))
          CFI (cfiCond203) V5 load(1, XDATA, add(CFA_XSP16, literal(-9)))
          CFI (cfiCond203) V6 load(1, XDATA, add(CFA_XSP16, literal(-8)))
          CFI (cfiCond203) V7 load(1, XDATA, add(CFA_XSP16, literal(-7)))
          CFI (cfiCond203) R7 load(1, XDATA, add(CFA_XSP16, literal(-6)))
          CFI (cfiCond203) ?RET_LOW load(1, XDATA, add(CFA_XSP16, literal(-5)))
          CFI (cfiCond203) ?RET_HIGH load(1, XDATA, add(CFA_XSP16, literal(-4)))
          CFI (cfiCond203) ?BRET_EXT load(1, XDATA, add(CFA_XSP16, literal(-3)))
          CFI (cfiCond203) DPL0 load(1, XDATA, add(CFA_XSP16, literal(-2)))
          CFI (cfiCond203) DPH0 load(1, XDATA, add(CFA_XSP16, literal(-1)))
          CFI (cfiCond203) CFA_SP SP+-2
          CFI (cfiCond203) CFA_XSP16 add(XSP16, 49)
          CFI Block cfiCond204 Using cfiCommon0
          CFI (cfiCond204) Function AF_DataRequest
          CFI (cfiCond204) Conditional ??CrossCallReturnLabel_30
          CFI (cfiCond204) R6 load(1, XDATA, add(CFA_XSP16, literal(-16)))
          CFI (cfiCond204) VB load(1, XDATA, add(CFA_XSP16, literal(-15)))
          CFI (cfiCond204) V0 load(1, XDATA, add(CFA_XSP16, literal(-14)))
          CFI (cfiCond204) V1 load(1, XDATA, add(CFA_XSP16, literal(-13)))
          CFI (cfiCond204) V2 load(1, XDATA, add(CFA_XSP16, literal(-12)))
          CFI (cfiCond204) V3 load(1, XDATA, add(CFA_XSP16, literal(-11)))
          CFI (cfiCond204) V4 load(1, XDATA, add(CFA_XSP16, literal(-10)))
          CFI (cfiCond204) V5 load(1, XDATA, add(CFA_XSP16, literal(-9)))
          CFI (cfiCond204) V6 load(1, XDATA, add(CFA_XSP16, literal(-8)))
          CFI (cfiCond204) V7 load(1, XDATA, add(CFA_XSP16, literal(-7)))
          CFI (cfiCond204) R7 load(1, XDATA, add(CFA_XSP16, literal(-6)))
          CFI (cfiCond204) ?RET_LOW load(1, XDATA, add(CFA_XSP16, literal(-5)))
          CFI (cfiCond204) ?RET_HIGH load(1, XDATA, add(CFA_XSP16, literal(-4)))
          CFI (cfiCond204) ?BRET_EXT load(1, XDATA, add(CFA_XSP16, literal(-3)))
          CFI (cfiCond204) DPL0 load(1, XDATA, add(CFA_XSP16, literal(-2)))
          CFI (cfiCond204) DPH0 load(1, XDATA, add(CFA_XSP16, literal(-1)))
          CFI (cfiCond204) CFA_SP SP+-2
          CFI (cfiCond204) CFA_XSP16 add(XSP16, 49)
          CFI Block cfiCond205 Using cfiCommon0
          CFI (cfiCond205) Function afFindEndPointDescList
          CFI (cfiCond205) Conditional ??CrossCallReturnLabel_31
          CFI (cfiCond205) DPL0 Frame(CFA_SP, 4)
          CFI (cfiCond205) DPH0 Frame(CFA_SP, 5)
          CFI (cfiCond205) CFA_SP SP+-7
          CFI Block cfiPicker206 Using cfiCommon1
          CFI (cfiPicker206) NoFunction
          CFI (cfiPicker206) Picker
        LCALL     ?Subroutine41 & 0xFFFF
??CrossCallReturnLabel_90:
        RET
          CFI EndBlock cfiCond198
          CFI EndBlock cfiCond199
          CFI EndBlock cfiCond200
          CFI EndBlock cfiCond201
          CFI EndBlock cfiCond202
          CFI EndBlock cfiCond203
          CFI EndBlock cfiCond204
          CFI EndBlock cfiCond205
          CFI EndBlock cfiPicker206

        RSEG BANKED_CODE:HUGECODE:NOROOT(0)
?Subroutine41:
          CFI Block cfiCond207 Using cfiCommon0
          CFI Function afDataConfirm
          CFI Conditional ??CrossCallReturnLabel_91, ??CrossCallReturnLabel_84
          CFI R6 load(1, XDATA, add(CFA_XSP16, literal(-14)))
          CFI VB load(1, XDATA, add(CFA_XSP16, literal(-13)))
          CFI V0 load(1, XDATA, add(CFA_XSP16, literal(-12)))
          CFI V1 load(1, XDATA, add(CFA_XSP16, literal(-11)))
          CFI V2 load(1, XDATA, add(CFA_XSP16, literal(-10)))
          CFI V3 load(1, XDATA, add(CFA_XSP16, literal(-9)))
          CFI V4 load(1, XDATA, add(CFA_XSP16, literal(-8)))
          CFI V5 load(1, XDATA, add(CFA_XSP16, literal(-7)))
          CFI R7 load(1, XDATA, add(CFA_XSP16, literal(-6)))
          CFI ?RET_LOW load(1, XDATA, add(CFA_XSP16, literal(-5)))
          CFI ?RET_HIGH load(1, XDATA, add(CFA_XSP16, literal(-4)))
          CFI ?BRET_EXT load(1, XDATA, add(CFA_XSP16, literal(-3)))
          CFI DPL0 load(1, XDATA, add(CFA_XSP16, literal(-2)))
          CFI DPH0 load(1, XDATA, add(CFA_XSP16, literal(-1)))
          CFI CFA_SP SP+-4
          CFI CFA_XSP16 add(XSP16, 14)
          CFI Block cfiCond208 Using cfiCommon0
          CFI (cfiCond208) Function afReflectError
          CFI (cfiCond208) Conditional ??CrossCallReturnLabel_91, ??CrossCallReturnLabel_85
          CFI (cfiCond208) R6 load(1, XDATA, add(CFA_XSP16, literal(-16)))
          CFI (cfiCond208) VB load(1, XDATA, add(CFA_XSP16, literal(-15)))
          CFI (cfiCond208) V0 load(1, XDATA, add(CFA_XSP16, literal(-14)))
          CFI (cfiCond208) V1 load(1, XDATA, add(CFA_XSP16, literal(-13)))
          CFI (cfiCond208) V2 load(1, XDATA, add(CFA_XSP16, literal(-12)))
          CFI (cfiCond208) V3 load(1, XDATA, add(CFA_XSP16, literal(-11)))
          CFI (cfiCond208) V4 load(1, XDATA, add(CFA_XSP16, literal(-10)))
          CFI (cfiCond208) V5 load(1, XDATA, add(CFA_XSP16, literal(-9)))
          CFI (cfiCond208) V6 load(1, XDATA, add(CFA_XSP16, literal(-8)))
          CFI (cfiCond208) V7 load(1, XDATA, add(CFA_XSP16, literal(-7)))
          CFI (cfiCond208) R7 load(1, XDATA, add(CFA_XSP16, literal(-6)))
          CFI (cfiCond208) ?RET_LOW load(1, XDATA, add(CFA_XSP16, literal(-5)))
          CFI (cfiCond208) ?RET_HIGH load(1, XDATA, add(CFA_XSP16, literal(-4)))
          CFI (cfiCond208) ?BRET_EXT load(1, XDATA, add(CFA_XSP16, literal(-3)))
          CFI (cfiCond208) DPL0 load(1, XDATA, add(CFA_XSP16, literal(-2)))
          CFI (cfiCond208) DPH0 load(1, XDATA, add(CFA_XSP16, literal(-1)))
          CFI (cfiCond208) CFA_SP SP+-4
          CFI (cfiCond208) CFA_XSP16 add(XSP16, 16)
          CFI Block cfiCond209 Using cfiCommon0
          CFI (cfiCond209) Function afIncomingData
          CFI (cfiCond209) Conditional ??CrossCallReturnLabel_91, ??CrossCallReturnLabel_86
          CFI (cfiCond209) R6 load(1, XDATA, add(CFA_XSP16, literal(-15)))
          CFI (cfiCond209) VB load(1, XDATA, add(CFA_XSP16, literal(-14)))
          CFI (cfiCond209) V0 load(1, XDATA, add(CFA_XSP16, literal(-13)))
          CFI (cfiCond209) V1 load(1, XDATA, add(CFA_XSP16, literal(-12)))
          CFI (cfiCond209) V2 load(1, XDATA, add(CFA_XSP16, literal(-11)))
          CFI (cfiCond209) V3 load(1, XDATA, add(CFA_XSP16, literal(-10)))
          CFI (cfiCond209) V4 load(1, XDATA, add(CFA_XSP16, literal(-9)))
          CFI (cfiCond209) V5 load(1, XDATA, add(CFA_XSP16, literal(-8)))
          CFI (cfiCond209) V6 load(1, XDATA, add(CFA_XSP16, literal(-7)))
          CFI (cfiCond209) R7 load(1, XDATA, add(CFA_XSP16, literal(-6)))
          CFI (cfiCond209) ?RET_LOW load(1, XDATA, add(CFA_XSP16, literal(-5)))
          CFI (cfiCond209) ?RET_HIGH load(1, XDATA, add(CFA_XSP16, literal(-4)))
          CFI (cfiCond209) ?BRET_EXT load(1, XDATA, add(CFA_XSP16, literal(-3)))
          CFI (cfiCond209) DPL0 load(1, XDATA, add(CFA_XSP16, literal(-2)))
          CFI (cfiCond209) DPH0 load(1, XDATA, add(CFA_XSP16, literal(-1)))
          CFI (cfiCond209) CFA_SP SP+-4
          CFI (cfiCond209) CFA_XSP16 add(XSP16, 28)
          CFI Block cfiCond210 Using cfiCommon0
          CFI (cfiCond210) Function afBuildMSGIncoming
          CFI (cfiCond210) Conditional ??CrossCallReturnLabel_91, ??CrossCallReturnLabel_87
          CFI (cfiCond210) R6 load(1, XDATA, add(CFA_XSP16, literal(-16)))
          CFI (cfiCond210) VB load(1, XDATA, add(CFA_XSP16, literal(-15)))
          CFI (cfiCond210) V0 load(1, XDATA, add(CFA_XSP16, literal(-14)))
          CFI (cfiCond210) V1 load(1, XDATA, add(CFA_XSP16, literal(-13)))
          CFI (cfiCond210) V2 load(1, XDATA, add(CFA_XSP16, literal(-12)))
          CFI (cfiCond210) V3 load(1, XDATA, add(CFA_XSP16, literal(-11)))
          CFI (cfiCond210) V4 load(1, XDATA, add(CFA_XSP16, literal(-10)))
          CFI (cfiCond210) V5 load(1, XDATA, add(CFA_XSP16, literal(-9)))
          CFI (cfiCond210) V6 load(1, XDATA, add(CFA_XSP16, literal(-8)))
          CFI (cfiCond210) V7 load(1, XDATA, add(CFA_XSP16, literal(-7)))
          CFI (cfiCond210) R7 load(1, XDATA, add(CFA_XSP16, literal(-6)))
          CFI (cfiCond210) ?RET_LOW load(1, XDATA, add(CFA_XSP16, literal(-5)))
          CFI (cfiCond210) ?RET_HIGH load(1, XDATA, add(CFA_XSP16, literal(-4)))
          CFI (cfiCond210) ?BRET_EXT load(1, XDATA, add(CFA_XSP16, literal(-3)))
          CFI (cfiCond210) DPL0 load(1, XDATA, add(CFA_XSP16, literal(-2)))
          CFI (cfiCond210) DPH0 load(1, XDATA, add(CFA_XSP16, literal(-1)))
          CFI (cfiCond210) CFA_SP SP+-4
          CFI (cfiCond210) CFA_XSP16 add(XSP16, 19)
          CFI Block cfiCond211 Using cfiCommon0
          CFI (cfiCond211) Function afIncomingData
          CFI (cfiCond211) Conditional ??CrossCallReturnLabel_91, ??CrossCallReturnLabel_83
          CFI (cfiCond211) R6 load(1, XDATA, add(CFA_XSP16, literal(-15)))
          CFI (cfiCond211) VB load(1, XDATA, add(CFA_XSP16, literal(-14)))
          CFI (cfiCond211) V0 load(1, XDATA, add(CFA_XSP16, literal(-13)))
          CFI (cfiCond211) V1 load(1, XDATA, add(CFA_XSP16, literal(-12)))
          CFI (cfiCond211) V2 load(1, XDATA, add(CFA_XSP16, literal(-11)))
          CFI (cfiCond211) V3 load(1, XDATA, add(CFA_XSP16, literal(-10)))
          CFI (cfiCond211) V4 load(1, XDATA, add(CFA_XSP16, literal(-9)))
          CFI (cfiCond211) V5 load(1, XDATA, add(CFA_XSP16, literal(-8)))
          CFI (cfiCond211) V6 load(1, XDATA, add(CFA_XSP16, literal(-7)))
          CFI (cfiCond211) R7 load(1, XDATA, add(CFA_XSP16, literal(-6)))
          CFI (cfiCond211) ?RET_LOW load(1, XDATA, add(CFA_XSP16, literal(-5)))
          CFI (cfiCond211) ?RET_HIGH load(1, XDATA, add(CFA_XSP16, literal(-4)))
          CFI (cfiCond211) ?BRET_EXT load(1, XDATA, add(CFA_XSP16, literal(-3)))
          CFI (cfiCond211) DPL0 load(1, XDATA, add(CFA_XSP16, literal(-2)))
          CFI (cfiCond211) DPH0 load(1, XDATA, add(CFA_XSP16, literal(-1)))
          CFI (cfiCond211) CFA_SP SP+-4
          CFI (cfiCond211) CFA_XSP16 add(XSP16, 28)
          CFI Block cfiCond212 Using cfiCommon0
          CFI (cfiCond212) Function afIncomingData
          CFI (cfiCond212) Conditional ??CrossCallReturnLabel_89, ??CrossCallReturnLabel_22
          CFI (cfiCond212) R6 load(1, XDATA, add(CFA_XSP16, literal(-15)))
          CFI (cfiCond212) VB load(1, XDATA, add(CFA_XSP16, literal(-14)))
          CFI (cfiCond212) V0 load(1, XDATA, add(CFA_XSP16, literal(-13)))
          CFI (cfiCond212) V1 load(1, XDATA, add(CFA_XSP16, literal(-12)))
          CFI (cfiCond212) V2 load(1, XDATA, add(CFA_XSP16, literal(-11)))
          CFI (cfiCond212) V3 load(1, XDATA, add(CFA_XSP16, literal(-10)))
          CFI (cfiCond212) V4 load(1, XDATA, add(CFA_XSP16, literal(-9)))
          CFI (cfiCond212) V5 load(1, XDATA, add(CFA_XSP16, literal(-8)))
          CFI (cfiCond212) V6 load(1, XDATA, add(CFA_XSP16, literal(-7)))
          CFI (cfiCond212) R7 load(1, XDATA, add(CFA_XSP16, literal(-6)))
          CFI (cfiCond212) ?RET_LOW load(1, XDATA, add(CFA_XSP16, literal(-5)))
          CFI (cfiCond212) ?RET_HIGH load(1, XDATA, add(CFA_XSP16, literal(-4)))
          CFI (cfiCond212) ?BRET_EXT load(1, XDATA, add(CFA_XSP16, literal(-3)))
          CFI (cfiCond212) DPL0 load(1, XDATA, add(CFA_XSP16, literal(-2)))
          CFI (cfiCond212) DPH0 load(1, XDATA, add(CFA_XSP16, literal(-1)))
          CFI (cfiCond212) CFA_SP SP+-4
          CFI (cfiCond212) CFA_XSP16 add(XSP16, 28)
          CFI Block cfiCond213 Using cfiCommon0
          CFI (cfiCond213) Function afIncomingData
          CFI (cfiCond213) Conditional ??CrossCallReturnLabel_89, ??CrossCallReturnLabel_23
          CFI (cfiCond213) R6 load(1, XDATA, add(CFA_XSP16, literal(-15)))
          CFI (cfiCond213) VB load(1, XDATA, add(CFA_XSP16, literal(-14)))
          CFI (cfiCond213) V0 load(1, XDATA, add(CFA_XSP16, literal(-13)))
          CFI (cfiCond213) V1 load(1, XDATA, add(CFA_XSP16, literal(-12)))
          CFI (cfiCond213) V2 load(1, XDATA, add(CFA_XSP16, literal(-11)))
          CFI (cfiCond213) V3 load(1, XDATA, add(CFA_XSP16, literal(-10)))
          CFI (cfiCond213) V4 load(1, XDATA, add(CFA_XSP16, literal(-9)))
          CFI (cfiCond213) V5 load(1, XDATA, add(CFA_XSP16, literal(-8)))
          CFI (cfiCond213) V6 load(1, XDATA, add(CFA_XSP16, literal(-7)))
          CFI (cfiCond213) R7 load(1, XDATA, add(CFA_XSP16, literal(-6)))
          CFI (cfiCond213) ?RET_LOW load(1, XDATA, add(CFA_XSP16, literal(-5)))
          CFI (cfiCond213) ?RET_HIGH load(1, XDATA, add(CFA_XSP16, literal(-4)))
          CFI (cfiCond213) ?BRET_EXT load(1, XDATA, add(CFA_XSP16, literal(-3)))
          CFI (cfiCond213) DPL0 load(1, XDATA, add(CFA_XSP16, literal(-2)))
          CFI (cfiCond213) DPH0 load(1, XDATA, add(CFA_XSP16, literal(-1)))
          CFI (cfiCond213) CFA_SP SP+-4
          CFI (cfiCond213) CFA_XSP16 add(XSP16, 28)
          CFI Block cfiCond214 Using cfiCommon0
          CFI (cfiCond214) Function afIncomingData
          CFI (cfiCond214) Conditional ??CrossCallReturnLabel_88, ??CrossCallReturnLabel_11
          CFI (cfiCond214) R6 load(1, XDATA, add(CFA_XSP16, literal(-15)))
          CFI (cfiCond214) VB load(1, XDATA, add(CFA_XSP16, literal(-14)))
          CFI (cfiCond214) V0 load(1, XDATA, add(CFA_XSP16, literal(-13)))
          CFI (cfiCond214) V1 load(1, XDATA, add(CFA_XSP16, literal(-12)))
          CFI (cfiCond214) V2 load(1, XDATA, add(CFA_XSP16, literal(-11)))
          CFI (cfiCond214) V3 load(1, XDATA, add(CFA_XSP16, literal(-10)))
          CFI (cfiCond214) V4 load(1, XDATA, add(CFA_XSP16, literal(-9)))
          CFI (cfiCond214) V5 load(1, XDATA, add(CFA_XSP16, literal(-8)))
          CFI (cfiCond214) V6 load(1, XDATA, add(CFA_XSP16, literal(-7)))
          CFI (cfiCond214) R7 load(1, XDATA, add(CFA_XSP16, literal(-6)))
          CFI (cfiCond214) ?RET_LOW load(1, XDATA, add(CFA_XSP16, literal(-5)))
          CFI (cfiCond214) ?RET_HIGH load(1, XDATA, add(CFA_XSP16, literal(-4)))
          CFI (cfiCond214) ?BRET_EXT load(1, XDATA, add(CFA_XSP16, literal(-3)))
          CFI (cfiCond214) DPL0 load(1, XDATA, add(CFA_XSP16, literal(-2)))
          CFI (cfiCond214) DPH0 load(1, XDATA, add(CFA_XSP16, literal(-1)))
          CFI (cfiCond214) CFA_SP SP+-4
          CFI (cfiCond214) CFA_XSP16 add(XSP16, 28)
          CFI Block cfiCond215 Using cfiCommon0
          CFI (cfiCond215) Function afIncomingData
          CFI (cfiCond215) Conditional ??CrossCallReturnLabel_88, ??CrossCallReturnLabel_12
          CFI (cfiCond215) R6 load(1, XDATA, add(CFA_XSP16, literal(-15)))
          CFI (cfiCond215) VB load(1, XDATA, add(CFA_XSP16, literal(-14)))
          CFI (cfiCond215) V0 load(1, XDATA, add(CFA_XSP16, literal(-13)))
          CFI (cfiCond215) V1 load(1, XDATA, add(CFA_XSP16, literal(-12)))
          CFI (cfiCond215) V2 load(1, XDATA, add(CFA_XSP16, literal(-11)))
          CFI (cfiCond215) V3 load(1, XDATA, add(CFA_XSP16, literal(-10)))
          CFI (cfiCond215) V4 load(1, XDATA, add(CFA_XSP16, literal(-9)))
          CFI (cfiCond215) V5 load(1, XDATA, add(CFA_XSP16, literal(-8)))
          CFI (cfiCond215) V6 load(1, XDATA, add(CFA_XSP16, literal(-7)))
          CFI (cfiCond215) R7 load(1, XDATA, add(CFA_XSP16, literal(-6)))
          CFI (cfiCond215) ?RET_LOW load(1, XDATA, add(CFA_XSP16, literal(-5)))
          CFI (cfiCond215) ?RET_HIGH load(1, XDATA, add(CFA_XSP16, literal(-4)))
          CFI (cfiCond215) ?BRET_EXT load(1, XDATA, add(CFA_XSP16, literal(-3)))
          CFI (cfiCond215) DPL0 load(1, XDATA, add(CFA_XSP16, literal(-2)))
          CFI (cfiCond215) DPH0 load(1, XDATA, add(CFA_XSP16, literal(-1)))
          CFI (cfiCond215) CFA_SP SP+-4
          CFI (cfiCond215) CFA_XSP16 add(XSP16, 28)
          CFI Block cfiCond216 Using cfiCommon0
          CFI (cfiCond216) Function afIncomingData
          CFI (cfiCond216) Conditional ??CrossCallReturnLabel_90, ??CrossCallReturnLabel_24
          CFI (cfiCond216) R6 load(1, XDATA, add(CFA_XSP16, literal(-15)))
          CFI (cfiCond216) VB load(1, XDATA, add(CFA_XSP16, literal(-14)))
          CFI (cfiCond216) V0 load(1, XDATA, add(CFA_XSP16, literal(-13)))
          CFI (cfiCond216) V1 load(1, XDATA, add(CFA_XSP16, literal(-12)))
          CFI (cfiCond216) V2 load(1, XDATA, add(CFA_XSP16, literal(-11)))
          CFI (cfiCond216) V3 load(1, XDATA, add(CFA_XSP16, literal(-10)))
          CFI (cfiCond216) V4 load(1, XDATA, add(CFA_XSP16, literal(-9)))
          CFI (cfiCond216) V5 load(1, XDATA, add(CFA_XSP16, literal(-8)))
          CFI (cfiCond216) V6 load(1, XDATA, add(CFA_XSP16, literal(-7)))
          CFI (cfiCond216) R7 load(1, XDATA, add(CFA_XSP16, literal(-6)))
          CFI (cfiCond216) ?RET_LOW load(1, XDATA, add(CFA_XSP16, literal(-5)))
          CFI (cfiCond216) ?RET_HIGH load(1, XDATA, add(CFA_XSP16, literal(-4)))
          CFI (cfiCond216) ?BRET_EXT load(1, XDATA, add(CFA_XSP16, literal(-3)))
          CFI (cfiCond216) DPL0 load(1, XDATA, add(CFA_XSP16, literal(-2)))
          CFI (cfiCond216) DPH0 load(1, XDATA, add(CFA_XSP16, literal(-1)))
          CFI (cfiCond216) CFA_SP SP+-4
          CFI (cfiCond216) CFA_XSP16 add(XSP16, 28)
          CFI Block cfiCond217 Using cfiCommon0
          CFI (cfiCond217) Function afIncomingData
          CFI (cfiCond217) Conditional ??CrossCallReturnLabel_90, ??CrossCallReturnLabel_25
          CFI (cfiCond217) R6 load(1, XDATA, add(CFA_XSP16, literal(-15)))
          CFI (cfiCond217) VB load(1, XDATA, add(CFA_XSP16, literal(-14)))
          CFI (cfiCond217) V0 load(1, XDATA, add(CFA_XSP16, literal(-13)))
          CFI (cfiCond217) V1 load(1, XDATA, add(CFA_XSP16, literal(-12)))
          CFI (cfiCond217) V2 load(1, XDATA, add(CFA_XSP16, literal(-11)))
          CFI (cfiCond217) V3 load(1, XDATA, add(CFA_XSP16, literal(-10)))
          CFI (cfiCond217) V4 load(1, XDATA, add(CFA_XSP16, literal(-9)))
          CFI (cfiCond217) V5 load(1, XDATA, add(CFA_XSP16, literal(-8)))
          CFI (cfiCond217) V6 load(1, XDATA, add(CFA_XSP16, literal(-7)))
          CFI (cfiCond217) R7 load(1, XDATA, add(CFA_XSP16, literal(-6)))
          CFI (cfiCond217) ?RET_LOW load(1, XDATA, add(CFA_XSP16, literal(-5)))
          CFI (cfiCond217) ?RET_HIGH load(1, XDATA, add(CFA_XSP16, literal(-4)))
          CFI (cfiCond217) ?BRET_EXT load(1, XDATA, add(CFA_XSP16, literal(-3)))
          CFI (cfiCond217) DPL0 load(1, XDATA, add(CFA_XSP16, literal(-2)))
          CFI (cfiCond217) DPH0 load(1, XDATA, add(CFA_XSP16, literal(-1)))
          CFI (cfiCond217) CFA_SP SP+-4
          CFI (cfiCond217) CFA_XSP16 add(XSP16, 28)
          CFI Block cfiCond218 Using cfiCommon0
          CFI (cfiCond218) Function afIncomingData
          CFI (cfiCond218) Conditional ??CrossCallReturnLabel_90, ??CrossCallReturnLabel_26
          CFI (cfiCond218) R6 load(1, XDATA, add(CFA_XSP16, literal(-15)))
          CFI (cfiCond218) VB load(1, XDATA, add(CFA_XSP16, literal(-14)))
          CFI (cfiCond218) V0 load(1, XDATA, add(CFA_XSP16, literal(-13)))
          CFI (cfiCond218) V1 load(1, XDATA, add(CFA_XSP16, literal(-12)))
          CFI (cfiCond218) V2 load(1, XDATA, add(CFA_XSP16, literal(-11)))
          CFI (cfiCond218) V3 load(1, XDATA, add(CFA_XSP16, literal(-10)))
          CFI (cfiCond218) V4 load(1, XDATA, add(CFA_XSP16, literal(-9)))
          CFI (cfiCond218) V5 load(1, XDATA, add(CFA_XSP16, literal(-8)))
          CFI (cfiCond218) V6 load(1, XDATA, add(CFA_XSP16, literal(-7)))
          CFI (cfiCond218) R7 load(1, XDATA, add(CFA_XSP16, literal(-6)))
          CFI (cfiCond218) ?RET_LOW load(1, XDATA, add(CFA_XSP16, literal(-5)))
          CFI (cfiCond218) ?RET_HIGH load(1, XDATA, add(CFA_XSP16, literal(-4)))
          CFI (cfiCond218) ?BRET_EXT load(1, XDATA, add(CFA_XSP16, literal(-3)))
          CFI (cfiCond218) DPL0 load(1, XDATA, add(CFA_XSP16, literal(-2)))
          CFI (cfiCond218) DPH0 load(1, XDATA, add(CFA_XSP16, literal(-1)))
          CFI (cfiCond218) CFA_SP SP+-4
          CFI (cfiCond218) CFA_XSP16 add(XSP16, 28)
          CFI Block cfiCond219 Using cfiCommon0
          CFI (cfiCond219) Function afIncomingData
          CFI (cfiCond219) Conditional ??CrossCallReturnLabel_90, ??CrossCallReturnLabel_27
          CFI (cfiCond219) R6 load(1, XDATA, add(CFA_XSP16, literal(-15)))
          CFI (cfiCond219) VB load(1, XDATA, add(CFA_XSP16, literal(-14)))
          CFI (cfiCond219) V0 load(1, XDATA, add(CFA_XSP16, literal(-13)))
          CFI (cfiCond219) V1 load(1, XDATA, add(CFA_XSP16, literal(-12)))
          CFI (cfiCond219) V2 load(1, XDATA, add(CFA_XSP16, literal(-11)))
          CFI (cfiCond219) V3 load(1, XDATA, add(CFA_XSP16, literal(-10)))
          CFI (cfiCond219) V4 load(1, XDATA, add(CFA_XSP16, literal(-9)))
          CFI (cfiCond219) V5 load(1, XDATA, add(CFA_XSP16, literal(-8)))
          CFI (cfiCond219) V6 load(1, XDATA, add(CFA_XSP16, literal(-7)))
          CFI (cfiCond219) R7 load(1, XDATA, add(CFA_XSP16, literal(-6)))
          CFI (cfiCond219) ?RET_LOW load(1, XDATA, add(CFA_XSP16, literal(-5)))
          CFI (cfiCond219) ?RET_HIGH load(1, XDATA, add(CFA_XSP16, literal(-4)))
          CFI (cfiCond219) ?BRET_EXT load(1, XDATA, add(CFA_XSP16, literal(-3)))
          CFI (cfiCond219) DPL0 load(1, XDATA, add(CFA_XSP16, literal(-2)))
          CFI (cfiCond219) DPH0 load(1, XDATA, add(CFA_XSP16, literal(-1)))
          CFI (cfiCond219) CFA_SP SP+-4
          CFI (cfiCond219) CFA_XSP16 add(XSP16, 28)
          CFI Block cfiCond220 Using cfiCommon0
          CFI (cfiCond220) Function AF_DataRequest
          CFI (cfiCond220) Conditional ??CrossCallReturnLabel_90, ??CrossCallReturnLabel_28
          CFI (cfiCond220) R6 load(1, XDATA, add(CFA_XSP16, literal(-16)))
          CFI (cfiCond220) VB load(1, XDATA, add(CFA_XSP16, literal(-15)))
          CFI (cfiCond220) V0 load(1, XDATA, add(CFA_XSP16, literal(-14)))
          CFI (cfiCond220) V1 load(1, XDATA, add(CFA_XSP16, literal(-13)))
          CFI (cfiCond220) V2 load(1, XDATA, add(CFA_XSP16, literal(-12)))
          CFI (cfiCond220) V3 load(1, XDATA, add(CFA_XSP16, literal(-11)))
          CFI (cfiCond220) V4 load(1, XDATA, add(CFA_XSP16, literal(-10)))
          CFI (cfiCond220) V5 load(1, XDATA, add(CFA_XSP16, literal(-9)))
          CFI (cfiCond220) V6 load(1, XDATA, add(CFA_XSP16, literal(-8)))
          CFI (cfiCond220) V7 load(1, XDATA, add(CFA_XSP16, literal(-7)))
          CFI (cfiCond220) R7 load(1, XDATA, add(CFA_XSP16, literal(-6)))
          CFI (cfiCond220) ?RET_LOW load(1, XDATA, add(CFA_XSP16, literal(-5)))
          CFI (cfiCond220) ?RET_HIGH load(1, XDATA, add(CFA_XSP16, literal(-4)))
          CFI (cfiCond220) ?BRET_EXT load(1, XDATA, add(CFA_XSP16, literal(-3)))
          CFI (cfiCond220) DPL0 load(1, XDATA, add(CFA_XSP16, literal(-2)))
          CFI (cfiCond220) DPH0 load(1, XDATA, add(CFA_XSP16, literal(-1)))
          CFI (cfiCond220) CFA_SP SP+-4
          CFI (cfiCond220) CFA_XSP16 add(XSP16, 49)
          CFI Block cfiCond221 Using cfiCommon0
          CFI (cfiCond221) Function AF_DataRequest
          CFI (cfiCond221) Conditional ??CrossCallReturnLabel_90, ??CrossCallReturnLabel_29
          CFI (cfiCond221) R6 load(1, XDATA, add(CFA_XSP16, literal(-16)))
          CFI (cfiCond221) VB load(1, XDATA, add(CFA_XSP16, literal(-15)))
          CFI (cfiCond221) V0 load(1, XDATA, add(CFA_XSP16, literal(-14)))
          CFI (cfiCond221) V1 load(1, XDATA, add(CFA_XSP16, literal(-13)))
          CFI (cfiCond221) V2 load(1, XDATA, add(CFA_XSP16, literal(-12)))
          CFI (cfiCond221) V3 load(1, XDATA, add(CFA_XSP16, literal(-11)))
          CFI (cfiCond221) V4 load(1, XDATA, add(CFA_XSP16, literal(-10)))
          CFI (cfiCond221) V5 load(1, XDATA, add(CFA_XSP16, literal(-9)))
          CFI (cfiCond221) V6 load(1, XDATA, add(CFA_XSP16, literal(-8)))
          CFI (cfiCond221) V7 load(1, XDATA, add(CFA_XSP16, literal(-7)))
          CFI (cfiCond221) R7 load(1, XDATA, add(CFA_XSP16, literal(-6)))
          CFI (cfiCond221) ?RET_LOW load(1, XDATA, add(CFA_XSP16, literal(-5)))
          CFI (cfiCond221) ?RET_HIGH load(1, XDATA, add(CFA_XSP16, literal(-4)))
          CFI (cfiCond221) ?BRET_EXT load(1, XDATA, add(CFA_XSP16, literal(-3)))
          CFI (cfiCond221) DPL0 load(1, XDATA, add(CFA_XSP16, literal(-2)))
          CFI (cfiCond221) DPH0 load(1, XDATA, add(CFA_XSP16, literal(-1)))
          CFI (cfiCond221) CFA_SP SP+-4
          CFI (cfiCond221) CFA_XSP16 add(XSP16, 49)
          CFI Block cfiCond222 Using cfiCommon0
          CFI (cfiCond222) Function AF_DataRequest
          CFI (cfiCond222) Conditional ??CrossCallReturnLabel_90, ??CrossCallReturnLabel_30
          CFI (cfiCond222) R6 load(1, XDATA, add(CFA_XSP16, literal(-16)))
          CFI (cfiCond222) VB load(1, XDATA, add(CFA_XSP16, literal(-15)))
          CFI (cfiCond222) V0 load(1, XDATA, add(CFA_XSP16, literal(-14)))
          CFI (cfiCond222) V1 load(1, XDATA, add(CFA_XSP16, literal(-13)))
          CFI (cfiCond222) V2 load(1, XDATA, add(CFA_XSP16, literal(-12)))
          CFI (cfiCond222) V3 load(1, XDATA, add(CFA_XSP16, literal(-11)))
          CFI (cfiCond222) V4 load(1, XDATA, add(CFA_XSP16, literal(-10)))
          CFI (cfiCond222) V5 load(1, XDATA, add(CFA_XSP16, literal(-9)))
          CFI (cfiCond222) V6 load(1, XDATA, add(CFA_XSP16, literal(-8)))
          CFI (cfiCond222) V7 load(1, XDATA, add(CFA_XSP16, literal(-7)))
          CFI (cfiCond222) R7 load(1, XDATA, add(CFA_XSP16, literal(-6)))
          CFI (cfiCond222) ?RET_LOW load(1, XDATA, add(CFA_XSP16, literal(-5)))
          CFI (cfiCond222) ?RET_HIGH load(1, XDATA, add(CFA_XSP16, literal(-4)))
          CFI (cfiCond222) ?BRET_EXT load(1, XDATA, add(CFA_XSP16, literal(-3)))
          CFI (cfiCond222) DPL0 load(1, XDATA, add(CFA_XSP16, literal(-2)))
          CFI (cfiCond222) DPH0 load(1, XDATA, add(CFA_XSP16, literal(-1)))
          CFI (cfiCond222) CFA_SP SP+-4
          CFI (cfiCond222) CFA_XSP16 add(XSP16, 49)
          CFI Block cfiCond223 Using cfiCommon0
          CFI (cfiCond223) Function afFindEndPointDescList
          CFI (cfiCond223) Conditional ??CrossCallReturnLabel_90, ??CrossCallReturnLabel_31
          CFI (cfiCond223) DPL0 Frame(CFA_SP, 4)
          CFI (cfiCond223) DPH0 Frame(CFA_SP, 5)
          CFI (cfiCond223) CFA_SP SP+-9
          CFI Block cfiPicker224 Using cfiCommon1
          CFI (cfiPicker224) NoFunction
          CFI (cfiPicker224) Picker
        LCALL     ?Subroutine48 & 0xFFFF
??CrossCallReturnLabel_136:
        MOVX      A,@DPTR
        RET
          CFI EndBlock cfiCond207
          CFI EndBlock cfiCond208
          CFI EndBlock cfiCond209
          CFI EndBlock cfiCond210
          CFI EndBlock cfiCond211
          CFI EndBlock cfiCond212
          CFI EndBlock cfiCond213
          CFI EndBlock cfiCond214
          CFI EndBlock cfiCond215
          CFI EndBlock cfiCond216
          CFI EndBlock cfiCond217
          CFI EndBlock cfiCond218
          CFI EndBlock cfiCond219
          CFI EndBlock cfiCond220
          CFI EndBlock cfiCond221
          CFI EndBlock cfiCond222
          CFI EndBlock cfiCond223
          CFI EndBlock cfiPicker224

        RSEG BANKED_CODE:HUGECODE:NOROOT(0)
?Subroutine48:
          CFI Block cfiCond225 Using cfiCommon0
          CFI Function afDataConfirm
          CFI Conditional ??CrossCallReturnLabel_136, ??CrossCallReturnLabel_91, ??CrossCallReturnLabel_84
          CFI R6 load(1, XDATA, add(CFA_XSP16, literal(-14)))
          CFI VB load(1, XDATA, add(CFA_XSP16, literal(-13)))
          CFI V0 load(1, XDATA, add(CFA_XSP16, literal(-12)))
          CFI V1 load(1, XDATA, add(CFA_XSP16, literal(-11)))
          CFI V2 load(1, XDATA, add(CFA_XSP16, literal(-10)))
          CFI V3 load(1, XDATA, add(CFA_XSP16, literal(-9)))
          CFI V4 load(1, XDATA, add(CFA_XSP16, literal(-8)))
          CFI V5 load(1, XDATA, add(CFA_XSP16, literal(-7)))
          CFI R7 load(1, XDATA, add(CFA_XSP16, literal(-6)))
          CFI ?RET_LOW load(1, XDATA, add(CFA_XSP16, literal(-5)))
          CFI ?RET_HIGH load(1, XDATA, add(CFA_XSP16, literal(-4)))
          CFI ?BRET_EXT load(1, XDATA, add(CFA_XSP16, literal(-3)))
          CFI DPL0 load(1, XDATA, add(CFA_XSP16, literal(-2)))
          CFI DPH0 load(1, XDATA, add(CFA_XSP16, literal(-1)))
          CFI CFA_SP SP+-6
          CFI CFA_XSP16 add(XSP16, 14)
          CFI Block cfiCond226 Using cfiCommon0
          CFI (cfiCond226) Function afReflectError
          CFI (cfiCond226) Conditional ??CrossCallReturnLabel_136, ??CrossCallReturnLabel_91, ??CrossCallReturnLabel_85
          CFI (cfiCond226) R6 load(1, XDATA, add(CFA_XSP16, literal(-16)))
          CFI (cfiCond226) VB load(1, XDATA, add(CFA_XSP16, literal(-15)))
          CFI (cfiCond226) V0 load(1, XDATA, add(CFA_XSP16, literal(-14)))
          CFI (cfiCond226) V1 load(1, XDATA, add(CFA_XSP16, literal(-13)))
          CFI (cfiCond226) V2 load(1, XDATA, add(CFA_XSP16, literal(-12)))
          CFI (cfiCond226) V3 load(1, XDATA, add(CFA_XSP16, literal(-11)))
          CFI (cfiCond226) V4 load(1, XDATA, add(CFA_XSP16, literal(-10)))
          CFI (cfiCond226) V5 load(1, XDATA, add(CFA_XSP16, literal(-9)))
          CFI (cfiCond226) V6 load(1, XDATA, add(CFA_XSP16, literal(-8)))
          CFI (cfiCond226) V7 load(1, XDATA, add(CFA_XSP16, literal(-7)))
          CFI (cfiCond226) R7 load(1, XDATA, add(CFA_XSP16, literal(-6)))
          CFI (cfiCond226) ?RET_LOW load(1, XDATA, add(CFA_XSP16, literal(-5)))
          CFI (cfiCond226) ?RET_HIGH load(1, XDATA, add(CFA_XSP16, literal(-4)))
          CFI (cfiCond226) ?BRET_EXT load(1, XDATA, add(CFA_XSP16, literal(-3)))
          CFI (cfiCond226) DPL0 load(1, XDATA, add(CFA_XSP16, literal(-2)))
          CFI (cfiCond226) DPH0 load(1, XDATA, add(CFA_XSP16, literal(-1)))
          CFI (cfiCond226) CFA_SP SP+-6
          CFI (cfiCond226) CFA_XSP16 add(XSP16, 16)
          CFI Block cfiCond227 Using cfiCommon0
          CFI (cfiCond227) Function afIncomingData
          CFI (cfiCond227) Conditional ??CrossCallReturnLabel_136, ??CrossCallReturnLabel_91, ??CrossCallReturnLabel_86
          CFI (cfiCond227) R6 load(1, XDATA, add(CFA_XSP16, literal(-15)))
          CFI (cfiCond227) VB load(1, XDATA, add(CFA_XSP16, literal(-14)))
          CFI (cfiCond227) V0 load(1, XDATA, add(CFA_XSP16, literal(-13)))
          CFI (cfiCond227) V1 load(1, XDATA, add(CFA_XSP16, literal(-12)))
          CFI (cfiCond227) V2 load(1, XDATA, add(CFA_XSP16, literal(-11)))
          CFI (cfiCond227) V3 load(1, XDATA, add(CFA_XSP16, literal(-10)))
          CFI (cfiCond227) V4 load(1, XDATA, add(CFA_XSP16, literal(-9)))
          CFI (cfiCond227) V5 load(1, XDATA, add(CFA_XSP16, literal(-8)))
          CFI (cfiCond227) V6 load(1, XDATA, add(CFA_XSP16, literal(-7)))
          CFI (cfiCond227) R7 load(1, XDATA, add(CFA_XSP16, literal(-6)))
          CFI (cfiCond227) ?RET_LOW load(1, XDATA, add(CFA_XSP16, literal(-5)))
          CFI (cfiCond227) ?RET_HIGH load(1, XDATA, add(CFA_XSP16, literal(-4)))
          CFI (cfiCond227) ?BRET_EXT load(1, XDATA, add(CFA_XSP16, literal(-3)))
          CFI (cfiCond227) DPL0 load(1, XDATA, add(CFA_XSP16, literal(-2)))
          CFI (cfiCond227) DPH0 load(1, XDATA, add(CFA_XSP16, literal(-1)))
          CFI (cfiCond227) CFA_SP SP+-6
          CFI (cfiCond227) CFA_XSP16 add(XSP16, 28)
          CFI Block cfiCond228 Using cfiCommon0
          CFI (cfiCond228) Function afBuildMSGIncoming
          CFI (cfiCond228) Conditional ??CrossCallReturnLabel_136, ??CrossCallReturnLabel_91, ??CrossCallReturnLabel_87
          CFI (cfiCond228) R6 load(1, XDATA, add(CFA_XSP16, literal(-16)))
          CFI (cfiCond228) VB load(1, XDATA, add(CFA_XSP16, literal(-15)))
          CFI (cfiCond228) V0 load(1, XDATA, add(CFA_XSP16, literal(-14)))
          CFI (cfiCond228) V1 load(1, XDATA, add(CFA_XSP16, literal(-13)))
          CFI (cfiCond228) V2 load(1, XDATA, add(CFA_XSP16, literal(-12)))
          CFI (cfiCond228) V3 load(1, XDATA, add(CFA_XSP16, literal(-11)))
          CFI (cfiCond228) V4 load(1, XDATA, add(CFA_XSP16, literal(-10)))
          CFI (cfiCond228) V5 load(1, XDATA, add(CFA_XSP16, literal(-9)))
          CFI (cfiCond228) V6 load(1, XDATA, add(CFA_XSP16, literal(-8)))
          CFI (cfiCond228) V7 load(1, XDATA, add(CFA_XSP16, literal(-7)))
          CFI (cfiCond228) R7 load(1, XDATA, add(CFA_XSP16, literal(-6)))
          CFI (cfiCond228) ?RET_LOW load(1, XDATA, add(CFA_XSP16, literal(-5)))
          CFI (cfiCond228) ?RET_HIGH load(1, XDATA, add(CFA_XSP16, literal(-4)))
          CFI (cfiCond228) ?BRET_EXT load(1, XDATA, add(CFA_XSP16, literal(-3)))
          CFI (cfiCond228) DPL0 load(1, XDATA, add(CFA_XSP16, literal(-2)))
          CFI (cfiCond228) DPH0 load(1, XDATA, add(CFA_XSP16, literal(-1)))
          CFI (cfiCond228) CFA_SP SP+-6
          CFI (cfiCond228) CFA_XSP16 add(XSP16, 19)
          CFI Block cfiCond229 Using cfiCommon0
          CFI (cfiCond229) Function afIncomingData
          CFI (cfiCond229) Conditional ??CrossCallReturnLabel_136, ??CrossCallReturnLabel_91, ??CrossCallReturnLabel_83
          CFI (cfiCond229) R6 load(1, XDATA, add(CFA_XSP16, literal(-15)))
          CFI (cfiCond229) VB load(1, XDATA, add(CFA_XSP16, literal(-14)))
          CFI (cfiCond229) V0 load(1, XDATA, add(CFA_XSP16, literal(-13)))
          CFI (cfiCond229) V1 load(1, XDATA, add(CFA_XSP16, literal(-12)))
          CFI (cfiCond229) V2 load(1, XDATA, add(CFA_XSP16, literal(-11)))
          CFI (cfiCond229) V3 load(1, XDATA, add(CFA_XSP16, literal(-10)))
          CFI (cfiCond229) V4 load(1, XDATA, add(CFA_XSP16, literal(-9)))
          CFI (cfiCond229) V5 load(1, XDATA, add(CFA_XSP16, literal(-8)))
          CFI (cfiCond229) V6 load(1, XDATA, add(CFA_XSP16, literal(-7)))
          CFI (cfiCond229) R7 load(1, XDATA, add(CFA_XSP16, literal(-6)))
          CFI (cfiCond229) ?RET_LOW load(1, XDATA, add(CFA_XSP16, literal(-5)))
          CFI (cfiCond229) ?RET_HIGH load(1, XDATA, add(CFA_XSP16, literal(-4)))
          CFI (cfiCond229) ?BRET_EXT load(1, XDATA, add(CFA_XSP16, literal(-3)))
          CFI (cfiCond229) DPL0 load(1, XDATA, add(CFA_XSP16, literal(-2)))
          CFI (cfiCond229) DPH0 load(1, XDATA, add(CFA_XSP16, literal(-1)))
          CFI (cfiCond229) CFA_SP SP+-6
          CFI (cfiCond229) CFA_XSP16 add(XSP16, 28)
          CFI Block cfiCond230 Using cfiCommon0
          CFI (cfiCond230) Function afIncomingData
          CFI (cfiCond230) Conditional ??CrossCallReturnLabel_136, ??CrossCallReturnLabel_89, ??CrossCallReturnLabel_22
          CFI (cfiCond230) R6 load(1, XDATA, add(CFA_XSP16, literal(-15)))
          CFI (cfiCond230) VB load(1, XDATA, add(CFA_XSP16, literal(-14)))
          CFI (cfiCond230) V0 load(1, XDATA, add(CFA_XSP16, literal(-13)))
          CFI (cfiCond230) V1 load(1, XDATA, add(CFA_XSP16, literal(-12)))
          CFI (cfiCond230) V2 load(1, XDATA, add(CFA_XSP16, literal(-11)))
          CFI (cfiCond230) V3 load(1, XDATA, add(CFA_XSP16, literal(-10)))
          CFI (cfiCond230) V4 load(1, XDATA, add(CFA_XSP16, literal(-9)))
          CFI (cfiCond230) V5 load(1, XDATA, add(CFA_XSP16, literal(-8)))
          CFI (cfiCond230) V6 load(1, XDATA, add(CFA_XSP16, literal(-7)))
          CFI (cfiCond230) R7 load(1, XDATA, add(CFA_XSP16, literal(-6)))
          CFI (cfiCond230) ?RET_LOW load(1, XDATA, add(CFA_XSP16, literal(-5)))
          CFI (cfiCond230) ?RET_HIGH load(1, XDATA, add(CFA_XSP16, literal(-4)))
          CFI (cfiCond230) ?BRET_EXT load(1, XDATA, add(CFA_XSP16, literal(-3)))
          CFI (cfiCond230) DPL0 load(1, XDATA, add(CFA_XSP16, literal(-2)))
          CFI (cfiCond230) DPH0 load(1, XDATA, add(CFA_XSP16, literal(-1)))
          CFI (cfiCond230) CFA_SP SP+-6
          CFI (cfiCond230) CFA_XSP16 add(XSP16, 28)
          CFI Block cfiCond231 Using cfiCommon0
          CFI (cfiCond231) Function afIncomingData
          CFI (cfiCond231) Conditional ??CrossCallReturnLabel_136, ??CrossCallReturnLabel_89, ??CrossCallReturnLabel_23
          CFI (cfiCond231) R6 load(1, XDATA, add(CFA_XSP16, literal(-15)))
          CFI (cfiCond231) VB load(1, XDATA, add(CFA_XSP16, literal(-14)))
          CFI (cfiCond231) V0 load(1, XDATA, add(CFA_XSP16, literal(-13)))
          CFI (cfiCond231) V1 load(1, XDATA, add(CFA_XSP16, literal(-12)))
          CFI (cfiCond231) V2 load(1, XDATA, add(CFA_XSP16, literal(-11)))
          CFI (cfiCond231) V3 load(1, XDATA, add(CFA_XSP16, literal(-10)))
          CFI (cfiCond231) V4 load(1, XDATA, add(CFA_XSP16, literal(-9)))
          CFI (cfiCond231) V5 load(1, XDATA, add(CFA_XSP16, literal(-8)))
          CFI (cfiCond231) V6 load(1, XDATA, add(CFA_XSP16, literal(-7)))
          CFI (cfiCond231) R7 load(1, XDATA, add(CFA_XSP16, literal(-6)))
          CFI (cfiCond231) ?RET_LOW load(1, XDATA, add(CFA_XSP16, literal(-5)))
          CFI (cfiCond231) ?RET_HIGH load(1, XDATA, add(CFA_XSP16, literal(-4)))
          CFI (cfiCond231) ?BRET_EXT load(1, XDATA, add(CFA_XSP16, literal(-3)))
          CFI (cfiCond231) DPL0 load(1, XDATA, add(CFA_XSP16, literal(-2)))
          CFI (cfiCond231) DPH0 load(1, XDATA, add(CFA_XSP16, literal(-1)))
          CFI (cfiCond231) CFA_SP SP+-6
          CFI (cfiCond231) CFA_XSP16 add(XSP16, 28)
          CFI Block cfiCond232 Using cfiCommon0
          CFI (cfiCond232) Function afIncomingData
          CFI (cfiCond232) Conditional ??CrossCallReturnLabel_136, ??CrossCallReturnLabel_88, ??CrossCallReturnLabel_11
          CFI (cfiCond232) R6 load(1, XDATA, add(CFA_XSP16, literal(-15)))
          CFI (cfiCond232) VB load(1, XDATA, add(CFA_XSP16, literal(-14)))
          CFI (cfiCond232) V0 load(1, XDATA, add(CFA_XSP16, literal(-13)))
          CFI (cfiCond232) V1 load(1, XDATA, add(CFA_XSP16, literal(-12)))
          CFI (cfiCond232) V2 load(1, XDATA, add(CFA_XSP16, literal(-11)))
          CFI (cfiCond232) V3 load(1, XDATA, add(CFA_XSP16, literal(-10)))
          CFI (cfiCond232) V4 load(1, XDATA, add(CFA_XSP16, literal(-9)))
          CFI (cfiCond232) V5 load(1, XDATA, add(CFA_XSP16, literal(-8)))
          CFI (cfiCond232) V6 load(1, XDATA, add(CFA_XSP16, literal(-7)))
          CFI (cfiCond232) R7 load(1, XDATA, add(CFA_XSP16, literal(-6)))
          CFI (cfiCond232) ?RET_LOW load(1, XDATA, add(CFA_XSP16, literal(-5)))
          CFI (cfiCond232) ?RET_HIGH load(1, XDATA, add(CFA_XSP16, literal(-4)))
          CFI (cfiCond232) ?BRET_EXT load(1, XDATA, add(CFA_XSP16, literal(-3)))
          CFI (cfiCond232) DPL0 load(1, XDATA, add(CFA_XSP16, literal(-2)))
          CFI (cfiCond232) DPH0 load(1, XDATA, add(CFA_XSP16, literal(-1)))
          CFI (cfiCond232) CFA_SP SP+-6
          CFI (cfiCond232) CFA_XSP16 add(XSP16, 28)
          CFI Block cfiCond233 Using cfiCommon0
          CFI (cfiCond233) Function afIncomingData
          CFI (cfiCond233) Conditional ??CrossCallReturnLabel_136, ??CrossCallReturnLabel_88, ??CrossCallReturnLabel_12
          CFI (cfiCond233) R6 load(1, XDATA, add(CFA_XSP16, literal(-15)))
          CFI (cfiCond233) VB load(1, XDATA, add(CFA_XSP16, literal(-14)))
          CFI (cfiCond233) V0 load(1, XDATA, add(CFA_XSP16, literal(-13)))
          CFI (cfiCond233) V1 load(1, XDATA, add(CFA_XSP16, literal(-12)))
          CFI (cfiCond233) V2 load(1, XDATA, add(CFA_XSP16, literal(-11)))
          CFI (cfiCond233) V3 load(1, XDATA, add(CFA_XSP16, literal(-10)))
          CFI (cfiCond233) V4 load(1, XDATA, add(CFA_XSP16, literal(-9)))
          CFI (cfiCond233) V5 load(1, XDATA, add(CFA_XSP16, literal(-8)))
          CFI (cfiCond233) V6 load(1, XDATA, add(CFA_XSP16, literal(-7)))
          CFI (cfiCond233) R7 load(1, XDATA, add(CFA_XSP16, literal(-6)))
          CFI (cfiCond233) ?RET_LOW load(1, XDATA, add(CFA_XSP16, literal(-5)))
          CFI (cfiCond233) ?RET_HIGH load(1, XDATA, add(CFA_XSP16, literal(-4)))
          CFI (cfiCond233) ?BRET_EXT load(1, XDATA, add(CFA_XSP16, literal(-3)))
          CFI (cfiCond233) DPL0 load(1, XDATA, add(CFA_XSP16, literal(-2)))
          CFI (cfiCond233) DPH0 load(1, XDATA, add(CFA_XSP16, literal(-1)))
          CFI (cfiCond233) CFA_SP SP+-6
          CFI (cfiCond233) CFA_XSP16 add(XSP16, 28)
          CFI Block cfiCond234 Using cfiCommon0
          CFI (cfiCond234) Function afIncomingData
          CFI (cfiCond234) Conditional ??CrossCallReturnLabel_136, ??CrossCallReturnLabel_90, ??CrossCallReturnLabel_24
          CFI (cfiCond234) R6 load(1, XDATA, add(CFA_XSP16, literal(-15)))
          CFI (cfiCond234) VB load(1, XDATA, add(CFA_XSP16, literal(-14)))
          CFI (cfiCond234) V0 load(1, XDATA, add(CFA_XSP16, literal(-13)))
          CFI (cfiCond234) V1 load(1, XDATA, add(CFA_XSP16, literal(-12)))
          CFI (cfiCond234) V2 load(1, XDATA, add(CFA_XSP16, literal(-11)))
          CFI (cfiCond234) V3 load(1, XDATA, add(CFA_XSP16, literal(-10)))
          CFI (cfiCond234) V4 load(1, XDATA, add(CFA_XSP16, literal(-9)))
          CFI (cfiCond234) V5 load(1, XDATA, add(CFA_XSP16, literal(-8)))
          CFI (cfiCond234) V6 load(1, XDATA, add(CFA_XSP16, literal(-7)))
          CFI (cfiCond234) R7 load(1, XDATA, add(CFA_XSP16, literal(-6)))
          CFI (cfiCond234) ?RET_LOW load(1, XDATA, add(CFA_XSP16, literal(-5)))
          CFI (cfiCond234) ?RET_HIGH load(1, XDATA, add(CFA_XSP16, literal(-4)))
          CFI (cfiCond234) ?BRET_EXT load(1, XDATA, add(CFA_XSP16, literal(-3)))
          CFI (cfiCond234) DPL0 load(1, XDATA, add(CFA_XSP16, literal(-2)))
          CFI (cfiCond234) DPH0 load(1, XDATA, add(CFA_XSP16, literal(-1)))
          CFI (cfiCond234) CFA_SP SP+-6
          CFI (cfiCond234) CFA_XSP16 add(XSP16, 28)
          CFI Block cfiCond235 Using cfiCommon0
          CFI (cfiCond235) Function afIncomingData
          CFI (cfiCond235) Conditional ??CrossCallReturnLabel_136, ??CrossCallReturnLabel_90, ??CrossCallReturnLabel_25
          CFI (cfiCond235) R6 load(1, XDATA, add(CFA_XSP16, literal(-15)))
          CFI (cfiCond235) VB load(1, XDATA, add(CFA_XSP16, literal(-14)))
          CFI (cfiCond235) V0 load(1, XDATA, add(CFA_XSP16, literal(-13)))
          CFI (cfiCond235) V1 load(1, XDATA, add(CFA_XSP16, literal(-12)))
          CFI (cfiCond235) V2 load(1, XDATA, add(CFA_XSP16, literal(-11)))
          CFI (cfiCond235) V3 load(1, XDATA, add(CFA_XSP16, literal(-10)))
          CFI (cfiCond235) V4 load(1, XDATA, add(CFA_XSP16, literal(-9)))
          CFI (cfiCond235) V5 load(1, XDATA, add(CFA_XSP16, literal(-8)))
          CFI (cfiCond235) V6 load(1, XDATA, add(CFA_XSP16, literal(-7)))
          CFI (cfiCond235) R7 load(1, XDATA, add(CFA_XSP16, literal(-6)))
          CFI (cfiCond235) ?RET_LOW load(1, XDATA, add(CFA_XSP16, literal(-5)))
          CFI (cfiCond235) ?RET_HIGH load(1, XDATA, add(CFA_XSP16, literal(-4)))
          CFI (cfiCond235) ?BRET_EXT load(1, XDATA, add(CFA_XSP16, literal(-3)))
          CFI (cfiCond235) DPL0 load(1, XDATA, add(CFA_XSP16, literal(-2)))
          CFI (cfiCond235) DPH0 load(1, XDATA, add(CFA_XSP16, literal(-1)))
          CFI (cfiCond235) CFA_SP SP+-6
          CFI (cfiCond235) CFA_XSP16 add(XSP16, 28)
          CFI Block cfiCond236 Using cfiCommon0
          CFI (cfiCond236) Function afIncomingData
          CFI (cfiCond236) Conditional ??CrossCallReturnLabel_136, ??CrossCallReturnLabel_90, ??CrossCallReturnLabel_26
          CFI (cfiCond236) R6 load(1, XDATA, add(CFA_XSP16, literal(-15)))
          CFI (cfiCond236) VB load(1, XDATA, add(CFA_XSP16, literal(-14)))
          CFI (cfiCond236) V0 load(1, XDATA, add(CFA_XSP16, literal(-13)))
          CFI (cfiCond236) V1 load(1, XDATA, add(CFA_XSP16, literal(-12)))
          CFI (cfiCond236) V2 load(1, XDATA, add(CFA_XSP16, literal(-11)))
          CFI (cfiCond236) V3 load(1, XDATA, add(CFA_XSP16, literal(-10)))
          CFI (cfiCond236) V4 load(1, XDATA, add(CFA_XSP16, literal(-9)))
          CFI (cfiCond236) V5 load(1, XDATA, add(CFA_XSP16, literal(-8)))
          CFI (cfiCond236) V6 load(1, XDATA, add(CFA_XSP16, literal(-7)))
          CFI (cfiCond236) R7 load(1, XDATA, add(CFA_XSP16, literal(-6)))
          CFI (cfiCond236) ?RET_LOW load(1, XDATA, add(CFA_XSP16, literal(-5)))
          CFI (cfiCond236) ?RET_HIGH load(1, XDATA, add(CFA_XSP16, literal(-4)))
          CFI (cfiCond236) ?BRET_EXT load(1, XDATA, add(CFA_XSP16, literal(-3)))
          CFI (cfiCond236) DPL0 load(1, XDATA, add(CFA_XSP16, literal(-2)))
          CFI (cfiCond236) DPH0 load(1, XDATA, add(CFA_XSP16, literal(-1)))
          CFI (cfiCond236) CFA_SP SP+-6
          CFI (cfiCond236) CFA_XSP16 add(XSP16, 28)
          CFI Block cfiCond237 Using cfiCommon0
          CFI (cfiCond237) Function afIncomingData
          CFI (cfiCond237) Conditional ??CrossCallReturnLabel_136, ??CrossCallReturnLabel_90, ??CrossCallReturnLabel_27
          CFI (cfiCond237) R6 load(1, XDATA, add(CFA_XSP16, literal(-15)))
          CFI (cfiCond237) VB load(1, XDATA, add(CFA_XSP16, literal(-14)))
          CFI (cfiCond237) V0 load(1, XDATA, add(CFA_XSP16, literal(-13)))
          CFI (cfiCond237) V1 load(1, XDATA, add(CFA_XSP16, literal(-12)))
          CFI (cfiCond237) V2 load(1, XDATA, add(CFA_XSP16, literal(-11)))
          CFI (cfiCond237) V3 load(1, XDATA, add(CFA_XSP16, literal(-10)))
          CFI (cfiCond237) V4 load(1, XDATA, add(CFA_XSP16, literal(-9)))
          CFI (cfiCond237) V5 load(1, XDATA, add(CFA_XSP16, literal(-8)))
          CFI (cfiCond237) V6 load(1, XDATA, add(CFA_XSP16, literal(-7)))
          CFI (cfiCond237) R7 load(1, XDATA, add(CFA_XSP16, literal(-6)))
          CFI (cfiCond237) ?RET_LOW load(1, XDATA, add(CFA_XSP16, literal(-5)))
          CFI (cfiCond237) ?RET_HIGH load(1, XDATA, add(CFA_XSP16, literal(-4)))
          CFI (cfiCond237) ?BRET_EXT load(1, XDATA, add(CFA_XSP16, literal(-3)))
          CFI (cfiCond237) DPL0 load(1, XDATA, add(CFA_XSP16, literal(-2)))
          CFI (cfiCond237) DPH0 load(1, XDATA, add(CFA_XSP16, literal(-1)))
          CFI (cfiCond237) CFA_SP SP+-6
          CFI (cfiCond237) CFA_XSP16 add(XSP16, 28)
          CFI Block cfiCond238 Using cfiCommon0
          CFI (cfiCond238) Function AF_DataRequest
          CFI (cfiCond238) Conditional ??CrossCallReturnLabel_136, ??CrossCallReturnLabel_90, ??CrossCallReturnLabel_28
          CFI (cfiCond238) R6 load(1, XDATA, add(CFA_XSP16, literal(-16)))
          CFI (cfiCond238) VB load(1, XDATA, add(CFA_XSP16, literal(-15)))
          CFI (cfiCond238) V0 load(1, XDATA, add(CFA_XSP16, literal(-14)))
          CFI (cfiCond238) V1 load(1, XDATA, add(CFA_XSP16, literal(-13)))
          CFI (cfiCond238) V2 load(1, XDATA, add(CFA_XSP16, literal(-12)))
          CFI (cfiCond238) V3 load(1, XDATA, add(CFA_XSP16, literal(-11)))
          CFI (cfiCond238) V4 load(1, XDATA, add(CFA_XSP16, literal(-10)))
          CFI (cfiCond238) V5 load(1, XDATA, add(CFA_XSP16, literal(-9)))
          CFI (cfiCond238) V6 load(1, XDATA, add(CFA_XSP16, literal(-8)))
          CFI (cfiCond238) V7 load(1, XDATA, add(CFA_XSP16, literal(-7)))
          CFI (cfiCond238) R7 load(1, XDATA, add(CFA_XSP16, literal(-6)))
          CFI (cfiCond238) ?RET_LOW load(1, XDATA, add(CFA_XSP16, literal(-5)))
          CFI (cfiCond238) ?RET_HIGH load(1, XDATA, add(CFA_XSP16, literal(-4)))
          CFI (cfiCond238) ?BRET_EXT load(1, XDATA, add(CFA_XSP16, literal(-3)))
          CFI (cfiCond238) DPL0 load(1, XDATA, add(CFA_XSP16, literal(-2)))
          CFI (cfiCond238) DPH0 load(1, XDATA, add(CFA_XSP16, literal(-1)))
          CFI (cfiCond238) CFA_SP SP+-6
          CFI (cfiCond238) CFA_XSP16 add(XSP16, 49)
          CFI Block cfiCond239 Using cfiCommon0
          CFI (cfiCond239) Function AF_DataRequest
          CFI (cfiCond239) Conditional ??CrossCallReturnLabel_136, ??CrossCallReturnLabel_90, ??CrossCallReturnLabel_29
          CFI (cfiCond239) R6 load(1, XDATA, add(CFA_XSP16, literal(-16)))
          CFI (cfiCond239) VB load(1, XDATA, add(CFA_XSP16, literal(-15)))
          CFI (cfiCond239) V0 load(1, XDATA, add(CFA_XSP16, literal(-14)))
          CFI (cfiCond239) V1 load(1, XDATA, add(CFA_XSP16, literal(-13)))
          CFI (cfiCond239) V2 load(1, XDATA, add(CFA_XSP16, literal(-12)))
          CFI (cfiCond239) V3 load(1, XDATA, add(CFA_XSP16, literal(-11)))
          CFI (cfiCond239) V4 load(1, XDATA, add(CFA_XSP16, literal(-10)))
          CFI (cfiCond239) V5 load(1, XDATA, add(CFA_XSP16, literal(-9)))
          CFI (cfiCond239) V6 load(1, XDATA, add(CFA_XSP16, literal(-8)))
          CFI (cfiCond239) V7 load(1, XDATA, add(CFA_XSP16, literal(-7)))
          CFI (cfiCond239) R7 load(1, XDATA, add(CFA_XSP16, literal(-6)))
          CFI (cfiCond239) ?RET_LOW load(1, XDATA, add(CFA_XSP16, literal(-5)))
          CFI (cfiCond239) ?RET_HIGH load(1, XDATA, add(CFA_XSP16, literal(-4)))
          CFI (cfiCond239) ?BRET_EXT load(1, XDATA, add(CFA_XSP16, literal(-3)))
          CFI (cfiCond239) DPL0 load(1, XDATA, add(CFA_XSP16, literal(-2)))
          CFI (cfiCond239) DPH0 load(1, XDATA, add(CFA_XSP16, literal(-1)))
          CFI (cfiCond239) CFA_SP SP+-6
          CFI (cfiCond239) CFA_XSP16 add(XSP16, 49)
          CFI Block cfiCond240 Using cfiCommon0
          CFI (cfiCond240) Function AF_DataRequest
          CFI (cfiCond240) Conditional ??CrossCallReturnLabel_136, ??CrossCallReturnLabel_90, ??CrossCallReturnLabel_30
          CFI (cfiCond240) R6 load(1, XDATA, add(CFA_XSP16, literal(-16)))
          CFI (cfiCond240) VB load(1, XDATA, add(CFA_XSP16, literal(-15)))
          CFI (cfiCond240) V0 load(1, XDATA, add(CFA_XSP16, literal(-14)))
          CFI (cfiCond240) V1 load(1, XDATA, add(CFA_XSP16, literal(-13)))
          CFI (cfiCond240) V2 load(1, XDATA, add(CFA_XSP16, literal(-12)))
          CFI (cfiCond240) V3 load(1, XDATA, add(CFA_XSP16, literal(-11)))
          CFI (cfiCond240) V4 load(1, XDATA, add(CFA_XSP16, literal(-10)))
          CFI (cfiCond240) V5 load(1, XDATA, add(CFA_XSP16, literal(-9)))
          CFI (cfiCond240) V6 load(1, XDATA, add(CFA_XSP16, literal(-8)))
          CFI (cfiCond240) V7 load(1, XDATA, add(CFA_XSP16, literal(-7)))
          CFI (cfiCond240) R7 load(1, XDATA, add(CFA_XSP16, literal(-6)))
          CFI (cfiCond240) ?RET_LOW load(1, XDATA, add(CFA_XSP16, literal(-5)))
          CFI (cfiCond240) ?RET_HIGH load(1, XDATA, add(CFA_XSP16, literal(-4)))
          CFI (cfiCond240) ?BRET_EXT load(1, XDATA, add(CFA_XSP16, literal(-3)))
          CFI (cfiCond240) DPL0 load(1, XDATA, add(CFA_XSP16, literal(-2)))
          CFI (cfiCond240) DPH0 load(1, XDATA, add(CFA_XSP16, literal(-1)))
          CFI (cfiCond240) CFA_SP SP+-6
          CFI (cfiCond240) CFA_XSP16 add(XSP16, 49)
          CFI Block cfiCond241 Using cfiCommon0
          CFI (cfiCond241) Function afFindEndPointDescList
          CFI (cfiCond241) Conditional ??CrossCallReturnLabel_136, ??CrossCallReturnLabel_90, ??CrossCallReturnLabel_31
          CFI (cfiCond241) DPL0 Frame(CFA_SP, 4)
          CFI (cfiCond241) DPH0 Frame(CFA_SP, 5)
          CFI (cfiCond241) CFA_SP SP+-11
          CFI Block cfiCond242 Using cfiCommon0
          CFI (cfiCond242) Function afIncomingData
          CFI (cfiCond242) Conditional ??CrossCallReturnLabel_135, ??CrossCallReturnLabel_149
          CFI (cfiCond242) R6 load(1, XDATA, add(CFA_XSP16, literal(-15)))
          CFI (cfiCond242) VB load(1, XDATA, add(CFA_XSP16, literal(-14)))
          CFI (cfiCond242) V0 load(1, XDATA, add(CFA_XSP16, literal(-13)))
          CFI (cfiCond242) V1 load(1, XDATA, add(CFA_XSP16, literal(-12)))
          CFI (cfiCond242) V2 load(1, XDATA, add(CFA_XSP16, literal(-11)))
          CFI (cfiCond242) V3 load(1, XDATA, add(CFA_XSP16, literal(-10)))
          CFI (cfiCond242) V4 load(1, XDATA, add(CFA_XSP16, literal(-9)))
          CFI (cfiCond242) V5 load(1, XDATA, add(CFA_XSP16, literal(-8)))
          CFI (cfiCond242) V6 load(1, XDATA, add(CFA_XSP16, literal(-7)))
          CFI (cfiCond242) R7 load(1, XDATA, add(CFA_XSP16, literal(-6)))
          CFI (cfiCond242) ?RET_LOW load(1, XDATA, add(CFA_XSP16, literal(-5)))
          CFI (cfiCond242) ?RET_HIGH load(1, XDATA, add(CFA_XSP16, literal(-4)))
          CFI (cfiCond242) ?BRET_EXT load(1, XDATA, add(CFA_XSP16, literal(-3)))
          CFI (cfiCond242) DPL0 load(1, XDATA, add(CFA_XSP16, literal(-2)))
          CFI (cfiCond242) DPH0 load(1, XDATA, add(CFA_XSP16, literal(-1)))
          CFI (cfiCond242) CFA_SP SP+-4
          CFI (cfiCond242) CFA_XSP16 add(XSP16, 28)
          CFI Block cfiCond243 Using cfiCommon0
          CFI (cfiCond243) Function afIncomingData
          CFI (cfiCond243) Conditional ??CrossCallReturnLabel_135, ??CrossCallReturnLabel_150
          CFI (cfiCond243) R6 load(1, XDATA, add(CFA_XSP16, literal(-15)))
          CFI (cfiCond243) VB load(1, XDATA, add(CFA_XSP16, literal(-14)))
          CFI (cfiCond243) V0 load(1, XDATA, add(CFA_XSP16, literal(-13)))
          CFI (cfiCond243) V1 load(1, XDATA, add(CFA_XSP16, literal(-12)))
          CFI (cfiCond243) V2 load(1, XDATA, add(CFA_XSP16, literal(-11)))
          CFI (cfiCond243) V3 load(1, XDATA, add(CFA_XSP16, literal(-10)))
          CFI (cfiCond243) V4 load(1, XDATA, add(CFA_XSP16, literal(-9)))
          CFI (cfiCond243) V5 load(1, XDATA, add(CFA_XSP16, literal(-8)))
          CFI (cfiCond243) V6 load(1, XDATA, add(CFA_XSP16, literal(-7)))
          CFI (cfiCond243) R7 load(1, XDATA, add(CFA_XSP16, literal(-6)))
          CFI (cfiCond243) ?RET_LOW load(1, XDATA, add(CFA_XSP16, literal(-5)))
          CFI (cfiCond243) ?RET_HIGH load(1, XDATA, add(CFA_XSP16, literal(-4)))
          CFI (cfiCond243) ?BRET_EXT load(1, XDATA, add(CFA_XSP16, literal(-3)))
          CFI (cfiCond243) DPL0 load(1, XDATA, add(CFA_XSP16, literal(-2)))
          CFI (cfiCond243) DPH0 load(1, XDATA, add(CFA_XSP16, literal(-1)))
          CFI (cfiCond243) CFA_SP SP+-4
          CFI (cfiCond243) CFA_XSP16 add(XSP16, 28)
          CFI Block cfiPicker244 Using cfiCommon1
          CFI (cfiPicker244) NoFunction
          CFI (cfiPicker244) Picker
        MOVX      A,@DPTR
        MOV       R0,A
          CFI EndBlock cfiCond225
          CFI EndBlock cfiCond226
          CFI EndBlock cfiCond227
          CFI EndBlock cfiCond228
          CFI EndBlock cfiCond229
          CFI EndBlock cfiCond230
          CFI EndBlock cfiCond231
          CFI EndBlock cfiCond232
          CFI EndBlock cfiCond233
          CFI EndBlock cfiCond234
          CFI EndBlock cfiCond235
          CFI EndBlock cfiCond236
          CFI EndBlock cfiCond237
          CFI EndBlock cfiCond238
          CFI EndBlock cfiCond239
          CFI EndBlock cfiCond240
          CFI EndBlock cfiCond241
          CFI EndBlock cfiCond242
          CFI EndBlock cfiCond243
          CFI EndBlock cfiPicker244
        REQUIRE ??Subroutine59_0
        ; // Fall through to label ??Subroutine59_0

        RSEG BANKED_CODE:HUGECODE:NOROOT(0)
??Subroutine59_0:
          CFI Block cfiCond245 Using cfiCommon0
          CFI Function afRegisterExtended
          CFI Conditional ??CrossCallReturnLabel_137, ??CrossCallReturnLabel_101, ??CrossCallReturnLabel_15
          CFI R6 load(1, XDATA, add(CFA_XSP16, literal(-14)))
          CFI VB load(1, XDATA, add(CFA_XSP16, literal(-13)))
          CFI V0 load(1, XDATA, add(CFA_XSP16, literal(-12)))
          CFI V1 load(1, XDATA, add(CFA_XSP16, literal(-11)))
          CFI V2 load(1, XDATA, add(CFA_XSP16, literal(-10)))
          CFI V3 load(1, XDATA, add(CFA_XSP16, literal(-9)))
          CFI V4 load(1, XDATA, add(CFA_XSP16, literal(-8)))
          CFI V5 load(1, XDATA, add(CFA_XSP16, literal(-7)))
          CFI R7 load(1, XDATA, add(CFA_XSP16, literal(-6)))
          CFI ?RET_LOW load(1, XDATA, add(CFA_XSP16, literal(-5)))
          CFI ?RET_HIGH load(1, XDATA, add(CFA_XSP16, literal(-4)))
          CFI ?BRET_EXT load(1, XDATA, add(CFA_XSP16, literal(-3)))
          CFI DPL0 load(1, XDATA, add(CFA_XSP16, literal(-2)))
          CFI DPH0 load(1, XDATA, add(CFA_XSP16, literal(-1)))
          CFI CFA_SP SP+-6
          CFI CFA_XSP16 add(XSP16, 14)
          CFI Block cfiCond246 Using cfiCommon0
          CFI (cfiCond246) Function afIncomingData
          CFI (cfiCond246) Conditional ??CrossCallReturnLabel_137, ??CrossCallReturnLabel_101, ??CrossCallReturnLabel_16
          CFI (cfiCond246) R6 load(1, XDATA, add(CFA_XSP16, literal(-15)))
          CFI (cfiCond246) VB load(1, XDATA, add(CFA_XSP16, literal(-14)))
          CFI (cfiCond246) V0 load(1, XDATA, add(CFA_XSP16, literal(-13)))
          CFI (cfiCond246) V1 load(1, XDATA, add(CFA_XSP16, literal(-12)))
          CFI (cfiCond246) V2 load(1, XDATA, add(CFA_XSP16, literal(-11)))
          CFI (cfiCond246) V3 load(1, XDATA, add(CFA_XSP16, literal(-10)))
          CFI (cfiCond246) V4 load(1, XDATA, add(CFA_XSP16, literal(-9)))
          CFI (cfiCond246) V5 load(1, XDATA, add(CFA_XSP16, literal(-8)))
          CFI (cfiCond246) V6 load(1, XDATA, add(CFA_XSP16, literal(-7)))
          CFI (cfiCond246) R7 load(1, XDATA, add(CFA_XSP16, literal(-6)))
          CFI (cfiCond246) ?RET_LOW load(1, XDATA, add(CFA_XSP16, literal(-5)))
          CFI (cfiCond246) ?RET_HIGH load(1, XDATA, add(CFA_XSP16, literal(-4)))
          CFI (cfiCond246) ?BRET_EXT load(1, XDATA, add(CFA_XSP16, literal(-3)))
          CFI (cfiCond246) DPL0 load(1, XDATA, add(CFA_XSP16, literal(-2)))
          CFI (cfiCond246) DPH0 load(1, XDATA, add(CFA_XSP16, literal(-1)))
          CFI (cfiCond246) CFA_SP SP+-6
          CFI (cfiCond246) CFA_XSP16 add(XSP16, 28)
          CFI Block cfiCond247 Using cfiCommon0
          CFI (cfiCond247) Function afIncomingData
          CFI (cfiCond247) Conditional ??CrossCallReturnLabel_137, ??CrossCallReturnLabel_101, ??CrossCallReturnLabel_17
          CFI (cfiCond247) R6 load(1, XDATA, add(CFA_XSP16, literal(-15)))
          CFI (cfiCond247) VB load(1, XDATA, add(CFA_XSP16, literal(-14)))
          CFI (cfiCond247) V0 load(1, XDATA, add(CFA_XSP16, literal(-13)))
          CFI (cfiCond247) V1 load(1, XDATA, add(CFA_XSP16, literal(-12)))
          CFI (cfiCond247) V2 load(1, XDATA, add(CFA_XSP16, literal(-11)))
          CFI (cfiCond247) V3 load(1, XDATA, add(CFA_XSP16, literal(-10)))
          CFI (cfiCond247) V4 load(1, XDATA, add(CFA_XSP16, literal(-9)))
          CFI (cfiCond247) V5 load(1, XDATA, add(CFA_XSP16, literal(-8)))
          CFI (cfiCond247) V6 load(1, XDATA, add(CFA_XSP16, literal(-7)))
          CFI (cfiCond247) R7 load(1, XDATA, add(CFA_XSP16, literal(-6)))
          CFI (cfiCond247) ?RET_LOW load(1, XDATA, add(CFA_XSP16, literal(-5)))
          CFI (cfiCond247) ?RET_HIGH load(1, XDATA, add(CFA_XSP16, literal(-4)))
          CFI (cfiCond247) ?BRET_EXT load(1, XDATA, add(CFA_XSP16, literal(-3)))
          CFI (cfiCond247) DPL0 load(1, XDATA, add(CFA_XSP16, literal(-2)))
          CFI (cfiCond247) DPH0 load(1, XDATA, add(CFA_XSP16, literal(-1)))
          CFI (cfiCond247) CFA_SP SP+-6
          CFI (cfiCond247) CFA_XSP16 add(XSP16, 28)
          CFI Block cfiCond248 Using cfiCommon0
          CFI (cfiCond248) Function afIncomingData
          CFI (cfiCond248) Conditional ??CrossCallReturnLabel_137, ??CrossCallReturnLabel_100, ??CrossCallReturnLabel_13
          CFI (cfiCond248) R6 load(1, XDATA, add(CFA_XSP16, literal(-15)))
          CFI (cfiCond248) VB load(1, XDATA, add(CFA_XSP16, literal(-14)))
          CFI (cfiCond248) V0 load(1, XDATA, add(CFA_XSP16, literal(-13)))
          CFI (cfiCond248) V1 load(1, XDATA, add(CFA_XSP16, literal(-12)))
          CFI (cfiCond248) V2 load(1, XDATA, add(CFA_XSP16, literal(-11)))
          CFI (cfiCond248) V3 load(1, XDATA, add(CFA_XSP16, literal(-10)))
          CFI (cfiCond248) V4 load(1, XDATA, add(CFA_XSP16, literal(-9)))
          CFI (cfiCond248) V5 load(1, XDATA, add(CFA_XSP16, literal(-8)))
          CFI (cfiCond248) V6 load(1, XDATA, add(CFA_XSP16, literal(-7)))
          CFI (cfiCond248) R7 load(1, XDATA, add(CFA_XSP16, literal(-6)))
          CFI (cfiCond248) ?RET_LOW load(1, XDATA, add(CFA_XSP16, literal(-5)))
          CFI (cfiCond248) ?RET_HIGH load(1, XDATA, add(CFA_XSP16, literal(-4)))
          CFI (cfiCond248) ?BRET_EXT load(1, XDATA, add(CFA_XSP16, literal(-3)))
          CFI (cfiCond248) DPL0 load(1, XDATA, add(CFA_XSP16, literal(-2)))
          CFI (cfiCond248) DPH0 load(1, XDATA, add(CFA_XSP16, literal(-1)))
          CFI (cfiCond248) CFA_SP SP+-6
          CFI (cfiCond248) CFA_XSP16 add(XSP16, 28)
          CFI Block cfiCond249 Using cfiCommon0
          CFI (cfiCond249) Function afFindSimpleDesc
          CFI (cfiCond249) Conditional ??CrossCallReturnLabel_137, ??CrossCallReturnLabel_100, ??CrossCallReturnLabel_14
          CFI (cfiCond249) R6 load(1, XDATA, add(CFA_XSP16, literal(-12)))
          CFI (cfiCond249) VB load(1, XDATA, add(CFA_XSP16, literal(-11)))
          CFI (cfiCond249) V0 load(1, XDATA, add(CFA_XSP16, literal(-10)))
          CFI (cfiCond249) V1 load(1, XDATA, add(CFA_XSP16, literal(-9)))
          CFI (cfiCond249) V2 load(1, XDATA, add(CFA_XSP16, literal(-8)))
          CFI (cfiCond249) V3 load(1, XDATA, add(CFA_XSP16, literal(-7)))
          CFI (cfiCond249) R7 load(1, XDATA, add(CFA_XSP16, literal(-6)))
          CFI (cfiCond249) ?RET_LOW load(1, XDATA, add(CFA_XSP16, literal(-5)))
          CFI (cfiCond249) ?RET_HIGH load(1, XDATA, add(CFA_XSP16, literal(-4)))
          CFI (cfiCond249) ?BRET_EXT load(1, XDATA, add(CFA_XSP16, literal(-3)))
          CFI (cfiCond249) DPL0 load(1, XDATA, add(CFA_XSP16, literal(-2)))
          CFI (cfiCond249) DPH0 load(1, XDATA, add(CFA_XSP16, literal(-1)))
          CFI (cfiCond249) CFA_SP SP+-6
          CFI (cfiCond249) CFA_XSP16 add(XSP16, 12)
          CFI Block cfiCond250 Using cfiCommon0
          CFI (cfiCond250) Function afIncomingData
          CFI (cfiCond250) Conditional ??CrossCallReturnLabel_137, ??CrossCallReturnLabel_99, ??CrossCallReturnLabel_34
          CFI (cfiCond250) R6 load(1, XDATA, add(CFA_XSP16, literal(-15)))
          CFI (cfiCond250) VB load(1, XDATA, add(CFA_XSP16, literal(-14)))
          CFI (cfiCond250) V0 load(1, XDATA, add(CFA_XSP16, literal(-13)))
          CFI (cfiCond250) V1 load(1, XDATA, add(CFA_XSP16, literal(-12)))
          CFI (cfiCond250) V2 load(1, XDATA, add(CFA_XSP16, literal(-11)))
          CFI (cfiCond250) V3 load(1, XDATA, add(CFA_XSP16, literal(-10)))
          CFI (cfiCond250) V4 load(1, XDATA, add(CFA_XSP16, literal(-9)))
          CFI (cfiCond250) V5 load(1, XDATA, add(CFA_XSP16, literal(-8)))
          CFI (cfiCond250) V6 load(1, XDATA, add(CFA_XSP16, literal(-7)))
          CFI (cfiCond250) R7 load(1, XDATA, add(CFA_XSP16, literal(-6)))
          CFI (cfiCond250) ?RET_LOW load(1, XDATA, add(CFA_XSP16, literal(-5)))
          CFI (cfiCond250) ?RET_HIGH load(1, XDATA, add(CFA_XSP16, literal(-4)))
          CFI (cfiCond250) ?BRET_EXT load(1, XDATA, add(CFA_XSP16, literal(-3)))
          CFI (cfiCond250) DPL0 load(1, XDATA, add(CFA_XSP16, literal(-2)))
          CFI (cfiCond250) DPH0 load(1, XDATA, add(CFA_XSP16, literal(-1)))
          CFI (cfiCond250) CFA_SP SP+-6
          CFI (cfiCond250) CFA_XSP16 add(XSP16, 28)
          CFI Block cfiCond251 Using cfiCommon0
          CFI (cfiCond251) Function afIncomingData
          CFI (cfiCond251) Conditional ??CrossCallReturnLabel_137, ??CrossCallReturnLabel_99, ??CrossCallReturnLabel_35
          CFI (cfiCond251) R6 load(1, XDATA, add(CFA_XSP16, literal(-15)))
          CFI (cfiCond251) VB load(1, XDATA, add(CFA_XSP16, literal(-14)))
          CFI (cfiCond251) V0 load(1, XDATA, add(CFA_XSP16, literal(-13)))
          CFI (cfiCond251) V1 load(1, XDATA, add(CFA_XSP16, literal(-12)))
          CFI (cfiCond251) V2 load(1, XDATA, add(CFA_XSP16, literal(-11)))
          CFI (cfiCond251) V3 load(1, XDATA, add(CFA_XSP16, literal(-10)))
          CFI (cfiCond251) V4 load(1, XDATA, add(CFA_XSP16, literal(-9)))
          CFI (cfiCond251) V5 load(1, XDATA, add(CFA_XSP16, literal(-8)))
          CFI (cfiCond251) V6 load(1, XDATA, add(CFA_XSP16, literal(-7)))
          CFI (cfiCond251) R7 load(1, XDATA, add(CFA_XSP16, literal(-6)))
          CFI (cfiCond251) ?RET_LOW load(1, XDATA, add(CFA_XSP16, literal(-5)))
          CFI (cfiCond251) ?RET_HIGH load(1, XDATA, add(CFA_XSP16, literal(-4)))
          CFI (cfiCond251) ?BRET_EXT load(1, XDATA, add(CFA_XSP16, literal(-3)))
          CFI (cfiCond251) DPL0 load(1, XDATA, add(CFA_XSP16, literal(-2)))
          CFI (cfiCond251) DPH0 load(1, XDATA, add(CFA_XSP16, literal(-1)))
          CFI (cfiCond251) CFA_SP SP+-6
          CFI (cfiCond251) CFA_XSP16 add(XSP16, 28)
          CFI Block cfiCond252 Using cfiCommon0
          CFI (cfiCond252) Function afDataConfirm
          CFI (cfiCond252) Conditional ??CrossCallReturnLabel_136, ??CrossCallReturnLabel_91, ??CrossCallReturnLabel_84
          CFI (cfiCond252) R6 load(1, XDATA, add(CFA_XSP16, literal(-14)))
          CFI (cfiCond252) VB load(1, XDATA, add(CFA_XSP16, literal(-13)))
          CFI (cfiCond252) V0 load(1, XDATA, add(CFA_XSP16, literal(-12)))
          CFI (cfiCond252) V1 load(1, XDATA, add(CFA_XSP16, literal(-11)))
          CFI (cfiCond252) V2 load(1, XDATA, add(CFA_XSP16, literal(-10)))
          CFI (cfiCond252) V3 load(1, XDATA, add(CFA_XSP16, literal(-9)))
          CFI (cfiCond252) V4 load(1, XDATA, add(CFA_XSP16, literal(-8)))
          CFI (cfiCond252) V5 load(1, XDATA, add(CFA_XSP16, literal(-7)))
          CFI (cfiCond252) R7 load(1, XDATA, add(CFA_XSP16, literal(-6)))
          CFI (cfiCond252) ?RET_LOW load(1, XDATA, add(CFA_XSP16, literal(-5)))
          CFI (cfiCond252) ?RET_HIGH load(1, XDATA, add(CFA_XSP16, literal(-4)))
          CFI (cfiCond252) ?BRET_EXT load(1, XDATA, add(CFA_XSP16, literal(-3)))
          CFI (cfiCond252) DPL0 load(1, XDATA, add(CFA_XSP16, literal(-2)))
          CFI (cfiCond252) DPH0 load(1, XDATA, add(CFA_XSP16, literal(-1)))
          CFI (cfiCond252) CFA_SP SP+-6
          CFI (cfiCond252) CFA_XSP16 add(XSP16, 14)
          CFI Block cfiCond253 Using cfiCommon0
          CFI (cfiCond253) Function afReflectError
          CFI (cfiCond253) Conditional ??CrossCallReturnLabel_136, ??CrossCallReturnLabel_91, ??CrossCallReturnLabel_85
          CFI (cfiCond253) R6 load(1, XDATA, add(CFA_XSP16, literal(-16)))
          CFI (cfiCond253) VB load(1, XDATA, add(CFA_XSP16, literal(-15)))
          CFI (cfiCond253) V0 load(1, XDATA, add(CFA_XSP16, literal(-14)))
          CFI (cfiCond253) V1 load(1, XDATA, add(CFA_XSP16, literal(-13)))
          CFI (cfiCond253) V2 load(1, XDATA, add(CFA_XSP16, literal(-12)))
          CFI (cfiCond253) V3 load(1, XDATA, add(CFA_XSP16, literal(-11)))
          CFI (cfiCond253) V4 load(1, XDATA, add(CFA_XSP16, literal(-10)))
          CFI (cfiCond253) V5 load(1, XDATA, add(CFA_XSP16, literal(-9)))
          CFI (cfiCond253) V6 load(1, XDATA, add(CFA_XSP16, literal(-8)))
          CFI (cfiCond253) V7 load(1, XDATA, add(CFA_XSP16, literal(-7)))
          CFI (cfiCond253) R7 load(1, XDATA, add(CFA_XSP16, literal(-6)))
          CFI (cfiCond253) ?RET_LOW load(1, XDATA, add(CFA_XSP16, literal(-5)))
          CFI (cfiCond253) ?RET_HIGH load(1, XDATA, add(CFA_XSP16, literal(-4)))
          CFI (cfiCond253) ?BRET_EXT load(1, XDATA, add(CFA_XSP16, literal(-3)))
          CFI (cfiCond253) DPL0 load(1, XDATA, add(CFA_XSP16, literal(-2)))
          CFI (cfiCond253) DPH0 load(1, XDATA, add(CFA_XSP16, literal(-1)))
          CFI (cfiCond253) CFA_SP SP+-6
          CFI (cfiCond253) CFA_XSP16 add(XSP16, 16)
          CFI Block cfiCond254 Using cfiCommon0
          CFI (cfiCond254) Function afIncomingData
          CFI (cfiCond254) Conditional ??CrossCallReturnLabel_136, ??CrossCallReturnLabel_91, ??CrossCallReturnLabel_86
          CFI (cfiCond254) R6 load(1, XDATA, add(CFA_XSP16, literal(-15)))
          CFI (cfiCond254) VB load(1, XDATA, add(CFA_XSP16, literal(-14)))
          CFI (cfiCond254) V0 load(1, XDATA, add(CFA_XSP16, literal(-13)))
          CFI (cfiCond254) V1 load(1, XDATA, add(CFA_XSP16, literal(-12)))
          CFI (cfiCond254) V2 load(1, XDATA, add(CFA_XSP16, literal(-11)))
          CFI (cfiCond254) V3 load(1, XDATA, add(CFA_XSP16, literal(-10)))
          CFI (cfiCond254) V4 load(1, XDATA, add(CFA_XSP16, literal(-9)))
          CFI (cfiCond254) V5 load(1, XDATA, add(CFA_XSP16, literal(-8)))
          CFI (cfiCond254) V6 load(1, XDATA, add(CFA_XSP16, literal(-7)))
          CFI (cfiCond254) R7 load(1, XDATA, add(CFA_XSP16, literal(-6)))
          CFI (cfiCond254) ?RET_LOW load(1, XDATA, add(CFA_XSP16, literal(-5)))
          CFI (cfiCond254) ?RET_HIGH load(1, XDATA, add(CFA_XSP16, literal(-4)))
          CFI (cfiCond254) ?BRET_EXT load(1, XDATA, add(CFA_XSP16, literal(-3)))
          CFI (cfiCond254) DPL0 load(1, XDATA, add(CFA_XSP16, literal(-2)))
          CFI (cfiCond254) DPH0 load(1, XDATA, add(CFA_XSP16, literal(-1)))
          CFI (cfiCond254) CFA_SP SP+-6
          CFI (cfiCond254) CFA_XSP16 add(XSP16, 28)
          CFI Block cfiCond255 Using cfiCommon0
          CFI (cfiCond255) Function afBuildMSGIncoming
          CFI (cfiCond255) Conditional ??CrossCallReturnLabel_136, ??CrossCallReturnLabel_91, ??CrossCallReturnLabel_87
          CFI (cfiCond255) R6 load(1, XDATA, add(CFA_XSP16, literal(-16)))
          CFI (cfiCond255) VB load(1, XDATA, add(CFA_XSP16, literal(-15)))
          CFI (cfiCond255) V0 load(1, XDATA, add(CFA_XSP16, literal(-14)))
          CFI (cfiCond255) V1 load(1, XDATA, add(CFA_XSP16, literal(-13)))
          CFI (cfiCond255) V2 load(1, XDATA, add(CFA_XSP16, literal(-12)))
          CFI (cfiCond255) V3 load(1, XDATA, add(CFA_XSP16, literal(-11)))
          CFI (cfiCond255) V4 load(1, XDATA, add(CFA_XSP16, literal(-10)))
          CFI (cfiCond255) V5 load(1, XDATA, add(CFA_XSP16, literal(-9)))
          CFI (cfiCond255) V6 load(1, XDATA, add(CFA_XSP16, literal(-8)))
          CFI (cfiCond255) V7 load(1, XDATA, add(CFA_XSP16, literal(-7)))
          CFI (cfiCond255) R7 load(1, XDATA, add(CFA_XSP16, literal(-6)))
          CFI (cfiCond255) ?RET_LOW load(1, XDATA, add(CFA_XSP16, literal(-5)))
          CFI (cfiCond255) ?RET_HIGH load(1, XDATA, add(CFA_XSP16, literal(-4)))
          CFI (cfiCond255) ?BRET_EXT load(1, XDATA, add(CFA_XSP16, literal(-3)))
          CFI (cfiCond255) DPL0 load(1, XDATA, add(CFA_XSP16, literal(-2)))
          CFI (cfiCond255) DPH0 load(1, XDATA, add(CFA_XSP16, literal(-1)))
          CFI (cfiCond255) CFA_SP SP+-6
          CFI (cfiCond255) CFA_XSP16 add(XSP16, 19)
          CFI Block cfiCond256 Using cfiCommon0
          CFI (cfiCond256) Function afIncomingData
          CFI (cfiCond256) Conditional ??CrossCallReturnLabel_136, ??CrossCallReturnLabel_91, ??CrossCallReturnLabel_83
          CFI (cfiCond256) R6 load(1, XDATA, add(CFA_XSP16, literal(-15)))
          CFI (cfiCond256) VB load(1, XDATA, add(CFA_XSP16, literal(-14)))
          CFI (cfiCond256) V0 load(1, XDATA, add(CFA_XSP16, literal(-13)))
          CFI (cfiCond256) V1 load(1, XDATA, add(CFA_XSP16, literal(-12)))
          CFI (cfiCond256) V2 load(1, XDATA, add(CFA_XSP16, literal(-11)))
          CFI (cfiCond256) V3 load(1, XDATA, add(CFA_XSP16, literal(-10)))
          CFI (cfiCond256) V4 load(1, XDATA, add(CFA_XSP16, literal(-9)))
          CFI (cfiCond256) V5 load(1, XDATA, add(CFA_XSP16, literal(-8)))
          CFI (cfiCond256) V6 load(1, XDATA, add(CFA_XSP16, literal(-7)))
          CFI (cfiCond256) R7 load(1, XDATA, add(CFA_XSP16, literal(-6)))
          CFI (cfiCond256) ?RET_LOW load(1, XDATA, add(CFA_XSP16, literal(-5)))
          CFI (cfiCond256) ?RET_HIGH load(1, XDATA, add(CFA_XSP16, literal(-4)))
          CFI (cfiCond256) ?BRET_EXT load(1, XDATA, add(CFA_XSP16, literal(-3)))
          CFI (cfiCond256) DPL0 load(1, XDATA, add(CFA_XSP16, literal(-2)))
          CFI (cfiCond256) DPH0 load(1, XDATA, add(CFA_XSP16, literal(-1)))
          CFI (cfiCond256) CFA_SP SP+-6
          CFI (cfiCond256) CFA_XSP16 add(XSP16, 28)
          CFI Block cfiCond257 Using cfiCommon0
          CFI (cfiCond257) Function afIncomingData
          CFI (cfiCond257) Conditional ??CrossCallReturnLabel_136, ??CrossCallReturnLabel_89, ??CrossCallReturnLabel_22
          CFI (cfiCond257) R6 load(1, XDATA, add(CFA_XSP16, literal(-15)))
          CFI (cfiCond257) VB load(1, XDATA, add(CFA_XSP16, literal(-14)))
          CFI (cfiCond257) V0 load(1, XDATA, add(CFA_XSP16, literal(-13)))
          CFI (cfiCond257) V1 load(1, XDATA, add(CFA_XSP16, literal(-12)))
          CFI (cfiCond257) V2 load(1, XDATA, add(CFA_XSP16, literal(-11)))
          CFI (cfiCond257) V3 load(1, XDATA, add(CFA_XSP16, literal(-10)))
          CFI (cfiCond257) V4 load(1, XDATA, add(CFA_XSP16, literal(-9)))
          CFI (cfiCond257) V5 load(1, XDATA, add(CFA_XSP16, literal(-8)))
          CFI (cfiCond257) V6 load(1, XDATA, add(CFA_XSP16, literal(-7)))
          CFI (cfiCond257) R7 load(1, XDATA, add(CFA_XSP16, literal(-6)))
          CFI (cfiCond257) ?RET_LOW load(1, XDATA, add(CFA_XSP16, literal(-5)))
          CFI (cfiCond257) ?RET_HIGH load(1, XDATA, add(CFA_XSP16, literal(-4)))
          CFI (cfiCond257) ?BRET_EXT load(1, XDATA, add(CFA_XSP16, literal(-3)))
          CFI (cfiCond257) DPL0 load(1, XDATA, add(CFA_XSP16, literal(-2)))
          CFI (cfiCond257) DPH0 load(1, XDATA, add(CFA_XSP16, literal(-1)))
          CFI (cfiCond257) CFA_SP SP+-6
          CFI (cfiCond257) CFA_XSP16 add(XSP16, 28)
          CFI Block cfiCond258 Using cfiCommon0
          CFI (cfiCond258) Function afIncomingData
          CFI (cfiCond258) Conditional ??CrossCallReturnLabel_136, ??CrossCallReturnLabel_89, ??CrossCallReturnLabel_23
          CFI (cfiCond258) R6 load(1, XDATA, add(CFA_XSP16, literal(-15)))
          CFI (cfiCond258) VB load(1, XDATA, add(CFA_XSP16, literal(-14)))
          CFI (cfiCond258) V0 load(1, XDATA, add(CFA_XSP16, literal(-13)))
          CFI (cfiCond258) V1 load(1, XDATA, add(CFA_XSP16, literal(-12)))
          CFI (cfiCond258) V2 load(1, XDATA, add(CFA_XSP16, literal(-11)))
          CFI (cfiCond258) V3 load(1, XDATA, add(CFA_XSP16, literal(-10)))
          CFI (cfiCond258) V4 load(1, XDATA, add(CFA_XSP16, literal(-9)))
          CFI (cfiCond258) V5 load(1, XDATA, add(CFA_XSP16, literal(-8)))
          CFI (cfiCond258) V6 load(1, XDATA, add(CFA_XSP16, literal(-7)))
          CFI (cfiCond258) R7 load(1, XDATA, add(CFA_XSP16, literal(-6)))
          CFI (cfiCond258) ?RET_LOW load(1, XDATA, add(CFA_XSP16, literal(-5)))
          CFI (cfiCond258) ?RET_HIGH load(1, XDATA, add(CFA_XSP16, literal(-4)))
          CFI (cfiCond258) ?BRET_EXT load(1, XDATA, add(CFA_XSP16, literal(-3)))
          CFI (cfiCond258) DPL0 load(1, XDATA, add(CFA_XSP16, literal(-2)))
          CFI (cfiCond258) DPH0 load(1, XDATA, add(CFA_XSP16, literal(-1)))
          CFI (cfiCond258) CFA_SP SP+-6
          CFI (cfiCond258) CFA_XSP16 add(XSP16, 28)
          CFI Block cfiCond259 Using cfiCommon0
          CFI (cfiCond259) Function afIncomingData
          CFI (cfiCond259) Conditional ??CrossCallReturnLabel_136, ??CrossCallReturnLabel_88, ??CrossCallReturnLabel_11
          CFI (cfiCond259) R6 load(1, XDATA, add(CFA_XSP16, literal(-15)))
          CFI (cfiCond259) VB load(1, XDATA, add(CFA_XSP16, literal(-14)))
          CFI (cfiCond259) V0 load(1, XDATA, add(CFA_XSP16, literal(-13)))
          CFI (cfiCond259) V1 load(1, XDATA, add(CFA_XSP16, literal(-12)))
          CFI (cfiCond259) V2 load(1, XDATA, add(CFA_XSP16, literal(-11)))
          CFI (cfiCond259) V3 load(1, XDATA, add(CFA_XSP16, literal(-10)))
          CFI (cfiCond259) V4 load(1, XDATA, add(CFA_XSP16, literal(-9)))
          CFI (cfiCond259) V5 load(1, XDATA, add(CFA_XSP16, literal(-8)))
          CFI (cfiCond259) V6 load(1, XDATA, add(CFA_XSP16, literal(-7)))
          CFI (cfiCond259) R7 load(1, XDATA, add(CFA_XSP16, literal(-6)))
          CFI (cfiCond259) ?RET_LOW load(1, XDATA, add(CFA_XSP16, literal(-5)))
          CFI (cfiCond259) ?RET_HIGH load(1, XDATA, add(CFA_XSP16, literal(-4)))
          CFI (cfiCond259) ?BRET_EXT load(1, XDATA, add(CFA_XSP16, literal(-3)))
          CFI (cfiCond259) DPL0 load(1, XDATA, add(CFA_XSP16, literal(-2)))
          CFI (cfiCond259) DPH0 load(1, XDATA, add(CFA_XSP16, literal(-1)))
          CFI (cfiCond259) CFA_SP SP+-6
          CFI (cfiCond259) CFA_XSP16 add(XSP16, 28)
          CFI Block cfiCond260 Using cfiCommon0
          CFI (cfiCond260) Function afIncomingData
          CFI (cfiCond260) Conditional ??CrossCallReturnLabel_136, ??CrossCallReturnLabel_88, ??CrossCallReturnLabel_12
          CFI (cfiCond260) R6 load(1, XDATA, add(CFA_XSP16, literal(-15)))
          CFI (cfiCond260) VB load(1, XDATA, add(CFA_XSP16, literal(-14)))
          CFI (cfiCond260) V0 load(1, XDATA, add(CFA_XSP16, literal(-13)))
          CFI (cfiCond260) V1 load(1, XDATA, add(CFA_XSP16, literal(-12)))
          CFI (cfiCond260) V2 load(1, XDATA, add(CFA_XSP16, literal(-11)))
          CFI (cfiCond260) V3 load(1, XDATA, add(CFA_XSP16, literal(-10)))
          CFI (cfiCond260) V4 load(1, XDATA, add(CFA_XSP16, literal(-9)))
          CFI (cfiCond260) V5 load(1, XDATA, add(CFA_XSP16, literal(-8)))
          CFI (cfiCond260) V6 load(1, XDATA, add(CFA_XSP16, literal(-7)))
          CFI (cfiCond260) R7 load(1, XDATA, add(CFA_XSP16, literal(-6)))
          CFI (cfiCond260) ?RET_LOW load(1, XDATA, add(CFA_XSP16, literal(-5)))
          CFI (cfiCond260) ?RET_HIGH load(1, XDATA, add(CFA_XSP16, literal(-4)))
          CFI (cfiCond260) ?BRET_EXT load(1, XDATA, add(CFA_XSP16, literal(-3)))
          CFI (cfiCond260) DPL0 load(1, XDATA, add(CFA_XSP16, literal(-2)))
          CFI (cfiCond260) DPH0 load(1, XDATA, add(CFA_XSP16, literal(-1)))
          CFI (cfiCond260) CFA_SP SP+-6
          CFI (cfiCond260) CFA_XSP16 add(XSP16, 28)
          CFI Block cfiCond261 Using cfiCommon0
          CFI (cfiCond261) Function afIncomingData
          CFI (cfiCond261) Conditional ??CrossCallReturnLabel_136, ??CrossCallReturnLabel_90, ??CrossCallReturnLabel_24
          CFI (cfiCond261) R6 load(1, XDATA, add(CFA_XSP16, literal(-15)))
          CFI (cfiCond261) VB load(1, XDATA, add(CFA_XSP16, literal(-14)))
          CFI (cfiCond261) V0 load(1, XDATA, add(CFA_XSP16, literal(-13)))
          CFI (cfiCond261) V1 load(1, XDATA, add(CFA_XSP16, literal(-12)))
          CFI (cfiCond261) V2 load(1, XDATA, add(CFA_XSP16, literal(-11)))
          CFI (cfiCond261) V3 load(1, XDATA, add(CFA_XSP16, literal(-10)))
          CFI (cfiCond261) V4 load(1, XDATA, add(CFA_XSP16, literal(-9)))
          CFI (cfiCond261) V5 load(1, XDATA, add(CFA_XSP16, literal(-8)))
          CFI (cfiCond261) V6 load(1, XDATA, add(CFA_XSP16, literal(-7)))
          CFI (cfiCond261) R7 load(1, XDATA, add(CFA_XSP16, literal(-6)))
          CFI (cfiCond261) ?RET_LOW load(1, XDATA, add(CFA_XSP16, literal(-5)))
          CFI (cfiCond261) ?RET_HIGH load(1, XDATA, add(CFA_XSP16, literal(-4)))
          CFI (cfiCond261) ?BRET_EXT load(1, XDATA, add(CFA_XSP16, literal(-3)))
          CFI (cfiCond261) DPL0 load(1, XDATA, add(CFA_XSP16, literal(-2)))
          CFI (cfiCond261) DPH0 load(1, XDATA, add(CFA_XSP16, literal(-1)))
          CFI (cfiCond261) CFA_SP SP+-6
          CFI (cfiCond261) CFA_XSP16 add(XSP16, 28)
          CFI Block cfiCond262 Using cfiCommon0
          CFI (cfiCond262) Function afIncomingData
          CFI (cfiCond262) Conditional ??CrossCallReturnLabel_136, ??CrossCallReturnLabel_90, ??CrossCallReturnLabel_25
          CFI (cfiCond262) R6 load(1, XDATA, add(CFA_XSP16, literal(-15)))
          CFI (cfiCond262) VB load(1, XDATA, add(CFA_XSP16, literal(-14)))
          CFI (cfiCond262) V0 load(1, XDATA, add(CFA_XSP16, literal(-13)))
          CFI (cfiCond262) V1 load(1, XDATA, add(CFA_XSP16, literal(-12)))
          CFI (cfiCond262) V2 load(1, XDATA, add(CFA_XSP16, literal(-11)))
          CFI (cfiCond262) V3 load(1, XDATA, add(CFA_XSP16, literal(-10)))
          CFI (cfiCond262) V4 load(1, XDATA, add(CFA_XSP16, literal(-9)))
          CFI (cfiCond262) V5 load(1, XDATA, add(CFA_XSP16, literal(-8)))
          CFI (cfiCond262) V6 load(1, XDATA, add(CFA_XSP16, literal(-7)))
          CFI (cfiCond262) R7 load(1, XDATA, add(CFA_XSP16, literal(-6)))
          CFI (cfiCond262) ?RET_LOW load(1, XDATA, add(CFA_XSP16, literal(-5)))
          CFI (cfiCond262) ?RET_HIGH load(1, XDATA, add(CFA_XSP16, literal(-4)))
          CFI (cfiCond262) ?BRET_EXT load(1, XDATA, add(CFA_XSP16, literal(-3)))
          CFI (cfiCond262) DPL0 load(1, XDATA, add(CFA_XSP16, literal(-2)))
          CFI (cfiCond262) DPH0 load(1, XDATA, add(CFA_XSP16, literal(-1)))
          CFI (cfiCond262) CFA_SP SP+-6
          CFI (cfiCond262) CFA_XSP16 add(XSP16, 28)
          CFI Block cfiCond263 Using cfiCommon0
          CFI (cfiCond263) Function afIncomingData
          CFI (cfiCond263) Conditional ??CrossCallReturnLabel_136, ??CrossCallReturnLabel_90, ??CrossCallReturnLabel_26
          CFI (cfiCond263) R6 load(1, XDATA, add(CFA_XSP16, literal(-15)))
          CFI (cfiCond263) VB load(1, XDATA, add(CFA_XSP16, literal(-14)))
          CFI (cfiCond263) V0 load(1, XDATA, add(CFA_XSP16, literal(-13)))
          CFI (cfiCond263) V1 load(1, XDATA, add(CFA_XSP16, literal(-12)))
          CFI (cfiCond263) V2 load(1, XDATA, add(CFA_XSP16, literal(-11)))
          CFI (cfiCond263) V3 load(1, XDATA, add(CFA_XSP16, literal(-10)))
          CFI (cfiCond263) V4 load(1, XDATA, add(CFA_XSP16, literal(-9)))
          CFI (cfiCond263) V5 load(1, XDATA, add(CFA_XSP16, literal(-8)))
          CFI (cfiCond263) V6 load(1, XDATA, add(CFA_XSP16, literal(-7)))
          CFI (cfiCond263) R7 load(1, XDATA, add(CFA_XSP16, literal(-6)))
          CFI (cfiCond263) ?RET_LOW load(1, XDATA, add(CFA_XSP16, literal(-5)))
          CFI (cfiCond263) ?RET_HIGH load(1, XDATA, add(CFA_XSP16, literal(-4)))
          CFI (cfiCond263) ?BRET_EXT load(1, XDATA, add(CFA_XSP16, literal(-3)))
          CFI (cfiCond263) DPL0 load(1, XDATA, add(CFA_XSP16, literal(-2)))
          CFI (cfiCond263) DPH0 load(1, XDATA, add(CFA_XSP16, literal(-1)))
          CFI (cfiCond263) CFA_SP SP+-6
          CFI (cfiCond263) CFA_XSP16 add(XSP16, 28)
          CFI Block cfiCond264 Using cfiCommon0
          CFI (cfiCond264) Function afIncomingData
          CFI (cfiCond264) Conditional ??CrossCallReturnLabel_136, ??CrossCallReturnLabel_90, ??CrossCallReturnLabel_27
          CFI (cfiCond264) R6 load(1, XDATA, add(CFA_XSP16, literal(-15)))
          CFI (cfiCond264) VB load(1, XDATA, add(CFA_XSP16, literal(-14)))
          CFI (cfiCond264) V0 load(1, XDATA, add(CFA_XSP16, literal(-13)))
          CFI (cfiCond264) V1 load(1, XDATA, add(CFA_XSP16, literal(-12)))
          CFI (cfiCond264) V2 load(1, XDATA, add(CFA_XSP16, literal(-11)))
          CFI (cfiCond264) V3 load(1, XDATA, add(CFA_XSP16, literal(-10)))
          CFI (cfiCond264) V4 load(1, XDATA, add(CFA_XSP16, literal(-9)))
          CFI (cfiCond264) V5 load(1, XDATA, add(CFA_XSP16, literal(-8)))
          CFI (cfiCond264) V6 load(1, XDATA, add(CFA_XSP16, literal(-7)))
          CFI (cfiCond264) R7 load(1, XDATA, add(CFA_XSP16, literal(-6)))
          CFI (cfiCond264) ?RET_LOW load(1, XDATA, add(CFA_XSP16, literal(-5)))
          CFI (cfiCond264) ?RET_HIGH load(1, XDATA, add(CFA_XSP16, literal(-4)))
          CFI (cfiCond264) ?BRET_EXT load(1, XDATA, add(CFA_XSP16, literal(-3)))
          CFI (cfiCond264) DPL0 load(1, XDATA, add(CFA_XSP16, literal(-2)))
          CFI (cfiCond264) DPH0 load(1, XDATA, add(CFA_XSP16, literal(-1)))
          CFI (cfiCond264) CFA_SP SP+-6
          CFI (cfiCond264) CFA_XSP16 add(XSP16, 28)
          CFI Block cfiCond265 Using cfiCommon0
          CFI (cfiCond265) Function AF_DataRequest
          CFI (cfiCond265) Conditional ??CrossCallReturnLabel_136, ??CrossCallReturnLabel_90, ??CrossCallReturnLabel_28
          CFI (cfiCond265) R6 load(1, XDATA, add(CFA_XSP16, literal(-16)))
          CFI (cfiCond265) VB load(1, XDATA, add(CFA_XSP16, literal(-15)))
          CFI (cfiCond265) V0 load(1, XDATA, add(CFA_XSP16, literal(-14)))
          CFI (cfiCond265) V1 load(1, XDATA, add(CFA_XSP16, literal(-13)))
          CFI (cfiCond265) V2 load(1, XDATA, add(CFA_XSP16, literal(-12)))
          CFI (cfiCond265) V3 load(1, XDATA, add(CFA_XSP16, literal(-11)))
          CFI (cfiCond265) V4 load(1, XDATA, add(CFA_XSP16, literal(-10)))
          CFI (cfiCond265) V5 load(1, XDATA, add(CFA_XSP16, literal(-9)))
          CFI (cfiCond265) V6 load(1, XDATA, add(CFA_XSP16, literal(-8)))
          CFI (cfiCond265) V7 load(1, XDATA, add(CFA_XSP16, literal(-7)))
          CFI (cfiCond265) R7 load(1, XDATA, add(CFA_XSP16, literal(-6)))
          CFI (cfiCond265) ?RET_LOW load(1, XDATA, add(CFA_XSP16, literal(-5)))
          CFI (cfiCond265) ?RET_HIGH load(1, XDATA, add(CFA_XSP16, literal(-4)))
          CFI (cfiCond265) ?BRET_EXT load(1, XDATA, add(CFA_XSP16, literal(-3)))
          CFI (cfiCond265) DPL0 load(1, XDATA, add(CFA_XSP16, literal(-2)))
          CFI (cfiCond265) DPH0 load(1, XDATA, add(CFA_XSP16, literal(-1)))
          CFI (cfiCond265) CFA_SP SP+-6
          CFI (cfiCond265) CFA_XSP16 add(XSP16, 49)
          CFI Block cfiCond266 Using cfiCommon0
          CFI (cfiCond266) Function AF_DataRequest
          CFI (cfiCond266) Conditional ??CrossCallReturnLabel_136, ??CrossCallReturnLabel_90, ??CrossCallReturnLabel_29
          CFI (cfiCond266) R6 load(1, XDATA, add(CFA_XSP16, literal(-16)))
          CFI (cfiCond266) VB load(1, XDATA, add(CFA_XSP16, literal(-15)))
          CFI (cfiCond266) V0 load(1, XDATA, add(CFA_XSP16, literal(-14)))
          CFI (cfiCond266) V1 load(1, XDATA, add(CFA_XSP16, literal(-13)))
          CFI (cfiCond266) V2 load(1, XDATA, add(CFA_XSP16, literal(-12)))
          CFI (cfiCond266) V3 load(1, XDATA, add(CFA_XSP16, literal(-11)))
          CFI (cfiCond266) V4 load(1, XDATA, add(CFA_XSP16, literal(-10)))
          CFI (cfiCond266) V5 load(1, XDATA, add(CFA_XSP16, literal(-9)))
          CFI (cfiCond266) V6 load(1, XDATA, add(CFA_XSP16, literal(-8)))
          CFI (cfiCond266) V7 load(1, XDATA, add(CFA_XSP16, literal(-7)))
          CFI (cfiCond266) R7 load(1, XDATA, add(CFA_XSP16, literal(-6)))
          CFI (cfiCond266) ?RET_LOW load(1, XDATA, add(CFA_XSP16, literal(-5)))
          CFI (cfiCond266) ?RET_HIGH load(1, XDATA, add(CFA_XSP16, literal(-4)))
          CFI (cfiCond266) ?BRET_EXT load(1, XDATA, add(CFA_XSP16, literal(-3)))
          CFI (cfiCond266) DPL0 load(1, XDATA, add(CFA_XSP16, literal(-2)))
          CFI (cfiCond266) DPH0 load(1, XDATA, add(CFA_XSP16, literal(-1)))
          CFI (cfiCond266) CFA_SP SP+-6
          CFI (cfiCond266) CFA_XSP16 add(XSP16, 49)
          CFI Block cfiCond267 Using cfiCommon0
          CFI (cfiCond267) Function AF_DataRequest
          CFI (cfiCond267) Conditional ??CrossCallReturnLabel_136, ??CrossCallReturnLabel_90, ??CrossCallReturnLabel_30
          CFI (cfiCond267) R6 load(1, XDATA, add(CFA_XSP16, literal(-16)))
          CFI (cfiCond267) VB load(1, XDATA, add(CFA_XSP16, literal(-15)))
          CFI (cfiCond267) V0 load(1, XDATA, add(CFA_XSP16, literal(-14)))
          CFI (cfiCond267) V1 load(1, XDATA, add(CFA_XSP16, literal(-13)))
          CFI (cfiCond267) V2 load(1, XDATA, add(CFA_XSP16, literal(-12)))
          CFI (cfiCond267) V3 load(1, XDATA, add(CFA_XSP16, literal(-11)))
          CFI (cfiCond267) V4 load(1, XDATA, add(CFA_XSP16, literal(-10)))
          CFI (cfiCond267) V5 load(1, XDATA, add(CFA_XSP16, literal(-9)))
          CFI (cfiCond267) V6 load(1, XDATA, add(CFA_XSP16, literal(-8)))
          CFI (cfiCond267) V7 load(1, XDATA, add(CFA_XSP16, literal(-7)))
          CFI (cfiCond267) R7 load(1, XDATA, add(CFA_XSP16, literal(-6)))
          CFI (cfiCond267) ?RET_LOW load(1, XDATA, add(CFA_XSP16, literal(-5)))
          CFI (cfiCond267) ?RET_HIGH load(1, XDATA, add(CFA_XSP16, literal(-4)))
          CFI (cfiCond267) ?BRET_EXT load(1, XDATA, add(CFA_XSP16, literal(-3)))
          CFI (cfiCond267) DPL0 load(1, XDATA, add(CFA_XSP16, literal(-2)))
          CFI (cfiCond267) DPH0 load(1, XDATA, add(CFA_XSP16, literal(-1)))
          CFI (cfiCond267) CFA_SP SP+-6
          CFI (cfiCond267) CFA_XSP16 add(XSP16, 49)
          CFI Block cfiCond268 Using cfiCommon0
          CFI (cfiCond268) Function afFindEndPointDescList
          CFI (cfiCond268) Conditional ??CrossCallReturnLabel_136, ??CrossCallReturnLabel_90, ??CrossCallReturnLabel_31
          CFI (cfiCond268) DPL0 Frame(CFA_SP, 4)
          CFI (cfiCond268) DPH0 Frame(CFA_SP, 5)
          CFI (cfiCond268) CFA_SP SP+-11
          CFI Block cfiCond269 Using cfiCommon0
          CFI (cfiCond269) Function afIncomingData
          CFI (cfiCond269) Conditional ??CrossCallReturnLabel_135, ??CrossCallReturnLabel_149
          CFI (cfiCond269) R6 load(1, XDATA, add(CFA_XSP16, literal(-15)))
          CFI (cfiCond269) VB load(1, XDATA, add(CFA_XSP16, literal(-14)))
          CFI (cfiCond269) V0 load(1, XDATA, add(CFA_XSP16, literal(-13)))
          CFI (cfiCond269) V1 load(1, XDATA, add(CFA_XSP16, literal(-12)))
          CFI (cfiCond269) V2 load(1, XDATA, add(CFA_XSP16, literal(-11)))
          CFI (cfiCond269) V3 load(1, XDATA, add(CFA_XSP16, literal(-10)))
          CFI (cfiCond269) V4 load(1, XDATA, add(CFA_XSP16, literal(-9)))
          CFI (cfiCond269) V5 load(1, XDATA, add(CFA_XSP16, literal(-8)))
          CFI (cfiCond269) V6 load(1, XDATA, add(CFA_XSP16, literal(-7)))
          CFI (cfiCond269) R7 load(1, XDATA, add(CFA_XSP16, literal(-6)))
          CFI (cfiCond269) ?RET_LOW load(1, XDATA, add(CFA_XSP16, literal(-5)))
          CFI (cfiCond269) ?RET_HIGH load(1, XDATA, add(CFA_XSP16, literal(-4)))
          CFI (cfiCond269) ?BRET_EXT load(1, XDATA, add(CFA_XSP16, literal(-3)))
          CFI (cfiCond269) DPL0 load(1, XDATA, add(CFA_XSP16, literal(-2)))
          CFI (cfiCond269) DPH0 load(1, XDATA, add(CFA_XSP16, literal(-1)))
          CFI (cfiCond269) CFA_SP SP+-4
          CFI (cfiCond269) CFA_XSP16 add(XSP16, 28)
          CFI Block cfiCond270 Using cfiCommon0
          CFI (cfiCond270) Function afIncomingData
          CFI (cfiCond270) Conditional ??CrossCallReturnLabel_135, ??CrossCallReturnLabel_150
          CFI (cfiCond270) R6 load(1, XDATA, add(CFA_XSP16, literal(-15)))
          CFI (cfiCond270) VB load(1, XDATA, add(CFA_XSP16, literal(-14)))
          CFI (cfiCond270) V0 load(1, XDATA, add(CFA_XSP16, literal(-13)))
          CFI (cfiCond270) V1 load(1, XDATA, add(CFA_XSP16, literal(-12)))
          CFI (cfiCond270) V2 load(1, XDATA, add(CFA_XSP16, literal(-11)))
          CFI (cfiCond270) V3 load(1, XDATA, add(CFA_XSP16, literal(-10)))
          CFI (cfiCond270) V4 load(1, XDATA, add(CFA_XSP16, literal(-9)))
          CFI (cfiCond270) V5 load(1, XDATA, add(CFA_XSP16, literal(-8)))
          CFI (cfiCond270) V6 load(1, XDATA, add(CFA_XSP16, literal(-7)))
          CFI (cfiCond270) R7 load(1, XDATA, add(CFA_XSP16, literal(-6)))
          CFI (cfiCond270) ?RET_LOW load(1, XDATA, add(CFA_XSP16, literal(-5)))
          CFI (cfiCond270) ?RET_HIGH load(1, XDATA, add(CFA_XSP16, literal(-4)))
          CFI (cfiCond270) ?BRET_EXT load(1, XDATA, add(CFA_XSP16, literal(-3)))
          CFI (cfiCond270) DPL0 load(1, XDATA, add(CFA_XSP16, literal(-2)))
          CFI (cfiCond270) DPH0 load(1, XDATA, add(CFA_XSP16, literal(-1)))
          CFI (cfiCond270) CFA_SP SP+-4
          CFI (cfiCond270) CFA_XSP16 add(XSP16, 28)
          CFI Block cfiPicker271 Using cfiCommon1
          CFI (cfiPicker271) NoFunction
          CFI (cfiPicker271) Picker
        INC       DPTR
          CFI EndBlock cfiCond245
          CFI EndBlock cfiCond246
          CFI EndBlock cfiCond247
          CFI EndBlock cfiCond248
          CFI EndBlock cfiCond249
          CFI EndBlock cfiCond250
          CFI EndBlock cfiCond251
          CFI EndBlock cfiCond252
          CFI EndBlock cfiCond253
          CFI EndBlock cfiCond254
          CFI EndBlock cfiCond255
          CFI EndBlock cfiCond256
          CFI EndBlock cfiCond257
          CFI EndBlock cfiCond258
          CFI EndBlock cfiCond259
          CFI EndBlock cfiCond260
          CFI EndBlock cfiCond261
          CFI EndBlock cfiCond262
          CFI EndBlock cfiCond263
          CFI EndBlock cfiCond264
          CFI EndBlock cfiCond265
          CFI EndBlock cfiCond266
          CFI EndBlock cfiCond267
          CFI EndBlock cfiCond268
          CFI EndBlock cfiCond269
          CFI EndBlock cfiCond270
          CFI EndBlock cfiPicker271
        REQUIRE ??Subroutine60_0
        ; // Fall through to label ??Subroutine60_0

        RSEG BANKED_CODE:HUGECODE:NOROOT(0)
??Subroutine60_0:
          CFI Block cfiCond272 Using cfiCommon0
          CFI Function afIncomingData
          CFI Conditional ??CrossCallReturnLabel_134, ??CrossCallReturnLabel_97
          CFI R6 load(1, XDATA, add(CFA_XSP16, literal(-15)))
          CFI VB load(1, XDATA, add(CFA_XSP16, literal(-14)))
          CFI V0 load(1, XDATA, add(CFA_XSP16, literal(-13)))
          CFI V1 load(1, XDATA, add(CFA_XSP16, literal(-12)))
          CFI V2 load(1, XDATA, add(CFA_XSP16, literal(-11)))
          CFI V3 load(1, XDATA, add(CFA_XSP16, literal(-10)))
          CFI V4 load(1, XDATA, add(CFA_XSP16, literal(-9)))
          CFI V5 load(1, XDATA, add(CFA_XSP16, literal(-8)))
          CFI V6 load(1, XDATA, add(CFA_XSP16, literal(-7)))
          CFI R7 load(1, XDATA, add(CFA_XSP16, literal(-6)))
          CFI ?RET_LOW load(1, XDATA, add(CFA_XSP16, literal(-5)))
          CFI ?RET_HIGH load(1, XDATA, add(CFA_XSP16, literal(-4)))
          CFI ?BRET_EXT load(1, XDATA, add(CFA_XSP16, literal(-3)))
          CFI DPL0 load(1, XDATA, add(CFA_XSP16, literal(-2)))
          CFI DPH0 load(1, XDATA, add(CFA_XSP16, literal(-1)))
          CFI CFA_SP SP+-4
          CFI CFA_XSP16 add(XSP16, 28)
          CFI Block cfiCond273 Using cfiCommon0
          CFI (cfiCond273) Function afIncomingData
          CFI (cfiCond273) Conditional ??CrossCallReturnLabel_134, ??CrossCallReturnLabel_98
          CFI (cfiCond273) R6 load(1, XDATA, add(CFA_XSP16, literal(-15)))
          CFI (cfiCond273) VB load(1, XDATA, add(CFA_XSP16, literal(-14)))
          CFI (cfiCond273) V0 load(1, XDATA, add(CFA_XSP16, literal(-13)))
          CFI (cfiCond273) V1 load(1, XDATA, add(CFA_XSP16, literal(-12)))
          CFI (cfiCond273) V2 load(1, XDATA, add(CFA_XSP16, literal(-11)))
          CFI (cfiCond273) V3 load(1, XDATA, add(CFA_XSP16, literal(-10)))
          CFI (cfiCond273) V4 load(1, XDATA, add(CFA_XSP16, literal(-9)))
          CFI (cfiCond273) V5 load(1, XDATA, add(CFA_XSP16, literal(-8)))
          CFI (cfiCond273) V6 load(1, XDATA, add(CFA_XSP16, literal(-7)))
          CFI (cfiCond273) R7 load(1, XDATA, add(CFA_XSP16, literal(-6)))
          CFI (cfiCond273) ?RET_LOW load(1, XDATA, add(CFA_XSP16, literal(-5)))
          CFI (cfiCond273) ?RET_HIGH load(1, XDATA, add(CFA_XSP16, literal(-4)))
          CFI (cfiCond273) ?BRET_EXT load(1, XDATA, add(CFA_XSP16, literal(-3)))
          CFI (cfiCond273) DPL0 load(1, XDATA, add(CFA_XSP16, literal(-2)))
          CFI (cfiCond273) DPH0 load(1, XDATA, add(CFA_XSP16, literal(-1)))
          CFI (cfiCond273) CFA_SP SP+-4
          CFI (cfiCond273) CFA_XSP16 add(XSP16, 28)
          CFI Block cfiCond274 Using cfiCommon0
          CFI (cfiCond274) Function afIncomingData
          CFI (cfiCond274) Conditional ??CrossCallReturnLabel_134, ??CrossCallReturnLabel_96
          CFI (cfiCond274) R6 load(1, XDATA, add(CFA_XSP16, literal(-15)))
          CFI (cfiCond274) VB load(1, XDATA, add(CFA_XSP16, literal(-14)))
          CFI (cfiCond274) V0 load(1, XDATA, add(CFA_XSP16, literal(-13)))
          CFI (cfiCond274) V1 load(1, XDATA, add(CFA_XSP16, literal(-12)))
          CFI (cfiCond274) V2 load(1, XDATA, add(CFA_XSP16, literal(-11)))
          CFI (cfiCond274) V3 load(1, XDATA, add(CFA_XSP16, literal(-10)))
          CFI (cfiCond274) V4 load(1, XDATA, add(CFA_XSP16, literal(-9)))
          CFI (cfiCond274) V5 load(1, XDATA, add(CFA_XSP16, literal(-8)))
          CFI (cfiCond274) V6 load(1, XDATA, add(CFA_XSP16, literal(-7)))
          CFI (cfiCond274) R7 load(1, XDATA, add(CFA_XSP16, literal(-6)))
          CFI (cfiCond274) ?RET_LOW load(1, XDATA, add(CFA_XSP16, literal(-5)))
          CFI (cfiCond274) ?RET_HIGH load(1, XDATA, add(CFA_XSP16, literal(-4)))
          CFI (cfiCond274) ?BRET_EXT load(1, XDATA, add(CFA_XSP16, literal(-3)))
          CFI (cfiCond274) DPL0 load(1, XDATA, add(CFA_XSP16, literal(-2)))
          CFI (cfiCond274) DPH0 load(1, XDATA, add(CFA_XSP16, literal(-1)))
          CFI (cfiCond274) CFA_SP SP+-4
          CFI (cfiCond274) CFA_XSP16 add(XSP16, 28)
          CFI Block cfiCond275 Using cfiCommon0
          CFI (cfiCond275) Function AF_DataRequest
          CFI (cfiCond275) Conditional ??CrossCallReturnLabel_134, ??CrossCallReturnLabel_95
          CFI (cfiCond275) R6 load(1, XDATA, add(CFA_XSP16, literal(-16)))
          CFI (cfiCond275) VB load(1, XDATA, add(CFA_XSP16, literal(-15)))
          CFI (cfiCond275) V0 load(1, XDATA, add(CFA_XSP16, literal(-14)))
          CFI (cfiCond275) V1 load(1, XDATA, add(CFA_XSP16, literal(-13)))
          CFI (cfiCond275) V2 load(1, XDATA, add(CFA_XSP16, literal(-12)))
          CFI (cfiCond275) V3 load(1, XDATA, add(CFA_XSP16, literal(-11)))
          CFI (cfiCond275) V4 load(1, XDATA, add(CFA_XSP16, literal(-10)))
          CFI (cfiCond275) V5 load(1, XDATA, add(CFA_XSP16, literal(-9)))
          CFI (cfiCond275) V6 load(1, XDATA, add(CFA_XSP16, literal(-8)))
          CFI (cfiCond275) V7 load(1, XDATA, add(CFA_XSP16, literal(-7)))
          CFI (cfiCond275) R7 load(1, XDATA, add(CFA_XSP16, literal(-6)))
          CFI (cfiCond275) ?RET_LOW load(1, XDATA, add(CFA_XSP16, literal(-5)))
          CFI (cfiCond275) ?RET_HIGH load(1, XDATA, add(CFA_XSP16, literal(-4)))
          CFI (cfiCond275) ?BRET_EXT load(1, XDATA, add(CFA_XSP16, literal(-3)))
          CFI (cfiCond275) DPL0 load(1, XDATA, add(CFA_XSP16, literal(-2)))
          CFI (cfiCond275) DPH0 load(1, XDATA, add(CFA_XSP16, literal(-1)))
          CFI (cfiCond275) CFA_SP SP+-4
          CFI (cfiCond275) CFA_XSP16 add(XSP16, 49)
          CFI Block cfiCond276 Using cfiCommon0
          CFI (cfiCond276) Function afRegisterExtended
          CFI (cfiCond276) Conditional ??CrossCallReturnLabel_137, ??CrossCallReturnLabel_101, ??CrossCallReturnLabel_15
          CFI (cfiCond276) R6 load(1, XDATA, add(CFA_XSP16, literal(-14)))
          CFI (cfiCond276) VB load(1, XDATA, add(CFA_XSP16, literal(-13)))
          CFI (cfiCond276) V0 load(1, XDATA, add(CFA_XSP16, literal(-12)))
          CFI (cfiCond276) V1 load(1, XDATA, add(CFA_XSP16, literal(-11)))
          CFI (cfiCond276) V2 load(1, XDATA, add(CFA_XSP16, literal(-10)))
          CFI (cfiCond276) V3 load(1, XDATA, add(CFA_XSP16, literal(-9)))
          CFI (cfiCond276) V4 load(1, XDATA, add(CFA_XSP16, literal(-8)))
          CFI (cfiCond276) V5 load(1, XDATA, add(CFA_XSP16, literal(-7)))
          CFI (cfiCond276) R7 load(1, XDATA, add(CFA_XSP16, literal(-6)))
          CFI (cfiCond276) ?RET_LOW load(1, XDATA, add(CFA_XSP16, literal(-5)))
          CFI (cfiCond276) ?RET_HIGH load(1, XDATA, add(CFA_XSP16, literal(-4)))
          CFI (cfiCond276) ?BRET_EXT load(1, XDATA, add(CFA_XSP16, literal(-3)))
          CFI (cfiCond276) DPL0 load(1, XDATA, add(CFA_XSP16, literal(-2)))
          CFI (cfiCond276) DPH0 load(1, XDATA, add(CFA_XSP16, literal(-1)))
          CFI (cfiCond276) CFA_SP SP+-6
          CFI (cfiCond276) CFA_XSP16 add(XSP16, 14)
          CFI Block cfiCond277 Using cfiCommon0
          CFI (cfiCond277) Function afIncomingData
          CFI (cfiCond277) Conditional ??CrossCallReturnLabel_137, ??CrossCallReturnLabel_101, ??CrossCallReturnLabel_16
          CFI (cfiCond277) R6 load(1, XDATA, add(CFA_XSP16, literal(-15)))
          CFI (cfiCond277) VB load(1, XDATA, add(CFA_XSP16, literal(-14)))
          CFI (cfiCond277) V0 load(1, XDATA, add(CFA_XSP16, literal(-13)))
          CFI (cfiCond277) V1 load(1, XDATA, add(CFA_XSP16, literal(-12)))
          CFI (cfiCond277) V2 load(1, XDATA, add(CFA_XSP16, literal(-11)))
          CFI (cfiCond277) V3 load(1, XDATA, add(CFA_XSP16, literal(-10)))
          CFI (cfiCond277) V4 load(1, XDATA, add(CFA_XSP16, literal(-9)))
          CFI (cfiCond277) V5 load(1, XDATA, add(CFA_XSP16, literal(-8)))
          CFI (cfiCond277) V6 load(1, XDATA, add(CFA_XSP16, literal(-7)))
          CFI (cfiCond277) R7 load(1, XDATA, add(CFA_XSP16, literal(-6)))
          CFI (cfiCond277) ?RET_LOW load(1, XDATA, add(CFA_XSP16, literal(-5)))
          CFI (cfiCond277) ?RET_HIGH load(1, XDATA, add(CFA_XSP16, literal(-4)))
          CFI (cfiCond277) ?BRET_EXT load(1, XDATA, add(CFA_XSP16, literal(-3)))
          CFI (cfiCond277) DPL0 load(1, XDATA, add(CFA_XSP16, literal(-2)))
          CFI (cfiCond277) DPH0 load(1, XDATA, add(CFA_XSP16, literal(-1)))
          CFI (cfiCond277) CFA_SP SP+-6
          CFI (cfiCond277) CFA_XSP16 add(XSP16, 28)
          CFI Block cfiCond278 Using cfiCommon0
          CFI (cfiCond278) Function afIncomingData
          CFI (cfiCond278) Conditional ??CrossCallReturnLabel_137, ??CrossCallReturnLabel_101, ??CrossCallReturnLabel_17
          CFI (cfiCond278) R6 load(1, XDATA, add(CFA_XSP16, literal(-15)))
          CFI (cfiCond278) VB load(1, XDATA, add(CFA_XSP16, literal(-14)))
          CFI (cfiCond278) V0 load(1, XDATA, add(CFA_XSP16, literal(-13)))
          CFI (cfiCond278) V1 load(1, XDATA, add(CFA_XSP16, literal(-12)))
          CFI (cfiCond278) V2 load(1, XDATA, add(CFA_XSP16, literal(-11)))
          CFI (cfiCond278) V3 load(1, XDATA, add(CFA_XSP16, literal(-10)))
          CFI (cfiCond278) V4 load(1, XDATA, add(CFA_XSP16, literal(-9)))
          CFI (cfiCond278) V5 load(1, XDATA, add(CFA_XSP16, literal(-8)))
          CFI (cfiCond278) V6 load(1, XDATA, add(CFA_XSP16, literal(-7)))
          CFI (cfiCond278) R7 load(1, XDATA, add(CFA_XSP16, literal(-6)))
          CFI (cfiCond278) ?RET_LOW load(1, XDATA, add(CFA_XSP16, literal(-5)))
          CFI (cfiCond278) ?RET_HIGH load(1, XDATA, add(CFA_XSP16, literal(-4)))
          CFI (cfiCond278) ?BRET_EXT load(1, XDATA, add(CFA_XSP16, literal(-3)))
          CFI (cfiCond278) DPL0 load(1, XDATA, add(CFA_XSP16, literal(-2)))
          CFI (cfiCond278) DPH0 load(1, XDATA, add(CFA_XSP16, literal(-1)))
          CFI (cfiCond278) CFA_SP SP+-6
          CFI (cfiCond278) CFA_XSP16 add(XSP16, 28)
          CFI Block cfiCond279 Using cfiCommon0
          CFI (cfiCond279) Function afIncomingData
          CFI (cfiCond279) Conditional ??CrossCallReturnLabel_137, ??CrossCallReturnLabel_100, ??CrossCallReturnLabel_13
          CFI (cfiCond279) R6 load(1, XDATA, add(CFA_XSP16, literal(-15)))
          CFI (cfiCond279) VB load(1, XDATA, add(CFA_XSP16, literal(-14)))
          CFI (cfiCond279) V0 load(1, XDATA, add(CFA_XSP16, literal(-13)))
          CFI (cfiCond279) V1 load(1, XDATA, add(CFA_XSP16, literal(-12)))
          CFI (cfiCond279) V2 load(1, XDATA, add(CFA_XSP16, literal(-11)))
          CFI (cfiCond279) V3 load(1, XDATA, add(CFA_XSP16, literal(-10)))
          CFI (cfiCond279) V4 load(1, XDATA, add(CFA_XSP16, literal(-9)))
          CFI (cfiCond279) V5 load(1, XDATA, add(CFA_XSP16, literal(-8)))
          CFI (cfiCond279) V6 load(1, XDATA, add(CFA_XSP16, literal(-7)))
          CFI (cfiCond279) R7 load(1, XDATA, add(CFA_XSP16, literal(-6)))
          CFI (cfiCond279) ?RET_LOW load(1, XDATA, add(CFA_XSP16, literal(-5)))
          CFI (cfiCond279) ?RET_HIGH load(1, XDATA, add(CFA_XSP16, literal(-4)))
          CFI (cfiCond279) ?BRET_EXT load(1, XDATA, add(CFA_XSP16, literal(-3)))
          CFI (cfiCond279) DPL0 load(1, XDATA, add(CFA_XSP16, literal(-2)))
          CFI (cfiCond279) DPH0 load(1, XDATA, add(CFA_XSP16, literal(-1)))
          CFI (cfiCond279) CFA_SP SP+-6
          CFI (cfiCond279) CFA_XSP16 add(XSP16, 28)
          CFI Block cfiCond280 Using cfiCommon0
          CFI (cfiCond280) Function afFindSimpleDesc
          CFI (cfiCond280) Conditional ??CrossCallReturnLabel_137, ??CrossCallReturnLabel_100, ??CrossCallReturnLabel_14
          CFI (cfiCond280) R6 load(1, XDATA, add(CFA_XSP16, literal(-12)))
          CFI (cfiCond280) VB load(1, XDATA, add(CFA_XSP16, literal(-11)))
          CFI (cfiCond280) V0 load(1, XDATA, add(CFA_XSP16, literal(-10)))
          CFI (cfiCond280) V1 load(1, XDATA, add(CFA_XSP16, literal(-9)))
          CFI (cfiCond280) V2 load(1, XDATA, add(CFA_XSP16, literal(-8)))
          CFI (cfiCond280) V3 load(1, XDATA, add(CFA_XSP16, literal(-7)))
          CFI (cfiCond280) R7 load(1, XDATA, add(CFA_XSP16, literal(-6)))
          CFI (cfiCond280) ?RET_LOW load(1, XDATA, add(CFA_XSP16, literal(-5)))
          CFI (cfiCond280) ?RET_HIGH load(1, XDATA, add(CFA_XSP16, literal(-4)))
          CFI (cfiCond280) ?BRET_EXT load(1, XDATA, add(CFA_XSP16, literal(-3)))
          CFI (cfiCond280) DPL0 load(1, XDATA, add(CFA_XSP16, literal(-2)))
          CFI (cfiCond280) DPH0 load(1, XDATA, add(CFA_XSP16, literal(-1)))
          CFI (cfiCond280) CFA_SP SP+-6
          CFI (cfiCond280) CFA_XSP16 add(XSP16, 12)
          CFI Block cfiCond281 Using cfiCommon0
          CFI (cfiCond281) Function afIncomingData
          CFI (cfiCond281) Conditional ??CrossCallReturnLabel_137, ??CrossCallReturnLabel_99, ??CrossCallReturnLabel_34
          CFI (cfiCond281) R6 load(1, XDATA, add(CFA_XSP16, literal(-15)))
          CFI (cfiCond281) VB load(1, XDATA, add(CFA_XSP16, literal(-14)))
          CFI (cfiCond281) V0 load(1, XDATA, add(CFA_XSP16, literal(-13)))
          CFI (cfiCond281) V1 load(1, XDATA, add(CFA_XSP16, literal(-12)))
          CFI (cfiCond281) V2 load(1, XDATA, add(CFA_XSP16, literal(-11)))
          CFI (cfiCond281) V3 load(1, XDATA, add(CFA_XSP16, literal(-10)))
          CFI (cfiCond281) V4 load(1, XDATA, add(CFA_XSP16, literal(-9)))
          CFI (cfiCond281) V5 load(1, XDATA, add(CFA_XSP16, literal(-8)))
          CFI (cfiCond281) V6 load(1, XDATA, add(CFA_XSP16, literal(-7)))
          CFI (cfiCond281) R7 load(1, XDATA, add(CFA_XSP16, literal(-6)))
          CFI (cfiCond281) ?RET_LOW load(1, XDATA, add(CFA_XSP16, literal(-5)))
          CFI (cfiCond281) ?RET_HIGH load(1, XDATA, add(CFA_XSP16, literal(-4)))
          CFI (cfiCond281) ?BRET_EXT load(1, XDATA, add(CFA_XSP16, literal(-3)))
          CFI (cfiCond281) DPL0 load(1, XDATA, add(CFA_XSP16, literal(-2)))
          CFI (cfiCond281) DPH0 load(1, XDATA, add(CFA_XSP16, literal(-1)))
          CFI (cfiCond281) CFA_SP SP+-6
          CFI (cfiCond281) CFA_XSP16 add(XSP16, 28)
          CFI Block cfiCond282 Using cfiCommon0
          CFI (cfiCond282) Function afIncomingData
          CFI (cfiCond282) Conditional ??CrossCallReturnLabel_137, ??CrossCallReturnLabel_99, ??CrossCallReturnLabel_35
          CFI (cfiCond282) R6 load(1, XDATA, add(CFA_XSP16, literal(-15)))
          CFI (cfiCond282) VB load(1, XDATA, add(CFA_XSP16, literal(-14)))
          CFI (cfiCond282) V0 load(1, XDATA, add(CFA_XSP16, literal(-13)))
          CFI (cfiCond282) V1 load(1, XDATA, add(CFA_XSP16, literal(-12)))
          CFI (cfiCond282) V2 load(1, XDATA, add(CFA_XSP16, literal(-11)))
          CFI (cfiCond282) V3 load(1, XDATA, add(CFA_XSP16, literal(-10)))
          CFI (cfiCond282) V4 load(1, XDATA, add(CFA_XSP16, literal(-9)))
          CFI (cfiCond282) V5 load(1, XDATA, add(CFA_XSP16, literal(-8)))
          CFI (cfiCond282) V6 load(1, XDATA, add(CFA_XSP16, literal(-7)))
          CFI (cfiCond282) R7 load(1, XDATA, add(CFA_XSP16, literal(-6)))
          CFI (cfiCond282) ?RET_LOW load(1, XDATA, add(CFA_XSP16, literal(-5)))
          CFI (cfiCond282) ?RET_HIGH load(1, XDATA, add(CFA_XSP16, literal(-4)))
          CFI (cfiCond282) ?BRET_EXT load(1, XDATA, add(CFA_XSP16, literal(-3)))
          CFI (cfiCond282) DPL0 load(1, XDATA, add(CFA_XSP16, literal(-2)))
          CFI (cfiCond282) DPH0 load(1, XDATA, add(CFA_XSP16, literal(-1)))
          CFI (cfiCond282) CFA_SP SP+-6
          CFI (cfiCond282) CFA_XSP16 add(XSP16, 28)
          CFI Block cfiCond283 Using cfiCommon0
          CFI (cfiCond283) Function afDataConfirm
          CFI (cfiCond283) Conditional ??CrossCallReturnLabel_136, ??CrossCallReturnLabel_91, ??CrossCallReturnLabel_84
          CFI (cfiCond283) R6 load(1, XDATA, add(CFA_XSP16, literal(-14)))
          CFI (cfiCond283) VB load(1, XDATA, add(CFA_XSP16, literal(-13)))
          CFI (cfiCond283) V0 load(1, XDATA, add(CFA_XSP16, literal(-12)))
          CFI (cfiCond283) V1 load(1, XDATA, add(CFA_XSP16, literal(-11)))
          CFI (cfiCond283) V2 load(1, XDATA, add(CFA_XSP16, literal(-10)))
          CFI (cfiCond283) V3 load(1, XDATA, add(CFA_XSP16, literal(-9)))
          CFI (cfiCond283) V4 load(1, XDATA, add(CFA_XSP16, literal(-8)))
          CFI (cfiCond283) V5 load(1, XDATA, add(CFA_XSP16, literal(-7)))
          CFI (cfiCond283) R7 load(1, XDATA, add(CFA_XSP16, literal(-6)))
          CFI (cfiCond283) ?RET_LOW load(1, XDATA, add(CFA_XSP16, literal(-5)))
          CFI (cfiCond283) ?RET_HIGH load(1, XDATA, add(CFA_XSP16, literal(-4)))
          CFI (cfiCond283) ?BRET_EXT load(1, XDATA, add(CFA_XSP16, literal(-3)))
          CFI (cfiCond283) DPL0 load(1, XDATA, add(CFA_XSP16, literal(-2)))
          CFI (cfiCond283) DPH0 load(1, XDATA, add(CFA_XSP16, literal(-1)))
          CFI (cfiCond283) CFA_SP SP+-6
          CFI (cfiCond283) CFA_XSP16 add(XSP16, 14)
          CFI Block cfiCond284 Using cfiCommon0
          CFI (cfiCond284) Function afReflectError
          CFI (cfiCond284) Conditional ??CrossCallReturnLabel_136, ??CrossCallReturnLabel_91, ??CrossCallReturnLabel_85
          CFI (cfiCond284) R6 load(1, XDATA, add(CFA_XSP16, literal(-16)))
          CFI (cfiCond284) VB load(1, XDATA, add(CFA_XSP16, literal(-15)))
          CFI (cfiCond284) V0 load(1, XDATA, add(CFA_XSP16, literal(-14)))
          CFI (cfiCond284) V1 load(1, XDATA, add(CFA_XSP16, literal(-13)))
          CFI (cfiCond284) V2 load(1, XDATA, add(CFA_XSP16, literal(-12)))
          CFI (cfiCond284) V3 load(1, XDATA, add(CFA_XSP16, literal(-11)))
          CFI (cfiCond284) V4 load(1, XDATA, add(CFA_XSP16, literal(-10)))
          CFI (cfiCond284) V5 load(1, XDATA, add(CFA_XSP16, literal(-9)))
          CFI (cfiCond284) V6 load(1, XDATA, add(CFA_XSP16, literal(-8)))
          CFI (cfiCond284) V7 load(1, XDATA, add(CFA_XSP16, literal(-7)))
          CFI (cfiCond284) R7 load(1, XDATA, add(CFA_XSP16, literal(-6)))
          CFI (cfiCond284) ?RET_LOW load(1, XDATA, add(CFA_XSP16, literal(-5)))
          CFI (cfiCond284) ?RET_HIGH load(1, XDATA, add(CFA_XSP16, literal(-4)))
          CFI (cfiCond284) ?BRET_EXT load(1, XDATA, add(CFA_XSP16, literal(-3)))
          CFI (cfiCond284) DPL0 load(1, XDATA, add(CFA_XSP16, literal(-2)))
          CFI (cfiCond284) DPH0 load(1, XDATA, add(CFA_XSP16, literal(-1)))
          CFI (cfiCond284) CFA_SP SP+-6
          CFI (cfiCond284) CFA_XSP16 add(XSP16, 16)
          CFI Block cfiCond285 Using cfiCommon0
          CFI (cfiCond285) Function afIncomingData
          CFI (cfiCond285) Conditional ??CrossCallReturnLabel_136, ??CrossCallReturnLabel_91, ??CrossCallReturnLabel_86
          CFI (cfiCond285) R6 load(1, XDATA, add(CFA_XSP16, literal(-15)))
          CFI (cfiCond285) VB load(1, XDATA, add(CFA_XSP16, literal(-14)))
          CFI (cfiCond285) V0 load(1, XDATA, add(CFA_XSP16, literal(-13)))
          CFI (cfiCond285) V1 load(1, XDATA, add(CFA_XSP16, literal(-12)))
          CFI (cfiCond285) V2 load(1, XDATA, add(CFA_XSP16, literal(-11)))
          CFI (cfiCond285) V3 load(1, XDATA, add(CFA_XSP16, literal(-10)))
          CFI (cfiCond285) V4 load(1, XDATA, add(CFA_XSP16, literal(-9)))
          CFI (cfiCond285) V5 load(1, XDATA, add(CFA_XSP16, literal(-8)))
          CFI (cfiCond285) V6 load(1, XDATA, add(CFA_XSP16, literal(-7)))
          CFI (cfiCond285) R7 load(1, XDATA, add(CFA_XSP16, literal(-6)))
          CFI (cfiCond285) ?RET_LOW load(1, XDATA, add(CFA_XSP16, literal(-5)))
          CFI (cfiCond285) ?RET_HIGH load(1, XDATA, add(CFA_XSP16, literal(-4)))
          CFI (cfiCond285) ?BRET_EXT load(1, XDATA, add(CFA_XSP16, literal(-3)))
          CFI (cfiCond285) DPL0 load(1, XDATA, add(CFA_XSP16, literal(-2)))
          CFI (cfiCond285) DPH0 load(1, XDATA, add(CFA_XSP16, literal(-1)))
          CFI (cfiCond285) CFA_SP SP+-6
          CFI (cfiCond285) CFA_XSP16 add(XSP16, 28)
          CFI Block cfiCond286 Using cfiCommon0
          CFI (cfiCond286) Function afBuildMSGIncoming
          CFI (cfiCond286) Conditional ??CrossCallReturnLabel_136, ??CrossCallReturnLabel_91, ??CrossCallReturnLabel_87
          CFI (cfiCond286) R6 load(1, XDATA, add(CFA_XSP16, literal(-16)))
          CFI (cfiCond286) VB load(1, XDATA, add(CFA_XSP16, literal(-15)))
          CFI (cfiCond286) V0 load(1, XDATA, add(CFA_XSP16, literal(-14)))
          CFI (cfiCond286) V1 load(1, XDATA, add(CFA_XSP16, literal(-13)))
          CFI (cfiCond286) V2 load(1, XDATA, add(CFA_XSP16, literal(-12)))
          CFI (cfiCond286) V3 load(1, XDATA, add(CFA_XSP16, literal(-11)))
          CFI (cfiCond286) V4 load(1, XDATA, add(CFA_XSP16, literal(-10)))
          CFI (cfiCond286) V5 load(1, XDATA, add(CFA_XSP16, literal(-9)))
          CFI (cfiCond286) V6 load(1, XDATA, add(CFA_XSP16, literal(-8)))
          CFI (cfiCond286) V7 load(1, XDATA, add(CFA_XSP16, literal(-7)))
          CFI (cfiCond286) R7 load(1, XDATA, add(CFA_XSP16, literal(-6)))
          CFI (cfiCond286) ?RET_LOW load(1, XDATA, add(CFA_XSP16, literal(-5)))
          CFI (cfiCond286) ?RET_HIGH load(1, XDATA, add(CFA_XSP16, literal(-4)))
          CFI (cfiCond286) ?BRET_EXT load(1, XDATA, add(CFA_XSP16, literal(-3)))
          CFI (cfiCond286) DPL0 load(1, XDATA, add(CFA_XSP16, literal(-2)))
          CFI (cfiCond286) DPH0 load(1, XDATA, add(CFA_XSP16, literal(-1)))
          CFI (cfiCond286) CFA_SP SP+-6
          CFI (cfiCond286) CFA_XSP16 add(XSP16, 19)
          CFI Block cfiCond287 Using cfiCommon0
          CFI (cfiCond287) Function afIncomingData
          CFI (cfiCond287) Conditional ??CrossCallReturnLabel_136, ??CrossCallReturnLabel_91, ??CrossCallReturnLabel_83
          CFI (cfiCond287) R6 load(1, XDATA, add(CFA_XSP16, literal(-15)))
          CFI (cfiCond287) VB load(1, XDATA, add(CFA_XSP16, literal(-14)))
          CFI (cfiCond287) V0 load(1, XDATA, add(CFA_XSP16, literal(-13)))
          CFI (cfiCond287) V1 load(1, XDATA, add(CFA_XSP16, literal(-12)))
          CFI (cfiCond287) V2 load(1, XDATA, add(CFA_XSP16, literal(-11)))
          CFI (cfiCond287) V3 load(1, XDATA, add(CFA_XSP16, literal(-10)))
          CFI (cfiCond287) V4 load(1, XDATA, add(CFA_XSP16, literal(-9)))
          CFI (cfiCond287) V5 load(1, XDATA, add(CFA_XSP16, literal(-8)))
          CFI (cfiCond287) V6 load(1, XDATA, add(CFA_XSP16, literal(-7)))
          CFI (cfiCond287) R7 load(1, XDATA, add(CFA_XSP16, literal(-6)))
          CFI (cfiCond287) ?RET_LOW load(1, XDATA, add(CFA_XSP16, literal(-5)))
          CFI (cfiCond287) ?RET_HIGH load(1, XDATA, add(CFA_XSP16, literal(-4)))
          CFI (cfiCond287) ?BRET_EXT load(1, XDATA, add(CFA_XSP16, literal(-3)))
          CFI (cfiCond287) DPL0 load(1, XDATA, add(CFA_XSP16, literal(-2)))
          CFI (cfiCond287) DPH0 load(1, XDATA, add(CFA_XSP16, literal(-1)))
          CFI (cfiCond287) CFA_SP SP+-6
          CFI (cfiCond287) CFA_XSP16 add(XSP16, 28)
          CFI Block cfiCond288 Using cfiCommon0
          CFI (cfiCond288) Function afIncomingData
          CFI (cfiCond288) Conditional ??CrossCallReturnLabel_136, ??CrossCallReturnLabel_89, ??CrossCallReturnLabel_22
          CFI (cfiCond288) R6 load(1, XDATA, add(CFA_XSP16, literal(-15)))
          CFI (cfiCond288) VB load(1, XDATA, add(CFA_XSP16, literal(-14)))
          CFI (cfiCond288) V0 load(1, XDATA, add(CFA_XSP16, literal(-13)))
          CFI (cfiCond288) V1 load(1, XDATA, add(CFA_XSP16, literal(-12)))
          CFI (cfiCond288) V2 load(1, XDATA, add(CFA_XSP16, literal(-11)))
          CFI (cfiCond288) V3 load(1, XDATA, add(CFA_XSP16, literal(-10)))
          CFI (cfiCond288) V4 load(1, XDATA, add(CFA_XSP16, literal(-9)))
          CFI (cfiCond288) V5 load(1, XDATA, add(CFA_XSP16, literal(-8)))
          CFI (cfiCond288) V6 load(1, XDATA, add(CFA_XSP16, literal(-7)))
          CFI (cfiCond288) R7 load(1, XDATA, add(CFA_XSP16, literal(-6)))
          CFI (cfiCond288) ?RET_LOW load(1, XDATA, add(CFA_XSP16, literal(-5)))
          CFI (cfiCond288) ?RET_HIGH load(1, XDATA, add(CFA_XSP16, literal(-4)))
          CFI (cfiCond288) ?BRET_EXT load(1, XDATA, add(CFA_XSP16, literal(-3)))
          CFI (cfiCond288) DPL0 load(1, XDATA, add(CFA_XSP16, literal(-2)))
          CFI (cfiCond288) DPH0 load(1, XDATA, add(CFA_XSP16, literal(-1)))
          CFI (cfiCond288) CFA_SP SP+-6
          CFI (cfiCond288) CFA_XSP16 add(XSP16, 28)
          CFI Block cfiCond289 Using cfiCommon0
          CFI (cfiCond289) Function afIncomingData
          CFI (cfiCond289) Conditional ??CrossCallReturnLabel_136, ??CrossCallReturnLabel_89, ??CrossCallReturnLabel_23
          CFI (cfiCond289) R6 load(1, XDATA, add(CFA_XSP16, literal(-15)))
          CFI (cfiCond289) VB load(1, XDATA, add(CFA_XSP16, literal(-14)))
          CFI (cfiCond289) V0 load(1, XDATA, add(CFA_XSP16, literal(-13)))
          CFI (cfiCond289) V1 load(1, XDATA, add(CFA_XSP16, literal(-12)))
          CFI (cfiCond289) V2 load(1, XDATA, add(CFA_XSP16, literal(-11)))
          CFI (cfiCond289) V3 load(1, XDATA, add(CFA_XSP16, literal(-10)))
          CFI (cfiCond289) V4 load(1, XDATA, add(CFA_XSP16, literal(-9)))
          CFI (cfiCond289) V5 load(1, XDATA, add(CFA_XSP16, literal(-8)))
          CFI (cfiCond289) V6 load(1, XDATA, add(CFA_XSP16, literal(-7)))
          CFI (cfiCond289) R7 load(1, XDATA, add(CFA_XSP16, literal(-6)))
          CFI (cfiCond289) ?RET_LOW load(1, XDATA, add(CFA_XSP16, literal(-5)))
          CFI (cfiCond289) ?RET_HIGH load(1, XDATA, add(CFA_XSP16, literal(-4)))
          CFI (cfiCond289) ?BRET_EXT load(1, XDATA, add(CFA_XSP16, literal(-3)))
          CFI (cfiCond289) DPL0 load(1, XDATA, add(CFA_XSP16, literal(-2)))
          CFI (cfiCond289) DPH0 load(1, XDATA, add(CFA_XSP16, literal(-1)))
          CFI (cfiCond289) CFA_SP SP+-6
          CFI (cfiCond289) CFA_XSP16 add(XSP16, 28)
          CFI Block cfiCond290 Using cfiCommon0
          CFI (cfiCond290) Function afIncomingData
          CFI (cfiCond290) Conditional ??CrossCallReturnLabel_136, ??CrossCallReturnLabel_88, ??CrossCallReturnLabel_11
          CFI (cfiCond290) R6 load(1, XDATA, add(CFA_XSP16, literal(-15)))
          CFI (cfiCond290) VB load(1, XDATA, add(CFA_XSP16, literal(-14)))
          CFI (cfiCond290) V0 load(1, XDATA, add(CFA_XSP16, literal(-13)))
          CFI (cfiCond290) V1 load(1, XDATA, add(CFA_XSP16, literal(-12)))
          CFI (cfiCond290) V2 load(1, XDATA, add(CFA_XSP16, literal(-11)))
          CFI (cfiCond290) V3 load(1, XDATA, add(CFA_XSP16, literal(-10)))
          CFI (cfiCond290) V4 load(1, XDATA, add(CFA_XSP16, literal(-9)))
          CFI (cfiCond290) V5 load(1, XDATA, add(CFA_XSP16, literal(-8)))
          CFI (cfiCond290) V6 load(1, XDATA, add(CFA_XSP16, literal(-7)))
          CFI (cfiCond290) R7 load(1, XDATA, add(CFA_XSP16, literal(-6)))
          CFI (cfiCond290) ?RET_LOW load(1, XDATA, add(CFA_XSP16, literal(-5)))
          CFI (cfiCond290) ?RET_HIGH load(1, XDATA, add(CFA_XSP16, literal(-4)))
          CFI (cfiCond290) ?BRET_EXT load(1, XDATA, add(CFA_XSP16, literal(-3)))
          CFI (cfiCond290) DPL0 load(1, XDATA, add(CFA_XSP16, literal(-2)))
          CFI (cfiCond290) DPH0 load(1, XDATA, add(CFA_XSP16, literal(-1)))
          CFI (cfiCond290) CFA_SP SP+-6
          CFI (cfiCond290) CFA_XSP16 add(XSP16, 28)
          CFI Block cfiCond291 Using cfiCommon0
          CFI (cfiCond291) Function afIncomingData
          CFI (cfiCond291) Conditional ??CrossCallReturnLabel_136, ??CrossCallReturnLabel_88, ??CrossCallReturnLabel_12
          CFI (cfiCond291) R6 load(1, XDATA, add(CFA_XSP16, literal(-15)))
          CFI (cfiCond291) VB load(1, XDATA, add(CFA_XSP16, literal(-14)))
          CFI (cfiCond291) V0 load(1, XDATA, add(CFA_XSP16, literal(-13)))
          CFI (cfiCond291) V1 load(1, XDATA, add(CFA_XSP16, literal(-12)))
          CFI (cfiCond291) V2 load(1, XDATA, add(CFA_XSP16, literal(-11)))
          CFI (cfiCond291) V3 load(1, XDATA, add(CFA_XSP16, literal(-10)))
          CFI (cfiCond291) V4 load(1, XDATA, add(CFA_XSP16, literal(-9)))
          CFI (cfiCond291) V5 load(1, XDATA, add(CFA_XSP16, literal(-8)))
          CFI (cfiCond291) V6 load(1, XDATA, add(CFA_XSP16, literal(-7)))
          CFI (cfiCond291) R7 load(1, XDATA, add(CFA_XSP16, literal(-6)))
          CFI (cfiCond291) ?RET_LOW load(1, XDATA, add(CFA_XSP16, literal(-5)))
          CFI (cfiCond291) ?RET_HIGH load(1, XDATA, add(CFA_XSP16, literal(-4)))
          CFI (cfiCond291) ?BRET_EXT load(1, XDATA, add(CFA_XSP16, literal(-3)))
          CFI (cfiCond291) DPL0 load(1, XDATA, add(CFA_XSP16, literal(-2)))
          CFI (cfiCond291) DPH0 load(1, XDATA, add(CFA_XSP16, literal(-1)))
          CFI (cfiCond291) CFA_SP SP+-6
          CFI (cfiCond291) CFA_XSP16 add(XSP16, 28)
          CFI Block cfiCond292 Using cfiCommon0
          CFI (cfiCond292) Function afIncomingData
          CFI (cfiCond292) Conditional ??CrossCallReturnLabel_136, ??CrossCallReturnLabel_90, ??CrossCallReturnLabel_24
          CFI (cfiCond292) R6 load(1, XDATA, add(CFA_XSP16, literal(-15)))
          CFI (cfiCond292) VB load(1, XDATA, add(CFA_XSP16, literal(-14)))
          CFI (cfiCond292) V0 load(1, XDATA, add(CFA_XSP16, literal(-13)))
          CFI (cfiCond292) V1 load(1, XDATA, add(CFA_XSP16, literal(-12)))
          CFI (cfiCond292) V2 load(1, XDATA, add(CFA_XSP16, literal(-11)))
          CFI (cfiCond292) V3 load(1, XDATA, add(CFA_XSP16, literal(-10)))
          CFI (cfiCond292) V4 load(1, XDATA, add(CFA_XSP16, literal(-9)))
          CFI (cfiCond292) V5 load(1, XDATA, add(CFA_XSP16, literal(-8)))
          CFI (cfiCond292) V6 load(1, XDATA, add(CFA_XSP16, literal(-7)))
          CFI (cfiCond292) R7 load(1, XDATA, add(CFA_XSP16, literal(-6)))
          CFI (cfiCond292) ?RET_LOW load(1, XDATA, add(CFA_XSP16, literal(-5)))
          CFI (cfiCond292) ?RET_HIGH load(1, XDATA, add(CFA_XSP16, literal(-4)))
          CFI (cfiCond292) ?BRET_EXT load(1, XDATA, add(CFA_XSP16, literal(-3)))
          CFI (cfiCond292) DPL0 load(1, XDATA, add(CFA_XSP16, literal(-2)))
          CFI (cfiCond292) DPH0 load(1, XDATA, add(CFA_XSP16, literal(-1)))
          CFI (cfiCond292) CFA_SP SP+-6
          CFI (cfiCond292) CFA_XSP16 add(XSP16, 28)
          CFI Block cfiCond293 Using cfiCommon0
          CFI (cfiCond293) Function afIncomingData
          CFI (cfiCond293) Conditional ??CrossCallReturnLabel_136, ??CrossCallReturnLabel_90, ??CrossCallReturnLabel_25
          CFI (cfiCond293) R6 load(1, XDATA, add(CFA_XSP16, literal(-15)))
          CFI (cfiCond293) VB load(1, XDATA, add(CFA_XSP16, literal(-14)))
          CFI (cfiCond293) V0 load(1, XDATA, add(CFA_XSP16, literal(-13)))
          CFI (cfiCond293) V1 load(1, XDATA, add(CFA_XSP16, literal(-12)))
          CFI (cfiCond293) V2 load(1, XDATA, add(CFA_XSP16, literal(-11)))
          CFI (cfiCond293) V3 load(1, XDATA, add(CFA_XSP16, literal(-10)))
          CFI (cfiCond293) V4 load(1, XDATA, add(CFA_XSP16, literal(-9)))
          CFI (cfiCond293) V5 load(1, XDATA, add(CFA_XSP16, literal(-8)))
          CFI (cfiCond293) V6 load(1, XDATA, add(CFA_XSP16, literal(-7)))
          CFI (cfiCond293) R7 load(1, XDATA, add(CFA_XSP16, literal(-6)))
          CFI (cfiCond293) ?RET_LOW load(1, XDATA, add(CFA_XSP16, literal(-5)))
          CFI (cfiCond293) ?RET_HIGH load(1, XDATA, add(CFA_XSP16, literal(-4)))
          CFI (cfiCond293) ?BRET_EXT load(1, XDATA, add(CFA_XSP16, literal(-3)))
          CFI (cfiCond293) DPL0 load(1, XDATA, add(CFA_XSP16, literal(-2)))
          CFI (cfiCond293) DPH0 load(1, XDATA, add(CFA_XSP16, literal(-1)))
          CFI (cfiCond293) CFA_SP SP+-6
          CFI (cfiCond293) CFA_XSP16 add(XSP16, 28)
          CFI Block cfiCond294 Using cfiCommon0
          CFI (cfiCond294) Function afIncomingData
          CFI (cfiCond294) Conditional ??CrossCallReturnLabel_136, ??CrossCallReturnLabel_90, ??CrossCallReturnLabel_26
          CFI (cfiCond294) R6 load(1, XDATA, add(CFA_XSP16, literal(-15)))
          CFI (cfiCond294) VB load(1, XDATA, add(CFA_XSP16, literal(-14)))
          CFI (cfiCond294) V0 load(1, XDATA, add(CFA_XSP16, literal(-13)))
          CFI (cfiCond294) V1 load(1, XDATA, add(CFA_XSP16, literal(-12)))
          CFI (cfiCond294) V2 load(1, XDATA, add(CFA_XSP16, literal(-11)))
          CFI (cfiCond294) V3 load(1, XDATA, add(CFA_XSP16, literal(-10)))
          CFI (cfiCond294) V4 load(1, XDATA, add(CFA_XSP16, literal(-9)))
          CFI (cfiCond294) V5 load(1, XDATA, add(CFA_XSP16, literal(-8)))
          CFI (cfiCond294) V6 load(1, XDATA, add(CFA_XSP16, literal(-7)))
          CFI (cfiCond294) R7 load(1, XDATA, add(CFA_XSP16, literal(-6)))
          CFI (cfiCond294) ?RET_LOW load(1, XDATA, add(CFA_XSP16, literal(-5)))
          CFI (cfiCond294) ?RET_HIGH load(1, XDATA, add(CFA_XSP16, literal(-4)))
          CFI (cfiCond294) ?BRET_EXT load(1, XDATA, add(CFA_XSP16, literal(-3)))
          CFI (cfiCond294) DPL0 load(1, XDATA, add(CFA_XSP16, literal(-2)))
          CFI (cfiCond294) DPH0 load(1, XDATA, add(CFA_XSP16, literal(-1)))
          CFI (cfiCond294) CFA_SP SP+-6
          CFI (cfiCond294) CFA_XSP16 add(XSP16, 28)
          CFI Block cfiCond295 Using cfiCommon0
          CFI (cfiCond295) Function afIncomingData
          CFI (cfiCond295) Conditional ??CrossCallReturnLabel_136, ??CrossCallReturnLabel_90, ??CrossCallReturnLabel_27
          CFI (cfiCond295) R6 load(1, XDATA, add(CFA_XSP16, literal(-15)))
          CFI (cfiCond295) VB load(1, XDATA, add(CFA_XSP16, literal(-14)))
          CFI (cfiCond295) V0 load(1, XDATA, add(CFA_XSP16, literal(-13)))
          CFI (cfiCond295) V1 load(1, XDATA, add(CFA_XSP16, literal(-12)))
          CFI (cfiCond295) V2 load(1, XDATA, add(CFA_XSP16, literal(-11)))
          CFI (cfiCond295) V3 load(1, XDATA, add(CFA_XSP16, literal(-10)))
          CFI (cfiCond295) V4 load(1, XDATA, add(CFA_XSP16, literal(-9)))
          CFI (cfiCond295) V5 load(1, XDATA, add(CFA_XSP16, literal(-8)))
          CFI (cfiCond295) V6 load(1, XDATA, add(CFA_XSP16, literal(-7)))
          CFI (cfiCond295) R7 load(1, XDATA, add(CFA_XSP16, literal(-6)))
          CFI (cfiCond295) ?RET_LOW load(1, XDATA, add(CFA_XSP16, literal(-5)))
          CFI (cfiCond295) ?RET_HIGH load(1, XDATA, add(CFA_XSP16, literal(-4)))
          CFI (cfiCond295) ?BRET_EXT load(1, XDATA, add(CFA_XSP16, literal(-3)))
          CFI (cfiCond295) DPL0 load(1, XDATA, add(CFA_XSP16, literal(-2)))
          CFI (cfiCond295) DPH0 load(1, XDATA, add(CFA_XSP16, literal(-1)))
          CFI (cfiCond295) CFA_SP SP+-6
          CFI (cfiCond295) CFA_XSP16 add(XSP16, 28)
          CFI Block cfiCond296 Using cfiCommon0
          CFI (cfiCond296) Function AF_DataRequest
          CFI (cfiCond296) Conditional ??CrossCallReturnLabel_136, ??CrossCallReturnLabel_90, ??CrossCallReturnLabel_28
          CFI (cfiCond296) R6 load(1, XDATA, add(CFA_XSP16, literal(-16)))
          CFI (cfiCond296) VB load(1, XDATA, add(CFA_XSP16, literal(-15)))
          CFI (cfiCond296) V0 load(1, XDATA, add(CFA_XSP16, literal(-14)))
          CFI (cfiCond296) V1 load(1, XDATA, add(CFA_XSP16, literal(-13)))
          CFI (cfiCond296) V2 load(1, XDATA, add(CFA_XSP16, literal(-12)))
          CFI (cfiCond296) V3 load(1, XDATA, add(CFA_XSP16, literal(-11)))
          CFI (cfiCond296) V4 load(1, XDATA, add(CFA_XSP16, literal(-10)))
          CFI (cfiCond296) V5 load(1, XDATA, add(CFA_XSP16, literal(-9)))
          CFI (cfiCond296) V6 load(1, XDATA, add(CFA_XSP16, literal(-8)))
          CFI (cfiCond296) V7 load(1, XDATA, add(CFA_XSP16, literal(-7)))
          CFI (cfiCond296) R7 load(1, XDATA, add(CFA_XSP16, literal(-6)))
          CFI (cfiCond296) ?RET_LOW load(1, XDATA, add(CFA_XSP16, literal(-5)))
          CFI (cfiCond296) ?RET_HIGH load(1, XDATA, add(CFA_XSP16, literal(-4)))
          CFI (cfiCond296) ?BRET_EXT load(1, XDATA, add(CFA_XSP16, literal(-3)))
          CFI (cfiCond296) DPL0 load(1, XDATA, add(CFA_XSP16, literal(-2)))
          CFI (cfiCond296) DPH0 load(1, XDATA, add(CFA_XSP16, literal(-1)))
          CFI (cfiCond296) CFA_SP SP+-6
          CFI (cfiCond296) CFA_XSP16 add(XSP16, 49)
          CFI Block cfiCond297 Using cfiCommon0
          CFI (cfiCond297) Function AF_DataRequest
          CFI (cfiCond297) Conditional ??CrossCallReturnLabel_136, ??CrossCallReturnLabel_90, ??CrossCallReturnLabel_29
          CFI (cfiCond297) R6 load(1, XDATA, add(CFA_XSP16, literal(-16)))
          CFI (cfiCond297) VB load(1, XDATA, add(CFA_XSP16, literal(-15)))
          CFI (cfiCond297) V0 load(1, XDATA, add(CFA_XSP16, literal(-14)))
          CFI (cfiCond297) V1 load(1, XDATA, add(CFA_XSP16, literal(-13)))
          CFI (cfiCond297) V2 load(1, XDATA, add(CFA_XSP16, literal(-12)))
          CFI (cfiCond297) V3 load(1, XDATA, add(CFA_XSP16, literal(-11)))
          CFI (cfiCond297) V4 load(1, XDATA, add(CFA_XSP16, literal(-10)))
          CFI (cfiCond297) V5 load(1, XDATA, add(CFA_XSP16, literal(-9)))
          CFI (cfiCond297) V6 load(1, XDATA, add(CFA_XSP16, literal(-8)))
          CFI (cfiCond297) V7 load(1, XDATA, add(CFA_XSP16, literal(-7)))
          CFI (cfiCond297) R7 load(1, XDATA, add(CFA_XSP16, literal(-6)))
          CFI (cfiCond297) ?RET_LOW load(1, XDATA, add(CFA_XSP16, literal(-5)))
          CFI (cfiCond297) ?RET_HIGH load(1, XDATA, add(CFA_XSP16, literal(-4)))
          CFI (cfiCond297) ?BRET_EXT load(1, XDATA, add(CFA_XSP16, literal(-3)))
          CFI (cfiCond297) DPL0 load(1, XDATA, add(CFA_XSP16, literal(-2)))
          CFI (cfiCond297) DPH0 load(1, XDATA, add(CFA_XSP16, literal(-1)))
          CFI (cfiCond297) CFA_SP SP+-6
          CFI (cfiCond297) CFA_XSP16 add(XSP16, 49)
          CFI Block cfiCond298 Using cfiCommon0
          CFI (cfiCond298) Function AF_DataRequest
          CFI (cfiCond298) Conditional ??CrossCallReturnLabel_136, ??CrossCallReturnLabel_90, ??CrossCallReturnLabel_30
          CFI (cfiCond298) R6 load(1, XDATA, add(CFA_XSP16, literal(-16)))
          CFI (cfiCond298) VB load(1, XDATA, add(CFA_XSP16, literal(-15)))
          CFI (cfiCond298) V0 load(1, XDATA, add(CFA_XSP16, literal(-14)))
          CFI (cfiCond298) V1 load(1, XDATA, add(CFA_XSP16, literal(-13)))
          CFI (cfiCond298) V2 load(1, XDATA, add(CFA_XSP16, literal(-12)))
          CFI (cfiCond298) V3 load(1, XDATA, add(CFA_XSP16, literal(-11)))
          CFI (cfiCond298) V4 load(1, XDATA, add(CFA_XSP16, literal(-10)))
          CFI (cfiCond298) V5 load(1, XDATA, add(CFA_XSP16, literal(-9)))
          CFI (cfiCond298) V6 load(1, XDATA, add(CFA_XSP16, literal(-8)))
          CFI (cfiCond298) V7 load(1, XDATA, add(CFA_XSP16, literal(-7)))
          CFI (cfiCond298) R7 load(1, XDATA, add(CFA_XSP16, literal(-6)))
          CFI (cfiCond298) ?RET_LOW load(1, XDATA, add(CFA_XSP16, literal(-5)))
          CFI (cfiCond298) ?RET_HIGH load(1, XDATA, add(CFA_XSP16, literal(-4)))
          CFI (cfiCond298) ?BRET_EXT load(1, XDATA, add(CFA_XSP16, literal(-3)))
          CFI (cfiCond298) DPL0 load(1, XDATA, add(CFA_XSP16, literal(-2)))
          CFI (cfiCond298) DPH0 load(1, XDATA, add(CFA_XSP16, literal(-1)))
          CFI (cfiCond298) CFA_SP SP+-6
          CFI (cfiCond298) CFA_XSP16 add(XSP16, 49)
          CFI Block cfiCond299 Using cfiCommon0
          CFI (cfiCond299) Function afFindEndPointDescList
          CFI (cfiCond299) Conditional ??CrossCallReturnLabel_136, ??CrossCallReturnLabel_90, ??CrossCallReturnLabel_31
          CFI (cfiCond299) DPL0 Frame(CFA_SP, 4)
          CFI (cfiCond299) DPH0 Frame(CFA_SP, 5)
          CFI (cfiCond299) CFA_SP SP+-11
          CFI Block cfiCond300 Using cfiCommon0
          CFI (cfiCond300) Function afIncomingData
          CFI (cfiCond300) Conditional ??CrossCallReturnLabel_135, ??CrossCallReturnLabel_149
          CFI (cfiCond300) R6 load(1, XDATA, add(CFA_XSP16, literal(-15)))
          CFI (cfiCond300) VB load(1, XDATA, add(CFA_XSP16, literal(-14)))
          CFI (cfiCond300) V0 load(1, XDATA, add(CFA_XSP16, literal(-13)))
          CFI (cfiCond300) V1 load(1, XDATA, add(CFA_XSP16, literal(-12)))
          CFI (cfiCond300) V2 load(1, XDATA, add(CFA_XSP16, literal(-11)))
          CFI (cfiCond300) V3 load(1, XDATA, add(CFA_XSP16, literal(-10)))
          CFI (cfiCond300) V4 load(1, XDATA, add(CFA_XSP16, literal(-9)))
          CFI (cfiCond300) V5 load(1, XDATA, add(CFA_XSP16, literal(-8)))
          CFI (cfiCond300) V6 load(1, XDATA, add(CFA_XSP16, literal(-7)))
          CFI (cfiCond300) R7 load(1, XDATA, add(CFA_XSP16, literal(-6)))
          CFI (cfiCond300) ?RET_LOW load(1, XDATA, add(CFA_XSP16, literal(-5)))
          CFI (cfiCond300) ?RET_HIGH load(1, XDATA, add(CFA_XSP16, literal(-4)))
          CFI (cfiCond300) ?BRET_EXT load(1, XDATA, add(CFA_XSP16, literal(-3)))
          CFI (cfiCond300) DPL0 load(1, XDATA, add(CFA_XSP16, literal(-2)))
          CFI (cfiCond300) DPH0 load(1, XDATA, add(CFA_XSP16, literal(-1)))
          CFI (cfiCond300) CFA_SP SP+-4
          CFI (cfiCond300) CFA_XSP16 add(XSP16, 28)
          CFI Block cfiCond301 Using cfiCommon0
          CFI (cfiCond301) Function afIncomingData
          CFI (cfiCond301) Conditional ??CrossCallReturnLabel_135, ??CrossCallReturnLabel_150
          CFI (cfiCond301) R6 load(1, XDATA, add(CFA_XSP16, literal(-15)))
          CFI (cfiCond301) VB load(1, XDATA, add(CFA_XSP16, literal(-14)))
          CFI (cfiCond301) V0 load(1, XDATA, add(CFA_XSP16, literal(-13)))
          CFI (cfiCond301) V1 load(1, XDATA, add(CFA_XSP16, literal(-12)))
          CFI (cfiCond301) V2 load(1, XDATA, add(CFA_XSP16, literal(-11)))
          CFI (cfiCond301) V3 load(1, XDATA, add(CFA_XSP16, literal(-10)))
          CFI (cfiCond301) V4 load(1, XDATA, add(CFA_XSP16, literal(-9)))
          CFI (cfiCond301) V5 load(1, XDATA, add(CFA_XSP16, literal(-8)))
          CFI (cfiCond301) V6 load(1, XDATA, add(CFA_XSP16, literal(-7)))
          CFI (cfiCond301) R7 load(1, XDATA, add(CFA_XSP16, literal(-6)))
          CFI (cfiCond301) ?RET_LOW load(1, XDATA, add(CFA_XSP16, literal(-5)))
          CFI (cfiCond301) ?RET_HIGH load(1, XDATA, add(CFA_XSP16, literal(-4)))
          CFI (cfiCond301) ?BRET_EXT load(1, XDATA, add(CFA_XSP16, literal(-3)))
          CFI (cfiCond301) DPL0 load(1, XDATA, add(CFA_XSP16, literal(-2)))
          CFI (cfiCond301) DPH0 load(1, XDATA, add(CFA_XSP16, literal(-1)))
          CFI (cfiCond301) CFA_SP SP+-4
          CFI (cfiCond301) CFA_XSP16 add(XSP16, 28)
          CFI Block cfiPicker302 Using cfiCommon1
          CFI (cfiPicker302) NoFunction
          CFI (cfiPicker302) Picker
        MOVX      A,@DPTR
        MOV       DPH,A
        MOV       DPL,R0
        RET
          CFI EndBlock cfiCond272
          CFI EndBlock cfiCond273
          CFI EndBlock cfiCond274
          CFI EndBlock cfiCond275
          CFI EndBlock cfiCond276
          CFI EndBlock cfiCond277
          CFI EndBlock cfiCond278
          CFI EndBlock cfiCond279
          CFI EndBlock cfiCond280
          CFI EndBlock cfiCond281
          CFI EndBlock cfiCond282
          CFI EndBlock cfiCond283
          CFI EndBlock cfiCond284
          CFI EndBlock cfiCond285
          CFI EndBlock cfiCond286
          CFI EndBlock cfiCond287
          CFI EndBlock cfiCond288
          CFI EndBlock cfiCond289
          CFI EndBlock cfiCond290
          CFI EndBlock cfiCond291
          CFI EndBlock cfiCond292
          CFI EndBlock cfiCond293
          CFI EndBlock cfiCond294
          CFI EndBlock cfiCond295
          CFI EndBlock cfiCond296
          CFI EndBlock cfiCond297
          CFI EndBlock cfiCond298
          CFI EndBlock cfiCond299
          CFI EndBlock cfiCond300
          CFI EndBlock cfiCond301
          CFI EndBlock cfiPicker302

        RSEG BANKED_CODE:HUGECODE:NOROOT(0)
?Subroutine11:
          CFI Block cfiCond303 Using cfiCommon0
          CFI Function afIncomingData
          CFI Conditional ??CrossCallReturnLabel_149
          CFI R6 load(1, XDATA, add(CFA_XSP16, literal(-15)))
          CFI VB load(1, XDATA, add(CFA_XSP16, literal(-14)))
          CFI V0 load(1, XDATA, add(CFA_XSP16, literal(-13)))
          CFI V1 load(1, XDATA, add(CFA_XSP16, literal(-12)))
          CFI V2 load(1, XDATA, add(CFA_XSP16, literal(-11)))
          CFI V3 load(1, XDATA, add(CFA_XSP16, literal(-10)))
          CFI V4 load(1, XDATA, add(CFA_XSP16, literal(-9)))
          CFI V5 load(1, XDATA, add(CFA_XSP16, literal(-8)))
          CFI V6 load(1, XDATA, add(CFA_XSP16, literal(-7)))
          CFI R7 load(1, XDATA, add(CFA_XSP16, literal(-6)))
          CFI ?RET_LOW load(1, XDATA, add(CFA_XSP16, literal(-5)))
          CFI ?RET_HIGH load(1, XDATA, add(CFA_XSP16, literal(-4)))
          CFI ?BRET_EXT load(1, XDATA, add(CFA_XSP16, literal(-3)))
          CFI DPL0 load(1, XDATA, add(CFA_XSP16, literal(-2)))
          CFI DPH0 load(1, XDATA, add(CFA_XSP16, literal(-1)))
          CFI CFA_SP SP+-2
          CFI CFA_XSP16 add(XSP16, 28)
          CFI Block cfiCond304 Using cfiCommon0
          CFI (cfiCond304) Function afIncomingData
          CFI (cfiCond304) Conditional ??CrossCallReturnLabel_150
          CFI (cfiCond304) R6 load(1, XDATA, add(CFA_XSP16, literal(-15)))
          CFI (cfiCond304) VB load(1, XDATA, add(CFA_XSP16, literal(-14)))
          CFI (cfiCond304) V0 load(1, XDATA, add(CFA_XSP16, literal(-13)))
          CFI (cfiCond304) V1 load(1, XDATA, add(CFA_XSP16, literal(-12)))
          CFI (cfiCond304) V2 load(1, XDATA, add(CFA_XSP16, literal(-11)))
          CFI (cfiCond304) V3 load(1, XDATA, add(CFA_XSP16, literal(-10)))
          CFI (cfiCond304) V4 load(1, XDATA, add(CFA_XSP16, literal(-9)))
          CFI (cfiCond304) V5 load(1, XDATA, add(CFA_XSP16, literal(-8)))
          CFI (cfiCond304) V6 load(1, XDATA, add(CFA_XSP16, literal(-7)))
          CFI (cfiCond304) R7 load(1, XDATA, add(CFA_XSP16, literal(-6)))
          CFI (cfiCond304) ?RET_LOW load(1, XDATA, add(CFA_XSP16, literal(-5)))
          CFI (cfiCond304) ?RET_HIGH load(1, XDATA, add(CFA_XSP16, literal(-4)))
          CFI (cfiCond304) ?BRET_EXT load(1, XDATA, add(CFA_XSP16, literal(-3)))
          CFI (cfiCond304) DPL0 load(1, XDATA, add(CFA_XSP16, literal(-2)))
          CFI (cfiCond304) DPH0 load(1, XDATA, add(CFA_XSP16, literal(-1)))
          CFI (cfiCond304) CFA_SP SP+-2
          CFI (cfiCond304) CFA_XSP16 add(XSP16, 28)
          CFI Block cfiPicker305 Using cfiCommon1
          CFI (cfiPicker305) NoFunction
          CFI (cfiPicker305) Picker
        LCALL     ?Subroutine48 & 0xFFFF
??CrossCallReturnLabel_135:
          CFI EndBlock cfiCond303
          CFI EndBlock cfiCond304
          CFI EndBlock cfiPicker305
        REQUIRE ??Subroutine61_0
        ; // Fall through to label ??Subroutine61_0

        RSEG BANKED_CODE:HUGECODE:NOROOT(0)
??Subroutine61_0:
          CFI Block cfiCond306 Using cfiCommon0
          CFI Function afRegisterExtended
          CFI Conditional ??CrossCallReturnLabel_138
          CFI R6 load(1, XDATA, add(CFA_XSP16, literal(-14)))
          CFI VB load(1, XDATA, add(CFA_XSP16, literal(-13)))
          CFI V0 load(1, XDATA, add(CFA_XSP16, literal(-12)))
          CFI V1 load(1, XDATA, add(CFA_XSP16, literal(-11)))
          CFI V2 load(1, XDATA, add(CFA_XSP16, literal(-10)))
          CFI V3 load(1, XDATA, add(CFA_XSP16, literal(-9)))
          CFI V4 load(1, XDATA, add(CFA_XSP16, literal(-8)))
          CFI V5 load(1, XDATA, add(CFA_XSP16, literal(-7)))
          CFI R7 load(1, XDATA, add(CFA_XSP16, literal(-6)))
          CFI ?RET_LOW load(1, XDATA, add(CFA_XSP16, literal(-5)))
          CFI ?RET_HIGH load(1, XDATA, add(CFA_XSP16, literal(-4)))
          CFI ?BRET_EXT load(1, XDATA, add(CFA_XSP16, literal(-3)))
          CFI DPL0 load(1, XDATA, add(CFA_XSP16, literal(-2)))
          CFI DPH0 load(1, XDATA, add(CFA_XSP16, literal(-1)))
          CFI CFA_SP SP+-2
          CFI CFA_XSP16 add(XSP16, 14)
          CFI Block cfiCond307 Using cfiCommon0
          CFI (cfiCond307) Function afDelete
          CFI (cfiCond307) Conditional ??CrossCallReturnLabel_139
          CFI (cfiCond307) R6 load(1, XDATA, add(CFA_XSP16, literal(-9)))
          CFI (cfiCond307) VB load(1, XDATA, add(CFA_XSP16, literal(-8)))
          CFI (cfiCond307) V0 load(1, XDATA, add(CFA_XSP16, literal(-7)))
          CFI (cfiCond307) R7 load(1, XDATA, add(CFA_XSP16, literal(-6)))
          CFI (cfiCond307) ?RET_LOW load(1, XDATA, add(CFA_XSP16, literal(-5)))
          CFI (cfiCond307) ?RET_HIGH load(1, XDATA, add(CFA_XSP16, literal(-4)))
          CFI (cfiCond307) ?BRET_EXT load(1, XDATA, add(CFA_XSP16, literal(-3)))
          CFI (cfiCond307) DPL0 load(1, XDATA, add(CFA_XSP16, literal(-2)))
          CFI (cfiCond307) DPH0 load(1, XDATA, add(CFA_XSP16, literal(-1)))
          CFI (cfiCond307) CFA_SP SP+-2
          CFI (cfiCond307) CFA_XSP16 add(XSP16, 9)
          CFI Block cfiCond308 Using cfiCommon0
          CFI (cfiCond308) Function afIncomingData
          CFI (cfiCond308) Conditional ??CrossCallReturnLabel_140
          CFI (cfiCond308) R6 load(1, XDATA, add(CFA_XSP16, literal(-15)))
          CFI (cfiCond308) VB load(1, XDATA, add(CFA_XSP16, literal(-14)))
          CFI (cfiCond308) V0 load(1, XDATA, add(CFA_XSP16, literal(-13)))
          CFI (cfiCond308) V1 load(1, XDATA, add(CFA_XSP16, literal(-12)))
          CFI (cfiCond308) V2 load(1, XDATA, add(CFA_XSP16, literal(-11)))
          CFI (cfiCond308) V3 load(1, XDATA, add(CFA_XSP16, literal(-10)))
          CFI (cfiCond308) V4 load(1, XDATA, add(CFA_XSP16, literal(-9)))
          CFI (cfiCond308) V5 load(1, XDATA, add(CFA_XSP16, literal(-8)))
          CFI (cfiCond308) V6 load(1, XDATA, add(CFA_XSP16, literal(-7)))
          CFI (cfiCond308) R7 load(1, XDATA, add(CFA_XSP16, literal(-6)))
          CFI (cfiCond308) ?RET_LOW load(1, XDATA, add(CFA_XSP16, literal(-5)))
          CFI (cfiCond308) ?RET_HIGH load(1, XDATA, add(CFA_XSP16, literal(-4)))
          CFI (cfiCond308) ?BRET_EXT load(1, XDATA, add(CFA_XSP16, literal(-3)))
          CFI (cfiCond308) DPL0 load(1, XDATA, add(CFA_XSP16, literal(-2)))
          CFI (cfiCond308) DPH0 load(1, XDATA, add(CFA_XSP16, literal(-1)))
          CFI (cfiCond308) CFA_SP SP+-2
          CFI (cfiCond308) CFA_XSP16 add(XSP16, 40)
          CFI Block cfiCond309 Using cfiCommon0
          CFI (cfiCond309) Function afBuildMSGIncoming
          CFI (cfiCond309) Conditional ??CrossCallReturnLabel_141
          CFI (cfiCond309) R6 load(1, XDATA, add(CFA_XSP16, literal(-16)))
          CFI (cfiCond309) VB load(1, XDATA, add(CFA_XSP16, literal(-15)))
          CFI (cfiCond309) V0 load(1, XDATA, add(CFA_XSP16, literal(-14)))
          CFI (cfiCond309) V1 load(1, XDATA, add(CFA_XSP16, literal(-13)))
          CFI (cfiCond309) V2 load(1, XDATA, add(CFA_XSP16, literal(-12)))
          CFI (cfiCond309) V3 load(1, XDATA, add(CFA_XSP16, literal(-11)))
          CFI (cfiCond309) V4 load(1, XDATA, add(CFA_XSP16, literal(-10)))
          CFI (cfiCond309) V5 load(1, XDATA, add(CFA_XSP16, literal(-9)))
          CFI (cfiCond309) V6 load(1, XDATA, add(CFA_XSP16, literal(-8)))
          CFI (cfiCond309) V7 load(1, XDATA, add(CFA_XSP16, literal(-7)))
          CFI (cfiCond309) R7 load(1, XDATA, add(CFA_XSP16, literal(-6)))
          CFI (cfiCond309) ?RET_LOW load(1, XDATA, add(CFA_XSP16, literal(-5)))
          CFI (cfiCond309) ?RET_HIGH load(1, XDATA, add(CFA_XSP16, literal(-4)))
          CFI (cfiCond309) ?BRET_EXT load(1, XDATA, add(CFA_XSP16, literal(-3)))
          CFI (cfiCond309) DPL0 load(1, XDATA, add(CFA_XSP16, literal(-2)))
          CFI (cfiCond309) DPH0 load(1, XDATA, add(CFA_XSP16, literal(-1)))
          CFI (cfiCond309) CFA_SP SP+-2
          CFI (cfiCond309) CFA_XSP16 add(XSP16, 19)
          CFI Block cfiCond310 Using cfiCommon0
          CFI (cfiCond310) Function AF_DataRequest
          CFI (cfiCond310) Conditional ??CrossCallReturnLabel_142
          CFI (cfiCond310) R6 load(1, XDATA, add(CFA_XSP16, literal(-16)))
          CFI (cfiCond310) VB load(1, XDATA, add(CFA_XSP16, literal(-15)))
          CFI (cfiCond310) V0 load(1, XDATA, add(CFA_XSP16, literal(-14)))
          CFI (cfiCond310) V1 load(1, XDATA, add(CFA_XSP16, literal(-13)))
          CFI (cfiCond310) V2 load(1, XDATA, add(CFA_XSP16, literal(-12)))
          CFI (cfiCond310) V3 load(1, XDATA, add(CFA_XSP16, literal(-11)))
          CFI (cfiCond310) V4 load(1, XDATA, add(CFA_XSP16, literal(-10)))
          CFI (cfiCond310) V5 load(1, XDATA, add(CFA_XSP16, literal(-9)))
          CFI (cfiCond310) V6 load(1, XDATA, add(CFA_XSP16, literal(-8)))
          CFI (cfiCond310) V7 load(1, XDATA, add(CFA_XSP16, literal(-7)))
          CFI (cfiCond310) R7 load(1, XDATA, add(CFA_XSP16, literal(-6)))
          CFI (cfiCond310) ?RET_LOW load(1, XDATA, add(CFA_XSP16, literal(-5)))
          CFI (cfiCond310) ?RET_HIGH load(1, XDATA, add(CFA_XSP16, literal(-4)))
          CFI (cfiCond310) ?BRET_EXT load(1, XDATA, add(CFA_XSP16, literal(-3)))
          CFI (cfiCond310) DPL0 load(1, XDATA, add(CFA_XSP16, literal(-2)))
          CFI (cfiCond310) DPH0 load(1, XDATA, add(CFA_XSP16, literal(-1)))
          CFI (cfiCond310) CFA_SP SP+-2
          CFI (cfiCond310) CFA_XSP16 add(XSP16, 49)
          CFI Block cfiCond311 Using cfiCommon0
          CFI (cfiCond311) Function AF_DataRequest
          CFI (cfiCond311) Conditional ??CrossCallReturnLabel_143
          CFI (cfiCond311) R6 load(1, XDATA, add(CFA_XSP16, literal(-16)))
          CFI (cfiCond311) VB load(1, XDATA, add(CFA_XSP16, literal(-15)))
          CFI (cfiCond311) V0 load(1, XDATA, add(CFA_XSP16, literal(-14)))
          CFI (cfiCond311) V1 load(1, XDATA, add(CFA_XSP16, literal(-13)))
          CFI (cfiCond311) V2 load(1, XDATA, add(CFA_XSP16, literal(-12)))
          CFI (cfiCond311) V3 load(1, XDATA, add(CFA_XSP16, literal(-11)))
          CFI (cfiCond311) V4 load(1, XDATA, add(CFA_XSP16, literal(-10)))
          CFI (cfiCond311) V5 load(1, XDATA, add(CFA_XSP16, literal(-9)))
          CFI (cfiCond311) V6 load(1, XDATA, add(CFA_XSP16, literal(-8)))
          CFI (cfiCond311) V7 load(1, XDATA, add(CFA_XSP16, literal(-7)))
          CFI (cfiCond311) R7 load(1, XDATA, add(CFA_XSP16, literal(-6)))
          CFI (cfiCond311) ?RET_LOW load(1, XDATA, add(CFA_XSP16, literal(-5)))
          CFI (cfiCond311) ?RET_HIGH load(1, XDATA, add(CFA_XSP16, literal(-4)))
          CFI (cfiCond311) ?BRET_EXT load(1, XDATA, add(CFA_XSP16, literal(-3)))
          CFI (cfiCond311) DPL0 load(1, XDATA, add(CFA_XSP16, literal(-2)))
          CFI (cfiCond311) DPH0 load(1, XDATA, add(CFA_XSP16, literal(-1)))
          CFI (cfiCond311) CFA_SP SP+-2
          CFI (cfiCond311) CFA_XSP16 add(XSP16, 49)
          CFI Block cfiCond312 Using cfiCommon0
          CFI (cfiCond312) Function AF_DataRequest
          CFI (cfiCond312) Conditional ??CrossCallReturnLabel_144
          CFI (cfiCond312) R6 load(1, XDATA, add(CFA_XSP16, literal(-16)))
          CFI (cfiCond312) VB load(1, XDATA, add(CFA_XSP16, literal(-15)))
          CFI (cfiCond312) V0 load(1, XDATA, add(CFA_XSP16, literal(-14)))
          CFI (cfiCond312) V1 load(1, XDATA, add(CFA_XSP16, literal(-13)))
          CFI (cfiCond312) V2 load(1, XDATA, add(CFA_XSP16, literal(-12)))
          CFI (cfiCond312) V3 load(1, XDATA, add(CFA_XSP16, literal(-11)))
          CFI (cfiCond312) V4 load(1, XDATA, add(CFA_XSP16, literal(-10)))
          CFI (cfiCond312) V5 load(1, XDATA, add(CFA_XSP16, literal(-9)))
          CFI (cfiCond312) V6 load(1, XDATA, add(CFA_XSP16, literal(-8)))
          CFI (cfiCond312) V7 load(1, XDATA, add(CFA_XSP16, literal(-7)))
          CFI (cfiCond312) R7 load(1, XDATA, add(CFA_XSP16, literal(-6)))
          CFI (cfiCond312) ?RET_LOW load(1, XDATA, add(CFA_XSP16, literal(-5)))
          CFI (cfiCond312) ?RET_HIGH load(1, XDATA, add(CFA_XSP16, literal(-4)))
          CFI (cfiCond312) ?BRET_EXT load(1, XDATA, add(CFA_XSP16, literal(-3)))
          CFI (cfiCond312) DPL0 load(1, XDATA, add(CFA_XSP16, literal(-2)))
          CFI (cfiCond312) DPH0 load(1, XDATA, add(CFA_XSP16, literal(-1)))
          CFI (cfiCond312) CFA_SP SP+-2
          CFI (cfiCond312) CFA_XSP16 add(XSP16, 49)
          CFI Block cfiCond313 Using cfiCommon0
          CFI (cfiCond313) Function AF_DataRequestSrcRtg
          CFI (cfiCond313) Conditional ??CrossCallReturnLabel_145
          CFI (cfiCond313) R6 load(1, XDATA, add(CFA_XSP16, literal(-12)))
          CFI (cfiCond313) VB load(1, XDATA, add(CFA_XSP16, literal(-11)))
          CFI (cfiCond313) V0 load(1, XDATA, add(CFA_XSP16, literal(-10)))
          CFI (cfiCond313) V1 load(1, XDATA, add(CFA_XSP16, literal(-9)))
          CFI (cfiCond313) V2 load(1, XDATA, add(CFA_XSP16, literal(-8)))
          CFI (cfiCond313) V3 load(1, XDATA, add(CFA_XSP16, literal(-7)))
          CFI (cfiCond313) R7 load(1, XDATA, add(CFA_XSP16, literal(-6)))
          CFI (cfiCond313) ?RET_LOW load(1, XDATA, add(CFA_XSP16, literal(-5)))
          CFI (cfiCond313) ?RET_HIGH load(1, XDATA, add(CFA_XSP16, literal(-4)))
          CFI (cfiCond313) ?BRET_EXT load(1, XDATA, add(CFA_XSP16, literal(-3)))
          CFI (cfiCond313) DPL0 load(1, XDATA, add(CFA_XSP16, literal(-2)))
          CFI (cfiCond313) DPH0 load(1, XDATA, add(CFA_XSP16, literal(-1)))
          CFI (cfiCond313) CFA_SP SP+-2
          CFI (cfiCond313) CFA_XSP16 add(XSP16, 12)
          CFI Block cfiCond314 Using cfiCommon0
          CFI (cfiCond314) Function afFindEndPointDescList
          CFI (cfiCond314) Conditional ??CrossCallReturnLabel_146
          CFI (cfiCond314) DPL0 Frame(CFA_SP, 4)
          CFI (cfiCond314) DPH0 Frame(CFA_SP, 5)
          CFI (cfiCond314) CFA_SP SP+-7
          CFI Block cfiCond315 Using cfiCommon0
          CFI (cfiCond315) Function afFindEndPointDesc
          CFI (cfiCond315) Conditional ??CrossCallReturnLabel_147
          CFI (cfiCond315) R6 load(1, XDATA, add(CFA_XSP16, literal(-10)))
          CFI (cfiCond315) VB load(1, XDATA, add(CFA_XSP16, literal(-9)))
          CFI (cfiCond315) V0 load(1, XDATA, add(CFA_XSP16, literal(-8)))
          CFI (cfiCond315) V1 load(1, XDATA, add(CFA_XSP16, literal(-7)))
          CFI (cfiCond315) R7 load(1, XDATA, add(CFA_XSP16, literal(-6)))
          CFI (cfiCond315) ?RET_LOW load(1, XDATA, add(CFA_XSP16, literal(-5)))
          CFI (cfiCond315) ?RET_HIGH load(1, XDATA, add(CFA_XSP16, literal(-4)))
          CFI (cfiCond315) ?BRET_EXT load(1, XDATA, add(CFA_XSP16, literal(-3)))
          CFI (cfiCond315) DPL0 load(1, XDATA, add(CFA_XSP16, literal(-2)))
          CFI (cfiCond315) DPH0 load(1, XDATA, add(CFA_XSP16, literal(-1)))
          CFI (cfiCond315) CFA_SP SP+-2
          CFI (cfiCond315) CFA_XSP16 add(XSP16, 10)
          CFI Block cfiCond316 Using cfiCommon0
          CFI (cfiCond316) Function afNumEndPoints
          CFI (cfiCond316) Conditional ??CrossCallReturnLabel_148
          CFI (cfiCond316) DPL0 Frame(CFA_SP, 4)
          CFI (cfiCond316) DPH0 Frame(CFA_SP, 5)
          CFI (cfiCond316) CFA_SP SP+-7
          CFI Block cfiCond317 Using cfiCommon0
          CFI (cfiCond317) Function afIncomingData
          CFI (cfiCond317) Conditional ??CrossCallReturnLabel_149
          CFI (cfiCond317) R6 load(1, XDATA, add(CFA_XSP16, literal(-15)))
          CFI (cfiCond317) VB load(1, XDATA, add(CFA_XSP16, literal(-14)))
          CFI (cfiCond317) V0 load(1, XDATA, add(CFA_XSP16, literal(-13)))
          CFI (cfiCond317) V1 load(1, XDATA, add(CFA_XSP16, literal(-12)))
          CFI (cfiCond317) V2 load(1, XDATA, add(CFA_XSP16, literal(-11)))
          CFI (cfiCond317) V3 load(1, XDATA, add(CFA_XSP16, literal(-10)))
          CFI (cfiCond317) V4 load(1, XDATA, add(CFA_XSP16, literal(-9)))
          CFI (cfiCond317) V5 load(1, XDATA, add(CFA_XSP16, literal(-8)))
          CFI (cfiCond317) V6 load(1, XDATA, add(CFA_XSP16, literal(-7)))
          CFI (cfiCond317) R7 load(1, XDATA, add(CFA_XSP16, literal(-6)))
          CFI (cfiCond317) ?RET_LOW load(1, XDATA, add(CFA_XSP16, literal(-5)))
          CFI (cfiCond317) ?RET_HIGH load(1, XDATA, add(CFA_XSP16, literal(-4)))
          CFI (cfiCond317) ?BRET_EXT load(1, XDATA, add(CFA_XSP16, literal(-3)))
          CFI (cfiCond317) DPL0 load(1, XDATA, add(CFA_XSP16, literal(-2)))
          CFI (cfiCond317) DPH0 load(1, XDATA, add(CFA_XSP16, literal(-1)))
          CFI (cfiCond317) CFA_SP SP+-2
          CFI (cfiCond317) CFA_XSP16 add(XSP16, 28)
          CFI Block cfiCond318 Using cfiCommon0
          CFI (cfiCond318) Function afIncomingData
          CFI (cfiCond318) Conditional ??CrossCallReturnLabel_150
          CFI (cfiCond318) R6 load(1, XDATA, add(CFA_XSP16, literal(-15)))
          CFI (cfiCond318) VB load(1, XDATA, add(CFA_XSP16, literal(-14)))
          CFI (cfiCond318) V0 load(1, XDATA, add(CFA_XSP16, literal(-13)))
          CFI (cfiCond318) V1 load(1, XDATA, add(CFA_XSP16, literal(-12)))
          CFI (cfiCond318) V2 load(1, XDATA, add(CFA_XSP16, literal(-11)))
          CFI (cfiCond318) V3 load(1, XDATA, add(CFA_XSP16, literal(-10)))
          CFI (cfiCond318) V4 load(1, XDATA, add(CFA_XSP16, literal(-9)))
          CFI (cfiCond318) V5 load(1, XDATA, add(CFA_XSP16, literal(-8)))
          CFI (cfiCond318) V6 load(1, XDATA, add(CFA_XSP16, literal(-7)))
          CFI (cfiCond318) R7 load(1, XDATA, add(CFA_XSP16, literal(-6)))
          CFI (cfiCond318) ?RET_LOW load(1, XDATA, add(CFA_XSP16, literal(-5)))
          CFI (cfiCond318) ?RET_HIGH load(1, XDATA, add(CFA_XSP16, literal(-4)))
          CFI (cfiCond318) ?BRET_EXT load(1, XDATA, add(CFA_XSP16, literal(-3)))
          CFI (cfiCond318) DPL0 load(1, XDATA, add(CFA_XSP16, literal(-2)))
          CFI (cfiCond318) DPH0 load(1, XDATA, add(CFA_XSP16, literal(-1)))
          CFI (cfiCond318) CFA_SP SP+-2
          CFI (cfiCond318) CFA_XSP16 add(XSP16, 28)
          CFI Block cfiPicker319 Using cfiCommon1
          CFI (cfiPicker319) NoFunction
          CFI (cfiPicker319) Picker
        MOVX      A,@DPTR
        MOV       R2,A
        INC       DPTR
        MOVX      A,@DPTR
        MOV       R3,A
        RET
          CFI EndBlock cfiCond306
          CFI EndBlock cfiCond307
          CFI EndBlock cfiCond308
          CFI EndBlock cfiCond309
          CFI EndBlock cfiCond310
          CFI EndBlock cfiCond311
          CFI EndBlock cfiCond312
          CFI EndBlock cfiCond313
          CFI EndBlock cfiCond314
          CFI EndBlock cfiCond315
          CFI EndBlock cfiCond316
          CFI EndBlock cfiCond317
          CFI EndBlock cfiCond318
          CFI EndBlock cfiPicker319

        RSEG BANKED_CODE:HUGECODE:NOROOT(0)
?Subroutine8:
          CFI Block cfiCond320 Using cfiCommon0
          CFI Function afDelete
          CFI Conditional ??CrossCallReturnLabel_2
          CFI R6 load(1, XDATA, add(CFA_XSP16, literal(-9)))
          CFI VB load(1, XDATA, add(CFA_XSP16, literal(-8)))
          CFI V0 load(1, XDATA, add(CFA_XSP16, literal(-7)))
          CFI R7 load(1, XDATA, add(CFA_XSP16, literal(-6)))
          CFI ?RET_LOW load(1, XDATA, add(CFA_XSP16, literal(-5)))
          CFI ?RET_HIGH load(1, XDATA, add(CFA_XSP16, literal(-4)))
          CFI ?BRET_EXT load(1, XDATA, add(CFA_XSP16, literal(-3)))
          CFI DPL0 load(1, XDATA, add(CFA_XSP16, literal(-2)))
          CFI DPH0 load(1, XDATA, add(CFA_XSP16, literal(-1)))
          CFI CFA_SP SP+-2
          CFI CFA_XSP16 add(XSP16, 9)
          CFI Block cfiCond321 Using cfiCommon0
          CFI (cfiCond321) Function afIncomingData
          CFI (cfiCond321) Conditional ??CrossCallReturnLabel_3
          CFI (cfiCond321) R6 load(1, XDATA, add(CFA_XSP16, literal(-15)))
          CFI (cfiCond321) VB load(1, XDATA, add(CFA_XSP16, literal(-14)))
          CFI (cfiCond321) V0 load(1, XDATA, add(CFA_XSP16, literal(-13)))
          CFI (cfiCond321) V1 load(1, XDATA, add(CFA_XSP16, literal(-12)))
          CFI (cfiCond321) V2 load(1, XDATA, add(CFA_XSP16, literal(-11)))
          CFI (cfiCond321) V3 load(1, XDATA, add(CFA_XSP16, literal(-10)))
          CFI (cfiCond321) V4 load(1, XDATA, add(CFA_XSP16, literal(-9)))
          CFI (cfiCond321) V5 load(1, XDATA, add(CFA_XSP16, literal(-8)))
          CFI (cfiCond321) V6 load(1, XDATA, add(CFA_XSP16, literal(-7)))
          CFI (cfiCond321) R7 load(1, XDATA, add(CFA_XSP16, literal(-6)))
          CFI (cfiCond321) ?RET_LOW load(1, XDATA, add(CFA_XSP16, literal(-5)))
          CFI (cfiCond321) ?RET_HIGH load(1, XDATA, add(CFA_XSP16, literal(-4)))
          CFI (cfiCond321) ?BRET_EXT load(1, XDATA, add(CFA_XSP16, literal(-3)))
          CFI (cfiCond321) DPL0 load(1, XDATA, add(CFA_XSP16, literal(-2)))
          CFI (cfiCond321) DPH0 load(1, XDATA, add(CFA_XSP16, literal(-1)))
          CFI (cfiCond321) CFA_SP SP+-2
          CFI (cfiCond321) CFA_XSP16 add(XSP16, 28)
          CFI Block cfiCond322 Using cfiCommon0
          CFI (cfiCond322) Function afIncomingData
          CFI (cfiCond322) Conditional ??CrossCallReturnLabel_4
          CFI (cfiCond322) R6 load(1, XDATA, add(CFA_XSP16, literal(-15)))
          CFI (cfiCond322) VB load(1, XDATA, add(CFA_XSP16, literal(-14)))
          CFI (cfiCond322) V0 load(1, XDATA, add(CFA_XSP16, literal(-13)))
          CFI (cfiCond322) V1 load(1, XDATA, add(CFA_XSP16, literal(-12)))
          CFI (cfiCond322) V2 load(1, XDATA, add(CFA_XSP16, literal(-11)))
          CFI (cfiCond322) V3 load(1, XDATA, add(CFA_XSP16, literal(-10)))
          CFI (cfiCond322) V4 load(1, XDATA, add(CFA_XSP16, literal(-9)))
          CFI (cfiCond322) V5 load(1, XDATA, add(CFA_XSP16, literal(-8)))
          CFI (cfiCond322) V6 load(1, XDATA, add(CFA_XSP16, literal(-7)))
          CFI (cfiCond322) R7 load(1, XDATA, add(CFA_XSP16, literal(-6)))
          CFI (cfiCond322) ?RET_LOW load(1, XDATA, add(CFA_XSP16, literal(-5)))
          CFI (cfiCond322) ?RET_HIGH load(1, XDATA, add(CFA_XSP16, literal(-4)))
          CFI (cfiCond322) ?BRET_EXT load(1, XDATA, add(CFA_XSP16, literal(-3)))
          CFI (cfiCond322) DPL0 load(1, XDATA, add(CFA_XSP16, literal(-2)))
          CFI (cfiCond322) DPH0 load(1, XDATA, add(CFA_XSP16, literal(-1)))
          CFI (cfiCond322) CFA_SP SP+-2
          CFI (cfiCond322) CFA_XSP16 add(XSP16, 28)
          CFI Block cfiCond323 Using cfiCommon0
          CFI (cfiCond323) Function AF_DataRequest
          CFI (cfiCond323) Conditional ??CrossCallReturnLabel_0
          CFI (cfiCond323) R6 load(1, XDATA, add(CFA_XSP16, literal(-16)))
          CFI (cfiCond323) VB load(1, XDATA, add(CFA_XSP16, literal(-15)))
          CFI (cfiCond323) V0 load(1, XDATA, add(CFA_XSP16, literal(-14)))
          CFI (cfiCond323) V1 load(1, XDATA, add(CFA_XSP16, literal(-13)))
          CFI (cfiCond323) V2 load(1, XDATA, add(CFA_XSP16, literal(-12)))
          CFI (cfiCond323) V3 load(1, XDATA, add(CFA_XSP16, literal(-11)))
          CFI (cfiCond323) V4 load(1, XDATA, add(CFA_XSP16, literal(-10)))
          CFI (cfiCond323) V5 load(1, XDATA, add(CFA_XSP16, literal(-9)))
          CFI (cfiCond323) V6 load(1, XDATA, add(CFA_XSP16, literal(-8)))
          CFI (cfiCond323) V7 load(1, XDATA, add(CFA_XSP16, literal(-7)))
          CFI (cfiCond323) R7 load(1, XDATA, add(CFA_XSP16, literal(-6)))
          CFI (cfiCond323) ?RET_LOW load(1, XDATA, add(CFA_XSP16, literal(-5)))
          CFI (cfiCond323) ?RET_HIGH load(1, XDATA, add(CFA_XSP16, literal(-4)))
          CFI (cfiCond323) ?BRET_EXT load(1, XDATA, add(CFA_XSP16, literal(-3)))
          CFI (cfiCond323) DPL0 load(1, XDATA, add(CFA_XSP16, literal(-2)))
          CFI (cfiCond323) DPH0 load(1, XDATA, add(CFA_XSP16, literal(-1)))
          CFI (cfiCond323) CFA_SP SP+-2
          CFI (cfiCond323) CFA_XSP16 add(XSP16, 49)
          CFI Block cfiCond324 Using cfiCommon0
          CFI (cfiCond324) Function AF_DataRequest
          CFI (cfiCond324) Conditional ??CrossCallReturnLabel_5
          CFI (cfiCond324) R6 load(1, XDATA, add(CFA_XSP16, literal(-16)))
          CFI (cfiCond324) VB load(1, XDATA, add(CFA_XSP16, literal(-15)))
          CFI (cfiCond324) V0 load(1, XDATA, add(CFA_XSP16, literal(-14)))
          CFI (cfiCond324) V1 load(1, XDATA, add(CFA_XSP16, literal(-13)))
          CFI (cfiCond324) V2 load(1, XDATA, add(CFA_XSP16, literal(-12)))
          CFI (cfiCond324) V3 load(1, XDATA, add(CFA_XSP16, literal(-11)))
          CFI (cfiCond324) V4 load(1, XDATA, add(CFA_XSP16, literal(-10)))
          CFI (cfiCond324) V5 load(1, XDATA, add(CFA_XSP16, literal(-9)))
          CFI (cfiCond324) V6 load(1, XDATA, add(CFA_XSP16, literal(-8)))
          CFI (cfiCond324) V7 load(1, XDATA, add(CFA_XSP16, literal(-7)))
          CFI (cfiCond324) R7 load(1, XDATA, add(CFA_XSP16, literal(-6)))
          CFI (cfiCond324) ?RET_LOW load(1, XDATA, add(CFA_XSP16, literal(-5)))
          CFI (cfiCond324) ?RET_HIGH load(1, XDATA, add(CFA_XSP16, literal(-4)))
          CFI (cfiCond324) ?BRET_EXT load(1, XDATA, add(CFA_XSP16, literal(-3)))
          CFI (cfiCond324) DPL0 load(1, XDATA, add(CFA_XSP16, literal(-2)))
          CFI (cfiCond324) DPH0 load(1, XDATA, add(CFA_XSP16, literal(-1)))
          CFI (cfiCond324) CFA_SP SP+-2
          CFI (cfiCond324) CFA_XSP16 add(XSP16, 49)
          CFI Block cfiCond325 Using cfiCommon0
          CFI (cfiCond325) Function afEndPoints
          CFI (cfiCond325) Conditional ??CrossCallReturnLabel_1
          CFI (cfiCond325) DPL0 Frame(CFA_SP, 4)
          CFI (cfiCond325) DPH0 Frame(CFA_SP, 5)
          CFI (cfiCond325) CFA_SP SP+-7
          CFI Block cfiPicker326 Using cfiCommon1
          CFI (cfiPicker326) NoFunction
          CFI (cfiPicker326) Picker
        LCALL     ?Subroutine46 & 0xFFFF
??CrossCallReturnLabel_127:
        MOV       A,R0
        ORL       A,R1
        RET
          CFI EndBlock cfiCond320
          CFI EndBlock cfiCond321
          CFI EndBlock cfiCond322
          CFI EndBlock cfiCond323
          CFI EndBlock cfiCond324
          CFI EndBlock cfiCond325
          CFI EndBlock cfiPicker326
//  848 
//  849 #if defined ( ZIGBEEPRO )
//  850 /*********************************************************************
//  851  * @fn      AF_DataRequestSrcRtg
//  852  *
//  853  * @brief   Common functionality for invoking APSDE_DataReq() for both
//  854  *          SendMulti and MSG-Send.
//  855  *
//  856  * input parameters
//  857  *
//  858  * @param  *dstAddr - Full ZB destination address: Nwk Addr + End Point.
//  859  * @param  *srcEP - Origination (i.e. respond to or ack to) End Point Descr.
//  860  * @param   cID - A valid cluster ID as specified by the Profile.
//  861  * @param   len - Number of bytes of data pointed to by next param.
//  862  * @param  *buf - A pointer to the data bytes to send.
//  863  * @param  *transID - A pointer to a byte which can be modified and which will
//  864  *                    be used as the transaction sequence number of the msg.
//  865  * @param   options - Valid bit mask of Tx options.
//  866  * @param   radius - Normally set to AF_DEFAULT_RADIUS.
//  867  * @param   relayCnt - Number of devices in the relay list
//  868  * @param   pRelayList - Pointer to the relay list
//  869  *
//  870  * output parameters
//  871  *
//  872  * @param  *transID - Incremented by one if the return value is success.
//  873  *
//  874  * @return  afStatus_t - See previous definition of afStatus_... types.
//  875  */
//  876 

        RSEG BANKED_CODE:HUGECODE:NOROOT(0)
//  877 afStatus_t AF_DataRequestSrcRtg( afAddrType_t *dstAddr, endPointDesc_t *srcEP,
AF_DataRequestSrcRtg:
          CFI Block cfiBlock327 Using cfiCommon0
          CFI Function AF_DataRequestSrcRtg
        CODE
//  878                            uint16 cID, uint16 len, uint8 *buf, uint8 *transID,
//  879                            uint8 options, uint8 radius, uint8 relayCnt, uint16* pRelayList )
//  880 {
        FUNCALL AF_DataRequestSrcRtg, RTG_AddSrcRtgEntry_Guaranteed
        LOCFRAME ISTACK, 0, STACK
        LOCFRAME PSTACK, 0, STACK
        LOCFRAME XSTACK, 12, STACK
        LOCFRAME IOVERLAY, 0, STATIC
        LOCFRAME DOVERLAY, 0, STATIC
        ARGFRAME ISTACK, 0, STACK
        ARGFRAME PSTACK, 0, STACK
        ARGFRAME XSTACK, 12, STACK
        ARGFRAME IOVERLAY, 0, STATIC
        ARGFRAME DOVERLAY, 0, STATIC
        FUNCALL AF_DataRequestSrcRtg, AF_DataRequest
        LOCFRAME ISTACK, 0, STACK
        LOCFRAME PSTACK, 0, STACK
        LOCFRAME XSTACK, 21, STACK
        LOCFRAME IOVERLAY, 0, STATIC
        LOCFRAME DOVERLAY, 0, STATIC
        ARGFRAME ISTACK, 0, STACK
        ARGFRAME PSTACK, 0, STACK
        ARGFRAME XSTACK, 21, STACK
        ARGFRAME IOVERLAY, 0, STATIC
        ARGFRAME DOVERLAY, 0, STATIC
        REQUIRE ?V0
        REQUIRE ?V1
        REQUIRE ?V2
        REQUIRE ?V3
        MOV       A,#-0xc
        LCALL     ?BANKED_ENTER_XDATA
          CFI DPH0 load(1, XDATA, add(CFA_XSP16, literal(-1)))
          CFI DPL0 load(1, XDATA, add(CFA_XSP16, literal(-2)))
          CFI ?BRET_EXT load(1, XDATA, add(CFA_XSP16, literal(-3)))
          CFI ?RET_HIGH load(1, XDATA, add(CFA_XSP16, literal(-4)))
          CFI ?RET_LOW load(1, XDATA, add(CFA_XSP16, literal(-5)))
          CFI R7 load(1, XDATA, add(CFA_XSP16, literal(-6)))
          CFI V3 load(1, XDATA, add(CFA_XSP16, literal(-7)))
          CFI V2 load(1, XDATA, add(CFA_XSP16, literal(-8)))
          CFI V1 load(1, XDATA, add(CFA_XSP16, literal(-9)))
          CFI V0 load(1, XDATA, add(CFA_XSP16, literal(-10)))
          CFI VB load(1, XDATA, add(CFA_XSP16, literal(-11)))
          CFI R6 load(1, XDATA, add(CFA_XSP16, literal(-12)))
          CFI CFA_SP SP+0
          CFI CFA_XSP16 add(XSP16, 12)
        ; Saved register size: 12
        ; Auto size: 0
        MOV       A,R2
        MOV       R6,A
        MOV       A,R3
        MOV       R7,A
        MOV       ?V2,R4
        MOV       ?V3,R5
        MOV       ?V0,R1
//  881   uint8 status;
//  882 
//  883   /* Add the source route to the source routing table */
//  884   status = RTG_AddSrcRtgEntry_Guaranteed( dstAddr->addr.shortAddr, relayCnt,
//  885                                          pRelayList );
        ; Setup parameters for call to function RTG_AddSrcRtgEntry_Guaranteed
        MOV       A,#0x16
        LCALL     ?XSTACK_DISP0_8
        LCALL     ?Subroutine43 & 0xFFFF
??CrossCallReturnLabel_77:
        MOV       A,#0x15
        LCALL     ?XSTACK_DISP0_8
        LCALL     ??Subroutine58_0 & 0xFFFF
??CrossCallReturnLabel_131:
        LCALL     ??Subroutine61_0 & 0xFFFF
??CrossCallReturnLabel_145:
        LCALL     `??RTG_AddSrcRtgEntry_Guaranteed::?relay`; Banked call to: RTG_AddSrcRtgEntry_Guaranteed
        MOV       A,R1
        MOV       R1,A
//  886 
//  887   if( status == RTG_SUCCESS)
        JNZ       ??AF_DataRequestSrcRtg_0
//  888   {
//  889     /* Call AF_DataRequest to send the data */
//  890     status = AF_DataRequest( dstAddr, srcEP, cID, len, buf, transID, options, radius );
        ; Setup parameters for call to function AF_DataRequest
        MOV       A,#0x14
        LCALL     ?XSTACK_DISP0_8
        MOVX      A,@DPTR
        MOV       ?V1,A
        MOV       R0,#?V1
        LCALL     ?PUSH_XSTACK_I_ONE
          CFI CFA_XSP16 add(XSP16, 13)
        MOV       A,#0x13
        LCALL     ?XSTACK_DISP0_8
        LCALL     ?PUSH_XSTACK8_X_TWO
          CFI CFA_XSP16 add(XSP16, 15)
        MOV       A,#0x13
        LCALL     ?XSTACK_DISP0_8
        LCALL     ?PUSH_XSTACK8_X_TWO
          CFI CFA_XSP16 add(XSP16, 17)
        MOV       A,#0x13
        LCALL     ?XSTACK_DISP0_8
        LCALL     ?PUSH_XSTACK8_X_TWO
          CFI CFA_XSP16 add(XSP16, 19)
        MOV       A,#0x13
        LCALL     ?XSTACK_DISP0_8
        LCALL     ?PUSH_XSTACK8_X_TWO
          CFI CFA_XSP16 add(XSP16, 21)
        MOV       R1,?V0
        MOV       R4,?V2
        MOV       R5,?V3
        MOV       A,R6
        MOV       R2,A
        MOV       A,R7
        MOV       R3,A
        LCALL     `??AF_DataRequest::?relay`; Banked call to: AF_DataRequest
        MOV       A,#0x9
        LCALL     ?DEALLOC_XSTACK8
          CFI CFA_XSP16 add(XSP16, 12)
        MOV       A,R1
        MOV       R1,A
        SJMP      ??AF_DataRequestSrcRtg_1
//  891   }
//  892   else if( status == RTG_INVALID_PATH )
??AF_DataRequestSrcRtg_0:
        MOV       A,#0x5
        XRL       A,R1
        JNZ       ??AF_DataRequestSrcRtg_2
//  893   {
//  894     /* The source route relay count is exceeding the network limit */
//  895     status = afStatus_INVALID_PARAMETER;
        MOV       R1,#0x2
        SJMP      ??AF_DataRequestSrcRtg_1
//  896   }
//  897   else
//  898   {
//  899     /* The guaranteed adding entry fails due to memory failure */
//  900     status = afStatus_MEM_FAIL;
??AF_DataRequestSrcRtg_2:
        MOV       R1,#0x10
//  901   }
//  902   return status;
??AF_DataRequestSrcRtg_1:
        LJMP      ?Subroutine5 & 0xFFFF
//  903 }
          CFI EndBlock cfiBlock327
//  904 
//  905 #endif // ZIGBEEPRO
//  906 
//  907 /*********************************************************************
//  908  * @fn      afFindEndPointDescList
//  909  *
//  910  * @brief   Find the endpoint description entry from the endpoint
//  911  *          number.
//  912  *
//  913  * @param   EndPoint - Application Endpoint to look for
//  914  *
//  915  * @return  the address to the endpoint/interface description entry
//  916  */

        RSEG BANKED_CODE:HUGECODE:NOROOT(0)
//  917 static epList_t *afFindEndPointDescList( uint8 EndPoint )
afFindEndPointDescList:
          CFI Block cfiBlock328 Using cfiCommon0
          CFI Function afFindEndPointDescList
        CODE
//  918 {
        PUSH      DPL
          CFI DPL0 Frame(CFA_SP, 4)
          CFI CFA_SP SP+-4
        PUSH      DPH
          CFI DPH0 Frame(CFA_SP, 5)
          CFI CFA_SP SP+-5
        ; Saved register size: 2
        ; Auto size: 0
//  919   epList_t *epSearch;
//  920 
//  921   for (epSearch = epList; epSearch != NULL; epSearch = epSearch->nextDesc)
        MOV       DPTR,#epList
        SJMP      ??afFindEndPointDescList_0
??afFindEndPointDescList_1:
        MOV       DPL,R2
        MOV       DPH,R3
??afFindEndPointDescList_0:
        LCALL     ??Subroutine61_0 & 0xFFFF
??CrossCallReturnLabel_146:
        MOV       A,R2
        ORL       A,R3
        JZ        ??afFindEndPointDescList_2
//  922   {
//  923     if (epSearch->epDesc->endPoint == EndPoint)
        MOV       DPL,R2
        MOV       DPH,R3
        INC       DPTR
        INC       DPTR
        LCALL     ?Subroutine18 & 0xFFFF
//  924     {
//  925       break;
//  926     }
//  927   }
??CrossCallReturnLabel_31:
        XRL       A,R1
        JNZ       ??afFindEndPointDescList_1
//  928 
//  929   return epSearch;
??afFindEndPointDescList_2:
          CFI EndBlock cfiBlock328
        REQUIRE ?Subroutine6
        ; // Fall through to label ?Subroutine6
//  930 }

        RSEG BANKED_CODE:HUGECODE:NOROOT(0)
?Subroutine6:
          CFI Block cfiBlock329 Using cfiCommon0
          CFI NoFunction
          CFI CFA_SP SP+-5
          CFI DPL0 Frame(CFA_SP, 4)
          CFI DPH0 Frame(CFA_SP, 5)
        POP       DPH
          CFI CFA_SP SP+-4
          CFI DPH0 SameValue
        POP       DPL
          CFI CFA_SP SP+-3
          CFI DPL0 SameValue
        LJMP      ?BRET
          CFI EndBlock cfiBlock329
//  931 
//  932 /*********************************************************************
//  933  * @fn      afFindEndPointDesc
//  934  *
//  935  * @brief   Find the endpoint description entry from the endpoint
//  936  *          number.
//  937  *
//  938  * @param   EndPoint - Application Endpoint to look for
//  939  *
//  940  * @return  the address to the endpoint/interface description entry
//  941  */

        RSEG BANKED_CODE:HUGECODE:NOROOT(0)
//  942 endPointDesc_t *afFindEndPointDesc( uint8 EndPoint )
afFindEndPointDesc:
          CFI Block cfiBlock330 Using cfiCommon0
          CFI Function afFindEndPointDesc
        CODE
//  943 {
        FUNCALL afFindEndPointDesc, afFindEndPointDescList
        LOCFRAME ISTACK, 0, STACK
        LOCFRAME PSTACK, 0, STACK
        LOCFRAME XSTACK, 10, STACK
        LOCFRAME IOVERLAY, 0, STATIC
        LOCFRAME DOVERLAY, 0, STATIC
        ARGFRAME ISTACK, 0, STACK
        ARGFRAME PSTACK, 0, STACK
        ARGFRAME XSTACK, 10, STACK
        ARGFRAME IOVERLAY, 0, STATIC
        ARGFRAME DOVERLAY, 0, STATIC
        REQUIRE ?V0
        REQUIRE ?V1
        MOV       A,#-0xa
        LCALL     ?BANKED_ENTER_XDATA
          CFI DPH0 load(1, XDATA, add(CFA_XSP16, literal(-1)))
          CFI DPL0 load(1, XDATA, add(CFA_XSP16, literal(-2)))
          CFI ?BRET_EXT load(1, XDATA, add(CFA_XSP16, literal(-3)))
          CFI ?RET_HIGH load(1, XDATA, add(CFA_XSP16, literal(-4)))
          CFI ?RET_LOW load(1, XDATA, add(CFA_XSP16, literal(-5)))
          CFI R7 load(1, XDATA, add(CFA_XSP16, literal(-6)))
          CFI V1 load(1, XDATA, add(CFA_XSP16, literal(-7)))
          CFI V0 load(1, XDATA, add(CFA_XSP16, literal(-8)))
          CFI VB load(1, XDATA, add(CFA_XSP16, literal(-9)))
          CFI R6 load(1, XDATA, add(CFA_XSP16, literal(-10)))
          CFI CFA_SP SP+0
          CFI CFA_XSP16 add(XSP16, 10)
        ; Saved register size: 10
        ; Auto size: 0
//  944   epList_t *epSearch;
//  945 
//  946   // Look for the endpoint
//  947   epSearch = afFindEndPointDescList( EndPoint );
        ; Setup parameters for call to function afFindEndPointDescList
        LCALL     `??afFindEndPointDescList::?relay`; Banked call to: afFindEndPointDescList
        MOV       DPL,R2
        MOV       DPH,R3
//  948 
//  949   if ( epSearch )
        MOV       A,DPL
        ORL       A,DPH
        JZ        ??afFindEndPointDesc_0
//  950     return ( epSearch->epDesc );
        INC       DPTR
        INC       DPTR
        LCALL     ??Subroutine61_0 & 0xFFFF
??CrossCallReturnLabel_147:
        SJMP      ??afFindEndPointDesc_1
//  951   else
//  952     return ( (endPointDesc_t *)NULL );
??afFindEndPointDesc_0:
        MOV       R2,#0x0
        MOV       R3,#0x0
??afFindEndPointDesc_1:
        LJMP      ?Subroutine1 & 0xFFFF
//  953 }
          CFI EndBlock cfiBlock330
//  954 
//  955 /*********************************************************************
//  956  * @fn      afFindSimpleDesc
//  957  *
//  958  * @brief   Find the Simple Descriptor from the endpoint number.
//  959  *
//  960  * @param   EP - Application Endpoint to look for.
//  961  *
//  962  * @return  Non-zero to indicate that the descriptor memory must be freed.
//  963  */

        RSEG BANKED_CODE:HUGECODE:NOROOT(0)
//  964 uint8 afFindSimpleDesc( SimpleDescriptionFormat_t **ppDesc, uint8 EP )
afFindSimpleDesc:
          CFI Block cfiBlock331 Using cfiCommon0
          CFI Function afFindSimpleDesc
        CODE
//  965 {
        FUNCALL afFindSimpleDesc, afFindEndPointDescList
        LOCFRAME ISTACK, 0, STACK
        LOCFRAME PSTACK, 0, STACK
        LOCFRAME XSTACK, 12, STACK
        LOCFRAME IOVERLAY, 0, STATIC
        LOCFRAME DOVERLAY, 0, STATIC
        ARGFRAME ISTACK, 0, STACK
        ARGFRAME PSTACK, 0, STACK
        ARGFRAME XSTACK, 12, STACK
        ARGFRAME IOVERLAY, 0, STATIC
        ARGFRAME DOVERLAY, 0, STATIC
        REQUIRE ?V0
        REQUIRE ?V2
        REQUIRE ?V3
        MOV       A,#-0xc
        LCALL     ?BANKED_ENTER_XDATA
          CFI DPH0 load(1, XDATA, add(CFA_XSP16, literal(-1)))
          CFI DPL0 load(1, XDATA, add(CFA_XSP16, literal(-2)))
          CFI ?BRET_EXT load(1, XDATA, add(CFA_XSP16, literal(-3)))
          CFI ?RET_HIGH load(1, XDATA, add(CFA_XSP16, literal(-4)))
          CFI ?RET_LOW load(1, XDATA, add(CFA_XSP16, literal(-5)))
          CFI R7 load(1, XDATA, add(CFA_XSP16, literal(-6)))
          CFI V3 load(1, XDATA, add(CFA_XSP16, literal(-7)))
          CFI V2 load(1, XDATA, add(CFA_XSP16, literal(-8)))
          CFI V1 load(1, XDATA, add(CFA_XSP16, literal(-9)))
          CFI V0 load(1, XDATA, add(CFA_XSP16, literal(-10)))
          CFI VB load(1, XDATA, add(CFA_XSP16, literal(-11)))
          CFI R6 load(1, XDATA, add(CFA_XSP16, literal(-12)))
          CFI CFA_SP SP+0
          CFI CFA_XSP16 add(XSP16, 12)
        ; Saved register size: 12
        ; Auto size: 0
        MOV       A,R2
        MOV       R6,A
        MOV       A,R3
        MOV       R7,A
        MOV       ?V0,R1
//  966   epList_t *epItem = afFindEndPointDescList( EP );
        ; Setup parameters for call to function afFindEndPointDescList
        LCALL     `??afFindEndPointDescList::?relay`; Banked call to: afFindEndPointDescList
        MOV       ?V2,R2
        MOV       ?V3,R3
        MOV       R4,?V2
        MOV       R5,?V3
//  967   uint8 rtrn = FALSE;
        MOV       R2,#0x0
//  968 
//  969   if ( epItem )
        MOV       A,R4
        ORL       A,R5
        JZ        ??afFindSimpleDesc_0
//  970   {
//  971     if ( epItem->pfnDescCB )
        MOV       DPL,R4
        MOV       DPH,R5
        LCALL     ?Subroutine9 & 0xFFFF
??CrossCallReturnLabel_8:
        JZ        ??afFindSimpleDesc_1
//  972     {
//  973       *ppDesc = epItem->pfnDescCB( AF_DESCRIPTOR_SIMPLE, EP );
        ; Setup parameters for indirect call
        MOV       R2,?V0
        MOV       R1,#0x1
        LCALL     ?CALL_IND
        MOV       DPL,R6
        MOV       DPH,R7
        MOV       A,R2
        MOVX      @DPTR,A
        INC       DPTR
        MOV       A,R3
        MOVX      @DPTR,A
//  974       rtrn = TRUE;
        MOV       R2,#0x1
        SJMP      ??afFindSimpleDesc_2
//  975     }
//  976     else
//  977     {
//  978       *ppDesc = epItem->epDesc->simpleDesc;
??afFindSimpleDesc_1:
        MOV       DPL,R4
        MOV       DPH,R5
        INC       DPTR
        INC       DPTR
        LCALL     ?Subroutine13 & 0xFFFF
//  979     }
//  980   }
??CrossCallReturnLabel_14:
        MOV       DPL,R6
        MOV       DPH,R7
        MOV       A,R0
        MOVX      @DPTR,A
        INC       DPTR
        MOV       A,R1
        SJMP      ??afFindSimpleDesc_3
//  981   else
//  982   {
//  983     *ppDesc = NULL;
??afFindSimpleDesc_0:
        MOV       DPL,R6
        MOV       DPH,R7
        CLR       A
        MOVX      @DPTR,A
        INC       DPTR
??afFindSimpleDesc_3:
        MOVX      @DPTR,A
//  984   }
//  985 
//  986   return rtrn;
??afFindSimpleDesc_2:
        MOV       A,R2
        MOV       R1,A
        LJMP      ?Subroutine5 & 0xFFFF
//  987 }
          CFI EndBlock cfiBlock331

        RSEG BANKED_CODE:HUGECODE:NOROOT(0)
?Subroutine13:
          CFI Block cfiCond332 Using cfiCommon0
          CFI Function afIncomingData
          CFI Conditional ??CrossCallReturnLabel_13
          CFI R6 load(1, XDATA, add(CFA_XSP16, literal(-15)))
          CFI VB load(1, XDATA, add(CFA_XSP16, literal(-14)))
          CFI V0 load(1, XDATA, add(CFA_XSP16, literal(-13)))
          CFI V1 load(1, XDATA, add(CFA_XSP16, literal(-12)))
          CFI V2 load(1, XDATA, add(CFA_XSP16, literal(-11)))
          CFI V3 load(1, XDATA, add(CFA_XSP16, literal(-10)))
          CFI V4 load(1, XDATA, add(CFA_XSP16, literal(-9)))
          CFI V5 load(1, XDATA, add(CFA_XSP16, literal(-8)))
          CFI V6 load(1, XDATA, add(CFA_XSP16, literal(-7)))
          CFI R7 load(1, XDATA, add(CFA_XSP16, literal(-6)))
          CFI ?RET_LOW load(1, XDATA, add(CFA_XSP16, literal(-5)))
          CFI ?RET_HIGH load(1, XDATA, add(CFA_XSP16, literal(-4)))
          CFI ?BRET_EXT load(1, XDATA, add(CFA_XSP16, literal(-3)))
          CFI DPL0 load(1, XDATA, add(CFA_XSP16, literal(-2)))
          CFI DPH0 load(1, XDATA, add(CFA_XSP16, literal(-1)))
          CFI CFA_SP SP+-2
          CFI CFA_XSP16 add(XSP16, 28)
          CFI Block cfiCond333 Using cfiCommon0
          CFI (cfiCond333) Function afFindSimpleDesc
          CFI (cfiCond333) Conditional ??CrossCallReturnLabel_14
          CFI (cfiCond333) R6 load(1, XDATA, add(CFA_XSP16, literal(-12)))
          CFI (cfiCond333) VB load(1, XDATA, add(CFA_XSP16, literal(-11)))
          CFI (cfiCond333) V0 load(1, XDATA, add(CFA_XSP16, literal(-10)))
          CFI (cfiCond333) V1 load(1, XDATA, add(CFA_XSP16, literal(-9)))
          CFI (cfiCond333) V2 load(1, XDATA, add(CFA_XSP16, literal(-8)))
          CFI (cfiCond333) V3 load(1, XDATA, add(CFA_XSP16, literal(-7)))
          CFI (cfiCond333) R7 load(1, XDATA, add(CFA_XSP16, literal(-6)))
          CFI (cfiCond333) ?RET_LOW load(1, XDATA, add(CFA_XSP16, literal(-5)))
          CFI (cfiCond333) ?RET_HIGH load(1, XDATA, add(CFA_XSP16, literal(-4)))
          CFI (cfiCond333) ?BRET_EXT load(1, XDATA, add(CFA_XSP16, literal(-3)))
          CFI (cfiCond333) DPL0 load(1, XDATA, add(CFA_XSP16, literal(-2)))
          CFI (cfiCond333) DPH0 load(1, XDATA, add(CFA_XSP16, literal(-1)))
          CFI (cfiCond333) CFA_SP SP+-2
          CFI (cfiCond333) CFA_XSP16 add(XSP16, 12)
          CFI Block cfiPicker334 Using cfiCommon1
          CFI (cfiPicker334) NoFunction
          CFI (cfiPicker334) Picker
        LCALL     ?Subroutine44 & 0xFFFF
??CrossCallReturnLabel_100:
        INC       DPTR
        INC       DPTR
        INC       DPTR
        LCALL     ?Subroutine46 & 0xFFFF
??CrossCallReturnLabel_128:
        RET
          CFI EndBlock cfiCond332
          CFI EndBlock cfiCond333
          CFI EndBlock cfiPicker334

        RSEG BANKED_CODE:HUGECODE:NOROOT(0)
?Subroutine46:
          CFI Block cfiCond335 Using cfiCommon0
          CFI Function afBuildMSGIncoming
          CFI Conditional ??CrossCallReturnLabel_130, ??CrossCallReturnLabel_125
          CFI R6 load(1, XDATA, add(CFA_XSP16, literal(-16)))
          CFI VB load(1, XDATA, add(CFA_XSP16, literal(-15)))
          CFI V0 load(1, XDATA, add(CFA_XSP16, literal(-14)))
          CFI V1 load(1, XDATA, add(CFA_XSP16, literal(-13)))
          CFI V2 load(1, XDATA, add(CFA_XSP16, literal(-12)))
          CFI V3 load(1, XDATA, add(CFA_XSP16, literal(-11)))
          CFI V4 load(1, XDATA, add(CFA_XSP16, literal(-10)))
          CFI V5 load(1, XDATA, add(CFA_XSP16, literal(-9)))
          CFI V6 load(1, XDATA, add(CFA_XSP16, literal(-8)))
          CFI V7 load(1, XDATA, add(CFA_XSP16, literal(-7)))
          CFI R7 load(1, XDATA, add(CFA_XSP16, literal(-6)))
          CFI ?RET_LOW load(1, XDATA, add(CFA_XSP16, literal(-5)))
          CFI ?RET_HIGH load(1, XDATA, add(CFA_XSP16, literal(-4)))
          CFI ?BRET_EXT load(1, XDATA, add(CFA_XSP16, literal(-3)))
          CFI DPL0 load(1, XDATA, add(CFA_XSP16, literal(-2)))
          CFI DPH0 load(1, XDATA, add(CFA_XSP16, literal(-1)))
          CFI CFA_SP SP+-4
          CFI CFA_XSP16 add(XSP16, 19)
          CFI Block cfiCond336 Using cfiCommon0
          CFI (cfiCond336) Function AF_DataRequest
          CFI (cfiCond336) Conditional ??CrossCallReturnLabel_130, ??CrossCallReturnLabel_126
          CFI (cfiCond336) R6 load(1, XDATA, add(CFA_XSP16, literal(-16)))
          CFI (cfiCond336) VB load(1, XDATA, add(CFA_XSP16, literal(-15)))
          CFI (cfiCond336) V0 load(1, XDATA, add(CFA_XSP16, literal(-14)))
          CFI (cfiCond336) V1 load(1, XDATA, add(CFA_XSP16, literal(-13)))
          CFI (cfiCond336) V2 load(1, XDATA, add(CFA_XSP16, literal(-12)))
          CFI (cfiCond336) V3 load(1, XDATA, add(CFA_XSP16, literal(-11)))
          CFI (cfiCond336) V4 load(1, XDATA, add(CFA_XSP16, literal(-10)))
          CFI (cfiCond336) V5 load(1, XDATA, add(CFA_XSP16, literal(-9)))
          CFI (cfiCond336) V6 load(1, XDATA, add(CFA_XSP16, literal(-8)))
          CFI (cfiCond336) V7 load(1, XDATA, add(CFA_XSP16, literal(-7)))
          CFI (cfiCond336) R7 load(1, XDATA, add(CFA_XSP16, literal(-6)))
          CFI (cfiCond336) ?RET_LOW load(1, XDATA, add(CFA_XSP16, literal(-5)))
          CFI (cfiCond336) ?RET_HIGH load(1, XDATA, add(CFA_XSP16, literal(-4)))
          CFI (cfiCond336) ?BRET_EXT load(1, XDATA, add(CFA_XSP16, literal(-3)))
          CFI (cfiCond336) DPL0 load(1, XDATA, add(CFA_XSP16, literal(-2)))
          CFI (cfiCond336) DPH0 load(1, XDATA, add(CFA_XSP16, literal(-1)))
          CFI (cfiCond336) CFA_SP SP+-4
          CFI (cfiCond336) CFA_XSP16 add(XSP16, 49)
          CFI Block cfiCond337 Using cfiCommon0
          CFI (cfiCond337) Function AF_DataRequest
          CFI (cfiCond337) Conditional ??CrossCallReturnLabel_130, ??CrossCallReturnLabel_124
          CFI (cfiCond337) R6 load(1, XDATA, add(CFA_XSP16, literal(-16)))
          CFI (cfiCond337) VB load(1, XDATA, add(CFA_XSP16, literal(-15)))
          CFI (cfiCond337) V0 load(1, XDATA, add(CFA_XSP16, literal(-14)))
          CFI (cfiCond337) V1 load(1, XDATA, add(CFA_XSP16, literal(-13)))
          CFI (cfiCond337) V2 load(1, XDATA, add(CFA_XSP16, literal(-12)))
          CFI (cfiCond337) V3 load(1, XDATA, add(CFA_XSP16, literal(-11)))
          CFI (cfiCond337) V4 load(1, XDATA, add(CFA_XSP16, literal(-10)))
          CFI (cfiCond337) V5 load(1, XDATA, add(CFA_XSP16, literal(-9)))
          CFI (cfiCond337) V6 load(1, XDATA, add(CFA_XSP16, literal(-8)))
          CFI (cfiCond337) V7 load(1, XDATA, add(CFA_XSP16, literal(-7)))
          CFI (cfiCond337) R7 load(1, XDATA, add(CFA_XSP16, literal(-6)))
          CFI (cfiCond337) ?RET_LOW load(1, XDATA, add(CFA_XSP16, literal(-5)))
          CFI (cfiCond337) ?RET_HIGH load(1, XDATA, add(CFA_XSP16, literal(-4)))
          CFI (cfiCond337) ?BRET_EXT load(1, XDATA, add(CFA_XSP16, literal(-3)))
          CFI (cfiCond337) DPL0 load(1, XDATA, add(CFA_XSP16, literal(-2)))
          CFI (cfiCond337) DPH0 load(1, XDATA, add(CFA_XSP16, literal(-1)))
          CFI (cfiCond337) CFA_SP SP+-4
          CFI (cfiCond337) CFA_XSP16 add(XSP16, 49)
          CFI Block cfiCond338 Using cfiCommon0
          CFI (cfiCond338) Function afRegisterExtended
          CFI (cfiCond338) Conditional ??CrossCallReturnLabel_130, ??CrossCallReturnLabel_117
          CFI (cfiCond338) R6 load(1, XDATA, add(CFA_XSP16, literal(-14)))
          CFI (cfiCond338) VB load(1, XDATA, add(CFA_XSP16, literal(-13)))
          CFI (cfiCond338) V0 load(1, XDATA, add(CFA_XSP16, literal(-12)))
          CFI (cfiCond338) V1 load(1, XDATA, add(CFA_XSP16, literal(-11)))
          CFI (cfiCond338) V2 load(1, XDATA, add(CFA_XSP16, literal(-10)))
          CFI (cfiCond338) V3 load(1, XDATA, add(CFA_XSP16, literal(-9)))
          CFI (cfiCond338) V4 load(1, XDATA, add(CFA_XSP16, literal(-8)))
          CFI (cfiCond338) V5 load(1, XDATA, add(CFA_XSP16, literal(-7)))
          CFI (cfiCond338) R7 load(1, XDATA, add(CFA_XSP16, literal(-6)))
          CFI (cfiCond338) ?RET_LOW load(1, XDATA, add(CFA_XSP16, literal(-5)))
          CFI (cfiCond338) ?RET_HIGH load(1, XDATA, add(CFA_XSP16, literal(-4)))
          CFI (cfiCond338) ?BRET_EXT load(1, XDATA, add(CFA_XSP16, literal(-3)))
          CFI (cfiCond338) DPL0 load(1, XDATA, add(CFA_XSP16, literal(-2)))
          CFI (cfiCond338) DPH0 load(1, XDATA, add(CFA_XSP16, literal(-1)))
          CFI (cfiCond338) CFA_SP SP+-4
          CFI (cfiCond338) CFA_XSP16 add(XSP16, 14)
          CFI Block cfiCond339 Using cfiCommon0
          CFI (cfiCond339) Function afIncomingData
          CFI (cfiCond339) Conditional ??CrossCallReturnLabel_130, ??CrossCallReturnLabel_118
          CFI (cfiCond339) R6 load(1, XDATA, add(CFA_XSP16, literal(-15)))
          CFI (cfiCond339) VB load(1, XDATA, add(CFA_XSP16, literal(-14)))
          CFI (cfiCond339) V0 load(1, XDATA, add(CFA_XSP16, literal(-13)))
          CFI (cfiCond339) V1 load(1, XDATA, add(CFA_XSP16, literal(-12)))
          CFI (cfiCond339) V2 load(1, XDATA, add(CFA_XSP16, literal(-11)))
          CFI (cfiCond339) V3 load(1, XDATA, add(CFA_XSP16, literal(-10)))
          CFI (cfiCond339) V4 load(1, XDATA, add(CFA_XSP16, literal(-9)))
          CFI (cfiCond339) V5 load(1, XDATA, add(CFA_XSP16, literal(-8)))
          CFI (cfiCond339) V6 load(1, XDATA, add(CFA_XSP16, literal(-7)))
          CFI (cfiCond339) R7 load(1, XDATA, add(CFA_XSP16, literal(-6)))
          CFI (cfiCond339) ?RET_LOW load(1, XDATA, add(CFA_XSP16, literal(-5)))
          CFI (cfiCond339) ?RET_HIGH load(1, XDATA, add(CFA_XSP16, literal(-4)))
          CFI (cfiCond339) ?BRET_EXT load(1, XDATA, add(CFA_XSP16, literal(-3)))
          CFI (cfiCond339) DPL0 load(1, XDATA, add(CFA_XSP16, literal(-2)))
          CFI (cfiCond339) DPH0 load(1, XDATA, add(CFA_XSP16, literal(-1)))
          CFI (cfiCond339) CFA_SP SP+-4
          CFI (cfiCond339) CFA_XSP16 add(XSP16, 28)
          CFI Block cfiCond340 Using cfiCommon0
          CFI (cfiCond340) Function afBuildMSGIncoming
          CFI (cfiCond340) Conditional ??CrossCallReturnLabel_130, ??CrossCallReturnLabel_119
          CFI (cfiCond340) R6 load(1, XDATA, add(CFA_XSP16, literal(-16)))
          CFI (cfiCond340) VB load(1, XDATA, add(CFA_XSP16, literal(-15)))
          CFI (cfiCond340) V0 load(1, XDATA, add(CFA_XSP16, literal(-14)))
          CFI (cfiCond340) V1 load(1, XDATA, add(CFA_XSP16, literal(-13)))
          CFI (cfiCond340) V2 load(1, XDATA, add(CFA_XSP16, literal(-12)))
          CFI (cfiCond340) V3 load(1, XDATA, add(CFA_XSP16, literal(-11)))
          CFI (cfiCond340) V4 load(1, XDATA, add(CFA_XSP16, literal(-10)))
          CFI (cfiCond340) V5 load(1, XDATA, add(CFA_XSP16, literal(-9)))
          CFI (cfiCond340) V6 load(1, XDATA, add(CFA_XSP16, literal(-8)))
          CFI (cfiCond340) V7 load(1, XDATA, add(CFA_XSP16, literal(-7)))
          CFI (cfiCond340) R7 load(1, XDATA, add(CFA_XSP16, literal(-6)))
          CFI (cfiCond340) ?RET_LOW load(1, XDATA, add(CFA_XSP16, literal(-5)))
          CFI (cfiCond340) ?RET_HIGH load(1, XDATA, add(CFA_XSP16, literal(-4)))
          CFI (cfiCond340) ?BRET_EXT load(1, XDATA, add(CFA_XSP16, literal(-3)))
          CFI (cfiCond340) DPL0 load(1, XDATA, add(CFA_XSP16, literal(-2)))
          CFI (cfiCond340) DPH0 load(1, XDATA, add(CFA_XSP16, literal(-1)))
          CFI (cfiCond340) CFA_SP SP+-4
          CFI (cfiCond340) CFA_XSP16 add(XSP16, 19)
          CFI Block cfiCond341 Using cfiCommon0
          CFI (cfiCond341) Function AF_DataRequest
          CFI (cfiCond341) Conditional ??CrossCallReturnLabel_130, ??CrossCallReturnLabel_120
          CFI (cfiCond341) R6 load(1, XDATA, add(CFA_XSP16, literal(-16)))
          CFI (cfiCond341) VB load(1, XDATA, add(CFA_XSP16, literal(-15)))
          CFI (cfiCond341) V0 load(1, XDATA, add(CFA_XSP16, literal(-14)))
          CFI (cfiCond341) V1 load(1, XDATA, add(CFA_XSP16, literal(-13)))
          CFI (cfiCond341) V2 load(1, XDATA, add(CFA_XSP16, literal(-12)))
          CFI (cfiCond341) V3 load(1, XDATA, add(CFA_XSP16, literal(-11)))
          CFI (cfiCond341) V4 load(1, XDATA, add(CFA_XSP16, literal(-10)))
          CFI (cfiCond341) V5 load(1, XDATA, add(CFA_XSP16, literal(-9)))
          CFI (cfiCond341) V6 load(1, XDATA, add(CFA_XSP16, literal(-8)))
          CFI (cfiCond341) V7 load(1, XDATA, add(CFA_XSP16, literal(-7)))
          CFI (cfiCond341) R7 load(1, XDATA, add(CFA_XSP16, literal(-6)))
          CFI (cfiCond341) ?RET_LOW load(1, XDATA, add(CFA_XSP16, literal(-5)))
          CFI (cfiCond341) ?RET_HIGH load(1, XDATA, add(CFA_XSP16, literal(-4)))
          CFI (cfiCond341) ?BRET_EXT load(1, XDATA, add(CFA_XSP16, literal(-3)))
          CFI (cfiCond341) DPL0 load(1, XDATA, add(CFA_XSP16, literal(-2)))
          CFI (cfiCond341) DPH0 load(1, XDATA, add(CFA_XSP16, literal(-1)))
          CFI (cfiCond341) CFA_SP SP+-4
          CFI (cfiCond341) CFA_XSP16 add(XSP16, 49)
          CFI Block cfiCond342 Using cfiCommon0
          CFI (cfiCond342) Function AF_DataRequest
          CFI (cfiCond342) Conditional ??CrossCallReturnLabel_130, ??CrossCallReturnLabel_121
          CFI (cfiCond342) R6 load(1, XDATA, add(CFA_XSP16, literal(-16)))
          CFI (cfiCond342) VB load(1, XDATA, add(CFA_XSP16, literal(-15)))
          CFI (cfiCond342) V0 load(1, XDATA, add(CFA_XSP16, literal(-14)))
          CFI (cfiCond342) V1 load(1, XDATA, add(CFA_XSP16, literal(-13)))
          CFI (cfiCond342) V2 load(1, XDATA, add(CFA_XSP16, literal(-12)))
          CFI (cfiCond342) V3 load(1, XDATA, add(CFA_XSP16, literal(-11)))
          CFI (cfiCond342) V4 load(1, XDATA, add(CFA_XSP16, literal(-10)))
          CFI (cfiCond342) V5 load(1, XDATA, add(CFA_XSP16, literal(-9)))
          CFI (cfiCond342) V6 load(1, XDATA, add(CFA_XSP16, literal(-8)))
          CFI (cfiCond342) V7 load(1, XDATA, add(CFA_XSP16, literal(-7)))
          CFI (cfiCond342) R7 load(1, XDATA, add(CFA_XSP16, literal(-6)))
          CFI (cfiCond342) ?RET_LOW load(1, XDATA, add(CFA_XSP16, literal(-5)))
          CFI (cfiCond342) ?RET_HIGH load(1, XDATA, add(CFA_XSP16, literal(-4)))
          CFI (cfiCond342) ?BRET_EXT load(1, XDATA, add(CFA_XSP16, literal(-3)))
          CFI (cfiCond342) DPL0 load(1, XDATA, add(CFA_XSP16, literal(-2)))
          CFI (cfiCond342) DPH0 load(1, XDATA, add(CFA_XSP16, literal(-1)))
          CFI (cfiCond342) CFA_SP SP+-4
          CFI (cfiCond342) CFA_XSP16 add(XSP16, 49)
          CFI Block cfiCond343 Using cfiCommon0
          CFI (cfiCond343) Function AF_DataRequest
          CFI (cfiCond343) Conditional ??CrossCallReturnLabel_130, ??CrossCallReturnLabel_122
          CFI (cfiCond343) R6 load(1, XDATA, add(CFA_XSP16, literal(-16)))
          CFI (cfiCond343) VB load(1, XDATA, add(CFA_XSP16, literal(-15)))
          CFI (cfiCond343) V0 load(1, XDATA, add(CFA_XSP16, literal(-14)))
          CFI (cfiCond343) V1 load(1, XDATA, add(CFA_XSP16, literal(-13)))
          CFI (cfiCond343) V2 load(1, XDATA, add(CFA_XSP16, literal(-12)))
          CFI (cfiCond343) V3 load(1, XDATA, add(CFA_XSP16, literal(-11)))
          CFI (cfiCond343) V4 load(1, XDATA, add(CFA_XSP16, literal(-10)))
          CFI (cfiCond343) V5 load(1, XDATA, add(CFA_XSP16, literal(-9)))
          CFI (cfiCond343) V6 load(1, XDATA, add(CFA_XSP16, literal(-8)))
          CFI (cfiCond343) V7 load(1, XDATA, add(CFA_XSP16, literal(-7)))
          CFI (cfiCond343) R7 load(1, XDATA, add(CFA_XSP16, literal(-6)))
          CFI (cfiCond343) ?RET_LOW load(1, XDATA, add(CFA_XSP16, literal(-5)))
          CFI (cfiCond343) ?RET_HIGH load(1, XDATA, add(CFA_XSP16, literal(-4)))
          CFI (cfiCond343) ?BRET_EXT load(1, XDATA, add(CFA_XSP16, literal(-3)))
          CFI (cfiCond343) DPL0 load(1, XDATA, add(CFA_XSP16, literal(-2)))
          CFI (cfiCond343) DPH0 load(1, XDATA, add(CFA_XSP16, literal(-1)))
          CFI (cfiCond343) CFA_SP SP+-4
          CFI (cfiCond343) CFA_XSP16 add(XSP16, 49)
          CFI Block cfiCond344 Using cfiCommon0
          CFI (cfiCond344) Function AF_DataRequest
          CFI (cfiCond344) Conditional ??CrossCallReturnLabel_130, ??CrossCallReturnLabel_123
          CFI (cfiCond344) R6 load(1, XDATA, add(CFA_XSP16, literal(-16)))
          CFI (cfiCond344) VB load(1, XDATA, add(CFA_XSP16, literal(-15)))
          CFI (cfiCond344) V0 load(1, XDATA, add(CFA_XSP16, literal(-14)))
          CFI (cfiCond344) V1 load(1, XDATA, add(CFA_XSP16, literal(-13)))
          CFI (cfiCond344) V2 load(1, XDATA, add(CFA_XSP16, literal(-12)))
          CFI (cfiCond344) V3 load(1, XDATA, add(CFA_XSP16, literal(-11)))
          CFI (cfiCond344) V4 load(1, XDATA, add(CFA_XSP16, literal(-10)))
          CFI (cfiCond344) V5 load(1, XDATA, add(CFA_XSP16, literal(-9)))
          CFI (cfiCond344) V6 load(1, XDATA, add(CFA_XSP16, literal(-8)))
          CFI (cfiCond344) V7 load(1, XDATA, add(CFA_XSP16, literal(-7)))
          CFI (cfiCond344) R7 load(1, XDATA, add(CFA_XSP16, literal(-6)))
          CFI (cfiCond344) ?RET_LOW load(1, XDATA, add(CFA_XSP16, literal(-5)))
          CFI (cfiCond344) ?RET_HIGH load(1, XDATA, add(CFA_XSP16, literal(-4)))
          CFI (cfiCond344) ?BRET_EXT load(1, XDATA, add(CFA_XSP16, literal(-3)))
          CFI (cfiCond344) DPL0 load(1, XDATA, add(CFA_XSP16, literal(-2)))
          CFI (cfiCond344) DPH0 load(1, XDATA, add(CFA_XSP16, literal(-1)))
          CFI (cfiCond344) CFA_SP SP+-4
          CFI (cfiCond344) CFA_XSP16 add(XSP16, 49)
          CFI Block cfiCond345 Using cfiCommon0
          CFI (cfiCond345) Function afBuildMSGIncoming
          CFI (cfiCond345) Conditional ??CrossCallReturnLabel_129, ??CrossCallReturnLabel_38
          CFI (cfiCond345) R6 load(1, XDATA, add(CFA_XSP16, literal(-16)))
          CFI (cfiCond345) VB load(1, XDATA, add(CFA_XSP16, literal(-15)))
          CFI (cfiCond345) V0 load(1, XDATA, add(CFA_XSP16, literal(-14)))
          CFI (cfiCond345) V1 load(1, XDATA, add(CFA_XSP16, literal(-13)))
          CFI (cfiCond345) V2 load(1, XDATA, add(CFA_XSP16, literal(-12)))
          CFI (cfiCond345) V3 load(1, XDATA, add(CFA_XSP16, literal(-11)))
          CFI (cfiCond345) V4 load(1, XDATA, add(CFA_XSP16, literal(-10)))
          CFI (cfiCond345) V5 load(1, XDATA, add(CFA_XSP16, literal(-9)))
          CFI (cfiCond345) V6 load(1, XDATA, add(CFA_XSP16, literal(-8)))
          CFI (cfiCond345) V7 load(1, XDATA, add(CFA_XSP16, literal(-7)))
          CFI (cfiCond345) R7 load(1, XDATA, add(CFA_XSP16, literal(-6)))
          CFI (cfiCond345) ?RET_LOW load(1, XDATA, add(CFA_XSP16, literal(-5)))
          CFI (cfiCond345) ?RET_HIGH load(1, XDATA, add(CFA_XSP16, literal(-4)))
          CFI (cfiCond345) ?BRET_EXT load(1, XDATA, add(CFA_XSP16, literal(-3)))
          CFI (cfiCond345) DPL0 load(1, XDATA, add(CFA_XSP16, literal(-2)))
          CFI (cfiCond345) DPH0 load(1, XDATA, add(CFA_XSP16, literal(-1)))
          CFI (cfiCond345) CFA_SP SP+-4
          CFI (cfiCond345) CFA_XSP16 add(XSP16, 19)
          CFI Block cfiCond346 Using cfiCommon0
          CFI (cfiCond346) Function afBuildMSGIncoming
          CFI (cfiCond346) Conditional ??CrossCallReturnLabel_129, ??CrossCallReturnLabel_39
          CFI (cfiCond346) R6 load(1, XDATA, add(CFA_XSP16, literal(-16)))
          CFI (cfiCond346) VB load(1, XDATA, add(CFA_XSP16, literal(-15)))
          CFI (cfiCond346) V0 load(1, XDATA, add(CFA_XSP16, literal(-14)))
          CFI (cfiCond346) V1 load(1, XDATA, add(CFA_XSP16, literal(-13)))
          CFI (cfiCond346) V2 load(1, XDATA, add(CFA_XSP16, literal(-12)))
          CFI (cfiCond346) V3 load(1, XDATA, add(CFA_XSP16, literal(-11)))
          CFI (cfiCond346) V4 load(1, XDATA, add(CFA_XSP16, literal(-10)))
          CFI (cfiCond346) V5 load(1, XDATA, add(CFA_XSP16, literal(-9)))
          CFI (cfiCond346) V6 load(1, XDATA, add(CFA_XSP16, literal(-8)))
          CFI (cfiCond346) V7 load(1, XDATA, add(CFA_XSP16, literal(-7)))
          CFI (cfiCond346) R7 load(1, XDATA, add(CFA_XSP16, literal(-6)))
          CFI (cfiCond346) ?RET_LOW load(1, XDATA, add(CFA_XSP16, literal(-5)))
          CFI (cfiCond346) ?RET_HIGH load(1, XDATA, add(CFA_XSP16, literal(-4)))
          CFI (cfiCond346) ?BRET_EXT load(1, XDATA, add(CFA_XSP16, literal(-3)))
          CFI (cfiCond346) DPL0 load(1, XDATA, add(CFA_XSP16, literal(-2)))
          CFI (cfiCond346) DPH0 load(1, XDATA, add(CFA_XSP16, literal(-1)))
          CFI (cfiCond346) CFA_SP SP+-4
          CFI (cfiCond346) CFA_XSP16 add(XSP16, 19)
          CFI Block cfiCond347 Using cfiCommon0
          CFI (cfiCond347) Function afBuildMSGIncoming
          CFI (cfiCond347) Conditional ??CrossCallReturnLabel_129, ??CrossCallReturnLabel_40
          CFI (cfiCond347) R6 load(1, XDATA, add(CFA_XSP16, literal(-16)))
          CFI (cfiCond347) VB load(1, XDATA, add(CFA_XSP16, literal(-15)))
          CFI (cfiCond347) V0 load(1, XDATA, add(CFA_XSP16, literal(-14)))
          CFI (cfiCond347) V1 load(1, XDATA, add(CFA_XSP16, literal(-13)))
          CFI (cfiCond347) V2 load(1, XDATA, add(CFA_XSP16, literal(-12)))
          CFI (cfiCond347) V3 load(1, XDATA, add(CFA_XSP16, literal(-11)))
          CFI (cfiCond347) V4 load(1, XDATA, add(CFA_XSP16, literal(-10)))
          CFI (cfiCond347) V5 load(1, XDATA, add(CFA_XSP16, literal(-9)))
          CFI (cfiCond347) V6 load(1, XDATA, add(CFA_XSP16, literal(-8)))
          CFI (cfiCond347) V7 load(1, XDATA, add(CFA_XSP16, literal(-7)))
          CFI (cfiCond347) R7 load(1, XDATA, add(CFA_XSP16, literal(-6)))
          CFI (cfiCond347) ?RET_LOW load(1, XDATA, add(CFA_XSP16, literal(-5)))
          CFI (cfiCond347) ?RET_HIGH load(1, XDATA, add(CFA_XSP16, literal(-4)))
          CFI (cfiCond347) ?BRET_EXT load(1, XDATA, add(CFA_XSP16, literal(-3)))
          CFI (cfiCond347) DPL0 load(1, XDATA, add(CFA_XSP16, literal(-2)))
          CFI (cfiCond347) DPH0 load(1, XDATA, add(CFA_XSP16, literal(-1)))
          CFI (cfiCond347) CFA_SP SP+-4
          CFI (cfiCond347) CFA_XSP16 add(XSP16, 19)
          CFI Block cfiCond348 Using cfiCommon0
          CFI (cfiCond348) Function afDelete
          CFI (cfiCond348) Conditional ??CrossCallReturnLabel_127, ??CrossCallReturnLabel_2
          CFI (cfiCond348) R6 load(1, XDATA, add(CFA_XSP16, literal(-9)))
          CFI (cfiCond348) VB load(1, XDATA, add(CFA_XSP16, literal(-8)))
          CFI (cfiCond348) V0 load(1, XDATA, add(CFA_XSP16, literal(-7)))
          CFI (cfiCond348) R7 load(1, XDATA, add(CFA_XSP16, literal(-6)))
          CFI (cfiCond348) ?RET_LOW load(1, XDATA, add(CFA_XSP16, literal(-5)))
          CFI (cfiCond348) ?RET_HIGH load(1, XDATA, add(CFA_XSP16, literal(-4)))
          CFI (cfiCond348) ?BRET_EXT load(1, XDATA, add(CFA_XSP16, literal(-3)))
          CFI (cfiCond348) DPL0 load(1, XDATA, add(CFA_XSP16, literal(-2)))
          CFI (cfiCond348) DPH0 load(1, XDATA, add(CFA_XSP16, literal(-1)))
          CFI (cfiCond348) CFA_SP SP+-4
          CFI (cfiCond348) CFA_XSP16 add(XSP16, 9)
          CFI Block cfiCond349 Using cfiCommon0
          CFI (cfiCond349) Function afIncomingData
          CFI (cfiCond349) Conditional ??CrossCallReturnLabel_127, ??CrossCallReturnLabel_3
          CFI (cfiCond349) R6 load(1, XDATA, add(CFA_XSP16, literal(-15)))
          CFI (cfiCond349) VB load(1, XDATA, add(CFA_XSP16, literal(-14)))
          CFI (cfiCond349) V0 load(1, XDATA, add(CFA_XSP16, literal(-13)))
          CFI (cfiCond349) V1 load(1, XDATA, add(CFA_XSP16, literal(-12)))
          CFI (cfiCond349) V2 load(1, XDATA, add(CFA_XSP16, literal(-11)))
          CFI (cfiCond349) V3 load(1, XDATA, add(CFA_XSP16, literal(-10)))
          CFI (cfiCond349) V4 load(1, XDATA, add(CFA_XSP16, literal(-9)))
          CFI (cfiCond349) V5 load(1, XDATA, add(CFA_XSP16, literal(-8)))
          CFI (cfiCond349) V6 load(1, XDATA, add(CFA_XSP16, literal(-7)))
          CFI (cfiCond349) R7 load(1, XDATA, add(CFA_XSP16, literal(-6)))
          CFI (cfiCond349) ?RET_LOW load(1, XDATA, add(CFA_XSP16, literal(-5)))
          CFI (cfiCond349) ?RET_HIGH load(1, XDATA, add(CFA_XSP16, literal(-4)))
          CFI (cfiCond349) ?BRET_EXT load(1, XDATA, add(CFA_XSP16, literal(-3)))
          CFI (cfiCond349) DPL0 load(1, XDATA, add(CFA_XSP16, literal(-2)))
          CFI (cfiCond349) DPH0 load(1, XDATA, add(CFA_XSP16, literal(-1)))
          CFI (cfiCond349) CFA_SP SP+-4
          CFI (cfiCond349) CFA_XSP16 add(XSP16, 28)
          CFI Block cfiCond350 Using cfiCommon0
          CFI (cfiCond350) Function afIncomingData
          CFI (cfiCond350) Conditional ??CrossCallReturnLabel_127, ??CrossCallReturnLabel_4
          CFI (cfiCond350) R6 load(1, XDATA, add(CFA_XSP16, literal(-15)))
          CFI (cfiCond350) VB load(1, XDATA, add(CFA_XSP16, literal(-14)))
          CFI (cfiCond350) V0 load(1, XDATA, add(CFA_XSP16, literal(-13)))
          CFI (cfiCond350) V1 load(1, XDATA, add(CFA_XSP16, literal(-12)))
          CFI (cfiCond350) V2 load(1, XDATA, add(CFA_XSP16, literal(-11)))
          CFI (cfiCond350) V3 load(1, XDATA, add(CFA_XSP16, literal(-10)))
          CFI (cfiCond350) V4 load(1, XDATA, add(CFA_XSP16, literal(-9)))
          CFI (cfiCond350) V5 load(1, XDATA, add(CFA_XSP16, literal(-8)))
          CFI (cfiCond350) V6 load(1, XDATA, add(CFA_XSP16, literal(-7)))
          CFI (cfiCond350) R7 load(1, XDATA, add(CFA_XSP16, literal(-6)))
          CFI (cfiCond350) ?RET_LOW load(1, XDATA, add(CFA_XSP16, literal(-5)))
          CFI (cfiCond350) ?RET_HIGH load(1, XDATA, add(CFA_XSP16, literal(-4)))
          CFI (cfiCond350) ?BRET_EXT load(1, XDATA, add(CFA_XSP16, literal(-3)))
          CFI (cfiCond350) DPL0 load(1, XDATA, add(CFA_XSP16, literal(-2)))
          CFI (cfiCond350) DPH0 load(1, XDATA, add(CFA_XSP16, literal(-1)))
          CFI (cfiCond350) CFA_SP SP+-4
          CFI (cfiCond350) CFA_XSP16 add(XSP16, 28)
          CFI Block cfiCond351 Using cfiCommon0
          CFI (cfiCond351) Function AF_DataRequest
          CFI (cfiCond351) Conditional ??CrossCallReturnLabel_127, ??CrossCallReturnLabel_0
          CFI (cfiCond351) R6 load(1, XDATA, add(CFA_XSP16, literal(-16)))
          CFI (cfiCond351) VB load(1, XDATA, add(CFA_XSP16, literal(-15)))
          CFI (cfiCond351) V0 load(1, XDATA, add(CFA_XSP16, literal(-14)))
          CFI (cfiCond351) V1 load(1, XDATA, add(CFA_XSP16, literal(-13)))
          CFI (cfiCond351) V2 load(1, XDATA, add(CFA_XSP16, literal(-12)))
          CFI (cfiCond351) V3 load(1, XDATA, add(CFA_XSP16, literal(-11)))
          CFI (cfiCond351) V4 load(1, XDATA, add(CFA_XSP16, literal(-10)))
          CFI (cfiCond351) V5 load(1, XDATA, add(CFA_XSP16, literal(-9)))
          CFI (cfiCond351) V6 load(1, XDATA, add(CFA_XSP16, literal(-8)))
          CFI (cfiCond351) V7 load(1, XDATA, add(CFA_XSP16, literal(-7)))
          CFI (cfiCond351) R7 load(1, XDATA, add(CFA_XSP16, literal(-6)))
          CFI (cfiCond351) ?RET_LOW load(1, XDATA, add(CFA_XSP16, literal(-5)))
          CFI (cfiCond351) ?RET_HIGH load(1, XDATA, add(CFA_XSP16, literal(-4)))
          CFI (cfiCond351) ?BRET_EXT load(1, XDATA, add(CFA_XSP16, literal(-3)))
          CFI (cfiCond351) DPL0 load(1, XDATA, add(CFA_XSP16, literal(-2)))
          CFI (cfiCond351) DPH0 load(1, XDATA, add(CFA_XSP16, literal(-1)))
          CFI (cfiCond351) CFA_SP SP+-4
          CFI (cfiCond351) CFA_XSP16 add(XSP16, 49)
          CFI Block cfiCond352 Using cfiCommon0
          CFI (cfiCond352) Function AF_DataRequest
          CFI (cfiCond352) Conditional ??CrossCallReturnLabel_127, ??CrossCallReturnLabel_5
          CFI (cfiCond352) R6 load(1, XDATA, add(CFA_XSP16, literal(-16)))
          CFI (cfiCond352) VB load(1, XDATA, add(CFA_XSP16, literal(-15)))
          CFI (cfiCond352) V0 load(1, XDATA, add(CFA_XSP16, literal(-14)))
          CFI (cfiCond352) V1 load(1, XDATA, add(CFA_XSP16, literal(-13)))
          CFI (cfiCond352) V2 load(1, XDATA, add(CFA_XSP16, literal(-12)))
          CFI (cfiCond352) V3 load(1, XDATA, add(CFA_XSP16, literal(-11)))
          CFI (cfiCond352) V4 load(1, XDATA, add(CFA_XSP16, literal(-10)))
          CFI (cfiCond352) V5 load(1, XDATA, add(CFA_XSP16, literal(-9)))
          CFI (cfiCond352) V6 load(1, XDATA, add(CFA_XSP16, literal(-8)))
          CFI (cfiCond352) V7 load(1, XDATA, add(CFA_XSP16, literal(-7)))
          CFI (cfiCond352) R7 load(1, XDATA, add(CFA_XSP16, literal(-6)))
          CFI (cfiCond352) ?RET_LOW load(1, XDATA, add(CFA_XSP16, literal(-5)))
          CFI (cfiCond352) ?RET_HIGH load(1, XDATA, add(CFA_XSP16, literal(-4)))
          CFI (cfiCond352) ?BRET_EXT load(1, XDATA, add(CFA_XSP16, literal(-3)))
          CFI (cfiCond352) DPL0 load(1, XDATA, add(CFA_XSP16, literal(-2)))
          CFI (cfiCond352) DPH0 load(1, XDATA, add(CFA_XSP16, literal(-1)))
          CFI (cfiCond352) CFA_SP SP+-4
          CFI (cfiCond352) CFA_XSP16 add(XSP16, 49)
          CFI Block cfiCond353 Using cfiCommon0
          CFI (cfiCond353) Function afEndPoints
          CFI (cfiCond353) Conditional ??CrossCallReturnLabel_127, ??CrossCallReturnLabel_1
          CFI (cfiCond353) DPL0 Frame(CFA_SP, 4)
          CFI (cfiCond353) DPH0 Frame(CFA_SP, 5)
          CFI (cfiCond353) CFA_SP SP+-9
          CFI Block cfiCond354 Using cfiCommon0
          CFI (cfiCond354) Function afIncomingData
          CFI (cfiCond354) Conditional ??CrossCallReturnLabel_128, ??CrossCallReturnLabel_13
          CFI (cfiCond354) R6 load(1, XDATA, add(CFA_XSP16, literal(-15)))
          CFI (cfiCond354) VB load(1, XDATA, add(CFA_XSP16, literal(-14)))
          CFI (cfiCond354) V0 load(1, XDATA, add(CFA_XSP16, literal(-13)))
          CFI (cfiCond354) V1 load(1, XDATA, add(CFA_XSP16, literal(-12)))
          CFI (cfiCond354) V2 load(1, XDATA, add(CFA_XSP16, literal(-11)))
          CFI (cfiCond354) V3 load(1, XDATA, add(CFA_XSP16, literal(-10)))
          CFI (cfiCond354) V4 load(1, XDATA, add(CFA_XSP16, literal(-9)))
          CFI (cfiCond354) V5 load(1, XDATA, add(CFA_XSP16, literal(-8)))
          CFI (cfiCond354) V6 load(1, XDATA, add(CFA_XSP16, literal(-7)))
          CFI (cfiCond354) R7 load(1, XDATA, add(CFA_XSP16, literal(-6)))
          CFI (cfiCond354) ?RET_LOW load(1, XDATA, add(CFA_XSP16, literal(-5)))
          CFI (cfiCond354) ?RET_HIGH load(1, XDATA, add(CFA_XSP16, literal(-4)))
          CFI (cfiCond354) ?BRET_EXT load(1, XDATA, add(CFA_XSP16, literal(-3)))
          CFI (cfiCond354) DPL0 load(1, XDATA, add(CFA_XSP16, literal(-2)))
          CFI (cfiCond354) DPH0 load(1, XDATA, add(CFA_XSP16, literal(-1)))
          CFI (cfiCond354) CFA_SP SP+-4
          CFI (cfiCond354) CFA_XSP16 add(XSP16, 28)
          CFI Block cfiCond355 Using cfiCommon0
          CFI (cfiCond355) Function afFindSimpleDesc
          CFI (cfiCond355) Conditional ??CrossCallReturnLabel_128, ??CrossCallReturnLabel_14
          CFI (cfiCond355) R6 load(1, XDATA, add(CFA_XSP16, literal(-12)))
          CFI (cfiCond355) VB load(1, XDATA, add(CFA_XSP16, literal(-11)))
          CFI (cfiCond355) V0 load(1, XDATA, add(CFA_XSP16, literal(-10)))
          CFI (cfiCond355) V1 load(1, XDATA, add(CFA_XSP16, literal(-9)))
          CFI (cfiCond355) V2 load(1, XDATA, add(CFA_XSP16, literal(-8)))
          CFI (cfiCond355) V3 load(1, XDATA, add(CFA_XSP16, literal(-7)))
          CFI (cfiCond355) R7 load(1, XDATA, add(CFA_XSP16, literal(-6)))
          CFI (cfiCond355) ?RET_LOW load(1, XDATA, add(CFA_XSP16, literal(-5)))
          CFI (cfiCond355) ?RET_HIGH load(1, XDATA, add(CFA_XSP16, literal(-4)))
          CFI (cfiCond355) ?BRET_EXT load(1, XDATA, add(CFA_XSP16, literal(-3)))
          CFI (cfiCond355) DPL0 load(1, XDATA, add(CFA_XSP16, literal(-2)))
          CFI (cfiCond355) DPH0 load(1, XDATA, add(CFA_XSP16, literal(-1)))
          CFI (cfiCond355) CFA_SP SP+-4
          CFI (cfiCond355) CFA_XSP16 add(XSP16, 12)
          CFI Block cfiPicker356 Using cfiCommon1
          CFI (cfiPicker356) NoFunction
          CFI (cfiPicker356) Picker
        MOVX      A,@DPTR
        MOV       R0,A
        INC       DPTR
        MOVX      A,@DPTR
        MOV       R1,A
        RET
          CFI EndBlock cfiCond335
          CFI EndBlock cfiCond336
          CFI EndBlock cfiCond337
          CFI EndBlock cfiCond338
          CFI EndBlock cfiCond339
          CFI EndBlock cfiCond340
          CFI EndBlock cfiCond341
          CFI EndBlock cfiCond342
          CFI EndBlock cfiCond343
          CFI EndBlock cfiCond344
          CFI EndBlock cfiCond345
          CFI EndBlock cfiCond346
          CFI EndBlock cfiCond347
          CFI EndBlock cfiCond348
          CFI EndBlock cfiCond349
          CFI EndBlock cfiCond350
          CFI EndBlock cfiCond351
          CFI EndBlock cfiCond352
          CFI EndBlock cfiCond353
          CFI EndBlock cfiCond354
          CFI EndBlock cfiCond355
          CFI EndBlock cfiPicker356

        RSEG BANKED_CODE:HUGECODE:NOROOT(0)
?Subroutine9:
          CFI Block cfiCond357 Using cfiCommon0
          CFI Function AF_DataRequest
          CFI Conditional ??CrossCallReturnLabel_6
          CFI R6 load(1, XDATA, add(CFA_XSP16, literal(-16)))
          CFI VB load(1, XDATA, add(CFA_XSP16, literal(-15)))
          CFI V0 load(1, XDATA, add(CFA_XSP16, literal(-14)))
          CFI V1 load(1, XDATA, add(CFA_XSP16, literal(-13)))
          CFI V2 load(1, XDATA, add(CFA_XSP16, literal(-12)))
          CFI V3 load(1, XDATA, add(CFA_XSP16, literal(-11)))
          CFI V4 load(1, XDATA, add(CFA_XSP16, literal(-10)))
          CFI V5 load(1, XDATA, add(CFA_XSP16, literal(-9)))
          CFI V6 load(1, XDATA, add(CFA_XSP16, literal(-8)))
          CFI V7 load(1, XDATA, add(CFA_XSP16, literal(-7)))
          CFI R7 load(1, XDATA, add(CFA_XSP16, literal(-6)))
          CFI ?RET_LOW load(1, XDATA, add(CFA_XSP16, literal(-5)))
          CFI ?RET_HIGH load(1, XDATA, add(CFA_XSP16, literal(-4)))
          CFI ?BRET_EXT load(1, XDATA, add(CFA_XSP16, literal(-3)))
          CFI DPL0 load(1, XDATA, add(CFA_XSP16, literal(-2)))
          CFI DPH0 load(1, XDATA, add(CFA_XSP16, literal(-1)))
          CFI CFA_SP SP+-2
          CFI CFA_XSP16 add(XSP16, 49)
          CFI Block cfiCond358 Using cfiCommon0
          CFI (cfiCond358) Function AF_DataRequest
          CFI (cfiCond358) Conditional ??CrossCallReturnLabel_7
          CFI (cfiCond358) R6 load(1, XDATA, add(CFA_XSP16, literal(-16)))
          CFI (cfiCond358) VB load(1, XDATA, add(CFA_XSP16, literal(-15)))
          CFI (cfiCond358) V0 load(1, XDATA, add(CFA_XSP16, literal(-14)))
          CFI (cfiCond358) V1 load(1, XDATA, add(CFA_XSP16, literal(-13)))
          CFI (cfiCond358) V2 load(1, XDATA, add(CFA_XSP16, literal(-12)))
          CFI (cfiCond358) V3 load(1, XDATA, add(CFA_XSP16, literal(-11)))
          CFI (cfiCond358) V4 load(1, XDATA, add(CFA_XSP16, literal(-10)))
          CFI (cfiCond358) V5 load(1, XDATA, add(CFA_XSP16, literal(-9)))
          CFI (cfiCond358) V6 load(1, XDATA, add(CFA_XSP16, literal(-8)))
          CFI (cfiCond358) V7 load(1, XDATA, add(CFA_XSP16, literal(-7)))
          CFI (cfiCond358) R7 load(1, XDATA, add(CFA_XSP16, literal(-6)))
          CFI (cfiCond358) ?RET_LOW load(1, XDATA, add(CFA_XSP16, literal(-5)))
          CFI (cfiCond358) ?RET_HIGH load(1, XDATA, add(CFA_XSP16, literal(-4)))
          CFI (cfiCond358) ?BRET_EXT load(1, XDATA, add(CFA_XSP16, literal(-3)))
          CFI (cfiCond358) DPL0 load(1, XDATA, add(CFA_XSP16, literal(-2)))
          CFI (cfiCond358) DPH0 load(1, XDATA, add(CFA_XSP16, literal(-1)))
          CFI (cfiCond358) CFA_SP SP+-2
          CFI (cfiCond358) CFA_XSP16 add(XSP16, 49)
          CFI Block cfiCond359 Using cfiCommon0
          CFI (cfiCond359) Function afFindSimpleDesc
          CFI (cfiCond359) Conditional ??CrossCallReturnLabel_8
          CFI (cfiCond359) R6 load(1, XDATA, add(CFA_XSP16, literal(-12)))
          CFI (cfiCond359) VB load(1, XDATA, add(CFA_XSP16, literal(-11)))
          CFI (cfiCond359) V0 load(1, XDATA, add(CFA_XSP16, literal(-10)))
          CFI (cfiCond359) V1 load(1, XDATA, add(CFA_XSP16, literal(-9)))
          CFI (cfiCond359) V2 load(1, XDATA, add(CFA_XSP16, literal(-8)))
          CFI (cfiCond359) V3 load(1, XDATA, add(CFA_XSP16, literal(-7)))
          CFI (cfiCond359) R7 load(1, XDATA, add(CFA_XSP16, literal(-6)))
          CFI (cfiCond359) ?RET_LOW load(1, XDATA, add(CFA_XSP16, literal(-5)))
          CFI (cfiCond359) ?RET_HIGH load(1, XDATA, add(CFA_XSP16, literal(-4)))
          CFI (cfiCond359) ?BRET_EXT load(1, XDATA, add(CFA_XSP16, literal(-3)))
          CFI (cfiCond359) DPL0 load(1, XDATA, add(CFA_XSP16, literal(-2)))
          CFI (cfiCond359) DPH0 load(1, XDATA, add(CFA_XSP16, literal(-1)))
          CFI (cfiCond359) CFA_SP SP+-2
          CFI (cfiCond359) CFA_XSP16 add(XSP16, 12)
          CFI Block cfiPicker360 Using cfiCommon1
          CFI (cfiPicker360) NoFunction
          CFI (cfiPicker360) Picker
        INC       DPTR
        INC       DPTR
        INC       DPTR
        INC       DPTR
        LCALL     ?Subroutine45 & 0xFFFF
??CrossCallReturnLabel_80:
        MOV       A,DPL
        ORL       A,DPH
        RET
          CFI EndBlock cfiCond357
          CFI EndBlock cfiCond358
          CFI EndBlock cfiCond359
          CFI EndBlock cfiPicker360
//  988 
//  989 /*********************************************************************
//  990  * @fn      afGetDescCB
//  991  *
//  992  * @brief   Get the Descriptor callback function.
//  993  *
//  994  * @param   epDesc - pointer to the endpoint descriptor
//  995  *
//  996  * @return  function pointer or NULL
//  997  */
//  998 static pDescCB afGetDescCB( endPointDesc_t *epDesc )
//  999 {
// 1000   epList_t *epSearch;
// 1001 
// 1002   // Start at the beginning
// 1003   epSearch = epList;
// 1004 
// 1005   // Look through the list until the end
// 1006   while ( epSearch )
// 1007   {
// 1008     // Is there a match?
// 1009     if ( epSearch->epDesc == epDesc )
// 1010     {
// 1011       return ( epSearch->pfnDescCB );
// 1012     }
// 1013     else
// 1014       epSearch = epSearch->nextDesc;  // Next entry
// 1015   }
// 1016 
// 1017   return ( (pDescCB)NULL );
// 1018 }
// 1019 
// 1020 /*********************************************************************
// 1021  * @fn      afDataReqMTU
// 1022  *
// 1023  * @brief   Get the Data Request MTU(Max Transport Unit).
// 1024  *
// 1025  * @param   fields - afDataReqMTU_t
// 1026  *
// 1027  * @return  uint8(MTU)
// 1028  */

        RSEG BANKED_CODE:HUGECODE:NOROOT(0)
// 1029 uint8 afDataReqMTU( afDataReqMTU_t* fields )
afDataReqMTU:
          CFI Block cfiBlock361 Using cfiCommon0
          CFI Function afDataReqMTU
        CODE
// 1030 {
        FUNCALL afDataReqMTU, APSDE_DataReqMTU
        LOCFRAME ISTACK, 0, STACK
        LOCFRAME PSTACK, 0, STACK
        LOCFRAME XSTACK, 9, STACK
        LOCFRAME IOVERLAY, 0, STATIC
        LOCFRAME DOVERLAY, 0, STATIC
        ARGFRAME ISTACK, 0, STACK
        ARGFRAME PSTACK, 0, STACK
        ARGFRAME XSTACK, 9, STACK
        ARGFRAME IOVERLAY, 0, STATIC
        ARGFRAME DOVERLAY, 0, STATIC
        MOV       A,#-0x9
        LCALL     ?BANKED_ENTER_XDATA
          CFI DPH0 load(1, XDATA, add(CFA_XSP16, literal(-1)))
          CFI DPL0 load(1, XDATA, add(CFA_XSP16, literal(-2)))
          CFI ?BRET_EXT load(1, XDATA, add(CFA_XSP16, literal(-3)))
          CFI ?RET_HIGH load(1, XDATA, add(CFA_XSP16, literal(-4)))
          CFI ?RET_LOW load(1, XDATA, add(CFA_XSP16, literal(-5)))
          CFI R7 load(1, XDATA, add(CFA_XSP16, literal(-6)))
          CFI V0 load(1, XDATA, add(CFA_XSP16, literal(-7)))
          CFI VB load(1, XDATA, add(CFA_XSP16, literal(-8)))
          CFI R6 load(1, XDATA, add(CFA_XSP16, literal(-9)))
          CFI CFA_SP SP+0
          CFI CFA_XSP16 add(XSP16, 9)
        ; Saved register size: 9
        ; Auto size: 0
// 1031   uint8 len;
// 1032   uint8 hdr;
// 1033 
// 1034   if ( fields->kvp == TRUE )
        MOV       DPL,R2
        MOV       DPH,R3
        MOVX      A,@DPTR
        XRL       A,#0x1
        JNZ       ??afDataReqMTU_0
// 1035   {
// 1036     hdr = AF_HDR_KVP_MAX_LEN;
        MOV       R6,#0x8
        SJMP      ??afDataReqMTU_1
// 1037   }
// 1038   else
// 1039   {
// 1040     hdr = AF_HDR_V1_1_MAX_LEN;
??afDataReqMTU_0:
        MOV       R6,#0x0
// 1041   }
// 1042 
// 1043   len = (uint8)(APSDE_DataReqMTU(&fields->aps) - hdr);
// 1044 
// 1045   return len;
??afDataReqMTU_1:
        ; Setup parameters for call to function APSDE_DataReqMTU
        INC       DPTR
        MOV       R2,DPL
        MOV       R3,DPH
        LCALL     `??APSDE_DataReqMTU::?relay`; Banked call to: APSDE_DataReqMTU
        MOV       A,R1
        CLR       C
        SUBB      A,R6
        MOV       R1,A
        LJMP      ?Subroutine2 & 0xFFFF
// 1046 }
          CFI EndBlock cfiBlock361
// 1047 
// 1048 /*********************************************************************
// 1049  * @fn      afGetMatch
// 1050  *
// 1051  * @brief   Set the allow response flag.
// 1052  *
// 1053  * @param   ep - Application Endpoint to look for
// 1054  * @param   action - true - allow response, false - no response
// 1055  *
// 1056  * @return  TRUE allow responses, FALSE no response
// 1057  */

        RSEG BANKED_CODE:HUGECODE:NOROOT(0)
// 1058 uint8 afGetMatch( uint8 ep )
afGetMatch:
          CFI Block cfiBlock362 Using cfiCommon0
          CFI Function afGetMatch
        CODE
// 1059 {
        FUNCALL afGetMatch, afFindEndPointDescList
        LOCFRAME ISTACK, 0, STACK
        LOCFRAME PSTACK, 0, STACK
        LOCFRAME XSTACK, 10, STACK
        LOCFRAME IOVERLAY, 0, STATIC
        LOCFRAME DOVERLAY, 0, STATIC
        ARGFRAME ISTACK, 0, STACK
        ARGFRAME PSTACK, 0, STACK
        ARGFRAME XSTACK, 10, STACK
        ARGFRAME IOVERLAY, 0, STATIC
        ARGFRAME DOVERLAY, 0, STATIC
        REQUIRE ?V0
        REQUIRE ?V1
        MOV       A,#-0xa
        LCALL     ?BANKED_ENTER_XDATA
          CFI DPH0 load(1, XDATA, add(CFA_XSP16, literal(-1)))
          CFI DPL0 load(1, XDATA, add(CFA_XSP16, literal(-2)))
          CFI ?BRET_EXT load(1, XDATA, add(CFA_XSP16, literal(-3)))
          CFI ?RET_HIGH load(1, XDATA, add(CFA_XSP16, literal(-4)))
          CFI ?RET_LOW load(1, XDATA, add(CFA_XSP16, literal(-5)))
          CFI R7 load(1, XDATA, add(CFA_XSP16, literal(-6)))
          CFI V1 load(1, XDATA, add(CFA_XSP16, literal(-7)))
          CFI V0 load(1, XDATA, add(CFA_XSP16, literal(-8)))
          CFI VB load(1, XDATA, add(CFA_XSP16, literal(-9)))
          CFI R6 load(1, XDATA, add(CFA_XSP16, literal(-10)))
          CFI CFA_SP SP+0
          CFI CFA_XSP16 add(XSP16, 10)
        ; Saved register size: 10
        ; Auto size: 0
// 1060   epList_t *epSearch;
// 1061 
// 1062   // Look for the endpoint
// 1063   epSearch = afFindEndPointDescList( ep );
        ; Setup parameters for call to function afFindEndPointDescList
        LCALL     `??afFindEndPointDescList::?relay`; Banked call to: afFindEndPointDescList
        MOV       DPL,R2
        MOV       DPH,R3
// 1064 
// 1065   if ( epSearch )
        MOV       A,DPL
        ORL       A,DPH
        JZ        ??afGetMatch_0
// 1066   {
// 1067     if ( epSearch->flags & eEP_AllowMatch )
        INC       DPTR
        INC       DPTR
        INC       DPTR
        INC       DPTR
        INC       DPTR
        INC       DPTR
        INC       DPTR
        INC       DPTR
        MOVX      A,@DPTR
        MOV       C,0xE0 /* A   */.0
        JNC       ??afGetMatch_0
// 1068       return ( TRUE );
        MOV       R1,#0x1
        SJMP      ??afGetMatch_1
// 1069     else
// 1070       return ( FALSE );
// 1071   }
// 1072   else
// 1073     return ( FALSE );
??afGetMatch_0:
        MOV       R1,#0x0
??afGetMatch_1:
          CFI EndBlock cfiBlock362
        REQUIRE ?Subroutine1
        ; // Fall through to label ?Subroutine1
// 1074 }

        RSEG BANKED_CODE:HUGECODE:NOROOT(0)
?Subroutine1:
          CFI Block cfiBlock363 Using cfiCommon0
          CFI NoFunction
          CFI CFA_SP SP+0
          CFI CFA_XSP16 add(XSP16, 10)
          CFI VB load(1, XDATA, add(CFA_XSP16, literal(-9)))
          CFI DPL0 load(1, XDATA, add(CFA_XSP16, literal(-2)))
          CFI DPH0 load(1, XDATA, add(CFA_XSP16, literal(-1)))
          CFI R6 load(1, XDATA, add(CFA_XSP16, literal(-10)))
          CFI R7 load(1, XDATA, add(CFA_XSP16, literal(-6)))
          CFI V0 load(1, XDATA, add(CFA_XSP16, literal(-8)))
          CFI V1 load(1, XDATA, add(CFA_XSP16, literal(-7)))
          CFI ?BRET_EXT load(1, XDATA, add(CFA_XSP16, literal(-3)))
          CFI ?RET_HIGH load(1, XDATA, add(CFA_XSP16, literal(-4)))
          CFI ?RET_LOW load(1, XDATA, add(CFA_XSP16, literal(-5)))
        MOV       R7,#0x2
        LJMP      ?BANKED_LEAVE_XDATA
          CFI EndBlock cfiBlock363
// 1075 
// 1076 /*********************************************************************
// 1077  * @fn      afSetMatch
// 1078  *
// 1079  * @brief   Set the allow response flag.
// 1080  *
// 1081  * @param   ep - Application Endpoint to look for
// 1082  * @param   action - true - allow response, false - no response
// 1083  *
// 1084  * @return  TRUE if success, FALSE if endpoint not found
// 1085  */

        RSEG BANKED_CODE:HUGECODE:NOROOT(0)
// 1086 uint8 afSetMatch( uint8 ep, uint8 action )
afSetMatch:
          CFI Block cfiBlock364 Using cfiCommon0
          CFI Function afSetMatch
        CODE
// 1087 {
        FUNCALL afSetMatch, afFindEndPointDescList
        LOCFRAME ISTACK, 0, STACK
        LOCFRAME PSTACK, 0, STACK
        LOCFRAME XSTACK, 10, STACK
        LOCFRAME IOVERLAY, 0, STATIC
        LOCFRAME DOVERLAY, 0, STATIC
        ARGFRAME ISTACK, 0, STACK
        ARGFRAME PSTACK, 0, STACK
        ARGFRAME XSTACK, 10, STACK
        ARGFRAME IOVERLAY, 0, STATIC
        ARGFRAME DOVERLAY, 0, STATIC
        REQUIRE ?V0
        REQUIRE ?V1
        MOV       A,#-0xa
        LCALL     ?BANKED_ENTER_XDATA
          CFI DPH0 load(1, XDATA, add(CFA_XSP16, literal(-1)))
          CFI DPL0 load(1, XDATA, add(CFA_XSP16, literal(-2)))
          CFI ?BRET_EXT load(1, XDATA, add(CFA_XSP16, literal(-3)))
          CFI ?RET_HIGH load(1, XDATA, add(CFA_XSP16, literal(-4)))
          CFI ?RET_LOW load(1, XDATA, add(CFA_XSP16, literal(-5)))
          CFI R7 load(1, XDATA, add(CFA_XSP16, literal(-6)))
          CFI V1 load(1, XDATA, add(CFA_XSP16, literal(-7)))
          CFI V0 load(1, XDATA, add(CFA_XSP16, literal(-8)))
          CFI VB load(1, XDATA, add(CFA_XSP16, literal(-9)))
          CFI R6 load(1, XDATA, add(CFA_XSP16, literal(-10)))
          CFI CFA_SP SP+0
          CFI CFA_XSP16 add(XSP16, 10)
        ; Saved register size: 10
        ; Auto size: 0
        MOV       A,R2
        MOV       R7,A
// 1088   epList_t *epSearch;
// 1089 
// 1090   // Look for the endpoint
// 1091   epSearch = afFindEndPointDescList( ep );
        ; Setup parameters for call to function afFindEndPointDescList
        LCALL     `??afFindEndPointDescList::?relay`; Banked call to: afFindEndPointDescList
        MOV       ?V0,R2
        MOV       ?V1,R3
        MOV       R0,?V0
        MOV       R1,?V1
// 1092 
// 1093   if ( epSearch )
        MOV       A,R0
        ORL       A,R1
        JZ        ??afSetMatch_0
// 1094   {
// 1095     if ( action )
        MOV       A,R0
        ADD       A,#0x8
        MOV       DPL,A
        CLR       A
        ADDC      A,R1
        MOV       DPH,A
        MOV       A,R7
        JZ        ??afSetMatch_1
// 1096     {
// 1097       epSearch->flags |= eEP_AllowMatch;
        MOVX      A,@DPTR
        SETB      0xE0 /* A   */.0
        SJMP      ??afSetMatch_2
// 1098     }
// 1099     else
// 1100     {
// 1101       epSearch->flags &= (eEP_AllowMatch ^ 0xFFFF);
??afSetMatch_1:
        MOVX      A,@DPTR
        CLR       0xE0 /* A   */.0
??afSetMatch_2:
        MOVX      @DPTR,A
// 1102     }
// 1103     return ( TRUE );
        MOV       R1,#0x1
        SJMP      ??afSetMatch_3
// 1104   }
// 1105   else
// 1106     return ( FALSE );
??afSetMatch_0:
        MOV       R1,#0x0
??afSetMatch_3:
        SJMP      ?Subroutine1
// 1107 }
          CFI EndBlock cfiBlock364
// 1108 
// 1109 /*********************************************************************
// 1110  * @fn      afNumEndPoints
// 1111  *
// 1112  * @brief   Returns the number of endpoints defined (including 0)
// 1113  *
// 1114  * @param   none
// 1115  *
// 1116  * @return  number of endpoints
// 1117  */

        RSEG BANKED_CODE:HUGECODE:NOROOT(0)
// 1118 uint8 afNumEndPoints( void )
afNumEndPoints:
          CFI Block cfiBlock365 Using cfiCommon0
          CFI Function afNumEndPoints
        CODE
// 1119 {
        PUSH      DPL
          CFI DPL0 Frame(CFA_SP, 4)
          CFI CFA_SP SP+-4
        PUSH      DPH
          CFI DPH0 Frame(CFA_SP, 5)
          CFI CFA_SP SP+-5
        ; Saved register size: 2
        ; Auto size: 0
// 1120   epList_t *epSearch;
// 1121   uint8 endpoints;
// 1122 
// 1123   // Start at the beginning
// 1124   epSearch = epList;
        MOV       DPTR,#epList
        LCALL     ?Subroutine21 & 0xFFFF
// 1125   endpoints = 0;
??CrossCallReturnLabel_37:
        MOV       R1,#0x0
        SJMP      ??afNumEndPoints_0
// 1126 
// 1127   while ( epSearch )
// 1128   {
// 1129     endpoints++;
??afNumEndPoints_1:
        INC       R1
// 1130     epSearch = epSearch->nextDesc;
        LCALL     ??Subroutine61_0 & 0xFFFF
// 1131   }
??CrossCallReturnLabel_148:
        MOV       DPL,R2
        MOV       DPH,R3
??afNumEndPoints_0:
        MOV       A,DPL
        ORL       A,DPH
        JNZ       ??afNumEndPoints_1
// 1132 
// 1133   return ( endpoints );
        LJMP      ?Subroutine6 & 0xFFFF
// 1134 }
          CFI EndBlock cfiBlock365

        RSEG BANKED_CODE:HUGECODE:NOROOT(0)
?Subroutine21:
          CFI Block cfiCond366 Using cfiCommon0
          CFI Function afBuildMSGIncoming
          CFI Conditional ??CrossCallReturnLabel_36
          CFI R6 load(1, XDATA, add(CFA_XSP16, literal(-16)))
          CFI VB load(1, XDATA, add(CFA_XSP16, literal(-15)))
          CFI V0 load(1, XDATA, add(CFA_XSP16, literal(-14)))
          CFI V1 load(1, XDATA, add(CFA_XSP16, literal(-13)))
          CFI V2 load(1, XDATA, add(CFA_XSP16, literal(-12)))
          CFI V3 load(1, XDATA, add(CFA_XSP16, literal(-11)))
          CFI V4 load(1, XDATA, add(CFA_XSP16, literal(-10)))
          CFI V5 load(1, XDATA, add(CFA_XSP16, literal(-9)))
          CFI V6 load(1, XDATA, add(CFA_XSP16, literal(-8)))
          CFI V7 load(1, XDATA, add(CFA_XSP16, literal(-7)))
          CFI R7 load(1, XDATA, add(CFA_XSP16, literal(-6)))
          CFI ?RET_LOW load(1, XDATA, add(CFA_XSP16, literal(-5)))
          CFI ?RET_HIGH load(1, XDATA, add(CFA_XSP16, literal(-4)))
          CFI ?BRET_EXT load(1, XDATA, add(CFA_XSP16, literal(-3)))
          CFI DPL0 load(1, XDATA, add(CFA_XSP16, literal(-2)))
          CFI DPH0 load(1, XDATA, add(CFA_XSP16, literal(-1)))
          CFI CFA_SP SP+-2
          CFI CFA_XSP16 add(XSP16, 19)
          CFI Block cfiCond367 Using cfiCommon0
          CFI (cfiCond367) Function afNumEndPoints
          CFI (cfiCond367) Conditional ??CrossCallReturnLabel_37
          CFI (cfiCond367) DPL0 Frame(CFA_SP, 4)
          CFI (cfiCond367) DPH0 Frame(CFA_SP, 5)
          CFI (cfiCond367) CFA_SP SP+-7
          CFI Block cfiPicker368 Using cfiCommon1
          CFI (cfiPicker368) NoFunction
          CFI (cfiPicker368) Picker
        LCALL     ?Subroutine45 & 0xFFFF
??CrossCallReturnLabel_79:
        RET
          CFI EndBlock cfiCond366
          CFI EndBlock cfiCond367
          CFI EndBlock cfiPicker368

        RSEG BANKED_CODE:HUGECODE:NOROOT(0)
?Subroutine45:
          CFI Block cfiCond369 Using cfiCommon0
          CFI Function AF_DataRequest
          CFI Conditional ??CrossCallReturnLabel_80, ??CrossCallReturnLabel_6
          CFI R6 load(1, XDATA, add(CFA_XSP16, literal(-16)))
          CFI VB load(1, XDATA, add(CFA_XSP16, literal(-15)))
          CFI V0 load(1, XDATA, add(CFA_XSP16, literal(-14)))
          CFI V1 load(1, XDATA, add(CFA_XSP16, literal(-13)))
          CFI V2 load(1, XDATA, add(CFA_XSP16, literal(-12)))
          CFI V3 load(1, XDATA, add(CFA_XSP16, literal(-11)))
          CFI V4 load(1, XDATA, add(CFA_XSP16, literal(-10)))
          CFI V5 load(1, XDATA, add(CFA_XSP16, literal(-9)))
          CFI V6 load(1, XDATA, add(CFA_XSP16, literal(-8)))
          CFI V7 load(1, XDATA, add(CFA_XSP16, literal(-7)))
          CFI R7 load(1, XDATA, add(CFA_XSP16, literal(-6)))
          CFI ?RET_LOW load(1, XDATA, add(CFA_XSP16, literal(-5)))
          CFI ?RET_HIGH load(1, XDATA, add(CFA_XSP16, literal(-4)))
          CFI ?BRET_EXT load(1, XDATA, add(CFA_XSP16, literal(-3)))
          CFI DPL0 load(1, XDATA, add(CFA_XSP16, literal(-2)))
          CFI DPH0 load(1, XDATA, add(CFA_XSP16, literal(-1)))
          CFI CFA_SP SP+-4
          CFI CFA_XSP16 add(XSP16, 49)
          CFI Block cfiCond370 Using cfiCommon0
          CFI (cfiCond370) Function AF_DataRequest
          CFI (cfiCond370) Conditional ??CrossCallReturnLabel_80, ??CrossCallReturnLabel_7
          CFI (cfiCond370) R6 load(1, XDATA, add(CFA_XSP16, literal(-16)))
          CFI (cfiCond370) VB load(1, XDATA, add(CFA_XSP16, literal(-15)))
          CFI (cfiCond370) V0 load(1, XDATA, add(CFA_XSP16, literal(-14)))
          CFI (cfiCond370) V1 load(1, XDATA, add(CFA_XSP16, literal(-13)))
          CFI (cfiCond370) V2 load(1, XDATA, add(CFA_XSP16, literal(-12)))
          CFI (cfiCond370) V3 load(1, XDATA, add(CFA_XSP16, literal(-11)))
          CFI (cfiCond370) V4 load(1, XDATA, add(CFA_XSP16, literal(-10)))
          CFI (cfiCond370) V5 load(1, XDATA, add(CFA_XSP16, literal(-9)))
          CFI (cfiCond370) V6 load(1, XDATA, add(CFA_XSP16, literal(-8)))
          CFI (cfiCond370) V7 load(1, XDATA, add(CFA_XSP16, literal(-7)))
          CFI (cfiCond370) R7 load(1, XDATA, add(CFA_XSP16, literal(-6)))
          CFI (cfiCond370) ?RET_LOW load(1, XDATA, add(CFA_XSP16, literal(-5)))
          CFI (cfiCond370) ?RET_HIGH load(1, XDATA, add(CFA_XSP16, literal(-4)))
          CFI (cfiCond370) ?BRET_EXT load(1, XDATA, add(CFA_XSP16, literal(-3)))
          CFI (cfiCond370) DPL0 load(1, XDATA, add(CFA_XSP16, literal(-2)))
          CFI (cfiCond370) DPH0 load(1, XDATA, add(CFA_XSP16, literal(-1)))
          CFI (cfiCond370) CFA_SP SP+-4
          CFI (cfiCond370) CFA_XSP16 add(XSP16, 49)
          CFI Block cfiCond371 Using cfiCommon0
          CFI (cfiCond371) Function afFindSimpleDesc
          CFI (cfiCond371) Conditional ??CrossCallReturnLabel_80, ??CrossCallReturnLabel_8
          CFI (cfiCond371) R6 load(1, XDATA, add(CFA_XSP16, literal(-12)))
          CFI (cfiCond371) VB load(1, XDATA, add(CFA_XSP16, literal(-11)))
          CFI (cfiCond371) V0 load(1, XDATA, add(CFA_XSP16, literal(-10)))
          CFI (cfiCond371) V1 load(1, XDATA, add(CFA_XSP16, literal(-9)))
          CFI (cfiCond371) V2 load(1, XDATA, add(CFA_XSP16, literal(-8)))
          CFI (cfiCond371) V3 load(1, XDATA, add(CFA_XSP16, literal(-7)))
          CFI (cfiCond371) R7 load(1, XDATA, add(CFA_XSP16, literal(-6)))
          CFI (cfiCond371) ?RET_LOW load(1, XDATA, add(CFA_XSP16, literal(-5)))
          CFI (cfiCond371) ?RET_HIGH load(1, XDATA, add(CFA_XSP16, literal(-4)))
          CFI (cfiCond371) ?BRET_EXT load(1, XDATA, add(CFA_XSP16, literal(-3)))
          CFI (cfiCond371) DPL0 load(1, XDATA, add(CFA_XSP16, literal(-2)))
          CFI (cfiCond371) DPH0 load(1, XDATA, add(CFA_XSP16, literal(-1)))
          CFI (cfiCond371) CFA_SP SP+-4
          CFI (cfiCond371) CFA_XSP16 add(XSP16, 12)
          CFI Block cfiCond372 Using cfiCommon0
          CFI (cfiCond372) Function afBuildMSGIncoming
          CFI (cfiCond372) Conditional ??CrossCallReturnLabel_79, ??CrossCallReturnLabel_36
          CFI (cfiCond372) R6 load(1, XDATA, add(CFA_XSP16, literal(-16)))
          CFI (cfiCond372) VB load(1, XDATA, add(CFA_XSP16, literal(-15)))
          CFI (cfiCond372) V0 load(1, XDATA, add(CFA_XSP16, literal(-14)))
          CFI (cfiCond372) V1 load(1, XDATA, add(CFA_XSP16, literal(-13)))
          CFI (cfiCond372) V2 load(1, XDATA, add(CFA_XSP16, literal(-12)))
          CFI (cfiCond372) V3 load(1, XDATA, add(CFA_XSP16, literal(-11)))
          CFI (cfiCond372) V4 load(1, XDATA, add(CFA_XSP16, literal(-10)))
          CFI (cfiCond372) V5 load(1, XDATA, add(CFA_XSP16, literal(-9)))
          CFI (cfiCond372) V6 load(1, XDATA, add(CFA_XSP16, literal(-8)))
          CFI (cfiCond372) V7 load(1, XDATA, add(CFA_XSP16, literal(-7)))
          CFI (cfiCond372) R7 load(1, XDATA, add(CFA_XSP16, literal(-6)))
          CFI (cfiCond372) ?RET_LOW load(1, XDATA, add(CFA_XSP16, literal(-5)))
          CFI (cfiCond372) ?RET_HIGH load(1, XDATA, add(CFA_XSP16, literal(-4)))
          CFI (cfiCond372) ?BRET_EXT load(1, XDATA, add(CFA_XSP16, literal(-3)))
          CFI (cfiCond372) DPL0 load(1, XDATA, add(CFA_XSP16, literal(-2)))
          CFI (cfiCond372) DPH0 load(1, XDATA, add(CFA_XSP16, literal(-1)))
          CFI (cfiCond372) CFA_SP SP+-4
          CFI (cfiCond372) CFA_XSP16 add(XSP16, 19)
          CFI Block cfiCond373 Using cfiCommon0
          CFI (cfiCond373) Function afNumEndPoints
          CFI (cfiCond373) Conditional ??CrossCallReturnLabel_79, ??CrossCallReturnLabel_37
          CFI (cfiCond373) DPL0 Frame(CFA_SP, 4)
          CFI (cfiCond373) DPH0 Frame(CFA_SP, 5)
          CFI (cfiCond373) CFA_SP SP+-9
          CFI Block cfiPicker374 Using cfiCommon1
          CFI (cfiPicker374) NoFunction
          CFI (cfiPicker374) Picker
        MOVX      A,@DPTR
        MOV       R0,A
        INC       DPTR
        MOVX      A,@DPTR
        MOV       R1,A
        MOV       DPL,R0
        MOV       DPH,R1
        RET
          CFI EndBlock cfiCond369
          CFI EndBlock cfiCond370
          CFI EndBlock cfiCond371
          CFI EndBlock cfiCond372
          CFI EndBlock cfiCond373
          CFI EndBlock cfiPicker374
// 1135 
// 1136 /*********************************************************************
// 1137  * @fn      afEndPoints
// 1138  *
// 1139  * @brief   Fills in the passed in buffer with the endpoint (numbers).
// 1140  *          Use afNumEndPoints to find out how big a buffer to supply.
// 1141  *
// 1142  * @param   epBuf - pointer to mem used
// 1143  *
// 1144  * @return  void
// 1145  */

        RSEG BANKED_CODE:HUGECODE:NOROOT(0)
// 1146 void afEndPoints( uint8 *epBuf, uint8 skipZDO )
afEndPoints:
          CFI Block cfiBlock375 Using cfiCommon0
          CFI Function afEndPoints
        CODE
// 1147 {
        PUSH      DPL
          CFI DPL0 Frame(CFA_SP, 4)
          CFI CFA_SP SP+-4
        PUSH      DPH
          CFI DPH0 Frame(CFA_SP, 5)
          CFI CFA_SP SP+-5
        ; Saved register size: 2
        ; Auto size: 0
        MOV       A,R1
        MOV       R4,A
// 1148   epList_t *epSearch;
// 1149   uint8 endPoint;
// 1150 
// 1151   // Start at the beginning
// 1152   epSearch = epList;
        MOV       DPTR,#epList
        SJMP      ??afEndPoints_0
// 1153 
// 1154   while ( epSearch )
// 1155   {
// 1156     endPoint = epSearch->epDesc->endPoint;
??afEndPoints_1:
        MOV       DPL,R0
        MOV       DPH,R1
        INC       DPTR
        INC       DPTR
        MOVX      A,@DPTR
        MOV       R5,A
        INC       DPTR
        MOVX      A,@DPTR
        MOV       DPH,A
        MOV       DPL,R5
        MOVX      A,@DPTR
        MOV       R5,A
// 1157 
// 1158     if ( !skipZDO || endPoint != 0 )
        MOV       A,R4
        JZ        ??afEndPoints_2
        MOV       A,R5
        JZ        ??afEndPoints_3
// 1159       *epBuf++ = endPoint;
??afEndPoints_2:
        MOV       A,R5
        MOV       DPL,R2
        MOV       DPH,R3
        MOVX      @DPTR,A
        INC       DPTR
        MOV       R2,DPL
        MOV       R3,DPH
// 1160 
// 1161     epSearch = epSearch->nextDesc;
??afEndPoints_3:
        MOV       DPL,R0
        MOV       DPH,R1
// 1162   }
??afEndPoints_0:
        LCALL     ?Subroutine8 & 0xFFFF
??CrossCallReturnLabel_1:
        JNZ       ??afEndPoints_1
// 1163 }
        LJMP      ?Subroutine6 & 0xFFFF
          CFI EndBlock cfiBlock375
// 1164 
// 1165 /*********************************************************************
// 1166  * @fn      afCopyAddress
// 1167  *
// 1168  * @brief   Fills in the passed in afAddrType_t parameter with the corresponding information
// 1169  *          from the zAddrType_t parameter.
// 1170  *
// 1171  * @param   epBuf - pointer to mem used
// 1172  *
// 1173  * @return  void
// 1174  */

        RSEG BANKED_CODE:HUGECODE:NOROOT(0)
// 1175 void afCopyAddress( afAddrType_t *afAddr, zAddrType_t *zAddr )
afCopyAddress:
          CFI Block cfiBlock376 Using cfiCommon0
          CFI Function afCopyAddress
        CODE
// 1176 {
        FUNCALL afCopyAddress, sAddrExtCpy
        LOCFRAME ISTACK, 0, STACK
        LOCFRAME PSTACK, 0, STACK
        LOCFRAME XSTACK, 9, STACK
        LOCFRAME IOVERLAY, 0, STATIC
        LOCFRAME DOVERLAY, 0, STATIC
        ARGFRAME ISTACK, 0, STACK
        ARGFRAME PSTACK, 0, STACK
        ARGFRAME XSTACK, 9, STACK
        ARGFRAME IOVERLAY, 0, STATIC
        ARGFRAME DOVERLAY, 0, STATIC
        MOV       A,#-0x9
        LCALL     ?BANKED_ENTER_XDATA
          CFI DPH0 load(1, XDATA, add(CFA_XSP16, literal(-1)))
          CFI DPL0 load(1, XDATA, add(CFA_XSP16, literal(-2)))
          CFI ?BRET_EXT load(1, XDATA, add(CFA_XSP16, literal(-3)))
          CFI ?RET_HIGH load(1, XDATA, add(CFA_XSP16, literal(-4)))
          CFI ?RET_LOW load(1, XDATA, add(CFA_XSP16, literal(-5)))
          CFI R7 load(1, XDATA, add(CFA_XSP16, literal(-6)))
          CFI V0 load(1, XDATA, add(CFA_XSP16, literal(-7)))
          CFI VB load(1, XDATA, add(CFA_XSP16, literal(-8)))
          CFI R6 load(1, XDATA, add(CFA_XSP16, literal(-9)))
          CFI CFA_SP SP+0
          CFI CFA_XSP16 add(XSP16, 9)
        ; Saved register size: 9
        ; Auto size: 0
        MOV       A,R2
        MOV       R6,A
        MOV       A,R3
        MOV       R7,A
// 1177   afAddr->addrMode = (afAddrMode_t)zAddr->addrMode;
        MOV       A,R4
        ADD       A,#0x8
        MOV       R0,A
        CLR       A
        ADDC      A,R5
        MOV       R1,A
        MOV       DPL,R0
        MOV       DPH,R1
        MOVX      A,@DPTR
        MOV       DPL,R6
        MOV       DPH,R7
        INC       DPTR
        INC       DPTR
        INC       DPTR
        INC       DPTR
        INC       DPTR
        INC       DPTR
        INC       DPTR
        INC       DPTR
        MOVX      @DPTR,A
// 1178   if ( zAddr->addrMode == Addr64Bit )
        MOV       DPL,R0
        MOV       DPH,R1
        MOVX      A,@DPTR
        XRL       A,#0x3
        JNZ       ??afCopyAddress_0
// 1179   {
// 1180     (void)osal_cpyExtAddr( afAddr->addr.extAddr, zAddr->addr.extAddr );
        ; Setup parameters for call to function sAddrExtCpy
        LCALL     `??sAddrExtCpy::?relay`; Banked call to: sAddrExtCpy
        SJMP      ??CrossCallReturnLabel_19
// 1181   }
// 1182   else
// 1183   {
// 1184     afAddr->addr.shortAddr = zAddr->addr.shortAddr;
??afCopyAddress_0:
        MOV       DPL,R4
        MOV       DPH,R5
        LCALL     ?Subroutine15 & 0xFFFF
// 1185   }
// 1186 
// 1187   // Since zAddrType_t has no INTER-PAN information, set the panId member to zero.
// 1188   afAddr->panId = 0;
??CrossCallReturnLabel_19:
        MOV       DPL,R6
        MOV       DPH,R7
        INC       DPTR
        INC       DPTR
        INC       DPTR
        INC       DPTR
        INC       DPTR
        INC       DPTR
        INC       DPTR
        INC       DPTR
        INC       DPTR
        INC       DPTR
        CLR       A
        MOVX      @DPTR,A
        INC       DPTR
        MOVX      @DPTR,A
// 1189 }
        LJMP      ?Subroutine2 & 0xFFFF
          CFI EndBlock cfiBlock376

        RSEG BANKED_CODE:HUGECODE:NOROOT(0)
?Subroutine15:
          CFI Block cfiCond377 Using cfiCommon0
          CFI Function afRegisterExtended
          CFI Conditional ??CrossCallReturnLabel_18
          CFI R6 load(1, XDATA, add(CFA_XSP16, literal(-14)))
          CFI VB load(1, XDATA, add(CFA_XSP16, literal(-13)))
          CFI V0 load(1, XDATA, add(CFA_XSP16, literal(-12)))
          CFI V1 load(1, XDATA, add(CFA_XSP16, literal(-11)))
          CFI V2 load(1, XDATA, add(CFA_XSP16, literal(-10)))
          CFI V3 load(1, XDATA, add(CFA_XSP16, literal(-9)))
          CFI V4 load(1, XDATA, add(CFA_XSP16, literal(-8)))
          CFI V5 load(1, XDATA, add(CFA_XSP16, literal(-7)))
          CFI R7 load(1, XDATA, add(CFA_XSP16, literal(-6)))
          CFI ?RET_LOW load(1, XDATA, add(CFA_XSP16, literal(-5)))
          CFI ?RET_HIGH load(1, XDATA, add(CFA_XSP16, literal(-4)))
          CFI ?BRET_EXT load(1, XDATA, add(CFA_XSP16, literal(-3)))
          CFI DPL0 load(1, XDATA, add(CFA_XSP16, literal(-2)))
          CFI DPH0 load(1, XDATA, add(CFA_XSP16, literal(-1)))
          CFI CFA_SP SP+-2
          CFI CFA_XSP16 add(XSP16, 14)
          CFI Block cfiCond378 Using cfiCommon0
          CFI (cfiCond378) Function afCopyAddress
          CFI (cfiCond378) Conditional ??CrossCallReturnLabel_19
          CFI (cfiCond378) R6 load(1, XDATA, add(CFA_XSP16, literal(-9)))
          CFI (cfiCond378) VB load(1, XDATA, add(CFA_XSP16, literal(-8)))
          CFI (cfiCond378) V0 load(1, XDATA, add(CFA_XSP16, literal(-7)))
          CFI (cfiCond378) R7 load(1, XDATA, add(CFA_XSP16, literal(-6)))
          CFI (cfiCond378) ?RET_LOW load(1, XDATA, add(CFA_XSP16, literal(-5)))
          CFI (cfiCond378) ?RET_HIGH load(1, XDATA, add(CFA_XSP16, literal(-4)))
          CFI (cfiCond378) ?BRET_EXT load(1, XDATA, add(CFA_XSP16, literal(-3)))
          CFI (cfiCond378) DPL0 load(1, XDATA, add(CFA_XSP16, literal(-2)))
          CFI (cfiCond378) DPH0 load(1, XDATA, add(CFA_XSP16, literal(-1)))
          CFI (cfiCond378) CFA_SP SP+-2
          CFI (cfiCond378) CFA_XSP16 add(XSP16, 9)
          CFI Block cfiPicker379 Using cfiCommon1
          CFI (cfiPicker379) NoFunction
          CFI (cfiPicker379) Picker
        LCALL     ?Subroutine42 & 0xFFFF
??CrossCallReturnLabel_132:
        MOV       A,R0
        MOVX      @DPTR,A
        INC       DPTR
        MOV       A,R1
        MOVX      @DPTR,A
        RET
          CFI EndBlock cfiCond377
          CFI EndBlock cfiCond378
          CFI EndBlock cfiPicker379
// 1190 
// 1191 /**************************************************************************************************
// 1192  * @fn          afAPSF_ConfigGet
// 1193  *
// 1194  * @brief       This function ascertains the fragmentation configuration that corresponds to
// 1195  *              the specified EndPoint.
// 1196  *
// 1197  * input parameters
// 1198  *
// 1199  * @param       endPoint - The source EP of a Tx or destination EP of a Rx fragmented message.
// 1200  *
// 1201  * output parameters
// 1202  *
// 1203  * @param       pCfg - A pointer to an APSF configuration structure to fill with values.
// 1204  *
// 1205  * @return      None.
// 1206  */

        RSEG BANKED_CODE:HUGECODE:NOROOT(0)
// 1207 void afAPSF_ConfigGet(uint8 endPoint, afAPSF_Config_t *pCfg)
afAPSF_ConfigGet:
          CFI Block cfiBlock380 Using cfiCommon0
          CFI Function afAPSF_ConfigGet
        CODE
// 1208 {
        FUNCALL afAPSF_ConfigGet, afFindEndPointDescList
        LOCFRAME ISTACK, 0, STACK
        LOCFRAME PSTACK, 0, STACK
        LOCFRAME XSTACK, 12, STACK
        LOCFRAME IOVERLAY, 0, STATIC
        LOCFRAME DOVERLAY, 0, STATIC
        ARGFRAME ISTACK, 0, STACK
        ARGFRAME PSTACK, 0, STACK
        ARGFRAME XSTACK, 12, STACK
        ARGFRAME IOVERLAY, 0, STATIC
        ARGFRAME DOVERLAY, 0, STATIC
        FUNCALL afAPSF_ConfigGet, osal_memcpy
        LOCFRAME ISTACK, 0, STACK
        LOCFRAME PSTACK, 0, STACK
        LOCFRAME XSTACK, 15, STACK
        LOCFRAME IOVERLAY, 0, STATIC
        LOCFRAME DOVERLAY, 0, STATIC
        ARGFRAME ISTACK, 0, STACK
        ARGFRAME PSTACK, 0, STACK
        ARGFRAME XSTACK, 15, STACK
        ARGFRAME IOVERLAY, 0, STATIC
        ARGFRAME DOVERLAY, 0, STATIC
        REQUIRE ?V0
        REQUIRE ?V1
        REQUIRE ?V2
        REQUIRE ?V3
        MOV       A,#-0xc
        LCALL     ?BANKED_ENTER_XDATA
          CFI DPH0 load(1, XDATA, add(CFA_XSP16, literal(-1)))
          CFI DPL0 load(1, XDATA, add(CFA_XSP16, literal(-2)))
          CFI ?BRET_EXT load(1, XDATA, add(CFA_XSP16, literal(-3)))
          CFI ?RET_HIGH load(1, XDATA, add(CFA_XSP16, literal(-4)))
          CFI ?RET_LOW load(1, XDATA, add(CFA_XSP16, literal(-5)))
          CFI R7 load(1, XDATA, add(CFA_XSP16, literal(-6)))
          CFI V3 load(1, XDATA, add(CFA_XSP16, literal(-7)))
          CFI V2 load(1, XDATA, add(CFA_XSP16, literal(-8)))
          CFI V1 load(1, XDATA, add(CFA_XSP16, literal(-9)))
          CFI V0 load(1, XDATA, add(CFA_XSP16, literal(-10)))
          CFI VB load(1, XDATA, add(CFA_XSP16, literal(-11)))
          CFI R6 load(1, XDATA, add(CFA_XSP16, literal(-12)))
          CFI CFA_SP SP+0
          CFI CFA_XSP16 add(XSP16, 12)
        ; Saved register size: 12
        ; Auto size: 0
        MOV       A,R2
        MOV       R6,A
        MOV       A,R3
        MOV       R7,A
// 1209   epList_t *pList = afFindEndPointDescList(endPoint);
        ; Setup parameters for call to function afFindEndPointDescList
        LCALL     `??afFindEndPointDescList::?relay`; Banked call to: afFindEndPointDescList
        MOV       ?V0,R2
        MOV       ?V1,R3
        MOV       R0,?V0
        MOV       R1,?V1
// 1210 
// 1211   if (pList == NULL)
        MOV       A,R0
        ORL       A,R1
        JNZ       ??afAPSF_ConfigGet_0
// 1212   {
// 1213     pCfg->frameDelay = APSF_DEFAULT_INTERFRAME_DELAY;
        MOV       DPL,R6
        MOV       DPH,R7
        MOV       A,#0x32
        MOVX      @DPTR,A
// 1214     pCfg->windowSize = APSF_DEFAULT_WINDOW_SIZE;
        INC       DPTR
        MOV       A,#0x1
        MOVX      @DPTR,A
        SJMP      ??afAPSF_ConfigGet_1
// 1215   }
// 1216   else
// 1217   {
// 1218     (void)osal_memcpy(pCfg, &pList->apsfCfg, sizeof(afAPSF_Config_t));
??afAPSF_ConfigGet_0:
        ; Setup parameters for call to function osal_memcpy
        MOV       A,R0
        ADD       A,#0x6
        MOV       ?V0,A
        CLR       A
        ADDC      A,R1
        MOV       ?V1,A
        MOV       ?V2,#0x0
        MOV       R0,#?V0
        LCALL     ?PUSH_XSTACK_I_THREE
          CFI CFA_XSP16 add(XSP16, 15)
        MOV       R4,#0x2
        MOV       R5,#0x0
        MOV       A,R6
        MOV       R2,A
        MOV       A,R7
        MOV       R3,A
        LCALL     `??osal_memcpy::?relay`; Banked call to: osal_memcpy
        MOV       A,#0x3
        LCALL     ?DEALLOC_XSTACK8
          CFI CFA_XSP16 add(XSP16, 12)
// 1219   }
// 1220 }
??afAPSF_ConfigGet_1:
          CFI EndBlock cfiBlock380
        REQUIRE ?Subroutine5
        ; // Fall through to label ?Subroutine5

        RSEG BANKED_CODE:HUGECODE:NOROOT(0)
?Subroutine5:
          CFI Block cfiBlock381 Using cfiCommon0
          CFI NoFunction
          CFI CFA_SP SP+0
          CFI CFA_XSP16 add(XSP16, 12)
          CFI VB load(1, XDATA, add(CFA_XSP16, literal(-11)))
          CFI DPL0 load(1, XDATA, add(CFA_XSP16, literal(-2)))
          CFI DPH0 load(1, XDATA, add(CFA_XSP16, literal(-1)))
          CFI R6 load(1, XDATA, add(CFA_XSP16, literal(-12)))
          CFI R7 load(1, XDATA, add(CFA_XSP16, literal(-6)))
          CFI V0 load(1, XDATA, add(CFA_XSP16, literal(-10)))
          CFI V1 load(1, XDATA, add(CFA_XSP16, literal(-9)))
          CFI V2 load(1, XDATA, add(CFA_XSP16, literal(-8)))
          CFI V3 load(1, XDATA, add(CFA_XSP16, literal(-7)))
          CFI ?BRET_EXT load(1, XDATA, add(CFA_XSP16, literal(-3)))
          CFI ?RET_HIGH load(1, XDATA, add(CFA_XSP16, literal(-4)))
          CFI ?RET_LOW load(1, XDATA, add(CFA_XSP16, literal(-5)))
        MOV       R7,#0x4
        LJMP      ?BANKED_LEAVE_XDATA
          CFI EndBlock cfiBlock381
// 1221 
// 1222 /**************************************************************************************************
// 1223  * @fn          afAPSF_ConfigSet
// 1224  *
// 1225  * @brief       This function attempts to set the fragmentation configuration that corresponds to
// 1226  *              the specified EndPoint.
// 1227  *
// 1228  * input parameters
// 1229  *
// 1230  * @param       endPoint - The specific EndPoint for which to set the fragmentation configuration.
// 1231  * @param       pCfg - A pointer to an APSF configuration structure to fill with values.
// 1232  *
// 1233  * output parameters
// 1234  *
// 1235  * None.
// 1236  *
// 1237  * @return      afStatus_SUCCESS for success.
// 1238  *              afStatus_INVALID_PARAMETER if the specified EndPoint is not registered.
// 1239  */

        RSEG BANKED_CODE:HUGECODE:NOROOT(0)
// 1240 afStatus_t afAPSF_ConfigSet(uint8 endPoint, afAPSF_Config_t *pCfg)
afAPSF_ConfigSet:
          CFI Block cfiBlock382 Using cfiCommon0
          CFI Function afAPSF_ConfigSet
        CODE
// 1241 {
        FUNCALL afAPSF_ConfigSet, afFindEndPointDescList
        LOCFRAME ISTACK, 0, STACK
        LOCFRAME PSTACK, 0, STACK
        LOCFRAME XSTACK, 15, STACK
        LOCFRAME IOVERLAY, 0, STATIC
        LOCFRAME DOVERLAY, 0, STATIC
        ARGFRAME ISTACK, 0, STACK
        ARGFRAME PSTACK, 0, STACK
        ARGFRAME XSTACK, 15, STACK
        ARGFRAME IOVERLAY, 0, STATIC
        ARGFRAME DOVERLAY, 0, STATIC
        FUNCALL afAPSF_ConfigSet, osal_memcpy
        LOCFRAME ISTACK, 0, STACK
        LOCFRAME PSTACK, 0, STACK
        LOCFRAME XSTACK, 18, STACK
        LOCFRAME IOVERLAY, 0, STATIC
        LOCFRAME DOVERLAY, 0, STATIC
        ARGFRAME ISTACK, 0, STACK
        ARGFRAME PSTACK, 0, STACK
        ARGFRAME XSTACK, 18, STACK
        ARGFRAME IOVERLAY, 0, STATIC
        ARGFRAME DOVERLAY, 0, STATIC
        REQUIRE ?V0
        REQUIRE ?V2
        REQUIRE ?V3
        REQUIRE ?V4
        REQUIRE ?V5
        REQUIRE ?V6
        MOV       A,#-0xf
        LCALL     ?BANKED_ENTER_XDATA
          CFI DPH0 load(1, XDATA, add(CFA_XSP16, literal(-1)))
          CFI DPL0 load(1, XDATA, add(CFA_XSP16, literal(-2)))
          CFI ?BRET_EXT load(1, XDATA, add(CFA_XSP16, literal(-3)))
          CFI ?RET_HIGH load(1, XDATA, add(CFA_XSP16, literal(-4)))
          CFI ?RET_LOW load(1, XDATA, add(CFA_XSP16, literal(-5)))
          CFI R7 load(1, XDATA, add(CFA_XSP16, literal(-6)))
          CFI V6 load(1, XDATA, add(CFA_XSP16, literal(-7)))
          CFI V5 load(1, XDATA, add(CFA_XSP16, literal(-8)))
          CFI V4 load(1, XDATA, add(CFA_XSP16, literal(-9)))
          CFI V3 load(1, XDATA, add(CFA_XSP16, literal(-10)))
          CFI V2 load(1, XDATA, add(CFA_XSP16, literal(-11)))
          CFI V1 load(1, XDATA, add(CFA_XSP16, literal(-12)))
          CFI V0 load(1, XDATA, add(CFA_XSP16, literal(-13)))
          CFI VB load(1, XDATA, add(CFA_XSP16, literal(-14)))
          CFI R6 load(1, XDATA, add(CFA_XSP16, literal(-15)))
          CFI CFA_SP SP+0
          CFI CFA_XSP16 add(XSP16, 15)
        ; Saved register size: 15
        ; Auto size: 0
        MOV       A,R2
        MOV       R6,A
        MOV       A,R3
        MOV       R7,A
// 1242   epList_t *pList = afFindEndPointDescList(endPoint);
        ; Setup parameters for call to function afFindEndPointDescList
        LCALL     `??afFindEndPointDescList::?relay`; Banked call to: afFindEndPointDescList
// 1243 
// 1244   if (pList == NULL)
        MOV       A,R2
        ORL       A,R3
        JNZ       ??afAPSF_ConfigSet_0
// 1245   {
// 1246     return afStatus_INVALID_PARAMETER;
        MOV       R1,#0x2
        SJMP      ??afAPSF_ConfigSet_1
// 1247   }
// 1248 
// 1249   (void)osal_memcpy(&pList->apsfCfg, pCfg, sizeof(afAPSF_Config_t));
??afAPSF_ConfigSet_0:
        ; Setup parameters for call to function osal_memcpy
        MOV       ?V4,R6
        MOV       ?V5,R7
        MOV       ?V6,#0x0
        MOV       R0,#?V4
        LCALL     ?PUSH_XSTACK_I_THREE
          CFI CFA_XSP16 add(XSP16, 18)
        MOV       R4,#0x2
        MOV       R5,#0x0
        MOV       A,R2
        ADD       A,#0x6
        MOV       R2,A
        JNC       ??afAPSF_ConfigSet_2
        INC       R3
??afAPSF_ConfigSet_2:
        LCALL     `??osal_memcpy::?relay`; Banked call to: osal_memcpy
        MOV       A,#0x3
        LCALL     ?DEALLOC_XSTACK8
          CFI CFA_XSP16 add(XSP16, 15)
// 1250   return afStatus_SUCCESS;
        MOV       R1,#0x0
??afAPSF_ConfigSet_1:
        LJMP      ?Subroutine4 & 0xFFFF
// 1251 }
          CFI EndBlock cfiBlock382
// 1252 
// 1253 /**************************************************************************************************
// 1254  * @fn          afSetApplCB
// 1255  *
// 1256  * @brief       Sets the pointer to the Application Callback function for a
// 1257  *              specific EndPoint.
// 1258  *
// 1259  * input parameters
// 1260  *
// 1261  * @param       endPoint - The specific EndPoint for which to set Application Callback.
// 1262  * @param       pApplFn - A pointer to the Application Callback function.
// 1263  *
// 1264  * output parameters
// 1265  *
// 1266  * None.
// 1267  *
// 1268  * @return      TRUE if success, FALSE if endpoint not found
// 1269  */

        RSEG BANKED_CODE:HUGECODE:NOROOT(0)
// 1270 uint8 afSetApplCB( uint8 endPoint, pApplCB pApplFn )
afSetApplCB:
          CFI Block cfiBlock383 Using cfiCommon0
          CFI Function afSetApplCB
        CODE
// 1271 {
        FUNCALL afSetApplCB, afFindEndPointDescList
        LOCFRAME ISTACK, 0, STACK
        LOCFRAME PSTACK, 0, STACK
        LOCFRAME XSTACK, 12, STACK
        LOCFRAME IOVERLAY, 0, STATIC
        LOCFRAME DOVERLAY, 0, STATIC
        ARGFRAME ISTACK, 0, STACK
        ARGFRAME PSTACK, 0, STACK
        ARGFRAME XSTACK, 12, STACK
        ARGFRAME IOVERLAY, 0, STATIC
        ARGFRAME DOVERLAY, 0, STATIC
        REQUIRE ?V0
        REQUIRE ?V2
        REQUIRE ?V3
        MOV       A,#-0xc
        LCALL     ?BANKED_ENTER_XDATA
          CFI DPH0 load(1, XDATA, add(CFA_XSP16, literal(-1)))
          CFI DPL0 load(1, XDATA, add(CFA_XSP16, literal(-2)))
          CFI ?BRET_EXT load(1, XDATA, add(CFA_XSP16, literal(-3)))
          CFI ?RET_HIGH load(1, XDATA, add(CFA_XSP16, literal(-4)))
          CFI ?RET_LOW load(1, XDATA, add(CFA_XSP16, literal(-5)))
          CFI R7 load(1, XDATA, add(CFA_XSP16, literal(-6)))
          CFI V3 load(1, XDATA, add(CFA_XSP16, literal(-7)))
          CFI V2 load(1, XDATA, add(CFA_XSP16, literal(-8)))
          CFI V1 load(1, XDATA, add(CFA_XSP16, literal(-9)))
          CFI V0 load(1, XDATA, add(CFA_XSP16, literal(-10)))
          CFI VB load(1, XDATA, add(CFA_XSP16, literal(-11)))
          CFI R6 load(1, XDATA, add(CFA_XSP16, literal(-12)))
          CFI CFA_SP SP+0
          CFI CFA_XSP16 add(XSP16, 12)
        ; Saved register size: 12
        ; Auto size: 0
        MOV       A,R2
        MOV       R6,A
        MOV       A,R3
        MOV       R7,A
// 1272   if ( pApplFn != NULL )
        MOV       A,R6
        ORL       A,R7
        JZ        ??afSetApplCB_0
// 1273   {
// 1274     epList_t *epSearch;
// 1275 
// 1276     // Look for the endpoint
// 1277     epSearch = afFindEndPointDescList( endPoint );
        ; Setup parameters for call to function afFindEndPointDescList
        LCALL     `??afFindEndPointDescList::?relay`; Banked call to: afFindEndPointDescList
        MOV       DPL,R2
        MOV       DPH,R3
// 1278 
// 1279     if ( epSearch )
        MOV       A,DPL
        ORL       A,DPH
        JZ        ??afSetApplCB_0
// 1280     {
// 1281       epSearch->pfnApplCB = pApplFn;
        INC       DPTR
        INC       DPTR
        INC       DPTR
        INC       DPTR
        INC       DPTR
        INC       DPTR
        INC       DPTR
        INC       DPTR
        INC       DPTR
        MOV       A,R6
        MOVX      @DPTR,A
        INC       DPTR
        MOV       A,R7
        MOVX      @DPTR,A
// 1282 
// 1283       return ( TRUE );
        MOV       R1,#0x1
        SJMP      ??afSetApplCB_1
// 1284     }
// 1285   }
// 1286 
// 1287   return ( FALSE );
??afSetApplCB_0:
        MOV       R1,#0x0
??afSetApplCB_1:
        SJMP      ?Subroutine5
// 1288 }
          CFI EndBlock cfiBlock383

        RSEG XDATA_ID:CODE:NOROOT(0)
`?<Initializer for AF_DataRequestDiscoverRoute>`:
        DATA8
        DB 1

        RSEG BANK_RELAYS:CODE:REORDER:NOROOT(0)
`??afRegisterExtended::?relay`:
        CODE
        LCALL   ?BDISPATCH
        DATA24
        DC24    afRegisterExtended

        RSEG BANK_RELAYS:CODE:REORDER:NOROOT(0)
`??afRegister::?relay`:
        CODE
        LCALL   ?BDISPATCH
        DATA24
        DC24    afRegister

        RSEG BANK_RELAYS:CODE:REORDER:NOROOT(0)
`??afDelete::?relay`:
        CODE
        LCALL   ?BDISPATCH
        DATA24
        DC24    afDelete

        RSEG BANK_RELAYS:CODE:REORDER:NOROOT(0)
`??afDataConfirm::?relay`:
        CODE
        LCALL   ?BDISPATCH
        DATA24
        DC24    afDataConfirm

        RSEG BANK_RELAYS:CODE:REORDER:NOROOT(0)
`??afReflectError::?relay`:
        CODE
        LCALL   ?BDISPATCH
        DATA24
        DC24    afReflectError

        RSEG BANK_RELAYS:CODE:REORDER:NOROOT(0)
`??afIncomingData::?relay`:
        CODE
        LCALL   ?BDISPATCH
        DATA24
        DC24    afIncomingData

        RSEG BANK_RELAYS:CODE:REORDER:NOROOT(0)
`??afBuildMSGIncoming::?relay`:
        CODE
        LCALL   ?BDISPATCH
        DATA24
        DC24    afBuildMSGIncoming

        RSEG BANK_RELAYS:CODE:REORDER:NOROOT(0)
`??AF_DataRequest::?relay`:
        CODE
        LCALL   ?BDISPATCH
        DATA24
        DC24    AF_DataRequest

        RSEG BANK_RELAYS:CODE:REORDER:NOROOT(0)
`??AF_DataRequestSrcRtg::?relay`:
        CODE
        LCALL   ?BDISPATCH
        DATA24
        DC24    AF_DataRequestSrcRtg

        RSEG BANK_RELAYS:CODE:REORDER:NOROOT(0)
`??afFindEndPointDescList::?relay`:
        CODE
        LCALL   ?BDISPATCH
        DATA24
        DC24    afFindEndPointDescList

        RSEG BANK_RELAYS:CODE:REORDER:NOROOT(0)
`??afFindEndPointDesc::?relay`:
        CODE
        LCALL   ?BDISPATCH
        DATA24
        DC24    afFindEndPointDesc

        RSEG BANK_RELAYS:CODE:REORDER:NOROOT(0)
`??afFindSimpleDesc::?relay`:
        CODE
        LCALL   ?BDISPATCH
        DATA24
        DC24    afFindSimpleDesc

        RSEG BANK_RELAYS:CODE:REORDER:NOROOT(0)
`??afDataReqMTU::?relay`:
        CODE
        LCALL   ?BDISPATCH
        DATA24
        DC24    afDataReqMTU

        RSEG BANK_RELAYS:CODE:REORDER:NOROOT(0)
`??afGetMatch::?relay`:
        CODE
        LCALL   ?BDISPATCH
        DATA24
        DC24    afGetMatch

        RSEG BANK_RELAYS:CODE:REORDER:NOROOT(0)
`??afSetMatch::?relay`:
        CODE
        LCALL   ?BDISPATCH
        DATA24
        DC24    afSetMatch

        RSEG BANK_RELAYS:CODE:REORDER:NOROOT(0)
`??afNumEndPoints::?relay`:
        CODE
        LCALL   ?BDISPATCH
        DATA24
        DC24    afNumEndPoints

        RSEG BANK_RELAYS:CODE:REORDER:NOROOT(0)
`??afEndPoints::?relay`:
        CODE
        LCALL   ?BDISPATCH
        DATA24
        DC24    afEndPoints

        RSEG BANK_RELAYS:CODE:REORDER:NOROOT(0)
`??afCopyAddress::?relay`:
        CODE
        LCALL   ?BDISPATCH
        DATA24
        DC24    afCopyAddress

        RSEG BANK_RELAYS:CODE:REORDER:NOROOT(0)
`??afAPSF_ConfigGet::?relay`:
        CODE
        LCALL   ?BDISPATCH
        DATA24
        DC24    afAPSF_ConfigGet

        RSEG BANK_RELAYS:CODE:REORDER:NOROOT(0)
`??afAPSF_ConfigSet::?relay`:
        CODE
        LCALL   ?BDISPATCH
        DATA24
        DC24    afAPSF_ConfigSet

        RSEG BANK_RELAYS:CODE:REORDER:NOROOT(0)
`??afSetApplCB::?relay`:
        CODE
        LCALL   ?BDISPATCH
        DATA24
        DC24    afSetApplCB

        END
// 1289 
// 1290 /**************************************************************************************************
// 1291 */
// 
// 3 706 bytes in segment BANKED_CODE
//   126 bytes in segment BANK_RELAYS
//     1 byte  in segment XDATA_I
//     1 byte  in segment XDATA_ID
//     2 bytes in segment XDATA_Z
// 
//   127 bytes of CODE     memory
// 3 706 bytes of HUGECODE memory
//     3 bytes of XDATA    memory
//
//Errors: none
//Warnings: 2
