///////////////////////////////////////////////////////////////////////////////
//
// IAR C/C++ Compiler V10.10.1.4655 for 8051              22/Nov/2023  15:42:40
// Copyright 2004-2017 IAR Systems AB.
// Standalone license - IAR Embedded Workbench for 8051
//
//    Core               =  plain
//    Code model         =  banked
//    Data model         =  large
//    Calling convention =  xdata reentrant
//    Constant location  =  data_rom
//    Dptr setup         =  1,16
//                          
//    Source file        =  
//        D:\fuzzing-coordinator-response-collection\Components\stack\bdb\bdb.c
//    Command line       =  
//        -f C:\Users\ADMINI~1\AppData\Local\Temp\EW98A9.tmp
//        (D:\fuzzing-coordinator-response-collection\Components\stack\bdb\bdb.c
//        -D SECURE=1 -D TC_LINKKEY_JOIN -D NV_INIT -D NV_RESTORE -D
//        MULTICAST_ENABLED=FALSE -D ZCL_READ -D ZCL_DISCOVER -D ZCL_WRITE -D
//        ZCL_BASIC -D ZCL_IDENTIFY -D ISR_KEYINTERRUPT -D HAL_UART=TRUE -D
//        HAL_LCD=FALSE -D ZCL_ON_OFF -D INT_HEAP_LEN=2800 -D
//        HAL_UART_DMA_RX_MAX=256 -D HAL_UART_DMA_TX_MAX=256 -lC
//        D:\fuzzing-coordinator-response-collection\Projects\zstack\HomeAutomation\SampleSwitch\CC2530DB\CoordinatorEB\List
//        -lA
//        D:\fuzzing-coordinator-response-collection\Projects\zstack\HomeAutomation\SampleSwitch\CC2530DB\CoordinatorEB\List
//        --diag_suppress Pe001,Pa010 -o
//        D:\fuzzing-coordinator-response-collection\Projects\zstack\HomeAutomation\SampleSwitch\CC2530DB\CoordinatorEB\Obj
//        -e --debug --core=plain --dptr=16,1 --data_model=large
//        --code_model=banked --calling_convention=xdata_reentrant
//        --place_constants=data_rom --nr_virtual_regs 8 -f
//        D:\fuzzing-coordinator-response-collection\Projects\zstack\HomeAutomation\SampleSwitch\CC2530DB\..\..\..\Tools\CC2530DB\f8wCoord.cfg
//        (-DCPU32MHZ -DROOT=__near_func -DMAC_CFG_APP_PENDING_QUEUE=TRUE
//        -DMAC_CFG_TX_DATA_MAX=5 -DMAC_CFG_TX_MAX=8 -DMAC_CFG_RX_MAX=5
//        -DZDO_COORDINATOR -DRTR_NWK) -f
//        D:\fuzzing-coordinator-response-collection\Projects\zstack\HomeAutomation\SampleSwitch\CC2530DB\..\..\..\Tools\CC2530DB\f8wConfig.cfg
//        (-DZIGBEEPRO -DSECURE=1 -DZG_SECURE_DYNAMIC=0 -DREFLECTOR
//        -DDEFAULT_CHANLIST=0x00000800 -DZDAPP_CONFIG_PAN_ID=0xFFFF
//        -DNWK_START_DELAY=100 -DEXTENDED_JOINING_RANDOM_MASK=0x007F
//        -DBEACON_REQUEST_DELAY=100 -DBEACON_REQ_DELAY_MASK=0x00FF
//        -DLINK_STATUS_JITTER_MASK=0x007F -DROUTE_EXPIRY_TIME=30
//        -DAPSC_ACK_WAIT_DURATION_POLLED=3000 -DNWK_INDIRECT_MSG_TIMEOUT=7
//        -DMAX_RREQ_ENTRIES=8 -DAPSC_MAX_FRAME_RETRIES=3
//        -DNWK_MAX_DATA_RETRIES=2 -DMAX_POLL_FAILURE_RETRIES=2 -DMAX_BCAST=9
//        -DAPS_MAX_GROUPS=16 -DMAX_RTG_ENTRIES=40 -DNWK_MAX_BINDING_ENTRIES=4
//        -DMAX_BINDING_CLUSTER_IDS=4 "-DDEFAULT_KEY={0x00, 0x01, 0x02, 0x03,
//        0x04, 0x05, 0x06, 0x07, 0x08, 0x09, 0x0A, 0x0B, 0x0C, 0x0D, 0x0E,
//        0x0F}" -DMAC_MAX_FRAME_SIZE=116 -DZDNWKMGR_MIN_TRANSMISSIONS=20
//        "-DCONST=const __code" -DGENERIC=__generic -DRFD_RCVC_ALWAYS_ON=FALSE
//        -DPOLL_RATE=1000 -DQUEUED_POLL_RATE=100 -DRESPONSE_POLL_RATE=100
//        -DREJOIN_POLL_RATE=440 -DREJOIN_BACKOFF=900000 -DREJOIN_SCAN=900000
//        -DENABLE_LED4_DISABLE_S1) -f
//        D:\fuzzing-coordinator-response-collection\Projects\zstack\HomeAutomation\SampleSwitch\CC2530DB\..\..\..\Tools\CC2530DB\f8wZCL.cfg
//        -I
//        D:\fuzzing-coordinator-response-collection\Projects\zstack\HomeAutomation\SampleSwitch\CC2530DB\
//        -I
//        D:\fuzzing-coordinator-response-collection\Projects\zstack\HomeAutomation\SampleSwitch\CC2530DB\..\Source\
//        -I
//        D:\fuzzing-coordinator-response-collection\Projects\zstack\HomeAutomation\SampleSwitch\CC2530DB\..\..\Source\
//        -I
//        D:\fuzzing-coordinator-response-collection\Projects\zstack\HomeAutomation\SampleSwitch\CC2530DB\..\..\..\ZMain\TI2530DB\
//        -I
//        D:\fuzzing-coordinator-response-collection\Projects\zstack\HomeAutomation\SampleSwitch\CC2530DB\..\..\..\..\..\Components\hal\include\
//        -I
//        D:\fuzzing-coordinator-response-collection\Projects\zstack\HomeAutomation\SampleSwitch\CC2530DB\..\..\..\..\..\Components\hal\target\CC2530EB\
//        -I
//        D:\fuzzing-coordinator-response-collection\Projects\zstack\HomeAutomation\SampleSwitch\CC2530DB\..\..\..\..\..\Components\mac\include\
//        -I
//        D:\fuzzing-coordinator-response-collection\Projects\zstack\HomeAutomation\SampleSwitch\CC2530DB\..\..\..\..\..\Components\mac\high_level\
//        -I
//        D:\fuzzing-coordinator-response-collection\Projects\zstack\HomeAutomation\SampleSwitch\CC2530DB\..\..\..\..\..\Components\mac\low_level\srf04\
//        -I
//        D:\fuzzing-coordinator-response-collection\Projects\zstack\HomeAutomation\SampleSwitch\CC2530DB\..\..\..\..\..\Components\mac\low_level\srf04\single_chip\
//        -I
//        D:\fuzzing-coordinator-response-collection\Projects\zstack\HomeAutomation\SampleSwitch\CC2530DB\..\..\..\..\..\Components\mt\
//        -I
//        D:\fuzzing-coordinator-response-collection\Projects\zstack\HomeAutomation\SampleSwitch\CC2530DB\..\..\..\..\..\Components\osal\include\
//        -I
//        D:\fuzzing-coordinator-response-collection\Projects\zstack\HomeAutomation\SampleSwitch\CC2530DB\..\..\..\..\..\Components\services\saddr\
//        -I
//        D:\fuzzing-coordinator-response-collection\Projects\zstack\HomeAutomation\SampleSwitch\CC2530DB\..\..\..\..\..\Components\services\sdata\
//        -I
//        D:\fuzzing-coordinator-response-collection\Projects\zstack\HomeAutomation\SampleSwitch\CC2530DB\..\..\..\..\..\Components\stack\af\
//        -I
//        D:\fuzzing-coordinator-response-collection\Projects\zstack\HomeAutomation\SampleSwitch\CC2530DB\..\..\..\..\..\Components\stack\bdb\
//        -I
//        D:\fuzzing-coordinator-response-collection\Projects\zstack\HomeAutomation\SampleSwitch\CC2530DB\..\..\..\..\..\Components\stack\gp\
//        -I
//        D:\fuzzing-coordinator-response-collection\Projects\zstack\HomeAutomation\SampleSwitch\CC2530DB\..\..\..\..\..\Components\stack\nwk\
//        -I
//        D:\fuzzing-coordinator-response-collection\Projects\zstack\HomeAutomation\SampleSwitch\CC2530DB\..\..\..\..\..\Components\stack\sapi\
//        -I
//        D:\fuzzing-coordinator-response-collection\Projects\zstack\HomeAutomation\SampleSwitch\CC2530DB\..\..\..\..\..\Components\stack\sec\
//        -I
//        D:\fuzzing-coordinator-response-collection\Projects\zstack\HomeAutomation\SampleSwitch\CC2530DB\..\..\..\..\..\Components\stack\sys\
//        -I
//        D:\fuzzing-coordinator-response-collection\Projects\zstack\HomeAutomation\SampleSwitch\CC2530DB\..\..\..\..\..\Components\stack\zcl\
//        -I
//        D:\fuzzing-coordinator-response-collection\Projects\zstack\HomeAutomation\SampleSwitch\CC2530DB\..\..\..\..\..\Components\stack\zdo\
//        -I
//        D:\fuzzing-coordinator-response-collection\Projects\zstack\HomeAutomation\SampleSwitch\CC2530DB\..\..\..\..\..\Components\zmac\
//        -I
//        D:\fuzzing-coordinator-response-collection\Projects\zstack\HomeAutomation\SampleSwitch\CC2530DB\..\..\..\..\..\Components\zmac\f8w\
//        -I
//        D:\fuzzing-coordinator-response-collection\Projects\zstack\HomeAutomation\SampleSwitch\CC2530DB\..\..\..\..\..\Components\hal\target\CC2530EB\Common\
//        -I
//        D:\fuzzing-coordinator-response-collection\Projects\zstack\HomeAutomation\SampleSwitch\CC2530DB\..\..\..\..\..\Components\hal\target\CC2530EB\SPI\
//        -I
//        D:\fuzzing-coordinator-response-collection\Projects\zstack\HomeAutomation\SampleSwitch\CC2530DB\..\..\..\..\..\Components\hal\target\CC2530EB\HW_LCD\Font\
//        -I
//        D:\fuzzing-coordinator-response-collection\Projects\zstack\HomeAutomation\SampleSwitch\CC2530DB\..\..\..\..\..\Components\hal\target\CC2530EB\HW_LCD\HAL_LCD_SPI\
//        -I
//        D:\fuzzing-coordinator-response-collection\Projects\zstack\HomeAutomation\SampleSwitch\CC2530DB\..\..\..\..\..\Components\hal\target\CC2530EB\HW_LCD\HAL_OLED\
//        -I
//        D:\fuzzing-coordinator-response-collection\Projects\zstack\HomeAutomation\SampleSwitch\CC2530DB\..\..\..\..\..\Components\hal\target\CC2530EB\HW_LCD\HAL_TFT\
//        -Ohz --require_prototypes)
//    Locale             =  Chinese (Simplified)_China.936
//    List file          =  
//        D:\fuzzing-coordinator-response-collection\Projects\zstack\HomeAutomation\SampleSwitch\CC2530DB\CoordinatorEB\List\bdb.s51
//
///////////////////////////////////////////////////////////////////////////////

        NAME bdb

        RTMODEL "__SystemLibrary", "CLib"
        RTMODEL "__calling_convention", "xdata_reentrant"
        RTMODEL "__code_model", "banked"
        RTMODEL "__core", "plain"
        RTMODEL "__data_model", "large"
        RTMODEL "__dptr_size", "16"
        RTMODEL "__extended_stack", "disabled"
        RTMODEL "__iar_require _formatted_write", ""
        RTMODEL "__location_for_constants", "data"
        RTMODEL "__number_of_dptrs", "1"
        RTMODEL "__register_banks", "*"
        RTMODEL "__rt_version", "1"

        RSEG DOVERLAY:DATA:NOROOT(0)
        RSEG IOVERLAY:IDATA:NOROOT(0)
        RSEG ISTACK:IDATA:NOROOT(0)
        RSEG PSTACK:XDATA:NOROOT(0)
        RSEG XSTACK:XDATA:NOROOT(0)

        EXTERN ?V0
        EXTERN ?V1
        EXTERN ?V2
        EXTERN ?V3
        EXTERN ?V4
        EXTERN ?V5
        EXTERN ?V6
        EXTERN ?V7
        EXTERN ?ALLOC_XSTACK8
        EXTERN ?BANKED_ENTER_XDATA
        EXTERN ?BANKED_LEAVE_XDATA
        EXTERN ?BDISPATCH
        EXTERN ?BRET
        EXTERN ?CALL_IND
        EXTERN ?DEALLOC_XSTACK8
        EXTERN ?L_MOV_TO_X
        EXTERN ?L_MOV_X
        EXTERN ?PUSH_XSTACK8_X_FOUR
        EXTERN ?PUSH_XSTACK8_X_TWO
        EXTERN ?PUSH_XSTACK_I_THREE
        EXTERN ?PUSH_XSTACK_I_TWO
        EXTERN ?S_SHL
        EXTERN ?UL_GT
        EXTERN ?US_SHR
        EXTERN ?US_SWITCH_DENSE
        EXTERN ?XLOAD_R0123
        EXTERN ?XLOAD_R2345
        EXTERN ?XSP
        EXTERN ?XSTACK_DISP0_8
        EXTERN ?XSTACK_DISP100_8
        EXTERN ?XSTACK_DISP101_8
        EXTERN ?XSTACK_DISP102_8
        EXTERN __INIT_XDATA_I
        EXTERN __INIT_XDATA_Z

        PUBLIC `??bdb_AddRespondentNode::?relay`
        FUNCTION `??bdb_AddRespondentNode::?relay`,0203H
        PUBLIC `??bdb_ClearNetworkParams::?relay`
        FUNCTION `??bdb_ClearNetworkParams::?relay`,0203H
        PUBLIC `??bdb_CreateRespondentList::?relay`
        FUNCTION `??bdb_CreateRespondentList::?relay`,0203H
        PUBLIC `??bdb_GenerateInstallCodeCRC::?relay`
        FUNCTION `??bdb_GenerateInstallCodeCRC::?relay`,0203H
        PUBLIC `??bdb_Init::?relay`
        FUNCTION `??bdb_Init::?relay`,0203H
        PUBLIC `??bdb_NetworkRestoredResumeState::?relay`
        FUNCTION `??bdb_NetworkRestoredResumeState::?relay`,0203H
        PUBLIC `??bdb_NotifyCommissioningModeStart::?relay`
        FUNCTION `??bdb_NotifyCommissioningModeStart::?relay`,0203H
        PUBLIC `??bdb_ProcessNodeDescRsp::?relay`
        FUNCTION `??bdb_ProcessNodeDescRsp::?relay`,0203H
        PUBLIC `??bdb_RegisterCommissioningStatusCB::?relay`
        FUNCTION `??bdb_RegisterCommissioningStatusCB::?relay`,0203H
        PUBLIC `??bdb_RegisterSimpleDescriptor::?relay`
        FUNCTION `??bdb_RegisterSimpleDescriptor::?relay`,0203H
        PUBLIC `??bdb_RegisterTCLinkKeyExchangeProcessCB::?rela`
        FUNCTION `??bdb_RegisterTCLinkKeyExchangeProcessCB::?rela`,0203H
        PUBLIC `??bdb_SendMsg::?relay`
        FUNCTION `??bdb_SendMsg::?relay`,0203H
        PUBLIC `??bdb_StartCommissioning::?relay`
        FUNCTION `??bdb_StartCommissioning::?relay`,0203H
        PUBLIC `??bdb_TCAddJoiningDevice::?relay`
        FUNCTION `??bdb_TCAddJoiningDevice::?relay`,0203H
        FUNCTION `??bdb_TCJoiningDeviceFree::?relay`,0203H
        FUNCTION `??bdb_TCProcessJoiningList::?relay`,0203H
        PUBLIC `??bdb_TCjoiningDeviceComplete::?relay`
        FUNCTION `??bdb_TCjoiningDeviceComplete::?relay`,0203H
        PUBLIC `??bdb_ZclIdentifyCmdInd::?relay`
        FUNCTION `??bdb_ZclIdentifyCmdInd::?relay`,0203H
        PUBLIC `??bdb_addInstallCode::?relay`
        FUNCTION `??bdb_addInstallCode::?relay`,0203H
        PUBLIC `??bdb_calculateCCITT_CRC::?relay`
        FUNCTION `??bdb_calculateCCITT_CRC::?relay`,0203H
        PUBLIC `??bdb_crcBitByBitFast::?relay`
        FUNCTION `??bdb_crcBitByBitFast::?relay`,0203H
        PUBLIC `??bdb_crcInit::?relay`
        FUNCTION `??bdb_crcInit::?relay`,0203H
        PUBLIC `??bdb_crcReflect::?relay`
        FUNCTION `??bdb_crcReflect::?relay`,0203H
        PUBLIC `??bdb_doTrustCenterRequireKeyExchange::?relay`
        FUNCTION `??bdb_doTrustCenterRequireKeyExchange::?relay`,0203H
        PUBLIC `??bdb_event_loop::?relay`
        FUNCTION `??bdb_event_loop::?relay`,0203H
        PUBLIC `??bdb_getZCLFrameCounter::?relay`
        FUNCTION `??bdb_getZCLFrameCounter::?relay`,0203H
        PUBLIC `??bdb_isDeviceNonFactoryNew::?relay`
        FUNCTION `??bdb_isDeviceNonFactoryNew::?relay`,0203H
        PUBLIC `??bdb_nwkFormationAttempt::?relay`
        FUNCTION `??bdb_nwkFormationAttempt::?relay`,0203H
        FUNCTION `??bdb_nwkJoiningFormation::?relay`,0203H
        FUNCTION `??bdb_nwkSteeringDeviceOnNwk::?relay`,0203H
        PUBLIC `??bdb_parentLost::?relay`
        FUNCTION `??bdb_parentLost::?relay`,0203H
        PUBLIC `??bdb_rejoinNwk::?relay`
        FUNCTION `??bdb_rejoinNwk::?relay`,0203H
        PUBLIC `??bdb_reportCommissioningState::?relay`
        FUNCTION `??bdb_reportCommissioningState::?relay`,0203H
        PUBLIC `??bdb_resetLocalAction::?relay`
        FUNCTION `??bdb_resetLocalAction::?relay`,0203H
        PUBLIC `??bdb_setChannel::?relay`
        FUNCTION `??bdb_setChannel::?relay`,0203H
        PUBLIC `??bdb_setChannelAttribute::?relay`
        FUNCTION `??bdb_setChannelAttribute::?relay`,0203H
        PUBLIC `??bdb_setCommissioningGroupID::?relay`
        FUNCTION `??bdb_setCommissioningGroupID::?relay`,0203H
        PUBLIC `??bdb_setFN::?relay`
        FUNCTION `??bdb_setFN::?relay`,0203H
        PUBLIC `??bdb_setJoinUsesInstallCodeKey::?relay`
        FUNCTION `??bdb_setJoinUsesInstallCodeKey::?relay`,0203H
        PUBLIC `??bdb_setNodeIsOnANetwork::?relay`
        FUNCTION `??bdb_setNodeIsOnANetwork::?relay`,0203H
        PUBLIC `??bdb_setTCRequireKeyExchange::?relay`
        FUNCTION `??bdb_setTCRequireKeyExchange::?relay`,0203H
        FUNCTION `??bdb_startResumeCommissioningProcess::?relay`,0203H
        PUBLIC `??bdb_touchlinkSendFNReset::?relay`
        FUNCTION `??bdb_touchlinkSendFNReset::?relay`,0203H
        PUBLIC `??bdb_zclRespondentListClean::?relay`
        FUNCTION `??bdb_zclRespondentListClean::?relay`,0203H
        FUNCTION `??gp_ChangeChannelReq::?relay`,0203H
        PUBWEAK __Constant_10
        PUBWEAK __Constant_32
        PUBWEAK __Constant_3a98
        PUBWEAK __Constant_3e8
        PUBWEAK __Constant_c8
        PUBLIC bdbAttributes
        PUBLIC bdbCommissioningProcedureState
        PUBLIC bdb_AddRespondentNode
        FUNCTION bdb_AddRespondentNode,0a1203H
        ARGFRAME XSTACK, 0, STACK
        LOCFRAME XSTACK, 10, STACK
        PUBLIC bdb_ClearNetworkParams
        FUNCTION bdb_ClearNetworkParams,0203H
        ARGFRAME XSTACK, 0, STACK
        PUBLIC bdb_CreateRespondentList
        FUNCTION bdb_CreateRespondentList,0a1203H
        ARGFRAME XSTACK, 10, STACK
        ARGFRAME IOVERLAY, 0, STATIC
        ARGFRAME DOVERLAY, 0, STATIC
        LOCFRAME XSTACK, 10, STACK
        PUBLIC bdb_CurrEpDescriptorList
        PUBLIC bdb_FB_InitiatorCurrentCyclesNumber
        PUBLIC bdb_GenerateInstallCodeCRC
        FUNCTION bdb_GenerateInstallCodeCRC,021203H
        ARGFRAME XSTACK, 30, STACK
        ARGFRAME IOVERLAY, 0, STATIC
        ARGFRAME DOVERLAY, 0, STATIC
        LOCFRAME ISTACK, 2, STACK
        LOCFRAME XSTACK, 6, STACK
        PUBLIC bdb_HeadEpDescriptorList
        PUBLIC bdb_Init
        FUNCTION bdb_Init,021203H
        ARGFRAME XSTACK, 0, STACK
        LOCFRAME XSTACK, 9, STACK
        PUBLIC bdb_NetworkRestoredResumeState
        FUNCTION bdb_NetworkRestoredResumeState,0203H
        ARGFRAME XSTACK, 0, STACK
        PUBLIC bdb_NotifyCommissioningModeStart
        FUNCTION bdb_NotifyCommissioningModeStart,0a1203H
        ARGFRAME XSTACK, 21, STACK
        ARGFRAME IOVERLAY, 0, STATIC
        ARGFRAME DOVERLAY, 0, STATIC
        LOCFRAME ISTACK, 1, STACK
        LOCFRAME XSTACK, 15, STACK
        PUBLIC bdb_ProcessNodeDescRsp
        FUNCTION bdb_ProcessNodeDescRsp,0a1203H
        ARGFRAME XSTACK, 0, STACK
        LOCFRAME XSTACK, 49, STACK
        PUBLIC bdb_RegisterCommissioningStatusCB
        FUNCTION bdb_RegisterCommissioningStatusCB,0203H
        ARGFRAME XSTACK, 0, STACK
        LOCFRAME ISTACK, 2, STACK
        PUBLIC bdb_RegisterSimpleDescriptor
        FUNCTION bdb_RegisterSimpleDescriptor,0a1203H
        ARGFRAME XSTACK, 0, STACK
        LOCFRAME ISTACK, 1, STACK
        LOCFRAME XSTACK, 10, STACK
        PUBLIC bdb_RegisterTCLinkKeyExchangeProcessCB
        FUNCTION bdb_RegisterTCLinkKeyExchangeProcessCB,0203H
        ARGFRAME XSTACK, 0, STACK
        LOCFRAME ISTACK, 2, STACK
        PUBLIC bdb_SendMsg
        FUNCTION bdb_SendMsg,0a1203H
        ARGFRAME XSTACK, 60, STACK
        ARGFRAME IOVERLAY, 0, STATIC
        ARGFRAME DOVERLAY, 0, STATIC
        LOCFRAME ISTACK, 1, STACK
        LOCFRAME XSTACK, 20, STACK
        PUBLIC bdb_StartCommissioning
        FUNCTION bdb_StartCommissioning,0a1203H
        ARGFRAME XSTACK, 0, STACK
        LOCFRAME XSTACK, 36, STACK
        PUBLIC bdb_TCAddJoiningDevice
        FUNCTION bdb_TCAddJoiningDevice,0a1203H
        ARGFRAME XSTACK, 0, STACK
        LOCFRAME ISTACK, 1, STACK
        LOCFRAME XSTACK, 30, STACK
        FUNCTION bdb_TCJoiningDeviceFree,0a1203H
        ARGFRAME XSTACK, 58, STACK
        ARGFRAME IOVERLAY, 0, STATIC
        ARGFRAME DOVERLAY, 0, STATIC
        LOCFRAME XSTACK, 17, STACK
        FUNCTION bdb_TCProcessJoiningList,0a1203H
        ARGFRAME XSTACK, 24, STACK
        ARGFRAME IOVERLAY, 0, STATIC
        ARGFRAME DOVERLAY, 0, STATIC
        LOCFRAME XSTACK, 62, STACK
        PUBLIC bdb_TCjoiningDeviceComplete
        FUNCTION bdb_TCjoiningDeviceComplete,0a1203H
        ARGFRAME XSTACK, 0, STACK
        LOCFRAME XSTACK, 29, STACK
        PUBLIC bdb_TaskID
        PUBLIC bdb_ZclIdentifyCmdInd
        FUNCTION bdb_ZclIdentifyCmdInd,0a1203H
        ARGFRAME XSTACK, 0, STACK
        LOCFRAME XSTACK, 24, STACK
        PUBLIC bdb_ZclTransactionSequenceNumber
        PUBLIC bdb_addInstallCode
        FUNCTION bdb_addInstallCode,0a1203H
        ARGFRAME XSTACK, 0, STACK
        LOCFRAME XSTACK, 34, STACK
        PUBLIC bdb_calculateCCITT_CRC
        FUNCTION bdb_calculateCCITT_CRC,0a1203H
        ARGFRAME XSTACK, 6, STACK
        ARGFRAME IOVERLAY, 0, STATIC
        ARGFRAME DOVERLAY, 0, STATIC
        LOCFRAME XSTACK, 22, STACK
        PUBLIC bdb_crcBitByBitFast
        FUNCTION bdb_crcBitByBitFast,0a1203H
        ARGFRAME XSTACK, 22, STACK
        ARGFRAME IOVERLAY, 0, STATIC
        ARGFRAME DOVERLAY, 0, STATIC
        LOCFRAME XSTACK, 20, STACK
        PUBLIC bdb_crcInit
        FUNCTION bdb_crcInit,0203H
        ARGFRAME XSTACK, 18, STACK
        ARGFRAME IOVERLAY, 0, STATIC
        ARGFRAME DOVERLAY, 0, STATIC
        LOCFRAME XSTACK, 9, STACK
        PUBLIC bdb_crcReflect
        FUNCTION bdb_crcReflect,080203H
        ARGFRAME XSTACK, 20, STACK
        ARGFRAME IOVERLAY, 0, STATIC
        ARGFRAME DOVERLAY, 0, STATIC
        LOCFRAME XSTACK, 12, STACK
        PUBLIC bdb_doTrustCenterRequireKeyExchange
        FUNCTION bdb_doTrustCenterRequireKeyExchange,0203H
        ARGFRAME XSTACK, 0, STACK
        LOCFRAME ISTACK, 2, STACK
        PUBLIC bdb_event_loop
        FUNCTION bdb_event_loop,0a1203H
        ARGFRAME XSTACK, 0, STACK
        LOCFRAME ISTACK, 1, STACK
        LOCFRAME XSTACK, 28, STACK
        PUBLIC bdb_getZCLFrameCounter
        FUNCTION bdb_getZCLFrameCounter,0203H
        ARGFRAME XSTACK, 0, STACK
        LOCFRAME ISTACK, 2, STACK
        PUBLIC bdb_initialization
        PUBLIC bdb_isDeviceNonFactoryNew
        FUNCTION bdb_isDeviceNonFactoryNew,0203H
        ARGFRAME XSTACK, 0, STACK
        LOCFRAME ISTACK, 2, STACK
        PUBLIC bdb_nwkFormationAttempt
        FUNCTION bdb_nwkFormationAttempt,021203H
        ARGFRAME XSTACK, 0, STACK
        LOCFRAME XSTACK, 9, STACK
        FUNCTION bdb_nwkJoiningFormation,0a1203H
        ARGFRAME XSTACK, 21, STACK
        ARGFRAME IOVERLAY, 0, STATIC
        ARGFRAME DOVERLAY, 0, STATIC
        LOCFRAME XSTACK, 12, STACK
        FUNCTION bdb_nwkSteeringDeviceOnNwk,021203H
        ARGFRAME XSTACK, 32, STACK
        ARGFRAME IOVERLAY, 0, STATIC
        ARGFRAME DOVERLAY, 0, STATIC
        LOCFRAME ISTACK, 2, STACK
        LOCFRAME XSTACK, 9, STACK
        PUBLIC bdb_parentLost
        FUNCTION bdb_parentLost,0203H
        ARGFRAME XSTACK, 0, STACK
        PUBLIC bdb_rejoinNwk
        FUNCTION bdb_rejoinNwk,021203H
        ARGFRAME XSTACK, 0, STACK
        LOCFRAME XSTACK, 10, STACK
        PUBLIC bdb_reportCommissioningState
        FUNCTION bdb_reportCommissioningState,0a1203H
        ARGFRAME XSTACK, 45, STACK
        ARGFRAME IOVERLAY, 0, STATIC
        ARGFRAME DOVERLAY, 0, STATIC
        LOCFRAME ISTACK, 1, STACK
        LOCFRAME XSTACK, 18, STACK
        PUBLIC bdb_resetLocalAction
        FUNCTION bdb_resetLocalAction,021203H
        ARGFRAME XSTACK, 0, STACK
        LOCFRAME ISTACK, 2, STACK
        PUBLIC bdb_setChannel
        FUNCTION bdb_setChannel,0a1203H
        ARGFRAME XSTACK, 12, STACK
        ARGFRAME IOVERLAY, 0, STATIC
        ARGFRAME DOVERLAY, 0, STATIC
        LOCFRAME XSTACK, 16, STACK
        PUBLIC bdb_setChannelAttribute
        FUNCTION bdb_setChannelAttribute,080203H
        ARGFRAME XSTACK, 0, STACK
        LOCFRAME XSTACK, 12, STACK
        PUBLIC bdb_setCommissioningGroupID
        FUNCTION bdb_setCommissioningGroupID,0203H
        ARGFRAME XSTACK, 0, STACK
        LOCFRAME ISTACK, 2, STACK
        PUBLIC bdb_setFN
        FUNCTION bdb_setFN,021203H
        ARGFRAME XSTACK, 14, STACK
        ARGFRAME IOVERLAY, 0, STATIC
        ARGFRAME DOVERLAY, 0, STATIC
        LOCFRAME ISTACK, 2, STACK
        PUBLIC bdb_setJoinUsesInstallCodeKey
        FUNCTION bdb_setJoinUsesInstallCodeKey,0203H
        ARGFRAME XSTACK, 0, STACK
        LOCFRAME ISTACK, 2, STACK
        PUBLIC bdb_setNodeIsOnANetwork
        FUNCTION bdb_setNodeIsOnANetwork,0a1203H
        ARGFRAME XSTACK, 32, STACK
        ARGFRAME IOVERLAY, 0, STATIC
        ARGFRAME DOVERLAY, 0, STATIC
        LOCFRAME XSTACK, 14, STACK
        PUBLIC bdb_setTCRequireKeyExchange
        FUNCTION bdb_setTCRequireKeyExchange,0203H
        ARGFRAME XSTACK, 0, STACK
        LOCFRAME ISTACK, 2, STACK
        FUNCTION bdb_startResumeCommissioningProcess,0a1203H
        ARGFRAME XSTACK, 24, STACK
        ARGFRAME IOVERLAY, 0, STATIC
        ARGFRAME DOVERLAY, 0, STATIC
        LOCFRAME XSTACK, 25, STACK
        PUBLIC bdb_touchlinkSendFNReset
        FUNCTION bdb_touchlinkSendFNReset,0203H
        ARGFRAME XSTACK, 0, STACK
        PUBLIC bdb_zclRespondentListClean
        FUNCTION bdb_zclRespondentListClean,0a1203H
        ARGFRAME XSTACK, 14, STACK
        ARGFRAME IOVERLAY, 0, STATIC
        ARGFRAME DOVERLAY, 0, STATIC
        LOCFRAME XSTACK, 12, STACK
        FUNCTION gp_ChangeChannelReq,0603H
        ARGFRAME XSTACK, 0, STACK
        LOCFRAME ISTACK, 2, STACK
        PUBLIC pRespondentCurr
        PUBLIC pRespondentHead
        PUBLIC pRespondentNext
        PUBLIC touchLinkTargetEnabled
        PUBLIC vDoPrimaryScan
        PUBLIC zgBdbInstallCodeCRC
        
          CFI Names cfiNames0
          CFI StackFrame CFA_SP SP IDATA
          CFI StackFrame CFA_PSP16 PSP16 XDATA
          CFI StackFrame CFA_XSP16 XSP16 XDATA
          CFI StaticOverlayFrame CFA_IOVERLAY IOVERLAY
          CFI StaticOverlayFrame CFA_DOVERLAY DOVERLAY
          CFI Resource `PSW.CY`:1, `B.BR0`:1, `B.BR1`:1, `B.BR2`:1, `B.BR3`:1
          CFI Resource `B.BR4`:1, `B.BR5`:1, `B.BR6`:1, `B.BR7`:1, `VB.BR8`:1
          CFI Resource `VB.BR9`:1, `VB.BR10`:1, `VB.BR11`:1, `VB.BR12`:1
          CFI Resource `VB.BR13`:1, `VB.BR14`:1, `VB.BR15`:1, VB:8, B:8, A:8
          CFI Resource PSW:8, DPL0:8, DPH0:8, R0:8, R1:8, R2:8, R3:8, R4:8, R5:8
          CFI Resource R6:8, R7:8, V0:8, V1:8, V2:8, V3:8, V4:8, V5:8, V6:8, V7:8
          CFI Resource SP:8, PSPH:8, PSPL:8, PSP16:16, XSPH:8, XSPL:8, XSP16:16
          CFI VirtualResource ?RET:24
          CFI Resource ?BRET_EXT:8
          CFI VirtualResource ?RET_HIGH:8, ?RET_LOW:8
          CFI ResourceParts PSP16 PSPH, PSPL
          CFI ResourceParts XSP16 XSPH, XSPL
          CFI ResourceParts ?RET ?BRET_EXT, ?RET_HIGH, ?RET_LOW
          CFI EndNames cfiNames0
        
          CFI Common cfiCommon0 Using cfiNames0
          CFI CodeAlign 1
          CFI DataAlign -1
          CFI ReturnAddress ?RET CODE
          CFI CFA_DOVERLAY Used
          CFI CFA_IOVERLAY Used
          CFI CFA_SP SP+-3
          CFI CFA_PSP16 PSP16+0
          CFI CFA_XSP16 XSP16+0
          CFI `PSW.CY` SameValue
          CFI `B.BR0` SameValue
          CFI `B.BR1` SameValue
          CFI `B.BR2` SameValue
          CFI `B.BR3` SameValue
          CFI `B.BR4` SameValue
          CFI `B.BR5` SameValue
          CFI `B.BR6` SameValue
          CFI `B.BR7` SameValue
          CFI `VB.BR8` SameValue
          CFI `VB.BR9` SameValue
          CFI `VB.BR10` SameValue
          CFI `VB.BR11` SameValue
          CFI `VB.BR12` SameValue
          CFI `VB.BR13` SameValue
          CFI `VB.BR14` SameValue
          CFI `VB.BR15` SameValue
          CFI VB SameValue
          CFI B Undefined
          CFI A Undefined
          CFI PSW SameValue
          CFI DPL0 SameValue
          CFI DPH0 SameValue
          CFI R0 Undefined
          CFI R1 Undefined
          CFI R2 Undefined
          CFI R3 Undefined
          CFI R4 Undefined
          CFI R5 Undefined
          CFI R6 SameValue
          CFI R7 SameValue
          CFI V0 SameValue
          CFI V1 SameValue
          CFI V2 SameValue
          CFI V3 SameValue
          CFI V4 SameValue
          CFI V5 SameValue
          CFI V6 SameValue
          CFI V7 SameValue
          CFI PSPH Undefined
          CFI PSPL Undefined
          CFI XSPH Undefined
          CFI XSPL Undefined
          CFI ?RET Concat
          CFI ?BRET_EXT Frame(CFA_SP, 3)
          CFI ?RET_HIGH Frame(CFA_SP, 2)
          CFI ?RET_LOW Frame(CFA_SP, 1)
          CFI EndCommon cfiCommon0
        
        
          CFI Common cfiCommon1 Using cfiNames0
          CFI CodeAlign 1
          CFI DataAlign -1
          CFI ReturnAddress ?RET CODE
          CFI CFA_DOVERLAY Used
          CFI CFA_IOVERLAY Used
          CFI CFA_SP SP+-2
          CFI CFA_PSP16 PSP16+0
          CFI CFA_XSP16 XSP16+0
          CFI `PSW.CY` SameValue
          CFI `B.BR0` SameValue
          CFI `B.BR1` SameValue
          CFI `B.BR2` SameValue
          CFI `B.BR3` SameValue
          CFI `B.BR4` SameValue
          CFI `B.BR5` SameValue
          CFI `B.BR6` SameValue
          CFI `B.BR7` SameValue
          CFI `VB.BR8` SameValue
          CFI `VB.BR9` SameValue
          CFI `VB.BR10` SameValue
          CFI `VB.BR11` SameValue
          CFI `VB.BR12` SameValue
          CFI `VB.BR13` SameValue
          CFI `VB.BR14` SameValue
          CFI `VB.BR15` SameValue
          CFI VB SameValue
          CFI B SameValue
          CFI A SameValue
          CFI PSW SameValue
          CFI DPL0 SameValue
          CFI DPH0 SameValue
          CFI R0 SameValue
          CFI R1 SameValue
          CFI R2 SameValue
          CFI R3 SameValue
          CFI R4 SameValue
          CFI R5 SameValue
          CFI R6 SameValue
          CFI R7 SameValue
          CFI V0 SameValue
          CFI V1 SameValue
          CFI V2 SameValue
          CFI V3 SameValue
          CFI V4 SameValue
          CFI V5 SameValue
          CFI V6 SameValue
          CFI V7 SameValue
          CFI PSPH Undefined
          CFI PSPL Undefined
          CFI XSPH Undefined
          CFI XSPL Undefined
          CFI ?RET Concat
          CFI ?BRET_EXT SameValue
          CFI ?RET_HIGH Frame(CFA_SP, 2)
          CFI ?RET_LOW Frame(CFA_SP, 1)
          CFI EndCommon cfiCommon1
        
APSME_AddTCLinkKey  SYMBOL "APSME_AddTCLinkKey"
`??APSME_AddTCLinkKey::?relay` SYMBOL "?relay", APSME_AddTCLinkKey
APSME_IsDistributedSecurity SYMBOL "APSME_IsDistributedSecurity"
`??APSME_IsDistributedSecurity::?relay` SYMBOL "?relay", APSME_IsDistributedSecurity
APSME_SearchTCLinkKeyEntry SYMBOL "APSME_SearchTCLinkKeyEntry"
`??APSME_SearchTCLinkKeyEntry::?relay` SYMBOL "?relay", APSME_SearchTCLinkKeyEntry
AddrMgrEntryLookupExt SYMBOL "AddrMgrEntryLookupExt"
`??AddrMgrEntryLookupExt::?relay` SYMBOL "?relay", AddrMgrEntryLookupExt
`?<Name GP_DataCnf 8>` SYMBOL "GP_DataCnf"
`??GP_DataCnf::?relay` SYMBOL "?relay", `?<Name GP_DataCnf 8>`
`?<Name GP_DataInd 10>` SYMBOL "GP_DataInd"
`??GP_DataInd::?relay` SYMBOL "?relay", `?<Name GP_DataInd 10>`
`?<Name GP_SecReq 12>` SYMBOL "GP_SecReq"
`??GP_SecReq::?relay` SYMBOL "?relay", `?<Name GP_SecReq 12>`
NLME_ReJoinRequest  SYMBOL "NLME_ReJoinRequest"
`??NLME_ReJoinRequest::?relay` SYMBOL "?relay", NLME_ReJoinRequest
NLME_ReJoinRequestUnsecure SYMBOL "NLME_ReJoinRequestUnsecure"
`??NLME_ReJoinRequestUnsecure::?relay` SYMBOL "?relay", NLME_ReJoinRequestUnsecure
NLME_ResetRequest   SYMBOL "NLME_ResetRequest"
`??NLME_ResetRequest::?relay` SYMBOL "?relay", NLME_ResetRequest
ZDApp_ChangeState   SYMBOL "ZDApp_ChangeState"
`??ZDApp_ChangeState::?relay` SYMBOL "?relay", ZDApp_ChangeState
ZDApp_ResetTimerStart SYMBOL "ZDApp_ResetTimerStart"
`??ZDApp_ResetTimerStart::?relay` SYMBOL "?relay", ZDApp_ResetTimerStart
ZDApp_RestoreNwkKey SYMBOL "ZDApp_RestoreNwkKey"
`??ZDApp_RestoreNwkKey::?relay` SYMBOL "?relay", ZDApp_RestoreNwkKey
ZDApp_RestoreNwkSecMaterial SYMBOL "ZDApp_RestoreNwkSecMaterial"
`??ZDApp_RestoreNwkSecMaterial::?relay` SYMBOL "?relay", ZDApp_RestoreNwkSecMaterial
ZDOInitDeviceEx     SYMBOL "ZDOInitDeviceEx"
`??ZDOInitDeviceEx::?relay` SYMBOL "?relay", ZDOInitDeviceEx
ZDO_ParseNodeDescRsp SYMBOL "ZDO_ParseNodeDescRsp"
`??ZDO_ParseNodeDescRsp::?relay` SYMBOL "?relay", ZDO_ParseNodeDescRsp
ZDO_RegisterForZDOMsg SYMBOL "ZDO_RegisterForZDOMsg"
`??ZDO_RegisterForZDOMsg::?relay` SYMBOL "?relay", ZDO_RegisterForZDOMsg
ZDP_MgmtPermitJoinReq SYMBOL "ZDP_MgmtPermitJoinReq"
`??ZDP_MgmtPermitJoinReq::?relay` SYMBOL "?relay", ZDP_MgmtPermitJoinReq
ZDSecMgrAPSRemove   SYMBOL "ZDSecMgrAPSRemove"
`??ZDSecMgrAPSRemove::?relay` SYMBOL "?relay", ZDSecMgrAPSRemove
ZDSecMgrAddrClear   SYMBOL "ZDSecMgrAddrClear"
`??ZDSecMgrAddrClear::?relay` SYMBOL "?relay", ZDSecMgrAddrClear
ZMacSetReq          SYMBOL "ZMacSetReq"
`??ZMacSetReq::?relay` SYMBOL "?relay", ZMacSetReq
afRegister          SYMBOL "afRegister"
`??afRegister::?relay` SYMBOL "?relay", afRegister
bdb_ProcessIEEEAddrRsp SYMBOL "bdb_ProcessIEEEAddrRsp"
`??bdb_ProcessIEEEAddrRsp::?relay` SYMBOL "?relay", bdb_ProcessIEEEAddrRsp
bdb_ProcessRespondentList SYMBOL "bdb_ProcessRespondentList"
`??bdb_ProcessRespondentList::?relay` SYMBOL "?relay", bdb_ProcessRespondentList
bdb_ProcessSimpleDesc SYMBOL "bdb_ProcessSimpleDesc"
`??bdb_ProcessSimpleDesc::?relay` SYMBOL "?relay", bdb_ProcessSimpleDesc
bdb_SendIdentifyQuery SYMBOL "bdb_SendIdentifyQuery"
`??bdb_SendIdentifyQuery::?relay` SYMBOL "?relay", bdb_SendIdentifyQuery
bdb_exitFindingBindingWStatus SYMBOL "bdb_exitFindingBindingWStatus"
`??bdb_exitFindingBindingWStatus::?relay` SYMBOL "?relay", bdb_exitFindingBindingWStatus
bdb_getRespondentRetry SYMBOL "bdb_getRespondentRetry"
`??bdb_getRespondentRetry::?relay` SYMBOL "?relay", bdb_getRespondentRetry
bdb_setEpDescListToActiveEndpoint SYMBOL "bdb_setEpDescListToActiveEndpoint"
`??bdb_setEpDescListToActiveEndpoint::?relay` SYMBOL "?relay", bdb_setEpDescListToActiveEndpoint
bdb_setNodeJoinLinkKeyType SYMBOL "bdb_setNodeJoinLinkKeyType"
`??bdb_setNodeJoinLinkKeyType::?relay` SYMBOL "?relay", bdb_setNodeJoinLinkKeyType
bdb_tcLinkKeyExchangeAttempt SYMBOL "bdb_tcLinkKeyExchangeAttempt"
`??bdb_tcLinkKeyExchangeAttempt::?relay` SYMBOL "?relay", bdb_tcLinkKeyExchangeAttempt
`?<Name gp_CheckAnnouncedDev 62>` SYMBOL "gp_CheckAnnouncedDevice"
`??gp_CheckAnnouncedDevice::?relay` SYMBOL "?relay", `?<Name gp_CheckAnnouncedDev 62>`
gp_RegisterGPChangeChannelReqForBDBCB SYMBOL "gp_RegisterGPChangeChannelReqForBDBCB"
`??gp_RegisterGPChangeChannelReqForBDBCB::?relay` SYMBOL "?relay", gp_RegisterGPChangeChannelReqForBDBCB
gp_endpointInit     SYMBOL "gp_endpointInit"
`??gp_endpointInit::?relay` SYMBOL "?relay", gp_endpointInit
`?<Name gp_expireDuplicateFi 68>` SYMBOL "gp_expireDuplicateFiltering"
`??gp_expireDuplicateFiltering::?relay` SYMBOL "?relay", `?<Name gp_expireDuplicateFi 68>`
`?<Name gp_returnOperational 70>` SYMBOL "gp_returnOperationalChannel"
`??gp_returnOperationalChannel::?relay` SYMBOL "?relay", `?<Name gp_returnOperational 70>`
`?<Name gp_stopCommissioning 72>` SYMBOL "gp_stopCommissioningMode"
`??gp_stopCommissioningMode::?relay` SYMBOL "?relay", `?<Name gp_stopCommissioning 72>`
nwk_setStateIdle    SYMBOL "nwk_setStateIdle"
`??nwk_setStateIdle::?relay` SYMBOL "?relay", nwk_setStateIdle
osal_build_uint16   SYMBOL "osal_build_uint16"
`??osal_build_uint16::?relay` SYMBOL "?relay", osal_build_uint16
osal_get_timeoutEx  SYMBOL "osal_get_timeoutEx"
`??osal_get_timeoutEx::?relay` SYMBOL "?relay", osal_get_timeoutEx
osal_isbufset       SYMBOL "osal_isbufset"
`??osal_isbufset::?relay` SYMBOL "?relay", osal_isbufset
osal_mem_alloc      SYMBOL "osal_mem_alloc"
`??osal_mem_alloc::?relay` SYMBOL "?relay", osal_mem_alloc
osal_mem_free       SYMBOL "osal_mem_free"
`??osal_mem_free::?relay` SYMBOL "?relay", osal_mem_free
osal_memcmp         SYMBOL "osal_memcmp"
`??osal_memcmp::?relay` SYMBOL "?relay", osal_memcmp
osal_memcpy         SYMBOL "osal_memcpy"
`??osal_memcpy::?relay` SYMBOL "?relay", osal_memcpy
osal_memset         SYMBOL "osal_memset"
`??osal_memset::?relay` SYMBOL "?relay", osal_memset
osal_msg_allocate   SYMBOL "osal_msg_allocate"
`??osal_msg_allocate::?relay` SYMBOL "?relay", osal_msg_allocate
osal_msg_deallocate SYMBOL "osal_msg_deallocate"
`??osal_msg_deallocate::?relay` SYMBOL "?relay", osal_msg_deallocate
osal_msg_receive    SYMBOL "osal_msg_receive"
`??osal_msg_receive::?relay` SYMBOL "?relay", osal_msg_receive
osal_msg_send       SYMBOL "osal_msg_send"
`??osal_msg_send::?relay` SYMBOL "?relay", osal_msg_send
osal_nv_read        SYMBOL "osal_nv_read"
`??osal_nv_read::?relay` SYMBOL "?relay", osal_nv_read
osal_nv_write       SYMBOL "osal_nv_write"
`??osal_nv_write::?relay` SYMBOL "?relay", osal_nv_write
osal_set_event      SYMBOL "osal_set_event"
`??osal_set_event::?relay` SYMBOL "?relay", osal_set_event
osal_start_reload_timer SYMBOL "osal_start_reload_timer"
`??osal_start_reload_timer::?relay` SYMBOL "?relay", osal_start_reload_timer
osal_start_timerEx  SYMBOL "osal_start_timerEx"
`??osal_start_timerEx::?relay` SYMBOL "?relay", osal_start_timerEx
osal_stop_timerEx   SYMBOL "osal_stop_timerEx"
`??osal_stop_timerEx::?relay` SYMBOL "?relay", osal_stop_timerEx
printf              SYMBOL "printf"
`??printf::?relay`  SYMBOL "?relay", printf
sspMMOHash          SYMBOL "sspMMOHash"
`??sspMMOHash::?relay` SYMBOL "?relay", sspMMOHash
zclFindAttrRec      SYMBOL "zclFindAttrRec"
`??zclFindAttrRec::?relay` SYMBOL "?relay", zclFindAttrRec
zgWriteStartupOptions SYMBOL "zgWriteStartupOptions"
`??zgWriteStartupOptions::?relay` SYMBOL "?relay", zgWriteStartupOptions
bdb_AddRespondentNode SYMBOL "bdb_AddRespondentNode"
`??bdb_AddRespondentNode::?relay` SYMBOL "?relay", bdb_AddRespondentNode
bdb_ClearNetworkParams SYMBOL "bdb_ClearNetworkParams"
`??bdb_ClearNetworkParams::?relay` SYMBOL "?relay", bdb_ClearNetworkParams
bdb_CreateRespondentList SYMBOL "bdb_CreateRespondentList"
`??bdb_CreateRespondentList::?relay` SYMBOL "?relay", bdb_CreateRespondentList
bdb_GenerateInstallCodeCRC SYMBOL "bdb_GenerateInstallCodeCRC"
`??bdb_GenerateInstallCodeCRC::?relay` SYMBOL "?relay", bdb_GenerateInstallCodeCRC
bdb_Init            SYMBOL "bdb_Init"
`??bdb_Init::?relay` SYMBOL "?relay", bdb_Init
bdb_NetworkRestoredResumeState SYMBOL "bdb_NetworkRestoredResumeState"
`??bdb_NetworkRestoredResumeState::?relay` SYMBOL "?relay", bdb_NetworkRestoredResumeState
bdb_NotifyCommissioningModeStart SYMBOL "bdb_NotifyCommissioningModeStart"
`??bdb_NotifyCommissioningModeStart::?relay` SYMBOL "?relay", bdb_NotifyCommissioningModeStart
bdb_ProcessNodeDescRsp SYMBOL "bdb_ProcessNodeDescRsp"
`??bdb_ProcessNodeDescRsp::?relay` SYMBOL "?relay", bdb_ProcessNodeDescRsp
bdb_RegisterCommissioningStatusCB SYMBOL "bdb_RegisterCommissioningStatusCB"
`??bdb_RegisterCommissioningStatusCB::?relay` SYMBOL "?relay", bdb_RegisterCommissioningStatusCB
bdb_RegisterSimpleDescriptor SYMBOL "bdb_RegisterSimpleDescriptor"
`??bdb_RegisterSimpleDescriptor::?relay` SYMBOL "?relay", bdb_RegisterSimpleDescriptor
bdb_RegisterTCLinkKeyExchangeProcessCB SYMBOL "bdb_RegisterTCLinkKeyExchangeProcessCB"
`??bdb_RegisterTCLinkKeyExchangeProcessCB::?rela` SYMBOL "?relay", bdb_RegisterTCLinkKeyExchangeProcessCB
bdb_SendMsg         SYMBOL "bdb_SendMsg"
`??bdb_SendMsg::?relay` SYMBOL "?relay", bdb_SendMsg
bdb_StartCommissioning SYMBOL "bdb_StartCommissioning"
`??bdb_StartCommissioning::?relay` SYMBOL "?relay", bdb_StartCommissioning
bdb_TCAddJoiningDevice SYMBOL "bdb_TCAddJoiningDevice"
`??bdb_TCAddJoiningDevice::?relay` SYMBOL "?relay", bdb_TCAddJoiningDevice
bdb_TCjoiningDeviceComplete SYMBOL "bdb_TCjoiningDeviceComplete"
`??bdb_TCjoiningDeviceComplete::?relay` SYMBOL "?relay", bdb_TCjoiningDeviceComplete
bdb_ZclIdentifyCmdInd SYMBOL "bdb_ZclIdentifyCmdInd"
`??bdb_ZclIdentifyCmdInd::?relay` SYMBOL "?relay", bdb_ZclIdentifyCmdInd
bdb_addInstallCode  SYMBOL "bdb_addInstallCode"
`??bdb_addInstallCode::?relay` SYMBOL "?relay", bdb_addInstallCode
bdb_calculateCCITT_CRC SYMBOL "bdb_calculateCCITT_CRC"
`??bdb_calculateCCITT_CRC::?relay` SYMBOL "?relay", bdb_calculateCCITT_CRC
bdb_crcBitByBitFast SYMBOL "bdb_crcBitByBitFast"
`??bdb_crcBitByBitFast::?relay` SYMBOL "?relay", bdb_crcBitByBitFast
bdb_crcInit         SYMBOL "bdb_crcInit"
`??bdb_crcInit::?relay` SYMBOL "?relay", bdb_crcInit
bdb_crcReflect      SYMBOL "bdb_crcReflect"
`??bdb_crcReflect::?relay` SYMBOL "?relay", bdb_crcReflect
bdb_doTrustCenterRequireKeyExchange SYMBOL "bdb_doTrustCenterRequireKeyExchange"
`??bdb_doTrustCenterRequireKeyExchange::?relay` SYMBOL "?relay", bdb_doTrustCenterRequireKeyExchange
bdb_event_loop      SYMBOL "bdb_event_loop"
`??bdb_event_loop::?relay` SYMBOL "?relay", bdb_event_loop
bdb_getZCLFrameCounter SYMBOL "bdb_getZCLFrameCounter"
`??bdb_getZCLFrameCounter::?relay` SYMBOL "?relay", bdb_getZCLFrameCounter
bdb_isDeviceNonFactoryNew SYMBOL "bdb_isDeviceNonFactoryNew"
`??bdb_isDeviceNonFactoryNew::?relay` SYMBOL "?relay", bdb_isDeviceNonFactoryNew
bdb_nwkFormationAttempt SYMBOL "bdb_nwkFormationAttempt"
`??bdb_nwkFormationAttempt::?relay` SYMBOL "?relay", bdb_nwkFormationAttempt
bdb_parentLost      SYMBOL "bdb_parentLost"
`??bdb_parentLost::?relay` SYMBOL "?relay", bdb_parentLost
bdb_rejoinNwk       SYMBOL "bdb_rejoinNwk"
`??bdb_rejoinNwk::?relay` SYMBOL "?relay", bdb_rejoinNwk
bdb_reportCommissioningState SYMBOL "bdb_reportCommissioningState"
`??bdb_reportCommissioningState::?relay` SYMBOL "?relay", bdb_reportCommissioningState
bdb_resetLocalAction SYMBOL "bdb_resetLocalAction"
`??bdb_resetLocalAction::?relay` SYMBOL "?relay", bdb_resetLocalAction
bdb_setChannel      SYMBOL "bdb_setChannel"
`??bdb_setChannel::?relay` SYMBOL "?relay", bdb_setChannel
bdb_setChannelAttribute SYMBOL "bdb_setChannelAttribute"
`??bdb_setChannelAttribute::?relay` SYMBOL "?relay", bdb_setChannelAttribute
bdb_setCommissioningGroupID SYMBOL "bdb_setCommissioningGroupID"
`??bdb_setCommissioningGroupID::?relay` SYMBOL "?relay", bdb_setCommissioningGroupID
bdb_setFN           SYMBOL "bdb_setFN"
`??bdb_setFN::?relay` SYMBOL "?relay", bdb_setFN
bdb_setJoinUsesInstallCodeKey SYMBOL "bdb_setJoinUsesInstallCodeKey"
`??bdb_setJoinUsesInstallCodeKey::?relay` SYMBOL "?relay", bdb_setJoinUsesInstallCodeKey
bdb_setNodeIsOnANetwork SYMBOL "bdb_setNodeIsOnANetwork"
`??bdb_setNodeIsOnANetwork::?relay` SYMBOL "?relay", bdb_setNodeIsOnANetwork
bdb_setTCRequireKeyExchange SYMBOL "bdb_setTCRequireKeyExchange"
`??bdb_setTCRequireKeyExchange::?relay` SYMBOL "?relay", bdb_setTCRequireKeyExchange
bdb_touchlinkSendFNReset SYMBOL "bdb_touchlinkSendFNReset"
`??bdb_touchlinkSendFNReset::?relay` SYMBOL "?relay", bdb_touchlinkSendFNReset
bdb_zclRespondentListClean SYMBOL "bdb_zclRespondentListClean"
`??bdb_zclRespondentListClean::?relay` SYMBOL "?relay", bdb_zclRespondentListClean

        EXTERN `??APSME_AddTCLinkKey::?relay`
        FUNCTION `??APSME_AddTCLinkKey::?relay`,00H
        EXTERN `??APSME_IsDistributedSecurity::?relay`
        FUNCTION `??APSME_IsDistributedSecurity::?relay`,00H
        EXTERN `??APSME_SearchTCLinkKeyEntry::?relay`
        FUNCTION `??APSME_SearchTCLinkKeyEntry::?relay`,00H
        EXTERN `??AddrMgrEntryLookupExt::?relay`
        FUNCTION `??AddrMgrEntryLookupExt::?relay`,00H
        EXTERN `??GP_DataCnf::?relay`
        FUNCTION `??GP_DataCnf::?relay`,00H
        EXTERN `??GP_DataInd::?relay`
        FUNCTION `??GP_DataInd::?relay`,00H
        EXTERN `??GP_SecReq::?relay`
        FUNCTION `??GP_SecReq::?relay`,00H
        EXTERN `??NLME_ReJoinRequest::?relay`
        FUNCTION `??NLME_ReJoinRequest::?relay`,00H
        EXTERN `??NLME_ReJoinRequestUnsecure::?relay`
        FUNCTION `??NLME_ReJoinRequestUnsecure::?relay`,00H
        EXTERN `??NLME_ResetRequest::?relay`
        FUNCTION `??NLME_ResetRequest::?relay`,00H
        EXTERN `??ZDApp_ChangeState::?relay`
        FUNCTION `??ZDApp_ChangeState::?relay`,00H
        EXTERN `??ZDApp_ResetTimerStart::?relay`
        FUNCTION `??ZDApp_ResetTimerStart::?relay`,00H
        EXTERN `??ZDApp_RestoreNwkKey::?relay`
        FUNCTION `??ZDApp_RestoreNwkKey::?relay`,00H
        EXTERN `??ZDApp_RestoreNwkSecMaterial::?relay`
        FUNCTION `??ZDApp_RestoreNwkSecMaterial::?relay`,00H
        EXTERN `??ZDOInitDeviceEx::?relay`
        FUNCTION `??ZDOInitDeviceEx::?relay`,00H
        EXTERN `??ZDO_ParseNodeDescRsp::?relay`
        FUNCTION `??ZDO_ParseNodeDescRsp::?relay`,00H
        EXTERN `??ZDO_RegisterForZDOMsg::?relay`
        FUNCTION `??ZDO_RegisterForZDOMsg::?relay`,00H
        EXTERN `??ZDP_MgmtPermitJoinReq::?relay`
        FUNCTION `??ZDP_MgmtPermitJoinReq::?relay`,00H
        EXTERN `??ZDSecMgrAPSRemove::?relay`
        FUNCTION `??ZDSecMgrAPSRemove::?relay`,00H
        EXTERN `??ZDSecMgrAddrClear::?relay`
        FUNCTION `??ZDSecMgrAddrClear::?relay`,00H
        EXTERN `??ZMacSetReq::?relay`
        FUNCTION `??ZMacSetReq::?relay`,00H
        EXTERN `??afRegister::?relay`
        FUNCTION `??afRegister::?relay`,00H
        EXTERN `??bdb_ProcessIEEEAddrRsp::?relay`
        FUNCTION `??bdb_ProcessIEEEAddrRsp::?relay`,00H
        EXTERN `??bdb_ProcessRespondentList::?relay`
        FUNCTION `??bdb_ProcessRespondentList::?relay`,00H
        EXTERN `??bdb_ProcessSimpleDesc::?relay`
        FUNCTION `??bdb_ProcessSimpleDesc::?relay`,00H
        EXTERN `??bdb_SendIdentifyQuery::?relay`
        FUNCTION `??bdb_SendIdentifyQuery::?relay`,00H
        EXTERN `??bdb_exitFindingBindingWStatus::?relay`
        FUNCTION `??bdb_exitFindingBindingWStatus::?relay`,00H
        EXTERN `??bdb_getRespondentRetry::?relay`
        FUNCTION `??bdb_getRespondentRetry::?relay`,00H
        EXTERN `??bdb_setEpDescListToActiveEndpoint::?relay`
        FUNCTION `??bdb_setEpDescListToActiveEndpoint::?relay`,00H
        EXTERN `??bdb_setNodeJoinLinkKeyType::?relay`
        FUNCTION `??bdb_setNodeJoinLinkKeyType::?relay`,00H
        EXTERN `??bdb_tcLinkKeyExchangeAttempt::?relay`
        FUNCTION `??bdb_tcLinkKeyExchangeAttempt::?relay`,00H
        EXTERN `??gp_CheckAnnouncedDevice::?relay`
        FUNCTION `??gp_CheckAnnouncedDevice::?relay`,00H
        EXTERN `??gp_RegisterGPChangeChannelReqForBDBCB::?relay`
        FUNCTION `??gp_RegisterGPChangeChannelReqForBDBCB::?relay`,00H
        EXTERN `??gp_endpointInit::?relay`
        FUNCTION `??gp_endpointInit::?relay`,00H
        EXTERN `??gp_expireDuplicateFiltering::?relay`
        FUNCTION `??gp_expireDuplicateFiltering::?relay`,00H
        EXTERN `??gp_returnOperationalChannel::?relay`
        FUNCTION `??gp_returnOperationalChannel::?relay`,00H
        EXTERN `??gp_stopCommissioningMode::?relay`
        FUNCTION `??gp_stopCommissioningMode::?relay`,00H
        EXTERN `??nwk_setStateIdle::?relay`
        FUNCTION `??nwk_setStateIdle::?relay`,00H
        EXTERN `??osal_build_uint16::?relay`
        FUNCTION `??osal_build_uint16::?relay`,00H
        EXTERN `??osal_get_timeoutEx::?relay`
        FUNCTION `??osal_get_timeoutEx::?relay`,00H
        EXTERN `??osal_isbufset::?relay`
        FUNCTION `??osal_isbufset::?relay`,00H
        EXTERN `??osal_mem_alloc::?relay`
        FUNCTION `??osal_mem_alloc::?relay`,00H
        EXTERN `??osal_mem_free::?relay`
        FUNCTION `??osal_mem_free::?relay`,00H
        EXTERN `??osal_memcmp::?relay`
        FUNCTION `??osal_memcmp::?relay`,00H
        EXTERN `??osal_memcpy::?relay`
        FUNCTION `??osal_memcpy::?relay`,00H
        EXTERN `??osal_memset::?relay`
        FUNCTION `??osal_memset::?relay`,00H
        EXTERN `??osal_msg_allocate::?relay`
        FUNCTION `??osal_msg_allocate::?relay`,00H
        EXTERN `??osal_msg_deallocate::?relay`
        FUNCTION `??osal_msg_deallocate::?relay`,00H
        EXTERN `??osal_msg_receive::?relay`
        FUNCTION `??osal_msg_receive::?relay`,00H
        EXTERN `??osal_msg_send::?relay`
        FUNCTION `??osal_msg_send::?relay`,00H
        EXTERN `??osal_nv_read::?relay`
        FUNCTION `??osal_nv_read::?relay`,00H
        EXTERN `??osal_nv_write::?relay`
        FUNCTION `??osal_nv_write::?relay`,00H
        EXTERN `??osal_set_event::?relay`
        FUNCTION `??osal_set_event::?relay`,00H
        EXTERN `??osal_start_reload_timer::?relay`
        FUNCTION `??osal_start_reload_timer::?relay`,00H
        EXTERN `??osal_start_timerEx::?relay`
        FUNCTION `??osal_start_timerEx::?relay`,00H
        EXTERN `??osal_stop_timerEx::?relay`
        FUNCTION `??osal_stop_timerEx::?relay`,00H
        EXTERN `??printf::?relay`
        FUNCTION `??printf::?relay`,00H
        EXTERN `??sspMMOHash::?relay`
        FUNCTION `??sspMMOHash::?relay`,00H
        EXTERN `??zclFindAttrRec::?relay`
        FUNCTION `??zclFindAttrRec::?relay`,00H
        EXTERN `??zgWriteStartupOptions::?relay`
        FUNCTION `??zgWriteStartupOptions::?relay`,00H
        EXTERN AIB_apsTrustCenterAddress
        EXTERN APSME_AddTCLinkKey
        FUNCTION APSME_AddTCLinkKey,0202H
        ARGFRAME ISTACK, 0, STACK
        ARGFRAME PSTACK, 0, STACK
        ARGFRAME XSTACK, 30, STACK
        ARGFRAME IOVERLAY, 0, STATIC
        ARGFRAME DOVERLAY, 0, STATIC
        EXTERN APSME_IsDistributedSecurity
        FUNCTION APSME_IsDistributedSecurity,0202H
        ARGFRAME ISTACK, 0, STACK
        ARGFRAME PSTACK, 0, STACK
        ARGFRAME XSTACK, 45, STACK
        ARGFRAME IOVERLAY, 0, STATIC
        ARGFRAME DOVERLAY, 0, STATIC
        EXTERN APSME_SearchTCLinkKeyEntry
        FUNCTION APSME_SearchTCLinkKeyEntry,0202H
        ARGFRAME ISTACK, 0, STACK
        ARGFRAME PSTACK, 0, STACK
        ARGFRAME XSTACK, 60, STACK
        ARGFRAME IOVERLAY, 0, STATIC
        ARGFRAME DOVERLAY, 0, STATIC
        EXTERN AddrMgrEntryLookupExt
        FUNCTION AddrMgrEntryLookupExt,0202H
        ARGFRAME ISTACK, 0, STACK
        ARGFRAME PSTACK, 0, STACK
        ARGFRAME XSTACK, 58, STACK
        ARGFRAME IOVERLAY, 0, STATIC
        ARGFRAME DOVERLAY, 0, STATIC
        EXTERN GP_CheckAnnouncedDeviceGCB
        EXTERN GP_DataCnfGCB
        EXTERN GP_DataIndGCB
        EXTERN GP_SecReqGCB
        EXTERN GP_aliasConflictAnnce
        EXTERN GP_endpointInitGCB
        EXTERN GP_expireDuplicateFilteringGCB
        EXTERN GP_returnOperationalChannelGCB
        EXTERN GP_stopCommissioningModeGCB
        EXTERN NLME_ReJoinRequest
        FUNCTION NLME_ReJoinRequest,0202H
        ARGFRAME ISTACK, 0, STACK
        ARGFRAME PSTACK, 0, STACK
        ARGFRAME XSTACK, 10, STACK
        ARGFRAME IOVERLAY, 0, STATIC
        ARGFRAME DOVERLAY, 0, STATIC
        EXTERN NLME_ReJoinRequestUnsecure
        FUNCTION NLME_ReJoinRequestUnsecure,0202H
        ARGFRAME ISTACK, 0, STACK
        ARGFRAME PSTACK, 0, STACK
        ARGFRAME XSTACK, 10, STACK
        ARGFRAME IOVERLAY, 0, STATIC
        ARGFRAME DOVERLAY, 0, STATIC
        EXTERN NLME_ResetRequest
        FUNCTION NLME_ResetRequest,0202H
        ARGFRAME ISTACK, 0, STACK
        ARGFRAME PSTACK, 0, STACK
        ARGFRAME XSTACK, 14, STACK
        ARGFRAME IOVERLAY, 0, STATIC
        ARGFRAME DOVERLAY, 0, STATIC
        EXTERN TCLinkKeyFrmCntr
        EXTERN ZDApp_ChangeState
        FUNCTION ZDApp_ChangeState,0202H
        ARGFRAME ISTACK, 0, STACK
        ARGFRAME PSTACK, 0, STACK
        ARGFRAME XSTACK, 14, STACK
        ARGFRAME IOVERLAY, 0, STATIC
        ARGFRAME DOVERLAY, 0, STATIC
        EXTERN ZDApp_ResetTimerStart
        FUNCTION ZDApp_ResetTimerStart,0202H
        ARGFRAME ISTACK, 2, STACK
        ARGFRAME PSTACK, 0, STACK
        ARGFRAME XSTACK, 0, STACK
        ARGFRAME IOVERLAY, 0, STATIC
        ARGFRAME DOVERLAY, 0, STATIC
        EXTERN ZDApp_RestoreNwkKey
        FUNCTION ZDApp_RestoreNwkKey,0202H
        ARGFRAME ISTACK, 0, STACK
        ARGFRAME PSTACK, 0, STACK
        ARGFRAME XSTACK, 10, STACK
        ARGFRAME IOVERLAY, 0, STATIC
        ARGFRAME DOVERLAY, 0, STATIC
        EXTERN ZDApp_RestoreNwkSecMaterial
        FUNCTION ZDApp_RestoreNwkSecMaterial,0202H
        ARGFRAME ISTACK, 0, STACK
        ARGFRAME PSTACK, 0, STACK
        ARGFRAME XSTACK, 14, STACK
        ARGFRAME IOVERLAY, 0, STATIC
        ARGFRAME DOVERLAY, 0, STATIC
        EXTERN ZDOInitDeviceEx
        FUNCTION ZDOInitDeviceEx,0202H
        ARGFRAME ISTACK, 0, STACK
        ARGFRAME PSTACK, 0, STACK
        ARGFRAME XSTACK, 32, STACK
        ARGFRAME IOVERLAY, 0, STATIC
        ARGFRAME DOVERLAY, 0, STATIC
        EXTERN ZDO_ParseNodeDescRsp
        FUNCTION ZDO_ParseNodeDescRsp,0202H
        ARGFRAME ISTACK, 0, STACK
        ARGFRAME PSTACK, 0, STACK
        ARGFRAME XSTACK, 45, STACK
        ARGFRAME IOVERLAY, 0, STATIC
        ARGFRAME DOVERLAY, 0, STATIC
        EXTERN ZDO_RegisterForZDOMsg
        FUNCTION ZDO_RegisterForZDOMsg,0202H
        ARGFRAME ISTACK, 0, STACK
        ARGFRAME PSTACK, 0, STACK
        ARGFRAME XSTACK, 9, STACK
        ARGFRAME IOVERLAY, 0, STATIC
        ARGFRAME DOVERLAY, 0, STATIC
        EXTERN ZDO_UseExtendedPANID
        EXTERN ZDP_MgmtPermitJoinReq
        FUNCTION ZDP_MgmtPermitJoinReq,0202H
        ARGFRAME ISTACK, 2, STACK
        ARGFRAME PSTACK, 0, STACK
        ARGFRAME XSTACK, 9, STACK
        ARGFRAME IOVERLAY, 0, STATIC
        ARGFRAME DOVERLAY, 0, STATIC
        EXTERN ZDSecMgrAPSRemove
        FUNCTION ZDSecMgrAPSRemove,0202H
        ARGFRAME ISTACK, 0, STACK
        ARGFRAME PSTACK, 0, STACK
        ARGFRAME XSTACK, 60, STACK
        ARGFRAME IOVERLAY, 0, STATIC
        ARGFRAME DOVERLAY, 0, STATIC
        EXTERN ZDSecMgrAddrClear
        FUNCTION ZDSecMgrAddrClear,0202H
        ARGFRAME ISTACK, 0, STACK
        ARGFRAME PSTACK, 0, STACK
        ARGFRAME XSTACK, 58, STACK
        ARGFRAME IOVERLAY, 0, STATIC
        ARGFRAME DOVERLAY, 0, STATIC
        EXTERN ZMacSetReq
        FUNCTION ZMacSetReq,0202H
        ARGFRAME ISTACK, 0, STACK
        ARGFRAME PSTACK, 0, STACK
        ARGFRAME XSTACK, 14, STACK
        ARGFRAME IOVERLAY, 0, STATIC
        ARGFRAME DOVERLAY, 0, STATIC
        EXTERN _NIB
        EXTERN afRegister
        FUNCTION afRegister,0202H
        ARGFRAME ISTACK, 0, STACK
        ARGFRAME PSTACK, 0, STACK
        ARGFRAME XSTACK, 10, STACK
        ARGFRAME IOVERLAY, 0, STATIC
        ARGFRAME DOVERLAY, 0, STATIC
        EXTERN aliasConflictAnnce
        EXTERN bdbIndentifyActiveEndpoint
        EXTERN bdb_ProcessIEEEAddrRsp
        FUNCTION bdb_ProcessIEEEAddrRsp,0202H
        ARGFRAME ISTACK, 0, STACK
        ARGFRAME PSTACK, 0, STACK
        ARGFRAME XSTACK, 24, STACK
        ARGFRAME IOVERLAY, 0, STATIC
        ARGFRAME DOVERLAY, 0, STATIC
        EXTERN bdb_ProcessRespondentList
        FUNCTION bdb_ProcessRespondentList,0202H
        ARGFRAME ISTACK, 0, STACK
        ARGFRAME PSTACK, 0, STACK
        ARGFRAME XSTACK, 24, STACK
        ARGFRAME IOVERLAY, 0, STATIC
        ARGFRAME DOVERLAY, 0, STATIC
        EXTERN bdb_ProcessSimpleDesc
        FUNCTION bdb_ProcessSimpleDesc,0202H
        ARGFRAME ISTACK, 0, STACK
        ARGFRAME PSTACK, 0, STACK
        ARGFRAME XSTACK, 24, STACK
        ARGFRAME IOVERLAY, 0, STATIC
        ARGFRAME DOVERLAY, 0, STATIC
        EXTERN bdb_SendIdentifyQuery
        FUNCTION bdb_SendIdentifyQuery,0202H
        ARGFRAME ISTACK, 0, STACK
        ARGFRAME PSTACK, 0, STACK
        ARGFRAME XSTACK, 24, STACK
        ARGFRAME IOVERLAY, 0, STATIC
        ARGFRAME DOVERLAY, 0, STATIC
        EXTERN bdb_exitFindingBindingWStatus
        FUNCTION bdb_exitFindingBindingWStatus,0202H
        ARGFRAME ISTACK, 0, STACK
        ARGFRAME PSTACK, 0, STACK
        ARGFRAME XSTACK, 24, STACK
        ARGFRAME IOVERLAY, 0, STATIC
        ARGFRAME DOVERLAY, 0, STATIC
        EXTERN bdb_getRespondentRetry
        FUNCTION bdb_getRespondentRetry,0202H
        ARGFRAME ISTACK, 0, STACK
        ARGFRAME PSTACK, 0, STACK
        ARGFRAME XSTACK, 24, STACK
        ARGFRAME IOVERLAY, 0, STATIC
        ARGFRAME DOVERLAY, 0, STATIC
        EXTERN bdb_setEpDescListToActiveEndpoint
        FUNCTION bdb_setEpDescListToActiveEndpoint,0202H
        ARGFRAME ISTACK, 0, STACK
        ARGFRAME PSTACK, 0, STACK
        ARGFRAME XSTACK, 24, STACK
        ARGFRAME IOVERLAY, 0, STATIC
        ARGFRAME DOVERLAY, 0, STATIC
        EXTERN bdb_setNodeJoinLinkKeyType
        FUNCTION bdb_setNodeJoinLinkKeyType,0202H
        ARGFRAME ISTACK, 0, STACK
        ARGFRAME PSTACK, 0, STACK
        ARGFRAME XSTACK, 45, STACK
        ARGFRAME IOVERLAY, 0, STATIC
        ARGFRAME DOVERLAY, 0, STATIC
        EXTERN bdb_tcLinkKeyExchangeAttempt
        FUNCTION bdb_tcLinkKeyExchangeAttempt,0202H
        ARGFRAME ISTACK, 0, STACK
        ARGFRAME PSTACK, 0, STACK
        ARGFRAME XSTACK, 45, STACK
        ARGFRAME IOVERLAY, 0, STATIC
        ARGFRAME DOVERLAY, 0, STATIC
        EXTERN gp_RegisterGPChangeChannelReqForBDBCB
        FUNCTION gp_RegisterGPChangeChannelReqForBDBCB,0202H
        ARGFRAME ISTACK, 0, STACK
        ARGFRAME PSTACK, 0, STACK
        ARGFRAME XSTACK, 9, STACK
        ARGFRAME IOVERLAY, 0, STATIC
        ARGFRAME DOVERLAY, 0, STATIC
        EXTERN gp_endpointInit
        FUNCTION gp_endpointInit,0602H
        ARGFRAME ISTACK, 0, STACK
        ARGFRAME PSTACK, 0, STACK
        ARGFRAME XSTACK, 9, STACK
        ARGFRAME IOVERLAY, 0, STATIC
        ARGFRAME DOVERLAY, 0, STATIC
        EXTERN nwk_setStateIdle
        FUNCTION nwk_setStateIdle,0202H
        ARGFRAME ISTACK, 0, STACK
        ARGFRAME PSTACK, 0, STACK
        ARGFRAME XSTACK, 14, STACK
        ARGFRAME IOVERLAY, 0, STATIC
        ARGFRAME DOVERLAY, 0, STATIC
        EXTERN osal_build_uint16
        FUNCTION osal_build_uint16,0202H
        ARGFRAME ISTACK, 0, STACK
        ARGFRAME PSTACK, 0, STACK
        ARGFRAME XSTACK, 30, STACK
        ARGFRAME IOVERLAY, 0, STATIC
        ARGFRAME DOVERLAY, 0, STATIC
        EXTERN osal_get_timeoutEx
        FUNCTION osal_get_timeoutEx,0202H
        ARGFRAME ISTACK, 0, STACK
        ARGFRAME PSTACK, 0, STACK
        ARGFRAME XSTACK, 32, STACK
        ARGFRAME IOVERLAY, 0, STATIC
        ARGFRAME DOVERLAY, 0, STATIC
        EXTERN osal_isbufset
        FUNCTION osal_isbufset,0202H
        ARGFRAME ISTACK, 0, STACK
        ARGFRAME PSTACK, 0, STACK
        ARGFRAME XSTACK, 32, STACK
        ARGFRAME IOVERLAY, 0, STATIC
        ARGFRAME DOVERLAY, 0, STATIC
        EXTERN osal_mem_alloc
        FUNCTION osal_mem_alloc,0202H
        ARGFRAME ISTACK, 0, STACK
        ARGFRAME PSTACK, 0, STACK
        ARGFRAME XSTACK, 26, STACK
        ARGFRAME IOVERLAY, 0, STATIC
        ARGFRAME DOVERLAY, 0, STATIC
        EXTERN osal_mem_free
        FUNCTION osal_mem_free,0202H
        ARGFRAME ISTACK, 0, STACK
        ARGFRAME PSTACK, 0, STACK
        ARGFRAME XSTACK, 14, STACK
        ARGFRAME IOVERLAY, 0, STATIC
        ARGFRAME DOVERLAY, 0, STATIC
        EXTERN osal_memcmp
        FUNCTION osal_memcmp,0202H
        ARGFRAME ISTACK, 0, STACK
        ARGFRAME PSTACK, 0, STACK
        ARGFRAME XSTACK, 29, STACK
        ARGFRAME IOVERLAY, 0, STATIC
        ARGFRAME DOVERLAY, 0, STATIC
        EXTERN osal_memcpy
        FUNCTION osal_memcpy,0202H
        ARGFRAME ISTACK, 0, STACK
        ARGFRAME PSTACK, 0, STACK
        ARGFRAME XSTACK, 61, STACK
        ARGFRAME IOVERLAY, 0, STATIC
        ARGFRAME DOVERLAY, 0, STATIC
        EXTERN osal_memset
        FUNCTION osal_memset,0202H
        ARGFRAME ISTACK, 0, STACK
        ARGFRAME PSTACK, 0, STACK
        ARGFRAME XSTACK, 58, STACK
        ARGFRAME IOVERLAY, 0, STATIC
        ARGFRAME DOVERLAY, 0, STATIC
        EXTERN osal_msg_allocate
        FUNCTION osal_msg_allocate,0202H
        ARGFRAME ISTACK, 0, STACK
        ARGFRAME PSTACK, 0, STACK
        ARGFRAME XSTACK, 17, STACK
        ARGFRAME IOVERLAY, 0, STATIC
        ARGFRAME DOVERLAY, 0, STATIC
        EXTERN osal_msg_deallocate
        FUNCTION osal_msg_deallocate,0202H
        ARGFRAME ISTACK, 0, STACK
        ARGFRAME PSTACK, 0, STACK
        ARGFRAME XSTACK, 24, STACK
        ARGFRAME IOVERLAY, 0, STATIC
        ARGFRAME DOVERLAY, 0, STATIC
        EXTERN osal_msg_receive
        FUNCTION osal_msg_receive,0202H
        ARGFRAME ISTACK, 0, STACK
        ARGFRAME PSTACK, 0, STACK
        ARGFRAME XSTACK, 24, STACK
        ARGFRAME IOVERLAY, 0, STATIC
        ARGFRAME DOVERLAY, 0, STATIC
        EXTERN osal_msg_send
        FUNCTION osal_msg_send,0202H
        ARGFRAME ISTACK, 0, STACK
        ARGFRAME PSTACK, 0, STACK
        ARGFRAME XSTACK, 17, STACK
        ARGFRAME IOVERLAY, 0, STATIC
        ARGFRAME DOVERLAY, 0, STATIC
        EXTERN osal_nv_read
        FUNCTION osal_nv_read,0202H
        ARGFRAME ISTACK, 0, STACK
        ARGFRAME PSTACK, 0, STACK
        ARGFRAME XSTACK, 36, STACK
        ARGFRAME IOVERLAY, 0, STATIC
        ARGFRAME DOVERLAY, 0, STATIC
        EXTERN osal_nv_write
        FUNCTION osal_nv_write,0202H
        ARGFRAME ISTACK, 0, STACK
        ARGFRAME PSTACK, 0, STACK
        ARGFRAME XSTACK, 62, STACK
        ARGFRAME IOVERLAY, 0, STATIC
        ARGFRAME DOVERLAY, 0, STATIC
        EXTERN osal_set_event
        FUNCTION osal_set_event,0202H
        ARGFRAME ISTACK, 0, STACK
        ARGFRAME PSTACK, 0, STACK
        ARGFRAME XSTACK, 32, STACK
        ARGFRAME IOVERLAY, 0, STATIC
        ARGFRAME DOVERLAY, 0, STATIC
        EXTERN osal_start_reload_timer
        FUNCTION osal_start_reload_timer,0202H
        ARGFRAME ISTACK, 0, STACK
        ARGFRAME PSTACK, 0, STACK
        ARGFRAME XSTACK, 30, STACK
        ARGFRAME IOVERLAY, 0, STATIC
        ARGFRAME DOVERLAY, 0, STATIC
        EXTERN osal_start_timerEx
        FUNCTION osal_start_timerEx,0202H
        ARGFRAME ISTACK, 0, STACK
        ARGFRAME PSTACK, 0, STACK
        ARGFRAME XSTACK, 28, STACK
        ARGFRAME IOVERLAY, 0, STATIC
        ARGFRAME DOVERLAY, 0, STATIC
        EXTERN osal_stop_timerEx
        FUNCTION osal_stop_timerEx,0202H
        ARGFRAME ISTACK, 0, STACK
        ARGFRAME PSTACK, 0, STACK
        ARGFRAME XSTACK, 58, STACK
        ARGFRAME IOVERLAY, 0, STATIC
        ARGFRAME DOVERLAY, 0, STATIC
        EXTERN pbindAddEntry
        EXTERN pfnIdentifyTimeChangeCB
        EXTERN printf
        FUNCTION printf,0202H
        ARGFRAME ISTACK, 0, STACK
        ARGFRAME PSTACK, 0, STACK
        ARGFRAME XSTACK, 24, STACK
        ARGFRAME IOVERLAY, 0, STATIC
        ARGFRAME DOVERLAY, 0, STATIC
        EXTERN requestNewTrustCenterLinkKey
        EXTERN runtimeChannel
        EXTERN sspMMOHash
        FUNCTION sspMMOHash,0202H
        ARGFRAME ISTACK, 0, STACK
        ARGFRAME PSTACK, 0, STACK
        ARGFRAME XSTACK, 34, STACK
        ARGFRAME IOVERLAY, 0, STATIC
        ARGFRAME DOVERLAY, 0, STATIC
        EXTERN zclFindAttrRec
        FUNCTION zclFindAttrRec,0202H
        ARGFRAME ISTACK, 0, STACK
        ARGFRAME PSTACK, 0, STACK
        ARGFRAME XSTACK, 26, STACK
        ARGFRAME IOVERLAY, 0, STATIC
        ARGFRAME DOVERLAY, 0, STATIC
        EXTERN zcl_TaskID
        EXTERN zgAllowInstallCodes
        EXTERN zgDefaultChannelList
        EXTERN zgDeviceLogicalType
        EXTERN zgWriteStartupOptions
        FUNCTION zgWriteStartupOptions,0202H
        ARGFRAME ISTACK, 2, STACK
        ARGFRAME PSTACK, 0, STACK
        ARGFRAME XSTACK, 32, STACK
        ARGFRAME IOVERLAY, 0, STATIC
        ARGFRAME DOVERLAY, 0, STATIC

// D:\fuzzing-coordinator-response-collection\Components\stack\bdb\bdb.c
//    1 /**************************************************************************************************
//    2   Filename:       bdb.c
//    3   Revised:        $Date: 2016-02-25 11:51:49 -0700 (Thu, 25 Feb 2016) $
//    4   Revision:       $Revision: - $
//    5 
//    6   Description:    This file contains the Base Device Behavior functions and attributes.
//    7 
//    8 
//    9   Copyright 2006-2015 Texas Instruments Incorporated. All rights reserved.
//   10 
//   11   IMPORTANT: Your use of this Software is limited to those specific rights
//   12   granted under the terms of a software license agreement between the user
//   13   who downloaded the software, his/her employer (which must be your employer)
//   14   and Texas Instruments Incorporated (the "License").  You may not use this
//   15   Software unless you agree to abide by the terms of the License. The License
//   16   limits your use, and you acknowledge, that the Software may not be modified,
//   17   copied or distributed unless embedded on a Texas Instruments microcontroller
//   18   or used solely and exclusively in conjunction with a Texas Instruments radio
//   19   frequency transceiver, which is integrated into your product.  Other than for
//   20   the foregoing purpose, you may not use, reproduce, copy, prepare derivative
//   21   works of, modify, distribute, perform, display or sell this Software and/or
//   22   its documentation for any purpose.
//   23 
//   24   YOU FURTHER ACKNOWLEDGE AND AGREE THAT THE SOFTWARE AND DOCUMENTATION ARE
//   25   PROVIDED "AS IS" WITHOUT WARRANTY OF ANY KIND, EITHER EXPRESS OR IMPLIED,
//   26   INCLUDING WITHOUT LIMITATION, ANY WARRANTY OF MERCHANTABILITY, TITLE,
//   27   NON-INFRINGEMENT AND FITNESS FOR A PARTICULAR PURPOSE. IN NO EVENT SHALL
//   28   TEXAS INSTRUMENTS OR ITS LICENSORS BE LIABLE OR OBLIGATED UNDER CONTRACT,
//   29   NEGLIGENCE, STRICT LIABILITY, CONTRIBUTION, BREACH OF WARRANTY, OR OTHER
//   30   LEGAL EQUITABLE THEORY ANY DIRECT OR INDIRECT DAMAGES OR EXPENSES
//   31   INCLUDING BUT NOT LIMITED TO ANY INCIDENTAL, SPECIAL, INDIRECT, PUNITIVE
//   32   OR CONSEQUENTIAL DAMAGES, LOST PROFITS OR LOST DATA, COST OF PROCUREMENT
//   33   OF SUBSTITUTE GOODS, TECHNOLOGY, SERVICES, OR ANY CLAIMS BY THIRD PARTIES
//   34   (INCLUDING BUT NOT LIMITED TO ANY DEFENSE THEREOF), OR OTHER SIMILAR COSTS.
//   35 
//   36   Should you have any questions regarding your right to use this Software,
//   37   contact Texas Instruments Incorporated at www.TI.com.
//   38 **************************************************************************************************/
//   39 
//   40 /*********************************************************************
//   41  * INCLUDES
//   42  */
//   43 
//   44 #include "bdb.h"
//   45 #include "ZDApp.h"
//   46 #include "OSAL.h"
//   47 #include "ZDConfig.h"
//   48 #include "hal_led.h"
//   49 #include "ZDObject.h"
//   50 #include "OSAL_Nv.h"
//   51 #include "AddrMgr.h"
//   52 #include "ZDSecMgr.h"
//   53 #include "nwk.h"
//   54 #include "nwk_util.h"
//   55 #include "ssp_hash.h"
//   56 #ifdef BDB_REPORTING
//   57 #include "bdb_Reporting.h"
//   58 #endif 
//   59 
//   60 #if !defined (DISABLE_GREENPOWER_BASIC_PROXY) && (ZG_BUILD_RTR_TYPE)
//   61 #include "gp_interface.h"
//   62 #include "gp_common.h"
//   63 #include "dgp_stub.h"
//   64 #endif
//   65 
//   66 #include "bdb_interface.h"
//   67 
//   68 #include <stdio.h>
//   69 
//   70 #if defined ( INTER_PAN ) 
//   71 #if defined ( BDB_TL_INITIATOR )  
//   72 #include "bdb_touchlink_initiator.h"
//   73 #endif
//   74 #if defined ( BDB_TL_TARGET )  
//   75 #include "bdb_touchlink_target.h"
//   76 #endif
//   77 #endif
//   78    
//   79 #if defined ( INTER_PAN ) && ( defined ( BDB_TL_INITIATOR ) || defined ( BDB_TL_TARGET ) )
//   80   #include "bdb_touchlink.h"
//   81 #endif
//   82  
//   83 #ifdef MT_APP_CNF_FUNC
//   84 #include "MT_APP_CONFIG.h"
//   85 #endif
//   86    
//   87  /*********************************************************************
//   88  * MACROS
//   89  */
//   90 //This is actually the channels used
//   91 #define vScanChannels  zgDefaultChannelList
//   92    
//   93  /*********************************************************************
//   94  * CONSTANTS
//   95  */
//   96 
//   97 #define NUMBER_OF_CHANNELS     16
//   98 
//   99 #define CHANNEL_11_MASK_POS    11
//  100 #define CHANNEL_26_MASK_POS    26
//  101    

        RSEG XDATA_Z:XDATA:NOROOT(0)
        DATA8
//  102 uint8 bdb_FB_InitiatorCurrentCyclesNumber = 0; //last cycle is #1 (i.e. cycles-left = (bdb_FB_InitiatorCurrentCyclesNumber - 1))
bdb_FB_InitiatorCurrentCyclesNumber:
        DS 1
        REQUIRE __INIT_XDATA_Z
//  103 
//  104 /*********************************************************************
//  105  * TYPEDEFS
//  106  */
//  107  
//  108  
//  109  /*********************************************************************
//  110  * GLOBAL VARIABLES
//  111  */
//  112 

        RSEG XDATA_Z:XDATA:NOROOT(0)
        DATA8
//  113 byte bdb_TaskID;
bdb_TaskID:
        DS 1
        REQUIRE __INIT_XDATA_Z

        RSEG XDATA_I:XDATA:NOROOT(0)
//  114 bdbAttributes_t bdbAttributes = BDB_ATTRIBUTES_DEFAULT_CONFIG;
bdbAttributes:
        DATA8
        DS 18
        REQUIRE `?<Initializer for bdbAttributes>`
        REQUIRE __INIT_XDATA_I

        RSEG XDATA_Z:XDATA:NOROOT(0)
        DATA16
//  115 epList_t *bdb_HeadEpDescriptorList = NULL;
bdb_HeadEpDescriptorList:
        DS 2
        REQUIRE __INIT_XDATA_Z

        RSEG XDATA_Z:XDATA:NOROOT(0)
        DATA16
//  116 epList_t *bdb_CurrEpDescriptorList = NULL;
bdb_CurrEpDescriptorList:
        DS 2
        REQUIRE __INIT_XDATA_Z
//  117 

        RSEG XDATA_Z:XDATA:NOROOT(0)
        DATA16
//  118 bdbFindingBindingRespondent_t *pRespondentHead = NULL;
pRespondentHead:
        DS 2
        REQUIRE __INIT_XDATA_Z

        RSEG XDATA_Z:XDATA:NOROOT(0)
        DATA16
//  119 bdbFindingBindingRespondent_t *pRespondentCurr = NULL;
pRespondentCurr:
        DS 2
        REQUIRE __INIT_XDATA_Z

        RSEG XDATA_Z:XDATA:NOROOT(0)
        DATA16
//  120 bdbFindingBindingRespondent_t *pRespondentNext = NULL;
pRespondentNext:
        DS 2
        REQUIRE __INIT_XDATA_Z
//  121 

        RSEG XDATA_Z:XDATA:NOROOT(0)
        DATA32
//  122 bdbCommissioningProcedureState_t bdbCommissioningProcedureState; 
bdbCommissioningProcedureState:
        DS 4
        REQUIRE __INIT_XDATA_Z

        RSEG XDATA_Z:XDATA:NOROOT(0)
        DATA8
//  123 bool bdb_initialization = FALSE;  //Variable to tell if the initialization process has been started
bdb_initialization:
        DS 1
        REQUIRE __INIT_XDATA_Z
//  124 
//  125 //Nwk formation and nwk steering for nodes not in nwk

        RSEG XDATA_I:XDATA:NOROOT(0)
//  126 bool vDoPrimaryScan = TRUE;
vDoPrimaryScan:
        DATA8
        DS 1
        REQUIRE `?<Initializer for vDoPrimaryScan>`
        REQUIRE __INIT_XDATA_I
//  127 

        RSEG XDATA_I:XDATA:NOROOT(0)
//  128 uint8 zgBdbInstallCodeCRC[INSTALL_CODE_LEN + INSTALL_CODE_CRC_LEN] = {0x83,0xFE,0xD3,0x40,0x7A,0x93,0x97,0x23,0xA5,0xC6,0x39,0xB2,0x69,0x16,0xD5,0x05,0xC3,0xB5};
zgBdbInstallCodeCRC:
        DATA8
        DS 18
        REQUIRE `?<Initializer for zgBdbInstallCodeCRC>`
        REQUIRE __INIT_XDATA_I
//  129 
//  130 //Pointer of the nwk being tried in association process
//  131 #if (ZG_BUILD_JOINING_TYPE)
//  132 static networkDesc_t *pBDBListNwk = NULL;
//  133 #endif
//  134 

        RSEG XDATA_Z:XDATA:NOROOT(0)
        DATA8
//  135 uint8 bdb_ZclTransactionSequenceNumber=0x00;
bdb_ZclTransactionSequenceNumber:
        DS 1
        REQUIRE __INIT_XDATA_Z
//  136 

        RSEG XDATA_Z:XDATA:NOROOT(0)
        DATA8
//  137 bool touchLinkTargetEnabled = FALSE;
touchLinkTargetEnabled:
        DS 1
        REQUIRE __INIT_XDATA_Z
//  138 
//  139  /*********************************************************************
//  140  * EXTERNAL VARIABLES
//  141  */
//  142 
//  143 extern devStartModes_t devStartMode;
//  144 extern bool  requestNewTrustCenterLinkKey;
//  145 extern uint32 requestLinkKeyTimeout;
//  146 extern uint32 ZDApp_SavedPollRate;
//  147 
//  148 #if (BDB_FINDING_BINDING_CAPABILITY_ENABLED==1)
//  149 extern bdbGCB_IdentifyTimeChange_t pfnIdentifyTimeChangeCB;
//  150 extern uint8 bdbIndentifyActiveEndpoint;
//  151 #endif
//  152 
//  153 extern bdbFindingBindingRespondent_t *pRespondentNext;
//  154 
//  155 #ifndef DISABLE_GREENPOWER_BASIC_PROXY
//  156 extern ZDO_DeviceAnnce_t aliasConflictAnnce;
//  157 #endif
//  158 
//  159 /*********************************************************************
//  160  * EXTERNAL FUNCTIONS
//  161  */
//  162 
//  163 extern void ZDApp_ResetTimerStart( uint16 delay );
//  164 extern void ZDApp_NodeProfileSync( uint8 stackProfile );
//  165 extern uint8 ZDApp_RestoreNwkKey( uint8 incrFrmCnt );
//  166 extern uint8 ZDApp_ReadNetworkRestoreState( void );
//  167 
//  168 extern bdbFindingBindingRespondent_t* bdb_getRespondentRetry(bdbFindingBindingRespondent_t* pRespondentHead);
//  169 extern void bdb_ProcessSimpleDesc( zdoIncomingMsg_t *msgPtr );
//  170 extern void bdb_ProcessIEEEAddrRsp(zdoIncomingMsg_t *pMsg);
//  171 
//  172 /*********************************************************************
//  173  * LOCAL VARIABLES
//  174  */
//  175 #if (ZG_BUILD_JOINING_TYPE)
//  176   static uint8 bdb_nwkAssocRetriesCount = 0;
//  177 #endif
//  178 #if (ZG_BUILD_COORDINATOR_TYPE)

        RSEG XDATA_Z:XDATA:NOROOT(0)
        DATA16
//  179   static bdb_joiningDeviceList_t *bdb_joiningDeviceList = NULL;
bdb_joiningDeviceList:
        DS 2
        REQUIRE __INIT_XDATA_Z
//  180 #endif
//  181   
//  182 #if (BDB_FINDING_BINDING_CAPABILITY_ENABLED==1) 
//  183 //Latch to save the status success of any attempt in the periodic F&B process  

        RSEG XDATA_Z:XDATA:NOROOT(0)
        DATA8
//  184 static uint8 bdb_FBStateSuccessLatch = FALSE;
bdb_FBStateSuccessLatch:
        DS 1
        REQUIRE __INIT_XDATA_Z
//  185 #endif
//  186  /*********************************************************************
//  187  * LOCAL FUNCTIONS
//  188  */
//  189 static void bdb_ProcessOSALMsg(bdbInMsg_t *msgPtr);
//  190 void bdb_NotifyCommissioningModeStart(uint8 commissioningMode);
//  191 static void bdb_processZDOMgs(zdoIncomingMsg_t *pMsg);
//  192 
//  193 #if (ZG_BUILD_JOINING_TYPE)
//  194 static void bdb_requestTCStackVersion(void);
//  195 static void bdb_requestTCLinkKey(void);
//  196 static void bdb_requestVerifyTCLinkKey(void);
//  197 static void bdb_tryNwkAssoc(void);
//  198 #endif
//  199 
//  200 
//  201 static void bdb_processTimeout(void);
//  202 static void bdb_startResumeCommissioningProcess(void);
//  203 static void bdb_nwkSteeringDeviceOnNwk(void);
//  204 static void bdb_nwkJoiningFormation(bool isJoining);
//  205 
//  206 #if !defined (DISABLE_GREENPOWER_BASIC_PROXY) && (ZG_BUILD_RTR_TYPE)
//  207 static uint8 gp_ChangeChannelReq(void);
//  208 static void gp_CBInit(void);
//  209 #endif
//  210 
//  211 
//  212 #if (ZG_BUILD_COORDINATOR_TYPE)
//  213 static void bdb_TCProcessJoiningList(void);
//  214 static ZStatus_t bdb_TCJoiningDeviceFree(bdb_joiningDeviceList_t* JoiningDeviceToRemove);
//  215 #endif
//  216 #if (ZG_BUILD_COORDINATOR_TYPE)

        RSEG XDATA_Z:XDATA:NOROOT(0)
        DATA16
//  217 static bdbGCB_TCLinkKeyExchangeProcess_t  pfnTCLinkKeyExchangeProcessCB = NULL;
pfnTCLinkKeyExchangeProcessCB:
        DS 2
        REQUIRE __INIT_XDATA_Z
//  218 #endif

        RSEG XDATA_Z:XDATA:NOROOT(0)
        DATA16
//  219 static bdbGCB_CommissioningStatus_t       pfnCommissioningStatusCB = NULL; 
pfnCommissioningStatusCB:
        DS 2
        REQUIRE __INIT_XDATA_Z
//  220 #if (ZG_BUILD_JOINING_TYPE)
//  221 static bdbGCB_CBKETCLinkKeyExchange_t     pfnCBKETCLinkKeyExchange = NULL;
//  222 static bdbGCB_FilterNwkDesc_t             pfnFilterNwkDesc = NULL;   
//  223 #endif
//  224 
//  225 
//  226 
//  227 void bdb_calculateCCITT_CRC (uint8 *Mb, uint32 msglen, uint16 *crc);
//  228 void bdb_crcInit(uint16 *crc, uint16 *crcinit_direct, uint16 *crcinit_nondirect);
//  229 uint16 bdb_crcReflect (uint16 crc, uint16 bitnum);
//  230 uint16 bdb_crcBitByBitFast(uint8 * p, uint32 len, uint16 crcinit_direct, uint16 crcinit_nondirect);
//  231 void bdb_ProcessNodeDescRsp(zdoIncomingMsg_t *pMsg);
//  232 
//  233 /*********************************************************************
//  234  * PUBLIC FUNCTIONS
//  235  *********************************************************************/
//  236 void bdb_filterNwkDisc(void);
//  237 ZStatus_t bdb_joinProcess(networkDesc_t *pChosenNwk);
//  238 
//  239 ZStatus_t bdb_TCAddJoiningDevice(uint16 parentAddr, uint8* JoiningExtAddr);
//  240 void bdb_TCjoiningDeviceComplete(uint8* JoiningExtAddr);
//  241 
//  242  /*********************************************************************
//  243  * @fn          bdb_Init
//  244  *
//  245  * @brief       Initialization function for the Base Device Behavior.
//  246  *
//  247  * @param       task_id - bdb_TaskID Task ID
//  248  *
//  249  * @return      none
//  250  */

        RSEG BANKED_CODE:HUGECODE:NOROOT(0)
//  251 void bdb_Init( byte task_id )
bdb_Init:
          CFI Block cfiBlock0 Using cfiCommon0
          CFI Function bdb_Init
        CODE
//  252 {
        FUNCALL bdb_Init, ZDO_RegisterForZDOMsg
        LOCFRAME ISTACK, 0, STACK
        LOCFRAME PSTACK, 0, STACK
        LOCFRAME XSTACK, 9, STACK
        LOCFRAME IOVERLAY, 0, STATIC
        LOCFRAME DOVERLAY, 0, STATIC
        ARGFRAME ISTACK, 0, STACK
        ARGFRAME PSTACK, 0, STACK
        ARGFRAME XSTACK, 9, STACK
        ARGFRAME IOVERLAY, 0, STATIC
        ARGFRAME DOVERLAY, 0, STATIC
        FUNCALL bdb_Init, ZDO_RegisterForZDOMsg
        LOCFRAME ISTACK, 0, STACK
        LOCFRAME PSTACK, 0, STACK
        LOCFRAME XSTACK, 9, STACK
        LOCFRAME IOVERLAY, 0, STATIC
        LOCFRAME DOVERLAY, 0, STATIC
        ARGFRAME ISTACK, 0, STACK
        ARGFRAME PSTACK, 0, STACK
        ARGFRAME XSTACK, 9, STACK
        ARGFRAME IOVERLAY, 0, STATIC
        ARGFRAME DOVERLAY, 0, STATIC
        FUNCALL bdb_Init, ZDO_RegisterForZDOMsg
        LOCFRAME ISTACK, 0, STACK
        LOCFRAME PSTACK, 0, STACK
        LOCFRAME XSTACK, 9, STACK
        LOCFRAME IOVERLAY, 0, STATIC
        LOCFRAME DOVERLAY, 0, STATIC
        ARGFRAME ISTACK, 0, STACK
        ARGFRAME PSTACK, 0, STACK
        ARGFRAME XSTACK, 9, STACK
        ARGFRAME IOVERLAY, 0, STATIC
        ARGFRAME DOVERLAY, 0, STATIC
        FUNCALL bdb_Init, gp_RegisterGPChangeChannelReqForBDBCB
        LOCFRAME ISTACK, 0, STACK
        LOCFRAME PSTACK, 0, STACK
        LOCFRAME XSTACK, 9, STACK
        LOCFRAME IOVERLAY, 0, STATIC
        LOCFRAME DOVERLAY, 0, STATIC
        ARGFRAME ISTACK, 0, STACK
        ARGFRAME PSTACK, 0, STACK
        ARGFRAME XSTACK, 9, STACK
        ARGFRAME IOVERLAY, 0, STATIC
        ARGFRAME DOVERLAY, 0, STATIC
        FUNCALL bdb_Init, gp_endpointInit
        LOCFRAME ISTACK, 0, STACK
        LOCFRAME PSTACK, 0, STACK
        LOCFRAME XSTACK, 9, STACK
        LOCFRAME IOVERLAY, 0, STATIC
        LOCFRAME DOVERLAY, 0, STATIC
        ARGFRAME ISTACK, 0, STACK
        ARGFRAME PSTACK, 0, STACK
        ARGFRAME XSTACK, 9, STACK
        ARGFRAME IOVERLAY, 0, STATIC
        ARGFRAME DOVERLAY, 0, STATIC
        MOV       A,#-0x9
        LCALL     ?BANKED_ENTER_XDATA
          CFI DPH0 load(1, XDATA, add(CFA_XSP16, literal(-1)))
          CFI DPL0 load(1, XDATA, add(CFA_XSP16, literal(-2)))
          CFI ?BRET_EXT load(1, XDATA, add(CFA_XSP16, literal(-3)))
          CFI ?RET_HIGH load(1, XDATA, add(CFA_XSP16, literal(-4)))
          CFI ?RET_LOW load(1, XDATA, add(CFA_XSP16, literal(-5)))
          CFI R7 load(1, XDATA, add(CFA_XSP16, literal(-6)))
          CFI V0 load(1, XDATA, add(CFA_XSP16, literal(-7)))
          CFI VB load(1, XDATA, add(CFA_XSP16, literal(-8)))
          CFI R6 load(1, XDATA, add(CFA_XSP16, literal(-9)))
          CFI CFA_SP SP+0
          CFI CFA_XSP16 add(XSP16, 9)
        ; Saved register size: 9
        ; Auto size: 0
        MOV       A,R1
        MOV       R6,A
//  253   bdb_TaskID = task_id;
        MOV       DPTR,#bdb_TaskID
        MOVX      @DPTR,A
//  254     
//  255 #if (ZG_BUILD_COORDINATOR_TYPE)
//  256   if(ZG_DEVICE_COORDINATOR_TYPE)
//  257   {
//  258     if(bdbAttributes.bdbJoinUsesInstallCodeKey)
        MOV       DPTR,#bdbAttributes + 15
        MOVX      A,@DPTR
        JZ        ??bdb_Init_0
//  259     {
//  260       zgAllowInstallCodes = ZG_IC_MUST_USED;
        MOV       DPTR,#zgAllowInstallCodes
        MOV       A,#0x2
        MOVX      @DPTR,A
//  261     }
//  262   }
//  263 #endif
//  264   
//  265 #if defined ( INTER_PAN ) && defined ( BDB_TL_INITIATOR )  
//  266   touchLinkInitiator_InitDevice( );
//  267 #endif
//  268 
//  269 #if (BDB_REPORTING)
//  270   bdb_RepInit();
//  271 #endif  
//  272   
//  273   //Register ZDO callbacks
//  274   ZDO_RegisterForZDOMsg ( task_id, Node_Desc_rsp );
??bdb_Init_0:
        ; Setup parameters for call to function ZDO_RegisterForZDOMsg
        MOV       R2,#0x2
        MOV       R3,#-0x80
        LCALL     `??ZDO_RegisterForZDOMsg::?relay`; Banked call to: ZDO_RegisterForZDOMsg
//  275 #if (BDB_FINDING_BINDING_CAPABILITY_ENABLED==1)  
//  276   ZDO_RegisterForZDOMsg ( task_id, IEEE_addr_rsp );
        ; Setup parameters for call to function ZDO_RegisterForZDOMsg
        MOV       R2,#0x1
        MOV       R3,#-0x80
        MOV       A,R6
        MOV       R1,A
        LCALL     `??ZDO_RegisterForZDOMsg::?relay`; Banked call to: ZDO_RegisterForZDOMsg
//  277   ZDO_RegisterForZDOMsg ( task_id, Simple_Desc_rsp );
        ; Setup parameters for call to function ZDO_RegisterForZDOMsg
        MOV       R2,#0x4
        MOV       R3,#-0x80
        MOV       A,R6
        MOV       R1,A
        LCALL     `??ZDO_RegisterForZDOMsg::?relay`; Banked call to: ZDO_RegisterForZDOMsg
//  278 #endif
//  279   
//  280 #if !defined (DISABLE_GREENPOWER_BASIC_PROXY) && (ZG_BUILD_RTR_TYPE)
//  281   gp_RegisterGPChangeChannelReqForBDBCB(gp_ChangeChannelReq);
        ; Setup parameters for call to function gp_RegisterGPChangeChannelReqForBDBCB
        MOV       R2,#`??gp_ChangeChannelReq::?relay` & 0xff
        MOV       R3,#(`??gp_ChangeChannelReq::?relay` >> 8) & 0xff
        LCALL     `??gp_RegisterGPChangeChannelReqForBDBCB::?relay`; Banked call to: gp_RegisterGPChangeChannelReqForBDBCB
//  282   gp_CBInit();
        MOV       DPTR,#GP_DataCnfGCB
        MOV       A,#`??GP_DataCnf::?relay` & 0xff
        MOVX      @DPTR,A
        INC       DPTR
        MOV       A,#(`??GP_DataCnf::?relay` >> 8) & 0xff
        MOVX      @DPTR,A
        MOV       DPTR,#GP_endpointInitGCB
        MOV       A,#`??gp_endpointInit::?relay` & 0xff
        MOVX      @DPTR,A
        INC       DPTR
        MOV       A,#(`??gp_endpointInit::?relay` >> 8) & 0xff
        MOVX      @DPTR,A
        MOV       DPTR,#GP_expireDuplicateFilteringGCB
        MOV       A,#`??gp_expireDuplicateFiltering::?relay` & 0xff
        MOVX      @DPTR,A
        INC       DPTR
        MOV       A,#(`??gp_expireDuplicateFiltering::?relay` >> 8) & 0xff
        MOVX      @DPTR,A
        MOV       DPTR,#GP_stopCommissioningModeGCB
        MOV       A,#`??gp_stopCommissioningMode::?relay` & 0xff
        MOVX      @DPTR,A
        INC       DPTR
        MOV       A,#(`??gp_stopCommissioningMode::?relay` >> 8) & 0xff
        MOVX      @DPTR,A
        MOV       DPTR,#GP_returnOperationalChannelGCB
        MOV       A,#`??gp_returnOperationalChannel::?relay` & 0xff
        MOVX      @DPTR,A
        INC       DPTR
        MOV       A,#(`??gp_returnOperationalChannel::?relay` >> 8) & 0xff
        MOVX      @DPTR,A
        MOV       DPTR,#GP_DataIndGCB
        MOV       A,#`??GP_DataInd::?relay` & 0xff
        MOVX      @DPTR,A
        INC       DPTR
        MOV       A,#(`??GP_DataInd::?relay` >> 8) & 0xff
        MOVX      @DPTR,A
        MOV       DPTR,#GP_SecReqGCB
        MOV       A,#`??GP_SecReq::?relay` & 0xff
        MOVX      @DPTR,A
        INC       DPTR
        MOV       A,#(`??GP_SecReq::?relay` >> 8) & 0xff
        MOVX      @DPTR,A
        MOV       DPTR,#GP_CheckAnnouncedDeviceGCB
        MOV       A,#`??gp_CheckAnnouncedDevice::?relay` & 0xff
        MOVX      @DPTR,A
        INC       DPTR
        MOV       A,#(`??gp_CheckAnnouncedDevice::?relay` >> 8) & 0xff
        MOVX      @DPTR,A
        MOV       DPTR,#GP_aliasConflictAnnce
        MOV       A,#aliasConflictAnnce & 0xff
        MOVX      @DPTR,A
        INC       DPTR
        MOV       A,#(aliasConflictAnnce >> 8) & 0xff
        MOVX      @DPTR,A
        ; Setup parameters for call to function gp_endpointInit
        LCALL     `??gp_endpointInit::?relay`; Banked call to: gp_endpointInit
//  283 #endif
//  284 }
        LJMP      ?Subroutine0 & 0xFFFF
          CFI EndBlock cfiBlock0
//  285 
//  286 /*********************************************************************
//  287  * @fn      bdb_RegisterSimpleDescriptor
//  288  *
//  289  * @brief   Register the Simple descriptor. This function also registers 
//  290  *          the profile's cluster conversion table.
//  291  *
//  292  * @param   simpleDesc - a pointer to a valid SimpleDescriptionFormat_t, must not be NULL.
//  293  *
//  294  * @return  none
//  295  */

        RSEG BANKED_CODE:HUGECODE:NOROOT(0)
//  296 void bdb_RegisterSimpleDescriptor( SimpleDescriptionFormat_t *simpleDesc )
bdb_RegisterSimpleDescriptor:
          CFI Block cfiBlock1 Using cfiCommon0
          CFI Function bdb_RegisterSimpleDescriptor
        CODE
//  297 {
        FUNCALL bdb_RegisterSimpleDescriptor, osal_mem_alloc
        LOCFRAME ISTACK, 0, STACK
        LOCFRAME PSTACK, 0, STACK
        LOCFRAME XSTACK, 10, STACK
        LOCFRAME IOVERLAY, 0, STATIC
        LOCFRAME DOVERLAY, 0, STATIC
        ARGFRAME ISTACK, 0, STACK
        ARGFRAME PSTACK, 0, STACK
        ARGFRAME XSTACK, 10, STACK
        ARGFRAME IOVERLAY, 0, STATIC
        ARGFRAME DOVERLAY, 0, STATIC
        FUNCALL bdb_RegisterSimpleDescriptor, afRegister
        LOCFRAME ISTACK, 0, STACK
        LOCFRAME PSTACK, 0, STACK
        LOCFRAME XSTACK, 10, STACK
        LOCFRAME IOVERLAY, 0, STATIC
        LOCFRAME DOVERLAY, 0, STATIC
        ARGFRAME ISTACK, 0, STACK
        ARGFRAME PSTACK, 0, STACK
        ARGFRAME XSTACK, 10, STACK
        ARGFRAME IOVERLAY, 0, STATIC
        ARGFRAME DOVERLAY, 0, STATIC
        REQUIRE ?V0
        REQUIRE ?V1
        MOV       A,#-0xa
        LCALL     ?BANKED_ENTER_XDATA
          CFI DPH0 load(1, XDATA, add(CFA_XSP16, literal(-1)))
          CFI DPL0 load(1, XDATA, add(CFA_XSP16, literal(-2)))
          CFI ?BRET_EXT load(1, XDATA, add(CFA_XSP16, literal(-3)))
          CFI ?RET_HIGH load(1, XDATA, add(CFA_XSP16, literal(-4)))
          CFI ?RET_LOW load(1, XDATA, add(CFA_XSP16, literal(-5)))
          CFI R7 load(1, XDATA, add(CFA_XSP16, literal(-6)))
          CFI V1 load(1, XDATA, add(CFA_XSP16, literal(-7)))
          CFI V0 load(1, XDATA, add(CFA_XSP16, literal(-8)))
          CFI VB load(1, XDATA, add(CFA_XSP16, literal(-9)))
          CFI R6 load(1, XDATA, add(CFA_XSP16, literal(-10)))
          CFI CFA_SP SP+0
          CFI CFA_XSP16 add(XSP16, 10)
        ; Saved register size: 10
        ; Auto size: 0
        MOV       A,R2
        MOV       R6,A
        MOV       A,R3
        MOV       R7,A
//  298   endPointDesc_t *epDesc;
//  299 
//  300   // Register the application's endpoint descriptor
//  301   //  - This memory is allocated and never freed.
//  302   epDesc = osal_mem_alloc( sizeof ( endPointDesc_t ) );
        ; Setup parameters for call to function osal_mem_alloc
        MOV       R2,#0x7
        MOV       R3,#0x0
        LCALL     `??osal_mem_alloc::?relay`; Banked call to: osal_mem_alloc
//  303   if ( epDesc )
        MOV       A,R2
        ORL       A,R3
        JZ        ??bdb_RegisterSimpleDescriptor_0
//  304   {
//  305     // Fill out the endpoint description.
//  306     epDesc->endPoint = simpleDesc->EndPoint;
        MOV       DPL,R6
        MOV       DPH,R7
        MOVX      A,@DPTR
        MOV       DPL,R2
        MOV       DPH,R3
        MOVX      @DPTR,A
//  307     epDesc->task_id = &zcl_TaskID;   // all messages get sent to ZCL first
        INC       DPTR
        INC       DPTR
        MOV       A,#zcl_TaskID & 0xff
        MOVX      @DPTR,A
        INC       DPTR
        MOV       A,#(zcl_TaskID >> 8) & 0xff
        LCALL     ?Subroutine13 & 0xFFFF
//  308     epDesc->simpleDesc = simpleDesc;
??CrossCallReturnLabel_6:
        MOV       A,R6
        MOVX      @DPTR,A
        INC       DPTR
        MOV       A,R7
        LCALL     ?Subroutine13 & 0xFFFF
//  309     epDesc->latencyReq = noLatencyReqs;
??CrossCallReturnLabel_7:
        INC       DPTR
        INC       DPTR
        CLR       A
        MOVX      @DPTR,A
//  310 
//  311     // Register the endpoint description with the AF
//  312     afRegister( epDesc );
        ; Setup parameters for call to function afRegister
        LCALL     `??afRegister::?relay`; Banked call to: afRegister
//  313   }
//  314 }
??bdb_RegisterSimpleDescriptor_0:
        SJMP      ??Subroutine37_0
          CFI EndBlock cfiBlock1

        RSEG BANKED_CODE:HUGECODE:NOROOT(0)
?Subroutine13:
          CFI Block cfiCond2 Using cfiCommon0
          CFI Function bdb_RegisterSimpleDescriptor
          CFI Conditional ??CrossCallReturnLabel_6
          CFI R6 load(1, XDATA, add(CFA_XSP16, literal(-10)))
          CFI VB load(1, XDATA, add(CFA_XSP16, literal(-9)))
          CFI V0 load(1, XDATA, add(CFA_XSP16, literal(-8)))
          CFI V1 load(1, XDATA, add(CFA_XSP16, literal(-7)))
          CFI R7 load(1, XDATA, add(CFA_XSP16, literal(-6)))
          CFI ?RET_LOW load(1, XDATA, add(CFA_XSP16, literal(-5)))
          CFI ?RET_HIGH load(1, XDATA, add(CFA_XSP16, literal(-4)))
          CFI ?BRET_EXT load(1, XDATA, add(CFA_XSP16, literal(-3)))
          CFI DPL0 load(1, XDATA, add(CFA_XSP16, literal(-2)))
          CFI DPH0 load(1, XDATA, add(CFA_XSP16, literal(-1)))
          CFI CFA_SP SP+-2
          CFI CFA_XSP16 add(XSP16, 10)
          CFI Block cfiCond3 Using cfiCommon0
          CFI (cfiCond3) Function bdb_RegisterSimpleDescriptor
          CFI (cfiCond3) Conditional ??CrossCallReturnLabel_7
          CFI (cfiCond3) R6 load(1, XDATA, add(CFA_XSP16, literal(-10)))
          CFI (cfiCond3) VB load(1, XDATA, add(CFA_XSP16, literal(-9)))
          CFI (cfiCond3) V0 load(1, XDATA, add(CFA_XSP16, literal(-8)))
          CFI (cfiCond3) V1 load(1, XDATA, add(CFA_XSP16, literal(-7)))
          CFI (cfiCond3) R7 load(1, XDATA, add(CFA_XSP16, literal(-6)))
          CFI (cfiCond3) ?RET_LOW load(1, XDATA, add(CFA_XSP16, literal(-5)))
          CFI (cfiCond3) ?RET_HIGH load(1, XDATA, add(CFA_XSP16, literal(-4)))
          CFI (cfiCond3) ?BRET_EXT load(1, XDATA, add(CFA_XSP16, literal(-3)))
          CFI (cfiCond3) DPL0 load(1, XDATA, add(CFA_XSP16, literal(-2)))
          CFI (cfiCond3) DPH0 load(1, XDATA, add(CFA_XSP16, literal(-1)))
          CFI (cfiCond3) CFA_SP SP+-2
          CFI (cfiCond3) CFA_XSP16 add(XSP16, 10)
          CFI Block cfiPicker4 Using cfiCommon1
          CFI (cfiPicker4) NoFunction
          CFI (cfiPicker4) Picker
        MOVX      @DPTR,A
        MOV       DPL,R2
        MOV       DPH,R3
        INC       DPTR
        INC       DPTR
        INC       DPTR
        INC       DPTR
        RET
          CFI EndBlock cfiCond2
          CFI EndBlock cfiCond3
          CFI EndBlock cfiPicker4

        RSEG BANKED_CODE:HUGECODE:NOROOT(0)
?Subroutine1:
          CFI Block cfiBlock5 Using cfiCommon0
          CFI NoFunction
          CFI CFA_SP SP+0
          CFI CFA_XSP16 add(XSP16, 13)
          CFI VB load(1, XDATA, add(CFA_XSP16, literal(-9)))
          CFI DPL0 load(1, XDATA, add(CFA_XSP16, literal(-2)))
          CFI DPH0 load(1, XDATA, add(CFA_XSP16, literal(-1)))
          CFI R6 load(1, XDATA, add(CFA_XSP16, literal(-10)))
          CFI R7 load(1, XDATA, add(CFA_XSP16, literal(-6)))
          CFI V0 load(1, XDATA, add(CFA_XSP16, literal(-8)))
          CFI V1 load(1, XDATA, add(CFA_XSP16, literal(-7)))
          CFI ?BRET_EXT load(1, XDATA, add(CFA_XSP16, literal(-3)))
          CFI ?RET_HIGH load(1, XDATA, add(CFA_XSP16, literal(-4)))
          CFI ?RET_LOW load(1, XDATA, add(CFA_XSP16, literal(-5)))
          CFI Invalid
        LCALL     ?DEALLOC_XSTACK8
          CFI EndBlock cfiBlock5
        REQUIRE ??Subroutine37_0
        ; // Fall through to label ??Subroutine37_0

        RSEG BANKED_CODE:HUGECODE:NOROOT(0)
??Subroutine37_0:
          CFI Block cfiBlock6 Using cfiCommon0
          CFI NoFunction
          CFI CFA_SP SP+0
          CFI CFA_XSP16 add(XSP16, 10)
          CFI VB load(1, XDATA, add(CFA_XSP16, literal(-9)))
          CFI DPL0 load(1, XDATA, add(CFA_XSP16, literal(-2)))
          CFI DPH0 load(1, XDATA, add(CFA_XSP16, literal(-1)))
          CFI R6 load(1, XDATA, add(CFA_XSP16, literal(-10)))
          CFI R7 load(1, XDATA, add(CFA_XSP16, literal(-6)))
          CFI V0 load(1, XDATA, add(CFA_XSP16, literal(-8)))
          CFI V1 load(1, XDATA, add(CFA_XSP16, literal(-7)))
          CFI ?BRET_EXT load(1, XDATA, add(CFA_XSP16, literal(-3)))
          CFI ?RET_HIGH load(1, XDATA, add(CFA_XSP16, literal(-4)))
          CFI ?RET_LOW load(1, XDATA, add(CFA_XSP16, literal(-5)))
        MOV       R7,#0x2
        LJMP      ?BANKED_LEAVE_XDATA
          CFI EndBlock cfiBlock6
//  315 
//  316 #if (BDB_FINDING_BINDING_CAPABILITY_ENABLED==1)  
//  317 /*********************************************************************
//  318  * @fn      bdb_ZclIdentifyCmdInd
//  319  *
//  320  * @brief   Callback from the ZCL General Cluster Library when
//  321  *          it received an Identity Command for this application.
//  322  *
//  323  * @param   identifyTime - the number of seconds to identify yourself
//  324  * @param   endpoint - destination endpoint
//  325  *
//  326  * @return  none
//  327  */

        RSEG BANKED_CODE:HUGECODE:NOROOT(0)
//  328 void bdb_ZclIdentifyCmdInd( uint16 identifyTime, uint8 endpoint )
bdb_ZclIdentifyCmdInd:
          CFI Block cfiBlock7 Using cfiCommon0
          CFI Function bdb_ZclIdentifyCmdInd
        CODE
//  329 {
        FUNCALL bdb_ZclIdentifyCmdInd, zclFindAttrRec
        LOCFRAME ISTACK, 0, STACK
        LOCFRAME PSTACK, 0, STACK
        LOCFRAME XSTACK, 22, STACK
        LOCFRAME IOVERLAY, 0, STATIC
        LOCFRAME DOVERLAY, 0, STATIC
        ARGFRAME ISTACK, 0, STACK
        ARGFRAME PSTACK, 0, STACK
        ARGFRAME XSTACK, 22, STACK
        ARGFRAME IOVERLAY, 0, STATIC
        ARGFRAME DOVERLAY, 0, STATIC
        FUNCALL bdb_ZclIdentifyCmdInd, osal_start_timerEx
        LOCFRAME ISTACK, 0, STACK
        LOCFRAME PSTACK, 0, STACK
        LOCFRAME XSTACK, 24, STACK
        LOCFRAME IOVERLAY, 0, STATIC
        LOCFRAME DOVERLAY, 0, STATIC
        ARGFRAME ISTACK, 0, STACK
        ARGFRAME PSTACK, 0, STACK
        ARGFRAME XSTACK, 24, STACK
        ARGFRAME IOVERLAY, 0, STATIC
        ARGFRAME DOVERLAY, 0, STATIC
        FUNCALL bdb_ZclIdentifyCmdInd, osal_stop_timerEx
        LOCFRAME ISTACK, 0, STACK
        LOCFRAME PSTACK, 0, STACK
        LOCFRAME XSTACK, 20, STACK
        LOCFRAME IOVERLAY, 0, STATIC
        LOCFRAME DOVERLAY, 0, STATIC
        ARGFRAME ISTACK, 0, STACK
        ARGFRAME PSTACK, 0, STACK
        ARGFRAME XSTACK, 20, STACK
        ARGFRAME IOVERLAY, 0, STATIC
        ARGFRAME DOVERLAY, 0, STATIC
        REQUIRE ?V0
        REQUIRE ?V1
        REQUIRE ?V2
        REQUIRE ?V3
        MOV       A,#-0xc
        LCALL     ?BANKED_ENTER_XDATA
          CFI DPH0 load(1, XDATA, add(CFA_XSP16, literal(-1)))
          CFI DPL0 load(1, XDATA, add(CFA_XSP16, literal(-2)))
          CFI ?BRET_EXT load(1, XDATA, add(CFA_XSP16, literal(-3)))
          CFI ?RET_HIGH load(1, XDATA, add(CFA_XSP16, literal(-4)))
          CFI ?RET_LOW load(1, XDATA, add(CFA_XSP16, literal(-5)))
          CFI R7 load(1, XDATA, add(CFA_XSP16, literal(-6)))
          CFI V3 load(1, XDATA, add(CFA_XSP16, literal(-7)))
          CFI V2 load(1, XDATA, add(CFA_XSP16, literal(-8)))
          CFI V1 load(1, XDATA, add(CFA_XSP16, literal(-9)))
          CFI V0 load(1, XDATA, add(CFA_XSP16, literal(-10)))
          CFI VB load(1, XDATA, add(CFA_XSP16, literal(-11)))
          CFI R6 load(1, XDATA, add(CFA_XSP16, literal(-12)))
          CFI CFA_SP SP+0
          CFI CFA_XSP16 add(XSP16, 12)
        ; Saved register size: 12
        ; Auto size: 8
        MOV       A,#-0x8
        LCALL     ?ALLOC_XSTACK8
          CFI CFA_XSP16 add(XSP16, 20)
        MOV       ?V0,R2
        MOV       ?V1,R3
        MOV       A,R1
        MOV       R6,A
//  330   zclAttrRec_t identifyAttrRec;
//  331   
//  332   if ( zclFindAttrRec( endpoint, ZCL_CLUSTER_ID_GEN_IDENTIFY,
//  333                       ATTRID_IDENTIFY_TIME, &identifyAttrRec ) )
        ; Setup parameters for call to function zclFindAttrRec
        MOV       R0,?XSP + 0
        MOV       R1,?XSP + 1
        MOV       ?V2,R0
        MOV       ?V3,R1
        MOV       R0,#?V2
        LCALL     ?PUSH_XSTACK_I_TWO
          CFI CFA_XSP16 add(XSP16, 22)
        MOV       R4,#0x0
        MOV       R5,#0x0
        MOV       R2,#0x3
        MOV       R3,#0x0
        MOV       A,R6
        MOV       R1,A
        LCALL     `??zclFindAttrRec::?relay`; Banked call to: zclFindAttrRec
        MOV       A,#0x2
        LCALL     ?DEALLOC_XSTACK8
          CFI CFA_XSP16 add(XSP16, 20)
        MOV       A,R1
        JZ        ??bdb_ZclIdentifyCmdInd_0
//  334   {
//  335     //If we are processing an actual change
//  336     if(*(uint16*)identifyAttrRec.attr.dataPtr != identifyTime)
        MOV       A,#0x6
        LCALL     ?XSTACK_DISP0_8
        LCALL     ?Subroutine24 & 0xFFFF
??CrossCallReturnLabel_25:
        MOVX      A,@DPTR
        XRL       A,?V0
        JNZ       ??bdb_ZclIdentifyCmdInd_1
        INC       DPTR
        MOVX      A,@DPTR
        XRL       A,?V1
??bdb_ZclIdentifyCmdInd_1:
        JZ        ??bdb_ZclIdentifyCmdInd_0
//  337     {
//  338       if ( identifyTime > 0 )
        MOV       A,?V0
        ORL       A,?V1
        MOV       DPL,R0
        MOV       DPH,R1
        JZ        ??bdb_ZclIdentifyCmdInd_2
//  339       {
//  340         *((uint16*)identifyAttrRec.attr.dataPtr) = identifyTime;
        MOV       A,?V0
        MOVX      @DPTR,A
        INC       DPTR
        MOV       A,?V1
        MOVX      @DPTR,A
//  341         osal_start_timerEx( bdb_TaskID, BDB_IDENTIFY_TIMEOUT, 1000 );
        ; Setup parameters for call to function osal_start_timerEx
        MOV       DPTR,#__Constant_3e8
        LCALL     ?PUSH_XSTACK8_X_FOUR
          CFI CFA_XSP16 add(XSP16, 24)
        MOV       R2,#0x0
        MOV       R3,#0x20
        MOV       DPTR,#bdb_TaskID
        MOVX      A,@DPTR
        MOV       R1,A
        LCALL     `??osal_start_timerEx::?relay`; Banked call to: osal_start_timerEx
        MOV       A,#0x4
        LCALL     ?DEALLOC_XSTACK8
          CFI CFA_XSP16 add(XSP16, 20)
        SJMP      ??bdb_ZclIdentifyCmdInd_3
//  342       }
//  343       else if ( identifyTime <= 0 )
//  344       {
//  345         *((uint16*)identifyAttrRec.attr.dataPtr) = 0;
??bdb_ZclIdentifyCmdInd_2:
        CLR       A
        MOVX      @DPTR,A
        INC       DPTR
        MOVX      @DPTR,A
//  346         osal_stop_timerEx( bdb_TaskID, BDB_IDENTIFY_TIMEOUT );
        ; Setup parameters for call to function osal_stop_timerEx
        MOV       R2,A
        MOV       R3,#0x20
        MOV       DPTR,#bdb_TaskID
        MOVX      A,@DPTR
        MOV       R1,A
        LCALL     `??osal_stop_timerEx::?relay`; Banked call to: osal_stop_timerEx
//  347       }
//  348       
//  349       if(pfnIdentifyTimeChangeCB != NULL)
??bdb_ZclIdentifyCmdInd_3:
        MOV       DPTR,#pfnIdentifyTimeChangeCB
        LCALL     ??Subroutine46_0 & 0xFFFF
??CrossCallReturnLabel_52:
        JZ        ??bdb_ZclIdentifyCmdInd_0
//  350       {
//  351         pfnIdentifyTimeChangeCB(endpoint);
        ; Setup parameters for indirect call
        MOV       A,R6
        MOV       R1,A
        LCALL     ??Subroutine48_0 & 0xFFFF
//  352       }
//  353     }
//  354   }
??CrossCallReturnLabel_78:
        LCALL     ?CALL_IND
//  355 }
??bdb_ZclIdentifyCmdInd_0:
        MOV       A,#0x8
        LJMP      ??Subroutine42_0 & 0xFFFF
          CFI EndBlock cfiBlock7
//  356 #endif
//  357 
//  358 
//  359 #if (ZG_BUILD_JOINING_TYPE) 
//  360  /*********************************************************************
//  361  * @fn          bdb_setActiveCentralizedLinkKey
//  362  *
//  363  * @brief       Set the active centralized key to be used, Global or IC derived.
//  364  *
//  365  * @param       useGlobal - If TRUE, then use default TC link key, if FALSE use 
//  366  *                          pBuf as source for IC key derived input
//  367  * @param       pBuf - The expected format and length of the IC is defined by 
//  368  *                     BDB_INSTALL_CODE_USE
//  369  *
//  370  * @return      ZStatus_t - ZFailure when no valid BDB_INSTALL_CODE_USE is used
//  371  *                          ZInvalidParameter when IC buffer is null
//  372  */
//  373 ZStatus_t bdb_setActiveCentralizedLinkKey(bool useGlobal, uint8* pBuf)
//  374 {
//  375   ZStatus_t Status = ZSuccess;
//  376   uint8 extAddr[Z_EXTADDR_LEN];
//  377   
//  378   if(useGlobal)
//  379   {
//  380     //Set the default key to be used in centralized networks as defaultTCLinkKey
//  381     APSME_SetDefaultKey();
//  382   } 
//  383   else
//  384   {
//  385     if(pBuf != NULL)
//  386     {
//  387   #if (BDB_INSTALL_CODE_USE==BDB_INSTALL_CODE_USE_IC_CRC)
//  388       
//  389       osal_memset(extAddr,0x00,Z_EXTADDR_LEN);
//  390       
//  391       //Set the install code as default key
//  392       Status = bdb_addInstallCode(pBuf,extAddr);
//  393     
//  394   #elif (BDB_INSTALL_CODE_USE==BDB_INSTALL_CODE_USE_KEY)
//  395 
//  396       //Set the key as global default
//  397       APSME_AddTCLinkKey(pBuf,extAddr);
//  398   #else
//  399     
//  400       //BDB_INSTALL_CODE_USE not supported
//  401       Status = ZFailure;
//  402   #endif
//  403     }
//  404     else
//  405     {
//  406       Status = ZInvalidParameter;
//  407     }
//  408   }
//  409   return Status;
//  410 }
//  411 #endif
//  412 
//  413 
//  414     
//  415   
//  416 /******************************************************************************
//  417  * @fn          bdb_addInstallCode
//  418  *
//  419  * @brief       Interface to add an install codes and adds a APS TC Link key.
//  420  *
//  421  * @param       pInstallCode - [in] Install Code with CRC (buffer size of 18 bytes).
//  422  *              pExt - [in] Extended address of the node.
//  423  *
//  424  * @return      ZStatus_t
//  425  */

        RSEG BANKED_CODE:HUGECODE:NOROOT(0)
//  426 ZStatus_t bdb_addInstallCode(uint8* pInstallCode, uint8* pExt)
bdb_addInstallCode:
          CFI Block cfiBlock8 Using cfiCommon0
          CFI Function bdb_addInstallCode
        CODE
//  427 {
        FUNCALL bdb_addInstallCode, bdb_GenerateInstallCodeCRC
        LOCFRAME ISTACK, 0, STACK
        LOCFRAME PSTACK, 0, STACK
        LOCFRAME XSTACK, 30, STACK
        LOCFRAME IOVERLAY, 0, STATIC
        LOCFRAME DOVERLAY, 0, STATIC
        ARGFRAME ISTACK, 0, STACK
        ARGFRAME PSTACK, 0, STACK
        ARGFRAME XSTACK, 30, STACK
        ARGFRAME IOVERLAY, 0, STATIC
        ARGFRAME DOVERLAY, 0, STATIC
        FUNCALL bdb_addInstallCode, osal_build_uint16
        LOCFRAME ISTACK, 0, STACK
        LOCFRAME PSTACK, 0, STACK
        LOCFRAME XSTACK, 30, STACK
        LOCFRAME IOVERLAY, 0, STATIC
        LOCFRAME DOVERLAY, 0, STATIC
        ARGFRAME ISTACK, 0, STACK
        ARGFRAME PSTACK, 0, STACK
        ARGFRAME XSTACK, 30, STACK
        ARGFRAME IOVERLAY, 0, STATIC
        ARGFRAME DOVERLAY, 0, STATIC
        FUNCALL bdb_addInstallCode, sspMMOHash
        LOCFRAME ISTACK, 0, STACK
        LOCFRAME PSTACK, 0, STACK
        LOCFRAME XSTACK, 34, STACK
        LOCFRAME IOVERLAY, 0, STATIC
        LOCFRAME DOVERLAY, 0, STATIC
        ARGFRAME ISTACK, 0, STACK
        ARGFRAME PSTACK, 0, STACK
        ARGFRAME XSTACK, 34, STACK
        ARGFRAME IOVERLAY, 0, STATIC
        ARGFRAME DOVERLAY, 0, STATIC
        FUNCALL bdb_addInstallCode, APSME_AddTCLinkKey
        LOCFRAME ISTACK, 0, STACK
        LOCFRAME PSTACK, 0, STACK
        LOCFRAME XSTACK, 30, STACK
        LOCFRAME IOVERLAY, 0, STATIC
        LOCFRAME DOVERLAY, 0, STATIC
        ARGFRAME ISTACK, 0, STACK
        ARGFRAME PSTACK, 0, STACK
        ARGFRAME XSTACK, 30, STACK
        ARGFRAME IOVERLAY, 0, STATIC
        ARGFRAME DOVERLAY, 0, STATIC
        REQUIRE ?V0
        REQUIRE ?V1
        REQUIRE ?V2
        REQUIRE ?V3
        REQUIRE ?V4
        REQUIRE ?V5
        MOV       A,#-0xe
        LCALL     ?BANKED_ENTER_XDATA
          CFI DPH0 load(1, XDATA, add(CFA_XSP16, literal(-1)))
          CFI DPL0 load(1, XDATA, add(CFA_XSP16, literal(-2)))
          CFI ?BRET_EXT load(1, XDATA, add(CFA_XSP16, literal(-3)))
          CFI ?RET_HIGH load(1, XDATA, add(CFA_XSP16, literal(-4)))
          CFI ?RET_LOW load(1, XDATA, add(CFA_XSP16, literal(-5)))
          CFI R7 load(1, XDATA, add(CFA_XSP16, literal(-6)))
          CFI V5 load(1, XDATA, add(CFA_XSP16, literal(-7)))
          CFI V4 load(1, XDATA, add(CFA_XSP16, literal(-8)))
          CFI V3 load(1, XDATA, add(CFA_XSP16, literal(-9)))
          CFI V2 load(1, XDATA, add(CFA_XSP16, literal(-10)))
          CFI V1 load(1, XDATA, add(CFA_XSP16, literal(-11)))
          CFI V0 load(1, XDATA, add(CFA_XSP16, literal(-12)))
          CFI VB load(1, XDATA, add(CFA_XSP16, literal(-13)))
          CFI R6 load(1, XDATA, add(CFA_XSP16, literal(-14)))
          CFI CFA_SP SP+0
          CFI CFA_XSP16 add(XSP16, 14)
        ; Saved register size: 14
        ; Auto size: 16
        MOV       A,#-0x10
        LCALL     ?ALLOC_XSTACK8
          CFI CFA_XSP16 add(XSP16, 30)
        MOV       A,R2
        MOV       R6,A
        MOV       A,R3
        MOV       R7,A
        MOV       ?V2,R4
        MOV       ?V3,R5
//  428   uint8  hashOutput[16];
//  429   uint16 CRC;
//  430   
//  431 #if (ZG_BUILD_COORDINATOR_TYPE)
//  432   if(ZG_DEVICE_COORDINATOR_TYPE)
//  433   {
//  434     if(zgAllowInstallCodes == ZG_IC_NOT_SUPPORTED)
        MOV       DPTR,#zgAllowInstallCodes
        MOVX      A,@DPTR
        JNZ       ??bdb_addInstallCode_0
//  435     {
//  436       return ZFailure;
        MOV       R1,#0x1
        SJMP      ??bdb_addInstallCode_1
//  437     }
//  438   }
//  439 #endif
//  440        
//  441   if((pInstallCode == NULL) || (pExt == NULL))
??bdb_addInstallCode_0:
        MOV       A,R6
        ORL       A,R7
        JZ        ??bdb_addInstallCode_2
        MOV       A,R4
        ORL       A,?V3
        JZ        ??bdb_addInstallCode_2
//  442   {
//  443     return ZInvalidParameter;
//  444   }
//  445   
//  446   CRC = bdb_GenerateInstallCodeCRC(pInstallCode);
        ; Setup parameters for call to function bdb_GenerateInstallCodeCRC
        LCALL     `??bdb_GenerateInstallCodeCRC::?relay`; Banked call to: bdb_GenerateInstallCodeCRC
        MOV       ?V0,R2
        MOV       ?V1,R3
//  447   //Validate CRC
//  448   if(CRC != osal_build_uint16(&pInstallCode[INSTALL_CODE_LEN]))
        ; Setup parameters for call to function osal_build_uint16
        MOV       A,R6
        ADD       A,#0x10
        MOV       R2,A
        CLR       A
        ADDC      A,R7
        MOV       R3,A
        LCALL     `??osal_build_uint16::?relay`; Banked call to: osal_build_uint16
        MOV       A,R2
        XRL       A,?V0
        JNZ       ??bdb_addInstallCode_3
        MOV       A,R3
        XRL       A,?V1
??bdb_addInstallCode_3:
        JZ        ??bdb_addInstallCode_4
//  449   {
//  450     return ZInvalidParameter;
??bdb_addInstallCode_2:
        MOV       R1,#0x2
        SJMP      ??bdb_addInstallCode_1
//  451   }
//  452 
//  453   sspMMOHash (NULL, 0, pInstallCode,(INSTALL_CODE_LEN + INSTALL_CODE_CRC_LEN) * BITS_PER_BYTE, hashOutput);
??bdb_addInstallCode_4:
        ; Setup parameters for call to function sspMMOHash
        MOV       R0,?XSP + 0
        MOV       R1,?XSP + 1
        MOV       ?V0,R0
        MOV       ?V1,R1
        MOV       R0,#?V0
        LCALL     ?PUSH_XSTACK_I_TWO
          CFI CFA_XSP16 add(XSP16, 32)
        MOV       ?V0,#-0x70
        MOV       ?V1,#0x0
        MOV       R0,#?V0
        LCALL     ?PUSH_XSTACK_I_TWO
          CFI CFA_XSP16 add(XSP16, 34)
        MOV       A,R6
        MOV       R4,A
        MOV       A,R7
        MOV       R5,A
        MOV       R1,#0x0
        MOV       R2,#0x0
        MOV       R3,#0x0
        LCALL     `??sspMMOHash::?relay`; Banked call to: sspMMOHash
        MOV       A,#0x4
        LCALL     ?DEALLOC_XSTACK8
          CFI CFA_XSP16 add(XSP16, 30)
//  454 
//  455   return APSME_AddTCLinkKey(hashOutput,pExt);
        ; Setup parameters for call to function APSME_AddTCLinkKey
        MOV       R4,?V2
        MOV       R5,?V3
        MOV       R2,?XSP + 0
        MOV       R3,?XSP + 1
        LCALL     `??APSME_AddTCLinkKey::?relay`; Banked call to: APSME_AddTCLinkKey
??bdb_addInstallCode_1:
        MOV       A,#0x10
        LCALL     ?DEALLOC_XSTACK8
          CFI EndBlock cfiBlock8
        REQUIRE ?Subroutine3
        ; // Fall through to label ?Subroutine3
//  456 }    

        RSEG BANKED_CODE:HUGECODE:NOROOT(0)
?Subroutine3:
          CFI Block cfiBlock9 Using cfiCommon0
          CFI NoFunction
          CFI CFA_SP SP+0
          CFI CFA_XSP16 add(XSP16, 14)
          CFI VB load(1, XDATA, add(CFA_XSP16, literal(-13)))
          CFI DPL0 load(1, XDATA, add(CFA_XSP16, literal(-2)))
          CFI DPH0 load(1, XDATA, add(CFA_XSP16, literal(-1)))
          CFI R6 load(1, XDATA, add(CFA_XSP16, literal(-14)))
          CFI R7 load(1, XDATA, add(CFA_XSP16, literal(-6)))
          CFI V0 load(1, XDATA, add(CFA_XSP16, literal(-12)))
          CFI V1 load(1, XDATA, add(CFA_XSP16, literal(-11)))
          CFI V2 load(1, XDATA, add(CFA_XSP16, literal(-10)))
          CFI V3 load(1, XDATA, add(CFA_XSP16, literal(-9)))
          CFI V4 load(1, XDATA, add(CFA_XSP16, literal(-8)))
          CFI V5 load(1, XDATA, add(CFA_XSP16, literal(-7)))
          CFI ?BRET_EXT load(1, XDATA, add(CFA_XSP16, literal(-3)))
          CFI ?RET_HIGH load(1, XDATA, add(CFA_XSP16, literal(-4)))
          CFI ?RET_LOW load(1, XDATA, add(CFA_XSP16, literal(-5)))
        MOV       R7,#0x6
        LJMP      ?BANKED_LEAVE_XDATA
          CFI EndBlock cfiBlock9
//  457     
//  458 
//  459 #if (ZG_BUILD_COORDINATOR_TYPE)
//  460  /*********************************************************************
//  461  * @fn      bdb_RegisterTCLinkKeyExchangeProcessCB
//  462  *
//  463  * @brief   Register a callback to receive notifications on the joining devices 
//  464  *          and its status on TC link key exchange
//  465  *
//  466  * @param   bdbGCB_TCLinkKeyExchangeProcess - application callback 
//  467  *          (extended address of device, status: 0 = Joining, 1 = TC link key exchange success, 2 = TC link key exchange failed)
//  468  *
//  469  * @return  none
//  470  */

        RSEG BANKED_CODE:HUGECODE:NOROOT(0)
//  471 void bdb_RegisterTCLinkKeyExchangeProcessCB(bdbGCB_TCLinkKeyExchangeProcess_t bdbGCB_TCLinkKeyExchangeProcess)
bdb_RegisterTCLinkKeyExchangeProcessCB:
          CFI Block cfiBlock10 Using cfiCommon0
          CFI Function bdb_RegisterTCLinkKeyExchangeProcessCB
        CODE
//  472 {
        PUSH      DPL
          CFI DPL0 Frame(CFA_SP, 4)
          CFI CFA_SP SP+-4
        PUSH      DPH
          CFI DPH0 Frame(CFA_SP, 5)
          CFI CFA_SP SP+-5
        ; Saved register size: 2
        ; Auto size: 0
//  473   if(bdbGCB_TCLinkKeyExchangeProcess != NULL)
        MOV       A,R2
        ORL       A,R3
        JZ        ??bdb_RegisterTCLinkKeyExchangeProcessCB_0
//  474   {
//  475     pfnTCLinkKeyExchangeProcessCB = bdbGCB_TCLinkKeyExchangeProcess;
        MOV       DPTR,#pfnTCLinkKeyExchangeProcessCB
        MOV       A,R2
        MOVX      @DPTR,A
        INC       DPTR
        MOV       A,R3
        MOVX      @DPTR,A
//  476   }
//  477 }
??bdb_RegisterTCLinkKeyExchangeProcessCB_0:
        LJMP      ??Subroutine40_0 & 0xFFFF
          CFI EndBlock cfiBlock10
//  478 
//  479 
//  480 
//  481  /*********************************************************************
//  482  * @fn          bdb_setTCRequireKeyExchange
//  483  *
//  484  * @brief       Set the bdb_setTCRequireKeyExchange attribute
//  485  *
//  486  * @param       isKeyExchangeRequired - True if TC will remove devices that do 
//  487  *              not perform key exchange after bdbTrustCenterNodeJoinTimeout, 
//  488  *              False to not remove devices.
//  489  *
//  490  * @return      none
//  491  */

        RSEG BANKED_CODE:HUGECODE:NOROOT(0)
//  492 void bdb_setTCRequireKeyExchange(bool isKeyExchangeRequired)
bdb_setTCRequireKeyExchange:
          CFI Block cfiBlock11 Using cfiCommon0
          CFI Function bdb_setTCRequireKeyExchange
        CODE
//  493 {
        PUSH      DPL
          CFI DPL0 Frame(CFA_SP, 4)
          CFI CFA_SP SP+-4
        PUSH      DPH
          CFI DPH0 Frame(CFA_SP, 5)
          CFI CFA_SP SP+-5
        ; Saved register size: 2
        ; Auto size: 0
//  494   bdbAttributes.bdbTrustCenterRequireKeyExchange = isKeyExchangeRequired;
        MOV       A,R1
        MOV       DPTR,#bdbAttributes + 17
        LJMP      ??Subroutine39_0 & 0xFFFF
//  495 }
          CFI EndBlock cfiBlock11
//  496 
//  497 
//  498 
//  499  /*********************************************************************
//  500  * @fn          bdb_TCAddJoiningDevice
//  501  *
//  502  * @brief       Add a joining device to the list of devices that must request a 
//  503  *              key before bdbTrustCenterNodeJoinTimeout.
//  504  *
//  505  * @param       parentAddr - Address of the parent device
//  506  * @param       JoiningExtAddr - IEEE address of the joining device
//  507  *
//  508  * @return      ZStatus_t - ZFailure No memory to allocate the device in the list
//  509  *                          ZInvalidParameter
//  510  */

        RSEG BANKED_CODE:HUGECODE:NOROOT(0)
//  511 ZStatus_t bdb_TCAddJoiningDevice(uint16 parentAddr, uint8* JoiningExtAddr)
bdb_TCAddJoiningDevice:
          CFI Block cfiBlock12 Using cfiCommon0
          CFI Function bdb_TCAddJoiningDevice
        CODE
//  512 {
        FUNCALL bdb_TCAddJoiningDevice, osal_mem_alloc
        LOCFRAME ISTACK, 0, STACK
        LOCFRAME PSTACK, 0, STACK
        LOCFRAME XSTACK, 26, STACK
        LOCFRAME IOVERLAY, 0, STATIC
        LOCFRAME DOVERLAY, 0, STATIC
        ARGFRAME ISTACK, 0, STACK
        ARGFRAME PSTACK, 0, STACK
        ARGFRAME XSTACK, 26, STACK
        ARGFRAME IOVERLAY, 0, STATIC
        ARGFRAME DOVERLAY, 0, STATIC
        FUNCALL bdb_TCAddJoiningDevice, osal_start_reload_timer
        LOCFRAME ISTACK, 0, STACK
        LOCFRAME PSTACK, 0, STACK
        LOCFRAME XSTACK, 30, STACK
        LOCFRAME IOVERLAY, 0, STATIC
        LOCFRAME DOVERLAY, 0, STATIC
        ARGFRAME ISTACK, 0, STACK
        ARGFRAME PSTACK, 0, STACK
        ARGFRAME XSTACK, 30, STACK
        ARGFRAME IOVERLAY, 0, STATIC
        ARGFRAME DOVERLAY, 0, STATIC
        FUNCALL bdb_TCAddJoiningDevice, osal_memcmp
        LOCFRAME ISTACK, 0, STACK
        LOCFRAME PSTACK, 0, STACK
        LOCFRAME XSTACK, 29, STACK
        LOCFRAME IOVERLAY, 0, STATIC
        LOCFRAME DOVERLAY, 0, STATIC
        ARGFRAME ISTACK, 0, STACK
        ARGFRAME PSTACK, 0, STACK
        ARGFRAME XSTACK, 29, STACK
        ARGFRAME IOVERLAY, 0, STATIC
        ARGFRAME DOVERLAY, 0, STATIC
        FUNCALL bdb_TCAddJoiningDevice, osal_memcmp
        LOCFRAME ISTACK, 0, STACK
        LOCFRAME PSTACK, 0, STACK
        LOCFRAME XSTACK, 29, STACK
        LOCFRAME IOVERLAY, 0, STATIC
        LOCFRAME DOVERLAY, 0, STATIC
        ARGFRAME ISTACK, 0, STACK
        ARGFRAME PSTACK, 0, STACK
        ARGFRAME XSTACK, 29, STACK
        ARGFRAME IOVERLAY, 0, STATIC
        ARGFRAME DOVERLAY, 0, STATIC
        FUNCALL bdb_TCAddJoiningDevice, osal_mem_alloc
        LOCFRAME ISTACK, 0, STACK
        LOCFRAME PSTACK, 0, STACK
        LOCFRAME XSTACK, 26, STACK
        LOCFRAME IOVERLAY, 0, STATIC
        LOCFRAME DOVERLAY, 0, STATIC
        ARGFRAME ISTACK, 0, STACK
        ARGFRAME PSTACK, 0, STACK
        ARGFRAME XSTACK, 26, STACK
        ARGFRAME IOVERLAY, 0, STATIC
        ARGFRAME DOVERLAY, 0, STATIC
        FUNCALL bdb_TCAddJoiningDevice, osal_memcpy
        LOCFRAME ISTACK, 0, STACK
        LOCFRAME PSTACK, 0, STACK
        LOCFRAME XSTACK, 29, STACK
        LOCFRAME IOVERLAY, 0, STATIC
        LOCFRAME DOVERLAY, 0, STATIC
        ARGFRAME ISTACK, 0, STACK
        ARGFRAME PSTACK, 0, STACK
        ARGFRAME XSTACK, 29, STACK
        ARGFRAME IOVERLAY, 0, STATIC
        ARGFRAME DOVERLAY, 0, STATIC
        FUNCALL bdb_TCAddJoiningDevice, bdb_SendMsg
        LOCFRAME ISTACK, 0, STACK
        LOCFRAME PSTACK, 0, STACK
        LOCFRAME XSTACK, 28, STACK
        LOCFRAME IOVERLAY, 0, STATIC
        LOCFRAME DOVERLAY, 0, STATIC
        ARGFRAME ISTACK, 0, STACK
        ARGFRAME PSTACK, 0, STACK
        ARGFRAME XSTACK, 28, STACK
        ARGFRAME IOVERLAY, 0, STATIC
        ARGFRAME DOVERLAY, 0, STATIC
        FUNCALL bdb_TCAddJoiningDevice, osal_memcpy
        LOCFRAME ISTACK, 0, STACK
        LOCFRAME PSTACK, 0, STACK
        LOCFRAME XSTACK, 29, STACK
        LOCFRAME IOVERLAY, 0, STATIC
        LOCFRAME DOVERLAY, 0, STATIC
        ARGFRAME ISTACK, 0, STACK
        ARGFRAME PSTACK, 0, STACK
        ARGFRAME XSTACK, 29, STACK
        ARGFRAME IOVERLAY, 0, STATIC
        ARGFRAME DOVERLAY, 0, STATIC
        REQUIRE ?V0
        REQUIRE ?V1
        REQUIRE ?V2
        REQUIRE ?V4
        REQUIRE ?V5
        REQUIRE ?V6
        MOV       A,#-0xf
        LCALL     ?BANKED_ENTER_XDATA
          CFI DPH0 load(1, XDATA, add(CFA_XSP16, literal(-1)))
          CFI DPL0 load(1, XDATA, add(CFA_XSP16, literal(-2)))
          CFI ?BRET_EXT load(1, XDATA, add(CFA_XSP16, literal(-3)))
          CFI ?RET_HIGH load(1, XDATA, add(CFA_XSP16, literal(-4)))
          CFI ?RET_LOW load(1, XDATA, add(CFA_XSP16, literal(-5)))
          CFI R7 load(1, XDATA, add(CFA_XSP16, literal(-6)))
          CFI V6 load(1, XDATA, add(CFA_XSP16, literal(-7)))
          CFI V5 load(1, XDATA, add(CFA_XSP16, literal(-8)))
          CFI V4 load(1, XDATA, add(CFA_XSP16, literal(-9)))
          CFI V3 load(1, XDATA, add(CFA_XSP16, literal(-10)))
          CFI V2 load(1, XDATA, add(CFA_XSP16, literal(-11)))
          CFI V1 load(1, XDATA, add(CFA_XSP16, literal(-12)))
          CFI V0 load(1, XDATA, add(CFA_XSP16, literal(-13)))
          CFI VB load(1, XDATA, add(CFA_XSP16, literal(-14)))
          CFI R6 load(1, XDATA, add(CFA_XSP16, literal(-15)))
          CFI CFA_SP SP+0
          CFI CFA_XSP16 add(XSP16, 15)
        ; Saved register size: 15
        ; Auto size: 11
        MOV       A,#-0xb
        LCALL     ?ALLOC_XSTACK8
          CFI CFA_XSP16 add(XSP16, 26)
        MOV       DPL,?XSP + 0
        MOV       DPH,?XSP + 1
        MOV       A,R2
        MOVX      @DPTR,A
        INC       DPTR
        MOV       A,R3
        LCALL     ?Subroutine15 & 0xFFFF
//  513   bdb_joiningDeviceList_t* tempJoiningDescNode;
//  514   
//  515   if((parentAddr == INVALID_NODE_ADDR) || (JoiningExtAddr == NULL))
??CrossCallReturnLabel_10:
        XRL       A,#0xfe
        JNZ       ??bdb_TCAddJoiningDevice_0
        INC       DPTR
        MOVX      A,@DPTR
        CPL       A
??bdb_TCAddJoiningDevice_0:
        JZ        ??bdb_TCAddJoiningDevice_1
        MOV       A,R4
        ORL       A,R5
        JNZ       ??bdb_TCAddJoiningDevice_2
//  516   {
//  517     return ZInvalidParameter;
??bdb_TCAddJoiningDevice_1:
        MOV       R1,#0x2
        LJMP      ??bdb_TCAddJoiningDevice_3 & 0xFFFF
//  518   }
//  519   
//  520   //If the list was empty and element was allocated, then start the timer
//  521   if(bdb_joiningDeviceList == NULL)
??bdb_TCAddJoiningDevice_2:
        MOV       ?V0,R4
        MOV       ?V1,R5
        MOV       ?V2,#0x0
        MOV       DPTR,#bdb_joiningDeviceList
        LCALL     ??Subroutine46_0 & 0xFFFF
??CrossCallReturnLabel_53:
        JNZ       ??bdb_TCAddJoiningDevice_4
//  522   {
//  523     bdb_joiningDeviceList = osal_mem_alloc(sizeof(bdb_joiningDeviceList_t));
        ; Setup parameters for call to function osal_mem_alloc
        MOV       R2,#0xd
        MOV       R3,#0x0
        LCALL     `??osal_mem_alloc::?relay`; Banked call to: osal_mem_alloc
        MOV       DPTR,#bdb_joiningDeviceList
        LCALL     ?Subroutine11 & 0xFFFF
//  524     if(bdb_joiningDeviceList == NULL)
??CrossCallReturnLabel_4:
        JNZ       $+5
        LJMP      ??bdb_TCAddJoiningDevice_5 & 0xFFFF
//  525     {
//  526       return ZFailure;
//  527     }
//  528    
//  529     osal_start_reload_timer(bdb_TaskID,BDB_TC_JOIN_TIMEOUT,1000);
        ; Setup parameters for call to function osal_start_reload_timer
        MOV       DPTR,#__Constant_3e8
        LCALL     ?PUSH_XSTACK8_X_FOUR
          CFI CFA_XSP16 add(XSP16, 30)
        MOV       R2,#0x0
        MOV       R3,#0x8
        MOV       DPTR,#bdb_TaskID
        MOVX      A,@DPTR
        MOV       R1,A
        LCALL     `??osal_start_reload_timer::?relay`; Banked call to: osal_start_reload_timer
        MOV       A,#0x4
        LCALL     ?DEALLOC_XSTACK8
          CFI CFA_XSP16 add(XSP16, 26)
//  530     tempJoiningDescNode = bdb_joiningDeviceList;
        MOV       DPTR,#bdb_joiningDeviceList
        MOVX      A,@DPTR
        MOV       R6,A
        INC       DPTR
        MOVX      A,@DPTR
        LJMP      ??bdb_TCAddJoiningDevice_6 & 0xFFFF
//  531   }
//  532   //if the list was not empty then add the entry at the end of the list
//  533   else
//  534   {
//  535     tempJoiningDescNode = bdb_joiningDeviceList;
??bdb_TCAddJoiningDevice_4:
        LCALL     ?Subroutine34 & 0xFFFF
//  536     
//  537     //Validate that this is not already in the list... somehow
//  538     if(osal_memcmp(JoiningExtAddr,tempJoiningDescNode->bdbJoiningNodeEui64,Z_EXTADDR_LEN))
??CrossCallReturnLabel_89:
        ; Setup parameters for call to function osal_memcmp
        MOV       DPL,R6
        MOV       DPH,R7
        INC       DPTR
        INC       DPTR
        MOV       R1,DPL
        MOV       R2,DPH
        MOV       ?V4,R1
        MOV       ?V5,R2
        MOV       ?V6,#0x0
        MOV       R0,#?V4
        LCALL     ?PUSH_XSTACK_I_THREE
          CFI CFA_XSP16 add(XSP16, 29)
        MOV       R4,#0x8
        MOV       R5,#0x0
        MOV       R1,?V0
        MOV       R2,?V1
        MOV       R3,?V2
        LCALL     `??osal_memcmp::?relay`; Banked call to: osal_memcmp
        MOV       A,#0x3
        LCALL     ?DEALLOC_XSTACK8
          CFI CFA_XSP16 add(XSP16, 26)
        MOV       A,R1
        JNZ       ??bdb_TCAddJoiningDevice_7
//  539     {
//  540       //The device added is already in the list, refresh its time and do nothing else
//  541       tempJoiningDescNode->NodeJoinTimeout = bdbAttributes.bdbTrustCenterNodeJoinTimeout;
//  542       return ZSuccess;
//  543     }
//  544     
//  545     while(tempJoiningDescNode->nextDev != NULL)
??bdb_TCAddJoiningDevice_8:
        MOV       A,R6
        ADD       A,#0xb
        MOV       R6,A
        JNC       ??bdb_TCAddJoiningDevice_9
        INC       R7
??bdb_TCAddJoiningDevice_9:
        LCALL     ??Subroutine45_0 & 0xFFFF
??CrossCallReturnLabel_67:
        JZ        ??bdb_TCAddJoiningDevice_10
//  546     {
//  547       tempJoiningDescNode = tempJoiningDescNode->nextDev;
        MOV       A,R0
        MOV       R6,A
        MOV       A,R1
        MOV       R7,A
//  548       
//  549       //Validate that this is not already in the list... somehow
//  550       if(osal_memcmp(JoiningExtAddr,tempJoiningDescNode->bdbJoiningNodeEui64,Z_EXTADDR_LEN))
        ; Setup parameters for call to function osal_memcmp
        MOV       DPL,R6
        MOV       DPH,R7
        INC       DPTR
        INC       DPTR
        MOV       R1,DPL
        MOV       R2,DPH
        MOV       ?V4,R1
        MOV       ?V5,R2
        MOV       R0,#?V4
        LCALL     ?PUSH_XSTACK_I_THREE
          CFI CFA_XSP16 add(XSP16, 29)
        MOV       R4,#0x8
        MOV       R5,#0x0
        MOV       R1,?V0
        MOV       R2,?V1
        MOV       R3,?V2
        LCALL     `??osal_memcmp::?relay`; Banked call to: osal_memcmp
        MOV       A,#0x3
        LCALL     ?DEALLOC_XSTACK8
          CFI CFA_XSP16 add(XSP16, 26)
        MOV       A,R1
        JZ        ??bdb_TCAddJoiningDevice_8
//  551       {
//  552         //The device added is already in the list, refresh its time and do nothing else
//  553         tempJoiningDescNode->NodeJoinTimeout = bdbAttributes.bdbTrustCenterNodeJoinTimeout;
??bdb_TCAddJoiningDevice_7:
        LCALL     ?Subroutine25 & 0xFFFF
??CrossCallReturnLabel_28:
        MOVX      @DPTR,A
//  554         return ZSuccess;
        LJMP      ??bdb_TCAddJoiningDevice_11 & 0xFFFF
//  555       }
//  556     }
//  557     
//  558     tempJoiningDescNode->nextDev = osal_mem_alloc(sizeof(bdb_joiningDeviceList_t));
??bdb_TCAddJoiningDevice_10:
        ; Setup parameters for call to function osal_mem_alloc
        MOV       R2,#0xd
        MOV       R3,#0x0
        LCALL     `??osal_mem_alloc::?relay`; Banked call to: osal_mem_alloc
        MOV       ?V4,R2
        MOV       ?V5,R3
        MOV       R0,?V4
        MOV       R1,?V5
        LCALL     ??Subroutine49_0 & 0xFFFF
//  559     if(tempJoiningDescNode->nextDev == NULL)
??CrossCallReturnLabel_86:
        JNZ       ??bdb_TCAddJoiningDevice_12
//  560     {
//  561       return ZFailure;
??bdb_TCAddJoiningDevice_5:
        MOV       R1,#0x1
        LJMP      ??bdb_TCAddJoiningDevice_3 & 0xFFFF
//  562     }
//  563     
//  564     tempJoiningDescNode = tempJoiningDescNode->nextDev;
??bdb_TCAddJoiningDevice_12:
        MOV       A,R0
        MOV       R6,A
        MOV       A,R1
??bdb_TCAddJoiningDevice_6:
        MOV       R7,A
        MOV       DPTR,#pfnTCLinkKeyExchangeProcessCB
//  565   }
        LCALL     ??Subroutine46_0 & 0xFFFF
??CrossCallReturnLabel_54:
        JZ        ??bdb_TCAddJoiningDevice_13
//  566   
//  567   if(pfnTCLinkKeyExchangeProcessCB)
//  568   {
//  569     bdb_TCLinkKeyExchProcess_t bdb_TCLinkKeyExchProcess;
//  570     osal_memcpy(bdb_TCLinkKeyExchProcess.extAddr,tempJoiningDescNode->bdbJoiningNodeEui64, Z_EXTADDR_LEN);
        ; Setup parameters for call to function osal_memcpy
        MOV       DPL,R6
        MOV       DPH,R7
        INC       DPTR
        INC       DPTR
        MOV       R1,DPL
        MOV       R2,DPH
        MOV       ?V4,R1
        MOV       ?V5,R2
        MOV       ?V6,#0x0
        MOV       R0,#?V4
        LCALL     ?PUSH_XSTACK_I_THREE
          CFI CFA_XSP16 add(XSP16, 29)
        MOV       R4,#0x8
        MOV       R5,#0x0
        MOV       A,#0x6
        LCALL     ?XSTACK_DISP0_8
        MOV       R2,DPL
        MOV       R3,DPH
        LCALL     `??osal_memcpy::?relay`; Banked call to: osal_memcpy
        MOV       A,#0x3
        LCALL     ?DEALLOC_XSTACK8
          CFI CFA_XSP16 add(XSP16, 26)
//  571     bdb_TCLinkKeyExchProcess.status = BDB_TC_LK_EXCH_PROCESS_JOINING;
        MOV       A,#0x2
        LCALL     ?XSTACK_DISP0_8
        CLR       A
        MOVX      @DPTR,A
//  572     
//  573     bdb_SendMsg(bdb_TaskID, BDB_TC_LINK_KEY_EXCHANGE_PROCESS, BDB_MSG_EVENT_SUCCESS,sizeof(bdb_TCLinkKeyExchProcess_t),(uint8*)&bdb_TCLinkKeyExchProcess);
        ; Setup parameters for call to function bdb_SendMsg
        MOV       A,#0x2
        LCALL     ?XSTACK_DISP100_8
        MOV       ?V4,R0
        MOV       ?V5,R1
        MOV       R0,#?V4
        LCALL     ?PUSH_XSTACK_I_TWO
          CFI CFA_XSP16 add(XSP16, 28)
        MOV       R4,#0x9
        MOV       R3,#0x0
        MOV       R2,#0x9
        MOV       DPTR,#bdb_TaskID
        MOVX      A,@DPTR
        MOV       R1,A
        LCALL     `??bdb_SendMsg::?relay`; Banked call to: bdb_SendMsg
        MOV       A,#0x2
        LCALL     ?DEALLOC_XSTACK8
          CFI CFA_XSP16 add(XSP16, 26)
//  574   }
//  575   
//  576   tempJoiningDescNode->nextDev = NULL;
??bdb_TCAddJoiningDevice_13:
        LCALL     ?Subroutine29 & 0xFFFF
??CrossCallReturnLabel_35:
        CLR       A
        MOVX      @DPTR,A
        INC       DPTR
        MOVX      @DPTR,A
//  577   tempJoiningDescNode->NodeJoinTimeout = bdbAttributes.bdbTrustCenterNodeJoinTimeout;
        LCALL     ?Subroutine25 & 0xFFFF
??CrossCallReturnLabel_29:
        LCALL     ?Subroutine15 & 0xFFFF
//  578   tempJoiningDescNode->parentAddr = parentAddr;
??CrossCallReturnLabel_11:
        MOV       R0,A
        INC       DPTR
        MOVX      A,@DPTR
        MOV       R1,A
        LCALL     ?Subroutine31 & 0xFFFF
//  579   osal_memcpy(tempJoiningDescNode->bdbJoiningNodeEui64, JoiningExtAddr, Z_EXTADDR_LEN);
??CrossCallReturnLabel_102:
        ; Setup parameters for call to function osal_memcpy
        MOV       R0,#?V0
        LCALL     ?PUSH_XSTACK_I_THREE
          CFI CFA_XSP16 add(XSP16, 29)
        MOV       R4,#0x8
        MOV       R5,#0x0
        MOV       A,R6
        ADD       A,#0x2
        MOV       R2,A
        CLR       A
        ADDC      A,R7
        MOV       R3,A
        LCALL     `??osal_memcpy::?relay`; Banked call to: osal_memcpy
        MOV       A,#0x3
        LCALL     ?DEALLOC_XSTACK8
          CFI CFA_XSP16 add(XSP16, 26)
//  580   
//  581   return ZSuccess;
??bdb_TCAddJoiningDevice_11:
        MOV       R1,#0x0
??bdb_TCAddJoiningDevice_3:
          CFI EndBlock cfiBlock12
        REQUIRE ?Subroutine5
        ; // Fall through to label ?Subroutine5
//  582 }

        RSEG BANKED_CODE:HUGECODE:NOROOT(0)
?Subroutine5:
          CFI Block cfiBlock13 Using cfiCommon0
          CFI NoFunction
          CFI CFA_SP SP+0
          CFI CFA_XSP16 add(XSP16, 26)
          CFI VB load(1, XDATA, add(CFA_XSP16, literal(-14)))
          CFI DPL0 load(1, XDATA, add(CFA_XSP16, literal(-2)))
          CFI DPH0 load(1, XDATA, add(CFA_XSP16, literal(-1)))
          CFI R6 load(1, XDATA, add(CFA_XSP16, literal(-15)))
          CFI R7 load(1, XDATA, add(CFA_XSP16, literal(-6)))
          CFI V0 load(1, XDATA, add(CFA_XSP16, literal(-13)))
          CFI V1 load(1, XDATA, add(CFA_XSP16, literal(-12)))
          CFI V2 load(1, XDATA, add(CFA_XSP16, literal(-11)))
          CFI V3 load(1, XDATA, add(CFA_XSP16, literal(-10)))
          CFI V4 load(1, XDATA, add(CFA_XSP16, literal(-9)))
          CFI V5 load(1, XDATA, add(CFA_XSP16, literal(-8)))
          CFI V6 load(1, XDATA, add(CFA_XSP16, literal(-7)))
          CFI ?BRET_EXT load(1, XDATA, add(CFA_XSP16, literal(-3)))
          CFI ?RET_HIGH load(1, XDATA, add(CFA_XSP16, literal(-4)))
          CFI ?RET_LOW load(1, XDATA, add(CFA_XSP16, literal(-5)))
        MOV       A,#0xb
        LCALL     ?DEALLOC_XSTACK8
          CFI CFA_XSP16 add(XSP16, 15)
        MOV       R7,#0x7
        LJMP      ?BANKED_LEAVE_XDATA
          CFI EndBlock cfiBlock13

        RSEG BANKED_CODE:HUGECODE:NOROOT(0)
?Subroutine25:
          CFI Block cfiCond14 Using cfiCommon0
          CFI Function bdb_TCAddJoiningDevice
          CFI Conditional ??CrossCallReturnLabel_28
          CFI R6 load(1, XDATA, add(CFA_XSP16, literal(-15)))
          CFI VB load(1, XDATA, add(CFA_XSP16, literal(-14)))
          CFI V0 load(1, XDATA, add(CFA_XSP16, literal(-13)))
          CFI V1 load(1, XDATA, add(CFA_XSP16, literal(-12)))
          CFI V2 load(1, XDATA, add(CFA_XSP16, literal(-11)))
          CFI V3 load(1, XDATA, add(CFA_XSP16, literal(-10)))
          CFI V4 load(1, XDATA, add(CFA_XSP16, literal(-9)))
          CFI V5 load(1, XDATA, add(CFA_XSP16, literal(-8)))
          CFI V6 load(1, XDATA, add(CFA_XSP16, literal(-7)))
          CFI R7 load(1, XDATA, add(CFA_XSP16, literal(-6)))
          CFI ?RET_LOW load(1, XDATA, add(CFA_XSP16, literal(-5)))
          CFI ?RET_HIGH load(1, XDATA, add(CFA_XSP16, literal(-4)))
          CFI ?BRET_EXT load(1, XDATA, add(CFA_XSP16, literal(-3)))
          CFI DPL0 load(1, XDATA, add(CFA_XSP16, literal(-2)))
          CFI DPH0 load(1, XDATA, add(CFA_XSP16, literal(-1)))
          CFI CFA_SP SP+-2
          CFI CFA_XSP16 add(XSP16, 26)
          CFI Block cfiCond15 Using cfiCommon0
          CFI (cfiCond15) Function bdb_TCAddJoiningDevice
          CFI (cfiCond15) Conditional ??CrossCallReturnLabel_29
          CFI (cfiCond15) R6 load(1, XDATA, add(CFA_XSP16, literal(-15)))
          CFI (cfiCond15) VB load(1, XDATA, add(CFA_XSP16, literal(-14)))
          CFI (cfiCond15) V0 load(1, XDATA, add(CFA_XSP16, literal(-13)))
          CFI (cfiCond15) V1 load(1, XDATA, add(CFA_XSP16, literal(-12)))
          CFI (cfiCond15) V2 load(1, XDATA, add(CFA_XSP16, literal(-11)))
          CFI (cfiCond15) V3 load(1, XDATA, add(CFA_XSP16, literal(-10)))
          CFI (cfiCond15) V4 load(1, XDATA, add(CFA_XSP16, literal(-9)))
          CFI (cfiCond15) V5 load(1, XDATA, add(CFA_XSP16, literal(-8)))
          CFI (cfiCond15) V6 load(1, XDATA, add(CFA_XSP16, literal(-7)))
          CFI (cfiCond15) R7 load(1, XDATA, add(CFA_XSP16, literal(-6)))
          CFI (cfiCond15) ?RET_LOW load(1, XDATA, add(CFA_XSP16, literal(-5)))
          CFI (cfiCond15) ?RET_HIGH load(1, XDATA, add(CFA_XSP16, literal(-4)))
          CFI (cfiCond15) ?BRET_EXT load(1, XDATA, add(CFA_XSP16, literal(-3)))
          CFI (cfiCond15) DPL0 load(1, XDATA, add(CFA_XSP16, literal(-2)))
          CFI (cfiCond15) DPH0 load(1, XDATA, add(CFA_XSP16, literal(-1)))
          CFI (cfiCond15) CFA_SP SP+-2
          CFI (cfiCond15) CFA_XSP16 add(XSP16, 26)
          CFI Block cfiPicker16 Using cfiCommon1
          CFI (cfiPicker16) NoFunction
          CFI (cfiPicker16) Picker
        MOV       DPTR,#bdbAttributes + 16
        MOVX      A,@DPTR
        MOV       DPL,R6
        MOV       DPH,R7
        INC       DPTR
        INC       DPTR
        INC       DPTR
        INC       DPTR
        INC       DPTR
        INC       DPTR
        INC       DPTR
        INC       DPTR
        INC       DPTR
        INC       DPTR
        RET
          CFI EndBlock cfiCond14
          CFI EndBlock cfiCond15
          CFI EndBlock cfiPicker16

        RSEG BANKED_CODE:HUGECODE:NOROOT(0)
?Subroutine15:
          CFI Block cfiCond17 Using cfiCommon0
          CFI Function bdb_TCAddJoiningDevice
          CFI Conditional ??CrossCallReturnLabel_10
          CFI R6 load(1, XDATA, add(CFA_XSP16, literal(-15)))
          CFI VB load(1, XDATA, add(CFA_XSP16, literal(-14)))
          CFI V0 load(1, XDATA, add(CFA_XSP16, literal(-13)))
          CFI V1 load(1, XDATA, add(CFA_XSP16, literal(-12)))
          CFI V2 load(1, XDATA, add(CFA_XSP16, literal(-11)))
          CFI V3 load(1, XDATA, add(CFA_XSP16, literal(-10)))
          CFI V4 load(1, XDATA, add(CFA_XSP16, literal(-9)))
          CFI V5 load(1, XDATA, add(CFA_XSP16, literal(-8)))
          CFI V6 load(1, XDATA, add(CFA_XSP16, literal(-7)))
          CFI R7 load(1, XDATA, add(CFA_XSP16, literal(-6)))
          CFI ?RET_LOW load(1, XDATA, add(CFA_XSP16, literal(-5)))
          CFI ?RET_HIGH load(1, XDATA, add(CFA_XSP16, literal(-4)))
          CFI ?BRET_EXT load(1, XDATA, add(CFA_XSP16, literal(-3)))
          CFI DPL0 load(1, XDATA, add(CFA_XSP16, literal(-2)))
          CFI DPH0 load(1, XDATA, add(CFA_XSP16, literal(-1)))
          CFI CFA_SP SP+-2
          CFI CFA_XSP16 add(XSP16, 26)
          CFI Block cfiCond18 Using cfiCommon0
          CFI (cfiCond18) Function bdb_TCAddJoiningDevice
          CFI (cfiCond18) Conditional ??CrossCallReturnLabel_11
          CFI (cfiCond18) R6 load(1, XDATA, add(CFA_XSP16, literal(-15)))
          CFI (cfiCond18) VB load(1, XDATA, add(CFA_XSP16, literal(-14)))
          CFI (cfiCond18) V0 load(1, XDATA, add(CFA_XSP16, literal(-13)))
          CFI (cfiCond18) V1 load(1, XDATA, add(CFA_XSP16, literal(-12)))
          CFI (cfiCond18) V2 load(1, XDATA, add(CFA_XSP16, literal(-11)))
          CFI (cfiCond18) V3 load(1, XDATA, add(CFA_XSP16, literal(-10)))
          CFI (cfiCond18) V4 load(1, XDATA, add(CFA_XSP16, literal(-9)))
          CFI (cfiCond18) V5 load(1, XDATA, add(CFA_XSP16, literal(-8)))
          CFI (cfiCond18) V6 load(1, XDATA, add(CFA_XSP16, literal(-7)))
          CFI (cfiCond18) R7 load(1, XDATA, add(CFA_XSP16, literal(-6)))
          CFI (cfiCond18) ?RET_LOW load(1, XDATA, add(CFA_XSP16, literal(-5)))
          CFI (cfiCond18) ?RET_HIGH load(1, XDATA, add(CFA_XSP16, literal(-4)))
          CFI (cfiCond18) ?BRET_EXT load(1, XDATA, add(CFA_XSP16, literal(-3)))
          CFI (cfiCond18) DPL0 load(1, XDATA, add(CFA_XSP16, literal(-2)))
          CFI (cfiCond18) DPH0 load(1, XDATA, add(CFA_XSP16, literal(-1)))
          CFI (cfiCond18) CFA_SP SP+-2
          CFI (cfiCond18) CFA_XSP16 add(XSP16, 26)
          CFI Block cfiPicker19 Using cfiCommon1
          CFI (cfiPicker19) NoFunction
          CFI (cfiPicker19) Picker
        MOVX      @DPTR,A
        MOV       DPL,?XSP + 0
        MOV       DPH,?XSP + 1
        MOVX      A,@DPTR
        RET
          CFI EndBlock cfiCond17
          CFI EndBlock cfiCond18
          CFI EndBlock cfiPicker19
//  583 
//  584 /****************************************************************************
//  585  * @fn          bdb_TCProcessJoiningList
//  586  *
//  587  * @brief       Process the timer to handle the joining devices if the TC link 
//  588  *              key is mandatory for all devices
//  589  *
//  590  * @param       none
//  591  *
//  592  * @return      none
//  593  */

        RSEG BANKED_CODE:HUGECODE:NOROOT(0)
//  594 void bdb_TCProcessJoiningList(void)
bdb_TCProcessJoiningList:
          CFI Block cfiBlock20 Using cfiCommon0
          CFI Function bdb_TCProcessJoiningList
        CODE
//  595 {
        FUNCALL bdb_TCProcessJoiningList, osal_memcpy
        LOCFRAME ISTACK, 0, STACK
        LOCFRAME PSTACK, 0, STACK
        LOCFRAME XSTACK, 61, STACK
        LOCFRAME IOVERLAY, 0, STATIC
        LOCFRAME DOVERLAY, 0, STATIC
        ARGFRAME ISTACK, 0, STACK
        ARGFRAME PSTACK, 0, STACK
        ARGFRAME XSTACK, 61, STACK
        ARGFRAME IOVERLAY, 0, STATIC
        ARGFRAME DOVERLAY, 0, STATIC
        FUNCALL bdb_TCProcessJoiningList, AddrMgrEntryLookupExt
        LOCFRAME ISTACK, 0, STACK
        LOCFRAME PSTACK, 0, STACK
        LOCFRAME XSTACK, 58, STACK
        LOCFRAME IOVERLAY, 0, STATIC
        LOCFRAME DOVERLAY, 0, STATIC
        ARGFRAME ISTACK, 0, STACK
        ARGFRAME PSTACK, 0, STACK
        ARGFRAME XSTACK, 58, STACK
        ARGFRAME IOVERLAY, 0, STATIC
        ARGFRAME DOVERLAY, 0, STATIC
        FUNCALL bdb_TCProcessJoiningList, ZDSecMgrAPSRemove
        LOCFRAME ISTACK, 0, STACK
        LOCFRAME PSTACK, 0, STACK
        LOCFRAME XSTACK, 60, STACK
        LOCFRAME IOVERLAY, 0, STATIC
        LOCFRAME DOVERLAY, 0, STATIC
        ARGFRAME ISTACK, 0, STACK
        ARGFRAME PSTACK, 0, STACK
        ARGFRAME XSTACK, 60, STACK
        ARGFRAME IOVERLAY, 0, STATIC
        ARGFRAME DOVERLAY, 0, STATIC
        FUNCALL bdb_TCProcessJoiningList, ZDSecMgrAddrClear
        LOCFRAME ISTACK, 0, STACK
        LOCFRAME PSTACK, 0, STACK
        LOCFRAME XSTACK, 58, STACK
        LOCFRAME IOVERLAY, 0, STATIC
        LOCFRAME DOVERLAY, 0, STATIC
        ARGFRAME ISTACK, 0, STACK
        ARGFRAME PSTACK, 0, STACK
        ARGFRAME XSTACK, 58, STACK
        ARGFRAME IOVERLAY, 0, STATIC
        ARGFRAME DOVERLAY, 0, STATIC
        FUNCALL bdb_TCProcessJoiningList, APSME_SearchTCLinkKeyEntry
        LOCFRAME ISTACK, 0, STACK
        LOCFRAME PSTACK, 0, STACK
        LOCFRAME XSTACK, 60, STACK
        LOCFRAME IOVERLAY, 0, STATIC
        LOCFRAME DOVERLAY, 0, STATIC
        ARGFRAME ISTACK, 0, STACK
        ARGFRAME PSTACK, 0, STACK
        ARGFRAME XSTACK, 60, STACK
        ARGFRAME IOVERLAY, 0, STATIC
        ARGFRAME DOVERLAY, 0, STATIC
        FUNCALL bdb_TCProcessJoiningList, osal_memset
        LOCFRAME ISTACK, 0, STACK
        LOCFRAME PSTACK, 0, STACK
        LOCFRAME XSTACK, 58, STACK
        LOCFRAME IOVERLAY, 0, STATIC
        LOCFRAME DOVERLAY, 0, STATIC
        ARGFRAME ISTACK, 0, STACK
        ARGFRAME PSTACK, 0, STACK
        ARGFRAME XSTACK, 58, STACK
        ARGFRAME IOVERLAY, 0, STATIC
        ARGFRAME DOVERLAY, 0, STATIC
        FUNCALL bdb_TCProcessJoiningList, osal_nv_write
        LOCFRAME ISTACK, 0, STACK
        LOCFRAME PSTACK, 0, STACK
        LOCFRAME XSTACK, 62, STACK
        LOCFRAME IOVERLAY, 0, STATIC
        LOCFRAME DOVERLAY, 0, STATIC
        ARGFRAME ISTACK, 0, STACK
        ARGFRAME PSTACK, 0, STACK
        ARGFRAME XSTACK, 62, STACK
        ARGFRAME IOVERLAY, 0, STATIC
        ARGFRAME DOVERLAY, 0, STATIC
        FUNCALL bdb_TCProcessJoiningList, osal_memcpy
        LOCFRAME ISTACK, 0, STACK
        LOCFRAME PSTACK, 0, STACK
        LOCFRAME XSTACK, 61, STACK
        LOCFRAME IOVERLAY, 0, STATIC
        LOCFRAME DOVERLAY, 0, STATIC
        ARGFRAME ISTACK, 0, STACK
        ARGFRAME PSTACK, 0, STACK
        ARGFRAME XSTACK, 61, STACK
        ARGFRAME IOVERLAY, 0, STATIC
        ARGFRAME DOVERLAY, 0, STATIC
        FUNCALL bdb_TCProcessJoiningList, bdb_SendMsg
        LOCFRAME ISTACK, 0, STACK
        LOCFRAME PSTACK, 0, STACK
        LOCFRAME XSTACK, 60, STACK
        LOCFRAME IOVERLAY, 0, STATIC
        LOCFRAME DOVERLAY, 0, STATIC
        ARGFRAME ISTACK, 0, STACK
        ARGFRAME PSTACK, 0, STACK
        ARGFRAME XSTACK, 60, STACK
        ARGFRAME IOVERLAY, 0, STATIC
        ARGFRAME DOVERLAY, 0, STATIC
        FUNCALL bdb_TCProcessJoiningList, bdb_TCJoiningDeviceFree
        LOCFRAME ISTACK, 0, STACK
        LOCFRAME PSTACK, 0, STACK
        LOCFRAME XSTACK, 58, STACK
        LOCFRAME IOVERLAY, 0, STATIC
        LOCFRAME DOVERLAY, 0, STATIC
        ARGFRAME ISTACK, 0, STACK
        ARGFRAME PSTACK, 0, STACK
        ARGFRAME XSTACK, 58, STACK
        ARGFRAME IOVERLAY, 0, STATIC
        ARGFRAME DOVERLAY, 0, STATIC
        FUNCALL bdb_TCProcessJoiningList, osal_stop_timerEx
        LOCFRAME ISTACK, 0, STACK
        LOCFRAME PSTACK, 0, STACK
        LOCFRAME XSTACK, 58, STACK
        LOCFRAME IOVERLAY, 0, STATIC
        LOCFRAME DOVERLAY, 0, STATIC
        ARGFRAME ISTACK, 0, STACK
        ARGFRAME PSTACK, 0, STACK
        ARGFRAME XSTACK, 58, STACK
        ARGFRAME IOVERLAY, 0, STATIC
        ARGFRAME DOVERLAY, 0, STATIC
        REQUIRE ?V0
        REQUIRE ?V1
        REQUIRE ?V2
        REQUIRE ?V4
        REQUIRE ?V5
        REQUIRE ?V6
        REQUIRE ?V7
        MOV       A,#-0x10
        LCALL     ?BANKED_ENTER_XDATA
          CFI DPH0 load(1, XDATA, add(CFA_XSP16, literal(-1)))
          CFI DPL0 load(1, XDATA, add(CFA_XSP16, literal(-2)))
          CFI ?BRET_EXT load(1, XDATA, add(CFA_XSP16, literal(-3)))
          CFI ?RET_HIGH load(1, XDATA, add(CFA_XSP16, literal(-4)))
          CFI ?RET_LOW load(1, XDATA, add(CFA_XSP16, literal(-5)))
          CFI R7 load(1, XDATA, add(CFA_XSP16, literal(-6)))
          CFI V7 load(1, XDATA, add(CFA_XSP16, literal(-7)))
          CFI V6 load(1, XDATA, add(CFA_XSP16, literal(-8)))
          CFI V5 load(1, XDATA, add(CFA_XSP16, literal(-9)))
          CFI V4 load(1, XDATA, add(CFA_XSP16, literal(-10)))
          CFI V3 load(1, XDATA, add(CFA_XSP16, literal(-11)))
          CFI V2 load(1, XDATA, add(CFA_XSP16, literal(-12)))
          CFI V1 load(1, XDATA, add(CFA_XSP16, literal(-13)))
          CFI V0 load(1, XDATA, add(CFA_XSP16, literal(-14)))
          CFI VB load(1, XDATA, add(CFA_XSP16, literal(-15)))
          CFI R6 load(1, XDATA, add(CFA_XSP16, literal(-16)))
          CFI CFA_SP SP+0
          CFI CFA_XSP16 add(XSP16, 16)
        ; Saved register size: 16
        ; Auto size: 42
        MOV       A,#-0x2a
        LCALL     ?ALLOC_XSTACK8
          CFI CFA_XSP16 add(XSP16, 58)
//  596   bdb_joiningDeviceList_t* tempJoiningDescNode;
//  597   
//  598   if(bdb_joiningDeviceList)
        MOV       DPTR,#bdb_joiningDeviceList
        LCALL     ??Subroutine46_0 & 0xFFFF
??CrossCallReturnLabel_55:
        JNZ       $+5
        LJMP      ??bdb_TCProcessJoiningList_0 & 0xFFFF
//  599   {
//  600     tempJoiningDescNode = bdb_joiningDeviceList;
        MOV       DPTR,#bdb_joiningDeviceList
        MOVX      A,@DPTR
        MOV       ?V6,A
        INC       DPTR
        MOVX      A,@DPTR
        MOV       ?V7,A
//  601   
//  602     while(tempJoiningDescNode)
//  603     {
//  604       if(tempJoiningDescNode->NodeJoinTimeout)
??bdb_TCProcessJoiningList_1:
        MOV       A,?V6
        ADD       A,#0xa
        MOV       DPL,A
        CLR       A
        ADDC      A,?V7
        MOV       DPH,A
        MOVX      A,@DPTR
        JZ        ??bdb_TCProcessJoiningList_2
//  605       {
//  606         tempJoiningDescNode->NodeJoinTimeout--;
        DEC       A
        MOVX      @DPTR,A
//  607       }
//  608       
//  609       if(tempJoiningDescNode->NodeJoinTimeout == 0)
        JZ        $+5
        LJMP      ??bdb_TCProcessJoiningList_3 & 0xFFFF
//  610       {
//  611         //Check if the key exchange is required 
//  612         if(bdb_doTrustCenterRequireKeyExchange())
??bdb_TCProcessJoiningList_2:
        MOV       A,?V6
        ADD       A,#0x2
        MOV       R6,A
        CLR       A
        ADDC      A,?V7
        MOV       R7,A
        MOV       ?V0,R6
        MOV       ?V1,R7
        MOV       ?V2,#0x0
        MOV       DPTR,#bdbAttributes + 17
        MOVX      A,@DPTR
        JZ        ??bdb_TCProcessJoiningList_4
//  613         {
//  614             AddrMgrEntry_t entry;
//  615             
//  616             entry.user = ADDRMGR_USER_DEFAULT;
        MOV       A,#0xa
        LCALL     ?XSTACK_DISP0_8
        CLR       A
        MOVX      @DPTR,A
//  617             osal_memcpy(entry.extAddr,tempJoiningDescNode->bdbJoiningNodeEui64, Z_EXTADDR_LEN);
        ; Setup parameters for call to function osal_memcpy
        MOV       R0,#?V0
        LCALL     ?PUSH_XSTACK_I_THREE
          CFI CFA_XSP16 add(XSP16, 61)
        MOV       R4,#0x8
        MOV       R5,#0x0
        MOV       A,#0x10
        LCALL     ?XSTACK_DISP0_8
        MOV       R2,DPL
        MOV       R3,DPH
        LCALL     `??osal_memcpy::?relay`; Banked call to: osal_memcpy
        MOV       A,#0x3
        LCALL     ?DEALLOC_XSTACK8
          CFI CFA_XSP16 add(XSP16, 58)
//  618             
//  619             if(AddrMgrEntryLookupExt(&entry))
        ; Setup parameters for call to function AddrMgrEntryLookupExt
        MOV       A,#0xa
        LCALL     ?XSTACK_DISP101_8
        LCALL     `??AddrMgrEntryLookupExt::?relay`; Banked call to: AddrMgrEntryLookupExt
        MOV       A,R1
        JZ        ??bdb_TCProcessJoiningList_4
//  620             {
//  621               ZDSecMgrAPSRemove(entry.nwkAddr,entry.extAddr,tempJoiningDescNode->parentAddr);
        ; Setup parameters for call to function ZDSecMgrAPSRemove
        MOV       DPL,?V6
        MOV       DPH,?V7
        LCALL     ?PUSH_XSTACK8_X_TWO
          CFI CFA_XSP16 add(XSP16, 60)
        MOV       A,#0xf
        LCALL     ?XSTACK_DISP0_8
        MOV       R4,DPL
        MOV       R5,DPH
        MOV       A,#0xd
        LCALL     ?XSTACK_DISP0_8
        LCALL     ??Subroutine51_0 & 0xFFFF
//  622             }
//  623         }
??CrossCallReturnLabel_91:
        LCALL     `??ZDSecMgrAPSRemove::?relay`; Banked call to: ZDSecMgrAPSRemove
        MOV       A,#0x2
        LCALL     ?DEALLOC_XSTACK8
          CFI CFA_XSP16 add(XSP16, 58)
//  624         
//  625         //Expired device either is legacy device not using the TCLK entry or got 
//  626         //removed from the network because of timeout, eitherway it is not using
//  627         //TCLK entry neither the Security user in the address manager, so free the entry
//  628         //in both tables.
//  629         
//  630         uint16 keyNvIndex;
//  631         uint16 index;        
//  632         APSME_TCLKDevEntry_t TCLKDevEntry;
//  633         uint8 found;
//  634         
//  635         //Remove the entry in address manager
//  636         ZDSecMgrAddrClear(tempJoiningDescNode->bdbJoiningNodeEui64);
??bdb_TCProcessJoiningList_4:
        ; Setup parameters for call to function ZDSecMgrAddrClear
        MOV       A,R6
        MOV       R2,A
        MOV       A,R7
        MOV       R3,A
        LCALL     `??ZDSecMgrAddrClear::?relay`; Banked call to: ZDSecMgrAddrClear
//  637         
//  638         //search for the entry in the TCLK table
//  639         keyNvIndex = APSME_SearchTCLinkKeyEntry(tempJoiningDescNode->bdbJoiningNodeEui64,&found, NULL);
        ; Setup parameters for call to function APSME_SearchTCLinkKeyEntry
        CLR       A
        MOV       ?V4,A
        MOV       ?V5,A
        MOV       R0,#?V4
        LCALL     ?PUSH_XSTACK_I_TWO
          CFI CFA_XSP16 add(XSP16, 60)
        MOV       A,#0x2
        LCALL     ?XSTACK_DISP102_8
        MOV       A,R6
        MOV       R2,A
        MOV       A,R7
        MOV       R3,A
        LCALL     `??APSME_SearchTCLinkKeyEntry::?relay`; Banked call to: APSME_SearchTCLinkKeyEntry
        MOV       A,#0x2
        LCALL     ?DEALLOC_XSTACK8
          CFI CFA_XSP16 add(XSP16, 58)
        MOV       ?V4,R2
        MOV       ?V5,R3
        MOV       R6,?V4
        MOV       R7,?V5
//  640         
//  641         //If found, erase it.
//  642         if(found == TRUE)
        MOV       DPL,?XSP + 0
        MOV       DPH,?XSP + 1
        MOVX      A,@DPTR
        XRL       A,#0x1
        JNZ       ??bdb_TCProcessJoiningList_5
//  643         {
//  644           osal_memset(&TCLKDevEntry,0,sizeof(APSME_TCLKDevEntry_t));
        ; Setup parameters for call to function osal_memset
        MOV       R4,#0x13
        MOV       R5,#0x0
        MOV       R1,#0x0
        MOV       A,#0x17
        LCALL     ?XSTACK_DISP101_8
        LCALL     `??osal_memset::?relay`; Banked call to: osal_memset
//  645           TCLKDevEntry.keyAttributes = ZG_DEFAULT_KEY;
        MOV       A,#0x27
        LCALL     ?XSTACK_DISP0_8
        MOV       A,#-0x1
        MOVX      @DPTR,A
//  646           
//  647           //Increase the shift by one. Validate the maximum shift of the seed which is 15
//  648           index = keyNvIndex - ZCD_NV_TCLK_TABLE_START;
        MOV       A,R6
        ADD       A,#-0x11
        MOV       R0,A
        MOV       A,R7
        ADDC      A,#-0x2
        MOV       R1,A
//  649           
//  650           TCLinkKeyFrmCntr[index].rxFrmCntr = 0;
        MOV       A,R0
        MOV       B,#0x9
        MUL       AB
        MOV       R0,A
        MOV       R2,B
        MOV       B,#0x9
        MOV       A,R1
        MUL       AB
        ADD       A,R2
        MOV       R1,A
        MOV       A,#TCLinkKeyFrmCntr & 0xff
        ADD       A,R0
        MOV       R0,A
        MOV       A,#(TCLinkKeyFrmCntr >> 8) & 0xff
        ADDC      A,R1
        MOV       R1,A
        MOV       DPL,R0
        MOV       DPH,R1
        INC       DPTR
        INC       DPTR
        INC       DPTR
        INC       DPTR
        LCALL     ?Subroutine10 & 0xFFFF
//  651           TCLinkKeyFrmCntr[index].txFrmCntr = 0;
??CrossCallReturnLabel_47:
        MOV       DPL,R0
        MOV       DPH,R1
        LCALL     ??Subroutine38_0 & 0xFFFF
//  652           
//  653           //Update the entry
//  654           osal_nv_write(keyNvIndex,0,sizeof(APSME_TCLKDevEntry_t), &TCLKDevEntry );
??CrossCallReturnLabel_45:
        ; Setup parameters for call to function osal_nv_write
        MOV       A,#0x17
        LCALL     ?XSTACK_DISP100_8
        MOV       ?V4,R0
        MOV       ?V5,R1
        MOV       R0,#?V4
        LCALL     ?PUSH_XSTACK_I_TWO
          CFI CFA_XSP16 add(XSP16, 60)
        MOV       ?V4,#0x13
        MOV       ?V5,#0x0
        MOV       R0,#?V4
        LCALL     ?PUSH_XSTACK_I_TWO
          CFI CFA_XSP16 add(XSP16, 62)
        MOV       R4,#0x0
        MOV       R5,#0x0
        MOV       A,R6
        MOV       R2,A
        MOV       A,R7
        MOV       R3,A
        LCALL     `??osal_nv_write::?relay`; Banked call to: osal_nv_write
        MOV       A,#0x4
        LCALL     ?DEALLOC_XSTACK8
          CFI CFA_XSP16 add(XSP16, 58)
//  655         }
//  656         
//  657         if(pfnTCLinkKeyExchangeProcessCB)
??bdb_TCProcessJoiningList_5:
        MOV       DPTR,#pfnTCLinkKeyExchangeProcessCB
        LCALL     ??Subroutine46_0 & 0xFFFF
??CrossCallReturnLabel_56:
        JZ        ??bdb_TCProcessJoiningList_6
//  658         {
//  659           bdb_TCLinkKeyExchProcess_t bdb_TCLinkKeyExchProcess;
//  660           osal_memcpy(bdb_TCLinkKeyExchProcess.extAddr,tempJoiningDescNode->bdbJoiningNodeEui64, Z_EXTADDR_LEN);
        ; Setup parameters for call to function osal_memcpy
        MOV       R0,#?V0
        LCALL     ?PUSH_XSTACK_I_THREE
          CFI CFA_XSP16 add(XSP16, 61)
        MOV       R4,#0x8
        MOV       R5,#0x0
        MOV       A,#0x5
        LCALL     ?XSTACK_DISP0_8
        MOV       R2,DPL
        MOV       R3,DPH
        LCALL     `??osal_memcpy::?relay`; Banked call to: osal_memcpy
        MOV       A,#0x3
        LCALL     ?DEALLOC_XSTACK8
          CFI CFA_XSP16 add(XSP16, 58)
//  661           bdb_TCLinkKeyExchProcess.status = BDB_TC_LK_EXCH_PROCESS_EXCH_FAIL;
        MOV       A,#0x1
        LCALL     ?XSTACK_DISP0_8
        MOV       A,#0x2
        MOVX      @DPTR,A
//  662           
//  663           bdb_SendMsg(bdb_TaskID, BDB_TC_LINK_KEY_EXCHANGE_PROCESS, BDB_MSG_EVENT_SUCCESS,sizeof(bdb_TCLinkKeyExchProcess_t),(uint8*)&bdb_TCLinkKeyExchProcess);
        ; Setup parameters for call to function bdb_SendMsg
        DEC       A
        LCALL     ?XSTACK_DISP100_8
        MOV       ?V0,R0
        MOV       ?V1,R1
        MOV       R0,#?V0
        LCALL     ?PUSH_XSTACK_I_TWO
          CFI CFA_XSP16 add(XSP16, 60)
        MOV       R4,#0x9
        MOV       R3,#0x0
        MOV       R2,#0x9
        MOV       DPTR,#bdb_TaskID
        MOVX      A,@DPTR
        MOV       R1,A
        LCALL     `??bdb_SendMsg::?relay`; Banked call to: bdb_SendMsg
        MOV       A,#0x2
        LCALL     ?DEALLOC_XSTACK8
          CFI CFA_XSP16 add(XSP16, 58)
//  664         }
//  665        
//  666         //Free the device from the list
//  667         bdb_TCJoiningDeviceFree(tempJoiningDescNode);
??bdb_TCProcessJoiningList_6:
        ; Setup parameters for call to function bdb_TCJoiningDeviceFree
        MOV       R2,?V6
        MOV       R3,?V7
        LCALL     `??bdb_TCJoiningDeviceFree::?relay`; Banked call to: bdb_TCJoiningDeviceFree
//  668       }
//  669       tempJoiningDescNode = tempJoiningDescNode->nextDev;
??bdb_TCProcessJoiningList_3:
        MOV       A,?V6
        ADD       A,#0xb
        MOV       DPL,A
        CLR       A
        ADDC      A,?V7
        MOV       DPH,A
        MOVX      A,@DPTR
        MOV       ?V6,A
        INC       DPTR
        MOVX      A,@DPTR
        MOV       ?V7,A
//  670     }
        MOV       A,?V6
        ORL       A,?V7
        JZ        $+5
        LJMP      ??bdb_TCProcessJoiningList_1 & 0xFFFF
//  671   }
//  672 
//  673   //we are done with the list
//  674   if(bdb_joiningDeviceList == NULL)
        MOV       DPTR,#bdb_joiningDeviceList
        LCALL     ??Subroutine46_0 & 0xFFFF
??CrossCallReturnLabel_57:
        JNZ       ??bdb_TCProcessJoiningList_7
//  675   {
//  676     osal_stop_timerEx(bdb_TaskID,BDB_TC_JOIN_TIMEOUT);
??bdb_TCProcessJoiningList_0:
        ; Setup parameters for call to function osal_stop_timerEx
        MOV       R2,#0x0
        MOV       R3,#0x8
        MOV       DPTR,#bdb_TaskID
        MOVX      A,@DPTR
        MOV       R1,A
        LCALL     `??osal_stop_timerEx::?relay`; Banked call to: osal_stop_timerEx
//  677   }
//  678 }
??bdb_TCProcessJoiningList_7:
        MOV       A,#0x2a
        LJMP      ?Subroutine6 & 0xFFFF
          CFI EndBlock cfiBlock20
//  679 
//  680 
//  681 
//  682 /****************************************************************************
//  683  * @fn          bdb_TCjoiningDeviceComplete
//  684  *
//  685  * @brief       This function frees a joining device from the list that has 
//  686  *              finished TC link key exchange process
//  687  *
//  688  * @param       JoiningExtAddr - Extended address of the device
//  689  *
//  690  * @return      none
//  691  */

        RSEG BANKED_CODE:HUGECODE:NOROOT(0)
//  692 void bdb_TCjoiningDeviceComplete(uint8* JoiningExtAddr)
bdb_TCjoiningDeviceComplete:
          CFI Block cfiBlock21 Using cfiCommon0
          CFI Function bdb_TCjoiningDeviceComplete
        CODE
//  693 {
        FUNCALL bdb_TCjoiningDeviceComplete, osal_memcmp
        LOCFRAME ISTACK, 0, STACK
        LOCFRAME PSTACK, 0, STACK
        LOCFRAME XSTACK, 29, STACK
        LOCFRAME IOVERLAY, 0, STATIC
        LOCFRAME DOVERLAY, 0, STATIC
        ARGFRAME ISTACK, 0, STACK
        ARGFRAME PSTACK, 0, STACK
        ARGFRAME XSTACK, 29, STACK
        ARGFRAME IOVERLAY, 0, STATIC
        ARGFRAME DOVERLAY, 0, STATIC
        FUNCALL bdb_TCjoiningDeviceComplete, osal_memcpy
        LOCFRAME ISTACK, 0, STACK
        LOCFRAME PSTACK, 0, STACK
        LOCFRAME XSTACK, 29, STACK
        LOCFRAME IOVERLAY, 0, STATIC
        LOCFRAME DOVERLAY, 0, STATIC
        ARGFRAME ISTACK, 0, STACK
        ARGFRAME PSTACK, 0, STACK
        ARGFRAME XSTACK, 29, STACK
        ARGFRAME IOVERLAY, 0, STATIC
        ARGFRAME DOVERLAY, 0, STATIC
        FUNCALL bdb_TCjoiningDeviceComplete, bdb_SendMsg
        LOCFRAME ISTACK, 0, STACK
        LOCFRAME PSTACK, 0, STACK
        LOCFRAME XSTACK, 28, STACK
        LOCFRAME IOVERLAY, 0, STATIC
        LOCFRAME DOVERLAY, 0, STATIC
        ARGFRAME ISTACK, 0, STACK
        ARGFRAME PSTACK, 0, STACK
        ARGFRAME XSTACK, 28, STACK
        ARGFRAME IOVERLAY, 0, STATIC
        ARGFRAME DOVERLAY, 0, STATIC
        FUNCALL bdb_TCjoiningDeviceComplete, bdb_TCJoiningDeviceFree
        LOCFRAME ISTACK, 0, STACK
        LOCFRAME PSTACK, 0, STACK
        LOCFRAME XSTACK, 26, STACK
        LOCFRAME IOVERLAY, 0, STATIC
        LOCFRAME DOVERLAY, 0, STATIC
        ARGFRAME ISTACK, 0, STACK
        ARGFRAME PSTACK, 0, STACK
        ARGFRAME XSTACK, 26, STACK
        ARGFRAME IOVERLAY, 0, STATIC
        ARGFRAME DOVERLAY, 0, STATIC
        FUNCALL bdb_TCjoiningDeviceComplete, osal_stop_timerEx
        LOCFRAME ISTACK, 0, STACK
        LOCFRAME PSTACK, 0, STACK
        LOCFRAME XSTACK, 26, STACK
        LOCFRAME IOVERLAY, 0, STATIC
        LOCFRAME DOVERLAY, 0, STATIC
        ARGFRAME ISTACK, 0, STACK
        ARGFRAME PSTACK, 0, STACK
        ARGFRAME XSTACK, 26, STACK
        ARGFRAME IOVERLAY, 0, STATIC
        ARGFRAME DOVERLAY, 0, STATIC
        REQUIRE ?V0
        REQUIRE ?V1
        REQUIRE ?V2
        REQUIRE ?V4
        REQUIRE ?V5
        REQUIRE ?V6
        MOV       A,#-0xf
        LCALL     ?BANKED_ENTER_XDATA
          CFI DPH0 load(1, XDATA, add(CFA_XSP16, literal(-1)))
          CFI DPL0 load(1, XDATA, add(CFA_XSP16, literal(-2)))
          CFI ?BRET_EXT load(1, XDATA, add(CFA_XSP16, literal(-3)))
          CFI ?RET_HIGH load(1, XDATA, add(CFA_XSP16, literal(-4)))
          CFI ?RET_LOW load(1, XDATA, add(CFA_XSP16, literal(-5)))
          CFI R7 load(1, XDATA, add(CFA_XSP16, literal(-6)))
          CFI V6 load(1, XDATA, add(CFA_XSP16, literal(-7)))
          CFI V5 load(1, XDATA, add(CFA_XSP16, literal(-8)))
          CFI V4 load(1, XDATA, add(CFA_XSP16, literal(-9)))
          CFI V3 load(1, XDATA, add(CFA_XSP16, literal(-10)))
          CFI V2 load(1, XDATA, add(CFA_XSP16, literal(-11)))
          CFI V1 load(1, XDATA, add(CFA_XSP16, literal(-12)))
          CFI V0 load(1, XDATA, add(CFA_XSP16, literal(-13)))
          CFI VB load(1, XDATA, add(CFA_XSP16, literal(-14)))
          CFI R6 load(1, XDATA, add(CFA_XSP16, literal(-15)))
          CFI CFA_SP SP+0
          CFI CFA_XSP16 add(XSP16, 15)
        ; Saved register size: 15
        ; Auto size: 11
        MOV       A,#-0xb
        LCALL     ?ALLOC_XSTACK8
          CFI CFA_XSP16 add(XSP16, 26)
        MOV       DPL,?XSP + 0
        MOV       DPH,?XSP + 1
        LCALL     ?Subroutine11 & 0xFFFF
//  694   bdb_joiningDeviceList_t* tempJoiningDescNode;
//  695   
//  696   if((bdb_joiningDeviceList != NULL) && (JoiningExtAddr != NULL))
??CrossCallReturnLabel_5:
        JNZ       $+5
        LJMP      ??bdb_TCjoiningDeviceComplete_0 & 0xFFFF
        MOV       DPL,?XSP + 0
        MOV       DPH,?XSP + 1
        LCALL     ??Subroutine46_0 & 0xFFFF
??CrossCallReturnLabel_58:
        JNZ       $+5
        LJMP      ??bdb_TCjoiningDeviceComplete_0 & 0xFFFF
//  697   {
//  698     tempJoiningDescNode = bdb_joiningDeviceList;
        LCALL     ?Subroutine34 & 0xFFFF
??CrossCallReturnLabel_90:
        MOV       DPL,R6
        MOV       DPH,R7
        INC       DPTR
        INC       DPTR
        MOV       R1,DPL
        MOV       R2,DPH
        MOV       ?V0,R1
        MOV       ?V1,R2
        MOV       ?V2,#0x0
        ; Setup parameters for call to function osal_memcmp
        MOV       DPL,?XSP + 0
        MOV       DPH,?XSP + 1
        MOVX      A,@DPTR
        MOV       ?V4,A
        INC       DPTR
        MOVX      A,@DPTR
        MOV       ?V5,A
        MOV       ?V6,#0x0
        MOV       R0,#?V4
        LCALL     ?PUSH_XSTACK_I_THREE
          CFI CFA_XSP16 add(XSP16, 29)
        MOV       R4,#0x8
        MOV       R5,#0x0
        MOV       R3,?V2
//  699     
//  700     while(tempJoiningDescNode != NULL)
//  701     {
//  702       if(osal_memcmp(tempJoiningDescNode->bdbJoiningNodeEui64,JoiningExtAddr,Z_EXTADDR_LEN))
        LCALL     `??osal_memcmp::?relay`; Banked call to: osal_memcmp
        MOV       A,#0x3
        LCALL     ?DEALLOC_XSTACK8
          CFI CFA_XSP16 add(XSP16, 26)
        MOV       A,R1
        JZ        ??bdb_TCjoiningDeviceComplete_1
//  703       {
//  704         if(pfnTCLinkKeyExchangeProcessCB)
        MOV       DPTR,#pfnTCLinkKeyExchangeProcessCB
        LCALL     ??Subroutine46_0 & 0xFFFF
??CrossCallReturnLabel_59:
        JZ        ??bdb_TCjoiningDeviceComplete_2
//  705         {
//  706           bdb_TCLinkKeyExchProcess_t bdb_TCLinkKeyExchProcess;
//  707           osal_memcpy(bdb_TCLinkKeyExchProcess.extAddr,tempJoiningDescNode->bdbJoiningNodeEui64, Z_EXTADDR_LEN);
        ; Setup parameters for call to function osal_memcpy
        MOV       R0,#?V0
        LCALL     ?PUSH_XSTACK_I_THREE
          CFI CFA_XSP16 add(XSP16, 29)
        MOV       R4,#0x8
        MOV       R5,#0x0
        MOV       A,#0x6
        LCALL     ?XSTACK_DISP0_8
        MOV       R2,DPL
        MOV       R3,DPH
        LCALL     `??osal_memcpy::?relay`; Banked call to: osal_memcpy
        MOV       A,#0x3
        LCALL     ?DEALLOC_XSTACK8
          CFI CFA_XSP16 add(XSP16, 26)
//  708           bdb_TCLinkKeyExchProcess.status = BDB_TC_LK_EXCH_PROCESS_EXCH_SUCCESS;
        MOV       A,#0x2
        LCALL     ?XSTACK_DISP0_8
        MOV       A,#0x1
        MOVX      @DPTR,A
//  709           
//  710           bdb_SendMsg(bdb_TaskID, BDB_TC_LINK_KEY_EXCHANGE_PROCESS, BDB_MSG_EVENT_SUCCESS,sizeof(bdb_TCLinkKeyExchProcess_t),(uint8*)&bdb_TCLinkKeyExchProcess);
        ; Setup parameters for call to function bdb_SendMsg
        INC       A
        LCALL     ?XSTACK_DISP100_8
        MOV       ?V0,R0
        MOV       ?V1,R1
        MOV       R0,#?V0
        LCALL     ?PUSH_XSTACK_I_TWO
          CFI CFA_XSP16 add(XSP16, 28)
        MOV       R4,#0x9
        MOV       R3,#0x0
        MOV       R2,#0x9
        MOV       DPTR,#bdb_TaskID
        MOVX      A,@DPTR
        MOV       R1,A
        LCALL     `??bdb_SendMsg::?relay`; Banked call to: bdb_SendMsg
        MOV       A,#0x2
        LCALL     ?DEALLOC_XSTACK8
          CFI CFA_XSP16 add(XSP16, 26)
//  711         }        
//  712         
//  713         bdb_TCJoiningDeviceFree(tempJoiningDescNode);
??bdb_TCjoiningDeviceComplete_2:
        ; Setup parameters for call to function bdb_TCJoiningDeviceFree
        MOV       A,R6
        MOV       R2,A
        MOV       A,R7
        MOV       R3,A
        LCALL     `??bdb_TCJoiningDeviceFree::?relay`; Banked call to: bdb_TCJoiningDeviceFree
//  714         break;
        SJMP      ??bdb_TCjoiningDeviceComplete_3
//  715       }
//  716       tempJoiningDescNode = tempJoiningDescNode->nextDev;
??bdb_TCjoiningDeviceComplete_1:
        LCALL     ?Subroutine29 & 0xFFFF
//  717     }
??CrossCallReturnLabel_36:
        LCALL     ??Subroutine50_0 & 0xFFFF
??CrossCallReturnLabel_87:
        MOV       A,R6
        ORL       A,R7
        JZ        $+5
        LJMP      ??CrossCallReturnLabel_90 & 0xFFFF
//  718    
//  719     if(bdb_joiningDeviceList == NULL)
??bdb_TCjoiningDeviceComplete_3:
        MOV       DPTR,#bdb_joiningDeviceList
        LCALL     ??Subroutine46_0 & 0xFFFF
??CrossCallReturnLabel_60:
        JNZ       ??bdb_TCjoiningDeviceComplete_0
//  720     {
//  721       osal_stop_timerEx(bdb_TaskID,BDB_TC_JOIN_TIMEOUT);
        ; Setup parameters for call to function osal_stop_timerEx
        MOV       R2,#0x0
        MOV       R3,#0x8
        MOV       DPTR,#bdb_TaskID
        MOVX      A,@DPTR
        MOV       R1,A
        LCALL     `??osal_stop_timerEx::?relay`; Banked call to: osal_stop_timerEx
//  722     }
//  723   }
//  724 }
??bdb_TCjoiningDeviceComplete_0:
        LJMP      ?Subroutine5 & 0xFFFF
          CFI EndBlock cfiBlock21

        RSEG BANKED_CODE:HUGECODE:NOROOT(0)
?Subroutine29:
          CFI Block cfiCond22 Using cfiCommon0
          CFI Function bdb_TCAddJoiningDevice
          CFI Conditional ??CrossCallReturnLabel_35
          CFI R6 load(1, XDATA, add(CFA_XSP16, literal(-15)))
          CFI VB load(1, XDATA, add(CFA_XSP16, literal(-14)))
          CFI V0 load(1, XDATA, add(CFA_XSP16, literal(-13)))
          CFI V1 load(1, XDATA, add(CFA_XSP16, literal(-12)))
          CFI V2 load(1, XDATA, add(CFA_XSP16, literal(-11)))
          CFI V3 load(1, XDATA, add(CFA_XSP16, literal(-10)))
          CFI V4 load(1, XDATA, add(CFA_XSP16, literal(-9)))
          CFI V5 load(1, XDATA, add(CFA_XSP16, literal(-8)))
          CFI V6 load(1, XDATA, add(CFA_XSP16, literal(-7)))
          CFI R7 load(1, XDATA, add(CFA_XSP16, literal(-6)))
          CFI ?RET_LOW load(1, XDATA, add(CFA_XSP16, literal(-5)))
          CFI ?RET_HIGH load(1, XDATA, add(CFA_XSP16, literal(-4)))
          CFI ?BRET_EXT load(1, XDATA, add(CFA_XSP16, literal(-3)))
          CFI DPL0 load(1, XDATA, add(CFA_XSP16, literal(-2)))
          CFI DPH0 load(1, XDATA, add(CFA_XSP16, literal(-1)))
          CFI CFA_SP SP+-2
          CFI CFA_XSP16 add(XSP16, 26)
          CFI Block cfiCond23 Using cfiCommon0
          CFI (cfiCond23) Function bdb_TCjoiningDeviceComplete
          CFI (cfiCond23) Conditional ??CrossCallReturnLabel_36
          CFI (cfiCond23) R6 load(1, XDATA, add(CFA_XSP16, literal(-15)))
          CFI (cfiCond23) VB load(1, XDATA, add(CFA_XSP16, literal(-14)))
          CFI (cfiCond23) V0 load(1, XDATA, add(CFA_XSP16, literal(-13)))
          CFI (cfiCond23) V1 load(1, XDATA, add(CFA_XSP16, literal(-12)))
          CFI (cfiCond23) V2 load(1, XDATA, add(CFA_XSP16, literal(-11)))
          CFI (cfiCond23) V3 load(1, XDATA, add(CFA_XSP16, literal(-10)))
          CFI (cfiCond23) V4 load(1, XDATA, add(CFA_XSP16, literal(-9)))
          CFI (cfiCond23) V5 load(1, XDATA, add(CFA_XSP16, literal(-8)))
          CFI (cfiCond23) V6 load(1, XDATA, add(CFA_XSP16, literal(-7)))
          CFI (cfiCond23) R7 load(1, XDATA, add(CFA_XSP16, literal(-6)))
          CFI (cfiCond23) ?RET_LOW load(1, XDATA, add(CFA_XSP16, literal(-5)))
          CFI (cfiCond23) ?RET_HIGH load(1, XDATA, add(CFA_XSP16, literal(-4)))
          CFI (cfiCond23) ?BRET_EXT load(1, XDATA, add(CFA_XSP16, literal(-3)))
          CFI (cfiCond23) DPL0 load(1, XDATA, add(CFA_XSP16, literal(-2)))
          CFI (cfiCond23) DPH0 load(1, XDATA, add(CFA_XSP16, literal(-1)))
          CFI (cfiCond23) CFA_SP SP+-2
          CFI (cfiCond23) CFA_XSP16 add(XSP16, 26)
          CFI Block cfiPicker24 Using cfiCommon1
          CFI (cfiPicker24) NoFunction
          CFI (cfiPicker24) Picker
        MOV       A,R6
        ADD       A,#0xb
        MOV       DPL,A
        CLR       A
        ADDC      A,R7
        MOV       DPH,A
        RET
          CFI EndBlock cfiCond22
          CFI EndBlock cfiCond23
          CFI EndBlock cfiPicker24

        RSEG BANKED_CODE:HUGECODE:NOROOT(0)
?Subroutine11:
          CFI Block cfiCond25 Using cfiCommon0
          CFI Function bdb_TCAddJoiningDevice
          CFI Conditional ??CrossCallReturnLabel_4
          CFI R6 load(1, XDATA, add(CFA_XSP16, literal(-15)))
          CFI VB load(1, XDATA, add(CFA_XSP16, literal(-14)))
          CFI V0 load(1, XDATA, add(CFA_XSP16, literal(-13)))
          CFI V1 load(1, XDATA, add(CFA_XSP16, literal(-12)))
          CFI V2 load(1, XDATA, add(CFA_XSP16, literal(-11)))
          CFI V3 load(1, XDATA, add(CFA_XSP16, literal(-10)))
          CFI V4 load(1, XDATA, add(CFA_XSP16, literal(-9)))
          CFI V5 load(1, XDATA, add(CFA_XSP16, literal(-8)))
          CFI V6 load(1, XDATA, add(CFA_XSP16, literal(-7)))
          CFI R7 load(1, XDATA, add(CFA_XSP16, literal(-6)))
          CFI ?RET_LOW load(1, XDATA, add(CFA_XSP16, literal(-5)))
          CFI ?RET_HIGH load(1, XDATA, add(CFA_XSP16, literal(-4)))
          CFI ?BRET_EXT load(1, XDATA, add(CFA_XSP16, literal(-3)))
          CFI DPL0 load(1, XDATA, add(CFA_XSP16, literal(-2)))
          CFI DPH0 load(1, XDATA, add(CFA_XSP16, literal(-1)))
          CFI CFA_SP SP+-2
          CFI CFA_XSP16 add(XSP16, 26)
          CFI Block cfiCond26 Using cfiCommon0
          CFI (cfiCond26) Function bdb_TCjoiningDeviceComplete
          CFI (cfiCond26) Conditional ??CrossCallReturnLabel_5
          CFI (cfiCond26) R6 load(1, XDATA, add(CFA_XSP16, literal(-15)))
          CFI (cfiCond26) VB load(1, XDATA, add(CFA_XSP16, literal(-14)))
          CFI (cfiCond26) V0 load(1, XDATA, add(CFA_XSP16, literal(-13)))
          CFI (cfiCond26) V1 load(1, XDATA, add(CFA_XSP16, literal(-12)))
          CFI (cfiCond26) V2 load(1, XDATA, add(CFA_XSP16, literal(-11)))
          CFI (cfiCond26) V3 load(1, XDATA, add(CFA_XSP16, literal(-10)))
          CFI (cfiCond26) V4 load(1, XDATA, add(CFA_XSP16, literal(-9)))
          CFI (cfiCond26) V5 load(1, XDATA, add(CFA_XSP16, literal(-8)))
          CFI (cfiCond26) V6 load(1, XDATA, add(CFA_XSP16, literal(-7)))
          CFI (cfiCond26) R7 load(1, XDATA, add(CFA_XSP16, literal(-6)))
          CFI (cfiCond26) ?RET_LOW load(1, XDATA, add(CFA_XSP16, literal(-5)))
          CFI (cfiCond26) ?RET_HIGH load(1, XDATA, add(CFA_XSP16, literal(-4)))
          CFI (cfiCond26) ?BRET_EXT load(1, XDATA, add(CFA_XSP16, literal(-3)))
          CFI (cfiCond26) DPL0 load(1, XDATA, add(CFA_XSP16, literal(-2)))
          CFI (cfiCond26) DPH0 load(1, XDATA, add(CFA_XSP16, literal(-1)))
          CFI (cfiCond26) CFA_SP SP+-2
          CFI (cfiCond26) CFA_XSP16 add(XSP16, 26)
          CFI Block cfiPicker27 Using cfiCommon1
          CFI (cfiPicker27) NoFunction
          CFI (cfiPicker27) Picker
        MOV       A,R2
        MOVX      @DPTR,A
        INC       DPTR
        MOV       A,R3
        MOVX      @DPTR,A
        MOV       DPTR,#bdb_joiningDeviceList
        LCALL     ?Subroutine33 & 0xFFFF
??CrossCallReturnLabel_71:
        MOV       A,R0
        ORL       A,R1
        RET
          CFI EndBlock cfiCond25
          CFI EndBlock cfiCond26
          CFI EndBlock cfiPicker27
//  725 
//  726 
//  727 
//  728 /****************************************************************************
//  729  * @fn          bdb_TCJoiningDeviceFree
//  730  *
//  731  * @brief       This function frees a joining device from the list.
//  732  *
//  733  * @param       ZSuccess - If the device was found and erased
//  734  * @param       ZInvalidParameter - Not found
//  735  *
//  736  * @return      none
//  737  */

        RSEG BANKED_CODE:HUGECODE:NOROOT(0)
//  738 ZStatus_t bdb_TCJoiningDeviceFree(bdb_joiningDeviceList_t* JoiningDeviceToRemove)
bdb_TCJoiningDeviceFree:
          CFI Block cfiBlock28 Using cfiCommon0
          CFI Function bdb_TCJoiningDeviceFree
        CODE
//  739 {
        FUNCALL bdb_TCJoiningDeviceFree, osal_memcmp
        LOCFRAME ISTACK, 0, STACK
        LOCFRAME PSTACK, 0, STACK
        LOCFRAME XSTACK, 17, STACK
        LOCFRAME IOVERLAY, 0, STATIC
        LOCFRAME DOVERLAY, 0, STATIC
        ARGFRAME ISTACK, 0, STACK
        ARGFRAME PSTACK, 0, STACK
        ARGFRAME XSTACK, 17, STACK
        ARGFRAME IOVERLAY, 0, STATIC
        ARGFRAME DOVERLAY, 0, STATIC
        FUNCALL bdb_TCJoiningDeviceFree, osal_mem_free
        LOCFRAME ISTACK, 0, STACK
        LOCFRAME PSTACK, 0, STACK
        LOCFRAME XSTACK, 14, STACK
        LOCFRAME IOVERLAY, 0, STATIC
        LOCFRAME DOVERLAY, 0, STATIC
        ARGFRAME ISTACK, 0, STACK
        ARGFRAME PSTACK, 0, STACK
        ARGFRAME XSTACK, 14, STACK
        ARGFRAME IOVERLAY, 0, STATIC
        ARGFRAME DOVERLAY, 0, STATIC
        FUNCALL bdb_TCJoiningDeviceFree, osal_memcmp
        LOCFRAME ISTACK, 0, STACK
        LOCFRAME PSTACK, 0, STACK
        LOCFRAME XSTACK, 17, STACK
        LOCFRAME IOVERLAY, 0, STATIC
        LOCFRAME DOVERLAY, 0, STATIC
        ARGFRAME ISTACK, 0, STACK
        ARGFRAME PSTACK, 0, STACK
        ARGFRAME XSTACK, 17, STACK
        ARGFRAME IOVERLAY, 0, STATIC
        ARGFRAME DOVERLAY, 0, STATIC
        FUNCALL bdb_TCJoiningDeviceFree, osal_mem_free
        LOCFRAME ISTACK, 0, STACK
        LOCFRAME PSTACK, 0, STACK
        LOCFRAME XSTACK, 14, STACK
        LOCFRAME IOVERLAY, 0, STATIC
        LOCFRAME DOVERLAY, 0, STATIC
        ARGFRAME ISTACK, 0, STACK
        ARGFRAME PSTACK, 0, STACK
        ARGFRAME XSTACK, 14, STACK
        ARGFRAME IOVERLAY, 0, STATIC
        ARGFRAME DOVERLAY, 0, STATIC
        REQUIRE ?V0
        REQUIRE ?V1
        REQUIRE ?V2
        REQUIRE ?V4
        REQUIRE ?V5
        MOV       A,#-0xe
        LCALL     ?BANKED_ENTER_XDATA
          CFI DPH0 load(1, XDATA, add(CFA_XSP16, literal(-1)))
          CFI DPL0 load(1, XDATA, add(CFA_XSP16, literal(-2)))
          CFI ?BRET_EXT load(1, XDATA, add(CFA_XSP16, literal(-3)))
          CFI ?RET_HIGH load(1, XDATA, add(CFA_XSP16, literal(-4)))
          CFI ?RET_LOW load(1, XDATA, add(CFA_XSP16, literal(-5)))
          CFI R7 load(1, XDATA, add(CFA_XSP16, literal(-6)))
          CFI V5 load(1, XDATA, add(CFA_XSP16, literal(-7)))
          CFI V4 load(1, XDATA, add(CFA_XSP16, literal(-8)))
          CFI V3 load(1, XDATA, add(CFA_XSP16, literal(-9)))
          CFI V2 load(1, XDATA, add(CFA_XSP16, literal(-10)))
          CFI V1 load(1, XDATA, add(CFA_XSP16, literal(-11)))
          CFI V0 load(1, XDATA, add(CFA_XSP16, literal(-12)))
          CFI VB load(1, XDATA, add(CFA_XSP16, literal(-13)))
          CFI R6 load(1, XDATA, add(CFA_XSP16, literal(-14)))
          CFI CFA_SP SP+0
          CFI CFA_XSP16 add(XSP16, 14)
        ; Saved register size: 14
        ; Auto size: 0
        MOV       ?V4,R2
        MOV       ?V5,R3
        MOV       DPL,R2
        MOV       DPH,R3
        INC       DPTR
        INC       DPTR
        MOV       R1,DPL
        MOV       R2,DPH
        MOV       ?V0,R1
        MOV       ?V1,R2
        MOV       ?V2,#0x0
        ; Setup parameters for call to function osal_memcmp
        MOV       R0,#?V0
        LCALL     ?PUSH_XSTACK_I_THREE
          CFI CFA_XSP16 add(XSP16, 17)
        MOV       R4,#0x8
        MOV       R5,#0x0
        MOV       DPTR,#bdb_joiningDeviceList
        LCALL     ?Subroutine23 & 0xFFFF
//  740   bdb_joiningDeviceList_t* descCurrent;
//  741   bdb_joiningDeviceList_t* descPrev;
//  742   
//  743   //validate empty list?
//  744   
//  745   //Is it the first?
//  746   if(osal_memcmp(bdb_joiningDeviceList->bdbJoiningNodeEui64, JoiningDeviceToRemove->bdbJoiningNodeEui64, Z_EXTADDR_LEN))
??CrossCallReturnLabel_23:
        LCALL     `??osal_memcmp::?relay`; Banked call to: osal_memcmp
        MOV       A,#0x3
        LCALL     ?DEALLOC_XSTACK8
          CFI CFA_XSP16 add(XSP16, 14)
        MOV       A,R1
        MOV       DPTR,#bdb_joiningDeviceList
        JZ        ??bdb_TCJoiningDeviceFree_0
//  747   {
//  748     descCurrent = bdb_joiningDeviceList;
        LCALL     ??Subroutine51_0 & 0xFFFF
//  749     bdb_joiningDeviceList = bdb_joiningDeviceList->nextDev;
??CrossCallReturnLabel_92:
        MOV       DPTR,#bdb_joiningDeviceList
        LCALL     ?Subroutine21 & 0xFFFF
??CrossCallReturnLabel_21:
        MOV       DPTR,#bdb_joiningDeviceList
        LCALL     ??Subroutine52_0 & 0xFFFF
//  750     osal_mem_free( descCurrent );
??CrossCallReturnLabel_99:
        ; Setup parameters for call to function osal_mem_free
        SJMP      ??bdb_TCJoiningDeviceFree_1
//  751     return ZSuccess;
//  752   }
//  753   
//  754   descPrev = NULL;
//  755   descCurrent = bdb_joiningDeviceList;
//  756   
//  757   while(descCurrent != NULL)
//  758   {
//  759     if(osal_memcmp(descCurrent->nextDev->bdbJoiningNodeEui64, JoiningDeviceToRemove->bdbJoiningNodeEui64, Z_EXTADDR_LEN))
//  760     {
//  761       descPrev = descCurrent;
//  762       break;
//  763     }
//  764     descCurrent = descCurrent->nextDev;
??bdb_TCJoiningDeviceFree_0:
        LCALL     ?Subroutine19 & 0xFFFF
??CrossCallReturnLabel_14:
        JZ        ??bdb_TCJoiningDeviceFree_2
        MOV       A,R2
        ADD       A,#0xb
        MOV       R6,A
        CLR       A
        ADDC      A,R3
        MOV       R7,A
        ; Setup parameters for call to function osal_memcmp
        MOV       R0,#?V0
        LCALL     ?PUSH_XSTACK_I_THREE
          CFI CFA_XSP16 add(XSP16, 17)
        MOV       R4,#0x8
        MOV       R5,#0x0
        MOV       DPL,R6
        MOV       DPH,R7
        LCALL     ?Subroutine23 & 0xFFFF
??CrossCallReturnLabel_24:
        LCALL     `??osal_memcmp::?relay`; Banked call to: osal_memcmp
        MOV       A,#0x3
        LCALL     ?DEALLOC_XSTACK8
          CFI CFA_XSP16 add(XSP16, 14)
        MOV       A,R1
        MOV       DPL,R6
        MOV       DPH,R7
        JZ        ??bdb_TCJoiningDeviceFree_0
//  765   }
//  766   if(descPrev == NULL)
//  767   {
//  768     //Not found
//  769     return ZInvalidParameter;
//  770   }
//  771   
//  772   descPrev->nextDev = descPrev->nextDev->nextDev;
        LCALL     ?Subroutine21 & 0xFFFF
??CrossCallReturnLabel_22:
        LCALL     ?Subroutine31 & 0xFFFF
//  773     
//  774   osal_mem_free( JoiningDeviceToRemove );
??CrossCallReturnLabel_103:
        ; Setup parameters for call to function osal_mem_free
        MOV       R2,?V4
        MOV       R3,?V5
??bdb_TCJoiningDeviceFree_1:
        LCALL     `??osal_mem_free::?relay`; Banked call to: osal_mem_free
//  775   return ZSuccess;
        MOV       R1,#0x0
        SJMP      ??bdb_TCJoiningDeviceFree_3
??bdb_TCJoiningDeviceFree_2:
        MOV       R1,#0x2
??bdb_TCJoiningDeviceFree_3:
        LJMP      ?Subroutine3 & 0xFFFF
//  776 
//  777 }
          CFI EndBlock cfiBlock28

        RSEG BANKED_CODE:HUGECODE:NOROOT(0)
?Subroutine23:
          CFI Block cfiCond29 Using cfiCommon0
          CFI Function bdb_TCJoiningDeviceFree
          CFI Conditional ??CrossCallReturnLabel_23
          CFI R6 load(1, XDATA, add(CFA_XSP16, literal(-14)))
          CFI VB load(1, XDATA, add(CFA_XSP16, literal(-13)))
          CFI V0 load(1, XDATA, add(CFA_XSP16, literal(-12)))
          CFI V1 load(1, XDATA, add(CFA_XSP16, literal(-11)))
          CFI V2 load(1, XDATA, add(CFA_XSP16, literal(-10)))
          CFI V3 load(1, XDATA, add(CFA_XSP16, literal(-9)))
          CFI V4 load(1, XDATA, add(CFA_XSP16, literal(-8)))
          CFI V5 load(1, XDATA, add(CFA_XSP16, literal(-7)))
          CFI R7 load(1, XDATA, add(CFA_XSP16, literal(-6)))
          CFI ?RET_LOW load(1, XDATA, add(CFA_XSP16, literal(-5)))
          CFI ?RET_HIGH load(1, XDATA, add(CFA_XSP16, literal(-4)))
          CFI ?BRET_EXT load(1, XDATA, add(CFA_XSP16, literal(-3)))
          CFI DPL0 load(1, XDATA, add(CFA_XSP16, literal(-2)))
          CFI DPH0 load(1, XDATA, add(CFA_XSP16, literal(-1)))
          CFI CFA_SP SP+-2
          CFI CFA_XSP16 add(XSP16, 17)
          CFI Block cfiCond30 Using cfiCommon0
          CFI (cfiCond30) Function bdb_TCJoiningDeviceFree
          CFI (cfiCond30) Conditional ??CrossCallReturnLabel_24
          CFI (cfiCond30) R6 load(1, XDATA, add(CFA_XSP16, literal(-14)))
          CFI (cfiCond30) VB load(1, XDATA, add(CFA_XSP16, literal(-13)))
          CFI (cfiCond30) V0 load(1, XDATA, add(CFA_XSP16, literal(-12)))
          CFI (cfiCond30) V1 load(1, XDATA, add(CFA_XSP16, literal(-11)))
          CFI (cfiCond30) V2 load(1, XDATA, add(CFA_XSP16, literal(-10)))
          CFI (cfiCond30) V3 load(1, XDATA, add(CFA_XSP16, literal(-9)))
          CFI (cfiCond30) V4 load(1, XDATA, add(CFA_XSP16, literal(-8)))
          CFI (cfiCond30) V5 load(1, XDATA, add(CFA_XSP16, literal(-7)))
          CFI (cfiCond30) R7 load(1, XDATA, add(CFA_XSP16, literal(-6)))
          CFI (cfiCond30) ?RET_LOW load(1, XDATA, add(CFA_XSP16, literal(-5)))
          CFI (cfiCond30) ?RET_HIGH load(1, XDATA, add(CFA_XSP16, literal(-4)))
          CFI (cfiCond30) ?BRET_EXT load(1, XDATA, add(CFA_XSP16, literal(-3)))
          CFI (cfiCond30) DPL0 load(1, XDATA, add(CFA_XSP16, literal(-2)))
          CFI (cfiCond30) DPH0 load(1, XDATA, add(CFA_XSP16, literal(-1)))
          CFI (cfiCond30) CFA_SP SP+-2
          CFI (cfiCond30) CFA_XSP16 add(XSP16, 17)
          CFI Block cfiPicker31 Using cfiCommon1
          CFI (cfiPicker31) NoFunction
          CFI (cfiPicker31) Picker
        LCALL     ?Subroutine35 & 0xFFFF
??CrossCallReturnLabel_41:
        MOV       R1,DPL
        MOV       R2,DPH
        MOV       R3,#0x0
        RET
          CFI EndBlock cfiCond29
          CFI EndBlock cfiCond30
          CFI EndBlock cfiPicker31

        RSEG BANKED_CODE:HUGECODE:NOROOT(0)
?Subroutine21:
          CFI Block cfiCond32 Using cfiCommon0
          CFI Function bdb_TCJoiningDeviceFree
          CFI Conditional ??CrossCallReturnLabel_21
          CFI R6 load(1, XDATA, add(CFA_XSP16, literal(-14)))
          CFI VB load(1, XDATA, add(CFA_XSP16, literal(-13)))
          CFI V0 load(1, XDATA, add(CFA_XSP16, literal(-12)))
          CFI V1 load(1, XDATA, add(CFA_XSP16, literal(-11)))
          CFI V2 load(1, XDATA, add(CFA_XSP16, literal(-10)))
          CFI V3 load(1, XDATA, add(CFA_XSP16, literal(-9)))
          CFI V4 load(1, XDATA, add(CFA_XSP16, literal(-8)))
          CFI V5 load(1, XDATA, add(CFA_XSP16, literal(-7)))
          CFI R7 load(1, XDATA, add(CFA_XSP16, literal(-6)))
          CFI ?RET_LOW load(1, XDATA, add(CFA_XSP16, literal(-5)))
          CFI ?RET_HIGH load(1, XDATA, add(CFA_XSP16, literal(-4)))
          CFI ?BRET_EXT load(1, XDATA, add(CFA_XSP16, literal(-3)))
          CFI DPL0 load(1, XDATA, add(CFA_XSP16, literal(-2)))
          CFI DPH0 load(1, XDATA, add(CFA_XSP16, literal(-1)))
          CFI CFA_SP SP+-2
          CFI CFA_XSP16 add(XSP16, 14)
          CFI Block cfiCond33 Using cfiCommon0
          CFI (cfiCond33) Function bdb_TCJoiningDeviceFree
          CFI (cfiCond33) Conditional ??CrossCallReturnLabel_22
          CFI (cfiCond33) R6 load(1, XDATA, add(CFA_XSP16, literal(-14)))
          CFI (cfiCond33) VB load(1, XDATA, add(CFA_XSP16, literal(-13)))
          CFI (cfiCond33) V0 load(1, XDATA, add(CFA_XSP16, literal(-12)))
          CFI (cfiCond33) V1 load(1, XDATA, add(CFA_XSP16, literal(-11)))
          CFI (cfiCond33) V2 load(1, XDATA, add(CFA_XSP16, literal(-10)))
          CFI (cfiCond33) V3 load(1, XDATA, add(CFA_XSP16, literal(-9)))
          CFI (cfiCond33) V4 load(1, XDATA, add(CFA_XSP16, literal(-8)))
          CFI (cfiCond33) V5 load(1, XDATA, add(CFA_XSP16, literal(-7)))
          CFI (cfiCond33) R7 load(1, XDATA, add(CFA_XSP16, literal(-6)))
          CFI (cfiCond33) ?RET_LOW load(1, XDATA, add(CFA_XSP16, literal(-5)))
          CFI (cfiCond33) ?RET_HIGH load(1, XDATA, add(CFA_XSP16, literal(-4)))
          CFI (cfiCond33) ?BRET_EXT load(1, XDATA, add(CFA_XSP16, literal(-3)))
          CFI (cfiCond33) DPL0 load(1, XDATA, add(CFA_XSP16, literal(-2)))
          CFI (cfiCond33) DPH0 load(1, XDATA, add(CFA_XSP16, literal(-1)))
          CFI (cfiCond33) CFA_SP SP+-2
          CFI (cfiCond33) CFA_XSP16 add(XSP16, 14)
          CFI Block cfiPicker34 Using cfiCommon1
          CFI (cfiPicker34) NoFunction
          CFI (cfiPicker34) Picker
        MOVX      A,@DPTR
        MOV       R0,A
        INC       DPTR
        MOVX      A,@DPTR
        XCH       A,R0
        ADD       A,#0xb
        MOV       DPL,A
        CLR       A
        ADDC      A,R0
        MOV       DPH,A
        LCALL     ?Subroutine33 & 0xFFFF
??CrossCallReturnLabel_72:
        RET
          CFI EndBlock cfiCond32
          CFI EndBlock cfiCond33
          CFI EndBlock cfiPicker34

        RSEG BANKED_CODE:HUGECODE:NOROOT(0)
?Subroutine33:
          CFI Block cfiCond35 Using cfiCommon0
          CFI Function bdb_TCAddJoiningDevice
          CFI Conditional ??CrossCallReturnLabel_71, ??CrossCallReturnLabel_4
          CFI R6 load(1, XDATA, add(CFA_XSP16, literal(-15)))
          CFI VB load(1, XDATA, add(CFA_XSP16, literal(-14)))
          CFI V0 load(1, XDATA, add(CFA_XSP16, literal(-13)))
          CFI V1 load(1, XDATA, add(CFA_XSP16, literal(-12)))
          CFI V2 load(1, XDATA, add(CFA_XSP16, literal(-11)))
          CFI V3 load(1, XDATA, add(CFA_XSP16, literal(-10)))
          CFI V4 load(1, XDATA, add(CFA_XSP16, literal(-9)))
          CFI V5 load(1, XDATA, add(CFA_XSP16, literal(-8)))
          CFI V6 load(1, XDATA, add(CFA_XSP16, literal(-7)))
          CFI R7 load(1, XDATA, add(CFA_XSP16, literal(-6)))
          CFI ?RET_LOW load(1, XDATA, add(CFA_XSP16, literal(-5)))
          CFI ?RET_HIGH load(1, XDATA, add(CFA_XSP16, literal(-4)))
          CFI ?BRET_EXT load(1, XDATA, add(CFA_XSP16, literal(-3)))
          CFI DPL0 load(1, XDATA, add(CFA_XSP16, literal(-2)))
          CFI DPH0 load(1, XDATA, add(CFA_XSP16, literal(-1)))
          CFI CFA_SP SP+-4
          CFI CFA_XSP16 add(XSP16, 26)
          CFI Block cfiCond36 Using cfiCommon0
          CFI (cfiCond36) Function bdb_TCjoiningDeviceComplete
          CFI (cfiCond36) Conditional ??CrossCallReturnLabel_71, ??CrossCallReturnLabel_5
          CFI (cfiCond36) R6 load(1, XDATA, add(CFA_XSP16, literal(-15)))
          CFI (cfiCond36) VB load(1, XDATA, add(CFA_XSP16, literal(-14)))
          CFI (cfiCond36) V0 load(1, XDATA, add(CFA_XSP16, literal(-13)))
          CFI (cfiCond36) V1 load(1, XDATA, add(CFA_XSP16, literal(-12)))
          CFI (cfiCond36) V2 load(1, XDATA, add(CFA_XSP16, literal(-11)))
          CFI (cfiCond36) V3 load(1, XDATA, add(CFA_XSP16, literal(-10)))
          CFI (cfiCond36) V4 load(1, XDATA, add(CFA_XSP16, literal(-9)))
          CFI (cfiCond36) V5 load(1, XDATA, add(CFA_XSP16, literal(-8)))
          CFI (cfiCond36) V6 load(1, XDATA, add(CFA_XSP16, literal(-7)))
          CFI (cfiCond36) R7 load(1, XDATA, add(CFA_XSP16, literal(-6)))
          CFI (cfiCond36) ?RET_LOW load(1, XDATA, add(CFA_XSP16, literal(-5)))
          CFI (cfiCond36) ?RET_HIGH load(1, XDATA, add(CFA_XSP16, literal(-4)))
          CFI (cfiCond36) ?BRET_EXT load(1, XDATA, add(CFA_XSP16, literal(-3)))
          CFI (cfiCond36) DPL0 load(1, XDATA, add(CFA_XSP16, literal(-2)))
          CFI (cfiCond36) DPH0 load(1, XDATA, add(CFA_XSP16, literal(-1)))
          CFI (cfiCond36) CFA_SP SP+-4
          CFI (cfiCond36) CFA_XSP16 add(XSP16, 26)
          CFI Block cfiCond37 Using cfiCommon0
          CFI (cfiCond37) Function bdb_TCJoiningDeviceFree
          CFI (cfiCond37) Conditional ??CrossCallReturnLabel_72, ??CrossCallReturnLabel_21
          CFI (cfiCond37) R6 load(1, XDATA, add(CFA_XSP16, literal(-14)))
          CFI (cfiCond37) VB load(1, XDATA, add(CFA_XSP16, literal(-13)))
          CFI (cfiCond37) V0 load(1, XDATA, add(CFA_XSP16, literal(-12)))
          CFI (cfiCond37) V1 load(1, XDATA, add(CFA_XSP16, literal(-11)))
          CFI (cfiCond37) V2 load(1, XDATA, add(CFA_XSP16, literal(-10)))
          CFI (cfiCond37) V3 load(1, XDATA, add(CFA_XSP16, literal(-9)))
          CFI (cfiCond37) V4 load(1, XDATA, add(CFA_XSP16, literal(-8)))
          CFI (cfiCond37) V5 load(1, XDATA, add(CFA_XSP16, literal(-7)))
          CFI (cfiCond37) R7 load(1, XDATA, add(CFA_XSP16, literal(-6)))
          CFI (cfiCond37) ?RET_LOW load(1, XDATA, add(CFA_XSP16, literal(-5)))
          CFI (cfiCond37) ?RET_HIGH load(1, XDATA, add(CFA_XSP16, literal(-4)))
          CFI (cfiCond37) ?BRET_EXT load(1, XDATA, add(CFA_XSP16, literal(-3)))
          CFI (cfiCond37) DPL0 load(1, XDATA, add(CFA_XSP16, literal(-2)))
          CFI (cfiCond37) DPH0 load(1, XDATA, add(CFA_XSP16, literal(-1)))
          CFI (cfiCond37) CFA_SP SP+-4
          CFI (cfiCond37) CFA_XSP16 add(XSP16, 14)
          CFI Block cfiCond38 Using cfiCommon0
          CFI (cfiCond38) Function bdb_TCJoiningDeviceFree
          CFI (cfiCond38) Conditional ??CrossCallReturnLabel_72, ??CrossCallReturnLabel_22
          CFI (cfiCond38) R6 load(1, XDATA, add(CFA_XSP16, literal(-14)))
          CFI (cfiCond38) VB load(1, XDATA, add(CFA_XSP16, literal(-13)))
          CFI (cfiCond38) V0 load(1, XDATA, add(CFA_XSP16, literal(-12)))
          CFI (cfiCond38) V1 load(1, XDATA, add(CFA_XSP16, literal(-11)))
          CFI (cfiCond38) V2 load(1, XDATA, add(CFA_XSP16, literal(-10)))
          CFI (cfiCond38) V3 load(1, XDATA, add(CFA_XSP16, literal(-9)))
          CFI (cfiCond38) V4 load(1, XDATA, add(CFA_XSP16, literal(-8)))
          CFI (cfiCond38) V5 load(1, XDATA, add(CFA_XSP16, literal(-7)))
          CFI (cfiCond38) R7 load(1, XDATA, add(CFA_XSP16, literal(-6)))
          CFI (cfiCond38) ?RET_LOW load(1, XDATA, add(CFA_XSP16, literal(-5)))
          CFI (cfiCond38) ?RET_HIGH load(1, XDATA, add(CFA_XSP16, literal(-4)))
          CFI (cfiCond38) ?BRET_EXT load(1, XDATA, add(CFA_XSP16, literal(-3)))
          CFI (cfiCond38) DPL0 load(1, XDATA, add(CFA_XSP16, literal(-2)))
          CFI (cfiCond38) DPH0 load(1, XDATA, add(CFA_XSP16, literal(-1)))
          CFI (cfiCond38) CFA_SP SP+-4
          CFI (cfiCond38) CFA_XSP16 add(XSP16, 14)
          CFI Block cfiCond39 Using cfiCommon0
          CFI (cfiCond39) Function bdb_ZclIdentifyCmdInd
          CFI (cfiCond39) Conditional ??CrossCallReturnLabel_73, ??CrossCallReturnLabel_25
          CFI (cfiCond39) R6 load(1, XDATA, add(CFA_XSP16, literal(-12)))
          CFI (cfiCond39) VB load(1, XDATA, add(CFA_XSP16, literal(-11)))
          CFI (cfiCond39) V0 load(1, XDATA, add(CFA_XSP16, literal(-10)))
          CFI (cfiCond39) V1 load(1, XDATA, add(CFA_XSP16, literal(-9)))
          CFI (cfiCond39) V2 load(1, XDATA, add(CFA_XSP16, literal(-8)))
          CFI (cfiCond39) V3 load(1, XDATA, add(CFA_XSP16, literal(-7)))
          CFI (cfiCond39) R7 load(1, XDATA, add(CFA_XSP16, literal(-6)))
          CFI (cfiCond39) ?RET_LOW load(1, XDATA, add(CFA_XSP16, literal(-5)))
          CFI (cfiCond39) ?RET_HIGH load(1, XDATA, add(CFA_XSP16, literal(-4)))
          CFI (cfiCond39) ?BRET_EXT load(1, XDATA, add(CFA_XSP16, literal(-3)))
          CFI (cfiCond39) DPL0 load(1, XDATA, add(CFA_XSP16, literal(-2)))
          CFI (cfiCond39) DPH0 load(1, XDATA, add(CFA_XSP16, literal(-1)))
          CFI (cfiCond39) CFA_SP SP+-4
          CFI (cfiCond39) CFA_XSP16 add(XSP16, 20)
          CFI Block cfiCond40 Using cfiCommon0
          CFI (cfiCond40) Function bdb_startResumeCommissioningProcess
          CFI (cfiCond40) Conditional ??CrossCallReturnLabel_73, ??CrossCallReturnLabel_26
          CFI (cfiCond40) R6 load(1, XDATA, add(CFA_XSP16, literal(-10)))
          CFI (cfiCond40) VB load(1, XDATA, add(CFA_XSP16, literal(-9)))
          CFI (cfiCond40) V0 load(1, XDATA, add(CFA_XSP16, literal(-8)))
          CFI (cfiCond40) V1 load(1, XDATA, add(CFA_XSP16, literal(-7)))
          CFI (cfiCond40) R7 load(1, XDATA, add(CFA_XSP16, literal(-6)))
          CFI (cfiCond40) ?RET_LOW load(1, XDATA, add(CFA_XSP16, literal(-5)))
          CFI (cfiCond40) ?RET_HIGH load(1, XDATA, add(CFA_XSP16, literal(-4)))
          CFI (cfiCond40) ?BRET_EXT load(1, XDATA, add(CFA_XSP16, literal(-3)))
          CFI (cfiCond40) DPL0 load(1, XDATA, add(CFA_XSP16, literal(-2)))
          CFI (cfiCond40) DPH0 load(1, XDATA, add(CFA_XSP16, literal(-1)))
          CFI (cfiCond40) CFA_SP SP+-4
          CFI (cfiCond40) CFA_XSP16 add(XSP16, 21)
          CFI Block cfiCond41 Using cfiCommon0
          CFI (cfiCond41) Function bdb_event_loop
          CFI (cfiCond41) Conditional ??CrossCallReturnLabel_73, ??CrossCallReturnLabel_27
          CFI (cfiCond41) R6 load(1, XDATA, add(CFA_XSP16, literal(-16)))
          CFI (cfiCond41) VB load(1, XDATA, add(CFA_XSP16, literal(-15)))
          CFI (cfiCond41) V0 load(1, XDATA, add(CFA_XSP16, literal(-14)))
          CFI (cfiCond41) V1 load(1, XDATA, add(CFA_XSP16, literal(-13)))
          CFI (cfiCond41) V2 load(1, XDATA, add(CFA_XSP16, literal(-12)))
          CFI (cfiCond41) V3 load(1, XDATA, add(CFA_XSP16, literal(-11)))
          CFI (cfiCond41) V4 load(1, XDATA, add(CFA_XSP16, literal(-10)))
          CFI (cfiCond41) V5 load(1, XDATA, add(CFA_XSP16, literal(-9)))
          CFI (cfiCond41) V6 load(1, XDATA, add(CFA_XSP16, literal(-8)))
          CFI (cfiCond41) V7 load(1, XDATA, add(CFA_XSP16, literal(-7)))
          CFI (cfiCond41) R7 load(1, XDATA, add(CFA_XSP16, literal(-6)))
          CFI (cfiCond41) ?RET_LOW load(1, XDATA, add(CFA_XSP16, literal(-5)))
          CFI (cfiCond41) ?RET_HIGH load(1, XDATA, add(CFA_XSP16, literal(-4)))
          CFI (cfiCond41) ?BRET_EXT load(1, XDATA, add(CFA_XSP16, literal(-3)))
          CFI (cfiCond41) DPL0 load(1, XDATA, add(CFA_XSP16, literal(-2)))
          CFI (cfiCond41) DPH0 load(1, XDATA, add(CFA_XSP16, literal(-1)))
          CFI (cfiCond41) CFA_SP SP+-4
          CFI (cfiCond41) CFA_XSP16 add(XSP16, 24)
          CFI Block cfiCond42 Using cfiCommon0
          CFI (cfiCond42) Function bdb_CreateRespondentList
          CFI (cfiCond42) Conditional ??CrossCallReturnLabel_74, ??CrossCallReturnLabel_49
          CFI (cfiCond42) R6 load(1, XDATA, add(CFA_XSP16, literal(-10)))
          CFI (cfiCond42) VB load(1, XDATA, add(CFA_XSP16, literal(-9)))
          CFI (cfiCond42) V0 load(1, XDATA, add(CFA_XSP16, literal(-8)))
          CFI (cfiCond42) V1 load(1, XDATA, add(CFA_XSP16, literal(-7)))
          CFI (cfiCond42) R7 load(1, XDATA, add(CFA_XSP16, literal(-6)))
          CFI (cfiCond42) ?RET_LOW load(1, XDATA, add(CFA_XSP16, literal(-5)))
          CFI (cfiCond42) ?RET_HIGH load(1, XDATA, add(CFA_XSP16, literal(-4)))
          CFI (cfiCond42) ?BRET_EXT load(1, XDATA, add(CFA_XSP16, literal(-3)))
          CFI (cfiCond42) DPL0 load(1, XDATA, add(CFA_XSP16, literal(-2)))
          CFI (cfiCond42) DPH0 load(1, XDATA, add(CFA_XSP16, literal(-1)))
          CFI (cfiCond42) CFA_SP SP+-4
          CFI (cfiCond42) CFA_XSP16 add(XSP16, 10)
          CFI Block cfiCond43 Using cfiCommon0
          CFI (cfiCond43) Function bdb_AddRespondentNode
          CFI (cfiCond43) Conditional ??CrossCallReturnLabel_74, ??CrossCallReturnLabel_50
          CFI (cfiCond43) R6 load(1, XDATA, add(CFA_XSP16, literal(-10)))
          CFI (cfiCond43) VB load(1, XDATA, add(CFA_XSP16, literal(-9)))
          CFI (cfiCond43) V0 load(1, XDATA, add(CFA_XSP16, literal(-8)))
          CFI (cfiCond43) V1 load(1, XDATA, add(CFA_XSP16, literal(-7)))
          CFI (cfiCond43) R7 load(1, XDATA, add(CFA_XSP16, literal(-6)))
          CFI (cfiCond43) ?RET_LOW load(1, XDATA, add(CFA_XSP16, literal(-5)))
          CFI (cfiCond43) ?RET_HIGH load(1, XDATA, add(CFA_XSP16, literal(-4)))
          CFI (cfiCond43) ?BRET_EXT load(1, XDATA, add(CFA_XSP16, literal(-3)))
          CFI (cfiCond43) DPL0 load(1, XDATA, add(CFA_XSP16, literal(-2)))
          CFI (cfiCond43) DPH0 load(1, XDATA, add(CFA_XSP16, literal(-1)))
          CFI (cfiCond43) CFA_SP SP+-4
          CFI (cfiCond43) CFA_XSP16 add(XSP16, 10)
          CFI Block cfiCond44 Using cfiCommon0
          CFI (cfiCond44) Function bdb_AddRespondentNode
          CFI (cfiCond44) Conditional ??CrossCallReturnLabel_74, ??CrossCallReturnLabel_51
          CFI (cfiCond44) R6 load(1, XDATA, add(CFA_XSP16, literal(-10)))
          CFI (cfiCond44) VB load(1, XDATA, add(CFA_XSP16, literal(-9)))
          CFI (cfiCond44) V0 load(1, XDATA, add(CFA_XSP16, literal(-8)))
          CFI (cfiCond44) V1 load(1, XDATA, add(CFA_XSP16, literal(-7)))
          CFI (cfiCond44) R7 load(1, XDATA, add(CFA_XSP16, literal(-6)))
          CFI (cfiCond44) ?RET_LOW load(1, XDATA, add(CFA_XSP16, literal(-5)))
          CFI (cfiCond44) ?RET_HIGH load(1, XDATA, add(CFA_XSP16, literal(-4)))
          CFI (cfiCond44) ?BRET_EXT load(1, XDATA, add(CFA_XSP16, literal(-3)))
          CFI (cfiCond44) DPL0 load(1, XDATA, add(CFA_XSP16, literal(-2)))
          CFI (cfiCond44) DPH0 load(1, XDATA, add(CFA_XSP16, literal(-1)))
          CFI (cfiCond44) CFA_SP SP+-4
          CFI (cfiCond44) CFA_XSP16 add(XSP16, 10)
          CFI Block cfiCond45 Using cfiCommon0
          CFI (cfiCond45) Function bdb_TCAddJoiningDevice
          CFI (cfiCond45) Conditional ??CrossCallReturnLabel_74, ??CrossCallReturnLabel_67
          CFI (cfiCond45) R6 load(1, XDATA, add(CFA_XSP16, literal(-15)))
          CFI (cfiCond45) VB load(1, XDATA, add(CFA_XSP16, literal(-14)))
          CFI (cfiCond45) V0 load(1, XDATA, add(CFA_XSP16, literal(-13)))
          CFI (cfiCond45) V1 load(1, XDATA, add(CFA_XSP16, literal(-12)))
          CFI (cfiCond45) V2 load(1, XDATA, add(CFA_XSP16, literal(-11)))
          CFI (cfiCond45) V3 load(1, XDATA, add(CFA_XSP16, literal(-10)))
          CFI (cfiCond45) V4 load(1, XDATA, add(CFA_XSP16, literal(-9)))
          CFI (cfiCond45) V5 load(1, XDATA, add(CFA_XSP16, literal(-8)))
          CFI (cfiCond45) V6 load(1, XDATA, add(CFA_XSP16, literal(-7)))
          CFI (cfiCond45) R7 load(1, XDATA, add(CFA_XSP16, literal(-6)))
          CFI (cfiCond45) ?RET_LOW load(1, XDATA, add(CFA_XSP16, literal(-5)))
          CFI (cfiCond45) ?RET_HIGH load(1, XDATA, add(CFA_XSP16, literal(-4)))
          CFI (cfiCond45) ?BRET_EXT load(1, XDATA, add(CFA_XSP16, literal(-3)))
          CFI (cfiCond45) DPL0 load(1, XDATA, add(CFA_XSP16, literal(-2)))
          CFI (cfiCond45) DPH0 load(1, XDATA, add(CFA_XSP16, literal(-1)))
          CFI (cfiCond45) CFA_SP SP+-4
          CFI (cfiCond45) CFA_XSP16 add(XSP16, 26)
          CFI Block cfiCond46 Using cfiCommon0
          CFI (cfiCond46) Function bdb_ZclIdentifyCmdInd
          CFI (cfiCond46) Conditional ??CrossCallReturnLabel_74, ??CrossCallReturnLabel_52
          CFI (cfiCond46) R6 load(1, XDATA, add(CFA_XSP16, literal(-12)))
          CFI (cfiCond46) VB load(1, XDATA, add(CFA_XSP16, literal(-11)))
          CFI (cfiCond46) V0 load(1, XDATA, add(CFA_XSP16, literal(-10)))
          CFI (cfiCond46) V1 load(1, XDATA, add(CFA_XSP16, literal(-9)))
          CFI (cfiCond46) V2 load(1, XDATA, add(CFA_XSP16, literal(-8)))
          CFI (cfiCond46) V3 load(1, XDATA, add(CFA_XSP16, literal(-7)))
          CFI (cfiCond46) R7 load(1, XDATA, add(CFA_XSP16, literal(-6)))
          CFI (cfiCond46) ?RET_LOW load(1, XDATA, add(CFA_XSP16, literal(-5)))
          CFI (cfiCond46) ?RET_HIGH load(1, XDATA, add(CFA_XSP16, literal(-4)))
          CFI (cfiCond46) ?BRET_EXT load(1, XDATA, add(CFA_XSP16, literal(-3)))
          CFI (cfiCond46) DPL0 load(1, XDATA, add(CFA_XSP16, literal(-2)))
          CFI (cfiCond46) DPH0 load(1, XDATA, add(CFA_XSP16, literal(-1)))
          CFI (cfiCond46) CFA_SP SP+-4
          CFI (cfiCond46) CFA_XSP16 add(XSP16, 20)
          CFI Block cfiCond47 Using cfiCommon0
          CFI (cfiCond47) Function bdb_TCAddJoiningDevice
          CFI (cfiCond47) Conditional ??CrossCallReturnLabel_74, ??CrossCallReturnLabel_53
          CFI (cfiCond47) R6 load(1, XDATA, add(CFA_XSP16, literal(-15)))
          CFI (cfiCond47) VB load(1, XDATA, add(CFA_XSP16, literal(-14)))
          CFI (cfiCond47) V0 load(1, XDATA, add(CFA_XSP16, literal(-13)))
          CFI (cfiCond47) V1 load(1, XDATA, add(CFA_XSP16, literal(-12)))
          CFI (cfiCond47) V2 load(1, XDATA, add(CFA_XSP16, literal(-11)))
          CFI (cfiCond47) V3 load(1, XDATA, add(CFA_XSP16, literal(-10)))
          CFI (cfiCond47) V4 load(1, XDATA, add(CFA_XSP16, literal(-9)))
          CFI (cfiCond47) V5 load(1, XDATA, add(CFA_XSP16, literal(-8)))
          CFI (cfiCond47) V6 load(1, XDATA, add(CFA_XSP16, literal(-7)))
          CFI (cfiCond47) R7 load(1, XDATA, add(CFA_XSP16, literal(-6)))
          CFI (cfiCond47) ?RET_LOW load(1, XDATA, add(CFA_XSP16, literal(-5)))
          CFI (cfiCond47) ?RET_HIGH load(1, XDATA, add(CFA_XSP16, literal(-4)))
          CFI (cfiCond47) ?BRET_EXT load(1, XDATA, add(CFA_XSP16, literal(-3)))
          CFI (cfiCond47) DPL0 load(1, XDATA, add(CFA_XSP16, literal(-2)))
          CFI (cfiCond47) DPH0 load(1, XDATA, add(CFA_XSP16, literal(-1)))
          CFI (cfiCond47) CFA_SP SP+-4
          CFI (cfiCond47) CFA_XSP16 add(XSP16, 26)
          CFI Block cfiCond48 Using cfiCommon0
          CFI (cfiCond48) Function bdb_TCAddJoiningDevice
          CFI (cfiCond48) Conditional ??CrossCallReturnLabel_74, ??CrossCallReturnLabel_54
          CFI (cfiCond48) R6 load(1, XDATA, add(CFA_XSP16, literal(-15)))
          CFI (cfiCond48) VB load(1, XDATA, add(CFA_XSP16, literal(-14)))
          CFI (cfiCond48) V0 load(1, XDATA, add(CFA_XSP16, literal(-13)))
          CFI (cfiCond48) V1 load(1, XDATA, add(CFA_XSP16, literal(-12)))
          CFI (cfiCond48) V2 load(1, XDATA, add(CFA_XSP16, literal(-11)))
          CFI (cfiCond48) V3 load(1, XDATA, add(CFA_XSP16, literal(-10)))
          CFI (cfiCond48) V4 load(1, XDATA, add(CFA_XSP16, literal(-9)))
          CFI (cfiCond48) V5 load(1, XDATA, add(CFA_XSP16, literal(-8)))
          CFI (cfiCond48) V6 load(1, XDATA, add(CFA_XSP16, literal(-7)))
          CFI (cfiCond48) R7 load(1, XDATA, add(CFA_XSP16, literal(-6)))
          CFI (cfiCond48) ?RET_LOW load(1, XDATA, add(CFA_XSP16, literal(-5)))
          CFI (cfiCond48) ?RET_HIGH load(1, XDATA, add(CFA_XSP16, literal(-4)))
          CFI (cfiCond48) ?BRET_EXT load(1, XDATA, add(CFA_XSP16, literal(-3)))
          CFI (cfiCond48) DPL0 load(1, XDATA, add(CFA_XSP16, literal(-2)))
          CFI (cfiCond48) DPH0 load(1, XDATA, add(CFA_XSP16, literal(-1)))
          CFI (cfiCond48) CFA_SP SP+-4
          CFI (cfiCond48) CFA_XSP16 add(XSP16, 26)
          CFI Block cfiCond49 Using cfiCommon0
          CFI (cfiCond49) Function bdb_TCProcessJoiningList
          CFI (cfiCond49) Conditional ??CrossCallReturnLabel_74, ??CrossCallReturnLabel_55
          CFI (cfiCond49) R6 load(1, XDATA, add(CFA_XSP16, literal(-16)))
          CFI (cfiCond49) VB load(1, XDATA, add(CFA_XSP16, literal(-15)))
          CFI (cfiCond49) V0 load(1, XDATA, add(CFA_XSP16, literal(-14)))
          CFI (cfiCond49) V1 load(1, XDATA, add(CFA_XSP16, literal(-13)))
          CFI (cfiCond49) V2 load(1, XDATA, add(CFA_XSP16, literal(-12)))
          CFI (cfiCond49) V3 load(1, XDATA, add(CFA_XSP16, literal(-11)))
          CFI (cfiCond49) V4 load(1, XDATA, add(CFA_XSP16, literal(-10)))
          CFI (cfiCond49) V5 load(1, XDATA, add(CFA_XSP16, literal(-9)))
          CFI (cfiCond49) V6 load(1, XDATA, add(CFA_XSP16, literal(-8)))
          CFI (cfiCond49) V7 load(1, XDATA, add(CFA_XSP16, literal(-7)))
          CFI (cfiCond49) R7 load(1, XDATA, add(CFA_XSP16, literal(-6)))
          CFI (cfiCond49) ?RET_LOW load(1, XDATA, add(CFA_XSP16, literal(-5)))
          CFI (cfiCond49) ?RET_HIGH load(1, XDATA, add(CFA_XSP16, literal(-4)))
          CFI (cfiCond49) ?BRET_EXT load(1, XDATA, add(CFA_XSP16, literal(-3)))
          CFI (cfiCond49) DPL0 load(1, XDATA, add(CFA_XSP16, literal(-2)))
          CFI (cfiCond49) DPH0 load(1, XDATA, add(CFA_XSP16, literal(-1)))
          CFI (cfiCond49) CFA_SP SP+-4
          CFI (cfiCond49) CFA_XSP16 add(XSP16, 58)
          CFI Block cfiCond50 Using cfiCommon0
          CFI (cfiCond50) Function bdb_TCProcessJoiningList
          CFI (cfiCond50) Conditional ??CrossCallReturnLabel_74, ??CrossCallReturnLabel_56
          CFI (cfiCond50) R6 load(1, XDATA, add(CFA_XSP16, literal(-16)))
          CFI (cfiCond50) VB load(1, XDATA, add(CFA_XSP16, literal(-15)))
          CFI (cfiCond50) V0 load(1, XDATA, add(CFA_XSP16, literal(-14)))
          CFI (cfiCond50) V1 load(1, XDATA, add(CFA_XSP16, literal(-13)))
          CFI (cfiCond50) V2 load(1, XDATA, add(CFA_XSP16, literal(-12)))
          CFI (cfiCond50) V3 load(1, XDATA, add(CFA_XSP16, literal(-11)))
          CFI (cfiCond50) V4 load(1, XDATA, add(CFA_XSP16, literal(-10)))
          CFI (cfiCond50) V5 load(1, XDATA, add(CFA_XSP16, literal(-9)))
          CFI (cfiCond50) V6 load(1, XDATA, add(CFA_XSP16, literal(-8)))
          CFI (cfiCond50) V7 load(1, XDATA, add(CFA_XSP16, literal(-7)))
          CFI (cfiCond50) R7 load(1, XDATA, add(CFA_XSP16, literal(-6)))
          CFI (cfiCond50) ?RET_LOW load(1, XDATA, add(CFA_XSP16, literal(-5)))
          CFI (cfiCond50) ?RET_HIGH load(1, XDATA, add(CFA_XSP16, literal(-4)))
          CFI (cfiCond50) ?BRET_EXT load(1, XDATA, add(CFA_XSP16, literal(-3)))
          CFI (cfiCond50) DPL0 load(1, XDATA, add(CFA_XSP16, literal(-2)))
          CFI (cfiCond50) DPH0 load(1, XDATA, add(CFA_XSP16, literal(-1)))
          CFI (cfiCond50) CFA_SP SP+-4
          CFI (cfiCond50) CFA_XSP16 add(XSP16, 58)
          CFI Block cfiCond51 Using cfiCommon0
          CFI (cfiCond51) Function bdb_TCProcessJoiningList
          CFI (cfiCond51) Conditional ??CrossCallReturnLabel_74, ??CrossCallReturnLabel_57
          CFI (cfiCond51) R6 load(1, XDATA, add(CFA_XSP16, literal(-16)))
          CFI (cfiCond51) VB load(1, XDATA, add(CFA_XSP16, literal(-15)))
          CFI (cfiCond51) V0 load(1, XDATA, add(CFA_XSP16, literal(-14)))
          CFI (cfiCond51) V1 load(1, XDATA, add(CFA_XSP16, literal(-13)))
          CFI (cfiCond51) V2 load(1, XDATA, add(CFA_XSP16, literal(-12)))
          CFI (cfiCond51) V3 load(1, XDATA, add(CFA_XSP16, literal(-11)))
          CFI (cfiCond51) V4 load(1, XDATA, add(CFA_XSP16, literal(-10)))
          CFI (cfiCond51) V5 load(1, XDATA, add(CFA_XSP16, literal(-9)))
          CFI (cfiCond51) V6 load(1, XDATA, add(CFA_XSP16, literal(-8)))
          CFI (cfiCond51) V7 load(1, XDATA, add(CFA_XSP16, literal(-7)))
          CFI (cfiCond51) R7 load(1, XDATA, add(CFA_XSP16, literal(-6)))
          CFI (cfiCond51) ?RET_LOW load(1, XDATA, add(CFA_XSP16, literal(-5)))
          CFI (cfiCond51) ?RET_HIGH load(1, XDATA, add(CFA_XSP16, literal(-4)))
          CFI (cfiCond51) ?BRET_EXT load(1, XDATA, add(CFA_XSP16, literal(-3)))
          CFI (cfiCond51) DPL0 load(1, XDATA, add(CFA_XSP16, literal(-2)))
          CFI (cfiCond51) DPH0 load(1, XDATA, add(CFA_XSP16, literal(-1)))
          CFI (cfiCond51) CFA_SP SP+-4
          CFI (cfiCond51) CFA_XSP16 add(XSP16, 58)
          CFI Block cfiCond52 Using cfiCommon0
          CFI (cfiCond52) Function bdb_TCjoiningDeviceComplete
          CFI (cfiCond52) Conditional ??CrossCallReturnLabel_74, ??CrossCallReturnLabel_58
          CFI (cfiCond52) R6 load(1, XDATA, add(CFA_XSP16, literal(-15)))
          CFI (cfiCond52) VB load(1, XDATA, add(CFA_XSP16, literal(-14)))
          CFI (cfiCond52) V0 load(1, XDATA, add(CFA_XSP16, literal(-13)))
          CFI (cfiCond52) V1 load(1, XDATA, add(CFA_XSP16, literal(-12)))
          CFI (cfiCond52) V2 load(1, XDATA, add(CFA_XSP16, literal(-11)))
          CFI (cfiCond52) V3 load(1, XDATA, add(CFA_XSP16, literal(-10)))
          CFI (cfiCond52) V4 load(1, XDATA, add(CFA_XSP16, literal(-9)))
          CFI (cfiCond52) V5 load(1, XDATA, add(CFA_XSP16, literal(-8)))
          CFI (cfiCond52) V6 load(1, XDATA, add(CFA_XSP16, literal(-7)))
          CFI (cfiCond52) R7 load(1, XDATA, add(CFA_XSP16, literal(-6)))
          CFI (cfiCond52) ?RET_LOW load(1, XDATA, add(CFA_XSP16, literal(-5)))
          CFI (cfiCond52) ?RET_HIGH load(1, XDATA, add(CFA_XSP16, literal(-4)))
          CFI (cfiCond52) ?BRET_EXT load(1, XDATA, add(CFA_XSP16, literal(-3)))
          CFI (cfiCond52) DPL0 load(1, XDATA, add(CFA_XSP16, literal(-2)))
          CFI (cfiCond52) DPH0 load(1, XDATA, add(CFA_XSP16, literal(-1)))
          CFI (cfiCond52) CFA_SP SP+-4
          CFI (cfiCond52) CFA_XSP16 add(XSP16, 26)
          CFI Block cfiCond53 Using cfiCommon0
          CFI (cfiCond53) Function bdb_TCjoiningDeviceComplete
          CFI (cfiCond53) Conditional ??CrossCallReturnLabel_74, ??CrossCallReturnLabel_59
          CFI (cfiCond53) R6 load(1, XDATA, add(CFA_XSP16, literal(-15)))
          CFI (cfiCond53) VB load(1, XDATA, add(CFA_XSP16, literal(-14)))
          CFI (cfiCond53) V0 load(1, XDATA, add(CFA_XSP16, literal(-13)))
          CFI (cfiCond53) V1 load(1, XDATA, add(CFA_XSP16, literal(-12)))
          CFI (cfiCond53) V2 load(1, XDATA, add(CFA_XSP16, literal(-11)))
          CFI (cfiCond53) V3 load(1, XDATA, add(CFA_XSP16, literal(-10)))
          CFI (cfiCond53) V4 load(1, XDATA, add(CFA_XSP16, literal(-9)))
          CFI (cfiCond53) V5 load(1, XDATA, add(CFA_XSP16, literal(-8)))
          CFI (cfiCond53) V6 load(1, XDATA, add(CFA_XSP16, literal(-7)))
          CFI (cfiCond53) R7 load(1, XDATA, add(CFA_XSP16, literal(-6)))
          CFI (cfiCond53) ?RET_LOW load(1, XDATA, add(CFA_XSP16, literal(-5)))
          CFI (cfiCond53) ?RET_HIGH load(1, XDATA, add(CFA_XSP16, literal(-4)))
          CFI (cfiCond53) ?BRET_EXT load(1, XDATA, add(CFA_XSP16, literal(-3)))
          CFI (cfiCond53) DPL0 load(1, XDATA, add(CFA_XSP16, literal(-2)))
          CFI (cfiCond53) DPH0 load(1, XDATA, add(CFA_XSP16, literal(-1)))
          CFI (cfiCond53) CFA_SP SP+-4
          CFI (cfiCond53) CFA_XSP16 add(XSP16, 26)
          CFI Block cfiCond54 Using cfiCommon0
          CFI (cfiCond54) Function bdb_TCjoiningDeviceComplete
          CFI (cfiCond54) Conditional ??CrossCallReturnLabel_74, ??CrossCallReturnLabel_60
          CFI (cfiCond54) R6 load(1, XDATA, add(CFA_XSP16, literal(-15)))
          CFI (cfiCond54) VB load(1, XDATA, add(CFA_XSP16, literal(-14)))
          CFI (cfiCond54) V0 load(1, XDATA, add(CFA_XSP16, literal(-13)))
          CFI (cfiCond54) V1 load(1, XDATA, add(CFA_XSP16, literal(-12)))
          CFI (cfiCond54) V2 load(1, XDATA, add(CFA_XSP16, literal(-11)))
          CFI (cfiCond54) V3 load(1, XDATA, add(CFA_XSP16, literal(-10)))
          CFI (cfiCond54) V4 load(1, XDATA, add(CFA_XSP16, literal(-9)))
          CFI (cfiCond54) V5 load(1, XDATA, add(CFA_XSP16, literal(-8)))
          CFI (cfiCond54) V6 load(1, XDATA, add(CFA_XSP16, literal(-7)))
          CFI (cfiCond54) R7 load(1, XDATA, add(CFA_XSP16, literal(-6)))
          CFI (cfiCond54) ?RET_LOW load(1, XDATA, add(CFA_XSP16, literal(-5)))
          CFI (cfiCond54) ?RET_HIGH load(1, XDATA, add(CFA_XSP16, literal(-4)))
          CFI (cfiCond54) ?BRET_EXT load(1, XDATA, add(CFA_XSP16, literal(-3)))
          CFI (cfiCond54) DPL0 load(1, XDATA, add(CFA_XSP16, literal(-2)))
          CFI (cfiCond54) DPH0 load(1, XDATA, add(CFA_XSP16, literal(-1)))
          CFI (cfiCond54) CFA_SP SP+-4
          CFI (cfiCond54) CFA_XSP16 add(XSP16, 26)
          CFI Block cfiCond55 Using cfiCommon0
          CFI (cfiCond55) Function bdb_reportCommissioningState
          CFI (cfiCond55) Conditional ??CrossCallReturnLabel_74, ??CrossCallReturnLabel_61
          CFI (cfiCond55) R6 load(1, XDATA, add(CFA_XSP16, literal(-10)))
          CFI (cfiCond55) VB load(1, XDATA, add(CFA_XSP16, literal(-9)))
          CFI (cfiCond55) V0 load(1, XDATA, add(CFA_XSP16, literal(-8)))
          CFI (cfiCond55) V1 load(1, XDATA, add(CFA_XSP16, literal(-7)))
          CFI (cfiCond55) R7 load(1, XDATA, add(CFA_XSP16, literal(-6)))
          CFI (cfiCond55) ?RET_LOW load(1, XDATA, add(CFA_XSP16, literal(-5)))
          CFI (cfiCond55) ?RET_HIGH load(1, XDATA, add(CFA_XSP16, literal(-4)))
          CFI (cfiCond55) ?BRET_EXT load(1, XDATA, add(CFA_XSP16, literal(-3)))
          CFI (cfiCond55) DPL0 load(1, XDATA, add(CFA_XSP16, literal(-2)))
          CFI (cfiCond55) DPH0 load(1, XDATA, add(CFA_XSP16, literal(-1)))
          CFI (cfiCond55) CFA_SP SP+-4
          CFI (cfiCond55) CFA_XSP16 add(XSP16, 14)
          CFI Block cfiCond56 Using cfiCommon0
          CFI (cfiCond56) Function bdb_startResumeCommissioningProcess
          CFI (cfiCond56) Conditional ??CrossCallReturnLabel_74, ??CrossCallReturnLabel_62
          CFI (cfiCond56) R6 load(1, XDATA, add(CFA_XSP16, literal(-10)))
          CFI (cfiCond56) VB load(1, XDATA, add(CFA_XSP16, literal(-9)))
          CFI (cfiCond56) V0 load(1, XDATA, add(CFA_XSP16, literal(-8)))
          CFI (cfiCond56) V1 load(1, XDATA, add(CFA_XSP16, literal(-7)))
          CFI (cfiCond56) R7 load(1, XDATA, add(CFA_XSP16, literal(-6)))
          CFI (cfiCond56) ?RET_LOW load(1, XDATA, add(CFA_XSP16, literal(-5)))
          CFI (cfiCond56) ?RET_HIGH load(1, XDATA, add(CFA_XSP16, literal(-4)))
          CFI (cfiCond56) ?BRET_EXT load(1, XDATA, add(CFA_XSP16, literal(-3)))
          CFI (cfiCond56) DPL0 load(1, XDATA, add(CFA_XSP16, literal(-2)))
          CFI (cfiCond56) DPH0 load(1, XDATA, add(CFA_XSP16, literal(-1)))
          CFI (cfiCond56) CFA_SP SP+-4
          CFI (cfiCond56) CFA_XSP16 add(XSP16, 21)
          CFI Block cfiCond57 Using cfiCommon0
          CFI (cfiCond57) Function bdb_event_loop
          CFI (cfiCond57) Conditional ??CrossCallReturnLabel_74, ??CrossCallReturnLabel_63
          CFI (cfiCond57) R6 load(1, XDATA, add(CFA_XSP16, literal(-16)))
          CFI (cfiCond57) VB load(1, XDATA, add(CFA_XSP16, literal(-15)))
          CFI (cfiCond57) V0 load(1, XDATA, add(CFA_XSP16, literal(-14)))
          CFI (cfiCond57) V1 load(1, XDATA, add(CFA_XSP16, literal(-13)))
          CFI (cfiCond57) V2 load(1, XDATA, add(CFA_XSP16, literal(-12)))
          CFI (cfiCond57) V3 load(1, XDATA, add(CFA_XSP16, literal(-11)))
          CFI (cfiCond57) V4 load(1, XDATA, add(CFA_XSP16, literal(-10)))
          CFI (cfiCond57) V5 load(1, XDATA, add(CFA_XSP16, literal(-9)))
          CFI (cfiCond57) V6 load(1, XDATA, add(CFA_XSP16, literal(-8)))
          CFI (cfiCond57) V7 load(1, XDATA, add(CFA_XSP16, literal(-7)))
          CFI (cfiCond57) R7 load(1, XDATA, add(CFA_XSP16, literal(-6)))
          CFI (cfiCond57) ?RET_LOW load(1, XDATA, add(CFA_XSP16, literal(-5)))
          CFI (cfiCond57) ?RET_HIGH load(1, XDATA, add(CFA_XSP16, literal(-4)))
          CFI (cfiCond57) ?BRET_EXT load(1, XDATA, add(CFA_XSP16, literal(-3)))
          CFI (cfiCond57) DPL0 load(1, XDATA, add(CFA_XSP16, literal(-2)))
          CFI (cfiCond57) DPH0 load(1, XDATA, add(CFA_XSP16, literal(-1)))
          CFI (cfiCond57) CFA_SP SP+-4
          CFI (cfiCond57) CFA_XSP16 add(XSP16, 24)
          CFI Block cfiCond58 Using cfiCommon0
          CFI (cfiCond58) Function bdb_event_loop
          CFI (cfiCond58) Conditional ??CrossCallReturnLabel_74, ??CrossCallReturnLabel_64
          CFI (cfiCond58) R6 load(1, XDATA, add(CFA_XSP16, literal(-16)))
          CFI (cfiCond58) VB load(1, XDATA, add(CFA_XSP16, literal(-15)))
          CFI (cfiCond58) V0 load(1, XDATA, add(CFA_XSP16, literal(-14)))
          CFI (cfiCond58) V1 load(1, XDATA, add(CFA_XSP16, literal(-13)))
          CFI (cfiCond58) V2 load(1, XDATA, add(CFA_XSP16, literal(-12)))
          CFI (cfiCond58) V3 load(1, XDATA, add(CFA_XSP16, literal(-11)))
          CFI (cfiCond58) V4 load(1, XDATA, add(CFA_XSP16, literal(-10)))
          CFI (cfiCond58) V5 load(1, XDATA, add(CFA_XSP16, literal(-9)))
          CFI (cfiCond58) V6 load(1, XDATA, add(CFA_XSP16, literal(-8)))
          CFI (cfiCond58) V7 load(1, XDATA, add(CFA_XSP16, literal(-7)))
          CFI (cfiCond58) R7 load(1, XDATA, add(CFA_XSP16, literal(-6)))
          CFI (cfiCond58) ?RET_LOW load(1, XDATA, add(CFA_XSP16, literal(-5)))
          CFI (cfiCond58) ?RET_HIGH load(1, XDATA, add(CFA_XSP16, literal(-4)))
          CFI (cfiCond58) ?BRET_EXT load(1, XDATA, add(CFA_XSP16, literal(-3)))
          CFI (cfiCond58) DPL0 load(1, XDATA, add(CFA_XSP16, literal(-2)))
          CFI (cfiCond58) DPH0 load(1, XDATA, add(CFA_XSP16, literal(-1)))
          CFI (cfiCond58) CFA_SP SP+-4
          CFI (cfiCond58) CFA_XSP16 add(XSP16, 24)
          CFI Block cfiCond59 Using cfiCommon0
          CFI (cfiCond59) Function bdb_ProcessNodeDescRsp
          CFI (cfiCond59) Conditional ??CrossCallReturnLabel_74, ??CrossCallReturnLabel_65
          CFI (cfiCond59) R6 load(1, XDATA, add(CFA_XSP16, literal(-10)))
          CFI (cfiCond59) VB load(1, XDATA, add(CFA_XSP16, literal(-9)))
          CFI (cfiCond59) V0 load(1, XDATA, add(CFA_XSP16, literal(-8)))
          CFI (cfiCond59) V1 load(1, XDATA, add(CFA_XSP16, literal(-7)))
          CFI (cfiCond59) R7 load(1, XDATA, add(CFA_XSP16, literal(-6)))
          CFI (cfiCond59) ?RET_LOW load(1, XDATA, add(CFA_XSP16, literal(-5)))
          CFI (cfiCond59) ?RET_HIGH load(1, XDATA, add(CFA_XSP16, literal(-4)))
          CFI (cfiCond59) ?BRET_EXT load(1, XDATA, add(CFA_XSP16, literal(-3)))
          CFI (cfiCond59) DPL0 load(1, XDATA, add(CFA_XSP16, literal(-2)))
          CFI (cfiCond59) DPH0 load(1, XDATA, add(CFA_XSP16, literal(-1)))
          CFI (cfiCond59) CFA_SP SP+-4
          CFI (cfiCond59) CFA_XSP16 add(XSP16, 45)
          CFI Block cfiCond60 Using cfiCommon0
          CFI (cfiCond60) Function bdb_zclRespondentListClean
          CFI (cfiCond60) Conditional ??CrossCallReturnLabel_74, ??CrossCallReturnLabel_66
          CFI (cfiCond60) R6 load(1, XDATA, add(CFA_XSP16, literal(-12)))
          CFI (cfiCond60) VB load(1, XDATA, add(CFA_XSP16, literal(-11)))
          CFI (cfiCond60) V0 load(1, XDATA, add(CFA_XSP16, literal(-10)))
          CFI (cfiCond60) V1 load(1, XDATA, add(CFA_XSP16, literal(-9)))
          CFI (cfiCond60) V2 load(1, XDATA, add(CFA_XSP16, literal(-8)))
          CFI (cfiCond60) V3 load(1, XDATA, add(CFA_XSP16, literal(-7)))
          CFI (cfiCond60) R7 load(1, XDATA, add(CFA_XSP16, literal(-6)))
          CFI (cfiCond60) ?RET_LOW load(1, XDATA, add(CFA_XSP16, literal(-5)))
          CFI (cfiCond60) ?RET_HIGH load(1, XDATA, add(CFA_XSP16, literal(-4)))
          CFI (cfiCond60) ?BRET_EXT load(1, XDATA, add(CFA_XSP16, literal(-3)))
          CFI (cfiCond60) DPL0 load(1, XDATA, add(CFA_XSP16, literal(-2)))
          CFI (cfiCond60) DPH0 load(1, XDATA, add(CFA_XSP16, literal(-1)))
          CFI (cfiCond60) CFA_SP SP+-4
          CFI (cfiCond60) CFA_XSP16 add(XSP16, 12)
          CFI Block cfiCond61 Using cfiCommon0
          CFI (cfiCond61) Function bdb_event_loop
          CFI (cfiCond61) Conditional ??CrossCallReturnLabel_68
          CFI (cfiCond61) R6 load(1, XDATA, add(CFA_XSP16, literal(-16)))
          CFI (cfiCond61) VB load(1, XDATA, add(CFA_XSP16, literal(-15)))
          CFI (cfiCond61) V0 load(1, XDATA, add(CFA_XSP16, literal(-14)))
          CFI (cfiCond61) V1 load(1, XDATA, add(CFA_XSP16, literal(-13)))
          CFI (cfiCond61) V2 load(1, XDATA, add(CFA_XSP16, literal(-12)))
          CFI (cfiCond61) V3 load(1, XDATA, add(CFA_XSP16, literal(-11)))
          CFI (cfiCond61) V4 load(1, XDATA, add(CFA_XSP16, literal(-10)))
          CFI (cfiCond61) V5 load(1, XDATA, add(CFA_XSP16, literal(-9)))
          CFI (cfiCond61) V6 load(1, XDATA, add(CFA_XSP16, literal(-8)))
          CFI (cfiCond61) V7 load(1, XDATA, add(CFA_XSP16, literal(-7)))
          CFI (cfiCond61) R7 load(1, XDATA, add(CFA_XSP16, literal(-6)))
          CFI (cfiCond61) ?RET_LOW load(1, XDATA, add(CFA_XSP16, literal(-5)))
          CFI (cfiCond61) ?RET_HIGH load(1, XDATA, add(CFA_XSP16, literal(-4)))
          CFI (cfiCond61) ?BRET_EXT load(1, XDATA, add(CFA_XSP16, literal(-3)))
          CFI (cfiCond61) DPL0 load(1, XDATA, add(CFA_XSP16, literal(-2)))
          CFI (cfiCond61) DPH0 load(1, XDATA, add(CFA_XSP16, literal(-1)))
          CFI (cfiCond61) CFA_SP SP+-2
          CFI (cfiCond61) CFA_XSP16 add(XSP16, 24)
          CFI Block cfiCond62 Using cfiCommon0
          CFI (cfiCond62) Function bdb_event_loop
          CFI (cfiCond62) Conditional ??CrossCallReturnLabel_69
          CFI (cfiCond62) R6 load(1, XDATA, add(CFA_XSP16, literal(-16)))
          CFI (cfiCond62) VB load(1, XDATA, add(CFA_XSP16, literal(-15)))
          CFI (cfiCond62) V0 load(1, XDATA, add(CFA_XSP16, literal(-14)))
          CFI (cfiCond62) V1 load(1, XDATA, add(CFA_XSP16, literal(-13)))
          CFI (cfiCond62) V2 load(1, XDATA, add(CFA_XSP16, literal(-12)))
          CFI (cfiCond62) V3 load(1, XDATA, add(CFA_XSP16, literal(-11)))
          CFI (cfiCond62) V4 load(1, XDATA, add(CFA_XSP16, literal(-10)))
          CFI (cfiCond62) V5 load(1, XDATA, add(CFA_XSP16, literal(-9)))
          CFI (cfiCond62) V6 load(1, XDATA, add(CFA_XSP16, literal(-8)))
          CFI (cfiCond62) V7 load(1, XDATA, add(CFA_XSP16, literal(-7)))
          CFI (cfiCond62) R7 load(1, XDATA, add(CFA_XSP16, literal(-6)))
          CFI (cfiCond62) ?RET_LOW load(1, XDATA, add(CFA_XSP16, literal(-5)))
          CFI (cfiCond62) ?RET_HIGH load(1, XDATA, add(CFA_XSP16, literal(-4)))
          CFI (cfiCond62) ?BRET_EXT load(1, XDATA, add(CFA_XSP16, literal(-3)))
          CFI (cfiCond62) DPL0 load(1, XDATA, add(CFA_XSP16, literal(-2)))
          CFI (cfiCond62) DPH0 load(1, XDATA, add(CFA_XSP16, literal(-1)))
          CFI (cfiCond62) CFA_SP SP+-2
          CFI (cfiCond62) CFA_XSP16 add(XSP16, 24)
          CFI Block cfiCond63 Using cfiCommon0
          CFI (cfiCond63) Function bdb_crcInit
          CFI (cfiCond63) Conditional ??CrossCallReturnLabel_70
          CFI (cfiCond63) R6 load(1, XDATA, add(CFA_XSP16, literal(-9)))
          CFI (cfiCond63) VB load(1, XDATA, add(CFA_XSP16, literal(-8)))
          CFI (cfiCond63) V0 load(1, XDATA, add(CFA_XSP16, literal(-7)))
          CFI (cfiCond63) R7 load(1, XDATA, add(CFA_XSP16, literal(-6)))
          CFI (cfiCond63) ?RET_LOW load(1, XDATA, add(CFA_XSP16, literal(-5)))
          CFI (cfiCond63) ?RET_HIGH load(1, XDATA, add(CFA_XSP16, literal(-4)))
          CFI (cfiCond63) ?BRET_EXT load(1, XDATA, add(CFA_XSP16, literal(-3)))
          CFI (cfiCond63) DPL0 load(1, XDATA, add(CFA_XSP16, literal(-2)))
          CFI (cfiCond63) DPH0 load(1, XDATA, add(CFA_XSP16, literal(-1)))
          CFI (cfiCond63) CFA_SP SP+-2
          CFI (cfiCond63) CFA_XSP16 add(XSP16, 9)
          CFI Block cfiPicker64 Using cfiCommon1
          CFI (cfiPicker64) NoFunction
          CFI (cfiPicker64) Picker
        MOVX      A,@DPTR
        MOV       R0,A
        INC       DPTR
        MOVX      A,@DPTR
        MOV       R1,A
        RET
          CFI EndBlock cfiCond35
          CFI EndBlock cfiCond36
          CFI EndBlock cfiCond37
          CFI EndBlock cfiCond38
          CFI EndBlock cfiCond39
          CFI EndBlock cfiCond40
          CFI EndBlock cfiCond41
          CFI EndBlock cfiCond42
          CFI EndBlock cfiCond43
          CFI EndBlock cfiCond44
          CFI EndBlock cfiCond45
          CFI EndBlock cfiCond46
          CFI EndBlock cfiCond47
          CFI EndBlock cfiCond48
          CFI EndBlock cfiCond49
          CFI EndBlock cfiCond50
          CFI EndBlock cfiCond51
          CFI EndBlock cfiCond52
          CFI EndBlock cfiCond53
          CFI EndBlock cfiCond54
          CFI EndBlock cfiCond55
          CFI EndBlock cfiCond56
          CFI EndBlock cfiCond57
          CFI EndBlock cfiCond58
          CFI EndBlock cfiCond59
          CFI EndBlock cfiCond60
          CFI EndBlock cfiCond61
          CFI EndBlock cfiCond62
          CFI EndBlock cfiCond63
          CFI EndBlock cfiPicker64
//  778 
//  779  /*********************************************************************
//  780  * @fn          bdb_setJoinUsesInstallCodeKey
//  781  *
//  782  * @brief       Set BDB attribute bdbJoinUsesInstallCodeKey.
//  783  *
//  784  * @param       set - If TRUE only devices with IC register in TC can join the 
//  785  *              nwk, otherwise devices may or not have a IC register
//  786  *
//  787  * @return      none
//  788  */

        RSEG BANKED_CODE:HUGECODE:NOROOT(0)
//  789 void bdb_setJoinUsesInstallCodeKey(bool set)
bdb_setJoinUsesInstallCodeKey:
          CFI Block cfiBlock65 Using cfiCommon0
          CFI Function bdb_setJoinUsesInstallCodeKey
        CODE
//  790 {
        PUSH      DPL
          CFI DPL0 Frame(CFA_SP, 4)
          CFI CFA_SP SP+-4
        PUSH      DPH
          CFI DPH0 Frame(CFA_SP, 5)
          CFI CFA_SP SP+-5
        ; Saved register size: 2
        ; Auto size: 0
//  791   bdbAttributes.bdbJoinUsesInstallCodeKey = set;
        MOV       A,R1
        MOV       DPTR,#bdbAttributes + 15
        MOVX      @DPTR,A
//  792   if(set)
        MOV       DPTR,#zgAllowInstallCodes
        JZ        ??bdb_setJoinUsesInstallCodeKey_0
//  793   {
//  794     zgAllowInstallCodes = ZG_IC_MUST_USED;
        MOV       A,#0x2
        SJMP      ??bdb_setJoinUsesInstallCodeKey_1
//  795   }
//  796   else
//  797   {
//  798     zgAllowInstallCodes = ZG_IC_SUPPORTED_NOT_REQUIRED;
??bdb_setJoinUsesInstallCodeKey_0:
        MOV       A,#0x1
//  799   }
??bdb_setJoinUsesInstallCodeKey_1:
        LJMP      ??Subroutine39_0 & 0xFFFF
//  800 }
          CFI EndBlock cfiBlock65
//  801 #endif
//  802 
//  803  /*********************************************************************
//  804  * @fn          bdb_StartCommissioning
//  805  *
//  806  * @brief       Start the commissioning process setting the commissioning mode given.
//  807  *
//  808  * @param       mode - refer to bdbCommissioningMode
//  809  *
//  810  * @return      none
//  811  */

        RSEG BANKED_CODE:HUGECODE:NOROOT(0)
//  812 void bdb_StartCommissioning(uint8 mode)
bdb_StartCommissioning:
          CFI Block cfiBlock66 Using cfiCommon0
          CFI Function bdb_StartCommissioning
        CODE
//  813 {
        FUNCALL bdb_StartCommissioning, osal_get_timeoutEx
        LOCFRAME ISTACK, 0, STACK
        LOCFRAME PSTACK, 0, STACK
        LOCFRAME XSTACK, 32, STACK
        LOCFRAME IOVERLAY, 0, STATIC
        LOCFRAME DOVERLAY, 0, STATIC
        ARGFRAME ISTACK, 0, STACK
        ARGFRAME PSTACK, 0, STACK
        ARGFRAME XSTACK, 32, STACK
        ARGFRAME IOVERLAY, 0, STATIC
        ARGFRAME DOVERLAY, 0, STATIC
        FUNCALL bdb_StartCommissioning, bdb_nwkSteeringDeviceOnNwk
        LOCFRAME ISTACK, 0, STACK
        LOCFRAME PSTACK, 0, STACK
        LOCFRAME XSTACK, 32, STACK
        LOCFRAME IOVERLAY, 0, STATIC
        LOCFRAME DOVERLAY, 0, STATIC
        ARGFRAME ISTACK, 0, STACK
        ARGFRAME PSTACK, 0, STACK
        ARGFRAME XSTACK, 32, STACK
        ARGFRAME IOVERLAY, 0, STATIC
        ARGFRAME DOVERLAY, 0, STATIC
        FUNCALL bdb_StartCommissioning, bdb_reportCommissioningState
        LOCFRAME ISTACK, 0, STACK
        LOCFRAME PSTACK, 0, STACK
        LOCFRAME XSTACK, 32, STACK
        LOCFRAME IOVERLAY, 0, STATIC
        LOCFRAME DOVERLAY, 0, STATIC
        ARGFRAME ISTACK, 0, STACK
        ARGFRAME PSTACK, 0, STACK
        ARGFRAME XSTACK, 32, STACK
        ARGFRAME IOVERLAY, 0, STATIC
        ARGFRAME DOVERLAY, 0, STATIC
        FUNCALL bdb_StartCommissioning, osal_nv_read
        LOCFRAME ISTACK, 0, STACK
        LOCFRAME PSTACK, 0, STACK
        LOCFRAME XSTACK, 36, STACK
        LOCFRAME IOVERLAY, 0, STATIC
        LOCFRAME DOVERLAY, 0, STATIC
        ARGFRAME ISTACK, 0, STACK
        ARGFRAME PSTACK, 0, STACK
        ARGFRAME XSTACK, 36, STACK
        ARGFRAME IOVERLAY, 0, STATIC
        ARGFRAME DOVERLAY, 0, STATIC
        FUNCALL bdb_StartCommissioning, osal_isbufset
        LOCFRAME ISTACK, 0, STACK
        LOCFRAME PSTACK, 0, STACK
        LOCFRAME XSTACK, 32, STACK
        LOCFRAME IOVERLAY, 0, STATIC
        LOCFRAME DOVERLAY, 0, STATIC
        ARGFRAME ISTACK, 0, STACK
        ARGFRAME PSTACK, 0, STACK
        ARGFRAME XSTACK, 32, STACK
        ARGFRAME IOVERLAY, 0, STATIC
        ARGFRAME DOVERLAY, 0, STATIC
        FUNCALL bdb_StartCommissioning, APSME_IsDistributedSecurity
        LOCFRAME ISTACK, 0, STACK
        LOCFRAME PSTACK, 0, STACK
        LOCFRAME XSTACK, 32, STACK
        LOCFRAME IOVERLAY, 0, STATIC
        LOCFRAME DOVERLAY, 0, STATIC
        ARGFRAME ISTACK, 0, STACK
        ARGFRAME PSTACK, 0, STACK
        ARGFRAME XSTACK, 32, STACK
        ARGFRAME IOVERLAY, 0, STATIC
        ARGFRAME DOVERLAY, 0, STATIC
        FUNCALL bdb_StartCommissioning, osal_nv_read
        LOCFRAME ISTACK, 0, STACK
        LOCFRAME PSTACK, 0, STACK
        LOCFRAME XSTACK, 36, STACK
        LOCFRAME IOVERLAY, 0, STATIC
        LOCFRAME DOVERLAY, 0, STATIC
        ARGFRAME ISTACK, 0, STACK
        ARGFRAME PSTACK, 0, STACK
        ARGFRAME XSTACK, 36, STACK
        ARGFRAME IOVERLAY, 0, STATIC
        ARGFRAME DOVERLAY, 0, STATIC
        FUNCALL bdb_StartCommissioning, osal_memset
        LOCFRAME ISTACK, 0, STACK
        LOCFRAME PSTACK, 0, STACK
        LOCFRAME XSTACK, 32, STACK
        LOCFRAME IOVERLAY, 0, STATIC
        LOCFRAME DOVERLAY, 0, STATIC
        ARGFRAME ISTACK, 0, STACK
        ARGFRAME PSTACK, 0, STACK
        ARGFRAME XSTACK, 32, STACK
        ARGFRAME IOVERLAY, 0, STATIC
        ARGFRAME DOVERLAY, 0, STATIC
        FUNCALL bdb_StartCommissioning, osal_nv_write
        LOCFRAME ISTACK, 0, STACK
        LOCFRAME PSTACK, 0, STACK
        LOCFRAME XSTACK, 36, STACK
        LOCFRAME IOVERLAY, 0, STATIC
        LOCFRAME DOVERLAY, 0, STATIC
        ARGFRAME ISTACK, 0, STACK
        ARGFRAME PSTACK, 0, STACK
        ARGFRAME XSTACK, 36, STACK
        ARGFRAME IOVERLAY, 0, STATIC
        ARGFRAME DOVERLAY, 0, STATIC
        FUNCALL bdb_StartCommissioning, osal_nv_write
        LOCFRAME ISTACK, 0, STACK
        LOCFRAME PSTACK, 0, STACK
        LOCFRAME XSTACK, 36, STACK
        LOCFRAME IOVERLAY, 0, STATIC
        LOCFRAME DOVERLAY, 0, STATIC
        ARGFRAME ISTACK, 0, STACK
        ARGFRAME PSTACK, 0, STACK
        ARGFRAME XSTACK, 36, STACK
        ARGFRAME IOVERLAY, 0, STATIC
        ARGFRAME DOVERLAY, 0, STATIC
        FUNCALL bdb_StartCommissioning, zgWriteStartupOptions
        LOCFRAME ISTACK, 0, STACK
        LOCFRAME PSTACK, 0, STACK
        LOCFRAME XSTACK, 32, STACK
        LOCFRAME IOVERLAY, 0, STATIC
        LOCFRAME DOVERLAY, 0, STATIC
        ARGFRAME ISTACK, 0, STACK
        ARGFRAME PSTACK, 0, STACK
        ARGFRAME XSTACK, 32, STACK
        ARGFRAME IOVERLAY, 0, STATIC
        ARGFRAME DOVERLAY, 0, STATIC
        FUNCALL bdb_StartCommissioning, osal_set_event
        LOCFRAME ISTACK, 0, STACK
        LOCFRAME PSTACK, 0, STACK
        LOCFRAME XSTACK, 32, STACK
        LOCFRAME IOVERLAY, 0, STATIC
        LOCFRAME DOVERLAY, 0, STATIC
        ARGFRAME ISTACK, 0, STACK
        ARGFRAME PSTACK, 0, STACK
        ARGFRAME XSTACK, 32, STACK
        ARGFRAME IOVERLAY, 0, STATIC
        ARGFRAME DOVERLAY, 0, STATIC
        FUNCALL bdb_StartCommissioning, ZDOInitDeviceEx
        LOCFRAME ISTACK, 0, STACK
        LOCFRAME PSTACK, 0, STACK
        LOCFRAME XSTACK, 32, STACK
        LOCFRAME IOVERLAY, 0, STATIC
        LOCFRAME DOVERLAY, 0, STATIC
        ARGFRAME ISTACK, 0, STACK
        ARGFRAME PSTACK, 0, STACK
        ARGFRAME XSTACK, 32, STACK
        ARGFRAME IOVERLAY, 0, STATIC
        ARGFRAME DOVERLAY, 0, STATIC
        FUNCALL bdb_StartCommissioning, bdb_setNodeIsOnANetwork
        LOCFRAME ISTACK, 0, STACK
        LOCFRAME PSTACK, 0, STACK
        LOCFRAME XSTACK, 32, STACK
        LOCFRAME IOVERLAY, 0, STATIC
        LOCFRAME DOVERLAY, 0, STATIC
        ARGFRAME ISTACK, 0, STACK
        ARGFRAME PSTACK, 0, STACK
        ARGFRAME XSTACK, 32, STACK
        ARGFRAME IOVERLAY, 0, STATIC
        ARGFRAME DOVERLAY, 0, STATIC
        FUNCALL bdb_StartCommissioning, bdb_reportCommissioningState
        LOCFRAME ISTACK, 0, STACK
        LOCFRAME PSTACK, 0, STACK
        LOCFRAME XSTACK, 32, STACK
        LOCFRAME IOVERLAY, 0, STATIC
        LOCFRAME DOVERLAY, 0, STATIC
        ARGFRAME ISTACK, 0, STACK
        ARGFRAME PSTACK, 0, STACK
        ARGFRAME XSTACK, 32, STACK
        ARGFRAME IOVERLAY, 0, STATIC
        ARGFRAME DOVERLAY, 0, STATIC
        FUNCALL bdb_StartCommissioning, bdb_reportCommissioningState
        LOCFRAME ISTACK, 0, STACK
        LOCFRAME PSTACK, 0, STACK
        LOCFRAME XSTACK, 32, STACK
        LOCFRAME IOVERLAY, 0, STATIC
        LOCFRAME DOVERLAY, 0, STATIC
        ARGFRAME ISTACK, 0, STACK
        ARGFRAME PSTACK, 0, STACK
        ARGFRAME XSTACK, 32, STACK
        ARGFRAME IOVERLAY, 0, STATIC
        ARGFRAME DOVERLAY, 0, STATIC
        FUNCALL bdb_StartCommissioning, osal_set_event
        LOCFRAME ISTACK, 0, STACK
        LOCFRAME PSTACK, 0, STACK
        LOCFRAME XSTACK, 32, STACK
        LOCFRAME IOVERLAY, 0, STATIC
        LOCFRAME DOVERLAY, 0, STATIC
        ARGFRAME ISTACK, 0, STACK
        ARGFRAME PSTACK, 0, STACK
        ARGFRAME XSTACK, 32, STACK
        ARGFRAME IOVERLAY, 0, STATIC
        ARGFRAME DOVERLAY, 0, STATIC
        REQUIRE ?V0
        REQUIRE ?V2
        REQUIRE ?V3
        MOV       A,#-0xc
        LCALL     ?BANKED_ENTER_XDATA
          CFI DPH0 load(1, XDATA, add(CFA_XSP16, literal(-1)))
          CFI DPL0 load(1, XDATA, add(CFA_XSP16, literal(-2)))
          CFI ?BRET_EXT load(1, XDATA, add(CFA_XSP16, literal(-3)))
          CFI ?RET_HIGH load(1, XDATA, add(CFA_XSP16, literal(-4)))
          CFI ?RET_LOW load(1, XDATA, add(CFA_XSP16, literal(-5)))
          CFI R7 load(1, XDATA, add(CFA_XSP16, literal(-6)))
          CFI V3 load(1, XDATA, add(CFA_XSP16, literal(-7)))
          CFI V2 load(1, XDATA, add(CFA_XSP16, literal(-8)))
          CFI V1 load(1, XDATA, add(CFA_XSP16, literal(-9)))
          CFI V0 load(1, XDATA, add(CFA_XSP16, literal(-10)))
          CFI VB load(1, XDATA, add(CFA_XSP16, literal(-11)))
          CFI R6 load(1, XDATA, add(CFA_XSP16, literal(-12)))
          CFI CFA_SP SP+0
          CFI CFA_XSP16 add(XSP16, 12)
        ; Saved register size: 12
        ; Auto size: 20
        MOV       A,#-0x14
        LCALL     ?ALLOC_XSTACK8
          CFI CFA_XSP16 add(XSP16, 32)
        MOV       ?V0,R1
//  814   //Application cannot request to set the device in initialization mode or parent lost
//  815   mode &= ~(BDB_COMMISSIONING_MODE_INITIALIZATION | BDB_COMMISSIONING_MODE_PARENT_LOST);
//  816     
//  817 #ifdef BDB_TL_INITIATOR
//  818   if ( touchlinkFNReset == TRUE )
//  819   {
//  820     return;
//  821   }
//  822 #else
//  823   //Commissioning mode used only for initiator
//  824   mode &= ~BDB_COMMISSIONING_MODE_INITIATOR_TL;
        ANL       ?V0,#0xce
//  825 #endif
//  826   
//  827 #if (BDB_FINDING_BINDING_CAPABILITY_ENABLED==0)    
//  828   //Commissioning mode used only for devices with F&B
//  829   mode &= ~BDB_COMMISSIONING_MODE_FINDING_BINDING;
//  830 #endif
//  831  
//  832   //If we have running process or the machine state is triggered, then just append and it will be excecuted
//  833   if((bdbAttributes.bdbCommissioningMode) || (osal_get_timeoutEx(bdb_TaskID,BDB_CHANGE_COMMISSIONING_STATE)))
        MOV       DPTR,#bdbAttributes + 11
        MOVX      A,@DPTR
        JNZ       ??bdb_StartCommissioning_0
        ; Setup parameters for call to function osal_get_timeoutEx
        MOV       R2,#0x4
        MOV       R3,#0x0
        MOV       DPTR,#bdb_TaskID
        MOVX      A,@DPTR
        MOV       R1,A
        LCALL     `??osal_get_timeoutEx::?relay`; Banked call to: osal_get_timeoutEx
        MOV       A,R2
        ORL       A,R3
        ORL       A,R4
        ORL       A,R5
        JZ        ??bdb_StartCommissioning_1
//  834   {
//  835     
//  836     //If we are on the network and got requested to do nwk steering, we do not need to wait other process, 
//  837     // just send permit joining and report the application
//  838     if((bdbAttributes.bdbNodeIsOnANetwork) && (mode & BDB_COMMISSIONING_MODE_NWK_STEERING))
??bdb_StartCommissioning_0:
        MOV       DPTR,#bdbAttributes + 14
        MOVX      A,@DPTR
        JZ        ??bdb_StartCommissioning_2
        MOV       A,?V0
        MOV       C,0xE0 /* A   */.1
        JNC       ??bdb_StartCommissioning_2
//  839     {
//  840       bdb_nwkSteeringDeviceOnNwk();
        ; Setup parameters for call to function bdb_nwkSteeringDeviceOnNwk
        LCALL     `??bdb_nwkSteeringDeviceOnNwk::?relay`; Banked call to: bdb_nwkSteeringDeviceOnNwk
//  841       bdb_reportCommissioningState(BDB_COMMISSIONING_STATE_STEERING_ON_NWK, TRUE);
        ; Setup parameters for call to function bdb_reportCommissioningState
        MOV       R2,#0x1
        MOV       R1,#0x4
        LCALL     `??bdb_reportCommissioningState::?relay`; Banked call to: bdb_reportCommissioningState
//  842       
//  843       //Clean nwk steering
//  844       mode ^= BDB_COMMISSIONING_MODE_NWK_STEERING; 
        XRL       ?V0,#0x2
//  845     }
//  846     
//  847     //add the remaining valid commissioning modes requested, those will be process when bdb finish its current process
//  848     bdbAttributes.bdbCommissioningMode |= mode & BDB_COMMISSIONING_MODES;
??bdb_StartCommissioning_2:
        MOV       A,#0x3f
        ANL       A,?V0
        MOV       R0,A
        MOV       DPTR,#bdbAttributes + 11
        MOVX      A,@DPTR
        ORL       A,R0
        MOVX      @DPTR,A
//  849     return;      
        LJMP      ??bdb_StartCommissioning_3 & 0xFFFF
//  850   }
//  851 
//  852   //Save the commissioning modes valid requested
//  853   bdbAttributes.bdbCommissioningMode |= mode & BDB_COMMISSIONING_MODES;
??bdb_StartCommissioning_1:
        MOV       A,#0x3f
        ANL       A,?V0
        MOV       R6,A
        MOV       DPTR,#bdbAttributes + 11
        MOVX      A,@DPTR
        ORL       A,R6
        MOVX      @DPTR,A
//  854   
//  855   
//  856   //Start processing the initialization, once per power cycle.
//  857   if(!bdb_initialization)
        MOV       DPTR,#bdb_initialization
        MOVX      A,@DPTR
        JZ        $+5
        LJMP      ??bdb_StartCommissioning_4 & 0xFFFF
//  858   {
//  859     bdb_initialization = TRUE;
        MOV       A,#0x1
        LCALL     ?Subroutine14 & 0xFFFF
//  860     
//  861 #ifdef BDB_REPORTING
//  862     //Delete NV data if startup was with factory reset
//  863     if(ZDO_INITDEV_NEW_NETWORK_STATE == ZDApp_ReadNetworkRestoreState())
//  864     {
//  865       //Factory reset bdb reporting NV data
//  866       uint16 attrRepNvLen = osal_nv_item_len( ZCD_NV_BDBREPORTINGCONFIG );
//  867       if ( attrRepNvLen > 0 )
//  868       {
//  869         osal_nv_delete( ZCD_NV_BDBREPORTINGCONFIG, attrRepNvLen );
//  870       }
//  871     }
//  872 
//  873     //Construct the Endpoint-cluster array
//  874     bdb_RepConstructReportingData();
//  875 #endif //BDB_REPORTING
//  876     
//  877     osal_nv_read(ZCD_NV_BDBNODEISONANETWORK,0,sizeof(bdbAttributes.bdbNodeIsOnANetwork),&bdbAttributes.bdbNodeIsOnANetwork);
??CrossCallReturnLabel_8:
        LCALL     ?PUSH_XSTACK_I_TWO
          CFI CFA_XSP16 add(XSP16, 34)
        MOV       ?V2,#0x1
        MOV       ?V3,#0x0
        MOV       R0,#?V2
        LCALL     ?PUSH_XSTACK_I_TWO
          CFI CFA_XSP16 add(XSP16, 36)
        MOV       R4,#0x0
        MOV       R5,#0x0
        MOV       R2,#0x55
        MOV       R3,#0x0
        LCALL     `??osal_nv_read::?relay`; Banked call to: osal_nv_read
        MOV       A,#0x4
        LCALL     ?DEALLOC_XSTACK8
          CFI CFA_XSP16 add(XSP16, 32)
//  878     
//  879     //Are we on a network
//  880     if(bdbAttributes.bdbNodeIsOnANetwork == TRUE)
        MOV       DPTR,#bdbAttributes + 14
        MOVX      A,@DPTR
        XRL       A,#0x1
        JZ        $+5
        LJMP      ??bdb_StartCommissioning_4 & 0xFFFF
//  881     {
//  882 #ifdef ZG_BUILD_JOINING_TYPE
//  883       //Only for joining devices validate the joining procedure
//  884       if(ZG_DEVICE_JOINING_TYPE)
        MOV       DPTR,#zgDeviceLogicalType
        MOVX      A,@DPTR
        XRL       A,#0x1
        JZ        ??bdb_StartCommissioning_5
        MOVX      A,@DPTR
        XRL       A,#0x2
        JZ        $+5
        LJMP      ??bdb_StartCommissioning_6 & 0xFFFF
//  885       {
//  886         //If we got into a network
//  887         if(!osal_isbufset( AIB_apsTrustCenterAddress, 0x00, Z_EXTADDR_LEN ))
??bdb_StartCommissioning_5:
        ; Setup parameters for call to function osal_isbufset
        MOV       R4,#0x8
        MOV       R1,#0x0
        MOV       DPTR,#AIB_apsTrustCenterAddress
        LCALL     ??Subroutine51_0 & 0xFFFF
??CrossCallReturnLabel_93:
        LCALL     `??osal_isbufset::?relay`; Banked call to: osal_isbufset
        MOV       A,R1
        JZ        $+5
        LJMP      ??bdb_StartCommissioning_6 & 0xFFFF
//  888         {
//  889           //Which is not distributed
//  890           if(!APSME_IsDistributedSecurity())
        ; Setup parameters for call to function APSME_IsDistributedSecurity
        LCALL     `??APSME_IsDistributedSecurity::?relay`; Banked call to: APSME_IsDistributedSecurity
        MOV       A,R1
        JZ        $+5
        LJMP      ??bdb_StartCommissioning_6 & 0xFFFF
//  891           {
//  892             uint8 keyAttributes;
//  893             osal_nv_read(ZCD_NV_TCLK_TABLE_START, osal_offsetof(APSME_TCLKDevEntry_t,keyAttributes), sizeof(uint8), &keyAttributes);
        ; Setup parameters for call to function osal_nv_read
        MOV       R0,?XSP + 0
        MOV       R1,?XSP + 1
        MOV       ?V2,R0
        MOV       ?V3,R1
        MOV       R0,#?V2
        LCALL     ?PUSH_XSTACK_I_TWO
          CFI CFA_XSP16 add(XSP16, 34)
        MOV       ?V2,#0x1
        MOV       ?V3,#0x0
        MOV       R0,#?V2
        LCALL     ?PUSH_XSTACK_I_TWO
          CFI CFA_XSP16 add(XSP16, 36)
        MOV       R4,#0x10
        MOV       R5,#0x0
        MOV       R2,#0x11
        MOV       R3,#0x1
        LCALL     `??osal_nv_read::?relay`; Banked call to: osal_nv_read
        MOV       A,#0x4
        LCALL     ?DEALLOC_XSTACK8
          CFI CFA_XSP16 add(XSP16, 32)
//  894             //If we must perform the TCLK exchange and we didn't complete it, then reset to FN
//  895             if(requestNewTrustCenterLinkKey && (keyAttributes != ZG_NON_R21_NWK_JOINED) && (keyAttributes != ZG_VERIFIED_KEY))
        MOV       DPTR,#requestNewTrustCenterLinkKey
        MOVX      A,@DPTR
        JNZ       $+5
        LJMP      ??bdb_StartCommissioning_6 & 0xFFFF
        MOV       DPL,?XSP + 0
        MOV       DPH,?XSP + 1
        MOVX      A,@DPTR
        XRL       A,#0xfd
        JZ        ??bdb_StartCommissioning_6
        MOVX      A,@DPTR
        XRL       A,#0x2
        JZ        ??bdb_StartCommissioning_6
//  896             {
//  897               //Force to initialize the entry
//  898               APSME_TCLKDevEntry_t APSME_TCLKDevEntry;
//  899               
//  900               osal_memset(&APSME_TCLKDevEntry,0,sizeof(APSME_TCLKDevEntry_t));
        ; Setup parameters for call to function osal_memset
        MOV       R4,#0x13
        MOV       R5,#0x0
        MOV       R1,#0x0
        MOV       A,#0x1
        LCALL     ?XSTACK_DISP101_8
        LCALL     `??osal_memset::?relay`; Banked call to: osal_memset
//  901               APSME_TCLKDevEntry.keyAttributes = ZG_DEFAULT_KEY;
        MOV       A,#0x11
        LCALL     ?XSTACK_DISP0_8
        MOV       A,#-0x1
        MOVX      @DPTR,A
//  902               osal_nv_write(ZCD_NV_TCLK_TABLE_START, 0, sizeof(APSME_TCLKDevEntry_t), &APSME_TCLKDevEntry);
        ; Setup parameters for call to function osal_nv_write
        MOV       A,#0x1
        LCALL     ?XSTACK_DISP100_8
        MOV       ?V2,R0
        MOV       ?V3,R1
        MOV       R0,#?V2
        LCALL     ?PUSH_XSTACK_I_TWO
          CFI CFA_XSP16 add(XSP16, 34)
        MOV       ?V2,#0x13
        MOV       ?V3,#0x0
        MOV       R0,#?V2
        LCALL     ?PUSH_XSTACK_I_TWO
          CFI CFA_XSP16 add(XSP16, 36)
        MOV       R4,#0x0
        MOV       R5,#0x0
        MOV       R2,#0x11
        MOV       R3,#0x1
        LCALL     `??osal_nv_write::?relay`; Banked call to: osal_nv_write
        MOV       A,#0x4
        LCALL     ?DEALLOC_XSTACK8
          CFI CFA_XSP16 add(XSP16, 32)
//  903               TCLinkKeyFrmCntr[0].txFrmCntr = 0;
        MOV       DPTR,#TCLinkKeyFrmCntr
        LCALL     ?Subroutine10 & 0xFFFF
//  904               TCLinkKeyFrmCntr[0].rxFrmCntr = 0;
??CrossCallReturnLabel_48:
        INC       DPTR
        LCALL     ??Subroutine38_0 & 0xFFFF
//  905               
//  906               
//  907               //reset the device parameters to FN
//  908               bdbAttributes.bdbNodeIsOnANetwork = FALSE;
??CrossCallReturnLabel_46:
        MOV       DPTR,#bdbAttributes + 14
        LCALL     ?Subroutine14 & 0xFFFF
//  909               osal_nv_write(ZCD_NV_BDBNODEISONANETWORK,0,sizeof(bdbAttributes.bdbNodeIsOnANetwork),&bdbAttributes.bdbNodeIsOnANetwork);
??CrossCallReturnLabel_9:
        LCALL     ?PUSH_XSTACK_I_TWO
          CFI CFA_XSP16 add(XSP16, 34)
        MOV       ?V2,#0x1
        MOV       ?V3,#0x0
        MOV       R0,#?V2
        LCALL     ?PUSH_XSTACK_I_TWO
          CFI CFA_XSP16 add(XSP16, 36)
        MOV       R4,#0x0
        MOV       R5,#0x0
        MOV       R2,#0x55
        MOV       R3,#0x0
        LCALL     `??osal_nv_write::?relay`; Banked call to: osal_nv_write
        MOV       A,#0x4
        LCALL     ?DEALLOC_XSTACK8
          CFI CFA_XSP16 add(XSP16, 32)
//  910               zgWriteStartupOptions(ZG_STARTUP_SET, ZCD_STARTOPT_DEFAULT_CONFIG_STATE | ZCD_STARTOPT_DEFAULT_NETWORK_STATE);
        ; Setup parameters for call to function zgWriteStartupOptions
        MOV       R2,#0x3
        MOV       R1,#-0x1
        LCALL     `??zgWriteStartupOptions::?relay`; Banked call to: zgWriteStartupOptions
//  911               
//  912               //Then start the commissioning process requested
//  913               bdbCommissioningProcedureState.bdbCommissioningState = BDB_COMMISSIONING_STATE_START_RESUME;
        SJMP      ??bdb_StartCommissioning_7
//  914               osal_set_event( bdb_TaskID, BDB_CHANGE_COMMISSIONING_STATE );
//  915               return;
//  916             }
//  917           }
//  918         }
//  919       }
//  920 #endif //ZG_BUILD_JOINING_TYPE
//  921       
//  922       //Set the initialization
//  923       bdbAttributes.bdbCommissioningMode |= BDB_COMMISSIONING_MODE_INITIALIZATION;
//  924       bdbCommissioningProcedureState.bdbCommissioningState = BDB_INITIALIZATION;
??bdb_StartCommissioning_6:
        MOV       DPTR,#bdbCommissioningProcedureState
        MOV       A,#0x7
        MOVX      @DPTR,A
//  925       bdbAttributes.bdbCommissioningMode |= mode & BDB_COMMISSIONING_MODES;
        MOV       A,#0x10
        ORL       A,R6
        MOV       R0,A
        MOV       DPTR,#bdbAttributes + 11
        MOVX      A,@DPTR
        ORL       A,R0
        MOVX      @DPTR,A
//  926       
//  927       if(ZDOInitDevice(0) == ZDO_INITDEV_RESTORED_NETWORK_STATE)
        ; Setup parameters for call to function ZDOInitDeviceEx
        MOV       R1,#0x0
        MOV       R2,#0x0
        MOV       R3,#0x0
        LCALL     `??ZDOInitDeviceEx::?relay`; Banked call to: ZDOInitDeviceEx
        MOV       A,R1
        JZ        ??bdb_StartCommissioning_3
//  928       {
//  929 #ifdef BDB_REPORTING
//  930         //Mark the clusterEndpoint entries that have binding, starts reporting if at least one entry was marked
//  931         bdb_RepUpdateMarkBindings();
//  932 #endif
//  933         return;
//  934       }
//  935       bdb_setNodeIsOnANetwork(FALSE);  
        ; Setup parameters for call to function bdb_setNodeIsOnANetwork
        MOV       R1,#0x0
        LCALL     `??bdb_setNodeIsOnANetwork::?relay`; Banked call to: bdb_setNodeIsOnANetwork
//  936       //Not in the network
//  937       bdb_reportCommissioningState(BDB_INITIALIZATION,FALSE);
        ; Setup parameters for call to function bdb_reportCommissioningState
        MOV       R2,#0x0
        MOV       R1,#0x7
        SJMP      ??bdb_StartCommissioning_8
//  938       return;
//  939     }
//  940   }
//  941 
//  942   //Got requested only to initialize, if so, report that it failed
//  943   if(bdbAttributes.bdbCommissioningMode == 0)
??bdb_StartCommissioning_4:
        MOV       DPTR,#bdbAttributes + 11
        MOVX      A,@DPTR
        JNZ       ??bdb_StartCommissioning_7
//  944   {
//  945     //Set the initialization state and report it to fail
//  946     bdbCommissioningProcedureState.bdbCommissioningState = BDB_INITIALIZATION;
        MOV       DPTR,#bdbCommissioningProcedureState
        MOV       A,#0x7
        MOVX      @DPTR,A
//  947     bdb_reportCommissioningState(BDB_INITIALIZATION,FALSE);
        ; Setup parameters for call to function bdb_reportCommissioningState
        MOV       R2,#0x0
        MOV       R1,A
??bdb_StartCommissioning_8:
        LCALL     `??bdb_reportCommissioningState::?relay`; Banked call to: bdb_reportCommissioningState
//  948     return;
        SJMP      ??bdb_StartCommissioning_3
//  949   }
//  950 
//  951   
//  952   //Start the commissioning process
//  953   bdbCommissioningProcedureState.bdbCommissioningState = BDB_COMMISSIONING_STATE_START_RESUME;
??bdb_StartCommissioning_7:
        MOV       DPTR,#bdbCommissioningProcedureState
        CLR       A
        MOVX      @DPTR,A
//  954   osal_set_event( bdb_TaskID, BDB_CHANGE_COMMISSIONING_STATE );
        ; Setup parameters for call to function osal_set_event
        MOV       R2,#0x4
        MOV       R3,A
        MOV       DPTR,#bdb_TaskID
        MOVX      A,@DPTR
        MOV       R1,A
        LCALL     `??osal_set_event::?relay`; Banked call to: osal_set_event
//  955 }
??bdb_StartCommissioning_3:
        MOV       A,#0x14
        LJMP      ??Subroutine42_0 & 0xFFFF
          CFI EndBlock cfiBlock66

        RSEG BANKED_CODE:HUGECODE:NOROOT(0)
?Subroutine14:
          CFI Block cfiCond67 Using cfiCommon0
          CFI Function bdb_StartCommissioning
          CFI Conditional ??CrossCallReturnLabel_8
          CFI R6 load(1, XDATA, add(CFA_XSP16, literal(-12)))
          CFI VB load(1, XDATA, add(CFA_XSP16, literal(-11)))
          CFI V0 load(1, XDATA, add(CFA_XSP16, literal(-10)))
          CFI V1 load(1, XDATA, add(CFA_XSP16, literal(-9)))
          CFI V2 load(1, XDATA, add(CFA_XSP16, literal(-8)))
          CFI V3 load(1, XDATA, add(CFA_XSP16, literal(-7)))
          CFI R7 load(1, XDATA, add(CFA_XSP16, literal(-6)))
          CFI ?RET_LOW load(1, XDATA, add(CFA_XSP16, literal(-5)))
          CFI ?RET_HIGH load(1, XDATA, add(CFA_XSP16, literal(-4)))
          CFI ?BRET_EXT load(1, XDATA, add(CFA_XSP16, literal(-3)))
          CFI DPL0 load(1, XDATA, add(CFA_XSP16, literal(-2)))
          CFI DPH0 load(1, XDATA, add(CFA_XSP16, literal(-1)))
          CFI CFA_SP SP+-2
          CFI CFA_XSP16 add(XSP16, 32)
          CFI Block cfiCond68 Using cfiCommon0
          CFI (cfiCond68) Function bdb_StartCommissioning
          CFI (cfiCond68) Conditional ??CrossCallReturnLabel_9
          CFI (cfiCond68) R6 load(1, XDATA, add(CFA_XSP16, literal(-12)))
          CFI (cfiCond68) VB load(1, XDATA, add(CFA_XSP16, literal(-11)))
          CFI (cfiCond68) V0 load(1, XDATA, add(CFA_XSP16, literal(-10)))
          CFI (cfiCond68) V1 load(1, XDATA, add(CFA_XSP16, literal(-9)))
          CFI (cfiCond68) V2 load(1, XDATA, add(CFA_XSP16, literal(-8)))
          CFI (cfiCond68) V3 load(1, XDATA, add(CFA_XSP16, literal(-7)))
          CFI (cfiCond68) R7 load(1, XDATA, add(CFA_XSP16, literal(-6)))
          CFI (cfiCond68) ?RET_LOW load(1, XDATA, add(CFA_XSP16, literal(-5)))
          CFI (cfiCond68) ?RET_HIGH load(1, XDATA, add(CFA_XSP16, literal(-4)))
          CFI (cfiCond68) ?BRET_EXT load(1, XDATA, add(CFA_XSP16, literal(-3)))
          CFI (cfiCond68) DPL0 load(1, XDATA, add(CFA_XSP16, literal(-2)))
          CFI (cfiCond68) DPH0 load(1, XDATA, add(CFA_XSP16, literal(-1)))
          CFI (cfiCond68) CFA_SP SP+-2
          CFI (cfiCond68) CFA_XSP16 add(XSP16, 32)
          CFI Block cfiPicker69 Using cfiCommon1
          CFI (cfiPicker69) NoFunction
          CFI (cfiPicker69) Picker
        MOVX      @DPTR,A
        ; Setup parameters for call to function osal_nv_read
        ; Setup parameters for call to function osal_nv_write
        MOV       ?V2,#(bdbAttributes + 14) & 0xff
        MOV       ?V3,#((bdbAttributes + 14) >> 8) & 0xff
        MOV       R0,#?V2
        RET
          CFI EndBlock cfiCond67
          CFI EndBlock cfiCond68
