///////////////////////////////////////////////////////////////////////////////
//
// IAR C/C++ Compiler V10.10.1.4655 for 8051              22/Nov/2023  15:42:40
// Copyright 2004-2017 IAR Systems AB.
// Standalone license - IAR Embedded Workbench for 8051
//
//    Core               =  plain
//    Code model         =  banked
//    Data model         =  large
//    Calling convention =  xdata reentrant
//    Constant location  =  data_rom
//    Dptr setup         =  1,16
//                          
//    Source file        =  
//        D:\fuzzing-coordinator-response-collection\Components\stack\bdb\bdb_FindingAndBinding.c
//    Command line       =  
//        -f C:\Users\ADMINI~1\AppData\Local\Temp\EW98AD.tmp
//        (D:\fuzzing-coordinator-response-collection\Components\stack\bdb\bdb_FindingAndBinding.c
//        -D SECURE=1 -D TC_LINKKEY_JOIN -D NV_INIT -D NV_RESTORE -D
//        MULTICAST_ENABLED=FALSE -D ZCL_READ -D ZCL_DISCOVER -D ZCL_WRITE -D
//        ZCL_BASIC -D ZCL_IDENTIFY -D ISR_KEYINTERRUPT -D HAL_UART=TRUE -D
//        HAL_LCD=FALSE -D ZCL_ON_OFF -D INT_HEAP_LEN=2800 -D
//        HAL_UART_DMA_RX_MAX=256 -D HAL_UART_DMA_TX_MAX=256 -lC
//        D:\fuzzing-coordinator-response-collection\Projects\zstack\HomeAutomation\SampleSwitch\CC2530DB\CoordinatorEB\List
//        -lA
//        D:\fuzzing-coordinator-response-collection\Projects\zstack\HomeAutomation\SampleSwitch\CC2530DB\CoordinatorEB\List
//        --diag_suppress Pe001,Pa010 -o
//        D:\fuzzing-coordinator-response-collection\Projects\zstack\HomeAutomation\SampleSwitch\CC2530DB\CoordinatorEB\Obj
//        -e --debug --core=plain --dptr=16,1 --data_model=large
//        --code_model=banked --calling_convention=xdata_reentrant
//        --place_constants=data_rom --nr_virtual_regs 8 -f
//        D:\fuzzing-coordinator-response-collection\Projects\zstack\HomeAutomation\SampleSwitch\CC2530DB\..\..\..\Tools\CC2530DB\f8wCoord.cfg
//        (-DCPU32MHZ -DROOT=__near_func -DMAC_CFG_APP_PENDING_QUEUE=TRUE
//        -DMAC_CFG_TX_DATA_MAX=5 -DMAC_CFG_TX_MAX=8 -DMAC_CFG_RX_MAX=5
//        -DZDO_COORDINATOR -DRTR_NWK) -f
//        D:\fuzzing-coordinator-response-collection\Projects\zstack\HomeAutomation\SampleSwitch\CC2530DB\..\..\..\Tools\CC2530DB\f8wConfig.cfg
//        (-DZIGBEEPRO -DSECURE=1 -DZG_SECURE_DYNAMIC=0 -DREFLECTOR
//        -DDEFAULT_CHANLIST=0x00000800 -DZDAPP_CONFIG_PAN_ID=0xFFFF
//        -DNWK_START_DELAY=100 -DEXTENDED_JOINING_RANDOM_MASK=0x007F
//        -DBEACON_REQUEST_DELAY=100 -DBEACON_REQ_DELAY_MASK=0x00FF
//        -DLINK_STATUS_JITTER_MASK=0x007F -DROUTE_EXPIRY_TIME=30
//        -DAPSC_ACK_WAIT_DURATION_POLLED=3000 -DNWK_INDIRECT_MSG_TIMEOUT=7
//        -DMAX_RREQ_ENTRIES=8 -DAPSC_MAX_FRAME_RETRIES=3
//        -DNWK_MAX_DATA_RETRIES=2 -DMAX_POLL_FAILURE_RETRIES=2 -DMAX_BCAST=9
//        -DAPS_MAX_GROUPS=16 -DMAX_RTG_ENTRIES=40 -DNWK_MAX_BINDING_ENTRIES=4
//        -DMAX_BINDING_CLUSTER_IDS=4 "-DDEFAULT_KEY={0x00, 0x01, 0x02, 0x03,
//        0x04, 0x05, 0x06, 0x07, 0x08, 0x09, 0x0A, 0x0B, 0x0C, 0x0D, 0x0E,
//        0x0F}" -DMAC_MAX_FRAME_SIZE=116 -DZDNWKMGR_MIN_TRANSMISSIONS=20
//        "-DCONST=const __code" -DGENERIC=__generic -DRFD_RCVC_ALWAYS_ON=FALSE
//        -DPOLL_RATE=1000 -DQUEUED_POLL_RATE=100 -DRESPONSE_POLL_RATE=100
//        -DREJOIN_POLL_RATE=440 -DREJOIN_BACKOFF=900000 -DREJOIN_SCAN=900000
//        -DENABLE_LED4_DISABLE_S1) -f
//        D:\fuzzing-coordinator-response-collection\Projects\zstack\HomeAutomation\SampleSwitch\CC2530DB\..\..\..\Tools\CC2530DB\f8wZCL.cfg
//        -I
//        D:\fuzzing-coordinator-response-collection\Projects\zstack\HomeAutomation\SampleSwitch\CC2530DB\
//        -I
//        D:\fuzzing-coordinator-response-collection\Projects\zstack\HomeAutomation\SampleSwitch\CC2530DB\..\Source\
//        -I
//        D:\fuzzing-coordinator-response-collection\Projects\zstack\HomeAutomation\SampleSwitch\CC2530DB\..\..\Source\
//        -I
//        D:\fuzzing-coordinator-response-collection\Projects\zstack\HomeAutomation\SampleSwitch\CC2530DB\..\..\..\ZMain\TI2530DB\
//        -I
//        D:\fuzzing-coordinator-response-collection\Projects\zstack\HomeAutomation\SampleSwitch\CC2530DB\..\..\..\..\..\Components\hal\include\
//        -I
//        D:\fuzzing-coordinator-response-collection\Projects\zstack\HomeAutomation\SampleSwitch\CC2530DB\..\..\..\..\..\Components\hal\target\CC2530EB\
//        -I
//        D:\fuzzing-coordinator-response-collection\Projects\zstack\HomeAutomation\SampleSwitch\CC2530DB\..\..\..\..\..\Components\mac\include\
//        -I
//        D:\fuzzing-coordinator-response-collection\Projects\zstack\HomeAutomation\SampleSwitch\CC2530DB\..\..\..\..\..\Components\mac\high_level\
//        -I
//        D:\fuzzing-coordinator-response-collection\Projects\zstack\HomeAutomation\SampleSwitch\CC2530DB\..\..\..\..\..\Components\mac\low_level\srf04\
//        -I
//        D:\fuzzing-coordinator-response-collection\Projects\zstack\HomeAutomation\SampleSwitch\CC2530DB\..\..\..\..\..\Components\mac\low_level\srf04\single_chip\
//        -I
//        D:\fuzzing-coordinator-response-collection\Projects\zstack\HomeAutomation\SampleSwitch\CC2530DB\..\..\..\..\..\Components\mt\
//        -I
//        D:\fuzzing-coordinator-response-collection\Projects\zstack\HomeAutomation\SampleSwitch\CC2530DB\..\..\..\..\..\Components\osal\include\
//        -I
//        D:\fuzzing-coordinator-response-collection\Projects\zstack\HomeAutomation\SampleSwitch\CC2530DB\..\..\..\..\..\Components\services\saddr\
//        -I
//        D:\fuzzing-coordinator-response-collection\Projects\zstack\HomeAutomation\SampleSwitch\CC2530DB\..\..\..\..\..\Components\services\sdata\
//        -I
//        D:\fuzzing-coordinator-response-collection\Projects\zstack\HomeAutomation\SampleSwitch\CC2530DB\..\..\..\..\..\Components\stack\af\
//        -I
//        D:\fuzzing-coordinator-response-collection\Projects\zstack\HomeAutomation\SampleSwitch\CC2530DB\..\..\..\..\..\Components\stack\bdb\
//        -I
//        D:\fuzzing-coordinator-response-collection\Projects\zstack\HomeAutomation\SampleSwitch\CC2530DB\..\..\..\..\..\Components\stack\gp\
//        -I
//        D:\fuzzing-coordinator-response-collection\Projects\zstack\HomeAutomation\SampleSwitch\CC2530DB\..\..\..\..\..\Components\stack\nwk\
//        -I
//        D:\fuzzing-coordinator-response-collection\Projects\zstack\HomeAutomation\SampleSwitch\CC2530DB\..\..\..\..\..\Components\stack\sapi\
//        -I
//        D:\fuzzing-coordinator-response-collection\Projects\zstack\HomeAutomation\SampleSwitch\CC2530DB\..\..\..\..\..\Components\stack\sec\
//        -I
//        D:\fuzzing-coordinator-response-collection\Projects\zstack\HomeAutomation\SampleSwitch\CC2530DB\..\..\..\..\..\Components\stack\sys\
//        -I
//        D:\fuzzing-coordinator-response-collection\Projects\zstack\HomeAutomation\SampleSwitch\CC2530DB\..\..\..\..\..\Components\stack\zcl\
//        -I
//        D:\fuzzing-coordinator-response-collection\Projects\zstack\HomeAutomation\SampleSwitch\CC2530DB\..\..\..\..\..\Components\stack\zdo\
//        -I
//        D:\fuzzing-coordinator-response-collection\Projects\zstack\HomeAutomation\SampleSwitch\CC2530DB\..\..\..\..\..\Components\zmac\
//        -I
//        D:\fuzzing-coordinator-response-collection\Projects\zstack\HomeAutomation\SampleSwitch\CC2530DB\..\..\..\..\..\Components\zmac\f8w\
//        -I
//        D:\fuzzing-coordinator-response-collection\Projects\zstack\HomeAutomation\SampleSwitch\CC2530DB\..\..\..\..\..\Components\hal\target\CC2530EB\Common\
//        -I
//        D:\fuzzing-coordinator-response-collection\Projects\zstack\HomeAutomation\SampleSwitch\CC2530DB\..\..\..\..\..\Components\hal\target\CC2530EB\SPI\
//        -I
//        D:\fuzzing-coordinator-response-collection\Projects\zstack\HomeAutomation\SampleSwitch\CC2530DB\..\..\..\..\..\Components\hal\target\CC2530EB\HW_LCD\Font\
//        -I
//        D:\fuzzing-coordinator-response-collection\Projects\zstack\HomeAutomation\SampleSwitch\CC2530DB\..\..\..\..\..\Components\hal\target\CC2530EB\HW_LCD\HAL_LCD_SPI\
//        -I
//        D:\fuzzing-coordinator-response-collection\Projects\zstack\HomeAutomation\SampleSwitch\CC2530DB\..\..\..\..\..\Components\hal\target\CC2530EB\HW_LCD\HAL_OLED\
//        -I
//        D:\fuzzing-coordinator-response-collection\Projects\zstack\HomeAutomation\SampleSwitch\CC2530DB\..\..\..\..\..\Components\hal\target\CC2530EB\HW_LCD\HAL_TFT\
//        -Ohz --require_prototypes)
//    Locale             =  Chinese (Simplified)_China.936
//    List file          =  
//        D:\fuzzing-coordinator-response-collection\Projects\zstack\HomeAutomation\SampleSwitch\CC2530DB\CoordinatorEB\List\bdb_FindingAndBinding.s51
//
///////////////////////////////////////////////////////////////////////////////

        NAME bdb_FindingAndBinding

        RTMODEL "__SystemLibrary", "CLib"
        RTMODEL "__calling_convention", "xdata_reentrant"
        RTMODEL "__code_model", "banked"
        RTMODEL "__core", "plain"
        RTMODEL "__data_model", "large"
        RTMODEL "__dptr_size", "16"
        RTMODEL "__extended_stack", "disabled"
        RTMODEL "__location_for_constants", "data"
        RTMODEL "__number_of_dptrs", "1"
        RTMODEL "__register_banks", "*"
        RTMODEL "__rt_version", "1"

        RSEG DOVERLAY:DATA:NOROOT(0)
        RSEG IOVERLAY:IDATA:NOROOT(0)
        RSEG ISTACK:IDATA:NOROOT(0)
        RSEG PSTACK:XDATA:NOROOT(0)
        RSEG XSTACK:XDATA:NOROOT(0)

        EXTERN ?V0
        EXTERN ?V1
        EXTERN ?V2
        EXTERN ?V3
        EXTERN ?V4
        EXTERN ?V5
        EXTERN ?V6
        EXTERN ?V7
        EXTERN ?ALLOC_XSTACK8
        EXTERN ?BANKED_ENTER_XDATA
        EXTERN ?BANKED_LEAVE_XDATA
        EXTERN ?BDISPATCH
        EXTERN ?BRET
        EXTERN ?CALL_IND
        EXTERN ?DEALLOC_XSTACK8
        EXTERN ?L_ADD_X
        EXTERN ?L_MOV_X
        EXTERN ?MOVE_LONG8_XDATA_XDATA
        EXTERN ?PUSH_XSTACK8_X_FOUR
        EXTERN ?PUSH_XSTACK8_X_TWO
        EXTERN ?PUSH_XSTACK_I_ONE
        EXTERN ?PUSH_XSTACK_I_TWO
        EXTERN ?UL_DIV_MOD
        EXTERN ?XSP
        EXTERN ?XSTACK_DISP0_8
        EXTERN ?XSTACK_DISP100_8
        EXTERN ?XSTACK_DISP101_8
        EXTERN ?XSTACK_DISP102_8
        EXTERN __INIT_XDATA_I
        EXTERN __INIT_XDATA_Z

        PUBLIC `??bdb_FindIfAppCluster::?relay`
        FUNCTION `??bdb_FindIfAppCluster::?relay`,0203H
        PUBLIC `??bdb_GetFBInitiatorStatus::?relay`
        FUNCTION `??bdb_GetFBInitiatorStatus::?relay`,0203H
        PUBLIC `??bdb_ProcessIEEEAddrRsp::?relay`
        FUNCTION `??bdb_ProcessIEEEAddrRsp::?relay`,0203H
        PUBLIC `??bdb_ProcessRespondentList::?relay`
        FUNCTION `??bdb_ProcessRespondentList::?relay`,0203H
        PUBLIC `??bdb_ProcessSimpleDesc::?relay`
        FUNCTION `??bdb_ProcessSimpleDesc::?relay`,0203H
        PUBLIC `??bdb_RegisterBindNotificationCB::?relay`
        FUNCTION `??bdb_RegisterBindNotificationCB::?relay`,0203H
        PUBLIC `??bdb_RegisterIdentifyTimeChangeCB::?relay`
        FUNCTION `??bdb_RegisterIdentifyTimeChangeCB::?relay`,0203H
        PUBLIC `??bdb_SendIdentifyQuery::?relay`
        FUNCTION `??bdb_SendIdentifyQuery::?relay`,0203H
        PUBLIC `??bdb_SendIdentifyQueryWithAddr::?relay`
        FUNCTION `??bdb_SendIdentifyQueryWithAddr::?relay`,0203H
        PUBLIC `??bdb_SetIdentifyActiveEndpoint::?relay`
        FUNCTION `??bdb_SetIdentifyActiveEndpoint::?relay`,0203H
        PUBLIC `??bdb_StopInitiatorFindingBinding::?relay`
        FUNCTION `??bdb_StopInitiatorFindingBinding::?relay`,0203H
        PUBLIC `??bdb_ZclIdentifyQueryCmdInd::?relay`
        FUNCTION `??bdb_ZclIdentifyQueryCmdInd::?relay`,0203H
        PUBLIC `??bdb_checkMatchingEndpoints::?relay`
        FUNCTION `??bdb_checkMatchingEndpoints::?relay`,0203H
        PUBLIC `??bdb_exitFindingBindingWStatus::?relay`
        FUNCTION `??bdb_exitFindingBindingWStatus::?relay`,0203H
        PUBLIC `??bdb_findRespondentNode::?relay`
        FUNCTION `??bdb_findRespondentNode::?relay`,0203H
        PUBLIC `??bdb_getRespondentRetry::?relay`
        FUNCTION `??bdb_getRespondentRetry::?relay`,0203H
        PUBLIC `??bdb_setEpDescListToActiveEndpoint::?relay`
        FUNCTION `??bdb_setEpDescListToActiveEndpoint::?relay`,0203H
        FUNCTION `??bdb_zclFindingBindingAddBindEntry::?relay`,0203H
        PUBLIC `??bdb_zclFindingBindingEpType::?relay`
        FUNCTION `??bdb_zclFindingBindingEpType::?relay`,0203H
        FUNCTION `??bdb_zclSimpleDescClusterListClean::?relay`,0203H
        PUBWEAK __Constant_1388
        PUBWEAK __Constant_3e7
        PUBWEAK __Constant_3e8
        PUBLIC bdbIndentifyActiveEndpoint
        PUBLIC bdb_FindIfAppCluster
        FUNCTION bdb_FindIfAppCluster,0203H
        ARGFRAME XSTACK, 14, STACK
        ARGFRAME IOVERLAY, 0, STATIC
        ARGFRAME DOVERLAY, 0, STATIC
        LOCFRAME ISTACK, 2, STACK
        PUBLIC bdb_FindingBindingTargetSimpleDesc
        PUBLIC bdb_GetFBInitiatorStatus
        FUNCTION bdb_GetFBInitiatorStatus,0a1203H
        ARGFRAME XSTACK, 0, STACK
        LOCFRAME ISTACK, 1, STACK
        LOCFRAME XSTACK, 18, STACK
        PUBLIC bdb_ProcessIEEEAddrRsp
        FUNCTION bdb_ProcessIEEEAddrRsp,0a1203H
        ARGFRAME XSTACK, 0, STACK
        LOCFRAME XSTACK, 25, STACK
        PUBLIC bdb_ProcessRespondentList
        FUNCTION bdb_ProcessRespondentList,0a1203H
        ARGFRAME XSTACK, 0, STACK
        LOCFRAME ISTACK, 1, STACK
        LOCFRAME XSTACK, 22, STACK
        PUBLIC bdb_ProcessSimpleDesc
        FUNCTION bdb_ProcessSimpleDesc,0a1203H
        ARGFRAME XSTACK, 0, STACK
        LOCFRAME XSTACK, 28, STACK
        PUBLIC bdb_RegisterBindNotificationCB
        FUNCTION bdb_RegisterBindNotificationCB,0203H
        ARGFRAME XSTACK, 0, STACK
        LOCFRAME ISTACK, 2, STACK
        PUBLIC bdb_RegisterIdentifyTimeChangeCB
        FUNCTION bdb_RegisterIdentifyTimeChangeCB,0203H
        ARGFRAME XSTACK, 0, STACK
        LOCFRAME ISTACK, 2, STACK
        PUBLIC bdb_SendIdentifyQuery
        FUNCTION bdb_SendIdentifyQuery,0a1203H
        ARGFRAME XSTACK, 0, STACK
        LOCFRAME XSTACK, 33, STACK
        PUBLIC bdb_SendIdentifyQueryWithAddr
        FUNCTION bdb_SendIdentifyQueryWithAddr,0a1203H
        ARGFRAME XSTACK, 0, STACK
        LOCFRAME ISTACK, 1, STACK
        LOCFRAME XSTACK, 33, STACK
        PUBLIC bdb_SetIdentifyActiveEndpoint
        FUNCTION bdb_SetIdentifyActiveEndpoint,0203H
        ARGFRAME XSTACK, 0, STACK
        LOCFRAME ISTACK, 2, STACK
        PUBLIC bdb_StopInitiatorFindingBinding
        FUNCTION bdb_StopInitiatorFindingBinding,021203H
        ARGFRAME XSTACK, 0, STACK
        LOCFRAME ISTACK, 2, STACK
        PUBLIC bdb_ZclIdentifyQueryCmdInd
        FUNCTION bdb_ZclIdentifyQueryCmdInd,0a1203H
        ARGFRAME XSTACK, 0, STACK
        LOCFRAME ISTACK, 1, STACK
        LOCFRAME XSTACK, 10, STACK
        PUBLIC bdb_ZclType1Clusters
        PUBLIC bdb_ZclType2Clusters
        PUBLIC bdb_checkMatchingEndpoints
        FUNCTION bdb_checkMatchingEndpoints,0a1203H
        ARGFRAME XSTACK, 28, STACK
        ARGFRAME IOVERLAY, 0, STATIC
        ARGFRAME DOVERLAY, 0, STATIC
        LOCFRAME XSTACK, 34, STACK
        PUBLIC bdb_exitFindingBindingWStatus
        FUNCTION bdb_exitFindingBindingWStatus,021203H
        ARGFRAME XSTACK, 29, STACK
        ARGFRAME IOVERLAY, 0, STATIC
        ARGFRAME DOVERLAY, 0, STATIC
        LOCFRAME XSTACK, 9, STACK
        PUBLIC bdb_findRespondentNode
        FUNCTION bdb_findRespondentNode,0203H
        ARGFRAME XSTACK, 28, STACK
        ARGFRAME IOVERLAY, 0, STATIC
        ARGFRAME DOVERLAY, 0, STATIC
        LOCFRAME ISTACK, 2, STACK
        PUBLIC bdb_getRespondentRetry
        FUNCTION bdb_getRespondentRetry,0203H
        ARGFRAME XSTACK, 18, STACK
        ARGFRAME IOVERLAY, 0, STATIC
        ARGFRAME DOVERLAY, 0, STATIC
        LOCFRAME ISTACK, 2, STACK
        PUBLIC bdb_setEpDescListToActiveEndpoint
        FUNCTION bdb_setEpDescListToActiveEndpoint,0203H
        ARGFRAME XSTACK, 28, STACK
        ARGFRAME IOVERLAY, 0, STATIC
        ARGFRAME DOVERLAY, 0, STATIC
        LOCFRAME ISTACK, 2, STACK
        FUNCTION bdb_zclFindingBindingAddBindEntry,0a1203H
        ARGFRAME XSTACK, 34, STACK
        ARGFRAME IOVERLAY, 0, STATIC
        ARGFRAME DOVERLAY, 0, STATIC
        LOCFRAME XSTACK, 16, STACK
        PUBLIC bdb_zclFindingBindingEpType
        FUNCTION bdb_zclFindingBindingEpType,0a1203H
        ARGFRAME XSTACK, 0, STACK
        LOCFRAME XSTACK, 16, STACK
        FUNCTION bdb_zclSimpleDescClusterListClean,0a1203H
        ARGFRAME XSTACK, 29, STACK
        ARGFRAME IOVERLAY, 0, STATIC
        ARGFRAME DOVERLAY, 0, STATIC
        LOCFRAME XSTACK, 10, STACK
        PUBLIC grpName
        PUBLIC pfnBindNotificationCB
        PUBLIC pfnIdentifyTimeChangeCB
        
          CFI Names cfiNames0
          CFI StackFrame CFA_SP SP IDATA
          CFI StackFrame CFA_PSP16 PSP16 XDATA
          CFI StackFrame CFA_XSP16 XSP16 XDATA
          CFI StaticOverlayFrame CFA_IOVERLAY IOVERLAY
          CFI StaticOverlayFrame CFA_DOVERLAY DOVERLAY
          CFI Resource `PSW.CY`:1, `B.BR0`:1, `B.BR1`:1, `B.BR2`:1, `B.BR3`:1
          CFI Resource `B.BR4`:1, `B.BR5`:1, `B.BR6`:1, `B.BR7`:1, `VB.BR8`:1
          CFI Resource `VB.BR9`:1, `VB.BR10`:1, `VB.BR11`:1, `VB.BR12`:1
          CFI Resource `VB.BR13`:1, `VB.BR14`:1, `VB.BR15`:1, VB:8, B:8, A:8
          CFI Resource PSW:8, DPL0:8, DPH0:8, R0:8, R1:8, R2:8, R3:8, R4:8, R5:8
          CFI Resource R6:8, R7:8, V0:8, V1:8, V2:8, V3:8, V4:8, V5:8, V6:8, V7:8
          CFI Resource SP:8, PSPH:8, PSPL:8, PSP16:16, XSPH:8, XSPL:8, XSP16:16
          CFI VirtualResource ?RET:24
          CFI Resource ?BRET_EXT:8
          CFI VirtualResource ?RET_HIGH:8, ?RET_LOW:8
          CFI ResourceParts PSP16 PSPH, PSPL
          CFI ResourceParts XSP16 XSPH, XSPL
          CFI ResourceParts ?RET ?BRET_EXT, ?RET_HIGH, ?RET_LOW
          CFI EndNames cfiNames0
        
          CFI Common cfiCommon0 Using cfiNames0
          CFI CodeAlign 1
          CFI DataAlign -1
          CFI ReturnAddress ?RET CODE
          CFI CFA_DOVERLAY Used
          CFI CFA_IOVERLAY Used
          CFI CFA_SP SP+-3
          CFI CFA_PSP16 PSP16+0
          CFI CFA_XSP16 XSP16+0
          CFI `PSW.CY` SameValue
          CFI `B.BR0` SameValue
          CFI `B.BR1` SameValue
          CFI `B.BR2` SameValue
          CFI `B.BR3` SameValue
          CFI `B.BR4` SameValue
          CFI `B.BR5` SameValue
          CFI `B.BR6` SameValue
          CFI `B.BR7` SameValue
          CFI `VB.BR8` SameValue
          CFI `VB.BR9` SameValue
          CFI `VB.BR10` SameValue
          CFI `VB.BR11` SameValue
          CFI `VB.BR12` SameValue
          CFI `VB.BR13` SameValue
          CFI `VB.BR14` SameValue
          CFI `VB.BR15` SameValue
          CFI VB SameValue
          CFI B Undefined
          CFI A Undefined
          CFI PSW SameValue
          CFI DPL0 SameValue
          CFI DPH0 SameValue
          CFI R0 Undefined
          CFI R1 Undefined
          CFI R2 Undefined
          CFI R3 Undefined
          CFI R4 Undefined
          CFI R5 Undefined
          CFI R6 SameValue
          CFI R7 SameValue
          CFI V0 SameValue
          CFI V1 SameValue
          CFI V2 SameValue
          CFI V3 SameValue
          CFI V4 SameValue
          CFI V5 SameValue
          CFI V6 SameValue
          CFI V7 SameValue
          CFI PSPH Undefined
          CFI PSPL Undefined
          CFI XSPH Undefined
          CFI XSPL Undefined
          CFI ?RET Concat
          CFI ?BRET_EXT Frame(CFA_SP, 3)
          CFI ?RET_HIGH Frame(CFA_SP, 2)
          CFI ?RET_LOW Frame(CFA_SP, 1)
          CFI EndCommon cfiCommon0
        
        
          CFI Common cfiCommon1 Using cfiNames0
          CFI CodeAlign 1
          CFI DataAlign -1
          CFI ReturnAddress ?RET CODE
          CFI CFA_DOVERLAY Used
          CFI CFA_IOVERLAY Used
          CFI CFA_SP SP+-2
          CFI CFA_PSP16 PSP16+0
          CFI CFA_XSP16 XSP16+0
          CFI `PSW.CY` SameValue
          CFI `B.BR0` SameValue
          CFI `B.BR1` SameValue
          CFI `B.BR2` SameValue
          CFI `B.BR3` SameValue
          CFI `B.BR4` SameValue
          CFI `B.BR5` SameValue
          CFI `B.BR6` SameValue
          CFI `B.BR7` SameValue
          CFI `VB.BR8` SameValue
          CFI `VB.BR9` SameValue
          CFI `VB.BR10` SameValue
          CFI `VB.BR11` SameValue
          CFI `VB.BR12` SameValue
          CFI `VB.BR13` SameValue
          CFI `VB.BR14` SameValue
          CFI `VB.BR15` SameValue
          CFI VB SameValue
          CFI B SameValue
          CFI A SameValue
          CFI PSW SameValue
          CFI DPL0 SameValue
          CFI DPH0 SameValue
          CFI R0 SameValue
          CFI R1 SameValue
          CFI R2 SameValue
          CFI R3 SameValue
          CFI R4 SameValue
          CFI R5 SameValue
          CFI R6 SameValue
          CFI R7 SameValue
          CFI V0 SameValue
          CFI V1 SameValue
          CFI V2 SameValue
          CFI V3 SameValue
          CFI V4 SameValue
          CFI V5 SameValue
          CFI V6 SameValue
          CFI V7 SameValue
          CFI PSPH Undefined
          CFI PSPL Undefined
          CFI XSPH Undefined
          CFI XSPL Undefined
          CFI ?RET Concat
          CFI ?BRET_EXT SameValue
          CFI ?RET_HIGH Frame(CFA_SP, 2)
          CFI ?RET_LOW Frame(CFA_SP, 1)
          CFI EndCommon cfiCommon1
        
AddrMgrEntryUpdate  SYMBOL "AddrMgrEntryUpdate"
`??AddrMgrEntryUpdate::?relay` SYMBOL "?relay", AddrMgrEntryUpdate
AddrMgrExtAddrLookup SYMBOL "AddrMgrExtAddrLookup"
`??AddrMgrExtAddrLookup::?relay` SYMBOL "?relay", AddrMgrExtAddrLookup
AddrMgrExtAddrSet   SYMBOL "AddrMgrExtAddrSet"
`??AddrMgrExtAddrSet::?relay` SYMBOL "?relay", AddrMgrExtAddrSet
ZDO_AnyClusterMatches SYMBOL "ZDO_AnyClusterMatches"
`??ZDO_AnyClusterMatches::?relay` SYMBOL "?relay", ZDO_AnyClusterMatches
ZDO_ParseAddrRsp    SYMBOL "ZDO_ParseAddrRsp"
`??ZDO_ParseAddrRsp::?relay` SYMBOL "?relay", ZDO_ParseAddrRsp
ZDO_ParseSimpleDescBuf SYMBOL "ZDO_ParseSimpleDescBuf"
`??ZDO_ParseSimpleDescBuf::?relay` SYMBOL "?relay", ZDO_ParseSimpleDescBuf
ZDP_IEEEAddrReq     SYMBOL "ZDP_IEEEAddrReq"
`??ZDP_IEEEAddrReq::?relay` SYMBOL "?relay", ZDP_IEEEAddrReq
ZDP_SimpleDescReq   SYMBOL "ZDP_SimpleDescReq"
`??ZDP_SimpleDescReq::?relay` SYMBOL "?relay", ZDP_SimpleDescReq
bdb_AddRespondentNode SYMBOL "bdb_AddRespondentNode"
`??bdb_AddRespondentNode::?relay` SYMBOL "?relay", bdb_AddRespondentNode
bdb_getZCLFrameCounter SYMBOL "bdb_getZCLFrameCounter"
`??bdb_getZCLFrameCounter::?relay` SYMBOL "?relay", bdb_getZCLFrameCounter
bdb_reportCommissioningState SYMBOL "bdb_reportCommissioningState"
`??bdb_reportCommissioningState::?relay` SYMBOL "?relay", bdb_reportCommissioningState
bdb_zclRespondentListClean SYMBOL "bdb_zclRespondentListClean"
`??bdb_zclRespondentListClean::?relay` SYMBOL "?relay", bdb_zclRespondentListClean
osal_get_timeoutEx  SYMBOL "osal_get_timeoutEx"
`??osal_get_timeoutEx::?relay` SYMBOL "?relay", osal_get_timeoutEx
osal_mem_free       SYMBOL "osal_mem_free"
`??osal_mem_free::?relay` SYMBOL "?relay", osal_mem_free
osal_set_event      SYMBOL "osal_set_event"
`??osal_set_event::?relay` SYMBOL "?relay", osal_set_event
osal_start_timerEx  SYMBOL "osal_start_timerEx"
`??osal_start_timerEx::?relay` SYMBOL "?relay", osal_start_timerEx
osal_stop_timerEx   SYMBOL "osal_stop_timerEx"
`??osal_stop_timerEx::?relay` SYMBOL "?relay", osal_stop_timerEx
zcl_SendCommand     SYMBOL "zcl_SendCommand"
`??zcl_SendCommand::?relay` SYMBOL "?relay", zcl_SendCommand
bdb_FindIfAppCluster SYMBOL "bdb_FindIfAppCluster"
`??bdb_FindIfAppCluster::?relay` SYMBOL "?relay", bdb_FindIfAppCluster
bdb_GetFBInitiatorStatus SYMBOL "bdb_GetFBInitiatorStatus"
`??bdb_GetFBInitiatorStatus::?relay` SYMBOL "?relay", bdb_GetFBInitiatorStatus
bdb_ProcessIEEEAddrRsp SYMBOL "bdb_ProcessIEEEAddrRsp"
`??bdb_ProcessIEEEAddrRsp::?relay` SYMBOL "?relay", bdb_ProcessIEEEAddrRsp
bdb_ProcessRespondentList SYMBOL "bdb_ProcessRespondentList"
`??bdb_ProcessRespondentList::?relay` SYMBOL "?relay", bdb_ProcessRespondentList
bdb_ProcessSimpleDesc SYMBOL "bdb_ProcessSimpleDesc"
`??bdb_ProcessSimpleDesc::?relay` SYMBOL "?relay", bdb_ProcessSimpleDesc
bdb_RegisterBindNotificationCB SYMBOL "bdb_RegisterBindNotificationCB"
`??bdb_RegisterBindNotificationCB::?relay` SYMBOL "?relay", bdb_RegisterBindNotificationCB
bdb_RegisterIdentifyTimeChangeCB SYMBOL "bdb_RegisterIdentifyTimeChangeCB"
`??bdb_RegisterIdentifyTimeChangeCB::?relay` SYMBOL "?relay", bdb_RegisterIdentifyTimeChangeCB
bdb_SendIdentifyQuery SYMBOL "bdb_SendIdentifyQuery"
`??bdb_SendIdentifyQuery::?relay` SYMBOL "?relay", bdb_SendIdentifyQuery
bdb_SendIdentifyQueryWithAddr SYMBOL "bdb_SendIdentifyQueryWithAddr"
`??bdb_SendIdentifyQueryWithAddr::?relay` SYMBOL "?relay", bdb_SendIdentifyQueryWithAddr
bdb_SetIdentifyActiveEndpoint SYMBOL "bdb_SetIdentifyActiveEndpoint"
`??bdb_SetIdentifyActiveEndpoint::?relay` SYMBOL "?relay", bdb_SetIdentifyActiveEndpoint
bdb_StopInitiatorFindingBinding SYMBOL "bdb_StopInitiatorFindingBinding"
`??bdb_StopInitiatorFindingBinding::?relay` SYMBOL "?relay", bdb_StopInitiatorFindingBinding
bdb_ZclIdentifyQueryCmdInd SYMBOL "bdb_ZclIdentifyQueryCmdInd"
`??bdb_ZclIdentifyQueryCmdInd::?relay` SYMBOL "?relay", bdb_ZclIdentifyQueryCmdInd
bdb_checkMatchingEndpoints SYMBOL "bdb_checkMatchingEndpoints"
`??bdb_checkMatchingEndpoints::?relay` SYMBOL "?relay", bdb_checkMatchingEndpoints
bdb_exitFindingBindingWStatus SYMBOL "bdb_exitFindingBindingWStatus"
`??bdb_exitFindingBindingWStatus::?relay` SYMBOL "?relay", bdb_exitFindingBindingWStatus
bdb_findRespondentNode SYMBOL "bdb_findRespondentNode"
`??bdb_findRespondentNode::?relay` SYMBOL "?relay", bdb_findRespondentNode
bdb_getRespondentRetry SYMBOL "bdb_getRespondentRetry"
`??bdb_getRespondentRetry::?relay` SYMBOL "?relay", bdb_getRespondentRetry
bdb_setEpDescListToActiveEndpoint SYMBOL "bdb_setEpDescListToActiveEndpoint"
`??bdb_setEpDescListToActiveEndpoint::?relay` SYMBOL "?relay", bdb_setEpDescListToActiveEndpoint
bdb_zclFindingBindingEpType SYMBOL "bdb_zclFindingBindingEpType"
`??bdb_zclFindingBindingEpType::?relay` SYMBOL "?relay", bdb_zclFindingBindingEpType

        EXTERN `??AddrMgrEntryUpdate::?relay`
        FUNCTION `??AddrMgrEntryUpdate::?relay`,00H
        EXTERN `??AddrMgrExtAddrLookup::?relay`
        FUNCTION `??AddrMgrExtAddrLookup::?relay`,00H
        EXTERN `??AddrMgrExtAddrSet::?relay`
        FUNCTION `??AddrMgrExtAddrSet::?relay`,00H
        EXTERN `??ZDO_AnyClusterMatches::?relay`
        FUNCTION `??ZDO_AnyClusterMatches::?relay`,00H
        EXTERN `??ZDO_ParseAddrRsp::?relay`
        FUNCTION `??ZDO_ParseAddrRsp::?relay`,00H
        EXTERN `??ZDO_ParseSimpleDescBuf::?relay`
        FUNCTION `??ZDO_ParseSimpleDescBuf::?relay`,00H
        EXTERN `??ZDP_IEEEAddrReq::?relay`
        FUNCTION `??ZDP_IEEEAddrReq::?relay`,00H
        EXTERN `??ZDP_SimpleDescReq::?relay`
        FUNCTION `??ZDP_SimpleDescReq::?relay`,00H
        EXTERN `??bdb_AddRespondentNode::?relay`
        FUNCTION `??bdb_AddRespondentNode::?relay`,00H
        EXTERN `??bdb_getZCLFrameCounter::?relay`
        FUNCTION `??bdb_getZCLFrameCounter::?relay`,00H
        EXTERN `??bdb_reportCommissioningState::?relay`
        FUNCTION `??bdb_reportCommissioningState::?relay`,00H
        EXTERN `??bdb_zclRespondentListClean::?relay`
        FUNCTION `??bdb_zclRespondentListClean::?relay`,00H
        EXTERN `??osal_get_timeoutEx::?relay`
        FUNCTION `??osal_get_timeoutEx::?relay`,00H
        EXTERN `??osal_mem_free::?relay`
        FUNCTION `??osal_mem_free::?relay`,00H
        EXTERN `??osal_set_event::?relay`
        FUNCTION `??osal_set_event::?relay`,00H
        EXTERN `??osal_start_timerEx::?relay`
        FUNCTION `??osal_start_timerEx::?relay`,00H
        EXTERN `??osal_stop_timerEx::?relay`
        FUNCTION `??osal_stop_timerEx::?relay`,00H
        EXTERN `??zcl_SendCommand::?relay`
        FUNCTION `??zcl_SendCommand::?relay`,00H
        EXTERN AddrMgrEntryUpdate
        FUNCTION AddrMgrEntryUpdate,0202H
        ARGFRAME ISTACK, 0, STACK
        ARGFRAME PSTACK, 0, STACK
        ARGFRAME XSTACK, 25, STACK
        ARGFRAME IOVERLAY, 0, STATIC
        ARGFRAME DOVERLAY, 0, STATIC
        EXTERN AddrMgrExtAddrLookup
        FUNCTION AddrMgrExtAddrLookup,0202H
        ARGFRAME ISTACK, 0, STACK
        ARGFRAME PSTACK, 0, STACK
        ARGFRAME XSTACK, 29, STACK
        ARGFRAME IOVERLAY, 0, STATIC
        ARGFRAME DOVERLAY, 0, STATIC
        EXTERN AddrMgrExtAddrSet
        FUNCTION AddrMgrExtAddrSet,0202H
        ARGFRAME ISTACK, 0, STACK
        ARGFRAME PSTACK, 0, STACK
        ARGFRAME XSTACK, 25, STACK
        ARGFRAME IOVERLAY, 0, STATIC
        ARGFRAME DOVERLAY, 0, STATIC
        EXTERN ZDO_AnyClusterMatches
        FUNCTION ZDO_AnyClusterMatches,0202H
        ARGFRAME ISTACK, 0, STACK
        ARGFRAME PSTACK, 0, STACK
        ARGFRAME XSTACK, 16, STACK
        ARGFRAME IOVERLAY, 0, STATIC
        ARGFRAME DOVERLAY, 0, STATIC
        EXTERN ZDO_ParseAddrRsp
        FUNCTION ZDO_ParseAddrRsp,0202H
        ARGFRAME ISTACK, 0, STACK
        ARGFRAME PSTACK, 0, STACK
        ARGFRAME XSTACK, 25, STACK
        ARGFRAME IOVERLAY, 0, STATIC
        ARGFRAME DOVERLAY, 0, STATIC
        EXTERN ZDO_ParseSimpleDescBuf
        FUNCTION ZDO_ParseSimpleDescBuf,0202H
        ARGFRAME ISTACK, 0, STACK
        ARGFRAME PSTACK, 0, STACK
        ARGFRAME XSTACK, 28, STACK
        ARGFRAME IOVERLAY, 0, STATIC
        ARGFRAME DOVERLAY, 0, STATIC
        EXTERN ZDP_IEEEAddrReq
        FUNCTION ZDP_IEEEAddrReq,0202H
        ARGFRAME ISTACK, 0, STACK
        ARGFRAME PSTACK, 0, STACK
        ARGFRAME XSTACK, 18, STACK
        ARGFRAME IOVERLAY, 0, STATIC
        ARGFRAME DOVERLAY, 0, STATIC
        EXTERN ZDP_SimpleDescReq
        FUNCTION ZDP_SimpleDescReq,0202H
        ARGFRAME ISTACK, 0, STACK
        ARGFRAME PSTACK, 0, STACK
        ARGFRAME XSTACK, 19, STACK
        ARGFRAME IOVERLAY, 0, STATIC
        ARGFRAME DOVERLAY, 0, STATIC
        EXTERN bdbAttributes
        EXTERN bdbCommissioningProcedureState
        EXTERN bdb_AddRespondentNode
        FUNCTION bdb_AddRespondentNode,0202H
        ARGFRAME ISTACK, 0, STACK
        ARGFRAME PSTACK, 0, STACK
        ARGFRAME XSTACK, 10, STACK
        ARGFRAME IOVERLAY, 0, STATIC
        ARGFRAME DOVERLAY, 0, STATIC
        EXTERN bdb_CurrEpDescriptorList
        EXTERN bdb_FB_InitiatorCurrentCyclesNumber
        EXTERN bdb_HeadEpDescriptorList
        EXTERN bdb_TaskID
        EXTERN bdb_getZCLFrameCounter
        FUNCTION bdb_getZCLFrameCounter,0202H
        ARGFRAME ISTACK, 0, STACK
        ARGFRAME PSTACK, 0, STACK
        ARGFRAME XSTACK, 22, STACK
        ARGFRAME IOVERLAY, 0, STATIC
        ARGFRAME DOVERLAY, 0, STATIC
        EXTERN bdb_reportCommissioningState
        FUNCTION bdb_reportCommissioningState,0202H
        ARGFRAME ISTACK, 0, STACK
        ARGFRAME PSTACK, 0, STACK
        ARGFRAME XSTACK, 9, STACK
        ARGFRAME IOVERLAY, 0, STATIC
        ARGFRAME DOVERLAY, 0, STATIC
        EXTERN bdb_zclRespondentListClean
        FUNCTION bdb_zclRespondentListClean,0202H
        ARGFRAME ISTACK, 2, STACK
        ARGFRAME PSTACK, 0, STACK
        ARGFRAME XSTACK, 0, STACK
        ARGFRAME IOVERLAY, 0, STATIC
        ARGFRAME DOVERLAY, 0, STATIC
        EXTERN osal_get_timeoutEx
        FUNCTION osal_get_timeoutEx,0202H
        ARGFRAME ISTACK, 0, STACK
        ARGFRAME PSTACK, 0, STACK
        ARGFRAME XSTACK, 18, STACK
        ARGFRAME IOVERLAY, 0, STATIC
        ARGFRAME DOVERLAY, 0, STATIC
        EXTERN osal_mem_free
        FUNCTION osal_mem_free,0202H
        ARGFRAME ISTACK, 0, STACK
        ARGFRAME PSTACK, 0, STACK
        ARGFRAME XSTACK, 25, STACK
        ARGFRAME IOVERLAY, 0, STATIC
        ARGFRAME DOVERLAY, 0, STATIC
        EXTERN osal_set_event
        FUNCTION osal_set_event,0202H
        ARGFRAME ISTACK, 0, STACK
        ARGFRAME PSTACK, 0, STACK
        ARGFRAME XSTACK, 10, STACK
        ARGFRAME IOVERLAY, 0, STATIC
        ARGFRAME DOVERLAY, 0, STATIC
        EXTERN osal_start_timerEx
        FUNCTION osal_start_timerEx,0202H
        ARGFRAME ISTACK, 0, STACK
        ARGFRAME PSTACK, 0, STACK
        ARGFRAME XSTACK, 26, STACK
        ARGFRAME IOVERLAY, 0, STATIC
        ARGFRAME DOVERLAY, 0, STATIC
        EXTERN osal_stop_timerEx
        FUNCTION osal_stop_timerEx,0202H
        ARGFRAME ISTACK, 2, STACK
        ARGFRAME PSTACK, 0, STACK
        ARGFRAME XSTACK, 29, STACK
        ARGFRAME IOVERLAY, 0, STATIC
        ARGFRAME DOVERLAY, 0, STATIC
        EXTERN pRespondentCurr
        EXTERN pRespondentHead
        EXTERN pRespondentNext
        EXTERN pbindAddEntry
        EXTERN zcl_SendCommand
        FUNCTION zcl_SendCommand,0202H
        ARGFRAME ISTACK, 0, STACK
        ARGFRAME PSTACK, 0, STACK
        ARGFRAME XSTACK, 33, STACK
        ARGFRAME IOVERLAY, 0, STATIC
        ARGFRAME DOVERLAY, 0, STATIC

// D:\fuzzing-coordinator-response-collection\Components\stack\bdb\bdb_FindingAndBinding.c
//    1 /**************************************************************************************************
//    2   Filename:       bdb_FindingAndBinding.c
//    3   Revised:        $Date: 2016-02-25 11:51:49 -0700 (Thu, 25 Feb 2016) $
//    4   Revision:       $Revision: - $
//    5 
//    6   Description:    This file contains the Base Device Behavior functions and attributes.
//    7 
//    8 
//    9   Copyright 2006-2015 Texas Instruments Incorporated. All rights reserved.
//   10 
//   11   IMPORTANT: Your use of this Software is limited to those specific rights
//   12   granted under the terms of a software license agreement between the user
//   13   who downloaded the software, his/her employer (which must be your employer)
//   14   and Texas Instruments Incorporated (the "License").  You may not use this
//   15   Software unless you agree to abide by the terms of the License. The License
//   16   limits your use, and you acknowledge, that the Software may not be modified,
//   17   copied or distributed unless embedded on a Texas Instruments microcontroller
//   18   or used solely and exclusively in conjunction with a Texas Instruments radio
//   19   frequency transceiver, which is integrated into your product.  Other than for
//   20   the foregoing purpose, you may not use, reproduce, copy, prepare derivative
//   21   works of, modify, distribute, perform, display or sell this Software and/or
//   22   its documentation for any purpose.
//   23 
//   24   YOU FURTHER ACKNOWLEDGE AND AGREE THAT THE SOFTWARE AND DOCUMENTATION ARE
//   25   PROVIDED "AS IS" WITHOUT WARRANTY OF ANY KIND, EITHER EXPRESS OR IMPLIED,
//   26   INCLUDING WITHOUT LIMITATION, ANY WARRANTY OF MERCHANTABILITY, TITLE,
//   27   NON-INFRINGEMENT AND FITNESS FOR A PARTICULAR PURPOSE. IN NO EVENT SHALL
//   28   TEXAS INSTRUMENTS OR ITS LICENSORS BE LIABLE OR OBLIGATED UNDER CONTRACT,
//   29   NEGLIGENCE, STRICT LIABILITY, CONTRIBUTION, BREACH OF WARRANTY, OR OTHER
//   30   LEGAL EQUITABLE THEORY ANY DIRECT OR INDIRECT DAMAGES OR EXPENSES
//   31   INCLUDING BUT NOT LIMITED TO ANY INCIDENTAL, SPECIAL, INDIRECT, PUNITIVE
//   32   OR CONSEQUENTIAL DAMAGES, LOST PROFITS OR LOST DATA, COST OF PROCUREMENT
//   33   OF SUBSTITUTE GOODS, TECHNOLOGY, SERVICES, OR ANY CLAIMS BY THIRD PARTIES
//   34   (INCLUDING BUT NOT LIMITED TO ANY DEFENSE THEREOF), OR OTHER SIMILAR COSTS.
//   35 
//   36   Should you have any questions regarding your right to use this Software,
//   37   contact Texas Instruments Incorporated at www.TI.com.
//   38 **************************************************************************************************/
//   39 
//   40 /*********************************************************************
//   41  * INCLUDES
//   42  */
//   43 
//   44 #include "bdb.h"
//   45 #include "ZDObject.h"
//   46 #include "bdb_interface.h"
//   47 #include "AddrMgr.h"
//   48    
//   49 #if (BDB_FINDING_BINDING_CAPABILITY_ENABLED==1)   
//   50    
//   51 /*********************************************************************
//   52  * MACROS
//   53  */
//   54 
//   55 
//   56 
//   57    
//   58 /*********************************************************************
//   59  * CONSTANTS
//   60  */
//   61 /*********************************************************************
//   62  * TYPEDEFS
//   63  */
//   64  
//   65  
//   66 /*********************************************************************
//   67  * GLOBAL VARIABLES
//   68  */
//   69 

        RSEG XDATA_I:XDATA:NOROOT(0)
//   70 uint8 grpName[6] = {'G','r','o','u','p','\0'};
grpName:
        DATA8
        DS 6
        REQUIRE `?<Initializer for grpName>`
        REQUIRE __INIT_XDATA_I

        RSEG XDATA_Z:XDATA:NOROOT(0)
        DATA16
//   71 bdbGCB_IdentifyTimeChange_t      pfnIdentifyTimeChangeCB = NULL; 
pfnIdentifyTimeChangeCB:
        DS 2
        REQUIRE __INIT_XDATA_Z

        RSEG XDATA_Z:XDATA:NOROOT(0)
        DATA16
//   72 bdbGCB_BindNotification_t        pfnBindNotificationCB = NULL;
pfnBindNotificationCB:
        DS 2
        REQUIRE __INIT_XDATA_Z
//   73 
//   74 /*********************************************************************
//   75  * EXTERNAL VARIABLES
//   76  */
//   77 
//   78 /*********************************************************************
//   79  * EXTERNAL FUNCTIONS
//   80  */
//   81 
//   82 
//   83 
//   84 /*********************************************************************
//   85  * LOCAL VARIABLES
//   86  */
//   87 

        RSEG XDATA_Z:XDATA:NOROOT(0)
        DATA8
//   88 SimpleDescriptionFormat_t  bdb_FindingBindingTargetSimpleDesc;
bdb_FindingBindingTargetSimpleDesc:
        DS 12
        REQUIRE __INIT_XDATA_Z
//   89 

        RSEG XDATA_I:XDATA:NOROOT(0)
//   90 uint8 bdbIndentifyActiveEndpoint  = 0xFF;
bdbIndentifyActiveEndpoint:
        DATA8
        DS 1
        REQUIRE `?<Initializer for bdbIndentifyActiveEndpoint>`
        REQUIRE __INIT_XDATA_I
//   91 
//   92 //Your JOB:
//   93 //Remove the clusters that your application do not use. This will save some flash and processing
//   94 //when looking into matching clusters during the finding & binding procedure

        RSEG XDATA_ROM_C:CONST:REORDER:NOROOT(0)
        DATA8
//   95 const cId_t bdb_ZclType1Clusters[] =
bdb_ZclType1Clusters:
        DATA16
        DW 5
        DW 6
        DW 8
        DW 9
        DW 22
        DW 258
        DW 514
        DW 515
        DW 768
        DW 769
        DW 1281
        DW 1282
        DW 1536
        DW 1537
        DW 2820
        DW 1556
        DW 1557
        DW 1559
        DW 1792
        DW 1793
        DW 1794
        DW 1795
        DW 2304
        DW 2309
//   96 {
//   97   ZCL_CLUSTER_ID_GEN_SCENES,
//   98   ZCL_CLUSTER_ID_GEN_ON_OFF,
//   99   ZCL_CLUSTER_ID_GEN_LEVEL_CONTROL,
//  100   ZCL_CLUSTER_ID_GEN_ALARMS,
//  101   ZCL_CLUSTER_ID_GEN_PARTITION,
//  102   ZCL_CLUSTER_ID_CLOSURES_WINDOW_COVERING,
//  103   ZCL_CLUSTER_ID_HVAC_FAN_CONTROL,
//  104   ZCL_CLUSTER_ID_HVAC_DIHUMIDIFICATION_CONTROL,
//  105   ZCL_CLUSTER_ID_LIGHTING_COLOR_CONTROL,
//  106   ZCL_CLUSTER_ID_LIGHTING_BALLAST_CONFIG,
//  107   ZCL_CLUSTER_ID_SS_IAS_ACE,
//  108   ZCL_CLUSTER_ID_SS_IAS_WD,
//  109   ZCL_CLUSTER_ID_PI_GENERIC_TUNNEL,
//  110   ZCL_CLUSTER_ID_PI_BACNET_PROTOCOL_TUNNEL,
//  111   ZCL_CLUSTER_ID_HA_ELECTRICAL_MEASUREMENT,
//  112   ZCL_CLUSTER_ID_PI_11073_PROTOCOL_TUNNEL,
//  113   ZCL_CLUSTER_ID_PI_ISO7818_PROTOCOL_TUNNEL,
//  114   ZCL_CLUSTER_ID_PI_RETAIL_TUNNEL,
//  115   ZCL_CLUSTER_ID_SE_PRICE,
//  116   ZCL_CLUSTER_ID_SE_DRLC,
//  117   ZCL_CLUSTER_ID_SE_METERING,
//  118   ZCL_CLUSTER_ID_SE_MESSAGING,
//  119   ZCL_CLUSTER_ID_TELECOMMUNICATIONS_INFORMATION,
//  120   ZCL_CLUSTER_ID_TELECOMMUNICATIONS_VOICE_OVER_ZIGBEE,
//  121 };
//  122 
//  123 //Your JOB:
//  124 //Remove the clusters that your application do not use. This will save some flash and processing
//  125 //when looking into matching clusters during the finding & binding procedure

        RSEG XDATA_ROM_C:CONST:REORDER:NOROOT(0)
        DATA8
//  126 const cId_t bdb_ZclType2Clusters[] =
bdb_ZclType2Clusters:
        DATA16
        DW 7
        DW 10
        DW 12
        DW 13
        DW 14
        DW 15
        DW 16
        DW 17
        DW 18
        DW 19
        DW 20
        DW 25
        DW 27
        DW 256
        DW 257
        DW 512
        DW 513
        DW 1026
        DW 1024
        DW 1025
        DW 1027
        DW 1028
        DW 1029
        DW 1030
        DW 1280
        DW 1538
        DW 1539
        DW 1540
        DW 1541
        DW 1542
        DW 1543
        DW 1544
        DW 1545
        DW 1546
        DW 1547
        DW 1548
        DW 1549
        DW 1550
        DW 1551
        DW 1552
        DW 1553
        DW 1554
        DW 1555
        DW 1796
        DW 2304
        DW 2816
        DW 2817
        DW 2818
        DW 2819
//  127 {
//  128   ZCL_CLUSTER_ID_GEN_ON_OFF_SWITCH_CONFIG,
//  129   ZCL_CLUSTER_ID_GEN_TIME,
//  130   ZCL_CLUSTER_ID_GEN_ANALOG_INPUT_BASIC,
//  131   ZCL_CLUSTER_ID_GEN_ANALOG_OUTPUT_BASIC,
//  132   ZCL_CLUSTER_ID_GEN_ANALOG_VALUE_BASIC,
//  133   ZCL_CLUSTER_ID_GEN_BINARY_INPUT_BASIC,
//  134   ZCL_CLUSTER_ID_GEN_BINARY_OUTPUT_BASIC,
//  135   ZCL_CLUSTER_ID_GEN_BINARY_VALUE_BASIC,
//  136   ZCL_CLUSTER_ID_GEN_MULTISTATE_INPUT_BASIC,
//  137   ZCL_CLUSTER_ID_GEN_MULTISTATE_OUTPUT_BASIC,
//  138   ZCL_CLUSTER_ID_GEN_MULTISTATE_VALUE_BASIC,
//  139   ZCL_CLUSTER_ID_OTA,
//  140   ZCL_CLUSTER_ID_GEN_APPLIANCE_CONTROL,
//  141   ZCL_CLUSTER_ID_CLOSURES_SHADE_CONFIG,
//  142   ZCL_CLUSTER_ID_CLOSURES_DOOR_LOCK,
//  143   ZCL_CLUSTER_ID_HVAC_PUMP_CONFIG_CONTROL,
//  144   ZCL_CLUSTER_ID_HVAC_THERMOSTAT,
//  145   ZCL_CLUSTER_ID_MS_TEMPERATURE_MEASUREMENT,
//  146   ZCL_CLUSTER_ID_MS_ILLUMINANCE_MEASUREMENT,
//  147   ZCL_CLUSTER_ID_MS_ILLUMINANCE_LEVEL_SENSING_CONFIG,
//  148   ZCL_CLUSTER_ID_MS_PRESSURE_MEASUREMENT,
//  149   ZCL_CLUSTER_ID_MS_FLOW_MEASUREMENT,
//  150   ZCL_CLUSTER_ID_MS_RELATIVE_HUMIDITY,
//  151   ZCL_CLUSTER_ID_MS_OCCUPANCY_SENSING,
//  152   ZCL_CLUSTER_ID_SS_IAS_ZONE,
//  153   ZCL_CLUSTER_ID_PI_ANALOG_INPUT_BACNET_REG,
//  154   ZCL_CLUSTER_ID_PI_ANALOG_INPUT_BACNET_EXT,
//  155   ZCL_CLUSTER_ID_PI_ANALOG_OUTPUT_BACNET_REG,
//  156   ZCL_CLUSTER_ID_PI_ANALOG_OUTPUT_BACNET_EXT,
//  157   ZCL_CLUSTER_ID_PI_ANALOG_VALUE_BACNET_REG,
//  158   ZCL_CLUSTER_ID_PI_ANALOG_VALUE_BACNET_EXT,
//  159   ZCL_CLUSTER_ID_PI_BINARY_INPUT_BACNET_REG,
//  160   ZCL_CLUSTER_ID_PI_BINARY_INPUT_BACNET_EXT,
//  161   ZCL_CLUSTER_ID_PI_BINARY_OUTPUT_BACNET_REG,
//  162   ZCL_CLUSTER_ID_PI_BINARY_OUTPUT_BACNET_EXT,
//  163   ZCL_CLUSTER_ID_PI_BINARY_VALUE_BACNET_REG,
//  164   ZCL_CLUSTER_ID_PI_BINARY_VALUE_BACNET_EXT,
//  165   ZCL_CLUSTER_ID_PI_MULTISTATE_INPUT_BACNET_REG,
//  166   ZCL_CLUSTER_ID_PI_MULTISTATE_INPUT_BACNET_EXT,
//  167   ZCL_CLUSTER_ID_PI_MULTISTATE_OUTPUT_BACNET_REG,
//  168   ZCL_CLUSTER_ID_PI_MULTISTATE_OUTPUT_BACNET_EXT,
//  169   ZCL_CLUSTER_ID_PI_MULTISTATE_VALUE_BACNET_REG,
//  170   ZCL_CLUSTER_ID_PI_MULTISTATE_VALUE_BACNET_EXT,
//  171   ZCL_CLUSTER_ID_SE_TUNNELING,
//  172   ZCL_CLUSTER_ID_TELECOMMUNICATIONS_INFORMATION,
//  173   ZCL_CLUSTER_ID_HA_APPLIANCE_IDENTIFICATION,
//  174   ZCL_CLUSTER_ID_HA_METER_IDENTIFICATION,
//  175   ZCL_CLUSTER_ID_HA_APPLIANCE_EVENTS_ALERTS,
//  176   ZCL_CLUSTER_ID_HA_APPLIANCE_STATISTICS,
//  177 };
//  178 
//  179 #ifdef ZCL_GROUPS
//  180 static zclOptionRec_t zcl_Groups_Options[] =
//  181 {
//  182   {
//  183     ZCL_CLUSTER_ID_GEN_GROUPS,
//  184     ( AF_ACK_REQUEST ),
//  185   },
//  186 };
//  187 #endif
//  188 
//  189 
//  190  /*********************************************************************
//  191  * LOCAL FUNCTIONS
//  192  */
//  193 static ZStatus_t bdb_zclFindingBindingAddBindEntry( byte SrcEndpInt,
//  194                                   uint16 BindClusterId,
//  195                                   byte Cnt,                 
//  196                                   uint16 * ClusterList,
//  197                                   zAddrType_t *DstAddr, byte DstEndpInt, uint8 addBind );
//  198 
//  199 uint8 bdb_FindIfAppCluster( cId_t ClusterId );
//  200 
//  201 
//  202 static void bdb_zclSimpleDescClusterListClean( SimpleDescriptionFormat_t *pSimpleDesc );
//  203 bdbFindingBindingRespondent_t* bdb_findRespondentNode(uint8 endpoint, uint16 shortAddress);
//  204 bdbFindingBindingRespondent_t* bdb_getRespondentRetry(bdbFindingBindingRespondent_t* pRespondentHead);
//  205 void bdb_checkMatchingEndpoints(uint8 bindIfMatch, uint16 shortAddress, bdbFindingBindingRespondent_t **pCurr);
//  206  /*********************************************************************
//  207  * PUBLIC FUNCTIONS
//  208  *********************************************************************/
//  209 
//  210 void bdb_ProcessSimpleDesc( zdoIncomingMsg_t *msgPtr );
//  211 void bdb_ProcessIEEEAddrRsp(zdoIncomingMsg_t *pMsg);
//  212 
//  213 /*********************************************************************
//  214  * @fn      bdb_SetIdentifyActiveEndpoint
//  215  *
//  216  * @brief   Set the endpoint which will perform the finding and binding (either Target or Initiator)
//  217  *
//  218  * @param   Active endpoint with which perform F&B. If set to 0xFF all endpoints with Identify will be attempted.
//  219  *
//  220  * @return  ZFailure - F&B commissioning mode already requested
//  221  *          ZInvalidParameter - Endpoint specified not found or reserved by Zigbee
//  222  *          ZSuccess - 
//  223  */

        RSEG BANKED_CODE:HUGECODE:NOROOT(0)
//  224 ZStatus_t bdb_SetIdentifyActiveEndpoint(uint8 activeEndpoint)
bdb_SetIdentifyActiveEndpoint:
          CFI Block cfiBlock0 Using cfiCommon0
          CFI Function bdb_SetIdentifyActiveEndpoint
        CODE
//  225 {
        PUSH      DPL
          CFI DPL0 Frame(CFA_SP, 4)
          CFI CFA_SP SP+-4
        PUSH      DPH
          CFI DPH0 Frame(CFA_SP, 5)
          CFI CFA_SP SP+-5
        ; Saved register size: 2
        ; Auto size: 0
        MOV       A,R1
        MOV       R2,A
//  226   epList_t *bdb_EpDescriptorListTemp = NULL;
//  227   
//  228   //Cannot process the request if no endpoints or F&B is under process
//  229   if(bdbAttributes.bdbCommissioningMode & BDB_COMMISSIONING_MODE_FINDING_BINDING)
        MOV       DPTR,#bdbAttributes + 11
        MOVX      A,@DPTR
        MOV       C,0xE0 /* A   */.3
        JNC       ??bdb_SetIdentifyActiveEndpoint_0
//  230   {
//  231     return ZFailure;
        MOV       R1,#0x1
        SJMP      ??bdb_SetIdentifyActiveEndpoint_1
//  232   }
//  233   
//  234   if(activeEndpoint == 0xFF)
??bdb_SetIdentifyActiveEndpoint_0:
        MOV       A,#-0x1
        XRL       A,R2
        JZ        ??bdb_SetIdentifyActiveEndpoint_2
//  235   {
//  236     bdbIndentifyActiveEndpoint = activeEndpoint;
//  237     return ZSuccess;
//  238   }
//  239   
//  240   if((activeEndpoint != 0) && (activeEndpoint < BDB_ZIGBEE_RESERVED_ENDPOINTS_START))
        MOV       A,R2
        JZ        ??bdb_SetIdentifyActiveEndpoint_3
        CLR       C
        SUBB      A,#-0xf
        JNC       ??bdb_SetIdentifyActiveEndpoint_3
//  241   {
//  242     bdb_EpDescriptorListTemp = bdb_HeadEpDescriptorList;
        MOV       DPTR,#bdb_HeadEpDescriptorList
        SJMP      ??bdb_SetIdentifyActiveEndpoint_4
//  243     
//  244     while(bdb_EpDescriptorListTemp != NULL)
//  245     {
//  246       if(bdb_EpDescriptorListTemp->epDesc->endPoint == activeEndpoint)
//  247       {
//  248         bdbIndentifyActiveEndpoint = activeEndpoint;
//  249         return ZSuccess;
//  250       }
//  251       bdb_EpDescriptorListTemp = bdb_EpDescriptorListTemp->nextDesc;
??bdb_SetIdentifyActiveEndpoint_5:
        MOV       DPL,R0
        MOV       DPH,R1
??bdb_SetIdentifyActiveEndpoint_4:
        LCALL     ??Subroutine50_0 & 0xFFFF
??CrossCallReturnLabel_102:
        JZ        ??bdb_SetIdentifyActiveEndpoint_3
        MOV       DPL,R0
        MOV       DPH,R1
        INC       DPTR
        INC       DPTR
        MOVX      A,@DPTR
        MOV       R3,A
        INC       DPTR
        MOVX      A,@DPTR
        MOV       DPH,A
        MOV       DPL,R3
        MOVX      A,@DPTR
        XRL       A,R2
        JNZ       ??bdb_SetIdentifyActiveEndpoint_5
??bdb_SetIdentifyActiveEndpoint_2:
        MOV       A,R2
        MOV       DPTR,#bdbIndentifyActiveEndpoint
        MOVX      @DPTR,A
        MOV       R1,#0x0
        SJMP      ??bdb_SetIdentifyActiveEndpoint_1
//  252     }
//  253   }
//  254   
//  255   return ZInvalidParameter;
??bdb_SetIdentifyActiveEndpoint_3:
        MOV       R1,#0x2
??bdb_SetIdentifyActiveEndpoint_1:
        LJMP      ??Subroutine38_0 & 0xFFFF
//  256 }
          CFI EndBlock cfiBlock0
//  257 
//  258 
//  259 /*********************************************************************
//  260  * @fn      bdb_setEpDescListToActiveEndpoint
//  261  *
//  262  * @brief   Set the endpoint list to the active endpoint selected by the application for F&B process
//  263  *
//  264  * @return  Current endpoint descriptor
//  265  */
//  266 

        RSEG BANKED_CODE:HUGECODE:NOROOT(0)
//  267 endPointDesc_t* bdb_setEpDescListToActiveEndpoint(void)
bdb_setEpDescListToActiveEndpoint:
          CFI Block cfiBlock1 Using cfiCommon0
          CFI Function bdb_setEpDescListToActiveEndpoint
        CODE
//  268 {
        PUSH      DPL
          CFI DPL0 Frame(CFA_SP, 4)
          CFI CFA_SP SP+-4
        PUSH      DPH
          CFI DPH0 Frame(CFA_SP, 5)
          CFI CFA_SP SP+-5
        ; Saved register size: 2
        ; Auto size: 0
//  269   bdb_CurrEpDescriptorList = bdb_HeadEpDescriptorList;
        MOV       DPTR,#bdb_HeadEpDescriptorList
        LCALL     ??Subroutine34_0 & 0xFFFF
??CrossCallReturnLabel_32:
        LCALL     ?Subroutine31 & 0xFFFF
//  270  
//  271   //Check which active endpoit is being requested
//  272   if(bdbIndentifyActiveEndpoint != 0xFF)
??CrossCallReturnLabel_46:
        MOV       DPTR,#bdbIndentifyActiveEndpoint
        MOVX      A,@DPTR
        CPL       A
        JZ        ??CrossCallReturnLabel_1
//  273   {
//  274     //Search for an specific endpoint
//  275     while(bdb_CurrEpDescriptorList != NULL)
??bdb_setEpDescListToActiveEndpoint_0:
        MOV       DPTR,#bdb_CurrEpDescriptorList
        LCALL     ??Subroutine50_0 & 0xFFFF
??CrossCallReturnLabel_103:
        JZ        ??bdb_setEpDescListToActiveEndpoint_1
//  276     {
//  277       if(bdb_CurrEpDescriptorList->epDesc->endPoint == bdbIndentifyActiveEndpoint)
        LCALL     ?Subroutine7 & 0xFFFF
??CrossCallReturnLabel_3:
        MOV       R0,A
        MOV       DPTR,#bdbIndentifyActiveEndpoint
        MOVX      A,@DPTR
        XRL       A,R0
        JZ        ??bdb_setEpDescListToActiveEndpoint_2
//  278       {
//  279         return bdb_CurrEpDescriptorList->epDesc;
//  280       }
//  281       bdb_CurrEpDescriptorList = bdb_CurrEpDescriptorList->nextDesc;
        LCALL     ?Subroutine5 & 0xFFFF
//  282     }
//  283   }
??CrossCallReturnLabel_0:
        SJMP      ??bdb_setEpDescListToActiveEndpoint_0
//  284   else
//  285   {
//  286     //Look for the first endpoint that has Identify cluster
//  287     while(bdb_CurrEpDescriptorList != NULL)
//  288     {
//  289       if((bdb_CurrEpDescriptorList->epDesc->endPoint != 0) && (bdb_CurrEpDescriptorList->epDesc->endPoint < BDB_ZIGBEE_RESERVED_ENDPOINTS_START))
//  290       {
//  291         return bdb_CurrEpDescriptorList->epDesc;
//  292       }
//  293       bdb_CurrEpDescriptorList = bdb_CurrEpDescriptorList->nextDesc;
??bdb_setEpDescListToActiveEndpoint_3:
        LCALL     ?Subroutine5 & 0xFFFF
??CrossCallReturnLabel_1:
        MOV       DPTR,#bdb_CurrEpDescriptorList
        LCALL     ??Subroutine50_0 & 0xFFFF
??CrossCallReturnLabel_104:
        JZ        ??bdb_setEpDescListToActiveEndpoint_1
        LCALL     ?Subroutine7 & 0xFFFF
??CrossCallReturnLabel_4:
        JZ        ??bdb_setEpDescListToActiveEndpoint_3
        CLR       C
        SUBB      A,#-0xf
        JNC       ??bdb_setEpDescListToActiveEndpoint_3
??bdb_setEpDescListToActiveEndpoint_2:
        LCALL     ?Subroutine10 & 0xFFFF
//  294     }
//  295   }
??CrossCallReturnLabel_10:
        MOV       R2,A
        INC       DPTR
        MOVX      A,@DPTR
        MOV       R3,A
        SJMP      ??bdb_setEpDescListToActiveEndpoint_4
//  296   //not found
//  297   return NULL;
??bdb_setEpDescListToActiveEndpoint_1:
        MOV       R2,#0x0
        MOV       R3,#0x0
??bdb_setEpDescListToActiveEndpoint_4:
        LJMP      ??Subroutine38_0 & 0xFFFF
//  298 }
          CFI EndBlock cfiBlock1
//  299 
//  300 
//  301 /*********************************************************************
//  302  * @fn      bdb_ProcessIEEEAddrRsp
//  303  *
//  304  * @brief   Process IEEE addr response and mark the entry as done or remove the 
//  305  *          bind if not successful.
//  306  *
//  307  * @param   zdoIncomingMsg_t *pMsg
//  308  *
//  309  * @return  none
//  310  */

        RSEG BANKED_CODE:HUGECODE:NOROOT(0)
//  311 void bdb_ProcessIEEEAddrRsp(zdoIncomingMsg_t *pMsg)
bdb_ProcessIEEEAddrRsp:
          CFI Block cfiBlock2 Using cfiCommon0
          CFI Function bdb_ProcessIEEEAddrRsp
        CODE
//  312 {
        FUNCALL bdb_ProcessIEEEAddrRsp, ZDO_ParseAddrRsp
        LOCFRAME ISTACK, 0, STACK
        LOCFRAME PSTACK, 0, STACK
        LOCFRAME XSTACK, 25, STACK
        LOCFRAME IOVERLAY, 0, STATIC
        LOCFRAME DOVERLAY, 0, STATIC
        ARGFRAME ISTACK, 0, STACK
        ARGFRAME PSTACK, 0, STACK
        ARGFRAME XSTACK, 25, STACK
        ARGFRAME IOVERLAY, 0, STATIC
        ARGFRAME DOVERLAY, 0, STATIC
        FUNCALL bdb_ProcessIEEEAddrRsp, bdb_setEpDescListToActiveEndpoint
        LOCFRAME ISTACK, 0, STACK
        LOCFRAME PSTACK, 0, STACK
        LOCFRAME XSTACK, 25, STACK
        LOCFRAME IOVERLAY, 0, STATIC
        LOCFRAME DOVERLAY, 0, STATIC
        ARGFRAME ISTACK, 0, STACK
        ARGFRAME PSTACK, 0, STACK
        ARGFRAME XSTACK, 25, STACK
        ARGFRAME IOVERLAY, 0, STATIC
        ARGFRAME DOVERLAY, 0, STATIC
        FUNCALL bdb_ProcessIEEEAddrRsp, bdb_findRespondentNode
        LOCFRAME ISTACK, 0, STACK
        LOCFRAME PSTACK, 0, STACK
        LOCFRAME XSTACK, 25, STACK
        LOCFRAME IOVERLAY, 0, STATIC
        LOCFRAME DOVERLAY, 0, STATIC
        ARGFRAME ISTACK, 0, STACK
        ARGFRAME PSTACK, 0, STACK
        ARGFRAME XSTACK, 25, STACK
        ARGFRAME IOVERLAY, 0, STATIC
        ARGFRAME DOVERLAY, 0, STATIC
        FUNCALL bdb_ProcessIEEEAddrRsp, AddrMgrExtAddrSet
        LOCFRAME ISTACK, 0, STACK
        LOCFRAME PSTACK, 0, STACK
        LOCFRAME XSTACK, 25, STACK
        LOCFRAME IOVERLAY, 0, STATIC
        LOCFRAME DOVERLAY, 0, STATIC
        ARGFRAME ISTACK, 0, STACK
        ARGFRAME PSTACK, 0, STACK
        ARGFRAME XSTACK, 25, STACK
        ARGFRAME IOVERLAY, 0, STATIC
        ARGFRAME DOVERLAY, 0, STATIC
        FUNCALL bdb_ProcessIEEEAddrRsp, AddrMgrEntryUpdate
        LOCFRAME ISTACK, 0, STACK
        LOCFRAME PSTACK, 0, STACK
        LOCFRAME XSTACK, 25, STACK
        LOCFRAME IOVERLAY, 0, STATIC
        LOCFRAME DOVERLAY, 0, STATIC
        ARGFRAME ISTACK, 0, STACK
        ARGFRAME PSTACK, 0, STACK
        ARGFRAME XSTACK, 25, STACK
        ARGFRAME IOVERLAY, 0, STATIC
        ARGFRAME DOVERLAY, 0, STATIC
        FUNCALL bdb_ProcessIEEEAddrRsp, osal_stop_timerEx
        LOCFRAME ISTACK, 0, STACK
        LOCFRAME PSTACK, 0, STACK
        LOCFRAME XSTACK, 25, STACK
        LOCFRAME IOVERLAY, 0, STATIC
        LOCFRAME DOVERLAY, 0, STATIC
        ARGFRAME ISTACK, 0, STACK
        ARGFRAME PSTACK, 0, STACK
        ARGFRAME XSTACK, 25, STACK
        ARGFRAME IOVERLAY, 0, STATIC
        ARGFRAME DOVERLAY, 0, STATIC
        FUNCALL bdb_ProcessIEEEAddrRsp, bdb_zclSimpleDescClusterListClean
        LOCFRAME ISTACK, 0, STACK
        LOCFRAME PSTACK, 0, STACK
        LOCFRAME XSTACK, 25, STACK
        LOCFRAME IOVERLAY, 0, STATIC
        LOCFRAME DOVERLAY, 0, STATIC
        ARGFRAME ISTACK, 0, STACK
        ARGFRAME PSTACK, 0, STACK
        ARGFRAME XSTACK, 25, STACK
        ARGFRAME IOVERLAY, 0, STATIC
        ARGFRAME DOVERLAY, 0, STATIC
        FUNCALL bdb_ProcessIEEEAddrRsp, osal_stop_timerEx
        LOCFRAME ISTACK, 0, STACK
        LOCFRAME PSTACK, 0, STACK
        LOCFRAME XSTACK, 25, STACK
        LOCFRAME IOVERLAY, 0, STATIC
        LOCFRAME DOVERLAY, 0, STATIC
        ARGFRAME ISTACK, 0, STACK
        ARGFRAME PSTACK, 0, STACK
        ARGFRAME XSTACK, 25, STACK
        ARGFRAME IOVERLAY, 0, STATIC
        ARGFRAME DOVERLAY, 0, STATIC
        FUNCALL bdb_ProcessIEEEAddrRsp, bdb_exitFindingBindingWStatus
        LOCFRAME ISTACK, 0, STACK
        LOCFRAME PSTACK, 0, STACK
        LOCFRAME XSTACK, 25, STACK
        LOCFRAME IOVERLAY, 0, STATIC
        LOCFRAME DOVERLAY, 0, STATIC
        ARGFRAME ISTACK, 0, STACK
        ARGFRAME PSTACK, 0, STACK
        ARGFRAME XSTACK, 25, STACK
        ARGFRAME IOVERLAY, 0, STATIC
        ARGFRAME DOVERLAY, 0, STATIC
        FUNCALL bdb_ProcessIEEEAddrRsp, bdb_checkMatchingEndpoints
        LOCFRAME ISTACK, 0, STACK
        LOCFRAME PSTACK, 0, STACK
        LOCFRAME XSTACK, 25, STACK
        LOCFRAME IOVERLAY, 0, STATIC
        LOCFRAME DOVERLAY, 0, STATIC
        ARGFRAME ISTACK, 0, STACK
        ARGFRAME PSTACK, 0, STACK
        ARGFRAME XSTACK, 25, STACK
        ARGFRAME IOVERLAY, 0, STATIC
        ARGFRAME DOVERLAY, 0, STATIC
        FUNCALL bdb_ProcessIEEEAddrRsp, osal_mem_free
        LOCFRAME ISTACK, 0, STACK
        LOCFRAME PSTACK, 0, STACK
        LOCFRAME XSTACK, 25, STACK
        LOCFRAME IOVERLAY, 0, STATIC
        LOCFRAME DOVERLAY, 0, STATIC
        ARGFRAME ISTACK, 0, STACK
        ARGFRAME PSTACK, 0, STACK
        ARGFRAME XSTACK, 25, STACK
        ARGFRAME IOVERLAY, 0, STATIC
        ARGFRAME DOVERLAY, 0, STATIC
        REQUIRE ?V0
        REQUIRE ?V1
        MOV       A,#-0xa
        LCALL     ?BANKED_ENTER_XDATA
          CFI DPH0 load(1, XDATA, add(CFA_XSP16, literal(-1)))
          CFI DPL0 load(1, XDATA, add(CFA_XSP16, literal(-2)))
          CFI ?BRET_EXT load(1, XDATA, add(CFA_XSP16, literal(-3)))
          CFI ?RET_HIGH load(1, XDATA, add(CFA_XSP16, literal(-4)))
          CFI ?RET_LOW load(1, XDATA, add(CFA_XSP16, literal(-5)))
          CFI R7 load(1, XDATA, add(CFA_XSP16, literal(-6)))
          CFI V1 load(1, XDATA, add(CFA_XSP16, literal(-7)))
          CFI V0 load(1, XDATA, add(CFA_XSP16, literal(-8)))
          CFI VB load(1, XDATA, add(CFA_XSP16, literal(-9)))
          CFI R6 load(1, XDATA, add(CFA_XSP16, literal(-10)))
          CFI CFA_SP SP+0
          CFI CFA_XSP16 add(XSP16, 10)
        ; Saved register size: 10
        ; Auto size: 15
        MOV       A,#-0xf
        LCALL     ?ALLOC_XSTACK8
          CFI CFA_XSP16 add(XSP16, 25)
//  313   ZDO_NwkIEEEAddrResp_t *pAddrRsp = NULL;
//  314   bdbFindingBindingRespondent_t *pCurr = NULL;
        MOV       DPL,?XSP + 0
        MOV       DPH,?XSP + 1
        CLR       A
        MOVX      @DPTR,A
        INC       DPTR
        MOVX      @DPTR,A
//  315 
//  316   pAddrRsp = ZDO_ParseAddrRsp( pMsg );
        ; Setup parameters for call to function ZDO_ParseAddrRsp
        LCALL     `??ZDO_ParseAddrRsp::?relay`; Banked call to: ZDO_ParseAddrRsp
        MOV       ?V0,R2
        MOV       ?V1,R3
        MOV       R6,?V0
        MOV       R7,?V1
//  317   
//  318   if(pAddrRsp == NULL)
        MOV       A,R6
        ORL       A,R7
        JNZ       $+5
        LJMP      ??bdb_ProcessIEEEAddrRsp_0 & 0xFFFF
//  319   {
//  320     return;
//  321   }
//  322   
//  323   bdb_setEpDescListToActiveEndpoint();
        ; Setup parameters for call to function bdb_setEpDescListToActiveEndpoint
        LCALL     `??bdb_setEpDescListToActiveEndpoint::?relay`; Banked call to: bdb_setEpDescListToActiveEndpoint
//  324   
//  325   pCurr = bdb_findRespondentNode(bdb_FindingBindingTargetSimpleDesc.EndPoint, pAddrRsp->nwkAddr);
        MOV       DPL,R6
        MOV       DPH,R7
        INC       DPTR
        MOV       ?V0,DPL
        MOV       ?V1,DPH
        ; Setup parameters for call to function bdb_findRespondentNode
        LCALL     ?Subroutine18 & 0xFFFF
??CrossCallReturnLabel_21:
        LCALL     `??bdb_findRespondentNode::?relay`; Banked call to: bdb_findRespondentNode
        LCALL     ?Subroutine4 & 0xFFFF
//  326   
//  327   //Does the entry exist and we were waiting an IEEE addr rsp from this device?
//  328   if((pCurr != NULL) && (pCurr->attempts > FINDING_AND_BINDING_MISSING_IEEE_ADDR))
??CrossCallReturnLabel_100:
        JNZ       $+5
        LJMP      ??bdb_ProcessIEEEAddrRsp_1 & 0xFFFF
        MOV       DPL,?XSP + 0
        MOV       DPH,?XSP + 1
        INC       DPTR
        MOVX      A,@DPTR
        XCH       A,R0
        LCALL     ?Subroutine25 & 0xFFFF
??CrossCallReturnLabel_28:
        MOVX      A,@DPTR
        CLR       C
        SUBB      A,#-0x7f
        JC        ??bdb_ProcessIEEEAddrRsp_1
//  329   {
//  330     if(pAddrRsp->status == ZSuccess )
        MOV       DPL,R6
        MOV       DPH,R7
        MOVX      A,@DPTR
        JNZ       ??bdb_ProcessIEEEAddrRsp_2
//  331     {
//  332       uint8 extAddr[8]; 
//  333       AddrMgrEntry_t entry;
//  334       
//  335       entry.nwkAddr = pAddrRsp->nwkAddr;
        LCALL     ?Subroutine22 & 0xFFFF
??CrossCallReturnLabel_34:
        MOV       A,#0x3
        LCALL     ?XSTACK_DISP0_8
        LCALL     ??Subroutine41_0 & 0xFFFF
//  336       entry.user = ADDRMGR_USER_BINDING;
??CrossCallReturnLabel_42:
        MOV       A,#0x2
        LCALL     ?XSTACK_DISP0_8
        MOV       A,#0x4
        MOVX      @DPTR,A
//  337       AddrMgrExtAddrSet(entry.extAddr, pAddrRsp->extAddr);
        ; Setup parameters for call to function AddrMgrExtAddrSet
        MOV       A,R6
        ADD       A,#0x3
        MOV       R4,A
        CLR       A
        ADDC      A,R7
        MOV       R5,A
        MOV       A,#0x5
        LCALL     ?XSTACK_DISP0_8
        MOV       R2,DPL
        MOV       R3,DPH
        LCALL     `??AddrMgrExtAddrSet::?relay`; Banked call to: AddrMgrExtAddrSet
//  338       
//  339       //Add it as bind entry
//  340       if(AddrMgrEntryUpdate(&entry) == FALSE)
        ; Setup parameters for call to function AddrMgrEntryUpdate
        MOV       A,#0x2
        LCALL     ?XSTACK_DISP101_8
        LCALL     `??AddrMgrEntryUpdate::?relay`; Banked call to: AddrMgrEntryUpdate
        MOV       A,R1
        JNZ       ??bdb_ProcessIEEEAddrRsp_3
//  341       {
//  342         //No space, then report F&B table full
//  343         //If periodic was triggered, then finish it
//  344         if(FINDING_AND_BINDING_PERIODIC_ENABLE == TRUE)                                  
//  345         {
//  346           bdb_FB_InitiatorCurrentCyclesNumber = 0;
        LCALL     ?Subroutine23 & 0xFFFF
//  347           osal_stop_timerEx(bdb_TaskID, BDB_FINDING_AND_BINDING_PERIOD_TIMEOUT);
//  348         }
??CrossCallReturnLabel_25:
        LCALL     `??osal_stop_timerEx::?relay`; Banked call to: osal_stop_timerEx
//  349         
//  350         bdb_zclSimpleDescClusterListClean( &bdb_FindingBindingTargetSimpleDesc );
        ; Setup parameters for call to function bdb_zclSimpleDescClusterListClean
        MOV       R2,#bdb_FindingBindingTargetSimpleDesc & 0xff
        MOV       R3,#(bdb_FindingBindingTargetSimpleDesc >> 8) & 0xff
        LCALL     `??bdb_zclSimpleDescClusterListClean::?relay`; Banked call to: bdb_zclSimpleDescClusterListClean
//  351         osal_stop_timerEx( bdb_TaskID, BDB_RESPONDENT_PROCESS_TIMEOUT );
        ; Setup parameters for call to function osal_stop_timerEx
        MOV       R2,#0x0
        MOV       R3,#0x40
        MOV       DPTR,#bdb_TaskID
        MOVX      A,@DPTR
        MOV       R1,A
        LCALL     `??osal_stop_timerEx::?relay`; Banked call to: osal_stop_timerEx
//  352         bdb_exitFindingBindingWStatus( BDB_COMMISSIONING_FB_BINDING_TABLE_FULL );
        ; Setup parameters for call to function bdb_exitFindingBindingWStatus
        MOV       R1,#0xc
        LCALL     `??bdb_exitFindingBindingWStatus::?relay`; Banked call to: bdb_exitFindingBindingWStatus
//  353         return;
        SJMP      ??bdb_ProcessIEEEAddrRsp_0
//  354       }
//  355 
//  356       //search for the matching clusters to be added this time as we have the IEEE addrs
//  357       bdb_checkMatchingEndpoints(TRUE, pAddrRsp->nwkAddr, &pCurr);
??bdb_ProcessIEEEAddrRsp_3:
        ; Setup parameters for call to function bdb_checkMatchingEndpoints
        MOV       R4,?XSP + 0
        MOV       R5,?XSP + 1
        MOV       DPL,?V0
        MOV       DPH,?V1
        LCALL     ??Subroutine45_0 & 0xFFFF
??CrossCallReturnLabel_59:
        MOV       R1,#0x1
        LCALL     `??bdb_checkMatchingEndpoints::?relay`; Banked call to: bdb_checkMatchingEndpoints
//  358       (void)extAddr;  //dummy
//  359     }
//  360     //Bind cannot be added if the device was not found
//  361     pCurr->attempts = FINDING_AND_BINDING_RESPONDENT_COMPLETE;
??bdb_ProcessIEEEAddrRsp_2:
        LCALL     ?Subroutine14 & 0xFFFF
//  362   }
??CrossCallReturnLabel_40:
        LCALL     ?Subroutine25 & 0xFFFF
??CrossCallReturnLabel_29:
        MOV       A,#-0x1
        MOVX      @DPTR,A
//  363   
//  364   //release the memory
//  365   osal_mem_free( pAddrRsp );
??bdb_ProcessIEEEAddrRsp_1:
        ; Setup parameters for call to function osal_mem_free
        MOV       A,R6
        MOV       R2,A
        MOV       A,R7
        MOV       R3,A
        LCALL     `??osal_mem_free::?relay`; Banked call to: osal_mem_free
//  366 }
??bdb_ProcessIEEEAddrRsp_0:
        MOV       A,#0xf
        SJMP      ??Subroutine36_0
          CFI EndBlock cfiBlock2

        RSEG BANKED_CODE:HUGECODE:NOROOT(0)
?Subroutine25:
          CFI Block cfiCond3 Using cfiCommon0
          CFI Function bdb_ProcessIEEEAddrRsp
          CFI Conditional ??CrossCallReturnLabel_28
          CFI R6 load(1, XDATA, add(CFA_XSP16, literal(-10)))
          CFI VB load(1, XDATA, add(CFA_XSP16, literal(-9)))
          CFI V0 load(1, XDATA, add(CFA_XSP16, literal(-8)))
          CFI V1 load(1, XDATA, add(CFA_XSP16, literal(-7)))
          CFI R7 load(1, XDATA, add(CFA_XSP16, literal(-6)))
          CFI ?RET_LOW load(1, XDATA, add(CFA_XSP16, literal(-5)))
          CFI ?RET_HIGH load(1, XDATA, add(CFA_XSP16, literal(-4)))
          CFI ?BRET_EXT load(1, XDATA, add(CFA_XSP16, literal(-3)))
          CFI DPL0 load(1, XDATA, add(CFA_XSP16, literal(-2)))
          CFI DPH0 load(1, XDATA, add(CFA_XSP16, literal(-1)))
          CFI CFA_SP SP+-2
          CFI CFA_XSP16 add(XSP16, 25)
          CFI Block cfiCond4 Using cfiCommon0
          CFI (cfiCond4) Function bdb_ProcessIEEEAddrRsp
          CFI (cfiCond4) Conditional ??CrossCallReturnLabel_29
          CFI (cfiCond4) R6 load(1, XDATA, add(CFA_XSP16, literal(-10)))
          CFI (cfiCond4) VB load(1, XDATA, add(CFA_XSP16, literal(-9)))
          CFI (cfiCond4) V0 load(1, XDATA, add(CFA_XSP16, literal(-8)))
          CFI (cfiCond4) V1 load(1, XDATA, add(CFA_XSP16, literal(-7)))
          CFI (cfiCond4) R7 load(1, XDATA, add(CFA_XSP16, literal(-6)))
          CFI (cfiCond4) ?RET_LOW load(1, XDATA, add(CFA_XSP16, literal(-5)))
          CFI (cfiCond4) ?RET_HIGH load(1, XDATA, add(CFA_XSP16, literal(-4)))
          CFI (cfiCond4) ?BRET_EXT load(1, XDATA, add(CFA_XSP16, literal(-3)))
          CFI (cfiCond4) DPL0 load(1, XDATA, add(CFA_XSP16, literal(-2)))
          CFI (cfiCond4) DPH0 load(1, XDATA, add(CFA_XSP16, literal(-1)))
          CFI (cfiCond4) CFA_SP SP+-2
          CFI (cfiCond4) CFA_XSP16 add(XSP16, 25)
          CFI Block cfiPicker5 Using cfiCommon1
          CFI (cfiPicker5) NoFunction
          CFI (cfiPicker5) Picker
        LCALL     ?Subroutine33 & 0xFFFF
??CrossCallReturnLabel_98:
        RET
          CFI EndBlock cfiCond3
          CFI EndBlock cfiCond4
          CFI EndBlock cfiPicker5

        RSEG BANKED_CODE:HUGECODE:NOROOT(0)
?Subroutine22:
          CFI Block cfiCond6 Using cfiCommon0
          CFI Function bdb_ProcessIEEEAddrRsp
          CFI Conditional ??CrossCallReturnLabel_34
          CFI R6 load(1, XDATA, add(CFA_XSP16, literal(-10)))
          CFI VB load(1, XDATA, add(CFA_XSP16, literal(-9)))
          CFI V0 load(1, XDATA, add(CFA_XSP16, literal(-8)))
          CFI V1 load(1, XDATA, add(CFA_XSP16, literal(-7)))
          CFI R7 load(1, XDATA, add(CFA_XSP16, literal(-6)))
          CFI ?RET_LOW load(1, XDATA, add(CFA_XSP16, literal(-5)))
          CFI ?RET_HIGH load(1, XDATA, add(CFA_XSP16, literal(-4)))
          CFI ?BRET_EXT load(1, XDATA, add(CFA_XSP16, literal(-3)))
          CFI DPL0 load(1, XDATA, add(CFA_XSP16, literal(-2)))
          CFI DPH0 load(1, XDATA, add(CFA_XSP16, literal(-1)))
          CFI CFA_SP SP+-2
          CFI CFA_XSP16 add(XSP16, 25)
          CFI Block cfiCond7 Using cfiCommon0
          CFI (cfiCond7) Function bdb_zclFindingBindingEpType
          CFI (cfiCond7) Conditional ??CrossCallReturnLabel_35
          CFI (cfiCond7) R6 load(1, XDATA, add(CFA_XSP16, literal(-14)))
          CFI (cfiCond7) VB load(1, XDATA, add(CFA_XSP16, literal(-13)))
          CFI (cfiCond7) V0 load(1, XDATA, add(CFA_XSP16, literal(-12)))
          CFI (cfiCond7) V1 load(1, XDATA, add(CFA_XSP16, literal(-11)))
          CFI (cfiCond7) V2 load(1, XDATA, add(CFA_XSP16, literal(-10)))
          CFI (cfiCond7) V3 load(1, XDATA, add(CFA_XSP16, literal(-9)))
          CFI (cfiCond7) V4 load(1, XDATA, add(CFA_XSP16, literal(-8)))
          CFI (cfiCond7) V5 load(1, XDATA, add(CFA_XSP16, literal(-7)))
          CFI (cfiCond7) R7 load(1, XDATA, add(CFA_XSP16, literal(-6)))
          CFI (cfiCond7) ?RET_LOW load(1, XDATA, add(CFA_XSP16, literal(-5)))
          CFI (cfiCond7) ?RET_HIGH load(1, XDATA, add(CFA_XSP16, literal(-4)))
          CFI (cfiCond7) ?BRET_EXT load(1, XDATA, add(CFA_XSP16, literal(-3)))
          CFI (cfiCond7) DPL0 load(1, XDATA, add(CFA_XSP16, literal(-2)))
          CFI (cfiCond7) DPH0 load(1, XDATA, add(CFA_XSP16, literal(-1)))
          CFI (cfiCond7) CFA_SP SP+-2
          CFI (cfiCond7) CFA_XSP16 add(XSP16, 14)
          CFI Block cfiPicker8 Using cfiCommon1
          CFI (cfiPicker8) NoFunction
          CFI (cfiPicker8) Picker
        MOV       DPL,?V0
        MOV       DPH,?V1
          CFI EndBlock cfiCond6
          CFI EndBlock cfiCond7
          CFI EndBlock cfiPicker8
        REQUIRE ??Subroutine34_0
        ; // Fall through to label ??Subroutine34_0

        RSEG BANKED_CODE:HUGECODE:NOROOT(0)
??Subroutine34_0:
          CFI Block cfiCond9 Using cfiCommon0
          CFI Function bdb_setEpDescListToActiveEndpoint
          CFI Conditional ??CrossCallReturnLabel_32
          CFI DPL0 Frame(CFA_SP, 4)
          CFI DPH0 Frame(CFA_SP, 5)
          CFI CFA_SP SP+-7
          CFI Block cfiCond10 Using cfiCommon0
          CFI (cfiCond10) Function bdb_ZclIdentifyQueryCmdInd
          CFI (cfiCond10) Conditional ??CrossCallReturnLabel_33
          CFI (cfiCond10) R6 load(1, XDATA, add(CFA_XSP16, literal(-10)))
          CFI (cfiCond10) VB load(1, XDATA, add(CFA_XSP16, literal(-9)))
          CFI (cfiCond10) V0 load(1, XDATA, add(CFA_XSP16, literal(-8)))
          CFI (cfiCond10) V1 load(1, XDATA, add(CFA_XSP16, literal(-7)))
          CFI (cfiCond10) R7 load(1, XDATA, add(CFA_XSP16, literal(-6)))
          CFI (cfiCond10) ?RET_LOW load(1, XDATA, add(CFA_XSP16, literal(-5)))
          CFI (cfiCond10) ?RET_HIGH load(1, XDATA, add(CFA_XSP16, literal(-4)))
          CFI (cfiCond10) ?BRET_EXT load(1, XDATA, add(CFA_XSP16, literal(-3)))
          CFI (cfiCond10) DPL0 load(1, XDATA, add(CFA_XSP16, literal(-2)))
          CFI (cfiCond10) DPH0 load(1, XDATA, add(CFA_XSP16, literal(-1)))
          CFI (cfiCond10) CFA_SP SP+-2
          CFI (cfiCond10) CFA_XSP16 add(XSP16, 10)
          CFI Block cfiCond11 Using cfiCommon0
          CFI (cfiCond11) Function bdb_ProcessIEEEAddrRsp
          CFI (cfiCond11) Conditional ??CrossCallReturnLabel_34
          CFI (cfiCond11) R6 load(1, XDATA, add(CFA_XSP16, literal(-10)))
          CFI (cfiCond11) VB load(1, XDATA, add(CFA_XSP16, literal(-9)))
          CFI (cfiCond11) V0 load(1, XDATA, add(CFA_XSP16, literal(-8)))
          CFI (cfiCond11) V1 load(1, XDATA, add(CFA_XSP16, literal(-7)))
          CFI (cfiCond11) R7 load(1, XDATA, add(CFA_XSP16, literal(-6)))
          CFI (cfiCond11) ?RET_LOW load(1, XDATA, add(CFA_XSP16, literal(-5)))
          CFI (cfiCond11) ?RET_HIGH load(1, XDATA, add(CFA_XSP16, literal(-4)))
          CFI (cfiCond11) ?BRET_EXT load(1, XDATA, add(CFA_XSP16, literal(-3)))
          CFI (cfiCond11) DPL0 load(1, XDATA, add(CFA_XSP16, literal(-2)))
          CFI (cfiCond11) DPH0 load(1, XDATA, add(CFA_XSP16, literal(-1)))
          CFI (cfiCond11) CFA_SP SP+-2
          CFI (cfiCond11) CFA_XSP16 add(XSP16, 25)
          CFI Block cfiCond12 Using cfiCommon0
          CFI (cfiCond12) Function bdb_zclFindingBindingEpType
          CFI (cfiCond12) Conditional ??CrossCallReturnLabel_35
          CFI (cfiCond12) R6 load(1, XDATA, add(CFA_XSP16, literal(-14)))
          CFI (cfiCond12) VB load(1, XDATA, add(CFA_XSP16, literal(-13)))
          CFI (cfiCond12) V0 load(1, XDATA, add(CFA_XSP16, literal(-12)))
          CFI (cfiCond12) V1 load(1, XDATA, add(CFA_XSP16, literal(-11)))
          CFI (cfiCond12) V2 load(1, XDATA, add(CFA_XSP16, literal(-10)))
          CFI (cfiCond12) V3 load(1, XDATA, add(CFA_XSP16, literal(-9)))
          CFI (cfiCond12) V4 load(1, XDATA, add(CFA_XSP16, literal(-8)))
          CFI (cfiCond12) V5 load(1, XDATA, add(CFA_XSP16, literal(-7)))
          CFI (cfiCond12) R7 load(1, XDATA, add(CFA_XSP16, literal(-6)))
          CFI (cfiCond12) ?RET_LOW load(1, XDATA, add(CFA_XSP16, literal(-5)))
          CFI (cfiCond12) ?RET_HIGH load(1, XDATA, add(CFA_XSP16, literal(-4)))
          CFI (cfiCond12) ?BRET_EXT load(1, XDATA, add(CFA_XSP16, literal(-3)))
          CFI (cfiCond12) DPL0 load(1, XDATA, add(CFA_XSP16, literal(-2)))
          CFI (cfiCond12) DPH0 load(1, XDATA, add(CFA_XSP16, literal(-1)))
          CFI (cfiCond12) CFA_SP SP+-2
          CFI (cfiCond12) CFA_XSP16 add(XSP16, 14)
          CFI Block cfiPicker13 Using cfiCommon1
          CFI (cfiPicker13) NoFunction
          CFI (cfiPicker13) Picker
        LCALL     ?Subroutine32 & 0xFFFF
??CrossCallReturnLabel_115:
        MOV       R1,A
        RET
          CFI EndBlock cfiCond9
          CFI EndBlock cfiCond10
          CFI EndBlock cfiCond11
          CFI EndBlock cfiCond12
          CFI EndBlock cfiPicker13

        RSEG BANKED_CODE:HUGECODE:NOROOT(0)
?Subroutine14:
          CFI Block cfiCond14 Using cfiCommon0
          CFI Function bdb_ProcessIEEEAddrRsp
          CFI Conditional ??CrossCallReturnLabel_40
          CFI R6 load(1, XDATA, add(CFA_XSP16, literal(-10)))
          CFI VB load(1, XDATA, add(CFA_XSP16, literal(-9)))
          CFI V0 load(1, XDATA, add(CFA_XSP16, literal(-8)))
          CFI V1 load(1, XDATA, add(CFA_XSP16, literal(-7)))
          CFI R7 load(1, XDATA, add(CFA_XSP16, literal(-6)))
          CFI ?RET_LOW load(1, XDATA, add(CFA_XSP16, literal(-5)))
          CFI ?RET_HIGH load(1, XDATA, add(CFA_XSP16, literal(-4)))
          CFI ?BRET_EXT load(1, XDATA, add(CFA_XSP16, literal(-3)))
          CFI DPL0 load(1, XDATA, add(CFA_XSP16, literal(-2)))
          CFI DPH0 load(1, XDATA, add(CFA_XSP16, literal(-1)))
          CFI CFA_SP SP+-2
          CFI CFA_XSP16 add(XSP16, 25)
          CFI Block cfiCond15 Using cfiCommon0
          CFI (cfiCond15) Function bdb_ProcessSimpleDesc
          CFI (cfiCond15) Conditional ??CrossCallReturnLabel_41
          CFI (cfiCond15) R6 load(1, XDATA, add(CFA_XSP16, literal(-9)))
          CFI (cfiCond15) VB load(1, XDATA, add(CFA_XSP16, literal(-8)))
          CFI (cfiCond15) V0 load(1, XDATA, add(CFA_XSP16, literal(-7)))
          CFI (cfiCond15) R7 load(1, XDATA, add(CFA_XSP16, literal(-6)))
          CFI (cfiCond15) ?RET_LOW load(1, XDATA, add(CFA_XSP16, literal(-5)))
          CFI (cfiCond15) ?RET_HIGH load(1, XDATA, add(CFA_XSP16, literal(-4)))
          CFI (cfiCond15) ?BRET_EXT load(1, XDATA, add(CFA_XSP16, literal(-3)))
          CFI (cfiCond15) DPL0 load(1, XDATA, add(CFA_XSP16, literal(-2)))
          CFI (cfiCond15) DPH0 load(1, XDATA, add(CFA_XSP16, literal(-1)))
          CFI (cfiCond15) CFA_SP SP+-2
          CFI (cfiCond15) CFA_XSP16 add(XSP16, 28)
          CFI Block cfiPicker16 Using cfiCommon1
          CFI (cfiPicker16) NoFunction
          CFI (cfiPicker16) Picker
        MOV       DPL,?XSP + 0
        MOV       DPH,?XSP + 1
          CFI EndBlock cfiCond14
          CFI EndBlock cfiCond15
          CFI EndBlock cfiPicker16
        REQUIRE ??Subroutine35_0
        ; // Fall through to label ??Subroutine35_0

        RSEG BANKED_CODE:HUGECODE:NOROOT(0)
??Subroutine35_0:
          CFI Block cfiCond17 Using cfiCommon0
          CFI Function bdb_ZclIdentifyQueryCmdInd
          CFI Conditional ??CrossCallReturnLabel_36
          CFI R6 load(1, XDATA, add(CFA_XSP16, literal(-10)))
          CFI VB load(1, XDATA, add(CFA_XSP16, literal(-9)))
          CFI V0 load(1, XDATA, add(CFA_XSP16, literal(-8)))
          CFI V1 load(1, XDATA, add(CFA_XSP16, literal(-7)))
          CFI R7 load(1, XDATA, add(CFA_XSP16, literal(-6)))
          CFI ?RET_LOW load(1, XDATA, add(CFA_XSP16, literal(-5)))
          CFI ?RET_HIGH load(1, XDATA, add(CFA_XSP16, literal(-4)))
          CFI ?BRET_EXT load(1, XDATA, add(CFA_XSP16, literal(-3)))
          CFI DPL0 load(1, XDATA, add(CFA_XSP16, literal(-2)))
          CFI DPH0 load(1, XDATA, add(CFA_XSP16, literal(-1)))
          CFI CFA_SP SP+-2
          CFI CFA_XSP16 add(XSP16, 10)
          CFI Block cfiCond18 Using cfiCommon0
          CFI (cfiCond18) Function bdb_ProcessRespondentList
          CFI (cfiCond18) Conditional ??CrossCallReturnLabel_37
          CFI (cfiCond18) R6 load(1, XDATA, add(CFA_XSP16, literal(-9)))
          CFI (cfiCond18) VB load(1, XDATA, add(CFA_XSP16, literal(-8)))
          CFI (cfiCond18) V0 load(1, XDATA, add(CFA_XSP16, literal(-7)))
          CFI (cfiCond18) R7 load(1, XDATA, add(CFA_XSP16, literal(-6)))
          CFI (cfiCond18) ?RET_LOW load(1, XDATA, add(CFA_XSP16, literal(-5)))
          CFI (cfiCond18) ?RET_HIGH load(1, XDATA, add(CFA_XSP16, literal(-4)))
          CFI (cfiCond18) ?BRET_EXT load(1, XDATA, add(CFA_XSP16, literal(-3)))
          CFI (cfiCond18) DPL0 load(1, XDATA, add(CFA_XSP16, literal(-2)))
          CFI (cfiCond18) DPH0 load(1, XDATA, add(CFA_XSP16, literal(-1)))
          CFI (cfiCond18) CFA_SP SP+-2
          CFI (cfiCond18) CFA_XSP16 add(XSP16, 18)
          CFI Block cfiCond19 Using cfiCommon0
          CFI (cfiCond19) Function bdb_ProcessRespondentList
          CFI (cfiCond19) Conditional ??CrossCallReturnLabel_38
          CFI (cfiCond19) R6 load(1, XDATA, add(CFA_XSP16, literal(-9)))
          CFI (cfiCond19) VB load(1, XDATA, add(CFA_XSP16, literal(-8)))
          CFI (cfiCond19) V0 load(1, XDATA, add(CFA_XSP16, literal(-7)))
          CFI (cfiCond19) R7 load(1, XDATA, add(CFA_XSP16, literal(-6)))
          CFI (cfiCond19) ?RET_LOW load(1, XDATA, add(CFA_XSP16, literal(-5)))
          CFI (cfiCond19) ?RET_HIGH load(1, XDATA, add(CFA_XSP16, literal(-4)))
          CFI (cfiCond19) ?BRET_EXT load(1, XDATA, add(CFA_XSP16, literal(-3)))
          CFI (cfiCond19) DPL0 load(1, XDATA, add(CFA_XSP16, literal(-2)))
          CFI (cfiCond19) DPH0 load(1, XDATA, add(CFA_XSP16, literal(-1)))
          CFI (cfiCond19) CFA_SP SP+-2
          CFI (cfiCond19) CFA_XSP16 add(XSP16, 19)
          CFI Block cfiCond20 Using cfiCommon0
          CFI (cfiCond20) Function bdb_ProcessRespondentList
          CFI (cfiCond20) Conditional ??CrossCallReturnLabel_39
          CFI (cfiCond20) R6 load(1, XDATA, add(CFA_XSP16, literal(-9)))
          CFI (cfiCond20) VB load(1, XDATA, add(CFA_XSP16, literal(-8)))
          CFI (cfiCond20) V0 load(1, XDATA, add(CFA_XSP16, literal(-7)))
          CFI (cfiCond20) R7 load(1, XDATA, add(CFA_XSP16, literal(-6)))
          CFI (cfiCond20) ?RET_LOW load(1, XDATA, add(CFA_XSP16, literal(-5)))
          CFI (cfiCond20) ?RET_HIGH load(1, XDATA, add(CFA_XSP16, literal(-4)))
          CFI (cfiCond20) ?BRET_EXT load(1, XDATA, add(CFA_XSP16, literal(-3)))
          CFI (cfiCond20) DPL0 load(1, XDATA, add(CFA_XSP16, literal(-2)))
          CFI (cfiCond20) DPH0 load(1, XDATA, add(CFA_XSP16, literal(-1)))
          CFI (cfiCond20) CFA_SP SP+-2
          CFI (cfiCond20) CFA_XSP16 add(XSP16, 18)
          CFI Block cfiCond21 Using cfiCommon0
          CFI (cfiCond21) Function bdb_ProcessIEEEAddrRsp
          CFI (cfiCond21) Conditional ??CrossCallReturnLabel_40
          CFI (cfiCond21) R6 load(1, XDATA, add(CFA_XSP16, literal(-10)))
          CFI (cfiCond21) VB load(1, XDATA, add(CFA_XSP16, literal(-9)))
          CFI (cfiCond21) V0 load(1, XDATA, add(CFA_XSP16, literal(-8)))
          CFI (cfiCond21) V1 load(1, XDATA, add(CFA_XSP16, literal(-7)))
          CFI (cfiCond21) R7 load(1, XDATA, add(CFA_XSP16, literal(-6)))
          CFI (cfiCond21) ?RET_LOW load(1, XDATA, add(CFA_XSP16, literal(-5)))
          CFI (cfiCond21) ?RET_HIGH load(1, XDATA, add(CFA_XSP16, literal(-4)))
          CFI (cfiCond21) ?BRET_EXT load(1, XDATA, add(CFA_XSP16, literal(-3)))
          CFI (cfiCond21) DPL0 load(1, XDATA, add(CFA_XSP16, literal(-2)))
          CFI (cfiCond21) DPH0 load(1, XDATA, add(CFA_XSP16, literal(-1)))
          CFI (cfiCond21) CFA_SP SP+-2
          CFI (cfiCond21) CFA_XSP16 add(XSP16, 25)
          CFI Block cfiCond22 Using cfiCommon0
          CFI (cfiCond22) Function bdb_ProcessSimpleDesc
          CFI (cfiCond22) Conditional ??CrossCallReturnLabel_41
          CFI (cfiCond22) R6 load(1, XDATA, add(CFA_XSP16, literal(-9)))
          CFI (cfiCond22) VB load(1, XDATA, add(CFA_XSP16, literal(-8)))
          CFI (cfiCond22) V0 load(1, XDATA, add(CFA_XSP16, literal(-7)))
          CFI (cfiCond22) R7 load(1, XDATA, add(CFA_XSP16, literal(-6)))
          CFI (cfiCond22) ?RET_LOW load(1, XDATA, add(CFA_XSP16, literal(-5)))
          CFI (cfiCond22) ?RET_HIGH load(1, XDATA, add(CFA_XSP16, literal(-4)))
          CFI (cfiCond22) ?BRET_EXT load(1, XDATA, add(CFA_XSP16, literal(-3)))
          CFI (cfiCond22) DPL0 load(1, XDATA, add(CFA_XSP16, literal(-2)))
          CFI (cfiCond22) DPH0 load(1, XDATA, add(CFA_XSP16, literal(-1)))
          CFI (cfiCond22) CFA_SP SP+-2
          CFI (cfiCond22) CFA_XSP16 add(XSP16, 28)
          CFI Block cfiPicker23 Using cfiCommon1
          CFI (cfiPicker23) NoFunction
          CFI (cfiPicker23) Picker
        LCALL     ?Subroutine32 & 0xFFFF
??CrossCallReturnLabel_116:
        XCH       A,R0
        RET
          CFI EndBlock cfiCond17
          CFI EndBlock cfiCond18
          CFI EndBlock cfiCond19
          CFI EndBlock cfiCond20
          CFI EndBlock cfiCond21
          CFI EndBlock cfiCond22
          CFI EndBlock cfiPicker23

        RSEG BANKED_CODE:HUGECODE:NOROOT(0)
?Subroutine1:
          CFI Block cfiBlock24 Using cfiCommon0
          CFI NoFunction
          CFI CFA_SP SP+0
          CFI CFA_XSP16 add(XSP16, 22)
          CFI VB load(1, XDATA, add(CFA_XSP16, literal(-9)))
          CFI DPL0 load(1, XDATA, add(CFA_XSP16, literal(-2)))
          CFI DPH0 load(1, XDATA, add(CFA_XSP16, literal(-1)))
          CFI R6 load(1, XDATA, add(CFA_XSP16, literal(-10)))
          CFI R7 load(1, XDATA, add(CFA_XSP16, literal(-6)))
          CFI V0 load(1, XDATA, add(CFA_XSP16, literal(-8)))
          CFI V1 load(1, XDATA, add(CFA_XSP16, literal(-7)))
          CFI ?BRET_EXT load(1, XDATA, add(CFA_XSP16, literal(-3)))
          CFI ?RET_HIGH load(1, XDATA, add(CFA_XSP16, literal(-4)))
          CFI ?RET_LOW load(1, XDATA, add(CFA_XSP16, literal(-5)))
        MOV       A,#0xc
          CFI EndBlock cfiBlock24
        REQUIRE ??Subroutine36_0
        ; // Fall through to label ??Subroutine36_0

        RSEG BANKED_CODE:HUGECODE:NOROOT(0)
??Subroutine36_0:
          CFI Block cfiBlock25 Using cfiCommon0
          CFI NoFunction
          CFI CFA_SP SP+0
          CFI CFA_XSP16 add(XSP16, 25)
          CFI VB load(1, XDATA, add(CFA_XSP16, literal(-9)))
          CFI DPL0 load(1, XDATA, add(CFA_XSP16, literal(-2)))
          CFI DPH0 load(1, XDATA, add(CFA_XSP16, literal(-1)))
          CFI R6 load(1, XDATA, add(CFA_XSP16, literal(-10)))
          CFI R7 load(1, XDATA, add(CFA_XSP16, literal(-6)))
          CFI V0 load(1, XDATA, add(CFA_XSP16, literal(-8)))
          CFI V1 load(1, XDATA, add(CFA_XSP16, literal(-7)))
          CFI ?BRET_EXT load(1, XDATA, add(CFA_XSP16, literal(-3)))
          CFI ?RET_HIGH load(1, XDATA, add(CFA_XSP16, literal(-4)))
          CFI ?RET_LOW load(1, XDATA, add(CFA_XSP16, literal(-5)))
          CFI Invalid
        LCALL     ?DEALLOC_XSTACK8
          CFI EndBlock cfiBlock25
        REQUIRE ??Subroutine37_0
        ; // Fall through to label ??Subroutine37_0

        RSEG BANKED_CODE:HUGECODE:NOROOT(0)
??Subroutine37_0:
          CFI Block cfiBlock26 Using cfiCommon0
          CFI NoFunction
          CFI CFA_SP SP+0
          CFI CFA_XSP16 add(XSP16, 10)
          CFI VB load(1, XDATA, add(CFA_XSP16, literal(-9)))
          CFI DPL0 load(1, XDATA, add(CFA_XSP16, literal(-2)))
          CFI DPH0 load(1, XDATA, add(CFA_XSP16, literal(-1)))
          CFI R6 load(1, XDATA, add(CFA_XSP16, literal(-10)))
          CFI R7 load(1, XDATA, add(CFA_XSP16, literal(-6)))
          CFI V0 load(1, XDATA, add(CFA_XSP16, literal(-8)))
          CFI V1 load(1, XDATA, add(CFA_XSP16, literal(-7)))
          CFI ?BRET_EXT load(1, XDATA, add(CFA_XSP16, literal(-3)))
          CFI ?RET_HIGH load(1, XDATA, add(CFA_XSP16, literal(-4)))
          CFI ?RET_LOW load(1, XDATA, add(CFA_XSP16, literal(-5)))
        MOV       R7,#0x2
        LJMP      ?BANKED_LEAVE_XDATA
          CFI EndBlock cfiBlock26
//  367 
//  368 
//  369 /*********************************************************************
//  370  * @fn      bdb_StopInitiatorFindingBinding
//  371  *
//  372  * @brief   Stops finding and binding for initiator devices.
//  373  *
//  374  * @param   none
//  375  *
//  376  * @return  none
//  377  */

        RSEG BANKED_CODE:HUGECODE:NOROOT(0)
//  378 void bdb_StopInitiatorFindingBinding(void)
bdb_StopInitiatorFindingBinding:
          CFI Block cfiBlock27 Using cfiCommon0
          CFI Function bdb_StopInitiatorFindingBinding
        CODE
//  379 {
        FUNCALL bdb_StopInitiatorFindingBinding, osal_stop_timerEx
        LOCFRAME ISTACK, 2, STACK
        LOCFRAME PSTACK, 0, STACK
        LOCFRAME XSTACK, 0, STACK
        LOCFRAME IOVERLAY, 0, STATIC
        LOCFRAME DOVERLAY, 0, STATIC
        ARGFRAME ISTACK, 2, STACK
        ARGFRAME PSTACK, 0, STACK
        ARGFRAME XSTACK, 0, STACK
        ARGFRAME IOVERLAY, 0, STATIC
        ARGFRAME DOVERLAY, 0, STATIC
        FUNCALL bdb_StopInitiatorFindingBinding, bdb_zclRespondentListClean
        LOCFRAME ISTACK, 2, STACK
        LOCFRAME PSTACK, 0, STACK
        LOCFRAME XSTACK, 0, STACK
        LOCFRAME IOVERLAY, 0, STATIC
        LOCFRAME DOVERLAY, 0, STATIC
        ARGFRAME ISTACK, 2, STACK
        ARGFRAME PSTACK, 0, STACK
        ARGFRAME XSTACK, 0, STACK
        ARGFRAME IOVERLAY, 0, STATIC
        ARGFRAME DOVERLAY, 0, STATIC
        FUNCALL bdb_StopInitiatorFindingBinding, osal_stop_timerEx
        LOCFRAME ISTACK, 2, STACK
        LOCFRAME PSTACK, 0, STACK
        LOCFRAME XSTACK, 0, STACK
        LOCFRAME IOVERLAY, 0, STATIC
        LOCFRAME DOVERLAY, 0, STATIC
        ARGFRAME ISTACK, 2, STACK
        ARGFRAME PSTACK, 0, STACK
        ARGFRAME XSTACK, 0, STACK
        ARGFRAME IOVERLAY, 0, STATIC
        ARGFRAME DOVERLAY, 0, STATIC
        FUNCALL bdb_StopInitiatorFindingBinding, bdb_exitFindingBindingWStatus
        LOCFRAME ISTACK, 2, STACK
        LOCFRAME PSTACK, 0, STACK
        LOCFRAME XSTACK, 0, STACK
        LOCFRAME IOVERLAY, 0, STATIC
        LOCFRAME DOVERLAY, 0, STATIC
        ARGFRAME ISTACK, 2, STACK
        ARGFRAME PSTACK, 0, STACK
        ARGFRAME XSTACK, 0, STACK
        ARGFRAME IOVERLAY, 0, STATIC
        ARGFRAME DOVERLAY, 0, STATIC
        PUSH      DPL
          CFI DPL0 Frame(CFA_SP, 4)
          CFI CFA_SP SP+-4
        PUSH      DPH
          CFI DPH0 Frame(CFA_SP, 5)
          CFI CFA_SP SP+-5
        ; Saved register size: 2
        ; Auto size: 0
//  380   //If periodic was triggered, then finish it
//  381   if(FINDING_AND_BINDING_PERIODIC_ENABLE == TRUE)                                  
//  382   {
//  383     bdb_FB_InitiatorCurrentCyclesNumber = 0;
        LCALL     ?Subroutine23 & 0xFFFF
//  384     osal_stop_timerEx(bdb_TaskID, BDB_FINDING_AND_BINDING_PERIOD_TIMEOUT);
//  385   }      
??CrossCallReturnLabel_26:
        LCALL     `??osal_stop_timerEx::?relay`; Banked call to: osal_stop_timerEx
//  386   //Clean the respondent list and stop its timer
//  387   bdb_zclRespondentListClean( &pRespondentHead );
        ; Setup parameters for call to function bdb_zclRespondentListClean
        MOV       R2,#pRespondentHead & 0xff
        MOV       R3,#(pRespondentHead >> 8) & 0xff
        LCALL     `??bdb_zclRespondentListClean::?relay`; Banked call to: bdb_zclRespondentListClean
//  388   osal_stop_timerEx( bdb_TaskID, BDB_RESPONDENT_PROCESS_TIMEOUT );
        ; Setup parameters for call to function osal_stop_timerEx
        MOV       R2,#0x0
        MOV       R3,#0x40
        MOV       DPTR,#bdb_TaskID
        MOVX      A,@DPTR
        MOV       R1,A
        LCALL     `??osal_stop_timerEx::?relay`; Banked call to: osal_stop_timerEx
//  389   
//  390   //Notify status
//  391   bdb_exitFindingBindingWStatus( BDB_COMMISSIONING_FB_NO_IDENTIFY_QUERY_RESPONSE );
        ; Setup parameters for call to function bdb_exitFindingBindingWStatus
        MOV       R1,#0xb
        LCALL     `??bdb_exitFindingBindingWStatus::?relay`; Banked call to: bdb_exitFindingBindingWStatus
//  392 
//  393 }
        SJMP      ??Subroutine38_0
          CFI EndBlock cfiBlock27

        RSEG BANKED_CODE:HUGECODE:NOROOT(0)
?Subroutine23:
          CFI Block cfiCond28 Using cfiCommon0
          CFI Function bdb_ProcessIEEEAddrRsp
          CFI Conditional ??CrossCallReturnLabel_25
          CFI R6 load(1, XDATA, add(CFA_XSP16, literal(-10)))
          CFI VB load(1, XDATA, add(CFA_XSP16, literal(-9)))
          CFI V0 load(1, XDATA, add(CFA_XSP16, literal(-8)))
          CFI V1 load(1, XDATA, add(CFA_XSP16, literal(-7)))
          CFI R7 load(1, XDATA, add(CFA_XSP16, literal(-6)))
          CFI ?RET_LOW load(1, XDATA, add(CFA_XSP16, literal(-5)))
          CFI ?RET_HIGH load(1, XDATA, add(CFA_XSP16, literal(-4)))
          CFI ?BRET_EXT load(1, XDATA, add(CFA_XSP16, literal(-3)))
          CFI DPL0 load(1, XDATA, add(CFA_XSP16, literal(-2)))
          CFI DPH0 load(1, XDATA, add(CFA_XSP16, literal(-1)))
          CFI CFA_SP SP+-2
          CFI CFA_XSP16 add(XSP16, 25)
          CFI Block cfiCond29 Using cfiCommon0
          CFI (cfiCond29) Function bdb_StopInitiatorFindingBinding
          CFI (cfiCond29) Conditional ??CrossCallReturnLabel_26
          CFI (cfiCond29) DPL0 Frame(CFA_SP, 4)
          CFI (cfiCond29) DPH0 Frame(CFA_SP, 5)
          CFI (cfiCond29) CFA_SP SP+-7
          CFI Block cfiCond30 Using cfiCommon0
          CFI (cfiCond30) Function bdb_checkMatchingEndpoints
          CFI (cfiCond30) Conditional ??CrossCallReturnLabel_27
          CFI (cfiCond30) R6 load(1, XDATA, add(CFA_XSP16, literal(-16)))
          CFI (cfiCond30) VB load(1, XDATA, add(CFA_XSP16, literal(-15)))
          CFI (cfiCond30) V0 load(1, XDATA, add(CFA_XSP16, literal(-14)))
          CFI (cfiCond30) V1 load(1, XDATA, add(CFA_XSP16, literal(-13)))
          CFI (cfiCond30) V2 load(1, XDATA, add(CFA_XSP16, literal(-12)))
          CFI (cfiCond30) V3 load(1, XDATA, add(CFA_XSP16, literal(-11)))
          CFI (cfiCond30) V4 load(1, XDATA, add(CFA_XSP16, literal(-10)))
          CFI (cfiCond30) V5 load(1, XDATA, add(CFA_XSP16, literal(-9)))
          CFI (cfiCond30) V6 load(1, XDATA, add(CFA_XSP16, literal(-8)))
          CFI (cfiCond30) V7 load(1, XDATA, add(CFA_XSP16, literal(-7)))
          CFI (cfiCond30) R7 load(1, XDATA, add(CFA_XSP16, literal(-6)))
          CFI (cfiCond30) ?RET_LOW load(1, XDATA, add(CFA_XSP16, literal(-5)))
          CFI (cfiCond30) ?RET_HIGH load(1, XDATA, add(CFA_XSP16, literal(-4)))
          CFI (cfiCond30) ?BRET_EXT load(1, XDATA, add(CFA_XSP16, literal(-3)))
          CFI (cfiCond30) DPL0 load(1, XDATA, add(CFA_XSP16, literal(-2)))
          CFI (cfiCond30) DPH0 load(1, XDATA, add(CFA_XSP16, literal(-1)))
          CFI (cfiCond30) CFA_SP SP+-2
          CFI (cfiCond30) CFA_XSP16 add(XSP16, 29)
          CFI Block cfiPicker31 Using cfiCommon1
          CFI (cfiPicker31) NoFunction
          CFI (cfiPicker31) Picker
        MOV       DPTR,#bdb_FB_InitiatorCurrentCyclesNumber
        CLR       A
        MOVX      @DPTR,A
        ; Setup parameters for call to function osal_stop_timerEx
        ; Setup parameters for call to function osal_stop_timerEx
        ; Setup parameters for call to function osal_stop_timerEx
        MOV       R2,#0x40
        MOV       R3,A
        MOV       DPTR,#bdb_TaskID
        MOVX      A,@DPTR
        MOV       R1,A
        RET
          CFI EndBlock cfiCond28
          CFI EndBlock cfiCond29
          CFI EndBlock cfiCond30
          CFI EndBlock cfiPicker31

        RSEG BANKED_CODE:HUGECODE:NOROOT(0)
?Subroutine0:
          CFI Block cfiBlock32 Using cfiCommon0
          CFI NoFunction
          CFI CFA_SP SP+-5
          CFI DPL0 Frame(CFA_SP, 4)
          CFI DPH0 Frame(CFA_SP, 5)
        LCALL     ??Subroutine46_0 & 0xFFFF
??CrossCallReturnLabel_83:
          CFI EndBlock cfiBlock32
        REQUIRE ??Subroutine38_0
        ; // Fall through to label ??Subroutine38_0

        RSEG BANKED_CODE:HUGECODE:NOROOT(0)
??Subroutine38_0:
          CFI Block cfiBlock33 Using cfiCommon0
          CFI NoFunction
          CFI CFA_SP SP+-5
          CFI DPL0 Frame(CFA_SP, 4)
          CFI DPH0 Frame(CFA_SP, 5)
        POP       DPH
          CFI CFA_SP SP+-4
          CFI DPH0 SameValue
        POP       DPL
          CFI CFA_SP SP+-3
          CFI DPL0 SameValue
        LJMP      ?BRET
          CFI EndBlock cfiBlock33
//  394 
//  395 
//  396 /*********************************************************************
//  397  * @fn      bdb_checkMatchingEndpoints
//  398  *
//  399  * @brief   Check active endpoints for F&B and the respondant simple descriptor 
//  400  *          for matching application clusters
//  401  *
//  402  * @param   pRespondant - Respondant to be process
//  403  * @param   bindIfMatch - Flag to indicate that binds for matching cluster must 
//  404  *                        be done
//  405  *
//  406  * @return  status - Result of the operation
//  407  */

        RSEG BANKED_CODE:HUGECODE:NOROOT(0)
//  408 void bdb_checkMatchingEndpoints(uint8 bindIfMatch, uint16 shortAddr, bdbFindingBindingRespondent_t **pCurr)
bdb_checkMatchingEndpoints:
          CFI Block cfiBlock34 Using cfiCommon0
          CFI Function bdb_checkMatchingEndpoints
        CODE
//  409 {
        FUNCALL bdb_checkMatchingEndpoints, AddrMgrExtAddrLookup
        LOCFRAME ISTACK, 0, STACK
        LOCFRAME PSTACK, 0, STACK
        LOCFRAME XSTACK, 29, STACK
        LOCFRAME IOVERLAY, 0, STATIC
        LOCFRAME DOVERLAY, 0, STATIC
        ARGFRAME ISTACK, 0, STACK
        ARGFRAME PSTACK, 0, STACK
        ARGFRAME XSTACK, 29, STACK
        ARGFRAME IOVERLAY, 0, STATIC
        ARGFRAME DOVERLAY, 0, STATIC
        FUNCALL bdb_checkMatchingEndpoints, bdb_zclFindingBindingAddBindEntry
        LOCFRAME ISTACK, 0, STACK
        LOCFRAME PSTACK, 0, STACK
        LOCFRAME XSTACK, 34, STACK
        LOCFRAME IOVERLAY, 0, STATIC
        LOCFRAME DOVERLAY, 0, STATIC
        ARGFRAME ISTACK, 0, STACK
        ARGFRAME PSTACK, 0, STACK
        ARGFRAME XSTACK, 34, STACK
        ARGFRAME IOVERLAY, 0, STATIC
        ARGFRAME DOVERLAY, 0, STATIC
        FUNCALL bdb_checkMatchingEndpoints, bdb_zclFindingBindingAddBindEntry
        LOCFRAME ISTACK, 0, STACK
        LOCFRAME PSTACK, 0, STACK
        LOCFRAME XSTACK, 34, STACK
        LOCFRAME IOVERLAY, 0, STATIC
        LOCFRAME DOVERLAY, 0, STATIC
        ARGFRAME ISTACK, 0, STACK
        ARGFRAME PSTACK, 0, STACK
        ARGFRAME XSTACK, 34, STACK
        ARGFRAME IOVERLAY, 0, STATIC
        ARGFRAME DOVERLAY, 0, STATIC
        FUNCALL bdb_checkMatchingEndpoints, osal_stop_timerEx
        LOCFRAME ISTACK, 0, STACK
        LOCFRAME PSTACK, 0, STACK
        LOCFRAME XSTACK, 29, STACK
        LOCFRAME IOVERLAY, 0, STATIC
        LOCFRAME DOVERLAY, 0, STATIC
        ARGFRAME ISTACK, 0, STACK
        ARGFRAME PSTACK, 0, STACK
        ARGFRAME XSTACK, 29, STACK
        ARGFRAME IOVERLAY, 0, STATIC
        ARGFRAME DOVERLAY, 0, STATIC
        FUNCALL bdb_checkMatchingEndpoints, bdb_zclSimpleDescClusterListClean
        LOCFRAME ISTACK, 0, STACK
        LOCFRAME PSTACK, 0, STACK
        LOCFRAME XSTACK, 29, STACK
        LOCFRAME IOVERLAY, 0, STATIC
        LOCFRAME DOVERLAY, 0, STATIC
        ARGFRAME ISTACK, 0, STACK
        ARGFRAME PSTACK, 0, STACK
        ARGFRAME XSTACK, 29, STACK
        ARGFRAME IOVERLAY, 0, STATIC
        ARGFRAME DOVERLAY, 0, STATIC
        FUNCALL bdb_checkMatchingEndpoints, osal_stop_timerEx
        LOCFRAME ISTACK, 0, STACK
        LOCFRAME PSTACK, 0, STACK
        LOCFRAME XSTACK, 29, STACK
        LOCFRAME IOVERLAY, 0, STATIC
        LOCFRAME DOVERLAY, 0, STATIC
        ARGFRAME ISTACK, 0, STACK
        ARGFRAME PSTACK, 0, STACK
        ARGFRAME XSTACK, 29, STACK
        ARGFRAME IOVERLAY, 0, STATIC
        ARGFRAME DOVERLAY, 0, STATIC
        FUNCALL bdb_checkMatchingEndpoints, bdb_exitFindingBindingWStatus
        LOCFRAME ISTACK, 0, STACK
        LOCFRAME PSTACK, 0, STACK
        LOCFRAME XSTACK, 29, STACK
        LOCFRAME IOVERLAY, 0, STATIC
        LOCFRAME DOVERLAY, 0, STATIC
        ARGFRAME ISTACK, 0, STACK
        ARGFRAME PSTACK, 0, STACK
        ARGFRAME XSTACK, 29, STACK
        ARGFRAME IOVERLAY, 0, STATIC
        ARGFRAME DOVERLAY, 0, STATIC
        REQUIRE ?V0
        REQUIRE ?V1
        REQUIRE ?V2
        REQUIRE ?V3
        REQUIRE ?V4
        REQUIRE ?V5
        REQUIRE ?V6
        REQUIRE ?V7
        MOV       A,#-0x10
        LCALL     ?BANKED_ENTER_XDATA
          CFI DPH0 load(1, XDATA, add(CFA_XSP16, literal(-1)))
          CFI DPL0 load(1, XDATA, add(CFA_XSP16, literal(-2)))
          CFI ?BRET_EXT load(1, XDATA, add(CFA_XSP16, literal(-3)))
          CFI ?RET_HIGH load(1, XDATA, add(CFA_XSP16, literal(-4)))
          CFI ?RET_LOW load(1, XDATA, add(CFA_XSP16, literal(-5)))
          CFI R7 load(1, XDATA, add(CFA_XSP16, literal(-6)))
          CFI V7 load(1, XDATA, add(CFA_XSP16, literal(-7)))
          CFI V6 load(1, XDATA, add(CFA_XSP16, literal(-8)))
          CFI V5 load(1, XDATA, add(CFA_XSP16, literal(-9)))
          CFI V4 load(1, XDATA, add(CFA_XSP16, literal(-10)))
          CFI V3 load(1, XDATA, add(CFA_XSP16, literal(-11)))
          CFI V2 load(1, XDATA, add(CFA_XSP16, literal(-12)))
          CFI V1 load(1, XDATA, add(CFA_XSP16, literal(-13)))
          CFI V0 load(1, XDATA, add(CFA_XSP16, literal(-14)))
          CFI VB load(1, XDATA, add(CFA_XSP16, literal(-15)))
          CFI R6 load(1, XDATA, add(CFA_XSP16, literal(-16)))
          CFI CFA_SP SP+0
          CFI CFA_XSP16 add(XSP16, 16)
        ; Saved register size: 16
        ; Auto size: 13
        MOV       A,#-0xd
        LCALL     ?ALLOC_XSTACK8
          CFI CFA_XSP16 add(XSP16, 29)
        MOV       A,#0x2
        LCALL     ?XSTACK_DISP0_8
        LCALL     ??Subroutine46_0 & 0xFFFF
??CrossCallReturnLabel_78:
        MOV       DPL,?XSP + 0
        MOV       DPH,?XSP + 1
        MOV       A,R4
        MOVX      @DPTR,A
        INC       DPTR
        MOV       A,R5
        MOVX      @DPTR,A
        MOV       ?V0,R1
//  410   uint8 matchFound;
//  411   endPointDesc_t *bdb_CurrEpDescriptor;
//  412   uint8 i, status;
//  413   zAddrType_t dstAddr;
//  414 #ifdef ZCL_GROUPS
//  415   afAddrType_t afDstAddr;
//  416 #endif  
//  417   
//  418   //Check all the endpoints active for F&B
//  419   while(bdb_CurrEpDescriptorList != NULL)
        MOV       DPTR,#bdb_CurrEpDescriptorList
        LCALL     ??Subroutine50_0 & 0xFFFF
??CrossCallReturnLabel_105:
        JNZ       $+5
        LJMP      ??bdb_checkMatchingEndpoints_0 & 0xFFFF
//  420   {
//  421     matchFound = FALSE;
??bdb_checkMatchingEndpoints_1:
        MOV       R7,#0x0
//  422 
//  423     bdb_CurrEpDescriptor = bdb_CurrEpDescriptorList->epDesc;
        LCALL     ?Subroutine10 & 0xFFFF
??CrossCallReturnLabel_11:
        MOV       ?V4,A
        INC       DPTR
        MOVX      A,@DPTR
        MOV       ?V5,A
//  424 
//  425 #ifdef ZCL_GROUPS
//  426     if ( bdbAttributes.bdbCommissioningGroupID != 0xFFFF )    
//  427     {
//  428       zcl_registerClusterOptionList(bdb_CurrEpDescriptor->endPoint,1,zcl_Groups_Options);      
//  429       
//  430       dstAddr.addr.shortAddr = bdbAttributes.bdbCommissioningGroupID;
//  431       dstAddr.addrMode = AddrGroup;
//  432     }
//  433     else
//  434 #endif
//  435     {
//  436       dstAddr.addrMode = Addr64Bit;
        MOV       A,#0xc
        LCALL     ?XSTACK_DISP0_8
        MOV       A,#0x3
        MOVX      @DPTR,A
//  437       if(bindIfMatch)
        MOV       A,?V0
        JZ        ??bdb_checkMatchingEndpoints_2
//  438       {
//  439         //if bind is to be created, then we should have the ext address in addr mgr
//  440         AddrMgrExtAddrLookup( shortAddr, dstAddr.addr.extAddr );
        ; Setup parameters for call to function AddrMgrExtAddrLookup
        MOV       A,#0x4
        LCALL     ?XSTACK_DISP102_8
        MOV       A,#0x2
        LCALL     ?XSTACK_DISP0_8
        LCALL     ??Subroutine45_0 & 0xFFFF
//  441       }
//  442     }
??CrossCallReturnLabel_60:
        LCALL     `??AddrMgrExtAddrLookup::?relay`; Banked call to: AddrMgrExtAddrLookup
//  443     for(i = 0; i < bdb_CurrEpDescriptor->simpleDesc->AppNumOutClusters; i++)
??bdb_checkMatchingEndpoints_2:
        MOV       R6,#0x0
        MOV       A,?V4
        ADD       A,#0x4
        MOV       ?V6,A
        CLR       A
        ADDC      A,?V5
        MOV       ?V7,A
        SJMP      ??bdb_checkMatchingEndpoints_3
//  444     {
//  445       //Filter for Application clusters (to bind app clusters only)
//  446       status = bdb_zclFindingBindingAddBindEntry( bdb_CurrEpDescriptor->endPoint,
//  447                               bdb_CurrEpDescriptor->simpleDesc->pAppOutClusterList[i],
//  448                               bdb_FindingBindingTargetSimpleDesc.AppNumInClusters,
//  449                               bdb_FindingBindingTargetSimpleDesc.pAppInClusterList,
//  450                               &dstAddr, bdb_FindingBindingTargetSimpleDesc.EndPoint, bindIfMatch );
??bdb_checkMatchingEndpoints_4:
        ; Setup parameters for call to function bdb_zclFindingBindingAddBindEntry
        MOV       A,?V0
        MOV       ?V1,A
        MOV       R0,#?V1
        LCALL     ?PUSH_XSTACK_I_ONE
          CFI CFA_XSP16 add(XSP16, 30)
        MOV       A,#0x5
        LCALL     ?XSTACK_DISP100_8
        MOV       ?V2,R0
        MOV       ?V3,R1
        MOV       R0,#?V2
        LCALL     ?PUSH_XSTACK_I_TWO
          CFI CFA_XSP16 add(XSP16, 32)
        MOV       DPTR,#bdb_FindingBindingTargetSimpleDesc + 7
        LCALL     ?PUSH_XSTACK8_X_TWO
          CFI CFA_XSP16 add(XSP16, 34)
        MOV       DPTR,#bdb_FindingBindingTargetSimpleDesc
        MOVX      A,@DPTR
        MOV       R5,A
        MOV       DPTR,#bdb_FindingBindingTargetSimpleDesc + 6
        LCALL     ?Subroutine15 & 0xFFFF
??CrossCallReturnLabel_17:
        INC       DPTR
        INC       DPTR
        INC       DPTR
        LCALL     ?Subroutine8 & 0xFFFF
??CrossCallReturnLabel_6:
        LCALL     `??bdb_zclFindingBindingAddBindEntry::?relay`; Banked call to: bdb_zclFindingBindingAddBindEntry
        MOV       A,#0x5
        LCALL     ?DEALLOC_XSTACK8
          CFI CFA_XSP16 add(XSP16, 29)
        MOV       A,R1
        MOV       ?V1,A
//  451       
//  452       if ( status == ZApsTableFull )
        MOV       A,#-0x4e
        XRL       A,?V1
        JZ        ??bdb_checkMatchingEndpoints_5
//  453       {
//  454         break;
//  455       }
//  456       else if(status == ZSuccess)
        MOV       A,R1
        JNZ       ??bdb_checkMatchingEndpoints_6
//  457       {
//  458         matchFound = TRUE;
        MOV       R7,#0x1
//  459         //If a match is found and we are not adding due to lack of IEEE addrs, then skip looking
//  460         if(!bindIfMatch)
        MOV       A,?V0
        JZ        ??bdb_checkMatchingEndpoints_7
//  461         {
//  462           break;
//  463         }
//  464       }
//  465     }
??bdb_checkMatchingEndpoints_6:
        INC       R6
??bdb_checkMatchingEndpoints_3:
        LCALL     ?Subroutine13 & 0xFFFF
??CrossCallReturnLabel_15:
        INC       DPTR
        INC       DPTR
        INC       DPTR
        MOVX      A,@DPTR
        MOV       R0,A
        MOV       A,R6
        CLR       C
        SUBB      A,R0
        JC        ??bdb_checkMatchingEndpoints_4
//  466     
//  467     //Only search for other matches if the table is not full and we have not 
//  468     //found any match or we have to add bind as many as we can
//  469     if( (status != ZApsTableFull) && (!matchFound || bindIfMatch) )      
        MOV       A,#-0x4e
        XRL       A,?V1
        JZ        ??bdb_checkMatchingEndpoints_5
        MOV       A,R7
        MOV       C,0xE0 /* A   */.0
        JNC       ??bdb_checkMatchingEndpoints_8
        MOV       A,?V0
        JZ        ??bdb_checkMatchingEndpoints_5
//  470     {
//  471       for(i = 0; i < bdb_CurrEpDescriptor->simpleDesc->AppNumInClusters; i++)
??bdb_checkMatchingEndpoints_8:
        MOV       R6,#0x0
        SJMP      ??bdb_checkMatchingEndpoints_9
//  472       {
//  473         //Filter for Application clusters (to bind app clusters only)
//  474         status = bdb_zclFindingBindingAddBindEntry( bdb_CurrEpDescriptor->endPoint,
//  475                                 bdb_CurrEpDescriptor->simpleDesc->pAppInClusterList[i],
//  476                                 bdb_FindingBindingTargetSimpleDesc.AppNumOutClusters,
//  477                                 bdb_FindingBindingTargetSimpleDesc.pAppOutClusterList,
//  478                                 &dstAddr, bdb_FindingBindingTargetSimpleDesc.EndPoint, bindIfMatch );
//  479 
//  480         if ( status == ZApsTableFull )
//  481         {
//  482           break;
//  483         }
//  484         else if(status == ZSuccess)
??bdb_checkMatchingEndpoints_10:
        MOV       A,R1
        JNZ       ??bdb_checkMatchingEndpoints_11
//  485         {
//  486           matchFound = TRUE;
        MOV       R7,#0x1
//  487           
//  488           //If a match is found and we are not adding due to lack of IEEE addrs, then skip looking
//  489           if(!bindIfMatch)
        MOV       A,?V0
        JZ        ??bdb_checkMatchingEndpoints_7
//  490           {
//  491             break;
//  492           }
//  493         }
??bdb_checkMatchingEndpoints_11:
        INC       R6
??bdb_checkMatchingEndpoints_9:
        LCALL     ?Subroutine13 & 0xFFFF
??CrossCallReturnLabel_16:
        MOVX      A,@DPTR
        MOV       R0,A
        MOV       A,R6
        CLR       C
        SUBB      A,R0
        JNC       ??bdb_checkMatchingEndpoints_5
        ; Setup parameters for call to function bdb_zclFindingBindingAddBindEntry
        MOV       A,?V0
        MOV       ?V1,A
        MOV       R0,#?V1
        LCALL     ?PUSH_XSTACK_I_ONE
          CFI CFA_XSP16 add(XSP16, 30)
        MOV       A,#0x5
        LCALL     ?XSTACK_DISP100_8
        MOV       ?V2,R0
        MOV       ?V3,R1
        MOV       R0,#?V2
        LCALL     ?PUSH_XSTACK_I_TWO
          CFI CFA_XSP16 add(XSP16, 32)
        MOV       DPTR,#bdb_FindingBindingTargetSimpleDesc + 10
        LCALL     ?PUSH_XSTACK8_X_TWO
          CFI CFA_XSP16 add(XSP16, 34)
        MOV       DPTR,#bdb_FindingBindingTargetSimpleDesc
        MOVX      A,@DPTR
        MOV       R5,A
        MOV       DPTR,#bdb_FindingBindingTargetSimpleDesc + 9
        LCALL     ?Subroutine15 & 0xFFFF
??CrossCallReturnLabel_18:
        LCALL     ?Subroutine8 & 0xFFFF
??CrossCallReturnLabel_7:
        LCALL     `??bdb_zclFindingBindingAddBindEntry::?relay`; Banked call to: bdb_zclFindingBindingAddBindEntry
        MOV       A,#0x5
        LCALL     ?DEALLOC_XSTACK8
          CFI CFA_XSP16 add(XSP16, 29)
        MOV       A,R1
        MOV       ?V1,A
        MOV       A,#-0x4e
        XRL       A,?V1
        JNZ       ??bdb_checkMatchingEndpoints_10
//  494       }
//  495     }
//  496     
//  497     //Check if we have found any match
//  498     if( matchFound == TRUE )
??bdb_checkMatchingEndpoints_5:
        MOV       A,R7
        MOV       C,0xE0 /* A   */.0
        JNC       ??bdb_checkMatchingEndpoints_12
//  499     {
//  500       if(bindIfMatch)
        MOV       A,?V0
        JNZ       ??bdb_checkMatchingEndpoints_12
//  501       {
//  502         //Mark respondent as complete as simple desc has been process and we do 
//  503         //have IEEE addrs
//  504         (*pCurr)->attempts = FINDING_AND_BINDING_RESPONDENT_COMPLETE;
//  505       }
//  506       else
//  507       {
//  508         //Mark as we need IEEE addrs
//  509         (*pCurr)->attempts = FINDING_AND_BINDING_MISSING_IEEE_ADDR;
??bdb_checkMatchingEndpoints_7:
        LCALL     ?Subroutine9 & 0xFFFF
//  510       }
//  511 
//  512 #ifdef ZCL_GROUPS
//  513       if ( bdbAttributes.bdbCommissioningGroupID != 0xFFFF )
//  514       {
//  515         afDstAddr.addr.shortAddr = shortAddr;
//  516         afDstAddr.addrMode = afAddr16Bit;
//  517         afDstAddr.endPoint = bdb_FindingBindingTargetSimpleDesc.EndPoint;
//  518             
//  519         zclGeneral_SendAddGroupRequest( bdb_CurrEpDescriptor->endPoint, &afDstAddr,
//  520                                     COMMAND_GROUP_ADD, bdbAttributes.bdbCommissioningGroupID, grpName,
//  521                                     TRUE, 0x00 );
//  522       }
//  523 #endif
//  524     }
??CrossCallReturnLabel_8:
        MOV       A,#-0x80
        SJMP      ??bdb_checkMatchingEndpoints_13
//  525     else
//  526     {
//  527       //No matching cluster, then we are done with this respondent
//  528       (*pCurr)->attempts = FINDING_AND_BINDING_RESPONDENT_COMPLETE;
??bdb_checkMatchingEndpoints_12:
        LCALL     ?Subroutine9 & 0xFFFF
//  529     }
??CrossCallReturnLabel_9:
        MOV       A,#-0x1
??bdb_checkMatchingEndpoints_13:
        MOVX      @DPTR,A
//  530     
//  531     if ( status == ZApsTableFull )
        MOV       A,#-0x4e
        XRL       A,?V1
        JNZ       ??bdb_checkMatchingEndpoints_14
//  532     {
//  533       //If periodic was triggered, then finish it
//  534       if(FINDING_AND_BINDING_PERIODIC_ENABLE == TRUE)                                  
//  535       {
//  536         bdb_FB_InitiatorCurrentCyclesNumber = 0;
        LCALL     ?Subroutine23 & 0xFFFF
//  537         osal_stop_timerEx(bdb_TaskID, BDB_FINDING_AND_BINDING_PERIOD_TIMEOUT);
//  538       }      
??CrossCallReturnLabel_27:
        LCALL     `??osal_stop_timerEx::?relay`; Banked call to: osal_stop_timerEx
//  539       
//  540       bdb_zclSimpleDescClusterListClean( &bdb_FindingBindingTargetSimpleDesc );
        ; Setup parameters for call to function bdb_zclSimpleDescClusterListClean
        MOV       R2,#bdb_FindingBindingTargetSimpleDesc & 0xff
        MOV       R3,#(bdb_FindingBindingTargetSimpleDesc >> 8) & 0xff
        LCALL     `??bdb_zclSimpleDescClusterListClean::?relay`; Banked call to: bdb_zclSimpleDescClusterListClean
//  541       osal_stop_timerEx( bdb_TaskID, BDB_RESPONDENT_PROCESS_TIMEOUT );
        ; Setup parameters for call to function osal_stop_timerEx
        MOV       R2,#0x0
        MOV       R3,#0x40
        MOV       DPTR,#bdb_TaskID
        MOVX      A,@DPTR
        MOV       R1,A
        LCALL     `??osal_stop_timerEx::?relay`; Banked call to: osal_stop_timerEx
//  542       bdb_exitFindingBindingWStatus( BDB_COMMISSIONING_FB_BINDING_TABLE_FULL );
        ; Setup parameters for call to function bdb_exitFindingBindingWStatus
        MOV       R1,#0xc
        LCALL     `??bdb_exitFindingBindingWStatus::?relay`; Banked call to: bdb_exitFindingBindingWStatus
//  543       
//  544       return;
        SJMP      ??bdb_checkMatchingEndpoints_0
//  545     }
//  546     
//  547     //If an specific endpoint was requested, then don't go trough the rest of 
//  548     //the endpoints
//  549     if( bdbIndentifyActiveEndpoint != 0xFF )
??bdb_checkMatchingEndpoints_14:
        MOV       DPTR,#bdbIndentifyActiveEndpoint
        MOVX      A,@DPTR
        CPL       A
        JNZ       ??bdb_checkMatchingEndpoints_0
//  550     {
//  551       break;
//  552     }
//  553     else
//  554     {
//  555       //If active endpoints 'all' is attempted, then process the next endpoint in 
//  556       //the list
//  557       bdb_CurrEpDescriptorList = bdb_CurrEpDescriptorList->nextDesc;
        SJMP      ??bdb_checkMatchingEndpoints_15
//  558 
//  559       while(bdb_CurrEpDescriptorList != NULL)
//  560       {
//  561         //It has to be different from 0 or reserved for Zigbee
//  562         if((bdb_CurrEpDescriptorList->epDesc->endPoint != 0) && (bdb_CurrEpDescriptorList->epDesc->endPoint < BDB_ZIGBEE_RESERVED_ENDPOINTS_START))
??bdb_checkMatchingEndpoints_16:
        LCALL     ?Subroutine7 & 0xFFFF
??CrossCallReturnLabel_5:
        JZ        ??bdb_checkMatchingEndpoints_15
        CLR       C
        SUBB      A,#-0xf
        JNC       $+5
        LJMP      ??bdb_checkMatchingEndpoints_1 & 0xFFFF
//  563         {
//  564           break;
//  565         }
//  566         bdb_CurrEpDescriptorList = bdb_CurrEpDescriptorList->nextDesc;
??bdb_checkMatchingEndpoints_15:
        LCALL     ?Subroutine5 & 0xFFFF
//  567       }
??CrossCallReturnLabel_2:
        MOV       DPTR,#bdb_CurrEpDescriptorList
        LCALL     ??Subroutine50_0 & 0xFFFF
//  568     }
//  569   }
??CrossCallReturnLabel_106:
        JNZ       ??bdb_checkMatchingEndpoints_16
//  570 }
??bdb_checkMatchingEndpoints_0:
        MOV       A,#0xd
          CFI EndBlock cfiBlock34
        REQUIRE ?Subroutine2
        ; // Fall through to label ?Subroutine2

        RSEG BANKED_CODE:HUGECODE:NOROOT(0)
?Subroutine2:
          CFI Block cfiBlock35 Using cfiCommon0
          CFI NoFunction
          CFI CFA_SP SP+0
          CFI CFA_XSP16 add(XSP16, 29)
          CFI VB load(1, XDATA, add(CFA_XSP16, literal(-15)))
          CFI DPL0 load(1, XDATA, add(CFA_XSP16, literal(-2)))
          CFI DPH0 load(1, XDATA, add(CFA_XSP16, literal(-1)))
          CFI R6 load(1, XDATA, add(CFA_XSP16, literal(-16)))
          CFI R7 load(1, XDATA, add(CFA_XSP16, literal(-6)))
          CFI V0 load(1, XDATA, add(CFA_XSP16, literal(-14)))
          CFI V1 load(1, XDATA, add(CFA_XSP16, literal(-13)))
          CFI V2 load(1, XDATA, add(CFA_XSP16, literal(-12)))
          CFI V3 load(1, XDATA, add(CFA_XSP16, literal(-11)))
          CFI V4 load(1, XDATA, add(CFA_XSP16, literal(-10)))
          CFI V5 load(1, XDATA, add(CFA_XSP16, literal(-9)))
          CFI V6 load(1, XDATA, add(CFA_XSP16, literal(-8)))
          CFI V7 load(1, XDATA, add(CFA_XSP16, literal(-7)))
          CFI ?BRET_EXT load(1, XDATA, add(CFA_XSP16, literal(-3)))
          CFI ?RET_HIGH load(1, XDATA, add(CFA_XSP16, literal(-4)))
          CFI ?RET_LOW load(1, XDATA, add(CFA_XSP16, literal(-5)))
          CFI Invalid
        LCALL     ?DEALLOC_XSTACK8
          CFI CFA_XSP16 add(XSP16, 16)
          CFI Valid
        MOV       R7,#0x8
        LJMP      ?BANKED_LEAVE_XDATA
          CFI EndBlock cfiBlock35

        RSEG BANKED_CODE:HUGECODE:NOROOT(0)
?Subroutine15:
          CFI Block cfiCond36 Using cfiCommon0
          CFI Function bdb_checkMatchingEndpoints
          CFI Conditional ??CrossCallReturnLabel_17
          CFI R6 load(1, XDATA, add(CFA_XSP16, literal(-16)))
          CFI VB load(1, XDATA, add(CFA_XSP16, literal(-15)))
          CFI V0 load(1, XDATA, add(CFA_XSP16, literal(-14)))
          CFI V1 load(1, XDATA, add(CFA_XSP16, literal(-13)))
          CFI V2 load(1, XDATA, add(CFA_XSP16, literal(-12)))
          CFI V3 load(1, XDATA, add(CFA_XSP16, literal(-11)))
          CFI V4 load(1, XDATA, add(CFA_XSP16, literal(-10)))
          CFI V5 load(1, XDATA, add(CFA_XSP16, literal(-9)))
          CFI V6 load(1, XDATA, add(CFA_XSP16, literal(-8)))
          CFI V7 load(1, XDATA, add(CFA_XSP16, literal(-7)))
          CFI R7 load(1, XDATA, add(CFA_XSP16, literal(-6)))
          CFI ?RET_LOW load(1, XDATA, add(CFA_XSP16, literal(-5)))
          CFI ?RET_HIGH load(1, XDATA, add(CFA_XSP16, literal(-4)))
          CFI ?BRET_EXT load(1, XDATA, add(CFA_XSP16, literal(-3)))
          CFI DPL0 load(1, XDATA, add(CFA_XSP16, literal(-2)))
          CFI DPH0 load(1, XDATA, add(CFA_XSP16, literal(-1)))
          CFI CFA_SP SP+-2
          CFI CFA_XSP16 add(XSP16, 34)
          CFI Block cfiCond37 Using cfiCommon0
          CFI (cfiCond37) Function bdb_checkMatchingEndpoints
          CFI (cfiCond37) Conditional ??CrossCallReturnLabel_18
          CFI (cfiCond37) R6 load(1, XDATA, add(CFA_XSP16, literal(-16)))
          CFI (cfiCond37) VB load(1, XDATA, add(CFA_XSP16, literal(-15)))
          CFI (cfiCond37) V0 load(1, XDATA, add(CFA_XSP16, literal(-14)))
          CFI (cfiCond37) V1 load(1, XDATA, add(CFA_XSP16, literal(-13)))
          CFI (cfiCond37) V2 load(1, XDATA, add(CFA_XSP16, literal(-12)))
          CFI (cfiCond37) V3 load(1, XDATA, add(CFA_XSP16, literal(-11)))
          CFI (cfiCond37) V4 load(1, XDATA, add(CFA_XSP16, literal(-10)))
          CFI (cfiCond37) V5 load(1, XDATA, add(CFA_XSP16, literal(-9)))
          CFI (cfiCond37) V6 load(1, XDATA, add(CFA_XSP16, literal(-8)))
          CFI (cfiCond37) V7 load(1, XDATA, add(CFA_XSP16, literal(-7)))
          CFI (cfiCond37) R7 load(1, XDATA, add(CFA_XSP16, literal(-6)))
          CFI (cfiCond37) ?RET_LOW load(1, XDATA, add(CFA_XSP16, literal(-5)))
          CFI (cfiCond37) ?RET_HIGH load(1, XDATA, add(CFA_XSP16, literal(-4)))
          CFI (cfiCond37) ?BRET_EXT load(1, XDATA, add(CFA_XSP16, literal(-3)))
          CFI (cfiCond37) DPL0 load(1, XDATA, add(CFA_XSP16, literal(-2)))
          CFI (cfiCond37) DPH0 load(1, XDATA, add(CFA_XSP16, literal(-1)))
          CFI (cfiCond37) CFA_SP SP+-2
          CFI (cfiCond37) CFA_XSP16 add(XSP16, 34)
          CFI Block cfiPicker38 Using cfiCommon1
          CFI (cfiPicker38) NoFunction
          CFI (cfiPicker38) Picker
        MOVX      A,@DPTR
        MOV       R4,A
        MOV       A,R6
        ADD       A,0xE0 /* A   */
        MOV       R0,A
        CLR       A
        RLC       A
        MOV       R1,A
        MOV       DPL,R2
        MOV       DPH,R3
        RET
          CFI EndBlock cfiCond36
          CFI EndBlock cfiCond37
          CFI EndBlock cfiPicker38

        RSEG BANKED_CODE:HUGECODE:NOROOT(0)
?Subroutine13:
          CFI Block cfiCond39 Using cfiCommon0
          CFI Function bdb_checkMatchingEndpoints
          CFI Conditional ??CrossCallReturnLabel_15
          CFI R6 load(1, XDATA, add(CFA_XSP16, literal(-16)))
          CFI VB load(1, XDATA, add(CFA_XSP16, literal(-15)))
          CFI V0 load(1, XDATA, add(CFA_XSP16, literal(-14)))
          CFI V1 load(1, XDATA, add(CFA_XSP16, literal(-13)))
          CFI V2 load(1, XDATA, add(CFA_XSP16, literal(-12)))
          CFI V3 load(1, XDATA, add(CFA_XSP16, literal(-11)))
          CFI V4 load(1, XDATA, add(CFA_XSP16, literal(-10)))
          CFI V5 load(1, XDATA, add(CFA_XSP16, literal(-9)))
          CFI V6 load(1, XDATA, add(CFA_XSP16, literal(-8)))
          CFI V7 load(1, XDATA, add(CFA_XSP16, literal(-7)))
          CFI R7 load(1, XDATA, add(CFA_XSP16, literal(-6)))
          CFI ?RET_LOW load(1, XDATA, add(CFA_XSP16, literal(-5)))
          CFI ?RET_HIGH load(1, XDATA, add(CFA_XSP16, literal(-4)))
          CFI ?BRET_EXT load(1, XDATA, add(CFA_XSP16, literal(-3)))
          CFI DPL0 load(1, XDATA, add(CFA_XSP16, literal(-2)))
          CFI DPH0 load(1, XDATA, add(CFA_XSP16, literal(-1)))
          CFI CFA_SP SP+-2
          CFI CFA_XSP16 add(XSP16, 29)
          CFI Block cfiCond40 Using cfiCommon0
          CFI (cfiCond40) Function bdb_checkMatchingEndpoints
          CFI (cfiCond40) Conditional ??CrossCallReturnLabel_16
          CFI (cfiCond40) R6 load(1, XDATA, add(CFA_XSP16, literal(-16)))
          CFI (cfiCond40) VB load(1, XDATA, add(CFA_XSP16, literal(-15)))
          CFI (cfiCond40) V0 load(1, XDATA, add(CFA_XSP16, literal(-14)))
          CFI (cfiCond40) V1 load(1, XDATA, add(CFA_XSP16, literal(-13)))
          CFI (cfiCond40) V2 load(1, XDATA, add(CFA_XSP16, literal(-12)))
          CFI (cfiCond40) V3 load(1, XDATA, add(CFA_XSP16, literal(-11)))
          CFI (cfiCond40) V4 load(1, XDATA, add(CFA_XSP16, literal(-10)))
          CFI (cfiCond40) V5 load(1, XDATA, add(CFA_XSP16, literal(-9)))
          CFI (cfiCond40) V6 load(1, XDATA, add(CFA_XSP16, literal(-8)))
          CFI (cfiCond40) V7 load(1, XDATA, add(CFA_XSP16, literal(-7)))
          CFI (cfiCond40) R7 load(1, XDATA, add(CFA_XSP16, literal(-6)))
          CFI (cfiCond40) ?RET_LOW load(1, XDATA, add(CFA_XSP16, literal(-5)))
          CFI (cfiCond40) ?RET_HIGH load(1, XDATA, add(CFA_XSP16, literal(-4)))
          CFI (cfiCond40) ?BRET_EXT load(1, XDATA, add(CFA_XSP16, literal(-3)))
          CFI (cfiCond40) DPL0 load(1, XDATA, add(CFA_XSP16, literal(-2)))
          CFI (cfiCond40) DPH0 load(1, XDATA, add(CFA_XSP16, literal(-1)))
          CFI (cfiCond40) CFA_SP SP+-2
          CFI (cfiCond40) CFA_XSP16 add(XSP16, 29)
          CFI Block cfiPicker41 Using cfiCommon1
          CFI (cfiPicker41) NoFunction
          CFI (cfiPicker41) Picker
        MOV       DPL,?V6
        MOV       DPH,?V7
        LCALL     ?Subroutine29 & 0xFFFF
??CrossCallReturnLabel_75:
        MOV       DPL,R2
        MOV       DPH,R3
        INC       DPTR
        INC       DPTR
        INC       DPTR
        INC       DPTR
        INC       DPTR
        INC       DPTR
        RET
          CFI EndBlock cfiCond39
          CFI EndBlock cfiCond40
          CFI EndBlock cfiPicker41

        RSEG BANKED_CODE:HUGECODE:NOROOT(0)
?Subroutine10:
          CFI Block cfiCond42 Using cfiCommon0
          CFI Function bdb_setEpDescListToActiveEndpoint
          CFI Conditional ??CrossCallReturnLabel_10
          CFI DPL0 Frame(CFA_SP, 4)
          CFI DPH0 Frame(CFA_SP, 5)
          CFI CFA_SP SP+-7
          CFI Block cfiCond43 Using cfiCommon0
          CFI (cfiCond43) Function bdb_checkMatchingEndpoints
          CFI (cfiCond43) Conditional ??CrossCallReturnLabel_11
          CFI (cfiCond43) R6 load(1, XDATA, add(CFA_XSP16, literal(-16)))
          CFI (cfiCond43) VB load(1, XDATA, add(CFA_XSP16, literal(-15)))
          CFI (cfiCond43) V0 load(1, XDATA, add(CFA_XSP16, literal(-14)))
          CFI (cfiCond43) V1 load(1, XDATA, add(CFA_XSP16, literal(-13)))
          CFI (cfiCond43) V2 load(1, XDATA, add(CFA_XSP16, literal(-12)))
          CFI (cfiCond43) V3 load(1, XDATA, add(CFA_XSP16, literal(-11)))
          CFI (cfiCond43) V4 load(1, XDATA, add(CFA_XSP16, literal(-10)))
          CFI (cfiCond43) V5 load(1, XDATA, add(CFA_XSP16, literal(-9)))
          CFI (cfiCond43) V6 load(1, XDATA, add(CFA_XSP16, literal(-8)))
          CFI (cfiCond43) V7 load(1, XDATA, add(CFA_XSP16, literal(-7)))
          CFI (cfiCond43) R7 load(1, XDATA, add(CFA_XSP16, literal(-6)))
          CFI (cfiCond43) ?RET_LOW load(1, XDATA, add(CFA_XSP16, literal(-5)))
          CFI (cfiCond43) ?RET_HIGH load(1, XDATA, add(CFA_XSP16, literal(-4)))
          CFI (cfiCond43) ?BRET_EXT load(1, XDATA, add(CFA_XSP16, literal(-3)))
          CFI (cfiCond43) DPL0 load(1, XDATA, add(CFA_XSP16, literal(-2)))
          CFI (cfiCond43) DPH0 load(1, XDATA, add(CFA_XSP16, literal(-1)))
          CFI (cfiCond43) CFA_SP SP+-2
          CFI (cfiCond43) CFA_XSP16 add(XSP16, 29)
          CFI Block cfiCond44 Using cfiCommon0
          CFI (cfiCond44) Function bdb_ProcessSimpleDesc
          CFI (cfiCond44) Conditional ??CrossCallReturnLabel_12
          CFI (cfiCond44) R6 load(1, XDATA, add(CFA_XSP16, literal(-9)))
          CFI (cfiCond44) VB load(1, XDATA, add(CFA_XSP16, literal(-8)))
          CFI (cfiCond44) V0 load(1, XDATA, add(CFA_XSP16, literal(-7)))
          CFI (cfiCond44) R7 load(1, XDATA, add(CFA_XSP16, literal(-6)))
          CFI (cfiCond44) ?RET_LOW load(1, XDATA, add(CFA_XSP16, literal(-5)))
          CFI (cfiCond44) ?RET_HIGH load(1, XDATA, add(CFA_XSP16, literal(-4)))
          CFI (cfiCond44) ?BRET_EXT load(1, XDATA, add(CFA_XSP16, literal(-3)))
          CFI (cfiCond44) DPL0 load(1, XDATA, add(CFA_XSP16, literal(-2)))
          CFI (cfiCond44) DPH0 load(1, XDATA, add(CFA_XSP16, literal(-1)))
          CFI (cfiCond44) CFA_SP SP+-2
          CFI (cfiCond44) CFA_XSP16 add(XSP16, 28)
          CFI Block cfiPicker45 Using cfiCommon1
          CFI (cfiPicker45) NoFunction
          CFI (cfiPicker45) Picker
        MOV       DPTR,#bdb_CurrEpDescriptorList
        LCALL     ?Subroutine30 & 0xFFFF
??CrossCallReturnLabel_57:
        INC       DPTR
        INC       DPTR
        MOVX      A,@DPTR
        RET
          CFI EndBlock cfiCond42
          CFI EndBlock cfiCond43
          CFI EndBlock cfiCond44
          CFI EndBlock cfiPicker45

        RSEG BANKED_CODE:HUGECODE:NOROOT(0)
?Subroutine30:
          CFI Block cfiCond46 Using cfiCommon0
          CFI Function bdb_setEpDescListToActiveEndpoint
          CFI Conditional ??CrossCallReturnLabel_57, ??CrossCallReturnLabel_10
          CFI DPL0 Frame(CFA_SP, 4)
          CFI DPH0 Frame(CFA_SP, 5)
          CFI CFA_SP SP+-9
          CFI Block cfiCond47 Using cfiCommon0
          CFI (cfiCond47) Function bdb_checkMatchingEndpoints
          CFI (cfiCond47) Conditional ??CrossCallReturnLabel_57, ??CrossCallReturnLabel_11
          CFI (cfiCond47) R6 load(1, XDATA, add(CFA_XSP16, literal(-16)))
          CFI (cfiCond47) VB load(1, XDATA, add(CFA_XSP16, literal(-15)))
          CFI (cfiCond47) V0 load(1, XDATA, add(CFA_XSP16, literal(-14)))
          CFI (cfiCond47) V1 load(1, XDATA, add(CFA_XSP16, literal(-13)))
          CFI (cfiCond47) V2 load(1, XDATA, add(CFA_XSP16, literal(-12)))
          CFI (cfiCond47) V3 load(1, XDATA, add(CFA_XSP16, literal(-11)))
          CFI (cfiCond47) V4 load(1, XDATA, add(CFA_XSP16, literal(-10)))
          CFI (cfiCond47) V5 load(1, XDATA, add(CFA_XSP16, literal(-9)))
          CFI (cfiCond47) V6 load(1, XDATA, add(CFA_XSP16, literal(-8)))
          CFI (cfiCond47) V7 load(1, XDATA, add(CFA_XSP16, literal(-7)))
          CFI (cfiCond47) R7 load(1, XDATA, add(CFA_XSP16, literal(-6)))
          CFI (cfiCond47) ?RET_LOW load(1, XDATA, add(CFA_XSP16, literal(-5)))
          CFI (cfiCond47) ?RET_HIGH load(1, XDATA, add(CFA_XSP16, literal(-4)))
          CFI (cfiCond47) ?BRET_EXT load(1, XDATA, add(CFA_XSP16, literal(-3)))
          CFI (cfiCond47) DPL0 load(1, XDATA, add(CFA_XSP16, literal(-2)))
          CFI (cfiCond47) DPH0 load(1, XDATA, add(CFA_XSP16, literal(-1)))
          CFI (cfiCond47) CFA_SP SP+-4
          CFI (cfiCond47) CFA_XSP16 add(XSP16, 29)
          CFI Block cfiCond48 Using cfiCommon0
          CFI (cfiCond48) Function bdb_ProcessSimpleDesc
          CFI (cfiCond48) Conditional ??CrossCallReturnLabel_57, ??CrossCallReturnLabel_12
          CFI (cfiCond48) R6 load(1, XDATA, add(CFA_XSP16, literal(-9)))
          CFI (cfiCond48) VB load(1, XDATA, add(CFA_XSP16, literal(-8)))
          CFI (cfiCond48) V0 load(1, XDATA, add(CFA_XSP16, literal(-7)))
          CFI (cfiCond48) R7 load(1, XDATA, add(CFA_XSP16, literal(-6)))
          CFI (cfiCond48) ?RET_LOW load(1, XDATA, add(CFA_XSP16, literal(-5)))
          CFI (cfiCond48) ?RET_HIGH load(1, XDATA, add(CFA_XSP16, literal(-4)))
          CFI (cfiCond48) ?BRET_EXT load(1, XDATA, add(CFA_XSP16, literal(-3)))
          CFI (cfiCond48) DPL0 load(1, XDATA, add(CFA_XSP16, literal(-2)))
          CFI (cfiCond48) DPH0 load(1, XDATA, add(CFA_XSP16, literal(-1)))
          CFI (cfiCond48) CFA_SP SP+-4
          CFI (cfiCond48) CFA_XSP16 add(XSP16, 28)
          CFI Block cfiCond49 Using cfiCommon0
          CFI (cfiCond49) Function bdb_checkMatchingEndpoints
          CFI (cfiCond49) Conditional ??CrossCallReturnLabel_56, ??CrossCallReturnLabel_8
          CFI (cfiCond49) R6 load(1, XDATA, add(CFA_XSP16, literal(-16)))
          CFI (cfiCond49) VB load(1, XDATA, add(CFA_XSP16, literal(-15)))
          CFI (cfiCond49) V0 load(1, XDATA, add(CFA_XSP16, literal(-14)))
          CFI (cfiCond49) V1 load(1, XDATA, add(CFA_XSP16, literal(-13)))
          CFI (cfiCond49) V2 load(1, XDATA, add(CFA_XSP16, literal(-12)))
          CFI (cfiCond49) V3 load(1, XDATA, add(CFA_XSP16, literal(-11)))
          CFI (cfiCond49) V4 load(1, XDATA, add(CFA_XSP16, literal(-10)))
          CFI (cfiCond49) V5 load(1, XDATA, add(CFA_XSP16, literal(-9)))
          CFI (cfiCond49) V6 load(1, XDATA, add(CFA_XSP16, literal(-8)))
          CFI (cfiCond49) V7 load(1, XDATA, add(CFA_XSP16, literal(-7)))
          CFI (cfiCond49) R7 load(1, XDATA, add(CFA_XSP16, literal(-6)))
          CFI (cfiCond49) ?RET_LOW load(1, XDATA, add(CFA_XSP16, literal(-5)))
          CFI (cfiCond49) ?RET_HIGH load(1, XDATA, add(CFA_XSP16, literal(-4)))
          CFI (cfiCond49) ?BRET_EXT load(1, XDATA, add(CFA_XSP16, literal(-3)))
          CFI (cfiCond49) DPL0 load(1, XDATA, add(CFA_XSP16, literal(-2)))
          CFI (cfiCond49) DPH0 load(1, XDATA, add(CFA_XSP16, literal(-1)))
          CFI (cfiCond49) CFA_SP SP+-4
          CFI (cfiCond49) CFA_XSP16 add(XSP16, 29)
          CFI Block cfiCond50 Using cfiCommon0
          CFI (cfiCond50) Function bdb_checkMatchingEndpoints
          CFI (cfiCond50) Conditional ??CrossCallReturnLabel_56, ??CrossCallReturnLabel_9
          CFI (cfiCond50) R6 load(1, XDATA, add(CFA_XSP16, literal(-16)))
          CFI (cfiCond50) VB load(1, XDATA, add(CFA_XSP16, literal(-15)))
          CFI (cfiCond50) V0 load(1, XDATA, add(CFA_XSP16, literal(-14)))
          CFI (cfiCond50) V1 load(1, XDATA, add(CFA_XSP16, literal(-13)))
          CFI (cfiCond50) V2 load(1, XDATA, add(CFA_XSP16, literal(-12)))
          CFI (cfiCond50) V3 load(1, XDATA, add(CFA_XSP16, literal(-11)))
          CFI (cfiCond50) V4 load(1, XDATA, add(CFA_XSP16, literal(-10)))
          CFI (cfiCond50) V5 load(1, XDATA, add(CFA_XSP16, literal(-9)))
          CFI (cfiCond50) V6 load(1, XDATA, add(CFA_XSP16, literal(-8)))
          CFI (cfiCond50) V7 load(1, XDATA, add(CFA_XSP16, literal(-7)))
          CFI (cfiCond50) R7 load(1, XDATA, add(CFA_XSP16, literal(-6)))
          CFI (cfiCond50) ?RET_LOW load(1, XDATA, add(CFA_XSP16, literal(-5)))
          CFI (cfiCond50) ?RET_HIGH load(1, XDATA, add(CFA_XSP16, literal(-4)))
          CFI (cfiCond50) ?BRET_EXT load(1, XDATA, add(CFA_XSP16, literal(-3)))
          CFI (cfiCond50) DPL0 load(1, XDATA, add(CFA_XSP16, literal(-2)))
          CFI (cfiCond50) DPH0 load(1, XDATA, add(CFA_XSP16, literal(-1)))
          CFI (cfiCond50) CFA_SP SP+-4
          CFI (cfiCond50) CFA_XSP16 add(XSP16, 29)
          CFI Block cfiPicker51 Using cfiCommon1
          CFI (cfiPicker51) NoFunction
          CFI (cfiPicker51) Picker
        MOVX      A,@DPTR
        MOV       R0,A
          CFI EndBlock cfiCond46
          CFI EndBlock cfiCond47
          CFI EndBlock cfiCond48
          CFI EndBlock cfiCond49
          CFI EndBlock cfiCond50
          CFI EndBlock cfiPicker51
        REQUIRE ??Subroutine39_0
        ; // Fall through to label ??Subroutine39_0

        RSEG BANKED_CODE:HUGECODE:NOROOT(0)
??Subroutine39_0:
          CFI Block cfiCond52 Using cfiCommon0
          CFI Function bdb_ProcessSimpleDesc
          CFI Conditional ??CrossCallReturnLabel_58, ??CrossCallReturnLabel_53
          CFI R6 load(1, XDATA, add(CFA_XSP16, literal(-9)))
          CFI VB load(1, XDATA, add(CFA_XSP16, literal(-8)))
          CFI V0 load(1, XDATA, add(CFA_XSP16, literal(-7)))
          CFI R7 load(1, XDATA, add(CFA_XSP16, literal(-6)))
          CFI ?RET_LOW load(1, XDATA, add(CFA_XSP16, literal(-5)))
          CFI ?RET_HIGH load(1, XDATA, add(CFA_XSP16, literal(-4)))
          CFI ?BRET_EXT load(1, XDATA, add(CFA_XSP16, literal(-3)))
          CFI DPL0 load(1, XDATA, add(CFA_XSP16, literal(-2)))
          CFI DPH0 load(1, XDATA, add(CFA_XSP16, literal(-1)))
          CFI CFA_SP SP+-4
          CFI CFA_XSP16 add(XSP16, 28)
          CFI Block cfiCond53 Using cfiCommon0
          CFI (cfiCond53) Function bdb_GetFBInitiatorStatus
          CFI (cfiCond53) Conditional ??CrossCallReturnLabel_58, ??CrossCallReturnLabel_54
          CFI (cfiCond53) R6 load(1, XDATA, add(CFA_XSP16, literal(-16)))
          CFI (cfiCond53) VB load(1, XDATA, add(CFA_XSP16, literal(-15)))
          CFI (cfiCond53) V0 load(1, XDATA, add(CFA_XSP16, literal(-14)))
          CFI (cfiCond53) V1 load(1, XDATA, add(CFA_XSP16, literal(-13)))
          CFI (cfiCond53) V2 load(1, XDATA, add(CFA_XSP16, literal(-12)))
          CFI (cfiCond53) V3 load(1, XDATA, add(CFA_XSP16, literal(-11)))
          CFI (cfiCond53) V4 load(1, XDATA, add(CFA_XSP16, literal(-10)))
          CFI (cfiCond53) V5 load(1, XDATA, add(CFA_XSP16, literal(-9)))
          CFI (cfiCond53) V6 load(1, XDATA, add(CFA_XSP16, literal(-8)))
          CFI (cfiCond53) V7 load(1, XDATA, add(CFA_XSP16, literal(-7)))
          CFI (cfiCond53) R7 load(1, XDATA, add(CFA_XSP16, literal(-6)))
          CFI (cfiCond53) ?RET_LOW load(1, XDATA, add(CFA_XSP16, literal(-5)))
          CFI (cfiCond53) ?RET_HIGH load(1, XDATA, add(CFA_XSP16, literal(-4)))
          CFI (cfiCond53) ?BRET_EXT load(1, XDATA, add(CFA_XSP16, literal(-3)))
          CFI (cfiCond53) DPL0 load(1, XDATA, add(CFA_XSP16, literal(-2)))
          CFI (cfiCond53) DPH0 load(1, XDATA, add(CFA_XSP16, literal(-1)))
          CFI (cfiCond53) CFA_SP SP+-5
          CFI (cfiCond53) CFA_XSP16 add(XSP16, 18)
          CFI Block cfiCond54 Using cfiCommon0
          CFI (cfiCond54) Function bdb_ProcessSimpleDesc
          CFI (cfiCond54) Conditional ??CrossCallReturnLabel_58, ??CrossCallReturnLabel_51
          CFI (cfiCond54) R6 load(1, XDATA, add(CFA_XSP16, literal(-9)))
          CFI (cfiCond54) VB load(1, XDATA, add(CFA_XSP16, literal(-8)))
          CFI (cfiCond54) V0 load(1, XDATA, add(CFA_XSP16, literal(-7)))
          CFI (cfiCond54) R7 load(1, XDATA, add(CFA_XSP16, literal(-6)))
          CFI (cfiCond54) ?RET_LOW load(1, XDATA, add(CFA_XSP16, literal(-5)))
          CFI (cfiCond54) ?RET_HIGH load(1, XDATA, add(CFA_XSP16, literal(-4)))
          CFI (cfiCond54) ?BRET_EXT load(1, XDATA, add(CFA_XSP16, literal(-3)))
          CFI (cfiCond54) DPL0 load(1, XDATA, add(CFA_XSP16, literal(-2)))
          CFI (cfiCond54) DPH0 load(1, XDATA, add(CFA_XSP16, literal(-1)))
          CFI (cfiCond54) CFA_SP SP+-4
          CFI (cfiCond54) CFA_XSP16 add(XSP16, 28)
          CFI Block cfiCond55 Using cfiCommon0
          CFI (cfiCond55) Function bdb_zclFindingBindingAddBindEntry
          CFI (cfiCond55) Conditional ??CrossCallReturnLabel_58, ??CrossCallReturnLabel_52
          CFI (cfiCond55) R6 load(1, XDATA, add(CFA_XSP16, literal(-12)))
          CFI (cfiCond55) VB load(1, XDATA, add(CFA_XSP16, literal(-11)))
          CFI (cfiCond55) V0 load(1, XDATA, add(CFA_XSP16, literal(-10)))
          CFI (cfiCond55) V1 load(1, XDATA, add(CFA_XSP16, literal(-9)))
          CFI (cfiCond55) V2 load(1, XDATA, add(CFA_XSP16, literal(-8)))
          CFI (cfiCond55) V3 load(1, XDATA, add(CFA_XSP16, literal(-7)))
          CFI (cfiCond55) R7 load(1, XDATA, add(CFA_XSP16, literal(-6)))
          CFI (cfiCond55) ?RET_LOW load(1, XDATA, add(CFA_XSP16, literal(-5)))
          CFI (cfiCond55) ?RET_HIGH load(1, XDATA, add(CFA_XSP16, literal(-4)))
          CFI (cfiCond55) ?BRET_EXT load(1, XDATA, add(CFA_XSP16, literal(-3)))
          CFI (cfiCond55) DPL0 load(1, XDATA, add(CFA_XSP16, literal(-2)))
          CFI (cfiCond55) DPH0 load(1, XDATA, add(CFA_XSP16, literal(-1)))
          CFI (cfiCond55) CFA_SP SP+-4
          CFI (cfiCond55) CFA_XSP16 add(XSP16, 16)
          CFI Block cfiCond56 Using cfiCommon0
          CFI (cfiCond56) Function bdb_setEpDescListToActiveEndpoint
          CFI (cfiCond56) Conditional ??CrossCallReturnLabel_57, ??CrossCallReturnLabel_10
          CFI (cfiCond56) DPL0 Frame(CFA_SP, 4)
          CFI (cfiCond56) DPH0 Frame(CFA_SP, 5)
          CFI (cfiCond56) CFA_SP SP+-9
          CFI Block cfiCond57 Using cfiCommon0
          CFI (cfiCond57) Function bdb_checkMatchingEndpoints
          CFI (cfiCond57) Conditional ??CrossCallReturnLabel_57, ??CrossCallReturnLabel_11
          CFI (cfiCond57) R6 load(1, XDATA, add(CFA_XSP16, literal(-16)))
          CFI (cfiCond57) VB load(1, XDATA, add(CFA_XSP16, literal(-15)))
          CFI (cfiCond57) V0 load(1, XDATA, add(CFA_XSP16, literal(-14)))
          CFI (cfiCond57) V1 load(1, XDATA, add(CFA_XSP16, literal(-13)))
          CFI (cfiCond57) V2 load(1, XDATA, add(CFA_XSP16, literal(-12)))
          CFI (cfiCond57) V3 load(1, XDATA, add(CFA_XSP16, literal(-11)))
          CFI (cfiCond57) V4 load(1, XDATA, add(CFA_XSP16, literal(-10)))
          CFI (cfiCond57) V5 load(1, XDATA, add(CFA_XSP16, literal(-9)))
          CFI (cfiCond57) V6 load(1, XDATA, add(CFA_XSP16, literal(-8)))
          CFI (cfiCond57) V7 load(1, XDATA, add(CFA_XSP16, literal(-7)))
          CFI (cfiCond57) R7 load(1, XDATA, add(CFA_XSP16, literal(-6)))
          CFI (cfiCond57) ?RET_LOW load(1, XDATA, add(CFA_XSP16, literal(-5)))
          CFI (cfiCond57) ?RET_HIGH load(1, XDATA, add(CFA_XSP16, literal(-4)))
          CFI (cfiCond57) ?BRET_EXT load(1, XDATA, add(CFA_XSP16, literal(-3)))
          CFI (cfiCond57) DPL0 load(1, XDATA, add(CFA_XSP16, literal(-2)))
          CFI (cfiCond57) DPH0 load(1, XDATA, add(CFA_XSP16, literal(-1)))
          CFI (cfiCond57) CFA_SP SP+-4
          CFI (cfiCond57) CFA_XSP16 add(XSP16, 29)
          CFI Block cfiCond58 Using cfiCommon0
          CFI (cfiCond58) Function bdb_ProcessSimpleDesc
          CFI (cfiCond58) Conditional ??CrossCallReturnLabel_57, ??CrossCallReturnLabel_12
          CFI (cfiCond58) R6 load(1, XDATA, add(CFA_XSP16, literal(-9)))
          CFI (cfiCond58) VB load(1, XDATA, add(CFA_XSP16, literal(-8)))
          CFI (cfiCond58) V0 load(1, XDATA, add(CFA_XSP16, literal(-7)))
          CFI (cfiCond58) R7 load(1, XDATA, add(CFA_XSP16, literal(-6)))
          CFI (cfiCond58) ?RET_LOW load(1, XDATA, add(CFA_XSP16, literal(-5)))
          CFI (cfiCond58) ?RET_HIGH load(1, XDATA, add(CFA_XSP16, literal(-4)))
          CFI (cfiCond58) ?BRET_EXT load(1, XDATA, add(CFA_XSP16, literal(-3)))
          CFI (cfiCond58) DPL0 load(1, XDATA, add(CFA_XSP16, literal(-2)))
          CFI (cfiCond58) DPH0 load(1, XDATA, add(CFA_XSP16, literal(-1)))
          CFI (cfiCond58) CFA_SP SP+-4
          CFI (cfiCond58) CFA_XSP16 add(XSP16, 28)
          CFI Block cfiCond59 Using cfiCommon0
          CFI (cfiCond59) Function bdb_checkMatchingEndpoints
          CFI (cfiCond59) Conditional ??CrossCallReturnLabel_56, ??CrossCallReturnLabel_8
          CFI (cfiCond59) R6 load(1, XDATA, add(CFA_XSP16, literal(-16)))
          CFI (cfiCond59) VB load(1, XDATA, add(CFA_XSP16, literal(-15)))
          CFI (cfiCond59) V0 load(1, XDATA, add(CFA_XSP16, literal(-14)))
          CFI (cfiCond59) V1 load(1, XDATA, add(CFA_XSP16, literal(-13)))
          CFI (cfiCond59) V2 load(1, XDATA, add(CFA_XSP16, literal(-12)))
          CFI (cfiCond59) V3 load(1, XDATA, add(CFA_XSP16, literal(-11)))
          CFI (cfiCond59) V4 load(1, XDATA, add(CFA_XSP16, literal(-10)))
          CFI (cfiCond59) V5 load(1, XDATA, add(CFA_XSP16, literal(-9)))
          CFI (cfiCond59) V6 load(1, XDATA, add(CFA_XSP16, literal(-8)))
          CFI (cfiCond59) V7 load(1, XDATA, add(CFA_XSP16, literal(-7)))
          CFI (cfiCond59) R7 load(1, XDATA, add(CFA_XSP16, literal(-6)))
          CFI (cfiCond59) ?RET_LOW load(1, XDATA, add(CFA_XSP16, literal(-5)))
          CFI (cfiCond59) ?RET_HIGH load(1, XDATA, add(CFA_XSP16, literal(-4)))
          CFI (cfiCond59) ?BRET_EXT load(1, XDATA, add(CFA_XSP16, literal(-3)))
          CFI (cfiCond59) DPL0 load(1, XDATA, add(CFA_XSP16, literal(-2)))
          CFI (cfiCond59) DPH0 load(1, XDATA, add(CFA_XSP16, literal(-1)))
          CFI (cfiCond59) CFA_SP SP+-4
          CFI (cfiCond59) CFA_XSP16 add(XSP16, 29)
          CFI Block cfiCond60 Using cfiCommon0
          CFI (cfiCond60) Function bdb_checkMatchingEndpoints
          CFI (cfiCond60) Conditional ??CrossCallReturnLabel_56, ??CrossCallReturnLabel_9
          CFI (cfiCond60) R6 load(1, XDATA, add(CFA_XSP16, literal(-16)))
          CFI (cfiCond60) VB load(1, XDATA, add(CFA_XSP16, literal(-15)))
          CFI (cfiCond60) V0 load(1, XDATA, add(CFA_XSP16, literal(-14)))
          CFI (cfiCond60) V1 load(1, XDATA, add(CFA_XSP16, literal(-13)))
          CFI (cfiCond60) V2 load(1, XDATA, add(CFA_XSP16, literal(-12)))
          CFI (cfiCond60) V3 load(1, XDATA, add(CFA_XSP16, literal(-11)))
          CFI (cfiCond60) V4 load(1, XDATA, add(CFA_XSP16, literal(-10)))
          CFI (cfiCond60) V5 load(1, XDATA, add(CFA_XSP16, literal(-9)))
          CFI (cfiCond60) V6 load(1, XDATA, add(CFA_XSP16, literal(-8)))
          CFI (cfiCond60) V7 load(1, XDATA, add(CFA_XSP16, literal(-7)))
          CFI (cfiCond60) R7 load(1, XDATA, add(CFA_XSP16, literal(-6)))
          CFI (cfiCond60) ?RET_LOW load(1, XDATA, add(CFA_XSP16, literal(-5)))
          CFI (cfiCond60) ?RET_HIGH load(1, XDATA, add(CFA_XSP16, literal(-4)))
          CFI (cfiCond60) ?BRET_EXT load(1, XDATA, add(CFA_XSP16, literal(-3)))
          CFI (cfiCond60) DPL0 load(1, XDATA, add(CFA_XSP16, literal(-2)))
          CFI (cfiCond60) DPH0 load(1, XDATA, add(CFA_XSP16, literal(-1)))
          CFI (cfiCond60) CFA_SP SP+-4
          CFI (cfiCond60) CFA_XSP16 add(XSP16, 29)
          CFI Block cfiPicker61 Using cfiCommon1
          CFI (cfiPicker61) NoFunction
          CFI (cfiPicker61) Picker
        INC       DPTR
          CFI EndBlock cfiCond52
          CFI EndBlock cfiCond53
          CFI EndBlock cfiCond54
          CFI EndBlock cfiCond55
          CFI EndBlock cfiCond56
          CFI EndBlock cfiCond57
          CFI EndBlock cfiCond58
          CFI EndBlock cfiCond59
          CFI EndBlock cfiCond60
          CFI EndBlock cfiPicker61
        REQUIRE ??Subroutine40_0
        ; // Fall through to label ??Subroutine40_0

        RSEG BANKED_CODE:HUGECODE:NOROOT(0)
??Subroutine40_0:
          CFI Block cfiCond62 Using cfiCommon0
          CFI Function bdb_setEpDescListToActiveEndpoint
          CFI Conditional ??CrossCallReturnLabel_55, ??CrossCallReturnLabel_3
          CFI DPL0 Frame(CFA_SP, 4)
          CFI DPH0 Frame(CFA_SP, 5)
          CFI CFA_SP SP+-9
          CFI Block cfiCond63 Using cfiCommon0
          CFI (cfiCond63) Function bdb_setEpDescListToActiveEndpoint
          CFI (cfiCond63) Conditional ??CrossCallReturnLabel_55, ??CrossCallReturnLabel_4
          CFI (cfiCond63) DPL0 Frame(CFA_SP, 4)
          CFI (cfiCond63) DPH0 Frame(CFA_SP, 5)
          CFI (cfiCond63) CFA_SP SP+-9
          CFI Block cfiCond64 Using cfiCommon0
          CFI (cfiCond64) Function bdb_checkMatchingEndpoints
          CFI (cfiCond64) Conditional ??CrossCallReturnLabel_55, ??CrossCallReturnLabel_5
          CFI (cfiCond64) R6 load(1, XDATA, add(CFA_XSP16, literal(-16)))
          CFI (cfiCond64) VB load(1, XDATA, add(CFA_XSP16, literal(-15)))
          CFI (cfiCond64) V0 load(1, XDATA, add(CFA_XSP16, literal(-14)))
          CFI (cfiCond64) V1 load(1, XDATA, add(CFA_XSP16, literal(-13)))
          CFI (cfiCond64) V2 load(1, XDATA, add(CFA_XSP16, literal(-12)))
          CFI (cfiCond64) V3 load(1, XDATA, add(CFA_XSP16, literal(-11)))
          CFI (cfiCond64) V4 load(1, XDATA, add(CFA_XSP16, literal(-10)))
          CFI (cfiCond64) V5 load(1, XDATA, add(CFA_XSP16, literal(-9)))
          CFI (cfiCond64) V6 load(1, XDATA, add(CFA_XSP16, literal(-8)))
          CFI (cfiCond64) V7 load(1, XDATA, add(CFA_XSP16, literal(-7)))
          CFI (cfiCond64) R7 load(1, XDATA, add(CFA_XSP16, literal(-6)))
          CFI (cfiCond64) ?RET_LOW load(1, XDATA, add(CFA_XSP16, literal(-5)))
          CFI (cfiCond64) ?RET_HIGH load(1, XDATA, add(CFA_XSP16, literal(-4)))
          CFI (cfiCond64) ?BRET_EXT load(1, XDATA, add(CFA_XSP16, literal(-3)))
          CFI (cfiCond64) DPL0 load(1, XDATA, add(CFA_XSP16, literal(-2)))
          CFI (cfiCond64) DPH0 load(1, XDATA, add(CFA_XSP16, literal(-1)))
          CFI (cfiCond64) CFA_SP SP+-4
          CFI (cfiCond64) CFA_XSP16 add(XSP16, 29)
          CFI Block cfiCond65 Using cfiCommon0
          CFI (cfiCond65) Function bdb_ProcessSimpleDesc
          CFI (cfiCond65) Conditional ??CrossCallReturnLabel_58, ??CrossCallReturnLabel_53
          CFI (cfiCond65) R6 load(1, XDATA, add(CFA_XSP16, literal(-9)))
          CFI (cfiCond65) VB load(1, XDATA, add(CFA_XSP16, literal(-8)))
          CFI (cfiCond65) V0 load(1, XDATA, add(CFA_XSP16, literal(-7)))
          CFI (cfiCond65) R7 load(1, XDATA, add(CFA_XSP16, literal(-6)))
          CFI (cfiCond65) ?RET_LOW load(1, XDATA, add(CFA_XSP16, literal(-5)))
          CFI (cfiCond65) ?RET_HIGH load(1, XDATA, add(CFA_XSP16, literal(-4)))
          CFI (cfiCond65) ?BRET_EXT load(1, XDATA, add(CFA_XSP16, literal(-3)))
          CFI (cfiCond65) DPL0 load(1, XDATA, add(CFA_XSP16, literal(-2)))
          CFI (cfiCond65) DPH0 load(1, XDATA, add(CFA_XSP16, literal(-1)))
          CFI (cfiCond65) CFA_SP SP+-4
          CFI (cfiCond65) CFA_XSP16 add(XSP16, 28)
          CFI Block cfiCond66 Using cfiCommon0
          CFI (cfiCond66) Function bdb_GetFBInitiatorStatus
          CFI (cfiCond66) Conditional ??CrossCallReturnLabel_58, ??CrossCallReturnLabel_54
          CFI (cfiCond66) R6 load(1, XDATA, add(CFA_XSP16, literal(-16)))
          CFI (cfiCond66) VB load(1, XDATA, add(CFA_XSP16, literal(-15)))
          CFI (cfiCond66) V0 load(1, XDATA, add(CFA_XSP16, literal(-14)))
          CFI (cfiCond66) V1 load(1, XDATA, add(CFA_XSP16, literal(-13)))
          CFI (cfiCond66) V2 load(1, XDATA, add(CFA_XSP16, literal(-12)))
          CFI (cfiCond66) V3 load(1, XDATA, add(CFA_XSP16, literal(-11)))
          CFI (cfiCond66) V4 load(1, XDATA, add(CFA_XSP16, literal(-10)))
          CFI (cfiCond66) V5 load(1, XDATA, add(CFA_XSP16, literal(-9)))
          CFI (cfiCond66) V6 load(1, XDATA, add(CFA_XSP16, literal(-8)))
          CFI (cfiCond66) V7 load(1, XDATA, add(CFA_XSP16, literal(-7)))
          CFI (cfiCond66) R7 load(1, XDATA, add(CFA_XSP16, literal(-6)))
          CFI (cfiCond66) ?RET_LOW load(1, XDATA, add(CFA_XSP16, literal(-5)))
          CFI (cfiCond66) ?RET_HIGH load(1, XDATA, add(CFA_XSP16, literal(-4)))
          CFI (cfiCond66) ?BRET_EXT load(1, XDATA, add(CFA_XSP16, literal(-3)))
          CFI (cfiCond66) DPL0 load(1, XDATA, add(CFA_XSP16, literal(-2)))
          CFI (cfiCond66) DPH0 load(1, XDATA, add(CFA_XSP16, literal(-1)))
          CFI (cfiCond66) CFA_SP SP+-5
          CFI (cfiCond66) CFA_XSP16 add(XSP16, 18)
          CFI Block cfiCond67 Using cfiCommon0
          CFI (cfiCond67) Function bdb_ProcessSimpleDesc
          CFI (cfiCond67) Conditional ??CrossCallReturnLabel_58, ??CrossCallReturnLabel_51
          CFI (cfiCond67) R6 load(1, XDATA, add(CFA_XSP16, literal(-9)))
          CFI (cfiCond67) VB load(1, XDATA, add(CFA_XSP16, literal(-8)))
          CFI (cfiCond67) V0 load(1, XDATA, add(CFA_XSP16, literal(-7)))
          CFI (cfiCond67) R7 load(1, XDATA, add(CFA_XSP16, literal(-6)))
          CFI (cfiCond67) ?RET_LOW load(1, XDATA, add(CFA_XSP16, literal(-5)))
          CFI (cfiCond67) ?RET_HIGH load(1, XDATA, add(CFA_XSP16, literal(-4)))
          CFI (cfiCond67) ?BRET_EXT load(1, XDATA, add(CFA_XSP16, literal(-3)))
          CFI (cfiCond67) DPL0 load(1, XDATA, add(CFA_XSP16, literal(-2)))
          CFI (cfiCond67) DPH0 load(1, XDATA, add(CFA_XSP16, literal(-1)))
          CFI (cfiCond67) CFA_SP SP+-4
          CFI (cfiCond67) CFA_XSP16 add(XSP16, 28)
          CFI Block cfiCond68 Using cfiCommon0
          CFI (cfiCond68) Function bdb_zclFindingBindingAddBindEntry
          CFI (cfiCond68) Conditional ??CrossCallReturnLabel_58, ??CrossCallReturnLabel_52
          CFI (cfiCond68) R6 load(1, XDATA, add(CFA_XSP16, literal(-12)))
          CFI (cfiCond68) VB load(1, XDATA, add(CFA_XSP16, literal(-11)))
          CFI (cfiCond68) V0 load(1, XDATA, add(CFA_XSP16, literal(-10)))
          CFI (cfiCond68) V1 load(1, XDATA, add(CFA_XSP16, literal(-9)))
          CFI (cfiCond68) V2 load(1, XDATA, add(CFA_XSP16, literal(-8)))
          CFI (cfiCond68) V3 load(1, XDATA, add(CFA_XSP16, literal(-7)))
          CFI (cfiCond68) R7 load(1, XDATA, add(CFA_XSP16, literal(-6)))
          CFI (cfiCond68) ?RET_LOW load(1, XDATA, add(CFA_XSP16, literal(-5)))
          CFI (cfiCond68) ?RET_HIGH load(1, XDATA, add(CFA_XSP16, literal(-4)))
          CFI (cfiCond68) ?BRET_EXT load(1, XDATA, add(CFA_XSP16, literal(-3)))
          CFI (cfiCond68) DPL0 load(1, XDATA, add(CFA_XSP16, literal(-2)))
          CFI (cfiCond68) DPH0 load(1, XDATA, add(CFA_XSP16, literal(-1)))
          CFI (cfiCond68) CFA_SP SP+-4
          CFI (cfiCond68) CFA_XSP16 add(XSP16, 16)
          CFI Block cfiCond69 Using cfiCommon0
          CFI (cfiCond69) Function bdb_setEpDescListToActiveEndpoint
          CFI (cfiCond69) Conditional ??CrossCallReturnLabel_57, ??CrossCallReturnLabel_10
          CFI (cfiCond69) DPL0 Frame(CFA_SP, 4)
          CFI (cfiCond69) DPH0 Frame(CFA_SP, 5)
          CFI (cfiCond69) CFA_SP SP+-9
          CFI Block cfiCond70 Using cfiCommon0
          CFI (cfiCond70) Function bdb_checkMatchingEndpoints
          CFI (cfiCond70) Conditional ??CrossCallReturnLabel_57, ??CrossCallReturnLabel_11
          CFI (cfiCond70) R6 load(1, XDATA, add(CFA_XSP16, literal(-16)))
          CFI (cfiCond70) VB load(1, XDATA, add(CFA_XSP16, literal(-15)))
          CFI (cfiCond70) V0 load(1, XDATA, add(CFA_XSP16, literal(-14)))
          CFI (cfiCond70) V1 load(1, XDATA, add(CFA_XSP16, literal(-13)))
          CFI (cfiCond70) V2 load(1, XDATA, add(CFA_XSP16, literal(-12)))
          CFI (cfiCond70) V3 load(1, XDATA, add(CFA_XSP16, literal(-11)))
          CFI (cfiCond70) V4 load(1, XDATA, add(CFA_XSP16, literal(-10)))
          CFI (cfiCond70) V5 load(1, XDATA, add(CFA_XSP16, literal(-9)))
          CFI (cfiCond70) V6 load(1, XDATA, add(CFA_XSP16, literal(-8)))
          CFI (cfiCond70) V7 load(1, XDATA, add(CFA_XSP16, literal(-7)))
          CFI (cfiCond70) R7 load(1, XDATA, add(CFA_XSP16, literal(-6)))
          CFI (cfiCond70) ?RET_LOW load(1, XDATA, add(CFA_XSP16, literal(-5)))
          CFI (cfiCond70) ?RET_HIGH load(1, XDATA, add(CFA_XSP16, literal(-4)))
          CFI (cfiCond70) ?BRET_EXT load(1, XDATA, add(CFA_XSP16, literal(-3)))
          CFI (cfiCond70) DPL0 load(1, XDATA, add(CFA_XSP16, literal(-2)))
          CFI (cfiCond70) DPH0 load(1, XDATA, add(CFA_XSP16, literal(-1)))
          CFI (cfiCond70) CFA_SP SP+-4
          CFI (cfiCond70) CFA_XSP16 add(XSP16, 29)
          CFI Block cfiCond71 Using cfiCommon0
          CFI (cfiCond71) Function bdb_ProcessSimpleDesc
          CFI (cfiCond71) Conditional ??CrossCallReturnLabel_57, ??CrossCallReturnLabel_12
          CFI (cfiCond71) R6 load(1, XDATA, add(CFA_XSP16, literal(-9)))
          CFI (cfiCond71) VB load(1, XDATA, add(CFA_XSP16, literal(-8)))
          CFI (cfiCond71) V0 load(1, XDATA, add(CFA_XSP16, literal(-7)))
          CFI (cfiCond71) R7 load(1, XDATA, add(CFA_XSP16, literal(-6)))
          CFI (cfiCond71) ?RET_LOW load(1, XDATA, add(CFA_XSP16, literal(-5)))
          CFI (cfiCond71) ?RET_HIGH load(1, XDATA, add(CFA_XSP16, literal(-4)))
          CFI (cfiCond71) ?BRET_EXT load(1, XDATA, add(CFA_XSP16, literal(-3)))
          CFI (cfiCond71) DPL0 load(1, XDATA, add(CFA_XSP16, literal(-2)))
          CFI (cfiCond71) DPH0 load(1, XDATA, add(CFA_XSP16, literal(-1)))
          CFI (cfiCond71) CFA_SP SP+-4
          CFI (cfiCond71) CFA_XSP16 add(XSP16, 28)
          CFI Block cfiCond72 Using cfiCommon0
          CFI (cfiCond72) Function bdb_checkMatchingEndpoints
          CFI (cfiCond72) Conditional ??CrossCallReturnLabel_56, ??CrossCallReturnLabel_8
          CFI (cfiCond72) R6 load(1, XDATA, add(CFA_XSP16, literal(-16)))
          CFI (cfiCond72) VB load(1, XDATA, add(CFA_XSP16, literal(-15)))
          CFI (cfiCond72) V0 load(1, XDATA, add(CFA_XSP16, literal(-14)))
          CFI (cfiCond72) V1 load(1, XDATA, add(CFA_XSP16, literal(-13)))
          CFI (cfiCond72) V2 load(1, XDATA, add(CFA_XSP16, literal(-12)))
          CFI (cfiCond72) V3 load(1, XDATA, add(CFA_XSP16, literal(-11)))
          CFI (cfiCond72) V4 load(1, XDATA, add(CFA_XSP16, literal(-10)))
          CFI (cfiCond72) V5 load(1, XDATA, add(CFA_XSP16, literal(-9)))
          CFI (cfiCond72) V6 load(1, XDATA, add(CFA_XSP16, literal(-8)))
          CFI (cfiCond72) V7 load(1, XDATA, add(CFA_XSP16, literal(-7)))
          CFI (cfiCond72) R7 load(1, XDATA, add(CFA_XSP16, literal(-6)))
          CFI (cfiCond72) ?RET_LOW load(1, XDATA, add(CFA_XSP16, literal(-5)))
          CFI (cfiCond72) ?RET_HIGH load(1, XDATA, add(CFA_XSP16, literal(-4)))
          CFI (cfiCond72) ?BRET_EXT load(1, XDATA, add(CFA_XSP16, literal(-3)))
          CFI (cfiCond72) DPL0 load(1, XDATA, add(CFA_XSP16, literal(-2)))
          CFI (cfiCond72) DPH0 load(1, XDATA, add(CFA_XSP16, literal(-1)))
          CFI (cfiCond72) CFA_SP SP+-4
          CFI (cfiCond72) CFA_XSP16 add(XSP16, 29)
          CFI Block cfiCond73 Using cfiCommon0
          CFI (cfiCond73) Function bdb_checkMatchingEndpoints
          CFI (cfiCond73) Conditional ??CrossCallReturnLabel_56, ??CrossCallReturnLabel_9
          CFI (cfiCond73) R6 load(1, XDATA, add(CFA_XSP16, literal(-16)))
          CFI (cfiCond73) VB load(1, XDATA, add(CFA_XSP16, literal(-15)))
          CFI (cfiCond73) V0 load(1, XDATA, add(CFA_XSP16, literal(-14)))
          CFI (cfiCond73) V1 load(1, XDATA, add(CFA_XSP16, literal(-13)))
          CFI (cfiCond73) V2 load(1, XDATA, add(CFA_XSP16, literal(-12)))
          CFI (cfiCond73) V3 load(1, XDATA, add(CFA_XSP16, literal(-11)))
          CFI (cfiCond73) V4 load(1, XDATA, add(CFA_XSP16, literal(-10)))
          CFI (cfiCond73) V5 load(1, XDATA, add(CFA_XSP16, literal(-9)))
          CFI (cfiCond73) V6 load(1, XDATA, add(CFA_XSP16, literal(-8)))
          CFI (cfiCond73) V7 load(1, XDATA, add(CFA_XSP16, literal(-7)))
          CFI (cfiCond73) R7 load(1, XDATA, add(CFA_XSP16, literal(-6)))
          CFI (cfiCond73) ?RET_LOW load(1, XDATA, add(CFA_XSP16, literal(-5)))
          CFI (cfiCond73) ?RET_HIGH load(1, XDATA, add(CFA_XSP16, literal(-4)))
          CFI (cfiCond73) ?BRET_EXT load(1, XDATA, add(CFA_XSP16, literal(-3)))
          CFI (cfiCond73) DPL0 load(1, XDATA, add(CFA_XSP16, literal(-2)))
          CFI (cfiCond73) DPH0 load(1, XDATA, add(CFA_XSP16, literal(-1)))
          CFI (cfiCond73) CFA_SP SP+-4
          CFI (cfiCond73) CFA_XSP16 add(XSP16, 29)
          CFI Block cfiPicker74 Using cfiCommon1
          CFI (cfiPicker74) NoFunction
          CFI (cfiPicker74) Picker
        MOVX      A,@DPTR
        MOV       DPH,A
        MOV       DPL,R0
        RET
          CFI EndBlock cfiCond62
          CFI EndBlock cfiCond63
          CFI EndBlock cfiCond64
          CFI EndBlock cfiCond65
          CFI EndBlock cfiCond66
          CFI EndBlock cfiCond67
          CFI EndBlock cfiCond68
          CFI EndBlock cfiCond69
          CFI EndBlock cfiCond70
          CFI EndBlock cfiCond71
          CFI EndBlock cfiCond72
          CFI EndBlock cfiCond73
          CFI EndBlock cfiPicker74

        RSEG BANKED_CODE:HUGECODE:NOROOT(0)
?Subroutine9:
          CFI Block cfiCond75 Using cfiCommon0
          CFI Function bdb_checkMatchingEndpoints
          CFI Conditional ??CrossCallReturnLabel_8
          CFI R6 load(1, XDATA, add(CFA_XSP16, literal(-16)))
          CFI VB load(1, XDATA, add(CFA_XSP16, literal(-15)))
          CFI V0 load(1, XDATA, add(CFA_XSP16, literal(-14)))
          CFI V1 load(1, XDATA, add(CFA_XSP16, literal(-13)))
          CFI V2 load(1, XDATA, add(CFA_XSP16, literal(-12)))
          CFI V3 load(1, XDATA, add(CFA_XSP16, literal(-11)))
          CFI V4 load(1, XDATA, add(CFA_XSP16, literal(-10)))
          CFI V5 load(1, XDATA, add(CFA_XSP16, literal(-9)))
          CFI V6 load(1, XDATA, add(CFA_XSP16, literal(-8)))
          CFI V7 load(1, XDATA, add(CFA_XSP16, literal(-7)))
          CFI R7 load(1, XDATA, add(CFA_XSP16, literal(-6)))
          CFI ?RET_LOW load(1, XDATA, add(CFA_XSP16, literal(-5)))
          CFI ?RET_HIGH load(1, XDATA, add(CFA_XSP16, literal(-4)))
          CFI ?BRET_EXT load(1, XDATA, add(CFA_XSP16, literal(-3)))
          CFI DPL0 load(1, XDATA, add(CFA_XSP16, literal(-2)))
          CFI DPH0 load(1, XDATA, add(CFA_XSP16, literal(-1)))
          CFI CFA_SP SP+-2
          CFI CFA_XSP16 add(XSP16, 29)
          CFI Block cfiCond76 Using cfiCommon0
          CFI (cfiCond76) Function bdb_checkMatchingEndpoints
          CFI (cfiCond76) Conditional ??CrossCallReturnLabel_9
          CFI (cfiCond76) R6 load(1, XDATA, add(CFA_XSP16, literal(-16)))
          CFI (cfiCond76) VB load(1, XDATA, add(CFA_XSP16, literal(-15)))
          CFI (cfiCond76) V0 load(1, XDATA, add(CFA_XSP16, literal(-14)))
          CFI (cfiCond76) V1 load(1, XDATA, add(CFA_XSP16, literal(-13)))
          CFI (cfiCond76) V2 load(1, XDATA, add(CFA_XSP16, literal(-12)))
          CFI (cfiCond76) V3 load(1, XDATA, add(CFA_XSP16, literal(-11)))
          CFI (cfiCond76) V4 load(1, XDATA, add(CFA_XSP16, literal(-10)))
          CFI (cfiCond76) V5 load(1, XDATA, add(CFA_XSP16, literal(-9)))
          CFI (cfiCond76) V6 load(1, XDATA, add(CFA_XSP16, literal(-8)))
          CFI (cfiCond76) V7 load(1, XDATA, add(CFA_XSP16, literal(-7)))
          CFI (cfiCond76) R7 load(1, XDATA, add(CFA_XSP16, literal(-6)))
          CFI (cfiCond76) ?RET_LOW load(1, XDATA, add(CFA_XSP16, literal(-5)))
          CFI (cfiCond76) ?RET_HIGH load(1, XDATA, add(CFA_XSP16, literal(-4)))
          CFI (cfiCond76) ?BRET_EXT load(1, XDATA, add(CFA_XSP16, literal(-3)))
          CFI (cfiCond76) DPL0 load(1, XDATA, add(CFA_XSP16, literal(-2)))
          CFI (cfiCond76) DPH0 load(1, XDATA, add(CFA_XSP16, literal(-1)))
          CFI (cfiCond76) CFA_SP SP+-2
          CFI (cfiCond76) CFA_XSP16 add(XSP16, 29)
          CFI Block cfiPicker77 Using cfiCommon1
          CFI (cfiPicker77) NoFunction
          CFI (cfiPicker77) Picker
        MOV       DPL,?XSP + 0
        MOV       DPH,?XSP + 1
        LCALL     ?Subroutine30 & 0xFFFF
??CrossCallReturnLabel_56:
        LCALL     ?Subroutine27 & 0xFFFF
??CrossCallReturnLabel_96:
        RET
          CFI EndBlock cfiCond75
          CFI EndBlock cfiCond76
          CFI EndBlock cfiPicker77

        RSEG BANKED_CODE:HUGECODE:NOROOT(0)
?Subroutine27:
          CFI Block cfiCond78 Using cfiCommon0
          CFI Function bdb_checkMatchingEndpoints
          CFI Conditional ??CrossCallReturnLabel_96, ??CrossCallReturnLabel_8
          CFI R6 load(1, XDATA, add(CFA_XSP16, literal(-16)))
          CFI VB load(1, XDATA, add(CFA_XSP16, literal(-15)))
          CFI V0 load(1, XDATA, add(CFA_XSP16, literal(-14)))
          CFI V1 load(1, XDATA, add(CFA_XSP16, literal(-13)))
          CFI V2 load(1, XDATA, add(CFA_XSP16, literal(-12)))
          CFI V3 load(1, XDATA, add(CFA_XSP16, literal(-11)))
          CFI V4 load(1, XDATA, add(CFA_XSP16, literal(-10)))
          CFI V5 load(1, XDATA, add(CFA_XSP16, literal(-9)))
          CFI V6 load(1, XDATA, add(CFA_XSP16, literal(-8)))
          CFI V7 load(1, XDATA, add(CFA_XSP16, literal(-7)))
          CFI R7 load(1, XDATA, add(CFA_XSP16, literal(-6)))
          CFI ?RET_LOW load(1, XDATA, add(CFA_XSP16, literal(-5)))
          CFI ?RET_HIGH load(1, XDATA, add(CFA_XSP16, literal(-4)))
          CFI ?BRET_EXT load(1, XDATA, add(CFA_XSP16, literal(-3)))
          CFI DPL0 load(1, XDATA, add(CFA_XSP16, literal(-2)))
          CFI DPH0 load(1, XDATA, add(CFA_XSP16, literal(-1)))
          CFI CFA_SP SP+-4
          CFI CFA_XSP16 add(XSP16, 29)
          CFI Block cfiCond79 Using cfiCommon0
          CFI (cfiCond79) Function bdb_checkMatchingEndpoints
          CFI (cfiCond79) Conditional ??CrossCallReturnLabel_96, ??CrossCallReturnLabel_9
          CFI (cfiCond79) R6 load(1, XDATA, add(CFA_XSP16, literal(-16)))
          CFI (cfiCond79) VB load(1, XDATA, add(CFA_XSP16, literal(-15)))
          CFI (cfiCond79) V0 load(1, XDATA, add(CFA_XSP16, literal(-14)))
          CFI (cfiCond79) V1 load(1, XDATA, add(CFA_XSP16, literal(-13)))
          CFI (cfiCond79) V2 load(1, XDATA, add(CFA_XSP16, literal(-12)))
          CFI (cfiCond79) V3 load(1, XDATA, add(CFA_XSP16, literal(-11)))
          CFI (cfiCond79) V4 load(1, XDATA, add(CFA_XSP16, literal(-10)))
          CFI (cfiCond79) V5 load(1, XDATA, add(CFA_XSP16, literal(-9)))
          CFI (cfiCond79) V6 load(1, XDATA, add(CFA_XSP16, literal(-8)))
          CFI (cfiCond79) V7 load(1, XDATA, add(CFA_XSP16, literal(-7)))
          CFI (cfiCond79) R7 load(1, XDATA, add(CFA_XSP16, literal(-6)))
          CFI (cfiCond79) ?RET_LOW load(1, XDATA, add(CFA_XSP16, literal(-5)))
          CFI (cfiCond79) ?RET_HIGH load(1, XDATA, add(CFA_XSP16, literal(-4)))
          CFI (cfiCond79) ?BRET_EXT load(1, XDATA, add(CFA_XSP16, literal(-3)))
          CFI (cfiCond79) DPL0 load(1, XDATA, add(CFA_XSP16, literal(-2)))
          CFI (cfiCond79) DPH0 load(1, XDATA, add(CFA_XSP16, literal(-1)))
          CFI (cfiCond79) CFA_SP SP+-4
          CFI (cfiCond79) CFA_XSP16 add(XSP16, 29)
          CFI Block cfiCond80 Using cfiCommon0
          CFI (cfiCond80) Function bdb_ProcessRespondentList
          CFI (cfiCond80) Conditional ??CrossCallReturnLabel_97, ??CrossCallReturnLabel_92
          CFI (cfiCond80) R6 load(1, XDATA, add(CFA_XSP16, literal(-9)))
          CFI (cfiCond80) VB load(1, XDATA, add(CFA_XSP16, literal(-8)))
          CFI (cfiCond80) V0 load(1, XDATA, add(CFA_XSP16, literal(-7)))
          CFI (cfiCond80) R7 load(1, XDATA, add(CFA_XSP16, literal(-6)))
          CFI (cfiCond80) ?RET_LOW load(1, XDATA, add(CFA_XSP16, literal(-5)))
          CFI (cfiCond80) ?RET_HIGH load(1, XDATA, add(CFA_XSP16, literal(-4)))
          CFI (cfiCond80) ?BRET_EXT load(1, XDATA, add(CFA_XSP16, literal(-3)))
          CFI (cfiCond80) DPL0 load(1, XDATA, add(CFA_XSP16, literal(-2)))
          CFI (cfiCond80) DPH0 load(1, XDATA, add(CFA_XSP16, literal(-1)))
          CFI (cfiCond80) CFA_SP SP+-4
          CFI (cfiCond80) CFA_XSP16 add(XSP16, 18)
          CFI Block cfiCond81 Using cfiCommon0
          CFI (cfiCond81) Function bdb_ProcessRespondentList
          CFI (cfiCond81) Conditional ??CrossCallReturnLabel_97, ??CrossCallReturnLabel_93
          CFI (cfiCond81) R6 load(1, XDATA, add(CFA_XSP16, literal(-9)))
          CFI (cfiCond81) VB load(1, XDATA, add(CFA_XSP16, literal(-8)))
          CFI (cfiCond81) V0 load(1, XDATA, add(CFA_XSP16, literal(-7)))
          CFI (cfiCond81) R7 load(1, XDATA, add(CFA_XSP16, literal(-6)))
          CFI (cfiCond81) ?RET_LOW load(1, XDATA, add(CFA_XSP16, literal(-5)))
          CFI (cfiCond81) ?RET_HIGH load(1, XDATA, add(CFA_XSP16, literal(-4)))
          CFI (cfiCond81) ?BRET_EXT load(1, XDATA, add(CFA_XSP16, literal(-3)))
          CFI (cfiCond81) DPL0 load(1, XDATA, add(CFA_XSP16, literal(-2)))
          CFI (cfiCond81) DPH0 load(1, XDATA, add(CFA_XSP16, literal(-1)))
          CFI (cfiCond81) CFA_SP SP+-4
          CFI (cfiCond81) CFA_XSP16 add(XSP16, 18)
          CFI Block cfiCond82 Using cfiCommon0
          CFI (cfiCond82) Function bdb_ProcessSimpleDesc
          CFI (cfiCond82) Conditional ??CrossCallReturnLabel_97, ??CrossCallReturnLabel_94
          CFI (cfiCond82) R6 load(1, XDATA, add(CFA_XSP16, literal(-9)))
          CFI (cfiCond82) VB load(1, XDATA, add(CFA_XSP16, literal(-8)))
          CFI (cfiCond82) V0 load(1, XDATA, add(CFA_XSP16, literal(-7)))
          CFI (cfiCond82) R7 load(1, XDATA, add(CFA_XSP16, literal(-6)))
          CFI (cfiCond82) ?RET_LOW load(1, XDATA, add(CFA_XSP16, literal(-5)))
          CFI (cfiCond82) ?RET_HIGH load(1, XDATA, add(CFA_XSP16, literal(-4)))
          CFI (cfiCond82) ?BRET_EXT load(1, XDATA, add(CFA_XSP16, literal(-3)))
          CFI (cfiCond82) DPL0 load(1, XDATA, add(CFA_XSP16, literal(-2)))
          CFI (cfiCond82) DPH0 load(1, XDATA, add(CFA_XSP16, literal(-1)))
          CFI (cfiCond82) CFA_SP SP+-4
          CFI (cfiCond82) CFA_XSP16 add(XSP16, 28)
          CFI Block cfiCond83 Using cfiCommon0
          CFI (cfiCond83) Function bdb_ProcessRespondentList
          CFI (cfiCond83) Conditional ??CrossCallReturnLabel_97, ??CrossCallReturnLabel_95
          CFI (cfiCond83) R6 load(1, XDATA, add(CFA_XSP16, literal(-9)))
          CFI (cfiCond83) VB load(1, XDATA, add(CFA_XSP16, literal(-8)))
          CFI (cfiCond83) V0 load(1, XDATA, add(CFA_XSP16, literal(-7)))
          CFI (cfiCond83) R7 load(1, XDATA, add(CFA_XSP16, literal(-6)))
          CFI (cfiCond83) ?RET_LOW load(1, XDATA, add(CFA_XSP16, literal(-5)))
          CFI (cfiCond83) ?RET_HIGH load(1, XDATA, add(CFA_XSP16, literal(-4)))
          CFI (cfiCond83) ?BRET_EXT load(1, XDATA, add(CFA_XSP16, literal(-3)))
          CFI (cfiCond83) DPL0 load(1, XDATA, add(CFA_XSP16, literal(-2)))
          CFI (cfiCond83) DPH0 load(1, XDATA, add(CFA_XSP16, literal(-1)))
          CFI (cfiCond83) CFA_SP SP+-4
          CFI (cfiCond83) CFA_XSP16 add(XSP16, 18)
          CFI Block cfiPicker84 Using cfiCommon1
          CFI (cfiPicker84) NoFunction
          CFI (cfiPicker84) Picker
        LCALL     ?Subroutine32 & 0xFFFF
??CrossCallReturnLabel_118:
        XCH       A,R0
        LCALL     ?Subroutine33 & 0xFFFF
??CrossCallReturnLabel_99:
        RET
          CFI EndBlock cfiCond78
          CFI EndBlock cfiCond79
          CFI EndBlock cfiCond80
          CFI EndBlock cfiCond81
          CFI EndBlock cfiCond82
          CFI EndBlock cfiCond83
          CFI EndBlock cfiPicker84

        RSEG BANKED_CODE:HUGECODE:NOROOT(0)
?Subroutine33:
          CFI Block cfiCond85 Using cfiCommon0
          CFI Function bdb_ProcessIEEEAddrRsp
          CFI Conditional ??CrossCallReturnLabel_98, ??CrossCallReturnLabel_28
          CFI R6 load(1, XDATA, add(CFA_XSP16, literal(-10)))
          CFI VB load(1, XDATA, add(CFA_XSP16, literal(-9)))
          CFI V0 load(1, XDATA, add(CFA_XSP16, literal(-8)))
          CFI V1 load(1, XDATA, add(CFA_XSP16, literal(-7)))
          CFI R7 load(1, XDATA, add(CFA_XSP16, literal(-6)))
          CFI ?RET_LOW load(1, XDATA, add(CFA_XSP16, literal(-5)))
          CFI ?RET_HIGH load(1, XDATA, add(CFA_XSP16, literal(-4)))
          CFI ?BRET_EXT load(1, XDATA, add(CFA_XSP16, literal(-3)))
          CFI DPL0 load(1, XDATA, add(CFA_XSP16, literal(-2)))
          CFI DPH0 load(1, XDATA, add(CFA_XSP16, literal(-1)))
          CFI CFA_SP SP+-4
          CFI CFA_XSP16 add(XSP16, 25)
          CFI Block cfiCond86 Using cfiCommon0
          CFI (cfiCond86) Function bdb_ProcessIEEEAddrRsp
          CFI (cfiCond86) Conditional ??CrossCallReturnLabel_98, ??CrossCallReturnLabel_29
          CFI (cfiCond86) R6 load(1, XDATA, add(CFA_XSP16, literal(-10)))
          CFI (cfiCond86) VB load(1, XDATA, add(CFA_XSP16, literal(-9)))
          CFI (cfiCond86) V0 load(1, XDATA, add(CFA_XSP16, literal(-8)))
          CFI (cfiCond86) V1 load(1, XDATA, add(CFA_XSP16, literal(-7)))
          CFI (cfiCond86) R7 load(1, XDATA, add(CFA_XSP16, literal(-6)))
          CFI (cfiCond86) ?RET_LOW load(1, XDATA, add(CFA_XSP16, literal(-5)))
          CFI (cfiCond86) ?RET_HIGH load(1, XDATA, add(CFA_XSP16, literal(-4)))
          CFI (cfiCond86) ?BRET_EXT load(1, XDATA, add(CFA_XSP16, literal(-3)))
          CFI (cfiCond86) DPL0 load(1, XDATA, add(CFA_XSP16, literal(-2)))
          CFI (cfiCond86) DPH0 load(1, XDATA, add(CFA_XSP16, literal(-1)))
          CFI (cfiCond86) CFA_SP SP+-4
          CFI (cfiCond86) CFA_XSP16 add(XSP16, 25)
          CFI Block cfiCond87 Using cfiCommon0
          CFI (cfiCond87) Function bdb_checkMatchingEndpoints
          CFI (cfiCond87) Conditional ??CrossCallReturnLabel_99, ??CrossCallReturnLabel_96, ??CrossCallReturnLabel_8
          CFI (cfiCond87) R6 load(1, XDATA, add(CFA_XSP16, literal(-16)))
          CFI (cfiCond87) VB load(1, XDATA, add(CFA_XSP16, literal(-15)))
          CFI (cfiCond87) V0 load(1, XDATA, add(CFA_XSP16, literal(-14)))
          CFI (cfiCond87) V1 load(1, XDATA, add(CFA_XSP16, literal(-13)))
          CFI (cfiCond87) V2 load(1, XDATA, add(CFA_XSP16, literal(-12)))
          CFI (cfiCond87) V3 load(1, XDATA, add(CFA_XSP16, literal(-11)))
          CFI (cfiCond87) V4 load(1, XDATA, add(CFA_XSP16, literal(-10)))
          CFI (cfiCond87) V5 load(1, XDATA, add(CFA_XSP16, literal(-9)))
          CFI (cfiCond87) V6 load(1, XDATA, add(CFA_XSP16, literal(-8)))
          CFI (cfiCond87) V7 load(1, XDATA, add(CFA_XSP16, literal(-7)))
          CFI (cfiCond87) R7 load(1, XDATA, add(CFA_XSP16, literal(-6)))
          CFI (cfiCond87) ?RET_LOW load(1, XDATA, add(CFA_XSP16, literal(-5)))
          CFI (cfiCond87) ?RET_HIGH load(1, XDATA, add(CFA_XSP16, literal(-4)))
          CFI (cfiCond87) ?BRET_EXT load(1, XDATA, add(CFA_XSP16, literal(-3)))
          CFI (cfiCond87) DPL0 load(1, XDATA, add(CFA_XSP16, literal(-2)))
          CFI (cfiCond87) DPH0 load(1, XDATA, add(CFA_XSP16, literal(-1)))
          CFI (cfiCond87) CFA_SP SP+-6
          CFI (cfiCond87) CFA_XSP16 add(XSP16, 29)
          CFI Block cfiCond88 Using cfiCommon0
          CFI (cfiCond88) Function bdb_checkMatchingEndpoints
          CFI (cfiCond88) Conditional ??CrossCallReturnLabel_99, ??CrossCallReturnLabel_96, ??CrossCallReturnLabel_9
          CFI (cfiCond88) R6 load(1, XDATA, add(CFA_XSP16, literal(-16)))
          CFI (cfiCond88) VB load(1, XDATA, add(CFA_XSP16, literal(-15)))
          CFI (cfiCond88) V0 load(1, XDATA, add(CFA_XSP16, literal(-14)))
          CFI (cfiCond88) V1 load(1, XDATA, add(CFA_XSP16, literal(-13)))
          CFI (cfiCond88) V2 load(1, XDATA, add(CFA_XSP16, literal(-12)))
          CFI (cfiCond88) V3 load(1, XDATA, add(CFA_XSP16, literal(-11)))
          CFI (cfiCond88) V4 load(1, XDATA, add(CFA_XSP16, literal(-10)))
          CFI (cfiCond88) V5 load(1, XDATA, add(CFA_XSP16, literal(-9)))
          CFI (cfiCond88) V6 load(1, XDATA, add(CFA_XSP16, literal(-8)))
          CFI (cfiCond88) V7 load(1, XDATA, add(CFA_XSP16, literal(-7)))
          CFI (cfiCond88) R7 load(1, XDATA, add(CFA_XSP16, literal(-6)))
          CFI (cfiCond88) ?RET_LOW load(1, XDATA, add(CFA_XSP16, literal(-5)))
          CFI (cfiCond88) ?RET_HIGH load(1, XDATA, add(CFA_XSP16, literal(-4)))
          CFI (cfiCond88) ?BRET_EXT load(1, XDATA, add(CFA_XSP16, literal(-3)))
          CFI (cfiCond88) DPL0 load(1, XDATA, add(CFA_XSP16, literal(-2)))
          CFI (cfiCond88) DPH0 load(1, XDATA, add(CFA_XSP16, literal(-1)))
          CFI (cfiCond88) CFA_SP SP+-6
          CFI (cfiCond88) CFA_XSP16 add(XSP16, 29)
          CFI Block cfiCond89 Using cfiCommon0
          CFI (cfiCond89) Function bdb_ProcessRespondentList
          CFI (cfiCond89) Conditional ??CrossCallReturnLabel_99, ??CrossCallReturnLabel_97, ??CrossCallReturnLabel_92
          CFI (cfiCond89) R6 load(1, XDATA, add(CFA_XSP16, literal(-9)))
          CFI (cfiCond89) VB load(1, XDATA, add(CFA_XSP16, literal(-8)))
          CFI (cfiCond89) V0 load(1, XDATA, add(CFA_XSP16, literal(-7)))
          CFI (cfiCond89) R7 load(1, XDATA, add(CFA_XSP16, literal(-6)))
          CFI (cfiCond89) ?RET_LOW load(1, XDATA, add(CFA_XSP16, literal(-5)))
          CFI (cfiCond89) ?RET_HIGH load(1, XDATA, add(CFA_XSP16, literal(-4)))
          CFI (cfiCond89) ?BRET_EXT load(1, XDATA, add(CFA_XSP16, literal(-3)))
          CFI (cfiCond89) DPL0 load(1, XDATA, add(CFA_XSP16, literal(-2)))
          CFI (cfiCond89) DPH0 load(1, XDATA, add(CFA_XSP16, literal(-1)))
          CFI (cfiCond89) CFA_SP SP+-6
          CFI (cfiCond89) CFA_XSP16 add(XSP16, 18)
          CFI Block cfiCond90 Using cfiCommon0
          CFI (cfiCond90) Function bdb_ProcessRespondentList
          CFI (cfiCond90) Conditional ??CrossCallReturnLabel_99, ??CrossCallReturnLabel_97, ??CrossCallReturnLabel_93
          CFI (cfiCond90) R6 load(1, XDATA, add(CFA_XSP16, literal(-9)))
          CFI (cfiCond90) VB load(1, XDATA, add(CFA_XSP16, literal(-8)))
          CFI (cfiCond90) V0 load(1, XDATA, add(CFA_XSP16, literal(-7)))
          CFI (cfiCond90) R7 load(1, XDATA, add(CFA_XSP16, literal(-6)))
          CFI (cfiCond90) ?RET_LOW load(1, XDATA, add(CFA_XSP16, literal(-5)))
          CFI (cfiCond90) ?RET_HIGH load(1, XDATA, add(CFA_XSP16, literal(-4)))
          CFI (cfiCond90) ?BRET_EXT load(1, XDATA, add(CFA_XSP16, literal(-3)))
          CFI (cfiCond90) DPL0 load(1, XDATA, add(CFA_XSP16, literal(-2)))
          CFI (cfiCond90) DPH0 load(1, XDATA, add(CFA_XSP16, literal(-1)))
          CFI (cfiCond90) CFA_SP SP+-6
          CFI (cfiCond90) CFA_XSP16 add(XSP16, 18)
          CFI Block cfiCond91 Using cfiCommon0
          CFI (cfiCond91) Function bdb_ProcessSimpleDesc
          CFI (cfiCond91) Conditional ??CrossCallReturnLabel_99, ??CrossCallReturnLabel_97, ??CrossCallReturnLabel_94
          CFI (cfiCond91) R6 load(1, XDATA, add(CFA_XSP16, literal(-9)))
          CFI (cfiCond91) VB load(1, XDATA, add(CFA_XSP16, literal(-8)))
          CFI (cfiCond91) V0 load(1, XDATA, add(CFA_XSP16, literal(-7)))
          CFI (cfiCond91) R7 load(1, XDATA, add(CFA_XSP16, literal(-6)))
          CFI (cfiCond91) ?RET_LOW load(1, XDATA, add(CFA_XSP16, literal(-5)))
          CFI (cfiCond91) ?RET_HIGH load(1, XDATA, add(CFA_XSP16, literal(-4)))
          CFI (cfiCond91) ?BRET_EXT load(1, XDATA, add(CFA_XSP16, literal(-3)))
          CFI (cfiCond91) DPL0 load(1, XDATA, add(CFA_XSP16, literal(-2)))
          CFI (cfiCond91) DPH0 load(1, XDATA, add(CFA_XSP16, literal(-1)))
          CFI (cfiCond91) CFA_SP SP+-6
          CFI (cfiCond91) CFA_XSP16 add(XSP16, 28)
          CFI Block cfiCond92 Using cfiCommon0
          CFI (cfiCond92) Function bdb_ProcessRespondentList
          CFI (cfiCond92) Conditional ??CrossCallReturnLabel_99, ??CrossCallReturnLabel_97, ??CrossCallReturnLabel_95
          CFI (cfiCond92) R6 load(1, XDATA, add(CFA_XSP16, literal(-9)))
          CFI (cfiCond92) VB load(1, XDATA, add(CFA_XSP16, literal(-8)))
          CFI (cfiCond92) V0 load(1, XDATA, add(CFA_XSP16, literal(-7)))
          CFI (cfiCond92) R7 load(1, XDATA, add(CFA_XSP16, literal(-6)))
          CFI (cfiCond92) ?RET_LOW load(1, XDATA, add(CFA_XSP16, literal(-5)))
          CFI (cfiCond92) ?RET_HIGH load(1, XDATA, add(CFA_XSP16, literal(-4)))
          CFI (cfiCond92) ?BRET_EXT load(1, XDATA, add(CFA_XSP16, literal(-3)))
          CFI (cfiCond92) DPL0 load(1, XDATA, add(CFA_XSP16, literal(-2)))
          CFI (cfiCond92) DPH0 load(1, XDATA, add(CFA_XSP16, literal(-1)))
          CFI (cfiCond92) CFA_SP SP+-6
          CFI (cfiCond92) CFA_XSP16 add(XSP16, 18)
          CFI Block cfiPicker93 Using cfiCommon1
          CFI (cfiPicker93) NoFunction
          CFI (cfiPicker93) Picker
        ADD       A,#0xc
        MOV       DPL,A
        CLR       A
        ADDC      A,R0
        MOV       DPH,A
        RET
          CFI EndBlock cfiCond85
          CFI EndBlock cfiCond86
          CFI EndBlock cfiCond87
          CFI EndBlock cfiCond88
          CFI EndBlock cfiCond89
          CFI EndBlock cfiCond90
          CFI EndBlock cfiCond91
          CFI EndBlock cfiCond92
          CFI EndBlock cfiPicker93

        RSEG BANKED_CODE:HUGECODE:NOROOT(0)
?Subroutine8:
          CFI Block cfiCond94 Using cfiCommon0
          CFI Function bdb_checkMatchingEndpoints
          CFI Conditional ??CrossCallReturnLabel_6
          CFI R6 load(1, XDATA, add(CFA_XSP16, literal(-16)))
          CFI VB load(1, XDATA, add(CFA_XSP16, literal(-15)))
          CFI V0 load(1, XDATA, add(CFA_XSP16, literal(-14)))
          CFI V1 load(1, XDATA, add(CFA_XSP16, literal(-13)))
          CFI V2 load(1, XDATA, add(CFA_XSP16, literal(-12)))
          CFI V3 load(1, XDATA, add(CFA_XSP16, literal(-11)))
          CFI V4 load(1, XDATA, add(CFA_XSP16, literal(-10)))
          CFI V5 load(1, XDATA, add(CFA_XSP16, literal(-9)))
          CFI V6 load(1, XDATA, add(CFA_XSP16, literal(-8)))
          CFI V7 load(1, XDATA, add(CFA_XSP16, literal(-7)))
          CFI R7 load(1, XDATA, add(CFA_XSP16, literal(-6)))
          CFI ?RET_LOW load(1, XDATA, add(CFA_XSP16, literal(-5)))
          CFI ?RET_HIGH load(1, XDATA, add(CFA_XSP16, literal(-4)))
          CFI ?BRET_EXT load(1, XDATA, add(CFA_XSP16, literal(-3)))
          CFI DPL0 load(1, XDATA, add(CFA_XSP16, literal(-2)))
          CFI DPH0 load(1, XDATA, add(CFA_XSP16, literal(-1)))
          CFI CFA_SP SP+-2
          CFI CFA_XSP16 add(XSP16, 34)
          CFI Block cfiCond95 Using cfiCommon0
          CFI (cfiCond95) Function bdb_checkMatchingEndpoints
          CFI (cfiCond95) Conditional ??CrossCallReturnLabel_7
          CFI (cfiCond95) R6 load(1, XDATA, add(CFA_XSP16, literal(-16)))
          CFI (cfiCond95) VB load(1, XDATA, add(CFA_XSP16, literal(-15)))
          CFI (cfiCond95) V0 load(1, XDATA, add(CFA_XSP16, literal(-14)))
          CFI (cfiCond95) V1 load(1, XDATA, add(CFA_XSP16, literal(-13)))
          CFI (cfiCond95) V2 load(1, XDATA, add(CFA_XSP16, literal(-12)))
          CFI (cfiCond95) V3 load(1, XDATA, add(CFA_XSP16, literal(-11)))
          CFI (cfiCond95) V4 load(1, XDATA, add(CFA_XSP16, literal(-10)))
          CFI (cfiCond95) V5 load(1, XDATA, add(CFA_XSP16, literal(-9)))
          CFI (cfiCond95) V6 load(1, XDATA, add(CFA_XSP16, literal(-8)))
          CFI (cfiCond95) V7 load(1, XDATA, add(CFA_XSP16, literal(-7)))
          CFI (cfiCond95) R7 load(1, XDATA, add(CFA_XSP16, literal(-6)))
          CFI (cfiCond95) ?RET_LOW load(1, XDATA, add(CFA_XSP16, literal(-5)))
          CFI (cfiCond95) ?RET_HIGH load(1, XDATA, add(CFA_XSP16, literal(-4)))
          CFI (cfiCond95) ?BRET_EXT load(1, XDATA, add(CFA_XSP16, literal(-3)))
          CFI (cfiCond95) DPL0 load(1, XDATA, add(CFA_XSP16, literal(-2)))
          CFI (cfiCond95) DPH0 load(1, XDATA, add(CFA_XSP16, literal(-1)))
          CFI (cfiCond95) CFA_SP SP+-2
          CFI (cfiCond95) CFA_XSP16 add(XSP16, 34)
          CFI Block cfiPicker96 Using cfiCommon1
          CFI (cfiPicker96) NoFunction
          CFI (cfiPicker96) Picker
        INC       DPTR
        INC       DPTR
        INC       DPTR
        INC       DPTR
        INC       DPTR
        INC       DPTR
        INC       DPTR
        MOVX      A,@DPTR
        ADD       A,R0
        MOV       R2,A
        INC       DPTR
        MOVX      A,@DPTR
        ADDC      A,R1
        MOV       DPL,R2
        MOV       DPH,A
        LCALL     ?Subroutine29 & 0xFFFF
??CrossCallReturnLabel_73:
        MOV       DPL,?V4
        MOV       DPH,?V5
        MOVX      A,@DPTR
        MOV       R1,A
        RET
          CFI EndBlock cfiCond94
          CFI EndBlock cfiCond95
          CFI EndBlock cfiPicker96

        RSEG BANKED_CODE:HUGECODE:NOROOT(0)
?Subroutine7:
          CFI Block cfiCond97 Using cfiCommon0
          CFI Function bdb_setEpDescListToActiveEndpoint
          CFI Conditional ??CrossCallReturnLabel_3
          CFI DPL0 Frame(CFA_SP, 4)
          CFI DPH0 Frame(CFA_SP, 5)
          CFI CFA_SP SP+-7
          CFI Block cfiCond98 Using cfiCommon0
          CFI (cfiCond98) Function bdb_setEpDescListToActiveEndpoint
          CFI (cfiCond98) Conditional ??CrossCallReturnLabel_4
          CFI (cfiCond98) DPL0 Frame(CFA_SP, 4)
          CFI (cfiCond98) DPH0 Frame(CFA_SP, 5)
          CFI (cfiCond98) CFA_SP SP+-7
          CFI Block cfiCond99 Using cfiCommon0
          CFI (cfiCond99) Function bdb_checkMatchingEndpoints
          CFI (cfiCond99) Conditional ??CrossCallReturnLabel_5
          CFI (cfiCond99) R6 load(1, XDATA, add(CFA_XSP16, literal(-16)))
          CFI (cfiCond99) VB load(1, XDATA, add(CFA_XSP16, literal(-15)))
          CFI (cfiCond99) V0 load(1, XDATA, add(CFA_XSP16, literal(-14)))
          CFI (cfiCond99) V1 load(1, XDATA, add(CFA_XSP16, literal(-13)))
          CFI (cfiCond99) V2 load(1, XDATA, add(CFA_XSP16, literal(-12)))
          CFI (cfiCond99) V3 load(1, XDATA, add(CFA_XSP16, literal(-11)))
          CFI (cfiCond99) V4 load(1, XDATA, add(CFA_XSP16, literal(-10)))
          CFI (cfiCond99) V5 load(1, XDATA, add(CFA_XSP16, literal(-9)))
          CFI (cfiCond99) V6 load(1, XDATA, add(CFA_XSP16, literal(-8)))
          CFI (cfiCond99) V7 load(1, XDATA, add(CFA_XSP16, literal(-7)))
          CFI (cfiCond99) R7 load(1, XDATA, add(CFA_XSP16, literal(-6)))
          CFI (cfiCond99) ?RET_LOW load(1, XDATA, add(CFA_XSP16, literal(-5)))
          CFI (cfiCond99) ?RET_HIGH load(1, XDATA, add(CFA_XSP16, literal(-4)))
          CFI (cfiCond99) ?BRET_EXT load(1, XDATA, add(CFA_XSP16, literal(-3)))
          CFI (cfiCond99) DPL0 load(1, XDATA, add(CFA_XSP16, literal(-2)))
          CFI (cfiCond99) DPH0 load(1, XDATA, add(CFA_XSP16, literal(-1)))
          CFI (cfiCond99) CFA_SP SP+-2
          CFI (cfiCond99) CFA_XSP16 add(XSP16, 29)
          CFI Block cfiPicker100 Using cfiCommon1
          CFI (cfiPicker100) NoFunction
          CFI (cfiPicker100) Picker
        LCALL     ??Subroutine40_0 & 0xFFFF
??CrossCallReturnLabel_55:
        INC       DPTR
        INC       DPTR
        LCALL     ?Subroutine28 & 0xFFFF
??CrossCallReturnLabel_90:
        RET
          CFI EndBlock cfiCond97
          CFI EndBlock cfiCond98
          CFI EndBlock cfiCond99
          CFI EndBlock cfiPicker100

        RSEG BANKED_CODE:HUGECODE:NOROOT(0)
?Subroutine5:
          CFI Block cfiCond101 Using cfiCommon0
          CFI Function bdb_setEpDescListToActiveEndpoint
          CFI Conditional ??CrossCallReturnLabel_0
          CFI DPL0 Frame(CFA_SP, 4)
          CFI DPH0 Frame(CFA_SP, 5)
          CFI CFA_SP SP+-7
          CFI Block cfiCond102 Using cfiCommon0
          CFI (cfiCond102) Function bdb_setEpDescListToActiveEndpoint
          CFI (cfiCond102) Conditional ??CrossCallReturnLabel_1
          CFI (cfiCond102) DPL0 Frame(CFA_SP, 4)
          CFI (cfiCond102) DPH0 Frame(CFA_SP, 5)
          CFI (cfiCond102) CFA_SP SP+-7
          CFI Block cfiCond103 Using cfiCommon0
          CFI (cfiCond103) Function bdb_checkMatchingEndpoints
          CFI (cfiCond103) Conditional ??CrossCallReturnLabel_2
          CFI (cfiCond103) R6 load(1, XDATA, add(CFA_XSP16, literal(-16)))
          CFI (cfiCond103) VB load(1, XDATA, add(CFA_XSP16, literal(-15)))
          CFI (cfiCond103) V0 load(1, XDATA, add(CFA_XSP16, literal(-14)))
          CFI (cfiCond103) V1 load(1, XDATA, add(CFA_XSP16, literal(-13)))
          CFI (cfiCond103) V2 load(1, XDATA, add(CFA_XSP16, literal(-12)))
          CFI (cfiCond103) V3 load(1, XDATA, add(CFA_XSP16, literal(-11)))
          CFI (cfiCond103) V4 load(1, XDATA, add(CFA_XSP16, literal(-10)))
          CFI (cfiCond103) V5 load(1, XDATA, add(CFA_XSP16, literal(-9)))
          CFI (cfiCond103) V6 load(1, XDATA, add(CFA_XSP16, literal(-8)))
          CFI (cfiCond103) V7 load(1, XDATA, add(CFA_XSP16, literal(-7)))
          CFI (cfiCond103) R7 load(1, XDATA, add(CFA_XSP16, literal(-6)))
          CFI (cfiCond103) ?RET_LOW load(1, XDATA, add(CFA_XSP16, literal(-5)))
          CFI (cfiCond103) ?RET_HIGH load(1, XDATA, add(CFA_XSP16, literal(-4)))
          CFI (cfiCond103) ?BRET_EXT load(1, XDATA, add(CFA_XSP16, literal(-3)))
          CFI (cfiCond103) DPL0 load(1, XDATA, add(CFA_XSP16, literal(-2)))
          CFI (cfiCond103) DPH0 load(1, XDATA, add(CFA_XSP16, literal(-1)))
          CFI (cfiCond103) CFA_SP SP+-2
          CFI (cfiCond103) CFA_XSP16 add(XSP16, 29)
          CFI Block cfiPicker104 Using cfiCommon1
          CFI (cfiPicker104) NoFunction
          CFI (cfiPicker104) Picker
        MOV       DPTR,#bdb_CurrEpDescriptorList
        LCALL     ?Subroutine28 & 0xFFFF
??CrossCallReturnLabel_89:
        MOV       R0,A
        INC       DPTR
        MOVX      A,@DPTR
        MOV       R1,A
        LCALL     ?Subroutine31 & 0xFFFF
??CrossCallReturnLabel_47:
        RET
          CFI EndBlock cfiCond101
          CFI EndBlock cfiCond102
          CFI EndBlock cfiCond103
          CFI EndBlock cfiPicker104

        RSEG BANKED_CODE:HUGECODE:NOROOT(0)
?Subroutine31:
          CFI Block cfiCond105 Using cfiCommon0
          CFI Function bdb_setEpDescListToActiveEndpoint
          CFI Conditional ??CrossCallReturnLabel_46
          CFI DPL0 Frame(CFA_SP, 4)
          CFI DPH0 Frame(CFA_SP, 5)
          CFI CFA_SP SP+-7
          CFI Block cfiCond106 Using cfiCommon0
          CFI (cfiCond106) Function bdb_setEpDescListToActiveEndpoint
          CFI (cfiCond106) Conditional ??CrossCallReturnLabel_47, ??CrossCallReturnLabel_0
          CFI (cfiCond106) DPL0 Frame(CFA_SP, 4)
          CFI (cfiCond106) DPH0 Frame(CFA_SP, 5)
          CFI (cfiCond106) CFA_SP SP+-9
          CFI Block cfiCond107 Using cfiCommon0
          CFI (cfiCond107) Function bdb_setEpDescListToActiveEndpoint
          CFI (cfiCond107) Conditional ??CrossCallReturnLabel_47, ??CrossCallReturnLabel_1
          CFI (cfiCond107) DPL0 Frame(CFA_SP, 4)
          CFI (cfiCond107) DPH0 Frame(CFA_SP, 5)
          CFI (cfiCond107) CFA_SP SP+-9
          CFI Block cfiCond108 Using cfiCommon0
          CFI (cfiCond108) Function bdb_checkMatchingEndpoints
          CFI (cfiCond108) Conditional ??CrossCallReturnLabel_47, ??CrossCallReturnLabel_2
          CFI (cfiCond108) R6 load(1, XDATA, add(CFA_XSP16, literal(-16)))
          CFI (cfiCond108) VB load(1, XDATA, add(CFA_XSP16, literal(-15)))
          CFI (cfiCond108) V0 load(1, XDATA, add(CFA_XSP16, literal(-14)))
          CFI (cfiCond108) V1 load(1, XDATA, add(CFA_XSP16, literal(-13)))
          CFI (cfiCond108) V2 load(1, XDATA, add(CFA_XSP16, literal(-12)))
          CFI (cfiCond108) V3 load(1, XDATA, add(CFA_XSP16, literal(-11)))
          CFI (cfiCond108) V4 load(1, XDATA, add(CFA_XSP16, literal(-10)))
          CFI (cfiCond108) V5 load(1, XDATA, add(CFA_XSP16, literal(-9)))
          CFI (cfiCond108) V6 load(1, XDATA, add(CFA_XSP16, literal(-8)))
          CFI (cfiCond108) V7 load(1, XDATA, add(CFA_XSP16, literal(-7)))
          CFI (cfiCond108) R7 load(1, XDATA, add(CFA_XSP16, literal(-6)))
          CFI (cfiCond108) ?RET_LOW load(1, XDATA, add(CFA_XSP16, literal(-5)))
          CFI (cfiCond108) ?RET_HIGH load(1, XDATA, add(CFA_XSP16, literal(-4)))
          CFI (cfiCond108) ?BRET_EXT load(1, XDATA, add(CFA_XSP16, literal(-3)))
          CFI (cfiCond108) DPL0 load(1, XDATA, add(CFA_XSP16, literal(-2)))
          CFI (cfiCond108) DPH0 load(1, XDATA, add(CFA_XSP16, literal(-1)))
          CFI (cfiCond108) CFA_SP SP+-4
          CFI (cfiCond108) CFA_XSP16 add(XSP16, 29)
          CFI Block cfiPicker109 Using cfiCommon1
          CFI (cfiPicker109) NoFunction
          CFI (cfiPicker109) Picker
        MOV       DPTR,#bdb_CurrEpDescriptorList
          CFI EndBlock cfiCond105
          CFI EndBlock cfiCond106
          CFI EndBlock cfiCond107
          CFI EndBlock cfiCond108
          CFI EndBlock cfiPicker109
        REQUIRE ??Subroutine41_0
        ; // Fall through to label ??Subroutine41_0

        RSEG BANKED_CODE:HUGECODE:NOROOT(0)
??Subroutine41_0:
          CFI Block cfiCond110 Using cfiCommon0
          CFI Function bdb_ProcessIEEEAddrRsp
          CFI Conditional ??CrossCallReturnLabel_42
          CFI R6 load(1, XDATA, add(CFA_XSP16, literal(-10)))
          CFI VB load(1, XDATA, add(CFA_XSP16, literal(-9)))
          CFI V0 load(1, XDATA, add(CFA_XSP16, literal(-8)))
          CFI V1 load(1, XDATA, add(CFA_XSP16, literal(-7)))
          CFI R7 load(1, XDATA, add(CFA_XSP16, literal(-6)))
          CFI ?RET_LOW load(1, XDATA, add(CFA_XSP16, literal(-5)))
          CFI ?RET_HIGH load(1, XDATA, add(CFA_XSP16, literal(-4)))
          CFI ?BRET_EXT load(1, XDATA, add(CFA_XSP16, literal(-3)))
          CFI DPL0 load(1, XDATA, add(CFA_XSP16, literal(-2)))
          CFI DPH0 load(1, XDATA, add(CFA_XSP16, literal(-1)))
          CFI CFA_SP SP+-2
          CFI CFA_XSP16 add(XSP16, 25)
          CFI Block cfiCond111 Using cfiCommon0
          CFI (cfiCond111) Function bdb_ZclIdentifyQueryCmdInd
          CFI (cfiCond111) Conditional ??CrossCallReturnLabel_43
          CFI (cfiCond111) R6 load(1, XDATA, add(CFA_XSP16, literal(-10)))
          CFI (cfiCond111) VB load(1, XDATA, add(CFA_XSP16, literal(-9)))
          CFI (cfiCond111) V0 load(1, XDATA, add(CFA_XSP16, literal(-8)))
          CFI (cfiCond111) V1 load(1, XDATA, add(CFA_XSP16, literal(-7)))
          CFI (cfiCond111) R7 load(1, XDATA, add(CFA_XSP16, literal(-6)))
          CFI (cfiCond111) ?RET_LOW load(1, XDATA, add(CFA_XSP16, literal(-5)))
          CFI (cfiCond111) ?RET_HIGH load(1, XDATA, add(CFA_XSP16, literal(-4)))
          CFI (cfiCond111) ?BRET_EXT load(1, XDATA, add(CFA_XSP16, literal(-3)))
          CFI (cfiCond111) DPL0 load(1, XDATA, add(CFA_XSP16, literal(-2)))
          CFI (cfiCond111) DPH0 load(1, XDATA, add(CFA_XSP16, literal(-1)))
          CFI (cfiCond111) CFA_SP SP+-2
          CFI (cfiCond111) CFA_XSP16 add(XSP16, 10)
          CFI Block cfiCond112 Using cfiCommon0
          CFI (cfiCond112) Function bdb_ProcessRespondentList
          CFI (cfiCond112) Conditional ??CrossCallReturnLabel_44
          CFI (cfiCond112) R6 load(1, XDATA, add(CFA_XSP16, literal(-9)))
          CFI (cfiCond112) VB load(1, XDATA, add(CFA_XSP16, literal(-8)))
          CFI (cfiCond112) V0 load(1, XDATA, add(CFA_XSP16, literal(-7)))
          CFI (cfiCond112) R7 load(1, XDATA, add(CFA_XSP16, literal(-6)))
          CFI (cfiCond112) ?RET_LOW load(1, XDATA, add(CFA_XSP16, literal(-5)))
          CFI (cfiCond112) ?RET_HIGH load(1, XDATA, add(CFA_XSP16, literal(-4)))
          CFI (cfiCond112) ?BRET_EXT load(1, XDATA, add(CFA_XSP16, literal(-3)))
          CFI (cfiCond112) DPL0 load(1, XDATA, add(CFA_XSP16, literal(-2)))
          CFI (cfiCond112) DPH0 load(1, XDATA, add(CFA_XSP16, literal(-1)))
          CFI (cfiCond112) CFA_SP SP+-2
          CFI (cfiCond112) CFA_XSP16 add(XSP16, 18)
          CFI Block cfiCond113 Using cfiCommon0
          CFI (cfiCond113) Function bdb_ProcessRespondentList
          CFI (cfiCond113) Conditional ??CrossCallReturnLabel_45
          CFI (cfiCond113) R6 load(1, XDATA, add(CFA_XSP16, literal(-9)))
          CFI (cfiCond113) VB load(1, XDATA, add(CFA_XSP16, literal(-8)))
          CFI (cfiCond113) V0 load(1, XDATA, add(CFA_XSP16, literal(-7)))
          CFI (cfiCond113) R7 load(1, XDATA, add(CFA_XSP16, literal(-6)))
          CFI (cfiCond113) ?RET_LOW load(1, XDATA, add(CFA_XSP16, literal(-5)))
          CFI (cfiCond113) ?RET_HIGH load(1, XDATA, add(CFA_XSP16, literal(-4)))
          CFI (cfiCond113) ?BRET_EXT load(1, XDATA, add(CFA_XSP16, literal(-3)))
          CFI (cfiCond113) DPL0 load(1, XDATA, add(CFA_XSP16, literal(-2)))
          CFI (cfiCond113) DPH0 load(1, XDATA, add(CFA_XSP16, literal(-1)))
          CFI (cfiCond113) CFA_SP SP+-2
          CFI (cfiCond113) CFA_XSP16 add(XSP16, 18)
          CFI Block cfiCond114 Using cfiCommon0
          CFI (cfiCond114) Function bdb_setEpDescListToActiveEndpoint
          CFI (cfiCond114) Conditional ??CrossCallReturnLabel_46
          CFI (cfiCond114) DPL0 Frame(CFA_SP, 4)
          CFI (cfiCond114) DPH0 Frame(CFA_SP, 5)
          CFI (cfiCond114) CFA_SP SP+-7
          CFI Block cfiCond115 Using cfiCommon0
          CFI (cfiCond115) Function bdb_setEpDescListToActiveEndpoint
          CFI (cfiCond115) Conditional ??CrossCallReturnLabel_47, ??CrossCallReturnLabel_0
          CFI (cfiCond115) DPL0 Frame(CFA_SP, 4)
          CFI (cfiCond115) DPH0 Frame(CFA_SP, 5)
          CFI (cfiCond115) CFA_SP SP+-9
          CFI Block cfiCond116 Using cfiCommon0
          CFI (cfiCond116) Function bdb_setEpDescListToActiveEndpoint
          CFI (cfiCond116) Conditional ??CrossCallReturnLabel_47, ??CrossCallReturnLabel_1
          CFI (cfiCond116) DPL0 Frame(CFA_SP, 4)
          CFI (cfiCond116) DPH0 Frame(CFA_SP, 5)
          CFI (cfiCond116) CFA_SP SP+-9
          CFI Block cfiCond117 Using cfiCommon0
          CFI (cfiCond117) Function bdb_checkMatchingEndpoints
          CFI (cfiCond117) Conditional ??CrossCallReturnLabel_47, ??CrossCallReturnLabel_2
          CFI (cfiCond117) R6 load(1, XDATA, add(CFA_XSP16, literal(-16)))
          CFI (cfiCond117) VB load(1, XDATA, add(CFA_XSP16, literal(-15)))
          CFI (cfiCond117) V0 load(1, XDATA, add(CFA_XSP16, literal(-14)))
          CFI (cfiCond117) V1 load(1, XDATA, add(CFA_XSP16, literal(-13)))
          CFI (cfiCond117) V2 load(1, XDATA, add(CFA_XSP16, literal(-12)))
          CFI (cfiCond117) V3 load(1, XDATA, add(CFA_XSP16, literal(-11)))
          CFI (cfiCond117) V4 load(1, XDATA, add(CFA_XSP16, literal(-10)))
          CFI (cfiCond117) V5 load(1, XDATA, add(CFA_XSP16, literal(-9)))
          CFI (cfiCond117) V6 load(1, XDATA, add(CFA_XSP16, literal(-8)))
          CFI (cfiCond117) V7 load(1, XDATA, add(CFA_XSP16, literal(-7)))
          CFI (cfiCond117) R7 load(1, XDATA, add(CFA_XSP16, literal(-6)))
          CFI (cfiCond117) ?RET_LOW load(1, XDATA, add(CFA_XSP16, literal(-5)))
          CFI (cfiCond117) ?RET_HIGH load(1, XDATA, add(CFA_XSP16, literal(-4)))
          CFI (cfiCond117) ?BRET_EXT load(1, XDATA, add(CFA_XSP16, literal(-3)))
          CFI (cfiCond117) DPL0 load(1, XDATA, add(CFA_XSP16, literal(-2)))
          CFI (cfiCond117) DPH0 load(1, XDATA, add(CFA_XSP16, literal(-1)))
          CFI (cfiCond117) CFA_SP SP+-4
          CFI (cfiCond117) CFA_XSP16 add(XSP16, 29)
          CFI Block cfiPicker118 Using cfiCommon1
          CFI (cfiPicker118) NoFunction
          CFI (cfiPicker118) Picker
        MOV       A,R0
        MOVX      @DPTR,A
        INC       DPTR
        MOV       A,R1
        MOVX      @DPTR,A
        RET
          CFI EndBlock cfiCond110
          CFI EndBlock cfiCond111
          CFI EndBlock cfiCond112
          CFI EndBlock cfiCond113
          CFI EndBlock cfiCond114
          CFI EndBlock cfiCond115
          CFI EndBlock cfiCond116
          CFI EndBlock cfiCond117
          CFI EndBlock cfiPicker118
//  571 
//  572 
//  573 
//  574 /*********************************************************************
//  575  * @fn      bdb_ProcessSimpleDesc
//  576  *
//  577  * @brief   Process simple descriptor requested by F&B. Binds will be added if 
//  578  *          matching cluster is found and if IEEE addrs of the device is already 
//  579  *          stored
//  580  *
//  581  * @param   msgPtr - pointer to simple descriptor response indication message
//  582  *
//  583  * @return  none
//  584  */

        RSEG BANKED_CODE:HUGECODE:NOROOT(0)
//  585 void bdb_ProcessSimpleDesc( zdoIncomingMsg_t *msgPtr )
bdb_ProcessSimpleDesc:
          CFI Block cfiBlock119 Using cfiCommon0
          CFI Function bdb_ProcessSimpleDesc
        CODE
//  586 {
        FUNCALL bdb_ProcessSimpleDesc, bdb_setEpDescListToActiveEndpoint
        LOCFRAME ISTACK, 0, STACK
        LOCFRAME PSTACK, 0, STACK
        LOCFRAME XSTACK, 28, STACK
        LOCFRAME IOVERLAY, 0, STATIC
        LOCFRAME DOVERLAY, 0, STATIC
        ARGFRAME ISTACK, 0, STACK
        ARGFRAME PSTACK, 0, STACK
        ARGFRAME XSTACK, 28, STACK
        ARGFRAME IOVERLAY, 0, STATIC
        ARGFRAME DOVERLAY, 0, STATIC
        FUNCALL bdb_ProcessSimpleDesc, ZDO_ParseSimpleDescBuf
        LOCFRAME ISTACK, 0, STACK
        LOCFRAME PSTACK, 0, STACK
        LOCFRAME XSTACK, 28, STACK
        LOCFRAME IOVERLAY, 0, STATIC
        LOCFRAME DOVERLAY, 0, STATIC
        ARGFRAME ISTACK, 0, STACK
        ARGFRAME PSTACK, 0, STACK
        ARGFRAME XSTACK, 28, STACK
        ARGFRAME IOVERLAY, 0, STATIC
        ARGFRAME DOVERLAY, 0, STATIC
        FUNCALL bdb_ProcessSimpleDesc, bdb_findRespondentNode
        LOCFRAME ISTACK, 0, STACK
        LOCFRAME PSTACK, 0, STACK
        LOCFRAME XSTACK, 28, STACK
        LOCFRAME IOVERLAY, 0, STATIC
        LOCFRAME DOVERLAY, 0, STATIC
        ARGFRAME ISTACK, 0, STACK
        ARGFRAME PSTACK, 0, STACK
        ARGFRAME XSTACK, 28, STACK
        ARGFRAME IOVERLAY, 0, STATIC
        ARGFRAME DOVERLAY, 0, STATIC
        FUNCALL bdb_ProcessSimpleDesc, AddrMgrExtAddrLookup
        LOCFRAME ISTACK, 0, STACK
        LOCFRAME PSTACK, 0, STACK
        LOCFRAME XSTACK, 28, STACK
        LOCFRAME IOVERLAY, 0, STATIC
        LOCFRAME DOVERLAY, 0, STATIC
        ARGFRAME ISTACK, 0, STACK
        ARGFRAME PSTACK, 0, STACK
        ARGFRAME XSTACK, 28, STACK
        ARGFRAME IOVERLAY, 0, STATIC
        ARGFRAME DOVERLAY, 0, STATIC
        FUNCALL bdb_ProcessSimpleDesc, bdb_checkMatchingEndpoints
        LOCFRAME ISTACK, 0, STACK
        LOCFRAME PSTACK, 0, STACK
        LOCFRAME XSTACK, 28, STACK
        LOCFRAME IOVERLAY, 0, STATIC
        LOCFRAME DOVERLAY, 0, STATIC
        ARGFRAME ISTACK, 0, STACK
        ARGFRAME PSTACK, 0, STACK
        ARGFRAME XSTACK, 28, STACK
        ARGFRAME IOVERLAY, 0, STATIC
        ARGFRAME DOVERLAY, 0, STATIC
        FUNCALL bdb_ProcessSimpleDesc, bdb_zclSimpleDescClusterListClean
        LOCFRAME ISTACK, 0, STACK
        LOCFRAME PSTACK, 0, STACK
        LOCFRAME XSTACK, 28, STACK
        LOCFRAME IOVERLAY, 0, STATIC
        LOCFRAME DOVERLAY, 0, STATIC
        ARGFRAME ISTACK, 0, STACK
        ARGFRAME PSTACK, 0, STACK
        ARGFRAME XSTACK, 28, STACK
        ARGFRAME IOVERLAY, 0, STATIC
        ARGFRAME DOVERLAY, 0, STATIC
        REQUIRE ?V0
        MOV       A,#-0x9
        LCALL     ?BANKED_ENTER_XDATA
          CFI DPH0 load(1, XDATA, add(CFA_XSP16, literal(-1)))
          CFI DPL0 load(1, XDATA, add(CFA_XSP16, literal(-2)))
          CFI ?BRET_EXT load(1, XDATA, add(CFA_XSP16, literal(-3)))
          CFI ?RET_HIGH load(1, XDATA, add(CFA_XSP16, literal(-4)))
          CFI ?RET_LOW load(1, XDATA, add(CFA_XSP16, literal(-5)))
          CFI R7 load(1, XDATA, add(CFA_XSP16, literal(-6)))
          CFI V0 load(1, XDATA, add(CFA_XSP16, literal(-7)))
          CFI VB load(1, XDATA, add(CFA_XSP16, literal(-8)))
          CFI R6 load(1, XDATA, add(CFA_XSP16, literal(-9)))
          CFI CFA_SP SP+0
          CFI CFA_XSP16 add(XSP16, 9)
        ; Saved register size: 9
        ; Auto size: 19
        MOV       A,#-0x13
        LCALL     ?ALLOC_XSTACK8
          CFI CFA_XSP16 add(XSP16, 28)
        MOV       A,R2
        MOV       R6,A
        MOV       A,R3
        MOV       R7,A
//  587   zAddrType_t dstAddr;
//  588   bdbFindingBindingRespondent_t *pCurr = NULL;
        MOV       DPL,?XSP + 0
        MOV       DPH,?XSP + 1
        CLR       A
        MOVX      @DPTR,A
        INC       DPTR
        MOVX      @DPTR,A
//  589   uint8 isRespondantReadyToBeAdded = FALSE;
        MOV       ?V0,#0x0
//  590 
//  591   bdb_setEpDescListToActiveEndpoint();
        ; Setup parameters for call to function bdb_setEpDescListToActiveEndpoint
        LCALL     `??bdb_setEpDescListToActiveEndpoint::?relay`; Banked call to: bdb_setEpDescListToActiveEndpoint
//  592   
//  593   if ( !(bdb_CurrEpDescriptorList->epDesc->epType & BDB_FINDING_AND_BINDING_INITIATOR )) 
        LCALL     ?Subroutine10 & 0xFFFF
??CrossCallReturnLabel_12:
        MOV       R0,A
        LCALL     ??Subroutine44_0 & 0xFFFF
??CrossCallReturnLabel_51:
        INC       DPTR
        MOVX      A,@DPTR
        MOV       C,0xE0 /* A   */.0
        JC        $+5
        LJMP      ??bdb_ProcessSimpleDesc_0 & 0xFFFF
//  594   {  
//  595     //We should not be processing these commands as we are not initiator
//  596     return;
//  597   }
//  598   
//  599   dstAddr.addr.shortAddr = BUILD_UINT16( msgPtr->asdu[1], msgPtr->asdu[2] );
        MOV       A,R6
        ADD       A,#0x13
        MOV       DPL,A
        CLR       A
        ADDC      A,R7
        MOV       DPH,A
        LCALL     ?Subroutine21 & 0xFFFF
??CrossCallReturnLabel_23:
        INC       DPTR
        MOVX      A,@DPTR
        MOV       R4,A
        MOV       DPL,R0
        MOV       DPH,R1
        INC       DPTR
        INC       DPTR
        MOVX      A,@DPTR
        MOV       R3,A
        MOV       A,R4
        MOV       R2,A
        MOV       A,#0x2
        LCALL     ?XSTACK_DISP0_8
        LCALL     ??Subroutine46_0 & 0xFFFF
//  600   dstAddr.addrMode = Addr16Bit;
??CrossCallReturnLabel_79:
        MOV       A,#0xa
        LCALL     ?XSTACK_DISP0_8
        MOV       A,#0x2
        MOVX      @DPTR,A
//  601   
//  602   ZDO_ParseSimpleDescBuf( &msgPtr->asdu[4], &bdb_FindingBindingTargetSimpleDesc );
        ; Setup parameters for call to function ZDO_ParseSimpleDescBuf
        MOV       R4,#bdb_FindingBindingTargetSimpleDesc & 0xff
        MOV       R5,#(bdb_FindingBindingTargetSimpleDesc >> 8) & 0xff
        MOV       A,R0
        ADD       A,#0x4
        MOV       R2,A
        CLR       A
        ADDC      A,R1
        MOV       R3,A
        LCALL     `??ZDO_ParseSimpleDescBuf::?relay`; Banked call to: ZDO_ParseSimpleDescBuf
//  603   
//  604   pCurr = bdb_findRespondentNode(bdb_FindingBindingTargetSimpleDesc.EndPoint, dstAddr.addr.shortAddr);
        ; Setup parameters for call to function bdb_findRespondentNode
        MOV       A,#0x2
        LCALL     ?XSTACK_DISP0_8
        LCALL     ?Subroutine18 & 0xFFFF
??CrossCallReturnLabel_22:
        LCALL     `??bdb_findRespondentNode::?relay`; Banked call to: bdb_findRespondentNode
        LCALL     ?Subroutine4 & 0xFFFF
//  605   
//  606   //Just for safety check this is a valid entry
//  607   if(pCurr != NULL) 
??CrossCallReturnLabel_101:
        JZ        ??bdb_ProcessSimpleDesc_0
//  608   {
//  609     uint8 extAddr[Z_EXTADDR_LEN]; 
//  610     
//  611     if(AddrMgrExtAddrLookup( pCurr->data.addr.shortAddr, extAddr ))
        ; Setup parameters for call to function AddrMgrExtAddrLookup
        MOV       A,#0xb
        LCALL     ?XSTACK_DISP102_8
        LCALL     ?Subroutine20 & 0xFFFF
??CrossCallReturnLabel_53:
        LCALL     ??Subroutine45_0 & 0xFFFF
??CrossCallReturnLabel_61:
        LCALL     `??AddrMgrExtAddrLookup::?relay`; Banked call to: AddrMgrExtAddrLookup
        MOV       A,R1
        JZ        ??bdb_ProcessSimpleDesc_1
//  612     {
//  613       isRespondantReadyToBeAdded = TRUE;
        MOV       ?V0,#0x1
        SJMP      ??bdb_ProcessSimpleDesc_2
//  614     }
//  615     else
//  616     {
//  617       //Save the simple desc to don't ask for it again
//  618       pCurr->SimpleDescriptor = &bdb_FindingBindingTargetSimpleDesc;
??bdb_ProcessSimpleDesc_1:
        LCALL     ?Subroutine14 & 0xFFFF
//  619     }
??CrossCallReturnLabel_41:
        ADD       A,#0xd
        MOV       DPL,A
        CLR       A
        ADDC      A,R0
        MOV       DPH,A
        MOV       A,#bdb_FindingBindingTargetSimpleDesc & 0xff
        MOVX      @DPTR,A
        INC       DPTR
        MOV       A,#(bdb_FindingBindingTargetSimpleDesc >> 8) & 0xff
        MOVX      @DPTR,A
//  620     (void)extAddr;  //dummy
//  621   }
//  622   else
//  623   {
//  624     //This simple desc rsp was not requested by BDB F&B
//  625     return;
//  626   } 
//  627   
//  628   bdb_checkMatchingEndpoints(isRespondantReadyToBeAdded, dstAddr.addr.shortAddr, &pCurr);
??bdb_ProcessSimpleDesc_2:
        ; Setup parameters for call to function bdb_checkMatchingEndpoints
        MOV       R4,?XSP + 0
        MOV       R5,?XSP + 1
        MOV       A,#0x2
        LCALL     ?XSTACK_DISP0_8
        LCALL     ??Subroutine45_0 & 0xFFFF
??CrossCallReturnLabel_62:
        MOV       R1,?V0
        LCALL     `??bdb_checkMatchingEndpoints::?relay`; Banked call to: bdb_checkMatchingEndpoints
//  629   
//  630   //If the respondent got process complete, then release the entry
//  631   if(pCurr->attempts == FINDING_AND_BINDING_RESPONDENT_COMPLETE)
        MOV       DPL,?XSP + 0
        MOV       DPH,?XSP + 1
        LCALL     ??Subroutine48_0 & 0xFFFF
??CrossCallReturnLabel_94:
        CPL       A
        JNZ       ??bdb_ProcessSimpleDesc_0
//  632   {
//  633     bdb_zclSimpleDescClusterListClean( &bdb_FindingBindingTargetSimpleDesc );  
        ; Setup parameters for call to function bdb_zclSimpleDescClusterListClean
        MOV       R2,#bdb_FindingBindingTargetSimpleDesc & 0xff
        MOV       R3,#(bdb_FindingBindingTargetSimpleDesc >> 8) & 0xff
        LCALL     `??bdb_zclSimpleDescClusterListClean::?relay`; Banked call to: bdb_zclSimpleDescClusterListClean
//  634   }
//  635 }
??bdb_ProcessSimpleDesc_0:
        MOV       A,#0x13
          CFI EndBlock cfiBlock119
        REQUIRE ?Subroutine3
        ; // Fall through to label ?Subroutine3

        RSEG BANKED_CODE:HUGECODE:NOROOT(0)
?Subroutine3:
          CFI Block cfiBlock120 Using cfiCommon0
          CFI NoFunction
          CFI CFA_SP SP+0
          CFI CFA_XSP16 add(XSP16, 28)
          CFI VB load(1, XDATA, add(CFA_XSP16, literal(-8)))
          CFI DPL0 load(1, XDATA, add(CFA_XSP16, literal(-2)))
          CFI DPH0 load(1, XDATA, add(CFA_XSP16, literal(-1)))
          CFI R6 load(1, XDATA, add(CFA_XSP16, literal(-9)))
          CFI R7 load(1, XDATA, add(CFA_XSP16, literal(-6)))
          CFI V0 load(1, XDATA, add(CFA_XSP16, literal(-7)))
          CFI ?BRET_EXT load(1, XDATA, add(CFA_XSP16, literal(-3)))
          CFI ?RET_HIGH load(1, XDATA, add(CFA_XSP16, literal(-4)))
          CFI ?RET_LOW load(1, XDATA, add(CFA_XSP16, literal(-5)))
          CFI Invalid
        LCALL     ?DEALLOC_XSTACK8
          CFI EndBlock cfiBlock120
        REQUIRE ??Subroutine42_0
        ; // Fall through to label ??Subroutine42_0

        RSEG BANKED_CODE:HUGECODE:NOROOT(0)
??Subroutine42_0:
          CFI Block cfiBlock121 Using cfiCommon0
          CFI NoFunction
          CFI CFA_SP SP+0
          CFI CFA_XSP16 add(XSP16, 9)
          CFI VB load(1, XDATA, add(CFA_XSP16, literal(-8)))
          CFI DPL0 load(1, XDATA, add(CFA_XSP16, literal(-2)))
          CFI DPH0 load(1, XDATA, add(CFA_XSP16, literal(-1)))
          CFI R6 load(1, XDATA, add(CFA_XSP16, literal(-9)))
          CFI R7 load(1, XDATA, add(CFA_XSP16, literal(-6)))
          CFI V0 load(1, XDATA, add(CFA_XSP16, literal(-7)))
          CFI ?BRET_EXT load(1, XDATA, add(CFA_XSP16, literal(-3)))
          CFI ?RET_HIGH load(1, XDATA, add(CFA_XSP16, literal(-4)))
          CFI ?RET_LOW load(1, XDATA, add(CFA_XSP16, literal(-5)))
        MOV       R7,#0x1
        LJMP      ?BANKED_LEAVE_XDATA
          CFI EndBlock cfiBlock121

        RSEG BANKED_CODE:HUGECODE:NOROOT(0)
?Subroutine18:
          CFI Block cfiCond122 Using cfiCommon0
          CFI Function bdb_ProcessIEEEAddrRsp
          CFI Conditional ??CrossCallReturnLabel_21
          CFI R6 load(1, XDATA, add(CFA_XSP16, literal(-10)))
          CFI VB load(1, XDATA, add(CFA_XSP16, literal(-9)))
          CFI V0 load(1, XDATA, add(CFA_XSP16, literal(-8)))
          CFI V1 load(1, XDATA, add(CFA_XSP16, literal(-7)))
          CFI R7 load(1, XDATA, add(CFA_XSP16, literal(-6)))
          CFI ?RET_LOW load(1, XDATA, add(CFA_XSP16, literal(-5)))
          CFI ?RET_HIGH load(1, XDATA, add(CFA_XSP16, literal(-4)))
          CFI ?BRET_EXT load(1, XDATA, add(CFA_XSP16, literal(-3)))
          CFI DPL0 load(1, XDATA, add(CFA_XSP16, literal(-2)))
          CFI DPH0 load(1, XDATA, add(CFA_XSP16, literal(-1)))
          CFI CFA_SP SP+-2
          CFI CFA_XSP16 add(XSP16, 25)
          CFI Block cfiCond123 Using cfiCommon0
          CFI (cfiCond123) Function bdb_ProcessSimpleDesc
          CFI (cfiCond123) Conditional ??CrossCallReturnLabel_22
          CFI (cfiCond123) R6 load(1, XDATA, add(CFA_XSP16, literal(-9)))
          CFI (cfiCond123) VB load(1, XDATA, add(CFA_XSP16, literal(-8)))
          CFI (cfiCond123) V0 load(1, XDATA, add(CFA_XSP16, literal(-7)))
          CFI (cfiCond123) R7 load(1, XDATA, add(CFA_XSP16, literal(-6)))
          CFI (cfiCond123) ?RET_LOW load(1, XDATA, add(CFA_XSP16, literal(-5)))
          CFI (cfiCond123) ?RET_HIGH load(1, XDATA, add(CFA_XSP16, literal(-4)))
          CFI (cfiCond123) ?BRET_EXT load(1, XDATA, add(CFA_XSP16, literal(-3)))
          CFI (cfiCond123) DPL0 load(1, XDATA, add(CFA_XSP16, literal(-2)))
          CFI (cfiCond123) DPH0 load(1, XDATA, add(CFA_XSP16, literal(-1)))
          CFI (cfiCond123) CFA_SP SP+-2
          CFI (cfiCond123) CFA_XSP16 add(XSP16, 28)
          CFI Block cfiPicker124 Using cfiCommon1
          CFI (cfiPicker124) NoFunction
          CFI (cfiPicker124) Picker
        LCALL     ?Subroutine29 & 0xFFFF
??CrossCallReturnLabel_76:
        MOV       DPTR,#bdb_FindingBindingTargetSimpleDesc
        MOVX      A,@DPTR
        MOV       R1,A
        RET
          CFI EndBlock cfiCond122
          CFI EndBlock cfiCond123
          CFI EndBlock cfiPicker124
//  636 
//  637 /*********************************************************************
//  638  * @fn      bdb_zclFindingBindingEpType
//  639  *
//  640  * @brief   Gives the Ep Type according to application clusters in
//  641  *          simple descriptor
//  642  *
//  643  * @return  epType - If Target, Initiator or both
//  644  */

        RSEG BANKED_CODE:HUGECODE:NOROOT(0)
//  645 uint8 bdb_zclFindingBindingEpType( endPointDesc_t *epDesc )
bdb_zclFindingBindingEpType:
          CFI Block cfiBlock125 Using cfiCommon0
          CFI Function bdb_zclFindingBindingEpType
        CODE
//  646 {
        FUNCALL bdb_zclFindingBindingEpType, ZDO_AnyClusterMatches
        LOCFRAME ISTACK, 0, STACK
        LOCFRAME PSTACK, 0, STACK
        LOCFRAME XSTACK, 16, STACK
        LOCFRAME IOVERLAY, 0, STATIC
        LOCFRAME DOVERLAY, 0, STATIC
        ARGFRAME ISTACK, 0, STACK
        ARGFRAME PSTACK, 0, STACK
        ARGFRAME XSTACK, 16, STACK
        ARGFRAME IOVERLAY, 0, STATIC
        ARGFRAME DOVERLAY, 0, STATIC
        FUNCALL bdb_zclFindingBindingEpType, ZDO_AnyClusterMatches
        LOCFRAME ISTACK, 0, STACK
        LOCFRAME PSTACK, 0, STACK
        LOCFRAME XSTACK, 16, STACK
        LOCFRAME IOVERLAY, 0, STATIC
        LOCFRAME DOVERLAY, 0, STATIC
        ARGFRAME ISTACK, 0, STACK
        ARGFRAME PSTACK, 0, STACK
        ARGFRAME XSTACK, 16, STACK
        ARGFRAME IOVERLAY, 0, STATIC
        ARGFRAME DOVERLAY, 0, STATIC
        FUNCALL bdb_zclFindingBindingEpType, ZDO_AnyClusterMatches
        LOCFRAME ISTACK, 0, STACK
        LOCFRAME PSTACK, 0, STACK
        LOCFRAME XSTACK, 16, STACK
        LOCFRAME IOVERLAY, 0, STATIC
        LOCFRAME DOVERLAY, 0, STATIC
        ARGFRAME ISTACK, 0, STACK
        ARGFRAME PSTACK, 0, STACK
        ARGFRAME XSTACK, 16, STACK
        ARGFRAME IOVERLAY, 0, STATIC
        ARGFRAME DOVERLAY, 0, STATIC
        FUNCALL bdb_zclFindingBindingEpType, ZDO_AnyClusterMatches
        LOCFRAME ISTACK, 0, STACK
        LOCFRAME PSTACK, 0, STACK
        LOCFRAME XSTACK, 16, STACK
        LOCFRAME IOVERLAY, 0, STATIC
        LOCFRAME DOVERLAY, 0, STATIC
        ARGFRAME ISTACK, 0, STACK
        ARGFRAME PSTACK, 0, STACK
        ARGFRAME XSTACK, 16, STACK
        ARGFRAME IOVERLAY, 0, STATIC
        ARGFRAME DOVERLAY, 0, STATIC
        REQUIRE ?V0
        REQUIRE ?V1
        REQUIRE ?V2
        REQUIRE ?V3
        REQUIRE ?V4
        REQUIRE ?V5
        MOV       A,#-0xe
        LCALL     ?BANKED_ENTER_XDATA
          CFI DPH0 load(1, XDATA, add(CFA_XSP16, literal(-1)))
          CFI DPL0 load(1, XDATA, add(CFA_XSP16, literal(-2)))
          CFI ?BRET_EXT load(1, XDATA, add(CFA_XSP16, literal(-3)))
          CFI ?RET_HIGH load(1, XDATA, add(CFA_XSP16, literal(-4)))
          CFI ?RET_LOW load(1, XDATA, add(CFA_XSP16, literal(-5)))
          CFI R7 load(1, XDATA, add(CFA_XSP16, literal(-6)))
          CFI V5 load(1, XDATA, add(CFA_XSP16, literal(-7)))
          CFI V4 load(1, XDATA, add(CFA_XSP16, literal(-8)))
          CFI V3 load(1, XDATA, add(CFA_XSP16, literal(-9)))
          CFI V2 load(1, XDATA, add(CFA_XSP16, literal(-10)))
          CFI V1 load(1, XDATA, add(CFA_XSP16, literal(-11)))
          CFI V0 load(1, XDATA, add(CFA_XSP16, literal(-12)))
          CFI VB load(1, XDATA, add(CFA_XSP16, literal(-13)))
          CFI R6 load(1, XDATA, add(CFA_XSP16, literal(-14)))
          CFI CFA_SP SP+0
          CFI CFA_XSP16 add(XSP16, 14)
        ; Saved register size: 14
        ; Auto size: 0
//  647   uint8 epType = 0;
        MOV       R6,#0x0
//  648   uint8 status;
//  649   uint8 type1ClusterCnt;
//  650   uint8 type2ClusterCnt;
//  651   
//  652   type1ClusterCnt = sizeof( bdb_ZclType1Clusters )/sizeof( uint16 );
//  653   type2ClusterCnt = sizeof( bdb_ZclType2Clusters )/sizeof( uint16 );
//  654   
//  655 
//  656   // Are there matching type 1 on server side?
//  657   status = ZDO_AnyClusterMatches( epDesc->simpleDesc->AppNumInClusters, 
//  658                                   epDesc->simpleDesc->pAppInClusterList,
//  659                                   type1ClusterCnt,
//  660                                   (uint16*)bdb_ZclType1Clusters);
//  661   
//  662   if( status == TRUE )
        MOV       A,R2
        ADD       A,#0x4
        MOV       ?V0,A
        CLR       A
        ADDC      A,R3
        MOV       ?V1,A
        MOV       DPL,?V0
        MOV       DPH,A
        LCALL     ??Subroutine43_0 & 0xFFFF
??CrossCallReturnLabel_48:
        MOV       ?V4,#bdb_ZclType1Clusters & 0xff
        MOV       ?V5,#(bdb_ZclType1Clusters >> 8) & 0xff
        ; Setup parameters for call to function ZDO_AnyClusterMatches
        MOV       R0,#?V4
        LCALL     ?PUSH_XSTACK_I_TWO
          CFI CFA_XSP16 add(XSP16, 16)
        MOV       R4,#0x18
        LCALL     ?Subroutine11 & 0xFFFF
??CrossCallReturnLabel_13:
        LCALL     `??ZDO_AnyClusterMatches::?relay`; Banked call to: ZDO_AnyClusterMatches
        MOV       A,#0x2
        LCALL     ?DEALLOC_XSTACK8
          CFI CFA_XSP16 add(XSP16, 14)
        MOV       A,R1
        XRL       A,#0x1
        JNZ       ??bdb_zclFindingBindingEpType_0
//  663   {
//  664     epType |= BDB_FINDING_AND_BINDING_TARGET;
        MOV       R6,#0x2
//  665   }
//  666   
//  667   // Are there matching type 1 on client side?
//  668   status = ZDO_AnyClusterMatches( epDesc->simpleDesc->AppNumOutClusters, 
//  669                                   epDesc->simpleDesc->pAppOutClusterList,
//  670                                   type1ClusterCnt,
//  671                                   (uint16*)bdb_ZclType1Clusters);
//  672   
//  673   if( status == TRUE )
??bdb_zclFindingBindingEpType_0:
        LCALL     ?Subroutine17 & 0xFFFF
??CrossCallReturnLabel_49:
        ; Setup parameters for call to function ZDO_AnyClusterMatches
        MOV       R0,#?V4
        LCALL     ?PUSH_XSTACK_I_TWO
          CFI CFA_XSP16 add(XSP16, 16)
        MOV       R4,#0x18
        MOV       DPL,?V2
        MOV       DPH,?V3
        LCALL     ?Subroutine19 & 0xFFFF
??CrossCallReturnLabel_71:
        MOV       DPL,?V2
        MOV       DPH,?V3
        INC       DPTR
        INC       DPTR
        INC       DPTR
        INC       DPTR
        INC       DPTR
        INC       DPTR
        INC       DPTR
        INC       DPTR
        INC       DPTR
        MOVX      A,@DPTR
        MOV       R1,A
        LCALL     `??ZDO_AnyClusterMatches::?relay`; Banked call to: ZDO_AnyClusterMatches
        MOV       A,#0x2
        LCALL     ?DEALLOC_XSTACK8
          CFI CFA_XSP16 add(XSP16, 14)
        MOV       A,R1
        XRL       A,#0x1
        JNZ       ??bdb_zclFindingBindingEpType_1
//  674   {
//  675     epType |= BDB_FINDING_AND_BINDING_INITIATOR;
        MOV       A,R6
        SETB      0xE0 /* A   */.0
        MOV       R6,A
//  676   }
//  677   
//  678   // Are there matching type 2 on server side?
//  679   status = ZDO_AnyClusterMatches( epDesc->simpleDesc->AppNumInClusters, 
//  680                                   epDesc->simpleDesc->pAppInClusterList,
//  681                                   type2ClusterCnt,
//  682                                   (uint16*)bdb_ZclType2Clusters);
//  683   
//  684   if( status == TRUE )
??bdb_zclFindingBindingEpType_1:
        LCALL     ?Subroutine17 & 0xFFFF
??CrossCallReturnLabel_50:
        MOV       ?V4,#bdb_ZclType2Clusters & 0xff
        MOV       ?V5,#(bdb_ZclType2Clusters >> 8) & 0xff
        ; Setup parameters for call to function ZDO_AnyClusterMatches
        MOV       R0,#?V4
        LCALL     ?PUSH_XSTACK_I_TWO
          CFI CFA_XSP16 add(XSP16, 16)
        MOV       R4,#0x31
        LCALL     ?Subroutine11 & 0xFFFF
??CrossCallReturnLabel_14:
        LCALL     `??ZDO_AnyClusterMatches::?relay`; Banked call to: ZDO_AnyClusterMatches
        MOV       A,#0x2
        LCALL     ?DEALLOC_XSTACK8
          CFI CFA_XSP16 add(XSP16, 14)
        MOV       A,R1
        XRL       A,#0x1
        JNZ       ??bdb_zclFindingBindingEpType_2
//  685   {
//  686     epType |= BDB_FINDING_AND_BINDING_INITIATOR;
        MOV       A,R6
        SETB      0xE0 /* A   */.0
        MOV       R6,A
//  687   }
//  688   
//  689   // Are there matching type 2 on client side?
//  690   status = ZDO_AnyClusterMatches( epDesc->simpleDesc->AppNumOutClusters, 
//  691                                   epDesc->simpleDesc->pAppOutClusterList,
//  692                                   type2ClusterCnt,
//  693                                   (uint16*)bdb_ZclType2Clusters);
//  694   
//  695   if( status == TRUE )
??bdb_zclFindingBindingEpType_2:
        LCALL     ?Subroutine22 & 0xFFFF
??CrossCallReturnLabel_35:
        MOV       ?V0,R0
        ; Setup parameters for call to function ZDO_AnyClusterMatches
        MOV       R0,#?V4
        LCALL     ?PUSH_XSTACK_I_TWO
          CFI CFA_XSP16 add(XSP16, 16)
        MOV       R4,#0x31
        MOV       DPL,?V0
        MOV       DPH,R1
        LCALL     ?Subroutine19 & 0xFFFF
??CrossCallReturnLabel_72:
        MOV       DPL,?V0
        MOV       DPH,R1
        INC       DPTR
        INC       DPTR
        INC       DPTR
        INC       DPTR
        INC       DPTR
        INC       DPTR
        INC       DPTR
        INC       DPTR
        INC       DPTR
        MOVX      A,@DPTR
        MOV       R1,A
        LCALL     `??ZDO_AnyClusterMatches::?relay`; Banked call to: ZDO_AnyClusterMatches
        MOV       A,#0x2
        LCALL     ?DEALLOC_XSTACK8
          CFI CFA_XSP16 add(XSP16, 14)
        MOV       A,R1
        XRL       A,#0x1
        JNZ       ??bdb_zclFindingBindingEpType_3
//  696   {
//  697     epType |= BDB_FINDING_AND_BINDING_TARGET;
        MOV       A,R6
        SETB      0xE0 /* A   */.1
        MOV       R6,A
//  698   }
//  699 
//  700   return epType;
??bdb_zclFindingBindingEpType_3:
        MOV       A,R6
        MOV       R1,A
        MOV       R7,#0x6
        LJMP      ?BANKED_LEAVE_XDATA
//  701 
//  702 }
          CFI EndBlock cfiBlock125

        RSEG BANKED_CODE:HUGECODE:NOROOT(0)
?Subroutine17:
          CFI Block cfiCond126 Using cfiCommon0
          CFI Function bdb_zclFindingBindingEpType
          CFI Conditional ??CrossCallReturnLabel_49
          CFI R6 load(1, XDATA, add(CFA_XSP16, literal(-14)))
          CFI VB load(1, XDATA, add(CFA_XSP16, literal(-13)))
          CFI V0 load(1, XDATA, add(CFA_XSP16, literal(-12)))
          CFI V1 load(1, XDATA, add(CFA_XSP16, literal(-11)))
          CFI V2 load(1, XDATA, add(CFA_XSP16, literal(-10)))
          CFI V3 load(1, XDATA, add(CFA_XSP16, literal(-9)))
          CFI V4 load(1, XDATA, add(CFA_XSP16, literal(-8)))
          CFI V5 load(1, XDATA, add(CFA_XSP16, literal(-7)))
          CFI R7 load(1, XDATA, add(CFA_XSP16, literal(-6)))
          CFI ?RET_LOW load(1, XDATA, add(CFA_XSP16, literal(-5)))
          CFI ?RET_HIGH load(1, XDATA, add(CFA_XSP16, literal(-4)))
          CFI ?BRET_EXT load(1, XDATA, add(CFA_XSP16, literal(-3)))
          CFI DPL0 load(1, XDATA, add(CFA_XSP16, literal(-2)))
          CFI DPH0 load(1, XDATA, add(CFA_XSP16, literal(-1)))
          CFI CFA_SP SP+-2
          CFI CFA_XSP16 add(XSP16, 14)
          CFI Block cfiCond127 Using cfiCommon0
          CFI (cfiCond127) Function bdb_zclFindingBindingEpType
          CFI (cfiCond127) Conditional ??CrossCallReturnLabel_50
          CFI (cfiCond127) R6 load(1, XDATA, add(CFA_XSP16, literal(-14)))
          CFI (cfiCond127) VB load(1, XDATA, add(CFA_XSP16, literal(-13)))
          CFI (cfiCond127) V0 load(1, XDATA, add(CFA_XSP16, literal(-12)))
          CFI (cfiCond127) V1 load(1, XDATA, add(CFA_XSP16, literal(-11)))
          CFI (cfiCond127) V2 load(1, XDATA, add(CFA_XSP16, literal(-10)))
          CFI (cfiCond127) V3 load(1, XDATA, add(CFA_XSP16, literal(-9)))
          CFI (cfiCond127) V4 load(1, XDATA, add(CFA_XSP16, literal(-8)))
          CFI (cfiCond127) V5 load(1, XDATA, add(CFA_XSP16, literal(-7)))
          CFI (cfiCond127) R7 load(1, XDATA, add(CFA_XSP16, literal(-6)))
          CFI (cfiCond127) ?RET_LOW load(1, XDATA, add(CFA_XSP16, literal(-5)))
          CFI (cfiCond127) ?RET_HIGH load(1, XDATA, add(CFA_XSP16, literal(-4)))
          CFI (cfiCond127) ?BRET_EXT load(1, XDATA, add(CFA_XSP16, literal(-3)))
          CFI (cfiCond127) DPL0 load(1, XDATA, add(CFA_XSP16, literal(-2)))
          CFI (cfiCond127) DPH0 load(1, XDATA, add(CFA_XSP16, literal(-1)))
          CFI (cfiCond127) CFA_SP SP+-2
          CFI (cfiCond127) CFA_XSP16 add(XSP16, 14)
          CFI Block cfiPicker128 Using cfiCommon1
          CFI (cfiPicker128) NoFunction
          CFI (cfiPicker128) Picker
        MOV       DPL,?V0
        MOV       DPH,?V1
          CFI EndBlock cfiCond126
          CFI EndBlock cfiCond127
          CFI EndBlock cfiPicker128
        REQUIRE ??Subroutine43_0
        ; // Fall through to label ??Subroutine43_0

        RSEG BANKED_CODE:HUGECODE:NOROOT(0)
??Subroutine43_0:
          CFI Block cfiCond129 Using cfiCommon0
          CFI Function bdb_zclFindingBindingEpType
          CFI Conditional ??CrossCallReturnLabel_48
          CFI R6 load(1, XDATA, add(CFA_XSP16, literal(-14)))
          CFI VB load(1, XDATA, add(CFA_XSP16, literal(-13)))
          CFI V0 load(1, XDATA, add(CFA_XSP16, literal(-12)))
          CFI V1 load(1, XDATA, add(CFA_XSP16, literal(-11)))
          CFI V2 load(1, XDATA, add(CFA_XSP16, literal(-10)))
          CFI V3 load(1, XDATA, add(CFA_XSP16, literal(-9)))
          CFI V4 load(1, XDATA, add(CFA_XSP16, literal(-8)))
          CFI V5 load(1, XDATA, add(CFA_XSP16, literal(-7)))
          CFI R7 load(1, XDATA, add(CFA_XSP16, literal(-6)))
          CFI ?RET_LOW load(1, XDATA, add(CFA_XSP16, literal(-5)))
          CFI ?RET_HIGH load(1, XDATA, add(CFA_XSP16, literal(-4)))
          CFI ?BRET_EXT load(1, XDATA, add(CFA_XSP16, literal(-3)))
          CFI DPL0 load(1, XDATA, add(CFA_XSP16, literal(-2)))
          CFI DPH0 load(1, XDATA, add(CFA_XSP16, literal(-1)))
          CFI CFA_SP SP+-2
          CFI CFA_XSP16 add(XSP16, 14)
          CFI Block cfiCond130 Using cfiCommon0
          CFI (cfiCond130) Function bdb_zclFindingBindingEpType
          CFI (cfiCond130) Conditional ??CrossCallReturnLabel_49
          CFI (cfiCond130) R6 load(1, XDATA, add(CFA_XSP16, literal(-14)))
          CFI (cfiCond130) VB load(1, XDATA, add(CFA_XSP16, literal(-13)))
          CFI (cfiCond130) V0 load(1, XDATA, add(CFA_XSP16, literal(-12)))
          CFI (cfiCond130) V1 load(1, XDATA, add(CFA_XSP16, literal(-11)))
          CFI (cfiCond130) V2 load(1, XDATA, add(CFA_XSP16, literal(-10)))
          CFI (cfiCond130) V3 load(1, XDATA, add(CFA_XSP16, literal(-9)))
          CFI (cfiCond130) V4 load(1, XDATA, add(CFA_XSP16, literal(-8)))
          CFI (cfiCond130) V5 load(1, XDATA, add(CFA_XSP16, literal(-7)))
          CFI (cfiCond130) R7 load(1, XDATA, add(CFA_XSP16, literal(-6)))
          CFI (cfiCond130) ?RET_LOW load(1, XDATA, add(CFA_XSP16, literal(-5)))
          CFI (cfiCond130) ?RET_HIGH load(1, XDATA, add(CFA_XSP16, literal(-4)))
          CFI (cfiCond130) ?BRET_EXT load(1, XDATA, add(CFA_XSP16, literal(-3)))
          CFI (cfiCond130) DPL0 load(1, XDATA, add(CFA_XSP16, literal(-2)))
          CFI (cfiCond130) DPH0 load(1, XDATA, add(CFA_XSP16, literal(-1)))
          CFI (cfiCond130) CFA_SP SP+-2
          CFI (cfiCond130) CFA_XSP16 add(XSP16, 14)
          CFI Block cfiCond131 Using cfiCommon0
          CFI (cfiCond131) Function bdb_zclFindingBindingEpType
          CFI (cfiCond131) Conditional ??CrossCallReturnLabel_50
          CFI (cfiCond131) R6 load(1, XDATA, add(CFA_XSP16, literal(-14)))
          CFI (cfiCond131) VB load(1, XDATA, add(CFA_XSP16, literal(-13)))
          CFI (cfiCond131) V0 load(1, XDATA, add(CFA_XSP16, literal(-12)))
          CFI (cfiCond131) V1 load(1, XDATA, add(CFA_XSP16, literal(-11)))
          CFI (cfiCond131) V2 load(1, XDATA, add(CFA_XSP16, literal(-10)))
          CFI (cfiCond131) V3 load(1, XDATA, add(CFA_XSP16, literal(-9)))
          CFI (cfiCond131) V4 load(1, XDATA, add(CFA_XSP16, literal(-8)))
          CFI (cfiCond131) V5 load(1, XDATA, add(CFA_XSP16, literal(-7)))
          CFI (cfiCond131) R7 load(1, XDATA, add(CFA_XSP16, literal(-6)))
          CFI (cfiCond131) ?RET_LOW load(1, XDATA, add(CFA_XSP16, literal(-5)))
          CFI (cfiCond131) ?RET_HIGH load(1, XDATA, add(CFA_XSP16, literal(-4)))
          CFI (cfiCond131) ?BRET_EXT load(1, XDATA, add(CFA_XSP16, literal(-3)))
          CFI (cfiCond131) DPL0 load(1, XDATA, add(CFA_XSP16, literal(-2)))
          CFI (cfiCond131) DPH0 load(1, XDATA, add(CFA_XSP16, literal(-1)))
          CFI (cfiCond131) CFA_SP SP+-2
          CFI (cfiCond131) CFA_XSP16 add(XSP16, 14)
          CFI Block cfiPicker132 Using cfiCommon1
          CFI (cfiPicker132) NoFunction
          CFI (cfiPicker132) Picker
        MOVX      A,@DPTR
        MOV       ?V2,A
        INC       DPTR
        MOVX      A,@DPTR
        MOV       ?V3,A
        RET
          CFI EndBlock cfiCond129
          CFI EndBlock cfiCond130
          CFI EndBlock cfiCond131
          CFI EndBlock cfiPicker132

        RSEG BANKED_CODE:HUGECODE:NOROOT(0)
?Subroutine11:
          CFI Block cfiCond133 Using cfiCommon0
          CFI Function bdb_zclFindingBindingEpType
          CFI Conditional ??CrossCallReturnLabel_13
          CFI R6 load(1, XDATA, add(CFA_XSP16, literal(-14)))
          CFI VB load(1, XDATA, add(CFA_XSP16, literal(-13)))
          CFI V0 load(1, XDATA, add(CFA_XSP16, literal(-12)))
          CFI V1 load(1, XDATA, add(CFA_XSP16, literal(-11)))
          CFI V2 load(1, XDATA, add(CFA_XSP16, literal(-10)))
          CFI V3 load(1, XDATA, add(CFA_XSP16, literal(-9)))
          CFI V4 load(1, XDATA, add(CFA_XSP16, literal(-8)))
          CFI V5 load(1, XDATA, add(CFA_XSP16, literal(-7)))
          CFI R7 load(1, XDATA, add(CFA_XSP16, literal(-6)))
          CFI ?RET_LOW load(1, XDATA, add(CFA_XSP16, literal(-5)))
          CFI ?RET_HIGH load(1, XDATA, add(CFA_XSP16, literal(-4)))
          CFI ?BRET_EXT load(1, XDATA, add(CFA_XSP16, literal(-3)))
          CFI DPL0 load(1, XDATA, add(CFA_XSP16, literal(-2)))
          CFI DPH0 load(1, XDATA, add(CFA_XSP16, literal(-1)))
          CFI CFA_SP SP+-2
          CFI CFA_XSP16 add(XSP16, 16)
          CFI Block cfiCond134 Using cfiCommon0
          CFI (cfiCond134) Function bdb_zclFindingBindingEpType
          CFI (cfiCond134) Conditional ??CrossCallReturnLabel_14
          CFI (cfiCond134) R6 load(1, XDATA, add(CFA_XSP16, literal(-14)))
          CFI (cfiCond134) VB load(1, XDATA, add(CFA_XSP16, literal(-13)))
          CFI (cfiCond134) V0 load(1, XDATA, add(CFA_XSP16, literal(-12)))
          CFI (cfiCond134) V1 load(1, XDATA, add(CFA_XSP16, literal(-11)))
          CFI (cfiCond134) V2 load(1, XDATA, add(CFA_XSP16, literal(-10)))
          CFI (cfiCond134) V3 load(1, XDATA, add(CFA_XSP16, literal(-9)))
          CFI (cfiCond134) V4 load(1, XDATA, add(CFA_XSP16, literal(-8)))
          CFI (cfiCond134) V5 load(1, XDATA, add(CFA_XSP16, literal(-7)))
          CFI (cfiCond134) R7 load(1, XDATA, add(CFA_XSP16, literal(-6)))
          CFI (cfiCond134) ?RET_LOW load(1, XDATA, add(CFA_XSP16, literal(-5)))
          CFI (cfiCond134) ?RET_HIGH load(1, XDATA, add(CFA_XSP16, literal(-4)))
          CFI (cfiCond134) ?BRET_EXT load(1, XDATA, add(CFA_XSP16, literal(-3)))
          CFI (cfiCond134) DPL0 load(1, XDATA, add(CFA_XSP16, literal(-2)))
          CFI (cfiCond134) DPH0 load(1, XDATA, add(CFA_XSP16, literal(-1)))
          CFI (cfiCond134) CFA_SP SP+-2
          CFI (cfiCond134) CFA_XSP16 add(XSP16, 16)
          CFI Block cfiPicker135 Using cfiCommon1
          CFI (cfiPicker135) NoFunction
          CFI (cfiPicker135) Picker
        MOV       DPL,?V2
        MOV       DPH,?V3
        INC       DPTR
        INC       DPTR
        INC       DPTR
        INC       DPTR
        INC       DPTR
        INC       DPTR
        INC       DPTR
        LCALL     ?Subroutine29 & 0xFFFF
??CrossCallReturnLabel_74:
        MOV       DPL,?V2
        MOV       DPH,?V3
        INC       DPTR
        INC       DPTR
        INC       DPTR
        INC       DPTR
        INC       DPTR
        INC       DPTR
        MOVX      A,@DPTR
        MOV       R1,A
        RET
          CFI EndBlock cfiCond133
          CFI EndBlock cfiCond134
          CFI EndBlock cfiPicker135
//  703 
//  704 /*********************************************************************
//  705  * @fn      bdb_zclFindingBindingAddBindEntry
//  706  *
//  707  * @brief   This function is used to Add an entry to the binding table
//  708  *
//  709  * @param   SrcEndpInt - source endpoint
//  710  * @param   BindClusterId - cluster to try bind
//  711  * @param   Cnt - list of remote clusters
//  712  * @param   ClusterList - pointer to the Object ID list
//  713  * @param   DstAddr - Address of remote node
//  714  * @param   DstEndpInt - EndPoint of remote node
//  715  * @param   addBind - Indicate wheter or not bind must be added or not
//  716  *
//  717  * @return  status - Success if added
//  718  */

        RSEG BANKED_CODE:HUGECODE:NOROOT(0)
//  719 static ZStatus_t bdb_zclFindingBindingAddBindEntry( byte SrcEndpInt,
bdb_zclFindingBindingAddBindEntry:
          CFI Block cfiBlock136 Using cfiCommon0
          CFI Function bdb_zclFindingBindingAddBindEntry
        CODE
//  720                                   uint16 BindClusterId,
//  721                                   byte Cnt,                 
//  722                                   uint16 * ClusterList,
//  723                                   zAddrType_t *DstAddr, byte DstEndpInt, uint8 addBind )
//  724 {
        FUNCALL bdb_zclFindingBindingAddBindEntry, bdb_FindIfAppCluster
        LOCFRAME ISTACK, 0, STACK
        LOCFRAME PSTACK, 0, STACK
        LOCFRAME XSTACK, 14, STACK
        LOCFRAME IOVERLAY, 0, STATIC
        LOCFRAME DOVERLAY, 0, STATIC
        ARGFRAME ISTACK, 0, STACK
        ARGFRAME PSTACK, 0, STACK
        ARGFRAME XSTACK, 14, STACK
        ARGFRAME IOVERLAY, 0, STATIC
        ARGFRAME DOVERLAY, 0, STATIC
        FUNCALL bdb_zclFindingBindingAddBindEntry, ZDO_AnyClusterMatches
        LOCFRAME ISTACK, 0, STACK
        LOCFRAME PSTACK, 0, STACK
        LOCFRAME XSTACK, 16, STACK
        LOCFRAME IOVERLAY, 0, STATIC
        LOCFRAME DOVERLAY, 0, STATIC
        ARGFRAME ISTACK, 0, STACK
        ARGFRAME PSTACK, 0, STACK
        ARGFRAME XSTACK, 16, STACK
        ARGFRAME IOVERLAY, 0, STATIC
        ARGFRAME DOVERLAY, 0, STATIC
        REQUIRE ?V0
        REQUIRE ?V2
        REQUIRE ?V3
        MOV       A,#-0xc
        LCALL     ?BANKED_ENTER_XDATA
          CFI DPH0 load(1, XDATA, add(CFA_XSP16, literal(-1)))
          CFI DPL0 load(1, XDATA, add(CFA_XSP16, literal(-2)))
          CFI ?BRET_EXT load(1, XDATA, add(CFA_XSP16, literal(-3)))
          CFI ?RET_HIGH load(1, XDATA, add(CFA_XSP16, literal(-4)))
          CFI ?RET_LOW load(1, XDATA, add(CFA_XSP16, literal(-5)))
          CFI R7 load(1, XDATA, add(CFA_XSP16, literal(-6)))
          CFI V3 load(1, XDATA, add(CFA_XSP16, literal(-7)))
          CFI V2 load(1, XDATA, add(CFA_XSP16, literal(-8)))
          CFI V1 load(1, XDATA, add(CFA_XSP16, literal(-9)))
          CFI V0 load(1, XDATA, add(CFA_XSP16, literal(-10)))
          CFI VB load(1, XDATA, add(CFA_XSP16, literal(-11)))
          CFI R6 load(1, XDATA, add(CFA_XSP16, literal(-12)))
          CFI CFA_SP SP+0
          CFI CFA_XSP16 add(XSP16, 12)
        ; Saved register size: 12
        ; Auto size: 2
        MOV       A,#-0x2
        LCALL     ?ALLOC_XSTACK8
          CFI CFA_XSP16 add(XSP16, 14)
        LCALL     ?Subroutine24 & 0xFFFF
??CrossCallReturnLabel_84:
        MOV       A,R1
        MOV       R7,A
        MOV       A,R4
        MOV       R6,A
        MOV       ?V0,R5
//  725   uint8 status;
//  726 
//  727   if ( bdb_FindIfAppCluster ( BindClusterId ) != SUCCESS )
        ; Setup parameters for call to function bdb_FindIfAppCluster
        MOV       DPL,?XSP + 0
        MOV       DPH,?XSP + 1
        MOVX      A,@DPTR
        MOV       R2,A
        LCALL     `??bdb_FindIfAppCluster::?relay`; Banked call to: bdb_FindIfAppCluster
        MOV       A,R1
        JNZ       ??bdb_zclFindingBindingAddBindEntry_0
//  728   {
//  729     return ( ZApsFail ); // No App cluster
//  730   }
//  731 
//  732   // Are there matching clusters?
//  733   status = ZDO_AnyClusterMatches( Cnt, 
//  734                                   ClusterList,
//  735                                   1,
//  736                                  &BindClusterId);
//  737   if ( status == FALSE )
        ; Setup parameters for call to function ZDO_AnyClusterMatches
        MOV       R0,?XSP + 0
        MOV       R1,?XSP + 1
        MOV       ?V2,R0
        MOV       ?V3,R1
        MOV       R0,#?V2
        LCALL     ?PUSH_XSTACK_I_TWO
          CFI CFA_XSP16 add(XSP16, 16)
        MOV       R4,#0x1
        MOV       A,#0x10
        LCALL     ?XSTACK_DISP0_8
        LCALL     ??Subroutine45_0 & 0xFFFF
??CrossCallReturnLabel_63:
        MOV       A,R6
        MOV       R1,A
        LCALL     `??ZDO_AnyClusterMatches::?relay`; Banked call to: ZDO_AnyClusterMatches
        MOV       A,#0x2
        LCALL     ?DEALLOC_XSTACK8
          CFI CFA_XSP16 add(XSP16, 14)
        MOV       A,R1
        JNZ       ??bdb_zclFindingBindingAddBindEntry_1
//  738   {
//  739     return ( ZApsFail ); // No matched Cluster
??bdb_zclFindingBindingAddBindEntry_0:
        MOV       R1,#-0x4f
        SJMP      ??bdb_zclFindingBindingAddBindEntry_2
//  740   }
//  741 
//  742   if(addBind)  
??bdb_zclFindingBindingAddBindEntry_1:
        MOV       A,#0x12
        LCALL     ?XSTACK_DISP0_8
        MOVX      A,@DPTR
        JZ        ??bdb_zclFindingBindingAddBindEntry_3
//  743   {
//  744     if ( pbindAddEntry )
        MOV       DPTR,#pbindAddEntry
        LCALL     ??Subroutine50_0 & 0xFFFF
??CrossCallReturnLabel_107:
        JZ        ??bdb_zclFindingBindingAddBindEntry_3
//  745     {
//  746       // Add the entry into the binding table
//  747       if (!pbindAddEntry( SrcEndpInt, DstAddr, DstEndpInt,
//  748                              1, &BindClusterId ) )
        ; Setup parameters for indirect call
        MOV       R0,#?V2
        LCALL     ?PUSH_XSTACK_I_TWO
          CFI CFA_XSP16 add(XSP16, 16)
        MOV       R5,#0x1
        MOV       R4,?V0
        MOV       A,#0x12
        LCALL     ?XSTACK_DISP0_8
        LCALL     ??Subroutine45_0 & 0xFFFF
??CrossCallReturnLabel_64:
        MOV       A,R7
        MOV       R1,A
        MOV       DPTR,#pbindAddEntry
        MOVX      A,@DPTR
        MOV       R0,A
        LCALL     ??Subroutine44_0 & 0xFFFF
??CrossCallReturnLabel_52:
        LCALL     ?CALL_IND
        MOV       A,#0x2
        LCALL     ?DEALLOC_XSTACK8
          CFI CFA_XSP16 add(XSP16, 14)
        MOV       ?V3,R3
        MOV       A,R2
        ORL       A,?V3
        JNZ       ??bdb_zclFindingBindingAddBindEntry_3
//  749       {
//  750         return ( ZApsTableFull );
        MOV       R1,#-0x4e
        SJMP      ??bdb_zclFindingBindingAddBindEntry_2
//  751       }
//  752     }
//  753   }
//  754   
//  755   return ( ZSuccess );
??bdb_zclFindingBindingAddBindEntry_3:
        MOV       R1,#0x0
??bdb_zclFindingBindingAddBindEntry_2:
        MOV       A,#0x2
        LCALL     ?DEALLOC_XSTACK8
          CFI CFA_XSP16 add(XSP16, 12)
        MOV       R7,#0x4
        LJMP      ?BANKED_LEAVE_XDATA
//  756 }
          CFI EndBlock cfiBlock136

        RSEG BANKED_CODE:HUGECODE:NOROOT(0)
?Subroutine20:
          CFI Block cfiCond137 Using cfiCommon0
          CFI Function bdb_ProcessSimpleDesc
          CFI Conditional ??CrossCallReturnLabel_53
          CFI R6 load(1, XDATA, add(CFA_XSP16, literal(-9)))
          CFI VB load(1, XDATA, add(CFA_XSP16, literal(-8)))
          CFI V0 load(1, XDATA, add(CFA_XSP16, literal(-7)))
          CFI R7 load(1, XDATA, add(CFA_XSP16, literal(-6)))
          CFI ?RET_LOW load(1, XDATA, add(CFA_XSP16, literal(-5)))
          CFI ?RET_HIGH load(1, XDATA, add(CFA_XSP16, literal(-4)))
          CFI ?BRET_EXT load(1, XDATA, add(CFA_XSP16, literal(-3)))
          CFI DPL0 load(1, XDATA, add(CFA_XSP16, literal(-2)))
          CFI DPH0 load(1, XDATA, add(CFA_XSP16, literal(-1)))
          CFI CFA_SP SP+-2
          CFI CFA_XSP16 add(XSP16, 28)
          CFI Block cfiCond138 Using cfiCommon0
          CFI (cfiCond138) Function bdb_GetFBInitiatorStatus
          CFI (cfiCond138) Conditional ??CrossCallReturnLabel_54
          CFI (cfiCond138) R6 load(1, XDATA, add(CFA_XSP16, literal(-16)))
          CFI (cfiCond138) VB load(1, XDATA, add(CFA_XSP16, literal(-15)))
          CFI (cfiCond138) V0 load(1, XDATA, add(CFA_XSP16, literal(-14)))
          CFI (cfiCond138) V1 load(1, XDATA, add(CFA_XSP16, literal(-13)))
          CFI (cfiCond138) V2 load(1, XDATA, add(CFA_XSP16, literal(-12)))
          CFI (cfiCond138) V3 load(1, XDATA, add(CFA_XSP16, literal(-11)))
          CFI (cfiCond138) V4 load(1, XDATA, add(CFA_XSP16, literal(-10)))
          CFI (cfiCond138) V5 load(1, XDATA, add(CFA_XSP16, literal(-9)))
          CFI (cfiCond138) V6 load(1, XDATA, add(CFA_XSP16, literal(-8)))
          CFI (cfiCond138) V7 load(1, XDATA, add(CFA_XSP16, literal(-7)))
          CFI (cfiCond138) R7 load(1, XDATA, add(CFA_XSP16, literal(-6)))
          CFI (cfiCond138) ?RET_LOW load(1, XDATA, add(CFA_XSP16, literal(-5)))
          CFI (cfiCond138) ?RET_HIGH load(1, XDATA, add(CFA_XSP16, literal(-4)))
          CFI (cfiCond138) ?BRET_EXT load(1, XDATA, add(CFA_XSP16, literal(-3)))
          CFI (cfiCond138) DPL0 load(1, XDATA, add(CFA_XSP16, literal(-2)))
          CFI (cfiCond138) DPH0 load(1, XDATA, add(CFA_XSP16, literal(-1)))
          CFI (cfiCond138) CFA_XSP16 add(XSP16, 18)
          CFI Block cfiPicker139 Using cfiCommon1
          CFI (cfiPicker139) NoFunction
          CFI (cfiPicker139) Picker
        MOV       DPL,?XSP + 0
        MOV       DPH,?XSP + 1
          CFI EndBlock cfiCond137
          CFI EndBlock cfiCond138
          CFI EndBlock cfiPicker139
        REQUIRE ??Subroutine44_0
        ; // Fall through to label ??Subroutine44_0

        RSEG BANKED_CODE:HUGECODE:NOROOT(0)
??Subroutine44_0:
          CFI Block cfiCond140 Using cfiCommon0
          CFI Function bdb_ProcessSimpleDesc
          CFI Conditional ??CrossCallReturnLabel_51
          CFI R6 load(1, XDATA, add(CFA_XSP16, literal(-9)))
          CFI VB load(1, XDATA, add(CFA_XSP16, literal(-8)))
          CFI V0 load(1, XDATA, add(CFA_XSP16, literal(-7)))
          CFI R7 load(1, XDATA, add(CFA_XSP16, literal(-6)))
          CFI ?RET_LOW load(1, XDATA, add(CFA_XSP16, literal(-5)))
          CFI ?RET_HIGH load(1, XDATA, add(CFA_XSP16, literal(-4)))
          CFI ?BRET_EXT load(1, XDATA, add(CFA_XSP16, literal(-3)))
          CFI DPL0 load(1, XDATA, add(CFA_XSP16, literal(-2)))
          CFI DPH0 load(1, XDATA, add(CFA_XSP16, literal(-1)))
          CFI CFA_SP SP+-2
          CFI CFA_XSP16 add(XSP16, 28)
          CFI Block cfiCond141 Using cfiCommon0
          CFI (cfiCond141) Function bdb_zclFindingBindingAddBindEntry
          CFI (cfiCond141) Conditional ??CrossCallReturnLabel_52
          CFI (cfiCond141) R6 load(1, XDATA, add(CFA_XSP16, literal(-12)))
          CFI (cfiCond141) VB load(1, XDATA, add(CFA_XSP16, literal(-11)))
          CFI (cfiCond141) V0 load(1, XDATA, add(CFA_XSP16, literal(-10)))
          CFI (cfiCond141) V1 load(1, XDATA, add(CFA_XSP16, literal(-9)))
          CFI (cfiCond141) V2 load(1, XDATA, add(CFA_XSP16, literal(-8)))
          CFI (cfiCond141) V3 load(1, XDATA, add(CFA_XSP16, literal(-7)))
          CFI (cfiCond141) R7 load(1, XDATA, add(CFA_XSP16, literal(-6)))
          CFI (cfiCond141) ?RET_LOW load(1, XDATA, add(CFA_XSP16, literal(-5)))
          CFI (cfiCond141) ?RET_HIGH load(1, XDATA, add(CFA_XSP16, literal(-4)))
          CFI (cfiCond141) ?BRET_EXT load(1, XDATA, add(CFA_XSP16, literal(-3)))
          CFI (cfiCond141) DPL0 load(1, XDATA, add(CFA_XSP16, literal(-2)))
          CFI (cfiCond141) DPH0 load(1, XDATA, add(CFA_XSP16, literal(-1)))
          CFI (cfiCond141) CFA_SP SP+-2
          CFI (cfiCond141) CFA_XSP16 add(XSP16, 16)
          CFI Block cfiCond142 Using cfiCommon0
          CFI (cfiCond142) Function bdb_ProcessSimpleDesc
          CFI (cfiCond142) Conditional ??CrossCallReturnLabel_53
          CFI (cfiCond142) R6 load(1, XDATA, add(CFA_XSP16, literal(-9)))
          CFI (cfiCond142) VB load(1, XDATA, add(CFA_XSP16, literal(-8)))
          CFI (cfiCond142) V0 load(1, XDATA, add(CFA_XSP16, literal(-7)))
          CFI (cfiCond142) R7 load(1, XDATA, add(CFA_XSP16, literal(-6)))
          CFI (cfiCond142) ?RET_LOW load(1, XDATA, add(CFA_XSP16, literal(-5)))
          CFI (cfiCond142) ?RET_HIGH load(1, XDATA, add(CFA_XSP16, literal(-4)))
          CFI (cfiCond142) ?BRET_EXT load(1, XDATA, add(CFA_XSP16, literal(-3)))
          CFI (cfiCond142) DPL0 load(1, XDATA, add(CFA_XSP16, literal(-2)))
          CFI (cfiCond142) DPH0 load(1, XDATA, add(CFA_XSP16, literal(-1)))
          CFI (cfiCond142) CFA_SP SP+-2
          CFI (cfiCond142) CFA_XSP16 add(XSP16, 28)
          CFI Block cfiCond143 Using cfiCommon0
          CFI (cfiCond143) Function bdb_GetFBInitiatorStatus
          CFI (cfiCond143) Conditional ??CrossCallReturnLabel_54
          CFI (cfiCond143) R6 load(1, XDATA, add(CFA_XSP16, literal(-16)))
          CFI (cfiCond143) VB load(1, XDATA, add(CFA_XSP16, literal(-15)))
          CFI (cfiCond143) V0 load(1, XDATA, add(CFA_XSP16, literal(-14)))
          CFI (cfiCond143) V1 load(1, XDATA, add(CFA_XSP16, literal(-13)))
          CFI (cfiCond143) V2 load(1, XDATA, add(CFA_XSP16, literal(-12)))
          CFI (cfiCond143) V3 load(1, XDATA, add(CFA_XSP16, literal(-11)))
          CFI (cfiCond143) V4 load(1, XDATA, add(CFA_XSP16, literal(-10)))
          CFI (cfiCond143) V5 load(1, XDATA, add(CFA_XSP16, literal(-9)))
          CFI (cfiCond143) V6 load(1, XDATA, add(CFA_XSP16, literal(-8)))
          CFI (cfiCond143) V7 load(1, XDATA, add(CFA_XSP16, literal(-7)))
          CFI (cfiCond143) R7 load(1, XDATA, add(CFA_XSP16, literal(-6)))
          CFI (cfiCond143) ?RET_LOW load(1, XDATA, add(CFA_XSP16, literal(-5)))
          CFI (cfiCond143) ?RET_HIGH load(1, XDATA, add(CFA_XSP16, literal(-4)))
          CFI (cfiCond143) ?BRET_EXT load(1, XDATA, add(CFA_XSP16, literal(-3)))
          CFI (cfiCond143) DPL0 load(1, XDATA, add(CFA_XSP16, literal(-2)))
          CFI (cfiCond143) DPH0 load(1, XDATA, add(CFA_XSP16, literal(-1)))
          CFI (cfiCond143) CFA_XSP16 add(XSP16, 18)
          CFI Block cfiPicker144 Using cfiCommon1
          CFI (cfiPicker144) NoFunction
          CFI (cfiPicker144) Picker
        LCALL     ??Subroutine39_0 & 0xFFFF
??CrossCallReturnLabel_58:
        RET
          CFI EndBlock cfiCond140
          CFI EndBlock cfiCond141
          CFI EndBlock cfiCond142
          CFI EndBlock cfiCond143
          CFI EndBlock cfiPicker144
//  757 
//  758 /*********************************************************************
//  759  * @fn      bdb_exitFindingBindingWStatus
//  760  *
//  761  * @brief   Clean respondent list and reports the status to bdb state machine
//  762  *
//  763  * @return  
//  764  */

        RSEG BANKED_CODE:HUGECODE:NOROOT(0)
//  765 void bdb_exitFindingBindingWStatus( uint8 status )
bdb_exitFindingBindingWStatus:
          CFI Block cfiBlock145 Using cfiCommon0
          CFI Function bdb_exitFindingBindingWStatus
        CODE
//  766 {
        FUNCALL bdb_exitFindingBindingWStatus, bdb_reportCommissioningState
        LOCFRAME ISTACK, 0, STACK
        LOCFRAME PSTACK, 0, STACK
        LOCFRAME XSTACK, 9, STACK
        LOCFRAME IOVERLAY, 0, STATIC
        LOCFRAME DOVERLAY, 0, STATIC
        ARGFRAME ISTACK, 0, STACK
        ARGFRAME PSTACK, 0, STACK
        ARGFRAME XSTACK, 9, STACK
        ARGFRAME IOVERLAY, 0, STATIC
        ARGFRAME DOVERLAY, 0, STATIC
        MOV       A,#-0x9
        LCALL     ?BANKED_ENTER_XDATA
          CFI DPH0 load(1, XDATA, add(CFA_XSP16, literal(-1)))
          CFI DPL0 load(1, XDATA, add(CFA_XSP16, literal(-2)))
          CFI ?BRET_EXT load(1, XDATA, add(CFA_XSP16, literal(-3)))
          CFI ?RET_HIGH load(1, XDATA, add(CFA_XSP16, literal(-4)))
          CFI ?RET_LOW load(1, XDATA, add(CFA_XSP16, literal(-5)))
          CFI R7 load(1, XDATA, add(CFA_XSP16, literal(-6)))
          CFI V0 load(1, XDATA, add(CFA_XSP16, literal(-7)))
          CFI VB load(1, XDATA, add(CFA_XSP16, literal(-8)))
          CFI R6 load(1, XDATA, add(CFA_XSP16, literal(-9)))
          CFI CFA_SP SP+0
          CFI CFA_XSP16 add(XSP16, 9)
        ; Saved register size: 9
        ; Auto size: 0
        MOV       A,R1
//  767   // bdb report status
//  768   bdbAttributes.bdbCommissioningStatus = status;
        MOV       DPTR,#bdbAttributes + 10
        MOVX      @DPTR,A
//  769   
//  770   bdb_reportCommissioningState( BDB_COMMISSIONING_STATE_FINDING_BINDING, TRUE );
        ; Setup parameters for call to function bdb_reportCommissioningState
        MOV       R2,#0x1
        MOV       R1,#0x6
        LCALL     `??bdb_reportCommissioningState::?relay`; Banked call to: bdb_reportCommissioningState
//  771 }
        LJMP      ??Subroutine42_0 & 0xFFFF
          CFI EndBlock cfiBlock145
//  772 
//  773 /*********************************************************************
//  774  * @fn      bdb_zclSimpleDescClusterListClean
//  775  *
//  776  * @brief   This function free Simple Descriptor cluster lists
//  777  *
//  778  * @param   pSimpleDesc - pointer to simple descriptor
//  779  *
//  780  * @return  status
//  781  */

        RSEG BANKED_CODE:HUGECODE:NOROOT(0)
//  782 static void bdb_zclSimpleDescClusterListClean( SimpleDescriptionFormat_t *pSimpleDesc )
bdb_zclSimpleDescClusterListClean:
          CFI Block cfiBlock146 Using cfiCommon0
          CFI Function bdb_zclSimpleDescClusterListClean
        CODE
//  783 {
        FUNCALL bdb_zclSimpleDescClusterListClean, osal_mem_free
        LOCFRAME ISTACK, 0, STACK
        LOCFRAME PSTACK, 0, STACK
        LOCFRAME XSTACK, 10, STACK
        LOCFRAME IOVERLAY, 0, STATIC
        LOCFRAME DOVERLAY, 0, STATIC
        ARGFRAME ISTACK, 0, STACK
        ARGFRAME PSTACK, 0, STACK
        ARGFRAME XSTACK, 10, STACK
        ARGFRAME IOVERLAY, 0, STATIC
        ARGFRAME DOVERLAY, 0, STATIC
        FUNCALL bdb_zclSimpleDescClusterListClean, osal_mem_free
        LOCFRAME ISTACK, 0, STACK
        LOCFRAME PSTACK, 0, STACK
        LOCFRAME XSTACK, 10, STACK
        LOCFRAME IOVERLAY, 0, STATIC
        LOCFRAME DOVERLAY, 0, STATIC
        ARGFRAME ISTACK, 0, STACK
        ARGFRAME PSTACK, 0, STACK
        ARGFRAME XSTACK, 10, STACK
        ARGFRAME IOVERLAY, 0, STATIC
        ARGFRAME DOVERLAY, 0, STATIC
        REQUIRE ?V0
        REQUIRE ?V1
        MOV       A,#-0xa
        LCALL     ?BANKED_ENTER_XDATA
          CFI DPH0 load(1, XDATA, add(CFA_XSP16, literal(-1)))
          CFI DPL0 load(1, XDATA, add(CFA_XSP16, literal(-2)))
          CFI ?BRET_EXT load(1, XDATA, add(CFA_XSP16, literal(-3)))
          CFI ?RET_HIGH load(1, XDATA, add(CFA_XSP16, literal(-4)))
          CFI ?RET_LOW load(1, XDATA, add(CFA_XSP16, literal(-5)))
          CFI R7 load(1, XDATA, add(CFA_XSP16, literal(-6)))
          CFI V1 load(1, XDATA, add(CFA_XSP16, literal(-7)))
          CFI V0 load(1, XDATA, add(CFA_XSP16, literal(-8)))
          CFI VB load(1, XDATA, add(CFA_XSP16, literal(-9)))
          CFI R6 load(1, XDATA, add(CFA_XSP16, literal(-10)))
          CFI CFA_SP SP+0
          CFI CFA_XSP16 add(XSP16, 10)
        ; Saved register size: 10
        ; Auto size: 0
        MOV       ?V0,R2
        MOV       ?V1,R3
//  784   if(pSimpleDesc->pAppInClusterList != NULL)
        MOV       A,R2
        ADD       A,#0x7
        MOV       R6,A
        CLR       A
        ADDC      A,?V1
        MOV       R7,A
        MOV       DPL,R6
        MOV       DPH,R7
        LCALL     ??Subroutine45_0 & 0xFFFF
??CrossCallReturnLabel_65:
        MOV       A,R2
        ORL       A,R3
        JZ        ??bdb_zclSimpleDescClusterListClean_0
//  785   {
//  786     osal_mem_free( pSimpleDesc->pAppInClusterList );
        ; Setup parameters for call to function osal_mem_free
        LCALL     `??osal_mem_free::?relay`; Banked call to: osal_mem_free
//  787     pSimpleDesc->pAppInClusterList = ( cId_t* )NULL;
        MOV       DPL,R6
        MOV       DPH,R7
        CLR       A
        MOVX      @DPTR,A
        INC       DPTR
        MOVX      @DPTR,A
//  788   }
//  789   if(pSimpleDesc->pAppOutClusterList != NULL)
??bdb_zclSimpleDescClusterListClean_0:
        MOV       A,?V0
        ADD       A,#0xa
        MOV       R6,A
        CLR       A
        ADDC      A,?V1
        MOV       R7,A
        MOV       DPL,R6
        MOV       DPH,R7
        LCALL     ??Subroutine45_0 & 0xFFFF
??CrossCallReturnLabel_66:
        MOV       A,R2
        ORL       A,R3
        JZ        ??bdb_zclSimpleDescClusterListClean_1
//  790   {
//  791     osal_mem_free( pSimpleDesc->pAppOutClusterList );
        ; Setup parameters for call to function osal_mem_free
        LCALL     `??osal_mem_free::?relay`; Banked call to: osal_mem_free
//  792     pSimpleDesc->pAppOutClusterList = ( cId_t* )NULL;
        MOV       DPL,R6
        MOV       DPH,R7
        CLR       A
        MOVX      @DPTR,A
        INC       DPTR
        MOVX      @DPTR,A
//  793   }
//  794 }
??bdb_zclSimpleDescClusterListClean_1:
        LJMP      ??Subroutine37_0 & 0xFFFF
          CFI EndBlock cfiBlock146

        RSEG BANKED_CODE:HUGECODE:NOROOT(0)
?Subroutine19:
          CFI Block cfiCond147 Using cfiCommon0
          CFI Function bdb_zclFindingBindingEpType
          CFI Conditional ??CrossCallReturnLabel_71
          CFI R6 load(1, XDATA, add(CFA_XSP16, literal(-14)))
          CFI VB load(1, XDATA, add(CFA_XSP16, literal(-13)))
          CFI V0 load(1, XDATA, add(CFA_XSP16, literal(-12)))
          CFI V1 load(1, XDATA, add(CFA_XSP16, literal(-11)))
          CFI V2 load(1, XDATA, add(CFA_XSP16, literal(-10)))
          CFI V3 load(1, XDATA, add(CFA_XSP16, literal(-9)))
          CFI V4 load(1, XDATA, add(CFA_XSP16, literal(-8)))
          CFI V5 load(1, XDATA, add(CFA_XSP16, literal(-7)))
          CFI R7 load(1, XDATA, add(CFA_XSP16, literal(-6)))
          CFI ?RET_LOW load(1, XDATA, add(CFA_XSP16, literal(-5)))
          CFI ?RET_HIGH load(1, XDATA, add(CFA_XSP16, literal(-4)))
          CFI ?BRET_EXT load(1, XDATA, add(CFA_XSP16, literal(-3)))
          CFI DPL0 load(1, XDATA, add(CFA_XSP16, literal(-2)))
          CFI DPH0 load(1, XDATA, add(CFA_XSP16, literal(-1)))
          CFI CFA_SP SP+-2
          CFI CFA_XSP16 add(XSP16, 16)
          CFI Block cfiCond148 Using cfiCommon0
          CFI (cfiCond148) Function bdb_zclFindingBindingEpType
          CFI (cfiCond148) Conditional ??CrossCallReturnLabel_72
          CFI (cfiCond148) R6 load(1, XDATA, add(CFA_XSP16, literal(-14)))
          CFI (cfiCond148) VB load(1, XDATA, add(CFA_XSP16, literal(-13)))
          CFI (cfiCond148) V0 load(1, XDATA, add(CFA_XSP16, literal(-12)))
          CFI (cfiCond148) V1 load(1, XDATA, add(CFA_XSP16, literal(-11)))
          CFI (cfiCond148) V2 load(1, XDATA, add(CFA_XSP16, literal(-10)))
          CFI (cfiCond148) V3 load(1, XDATA, add(CFA_XSP16, literal(-9)))
          CFI (cfiCond148) V4 load(1, XDATA, add(CFA_XSP16, literal(-8)))
          CFI (cfiCond148) V5 load(1, XDATA, add(CFA_XSP16, literal(-7)))
          CFI (cfiCond148) R7 load(1, XDATA, add(CFA_XSP16, literal(-6)))
          CFI (cfiCond148) ?RET_LOW load(1, XDATA, add(CFA_XSP16, literal(-5)))
          CFI (cfiCond148) ?RET_HIGH load(1, XDATA, add(CFA_XSP16, literal(-4)))
          CFI (cfiCond148) ?BRET_EXT load(1, XDATA, add(CFA_XSP16, literal(-3)))
          CFI (cfiCond148) DPL0 load(1, XDATA, add(CFA_XSP16, literal(-2)))
          CFI (cfiCond148) DPH0 load(1, XDATA, add(CFA_XSP16, literal(-1)))
          CFI (cfiCond148) CFA_SP SP+-2
          CFI (cfiCond148) CFA_XSP16 add(XSP16, 16)
          CFI Block cfiPicker149 Using cfiCommon1
          CFI (cfiPicker149) NoFunction
          CFI (cfiPicker149) Picker
        INC       DPTR
        INC       DPTR
        INC       DPTR
        INC       DPTR
        INC       DPTR
        INC       DPTR
        INC       DPTR
        INC       DPTR
        INC       DPTR
        INC       DPTR
          CFI EndBlock cfiCond147
          CFI EndBlock cfiCond148
          CFI EndBlock cfiPicker149
        REQUIRE ??Subroutine45_0
        ; // Fall through to label ??Subroutine45_0

        RSEG BANKED_CODE:HUGECODE:NOROOT(0)
??Subroutine45_0:
          CFI Block cfiCond150 Using cfiCommon0
          CFI Function bdb_ProcessIEEEAddrRsp
          CFI Conditional ??CrossCallReturnLabel_59
          CFI R6 load(1, XDATA, add(CFA_XSP16, literal(-10)))
          CFI VB load(1, XDATA, add(CFA_XSP16, literal(-9)))
          CFI V0 load(1, XDATA, add(CFA_XSP16, literal(-8)))
          CFI V1 load(1, XDATA, add(CFA_XSP16, literal(-7)))
          CFI R7 load(1, XDATA, add(CFA_XSP16, literal(-6)))
          CFI ?RET_LOW load(1, XDATA, add(CFA_XSP16, literal(-5)))
          CFI ?RET_HIGH load(1, XDATA, add(CFA_XSP16, literal(-4)))
          CFI ?BRET_EXT load(1, XDATA, add(CFA_XSP16, literal(-3)))
          CFI DPL0 load(1, XDATA, add(CFA_XSP16, literal(-2)))
          CFI DPH0 load(1, XDATA, add(CFA_XSP16, literal(-1)))
          CFI CFA_SP SP+-2
          CFI CFA_XSP16 add(XSP16, 25)
          CFI Block cfiCond151 Using cfiCommon0
          CFI (cfiCond151) Function bdb_checkMatchingEndpoints
          CFI (cfiCond151) Conditional ??CrossCallReturnLabel_60
          CFI (cfiCond151) R6 load(1, XDATA, add(CFA_XSP16, literal(-16)))
          CFI (cfiCond151) VB load(1, XDATA, add(CFA_XSP16, literal(-15)))
          CFI (cfiCond151) V0 load(1, XDATA, add(CFA_XSP16, literal(-14)))
          CFI (cfiCond151) V1 load(1, XDATA, add(CFA_XSP16, literal(-13)))
          CFI (cfiCond151) V2 load(1, XDATA, add(CFA_XSP16, literal(-12)))
          CFI (cfiCond151) V3 load(1, XDATA, add(CFA_XSP16, literal(-11)))
          CFI (cfiCond151) V4 load(1, XDATA, add(CFA_XSP16, literal(-10)))
          CFI (cfiCond151) V5 load(1, XDATA, add(CFA_XSP16, literal(-9)))
          CFI (cfiCond151) V6 load(1, XDATA, add(CFA_XSP16, literal(-8)))
          CFI (cfiCond151) V7 load(1, XDATA, add(CFA_XSP16, literal(-7)))
          CFI (cfiCond151) R7 load(1, XDATA, add(CFA_XSP16, literal(-6)))
          CFI (cfiCond151) ?RET_LOW load(1, XDATA, add(CFA_XSP16, literal(-5)))
          CFI (cfiCond151) ?RET_HIGH load(1, XDATA, add(CFA_XSP16, literal(-4)))
          CFI (cfiCond151) ?BRET_EXT load(1, XDATA, add(CFA_XSP16, literal(-3)))
          CFI (cfiCond151) DPL0 load(1, XDATA, add(CFA_XSP16, literal(-2)))
          CFI (cfiCond151) DPH0 load(1, XDATA, add(CFA_XSP16, literal(-1)))
          CFI (cfiCond151) CFA_SP SP+-2
          CFI (cfiCond151) CFA_XSP16 add(XSP16, 29)
          CFI Block cfiCond152 Using cfiCommon0
          CFI (cfiCond152) Function bdb_ProcessSimpleDesc
          CFI (cfiCond152) Conditional ??CrossCallReturnLabel_61
          CFI (cfiCond152) R6 load(1, XDATA, add(CFA_XSP16, literal(-9)))
          CFI (cfiCond152) VB load(1, XDATA, add(CFA_XSP16, literal(-8)))
          CFI (cfiCond152) V0 load(1, XDATA, add(CFA_XSP16, literal(-7)))
          CFI (cfiCond152) R7 load(1, XDATA, add(CFA_XSP16, literal(-6)))
          CFI (cfiCond152) ?RET_LOW load(1, XDATA, add(CFA_XSP16, literal(-5)))
          CFI (cfiCond152) ?RET_HIGH load(1, XDATA, add(CFA_XSP16, literal(-4)))
          CFI (cfiCond152) ?BRET_EXT load(1, XDATA, add(CFA_XSP16, literal(-3)))
          CFI (cfiCond152) DPL0 load(1, XDATA, add(CFA_XSP16, literal(-2)))
          CFI (cfiCond152) DPH0 load(1, XDATA, add(CFA_XSP16, literal(-1)))
          CFI (cfiCond152) CFA_SP SP+-2
          CFI (cfiCond152) CFA_XSP16 add(XSP16, 28)
          CFI Block cfiCond153 Using cfiCommon0
          CFI (cfiCond153) Function bdb_ProcessSimpleDesc
          CFI (cfiCond153) Conditional ??CrossCallReturnLabel_62
          CFI (cfiCond153) R6 load(1, XDATA, add(CFA_XSP16, literal(-9)))
          CFI (cfiCond153) VB load(1, XDATA, add(CFA_XSP16, literal(-8)))
          CFI (cfiCond153) V0 load(1, XDATA, add(CFA_XSP16, literal(-7)))
          CFI (cfiCond153) R7 load(1, XDATA, add(CFA_XSP16, literal(-6)))
          CFI (cfiCond153) ?RET_LOW load(1, XDATA, add(CFA_XSP16, literal(-5)))
          CFI (cfiCond153) ?RET_HIGH load(1, XDATA, add(CFA_XSP16, literal(-4)))
          CFI (cfiCond153) ?BRET_EXT load(1, XDATA, add(CFA_XSP16, literal(-3)))
          CFI (cfiCond153) DPL0 load(1, XDATA, add(CFA_XSP16, literal(-2)))
          CFI (cfiCond153) DPH0 load(1, XDATA, add(CFA_XSP16, literal(-1)))
          CFI (cfiCond153) CFA_SP SP+-2
          CFI (cfiCond153) CFA_XSP16 add(XSP16, 28)
          CFI Block cfiCond154 Using cfiCommon0
          CFI (cfiCond154) Function bdb_zclFindingBindingAddBindEntry
          CFI (cfiCond154) Conditional ??CrossCallReturnLabel_63
          CFI (cfiCond154) R6 load(1, XDATA, add(CFA_XSP16, literal(-12)))
          CFI (cfiCond154) VB load(1, XDATA, add(CFA_XSP16, literal(-11)))
          CFI (cfiCond154) V0 load(1, XDATA, add(CFA_XSP16, literal(-10)))
          CFI (cfiCond154) V1 load(1, XDATA, add(CFA_XSP16, literal(-9)))
          CFI (cfiCond154) V2 load(1, XDATA, add(CFA_XSP16, literal(-8)))
          CFI (cfiCond154) V3 load(1, XDATA, add(CFA_XSP16, literal(-7)))
          CFI (cfiCond154) R7 load(1, XDATA, add(CFA_XSP16, literal(-6)))
          CFI (cfiCond154) ?RET_LOW load(1, XDATA, add(CFA_XSP16, literal(-5)))
          CFI (cfiCond154) ?RET_HIGH load(1, XDATA, add(CFA_XSP16, literal(-4)))
          CFI (cfiCond154) ?BRET_EXT load(1, XDATA, add(CFA_XSP16, literal(-3)))
          CFI (cfiCond154) DPL0 load(1, XDATA, add(CFA_XSP16, literal(-2)))
          CFI (cfiCond154) DPH0 load(1, XDATA, add(CFA_XSP16, literal(-1)))
          CFI (cfiCond154) CFA_SP SP+-2
          CFI (cfiCond154) CFA_XSP16 add(XSP16, 16)
          CFI Block cfiCond155 Using cfiCommon0
          CFI (cfiCond155) Function bdb_zclFindingBindingAddBindEntry
          CFI (cfiCond155) Conditional ??CrossCallReturnLabel_64
          CFI (cfiCond155) R6 load(1, XDATA, add(CFA_XSP16, literal(-12)))
          CFI (cfiCond155) VB load(1, XDATA, add(CFA_XSP16, literal(-11)))
          CFI (cfiCond155) V0 load(1, XDATA, add(CFA_XSP16, literal(-10)))
          CFI (cfiCond155) V1 load(1, XDATA, add(CFA_XSP16, literal(-9)))
          CFI (cfiCond155) V2 load(1, XDATA, add(CFA_XSP16, literal(-8)))
          CFI (cfiCond155) V3 load(1, XDATA, add(CFA_XSP16, literal(-7)))
          CFI (cfiCond155) R7 load(1, XDATA, add(CFA_XSP16, literal(-6)))
          CFI (cfiCond155) ?RET_LOW load(1, XDATA, add(CFA_XSP16, literal(-5)))
          CFI (cfiCond155) ?RET_HIGH load(1, XDATA, add(CFA_XSP16, literal(-4)))
          CFI (cfiCond155) ?BRET_EXT load(1, XDATA, add(CFA_XSP16, literal(-3)))
          CFI (cfiCond155) DPL0 load(1, XDATA, add(CFA_XSP16, literal(-2)))
          CFI (cfiCond155) DPH0 load(1, XDATA, add(CFA_XSP16, literal(-1)))
          CFI (cfiCond155) CFA_SP SP+-2
          CFI (cfiCond155) CFA_XSP16 add(XSP16, 16)
          CFI Block cfiCond156 Using cfiCommon0
          CFI (cfiCond156) Function bdb_zclSimpleDescClusterListClean
          CFI (cfiCond156) Conditional ??CrossCallReturnLabel_65
          CFI (cfiCond156) R6 load(1, XDATA, add(CFA_XSP16, literal(-10)))
          CFI (cfiCond156) VB load(1, XDATA, add(CFA_XSP16, literal(-9)))
          CFI (cfiCond156) V0 load(1, XDATA, add(CFA_XSP16, literal(-8)))
          CFI (cfiCond156) V1 load(1, XDATA, add(CFA_XSP16, literal(-7)))
          CFI (cfiCond156) R7 load(1, XDATA, add(CFA_XSP16, literal(-6)))
          CFI (cfiCond156) ?RET_LOW load(1, XDATA, add(CFA_XSP16, literal(-5)))
          CFI (cfiCond156) ?RET_HIGH load(1, XDATA, add(CFA_XSP16, literal(-4)))
          CFI (cfiCond156) ?BRET_EXT load(1, XDATA, add(CFA_XSP16, literal(-3)))
          CFI (cfiCond156) DPL0 load(1, XDATA, add(CFA_XSP16, literal(-2)))
          CFI (cfiCond156) DPH0 load(1, XDATA, add(CFA_XSP16, literal(-1)))
          CFI (cfiCond156) CFA_SP SP+-2
          CFI (cfiCond156) CFA_XSP16 add(XSP16, 10)
          CFI Block cfiCond157 Using cfiCommon0
          CFI (cfiCond157) Function bdb_zclSimpleDescClusterListClean
          CFI (cfiCond157) Conditional ??CrossCallReturnLabel_66
          CFI (cfiCond157) R6 load(1, XDATA, add(CFA_XSP16, literal(-10)))
          CFI (cfiCond157) VB load(1, XDATA, add(CFA_XSP16, literal(-9)))
          CFI (cfiCond157) V0 load(1, XDATA, add(CFA_XSP16, literal(-8)))
          CFI (cfiCond157) V1 load(1, XDATA, add(CFA_XSP16, literal(-7)))
          CFI (cfiCond157) R7 load(1, XDATA, add(CFA_XSP16, literal(-6)))
          CFI (cfiCond157) ?RET_LOW load(1, XDATA, add(CFA_XSP16, literal(-5)))
          CFI (cfiCond157) ?RET_HIGH load(1, XDATA, add(CFA_XSP16, literal(-4)))
          CFI (cfiCond157) ?BRET_EXT load(1, XDATA, add(CFA_XSP16, literal(-3)))
          CFI (cfiCond157) DPL0 load(1, XDATA, add(CFA_XSP16, literal(-2)))
          CFI (cfiCond157) DPH0 load(1, XDATA, add(CFA_XSP16, literal(-1)))
          CFI (cfiCond157) CFA_SP SP+-2
          CFI (cfiCond157) CFA_XSP16 add(XSP16, 10)
          CFI Block cfiCond158 Using cfiCommon0
          CFI (cfiCond158) Function bdb_ProcessRespondentList
          CFI (cfiCond158) Conditional ??CrossCallReturnLabel_67
          CFI (cfiCond158) R6 load(1, XDATA, add(CFA_XSP16, literal(-9)))
          CFI (cfiCond158) VB load(1, XDATA, add(CFA_XSP16, literal(-8)))
          CFI (cfiCond158) V0 load(1, XDATA, add(CFA_XSP16, literal(-7)))
          CFI (cfiCond158) R7 load(1, XDATA, add(CFA_XSP16, literal(-6)))
          CFI (cfiCond158) ?RET_LOW load(1, XDATA, add(CFA_XSP16, literal(-5)))
          CFI (cfiCond158) ?RET_HIGH load(1, XDATA, add(CFA_XSP16, literal(-4)))
          CFI (cfiCond158) ?BRET_EXT load(1, XDATA, add(CFA_XSP16, literal(-3)))
          CFI (cfiCond158) DPL0 load(1, XDATA, add(CFA_XSP16, literal(-2)))
          CFI (cfiCond158) DPH0 load(1, XDATA, add(CFA_XSP16, literal(-1)))
          CFI (cfiCond158) CFA_SP SP+-2
          CFI (cfiCond158) CFA_XSP16 add(XSP16, 18)
          CFI Block cfiCond159 Using cfiCommon0
          CFI (cfiCond159) Function bdb_ProcessRespondentList
          CFI (cfiCond159) Conditional ??CrossCallReturnLabel_68
          CFI (cfiCond159) R6 load(1, XDATA, add(CFA_XSP16, literal(-9)))
          CFI (cfiCond159) VB load(1, XDATA, add(CFA_XSP16, literal(-8)))
          CFI (cfiCond159) V0 load(1, XDATA, add(CFA_XSP16, literal(-7)))
          CFI (cfiCond159) R7 load(1, XDATA, add(CFA_XSP16, literal(-6)))
          CFI (cfiCond159) ?RET_LOW load(1, XDATA, add(CFA_XSP16, literal(-5)))
          CFI (cfiCond159) ?RET_HIGH load(1, XDATA, add(CFA_XSP16, literal(-4)))
          CFI (cfiCond159) ?BRET_EXT load(1, XDATA, add(CFA_XSP16, literal(-3)))
          CFI (cfiCond159) DPL0 load(1, XDATA, add(CFA_XSP16, literal(-2)))
          CFI (cfiCond159) DPH0 load(1, XDATA, add(CFA_XSP16, literal(-1)))
          CFI (cfiCond159) CFA_SP SP+-2
          CFI (cfiCond159) CFA_XSP16 add(XSP16, 18)
          CFI Block cfiCond160 Using cfiCommon0
          CFI (cfiCond160) Function bdb_ProcessRespondentList
          CFI (cfiCond160) Conditional ??CrossCallReturnLabel_69
          CFI (cfiCond160) R6 load(1, XDATA, add(CFA_XSP16, literal(-9)))
          CFI (cfiCond160) VB load(1, XDATA, add(CFA_XSP16, literal(-8)))
          CFI (cfiCond160) V0 load(1, XDATA, add(CFA_XSP16, literal(-7)))
          CFI (cfiCond160) R7 load(1, XDATA, add(CFA_XSP16, literal(-6)))
          CFI (cfiCond160) ?RET_LOW load(1, XDATA, add(CFA_XSP16, literal(-5)))
          CFI (cfiCond160) ?RET_HIGH load(1, XDATA, add(CFA_XSP16, literal(-4)))
          CFI (cfiCond160) ?BRET_EXT load(1, XDATA, add(CFA_XSP16, literal(-3)))
          CFI (cfiCond160) DPL0 load(1, XDATA, add(CFA_XSP16, literal(-2)))
          CFI (cfiCond160) DPH0 load(1, XDATA, add(CFA_XSP16, literal(-1)))
          CFI (cfiCond160) CFA_SP SP+-2
          CFI (cfiCond160) CFA_XSP16 add(XSP16, 18)
          CFI Block cfiCond161 Using cfiCommon0
          CFI (cfiCond161) Function bdb_getRespondentRetry
          CFI (cfiCond161) Conditional ??CrossCallReturnLabel_70
          CFI (cfiCond161) DPL0 Frame(CFA_SP, 4)
          CFI (cfiCond161) DPH0 Frame(CFA_SP, 5)
          CFI (cfiCond161) CFA_SP SP+-7
          CFI Block cfiCond162 Using cfiCommon0
          CFI (cfiCond162) Function bdb_zclFindingBindingEpType
          CFI (cfiCond162) Conditional ??CrossCallReturnLabel_71
          CFI (cfiCond162) R6 load(1, XDATA, add(CFA_XSP16, literal(-14)))
          CFI (cfiCond162) VB load(1, XDATA, add(CFA_XSP16, literal(-13)))
          CFI (cfiCond162) V0 load(1, XDATA, add(CFA_XSP16, literal(-12)))
          CFI (cfiCond162) V1 load(1, XDATA, add(CFA_XSP16, literal(-11)))
          CFI (cfiCond162) V2 load(1, XDATA, add(CFA_XSP16, literal(-10)))
          CFI (cfiCond162) V3 load(1, XDATA, add(CFA_XSP16, literal(-9)))
          CFI (cfiCond162) V4 load(1, XDATA, add(CFA_XSP16, literal(-8)))
          CFI (cfiCond162) V5 load(1, XDATA, add(CFA_XSP16, literal(-7)))
          CFI (cfiCond162) R7 load(1, XDATA, add(CFA_XSP16, literal(-6)))
          CFI (cfiCond162) ?RET_LOW load(1, XDATA, add(CFA_XSP16, literal(-5)))
          CFI (cfiCond162) ?RET_HIGH load(1, XDATA, add(CFA_XSP16, literal(-4)))
          CFI (cfiCond162) ?BRET_EXT load(1, XDATA, add(CFA_XSP16, literal(-3)))
          CFI (cfiCond162) DPL0 load(1, XDATA, add(CFA_XSP16, literal(-2)))
          CFI (cfiCond162) DPH0 load(1, XDATA, add(CFA_XSP16, literal(-1)))
          CFI (cfiCond162) CFA_SP SP+-2
          CFI (cfiCond162) CFA_XSP16 add(XSP16, 16)
          CFI Block cfiCond163 Using cfiCommon0
          CFI (cfiCond163) Function bdb_zclFindingBindingEpType
          CFI (cfiCond163) Conditional ??CrossCallReturnLabel_72
          CFI (cfiCond163) R6 load(1, XDATA, add(CFA_XSP16, literal(-14)))
          CFI (cfiCond163) VB load(1, XDATA, add(CFA_XSP16, literal(-13)))
          CFI (cfiCond163) V0 load(1, XDATA, add(CFA_XSP16, literal(-12)))
          CFI (cfiCond163) V1 load(1, XDATA, add(CFA_XSP16, literal(-11)))
          CFI (cfiCond163) V2 load(1, XDATA, add(CFA_XSP16, literal(-10)))
          CFI (cfiCond163) V3 load(1, XDATA, add(CFA_XSP16, literal(-9)))
          CFI (cfiCond163) V4 load(1, XDATA, add(CFA_XSP16, literal(-8)))
          CFI (cfiCond163) V5 load(1, XDATA, add(CFA_XSP16, literal(-7)))
          CFI (cfiCond163) R7 load(1, XDATA, add(CFA_XSP16, literal(-6)))
          CFI (cfiCond163) ?RET_LOW load(1, XDATA, add(CFA_XSP16, literal(-5)))
          CFI (cfiCond163) ?RET_HIGH load(1, XDATA, add(CFA_XSP16, literal(-4)))
          CFI (cfiCond163) ?BRET_EXT load(1, XDATA, add(CFA_XSP16, literal(-3)))
          CFI (cfiCond163) DPL0 load(1, XDATA, add(CFA_XSP16, literal(-2)))
          CFI (cfiCond163) DPH0 load(1, XDATA, add(CFA_XSP16, literal(-1)))
          CFI (cfiCond163) CFA_SP SP+-2
          CFI (cfiCond163) CFA_XSP16 add(XSP16, 16)
          CFI Block cfiPicker164 Using cfiCommon1
          CFI (cfiPicker164) NoFunction
          CFI (cfiPicker164) Picker
        LCALL     ?Subroutine29 & 0xFFFF
??CrossCallReturnLabel_77:
        RET
          CFI EndBlock cfiCond150
          CFI EndBlock cfiCond151
          CFI EndBlock cfiCond152
          CFI EndBlock cfiCond153
          CFI EndBlock cfiCond154
          CFI EndBlock cfiCond155
          CFI EndBlock cfiCond156
          CFI EndBlock cfiCond157
          CFI EndBlock cfiCond158
          CFI EndBlock cfiCond159
          CFI EndBlock cfiCond160
          CFI EndBlock cfiCond161
          CFI EndBlock cfiCond162
          CFI EndBlock cfiCond163
          CFI EndBlock cfiPicker164

        RSEG BANKED_CODE:HUGECODE:NOROOT(0)
?Subroutine29:
          CFI Block cfiCond165 Using cfiCommon0
          CFI Function bdb_checkMatchingEndpoints
          CFI Conditional ??CrossCallReturnLabel_75, ??CrossCallReturnLabel_15
          CFI R6 load(1, XDATA, add(CFA_XSP16, literal(-16)))
          CFI VB load(1, XDATA, add(CFA_XSP16, literal(-15)))
          CFI V0 load(1, XDATA, add(CFA_XSP16, literal(-14)))
          CFI V1 load(1, XDATA, add(CFA_XSP16, literal(-13)))
          CFI V2 load(1, XDATA, add(CFA_XSP16, literal(-12)))
          CFI V3 load(1, XDATA, add(CFA_XSP16, literal(-11)))
          CFI V4 load(1, XDATA, add(CFA_XSP16, literal(-10)))
          CFI V5 load(1, XDATA, add(CFA_XSP16, literal(-9)))
          CFI V6 load(1, XDATA, add(CFA_XSP16, literal(-8)))
          CFI V7 load(1, XDATA, add(CFA_XSP16, literal(-7)))
          CFI R7 load(1, XDATA, add(CFA_XSP16, literal(-6)))
          CFI ?RET_LOW load(1, XDATA, add(CFA_XSP16, literal(-5)))
          CFI ?RET_HIGH load(1, XDATA, add(CFA_XSP16, literal(-4)))
          CFI ?BRET_EXT load(1, XDATA, add(CFA_XSP16, literal(-3)))
          CFI DPL0 load(1, XDATA, add(CFA_XSP16, literal(-2)))
          CFI DPH0 load(1, XDATA, add(CFA_XSP16, literal(-1)))
          CFI CFA_SP SP+-4
          CFI CFA_XSP16 add(XSP16, 29)
          CFI Block cfiCond166 Using cfiCommon0
          CFI (cfiCond166) Function bdb_checkMatchingEndpoints
          CFI (cfiCond166) Conditional ??CrossCallReturnLabel_75, ??CrossCallReturnLabel_16
          CFI (cfiCond166) R6 load(1, XDATA, add(CFA_XSP16, literal(-16)))
          CFI (cfiCond166) VB load(1, XDATA, add(CFA_XSP16, literal(-15)))
          CFI (cfiCond166) V0 load(1, XDATA, add(CFA_XSP16, literal(-14)))
          CFI (cfiCond166) V1 load(1, XDATA, add(CFA_XSP16, literal(-13)))
          CFI (cfiCond166) V2 load(1, XDATA, add(CFA_XSP16, literal(-12)))
          CFI (cfiCond166) V3 load(1, XDATA, add(CFA_XSP16, literal(-11)))
          CFI (cfiCond166) V4 load(1, XDATA, add(CFA_XSP16, literal(-10)))
          CFI (cfiCond166) V5 load(1, XDATA, add(CFA_XSP16, literal(-9)))
          CFI (cfiCond166) V6 load(1, XDATA, add(CFA_XSP16, literal(-8)))
          CFI (cfiCond166) V7 load(1, XDATA, add(CFA_XSP16, literal(-7)))
          CFI (cfiCond166) R7 load(1, XDATA, add(CFA_XSP16, literal(-6)))
          CFI (cfiCond166) ?RET_LOW load(1, XDATA, add(CFA_XSP16, literal(-5)))
          CFI (cfiCond166) ?RET_HIGH load(1, XDATA, add(CFA_XSP16, literal(-4)))
          CFI (cfiCond166) ?BRET_EXT load(1, XDATA, add(CFA_XSP16, literal(-3)))
          CFI (cfiCond166) DPL0 load(1, XDATA, add(CFA_XSP16, literal(-2)))
          CFI (cfiCond166) DPH0 load(1, XDATA, add(CFA_XSP16, literal(-1)))
          CFI (cfiCond166) CFA_SP SP+-4
          CFI (cfiCond166) CFA_XSP16 add(XSP16, 29)
          CFI Block cfiCond167 Using cfiCommon0
          CFI (cfiCond167) Function bdb_checkMatchingEndpoints
          CFI (cfiCond167) Conditional ??CrossCallReturnLabel_73, ??CrossCallReturnLabel_6
          CFI (cfiCond167) R6 load(1, XDATA, add(CFA_XSP16, literal(-16)))
          CFI (cfiCond167) VB load(1, XDATA, add(CFA_XSP16, literal(-15)))
          CFI (cfiCond167) V0 load(1, XDATA, add(CFA_XSP16, literal(-14)))
          CFI (cfiCond167) V1 load(1, XDATA, add(CFA_XSP16, literal(-13)))
          CFI (cfiCond167) V2 load(1, XDATA, add(CFA_XSP16, literal(-12)))
          CFI (cfiCond167) V3 load(1, XDATA, add(CFA_XSP16, literal(-11)))
          CFI (cfiCond167) V4 load(1, XDATA, add(CFA_XSP16, literal(-10)))
          CFI (cfiCond167) V5 load(1, XDATA, add(CFA_XSP16, literal(-9)))
          CFI (cfiCond167) V6 load(1, XDATA, add(CFA_XSP16, literal(-8)))
          CFI (cfiCond167) V7 load(1, XDATA, add(CFA_XSP16, literal(-7)))
          CFI (cfiCond167) R7 load(1, XDATA, add(CFA_XSP16, literal(-6)))
          CFI (cfiCond167) ?RET_LOW load(1, XDATA, add(CFA_XSP16, literal(-5)))
          CFI (cfiCond167) ?RET_HIGH load(1, XDATA, add(CFA_XSP16, literal(-4)))
          CFI (cfiCond167) ?BRET_EXT load(1, XDATA, add(CFA_XSP16, literal(-3)))
          CFI (cfiCond167) DPL0 load(1, XDATA, add(CFA_XSP16, literal(-2)))
          CFI (cfiCond167) DPH0 load(1, XDATA, add(CFA_XSP16, literal(-1)))
          CFI (cfiCond167) CFA_SP SP+-4
          CFI (cfiCond167) CFA_XSP16 add(XSP16, 34)
          CFI Block cfiCond168 Using cfiCommon0
          CFI (cfiCond168) Function bdb_checkMatchingEndpoints
          CFI (cfiCond168) Conditional ??CrossCallReturnLabel_73, ??CrossCallReturnLabel_7
          CFI (cfiCond168) R6 load(1, XDATA, add(CFA_XSP16, literal(-16)))
          CFI (cfiCond168) VB load(1, XDATA, add(CFA_XSP16, literal(-15)))
          CFI (cfiCond168) V0 load(1, XDATA, add(CFA_XSP16, literal(-14)))
          CFI (cfiCond168) V1 load(1, XDATA, add(CFA_XSP16, literal(-13)))
          CFI (cfiCond168) V2 load(1, XDATA, add(CFA_XSP16, literal(-12)))
          CFI (cfiCond168) V3 load(1, XDATA, add(CFA_XSP16, literal(-11)))
          CFI (cfiCond168) V4 load(1, XDATA, add(CFA_XSP16, literal(-10)))
          CFI (cfiCond168) V5 load(1, XDATA, add(CFA_XSP16, literal(-9)))
          CFI (cfiCond168) V6 load(1, XDATA, add(CFA_XSP16, literal(-8)))
          CFI (cfiCond168) V7 load(1, XDATA, add(CFA_XSP16, literal(-7)))
          CFI (cfiCond168) R7 load(1, XDATA, add(CFA_XSP16, literal(-6)))
          CFI (cfiCond168) ?RET_LOW load(1, XDATA, add(CFA_XSP16, literal(-5)))
          CFI (cfiCond168) ?RET_HIGH load(1, XDATA, add(CFA_XSP16, literal(-4)))
          CFI (cfiCond168) ?BRET_EXT load(1, XDATA, add(CFA_XSP16, literal(-3)))
          CFI (cfiCond168) DPL0 load(1, XDATA, add(CFA_XSP16, literal(-2)))
          CFI (cfiCond168) DPH0 load(1, XDATA, add(CFA_XSP16, literal(-1)))
          CFI (cfiCond168) CFA_SP SP+-4
          CFI (cfiCond168) CFA_XSP16 add(XSP16, 34)
          CFI Block cfiCond169 Using cfiCommon0
          CFI (cfiCond169) Function bdb_ProcessIEEEAddrRsp
          CFI (cfiCond169) Conditional ??CrossCallReturnLabel_76, ??CrossCallReturnLabel_21
          CFI (cfiCond169) R6 load(1, XDATA, add(CFA_XSP16, literal(-10)))
          CFI (cfiCond169) VB load(1, XDATA, add(CFA_XSP16, literal(-9)))
          CFI (cfiCond169) V0 load(1, XDATA, add(CFA_XSP16, literal(-8)))
          CFI (cfiCond169) V1 load(1, XDATA, add(CFA_XSP16, literal(-7)))
          CFI (cfiCond169) R7 load(1, XDATA, add(CFA_XSP16, literal(-6)))
          CFI (cfiCond169) ?RET_LOW load(1, XDATA, add(CFA_XSP16, literal(-5)))
          CFI (cfiCond169) ?RET_HIGH load(1, XDATA, add(CFA_XSP16, literal(-4)))
          CFI (cfiCond169) ?BRET_EXT load(1, XDATA, add(CFA_XSP16, literal(-3)))
          CFI (cfiCond169) DPL0 load(1, XDATA, add(CFA_XSP16, literal(-2)))
          CFI (cfiCond169) DPH0 load(1, XDATA, add(CFA_XSP16, literal(-1)))
          CFI (cfiCond169) CFA_SP SP+-4
          CFI (cfiCond169) CFA_XSP16 add(XSP16, 25)
          CFI Block cfiCond170 Using cfiCommon0
          CFI (cfiCond170) Function bdb_ProcessSimpleDesc
          CFI (cfiCond170) Conditional ??CrossCallReturnLabel_76, ??CrossCallReturnLabel_22
          CFI (cfiCond170) R6 load(1, XDATA, add(CFA_XSP16, literal(-9)))
          CFI (cfiCond170) VB load(1, XDATA, add(CFA_XSP16, literal(-8)))
          CFI (cfiCond170) V0 load(1, XDATA, add(CFA_XSP16, literal(-7)))
          CFI (cfiCond170) R7 load(1, XDATA, add(CFA_XSP16, literal(-6)))
          CFI (cfiCond170) ?RET_LOW load(1, XDATA, add(CFA_XSP16, literal(-5)))
          CFI (cfiCond170) ?RET_HIGH load(1, XDATA, add(CFA_XSP16, literal(-4)))
          CFI (cfiCond170) ?BRET_EXT load(1, XDATA, add(CFA_XSP16, literal(-3)))
          CFI (cfiCond170) DPL0 load(1, XDATA, add(CFA_XSP16, literal(-2)))
          CFI (cfiCond170) DPH0 load(1, XDATA, add(CFA_XSP16, literal(-1)))
          CFI (cfiCond170) CFA_SP SP+-4
          CFI (cfiCond170) CFA_XSP16 add(XSP16, 28)
          CFI Block cfiCond171 Using cfiCommon0
          CFI (cfiCond171) Function bdb_zclFindingBindingEpType
          CFI (cfiCond171) Conditional ??CrossCallReturnLabel_74, ??CrossCallReturnLabel_13
          CFI (cfiCond171) R6 load(1, XDATA, add(CFA_XSP16, literal(-14)))
          CFI (cfiCond171) VB load(1, XDATA, add(CFA_XSP16, literal(-13)))
          CFI (cfiCond171) V0 load(1, XDATA, add(CFA_XSP16, literal(-12)))
          CFI (cfiCond171) V1 load(1, XDATA, add(CFA_XSP16, literal(-11)))
          CFI (cfiCond171) V2 load(1, XDATA, add(CFA_XSP16, literal(-10)))
          CFI (cfiCond171) V3 load(1, XDATA, add(CFA_XSP16, literal(-9)))
          CFI (cfiCond171) V4 load(1, XDATA, add(CFA_XSP16, literal(-8)))
          CFI (cfiCond171) V5 load(1, XDATA, add(CFA_XSP16, literal(-7)))
          CFI (cfiCond171) R7 load(1, XDATA, add(CFA_XSP16, literal(-6)))
          CFI (cfiCond171) ?RET_LOW load(1, XDATA, add(CFA_XSP16, literal(-5)))
          CFI (cfiCond171) ?RET_HIGH load(1, XDATA, add(CFA_XSP16, literal(-4)))
          CFI (cfiCond171) ?BRET_EXT load(1, XDATA, add(CFA_XSP16, literal(-3)))
          CFI (cfiCond171) DPL0 load(1, XDATA, add(CFA_XSP16, literal(-2)))
          CFI (cfiCond171) DPH0 load(1, XDATA, add(CFA_XSP16, literal(-1)))
          CFI (cfiCond171) CFA_SP SP+-4
          CFI (cfiCond171) CFA_XSP16 add(XSP16, 16)
          CFI Block cfiCond172 Using cfiCommon0
          CFI (cfiCond172) Function bdb_zclFindingBindingEpType
          CFI (cfiCond172) Conditional ??CrossCallReturnLabel_74, ??CrossCallReturnLabel_14
          CFI (cfiCond172) R6 load(1, XDATA, add(CFA_XSP16, literal(-14)))
          CFI (cfiCond172) VB load(1, XDATA, add(CFA_XSP16, literal(-13)))
          CFI (cfiCond172) V0 load(1, XDATA, add(CFA_XSP16, literal(-12)))
          CFI (cfiCond172) V1 load(1, XDATA, add(CFA_XSP16, literal(-11)))
          CFI (cfiCond172) V2 load(1, XDATA, add(CFA_XSP16, literal(-10)))
          CFI (cfiCond172) V3 load(1, XDATA, add(CFA_XSP16, literal(-9)))
          CFI (cfiCond172) V4 load(1, XDATA, add(CFA_XSP16, literal(-8)))
          CFI (cfiCond172) V5 load(1, XDATA, add(CFA_XSP16, literal(-7)))
          CFI (cfiCond172) R7 load(1, XDATA, add(CFA_XSP16, literal(-6)))
          CFI (cfiCond172) ?RET_LOW load(1, XDATA, add(CFA_XSP16, literal(-5)))
          CFI (cfiCond172) ?RET_HIGH load(1, XDATA, add(CFA_XSP16, literal(-4)))
          CFI (cfiCond172) ?BRET_EXT load(1, XDATA, add(CFA_XSP16, literal(-3)))
          CFI (cfiCond172) DPL0 load(1, XDATA, add(CFA_XSP16, literal(-2)))
          CFI (cfiCond172) DPH0 load(1, XDATA, add(CFA_XSP16, literal(-1)))
          CFI (cfiCond172) CFA_SP SP+-4
          CFI (cfiCond172) CFA_XSP16 add(XSP16, 16)
          CFI Block cfiCond173 Using cfiCommon0
          CFI (cfiCond173) Function bdb_zclFindingBindingEpType
          CFI (cfiCond173) Conditional ??CrossCallReturnLabel_77, ??CrossCallReturnLabel_71
          CFI (cfiCond173) R6 load(1, XDATA, add(CFA_XSP16, literal(-14)))
          CFI (cfiCond173) VB load(1, XDATA, add(CFA_XSP16, literal(-13)))
          CFI (cfiCond173) V0 load(1, XDATA, add(CFA_XSP16, literal(-12)))
          CFI (cfiCond173) V1 load(1, XDATA, add(CFA_XSP16, literal(-11)))
          CFI (cfiCond173) V2 load(1, XDATA, add(CFA_XSP16, literal(-10)))
          CFI (cfiCond173) V3 load(1, XDATA, add(CFA_XSP16, literal(-9)))
          CFI (cfiCond173) V4 load(1, XDATA, add(CFA_XSP16, literal(-8)))
          CFI (cfiCond173) V5 load(1, XDATA, add(CFA_XSP16, literal(-7)))
          CFI (cfiCond173) R7 load(1, XDATA, add(CFA_XSP16, literal(-6)))
          CFI (cfiCond173) ?RET_LOW load(1, XDATA, add(CFA_XSP16, literal(-5)))
          CFI (cfiCond173) ?RET_HIGH load(1, XDATA, add(CFA_XSP16, literal(-4)))
          CFI (cfiCond173) ?BRET_EXT load(1, XDATA, add(CFA_XSP16, literal(-3)))
          CFI (cfiCond173) DPL0 load(1, XDATA, add(CFA_XSP16, literal(-2)))
          CFI (cfiCond173) DPH0 load(1, XDATA, add(CFA_XSP16, literal(-1)))
          CFI (cfiCond173) CFA_SP SP+-4
          CFI (cfiCond173) CFA_XSP16 add(XSP16, 16)
          CFI Block cfiCond174 Using cfiCommon0
          CFI (cfiCond174) Function bdb_zclFindingBindingEpType
          CFI (cfiCond174) Conditional ??CrossCallReturnLabel_77, ??CrossCallReturnLabel_72
          CFI (cfiCond174) R6 load(1, XDATA, add(CFA_XSP16, literal(-14)))
          CFI (cfiCond174) VB load(1, XDATA, add(CFA_XSP16, literal(-13)))
          CFI (cfiCond174) V0 load(1, XDATA, add(CFA_XSP16, literal(-12)))
          CFI (cfiCond174) V1 load(1, XDATA, add(CFA_XSP16, literal(-11)))
          CFI (cfiCond174) V2 load(1, XDATA, add(CFA_XSP16, literal(-10)))
          CFI (cfiCond174) V3 load(1, XDATA, add(CFA_XSP16, literal(-9)))
          CFI (cfiCond174) V4 load(1, XDATA, add(CFA_XSP16, literal(-8)))
          CFI (cfiCond174) V5 load(1, XDATA, add(CFA_XSP16, literal(-7)))
          CFI (cfiCond174) R7 load(1, XDATA, add(CFA_XSP16, literal(-6)))
          CFI (cfiCond174) ?RET_LOW load(1, XDATA, add(CFA_XSP16, literal(-5)))
          CFI (cfiCond174) ?RET_HIGH load(1, XDATA, add(CFA_XSP16, literal(-4)))
          CFI (cfiCond174) ?BRET_EXT load(1, XDATA, add(CFA_XSP16, literal(-3)))
          CFI (cfiCond174) DPL0 load(1, XDATA, add(CFA_XSP16, literal(-2)))
          CFI (cfiCond174) DPH0 load(1, XDATA, add(CFA_XSP16, literal(-1)))
          CFI (cfiCond174) CFA_SP SP+-4
          CFI (cfiCond174) CFA_XSP16 add(XSP16, 16)
          CFI Block cfiCond175 Using cfiCommon0
          CFI (cfiCond175) Function bdb_ProcessIEEEAddrRsp
          CFI (cfiCond175) Conditional ??CrossCallReturnLabel_77, ??CrossCallReturnLabel_59
          CFI (cfiCond175) R6 load(1, XDATA, add(CFA_XSP16, literal(-10)))
          CFI (cfiCond175) VB load(1, XDATA, add(CFA_XSP16, literal(-9)))
          CFI (cfiCond175) V0 load(1, XDATA, add(CFA_XSP16, literal(-8)))
          CFI (cfiCond175) V1 load(1, XDATA, add(CFA_XSP16, literal(-7)))
          CFI (cfiCond175) R7 load(1, XDATA, add(CFA_XSP16, literal(-6)))
          CFI (cfiCond175) ?RET_LOW load(1, XDATA, add(CFA_XSP16, literal(-5)))
          CFI (cfiCond175) ?RET_HIGH load(1, XDATA, add(CFA_XSP16, literal(-4)))
          CFI (cfiCond175) ?BRET_EXT load(1, XDATA, add(CFA_XSP16, literal(-3)))
          CFI (cfiCond175) DPL0 load(1, XDATA, add(CFA_XSP16, literal(-2)))
          CFI (cfiCond175) DPH0 load(1, XDATA, add(CFA_XSP16, literal(-1)))
          CFI (cfiCond175) CFA_SP SP+-4
          CFI (cfiCond175) CFA_XSP16 add(XSP16, 25)
          CFI Block cfiCond176 Using cfiCommon0
          CFI (cfiCond176) Function bdb_checkMatchingEndpoints
          CFI (cfiCond176) Conditional ??CrossCallReturnLabel_77, ??CrossCallReturnLabel_60
          CFI (cfiCond176) R6 load(1, XDATA, add(CFA_XSP16, literal(-16)))
          CFI (cfiCond176) VB load(1, XDATA, add(CFA_XSP16, literal(-15)))
          CFI (cfiCond176) V0 load(1, XDATA, add(CFA_XSP16, literal(-14)))
          CFI (cfiCond176) V1 load(1, XDATA, add(CFA_XSP16, literal(-13)))
          CFI (cfiCond176) V2 load(1, XDATA, add(CFA_XSP16, literal(-12)))
          CFI (cfiCond176) V3 load(1, XDATA, add(CFA_XSP16, literal(-11)))
          CFI (cfiCond176) V4 load(1, XDATA, add(CFA_XSP16, literal(-10)))
          CFI (cfiCond176) V5 load(1, XDATA, add(CFA_XSP16, literal(-9)))
          CFI (cfiCond176) V6 load(1, XDATA, add(CFA_XSP16, literal(-8)))
          CFI (cfiCond176) V7 load(1, XDATA, add(CFA_XSP16, literal(-7)))
          CFI (cfiCond176) R7 load(1, XDATA, add(CFA_XSP16, literal(-6)))
          CFI (cfiCond176) ?RET_LOW load(1, XDATA, add(CFA_XSP16, literal(-5)))
          CFI (cfiCond176) ?RET_HIGH load(1, XDATA, add(CFA_XSP16, literal(-4)))
          CFI (cfiCond176) ?BRET_EXT load(1, XDATA, add(CFA_XSP16, literal(-3)))
          CFI (cfiCond176) DPL0 load(1, XDATA, add(CFA_XSP16, literal(-2)))
          CFI (cfiCond176) DPH0 load(1, XDATA, add(CFA_XSP16, literal(-1)))
          CFI (cfiCond176) CFA_SP SP+-4
          CFI (cfiCond176) CFA_XSP16 add(XSP16, 29)
          CFI Block cfiCond177 Using cfiCommon0
          CFI (cfiCond177) Function bdb_ProcessSimpleDesc
          CFI (cfiCond177) Conditional ??CrossCallReturnLabel_77, ??CrossCallReturnLabel_61
          CFI (cfiCond177) R6 load(1, XDATA, add(CFA_XSP16, literal(-9)))
          CFI (cfiCond177) VB load(1, XDATA, add(CFA_XSP16, literal(-8)))
          CFI (cfiCond177) V0 load(1, XDATA, add(CFA_XSP16, literal(-7)))
          CFI (cfiCond177) R7 load(1, XDATA, add(CFA_XSP16, literal(-6)))
          CFI (cfiCond177) ?RET_LOW load(1, XDATA, add(CFA_XSP16, literal(-5)))
          CFI (cfiCond177) ?RET_HIGH load(1, XDATA, add(CFA_XSP16, literal(-4)))
          CFI (cfiCond177) ?BRET_EXT load(1, XDATA, add(CFA_XSP16, literal(-3)))
          CFI (cfiCond177) DPL0 load(1, XDATA, add(CFA_XSP16, literal(-2)))
          CFI (cfiCond177) DPH0 load(1, XDATA, add(CFA_XSP16, literal(-1)))
          CFI (cfiCond177) CFA_SP SP+-4
          CFI (cfiCond177) CFA_XSP16 add(XSP16, 28)
          CFI Block cfiCond178 Using cfiCommon0
          CFI (cfiCond178) Function bdb_ProcessSimpleDesc
          CFI (cfiCond178) Conditional ??CrossCallReturnLabel_77, ??CrossCallReturnLabel_62
          CFI (cfiCond178) R6 load(1, XDATA, add(CFA_XSP16, literal(-9)))
          CFI (cfiCond178) VB load(1, XDATA, add(CFA_XSP16, literal(-8)))
          CFI (cfiCond178) V0 load(1, XDATA, add(CFA_XSP16, literal(-7)))
          CFI (cfiCond178) R7 load(1, XDATA, add(CFA_XSP16, literal(-6)))
          CFI (cfiCond178) ?RET_LOW load(1, XDATA, add(CFA_XSP16, literal(-5)))
          CFI (cfiCond178) ?RET_HIGH load(1, XDATA, add(CFA_XSP16, literal(-4)))
          CFI (cfiCond178) ?BRET_EXT load(1, XDATA, add(CFA_XSP16, literal(-3)))
          CFI (cfiCond178) DPL0 load(1, XDATA, add(CFA_XSP16, literal(-2)))
          CFI (cfiCond178) DPH0 load(1, XDATA, add(CFA_XSP16, literal(-1)))
          CFI (cfiCond178) CFA_SP SP+-4
          CFI (cfiCond178) CFA_XSP16 add(XSP16, 28)
          CFI Block cfiCond179 Using cfiCommon0
          CFI (cfiCond179) Function bdb_zclFindingBindingAddBindEntry
          CFI (cfiCond179) Conditional ??CrossCallReturnLabel_77, ??CrossCallReturnLabel_63
          CFI (cfiCond179) R6 load(1, XDATA, add(CFA_XSP16, literal(-12)))
          CFI (cfiCond179) VB load(1, XDATA, add(CFA_XSP16, literal(-11)))
          CFI (cfiCond179) V0 load(1, XDATA, add(CFA_XSP16, literal(-10)))
          CFI (cfiCond179) V1 load(1, XDATA, add(CFA_XSP16, literal(-9)))
          CFI (cfiCond179) V2 load(1, XDATA, add(CFA_XSP16, literal(-8)))
          CFI (cfiCond179) V3 load(1, XDATA, add(CFA_XSP16, literal(-7)))
          CFI (cfiCond179) R7 load(1, XDATA, add(CFA_XSP16, literal(-6)))
          CFI (cfiCond179) ?RET_LOW load(1, XDATA, add(CFA_XSP16, literal(-5)))
          CFI (cfiCond179) ?RET_HIGH load(1, XDATA, add(CFA_XSP16, literal(-4)))
          CFI (cfiCond179) ?BRET_EXT load(1, XDATA, add(CFA_XSP16, literal(-3)))
          CFI (cfiCond179) DPL0 load(1, XDATA, add(CFA_XSP16, literal(-2)))
          CFI (cfiCond179) DPH0 load(1, XDATA, add(CFA_XSP16, literal(-1)))
          CFI (cfiCond179) CFA_SP SP+-4
          CFI (cfiCond179) CFA_XSP16 add(XSP16, 16)
          CFI Block cfiCond180 Using cfiCommon0
          CFI (cfiCond180) Function bdb_zclFindingBindingAddBindEntry
          CFI (cfiCond180) Conditional ??CrossCallReturnLabel_77, ??CrossCallReturnLabel_64
          CFI (cfiCond180) R6 load(1, XDATA, add(CFA_XSP16, literal(-12)))
          CFI (cfiCond180) VB load(1, XDATA, add(CFA_XSP16, literal(-11)))
          CFI (cfiCond180) V0 load(1, XDATA, add(CFA_XSP16, literal(-10)))
          CFI (cfiCond180) V1 load(1, XDATA, add(CFA_XSP16, literal(-9)))
          CFI (cfiCond180) V2 load(1, XDATA, add(CFA_XSP16, literal(-8)))
          CFI (cfiCond180) V3 load(1, XDATA, add(CFA_XSP16, literal(-7)))
          CFI (cfiCond180) R7 load(1, XDATA, add(CFA_XSP16, literal(-6)))
          CFI (cfiCond180) ?RET_LOW load(1, XDATA, add(CFA_XSP16, literal(-5)))
          CFI (cfiCond180) ?RET_HIGH load(1, XDATA, add(CFA_XSP16, literal(-4)))
          CFI (cfiCond180) ?BRET_EXT load(1, XDATA, add(CFA_XSP16, literal(-3)))
          CFI (cfiCond180) DPL0 load(1, XDATA, add(CFA_XSP16, literal(-2)))
          CFI (cfiCond180) DPH0 load(1, XDATA, add(CFA_XSP16, literal(-1)))
          CFI (cfiCond180) CFA_SP SP+-4
          CFI (cfiCond180) CFA_XSP16 add(XSP16, 16)
          CFI Block cfiCond181 Using cfiCommon0
          CFI (cfiCond181) Function bdb_zclSimpleDescClusterListClean
          CFI (cfiCond181) Conditional ??CrossCallReturnLabel_77, ??CrossCallReturnLabel_65
          CFI (cfiCond181) R6 load(1, XDATA, add(CFA_XSP16, literal(-10)))
          CFI (cfiCond181) VB load(1, XDATA, add(CFA_XSP16, literal(-9)))
          CFI (cfiCond181) V0 load(1, XDATA, add(CFA_XSP16, literal(-8)))
          CFI (cfiCond181) V1 load(1, XDATA, add(CFA_XSP16, literal(-7)))
          CFI (cfiCond181) R7 load(1, XDATA, add(CFA_XSP16, literal(-6)))
          CFI (cfiCond181) ?RET_LOW load(1, XDATA, add(CFA_XSP16, literal(-5)))
          CFI (cfiCond181) ?RET_HIGH load(1, XDATA, add(CFA_XSP16, literal(-4)))
          CFI (cfiCond181) ?BRET_EXT load(1, XDATA, add(CFA_XSP16, literal(-3)))
          CFI (cfiCond181) DPL0 load(1, XDATA, add(CFA_XSP16, literal(-2)))
          CFI (cfiCond181) DPH0 load(1, XDATA, add(CFA_XSP16, literal(-1)))
          CFI (cfiCond181) CFA_SP SP+-4
          CFI (cfiCond181) CFA_XSP16 add(XSP16, 10)
          CFI Block cfiCond182 Using cfiCommon0
          CFI (cfiCond182) Function bdb_zclSimpleDescClusterListClean
          CFI (cfiCond182) Conditional ??CrossCallReturnLabel_77, ??CrossCallReturnLabel_66
          CFI (cfiCond182) R6 load(1, XDATA, add(CFA_XSP16, literal(-10)))
          CFI (cfiCond182) VB load(1, XDATA, add(CFA_XSP16, literal(-9)))
          CFI (cfiCond182) V0 load(1, XDATA, add(CFA_XSP16, literal(-8)))
          CFI (cfiCond182) V1 load(1, XDATA, add(CFA_XSP16, literal(-7)))
          CFI (cfiCond182) R7 load(1, XDATA, add(CFA_XSP16, literal(-6)))
          CFI (cfiCond182) ?RET_LOW load(1, XDATA, add(CFA_XSP16, literal(-5)))
          CFI (cfiCond182) ?RET_HIGH load(1, XDATA, add(CFA_XSP16, literal(-4)))
          CFI (cfiCond182) ?BRET_EXT load(1, XDATA, add(CFA_XSP16, literal(-3)))
          CFI (cfiCond182) DPL0 load(1, XDATA, add(CFA_XSP16, literal(-2)))
          CFI (cfiCond182) DPH0 load(1, XDATA, add(CFA_XSP16, literal(-1)))
          CFI (cfiCond182) CFA_SP SP+-4
          CFI (cfiCond182) CFA_XSP16 add(XSP16, 10)
          CFI Block cfiCond183 Using cfiCommon0
          CFI (cfiCond183) Function bdb_ProcessRespondentList
          CFI (cfiCond183) Conditional ??CrossCallReturnLabel_77, ??CrossCallReturnLabel_67
          CFI (cfiCond183) R6 load(1, XDATA, add(CFA_XSP16, literal(-9)))
          CFI (cfiCond183) VB load(1, XDATA, add(CFA_XSP16, literal(-8)))
          CFI (cfiCond183) V0 load(1, XDATA, add(CFA_XSP16, literal(-7)))
          CFI (cfiCond183) R7 load(1, XDATA, add(CFA_XSP16, literal(-6)))
          CFI (cfiCond183) ?RET_LOW load(1, XDATA, add(CFA_XSP16, literal(-5)))
          CFI (cfiCond183) ?RET_HIGH load(1, XDATA, add(CFA_XSP16, literal(-4)))
          CFI (cfiCond183) ?BRET_EXT load(1, XDATA, add(CFA_XSP16, literal(-3)))
          CFI (cfiCond183) DPL0 load(1, XDATA, add(CFA_XSP16, literal(-2)))
          CFI (cfiCond183) DPH0 load(1, XDATA, add(CFA_XSP16, literal(-1)))
          CFI (cfiCond183) CFA_SP SP+-4
          CFI (cfiCond183) CFA_XSP16 add(XSP16, 18)
          CFI Block cfiCond184 Using cfiCommon0
          CFI (cfiCond184) Function bdb_ProcessRespondentList
          CFI (cfiCond184) Conditional ??CrossCallReturnLabel_77, ??CrossCallReturnLabel_68
          CFI (cfiCond184) R6 load(1, XDATA, add(CFA_XSP16, literal(-9)))
          CFI (cfiCond184) VB load(1, XDATA, add(CFA_XSP16, literal(-8)))
          CFI (cfiCond184) V0 load(1, XDATA, add(CFA_XSP16, literal(-7)))
          CFI (cfiCond184) R7 load(1, XDATA, add(CFA_XSP16, literal(-6)))
          CFI (cfiCond184) ?RET_LOW load(1, XDATA, add(CFA_XSP16, literal(-5)))
          CFI (cfiCond184) ?RET_HIGH load(1, XDATA, add(CFA_XSP16, literal(-4)))
          CFI (cfiCond184) ?BRET_EXT load(1, XDATA, add(CFA_XSP16, literal(-3)))
          CFI (cfiCond184) DPL0 load(1, XDATA, add(CFA_XSP16, literal(-2)))
          CFI (cfiCond184) DPH0 load(1, XDATA, add(CFA_XSP16, literal(-1)))
          CFI (cfiCond184) CFA_SP SP+-4
          CFI (cfiCond184) CFA_XSP16 add(XSP16, 18)
          CFI Block cfiCond185 Using cfiCommon0
          CFI (cfiCond185) Function bdb_ProcessRespondentList
          CFI (cfiCond185) Conditional ??CrossCallReturnLabel_77, ??CrossCallReturnLabel_69
          CFI (cfiCond185) R6 load(1, XDATA, add(CFA_XSP16, literal(-9)))
          CFI (cfiCond185) VB load(1, XDATA, add(CFA_XSP16, literal(-8)))
          CFI (cfiCond185) V0 load(1, XDATA, add(CFA_XSP16, literal(-7)))
          CFI (cfiCond185) R7 load(1, XDATA, add(CFA_XSP16, literal(-6)))
          CFI (cfiCond185) ?RET_LOW load(1, XDATA, add(CFA_XSP16, literal(-5)))
          CFI (cfiCond185) ?RET_HIGH load(1, XDATA, add(CFA_XSP16, literal(-4)))
          CFI (cfiCond185) ?BRET_EXT load(1, XDATA, add(CFA_XSP16, literal(-3)))
          CFI (cfiCond185) DPL0 load(1, XDATA, add(CFA_XSP16, literal(-2)))
          CFI (cfiCond185) DPH0 load(1, XDATA, add(CFA_XSP16, literal(-1)))
          CFI (cfiCond185) CFA_SP SP+-4
          CFI (cfiCond185) CFA_XSP16 add(XSP16, 18)
          CFI Block cfiCond186 Using cfiCommon0
          CFI (cfiCond186) Function bdb_getRespondentRetry
          CFI (cfiCond186) Conditional ??CrossCallReturnLabel_77, ??CrossCallReturnLabel_70
          CFI (cfiCond186) DPL0 Frame(CFA_SP, 4)
          CFI (cfiCond186) DPH0 Frame(CFA_SP, 5)
          CFI (cfiCond186) CFA_SP SP+-9
          CFI Block cfiPicker187 Using cfiCommon1
          CFI (cfiPicker187) NoFunction
          CFI (cfiPicker187) Picker
        MOVX      A,@DPTR
        MOV       R2,A
        INC       DPTR
        MOVX      A,@DPTR
        MOV       R3,A
        RET
          CFI EndBlock cfiCond165
          CFI EndBlock cfiCond166
          CFI EndBlock cfiCond167
          CFI EndBlock cfiCond168
          CFI EndBlock cfiCond169
          CFI EndBlock cfiCond170
          CFI EndBlock cfiCond171
          CFI EndBlock cfiCond172
          CFI EndBlock cfiCond173
          CFI EndBlock cfiCond174
          CFI EndBlock cfiCond175
          CFI EndBlock cfiCond176
          CFI EndBlock cfiCond177
          CFI EndBlock cfiCond178
          CFI EndBlock cfiCond179
          CFI EndBlock cfiCond180
          CFI EndBlock cfiCond181
          CFI EndBlock cfiCond182
          CFI EndBlock cfiCond183
          CFI EndBlock cfiCond184
          CFI EndBlock cfiCond185
          CFI EndBlock cfiCond186
          CFI EndBlock cfiPicker187
//  795 
//  796 /*********************************************************************
//  797  * @fn      bdb_RegisterIdentifyTimeChangeCB
//  798  *
//  799  * @brief   Register an Application's Identify Time change callback function
//  800  *          to let know the application when identify is active or not.
//  801  *
//  802  * @param   pfnIdentify - application callback
//  803  *
//  804  * @return  none
//  805  */

        RSEG BANKED_CODE:HUGECODE:NOROOT(0)
//  806 void bdb_RegisterIdentifyTimeChangeCB( bdbGCB_IdentifyTimeChange_t pfnIdentifyTimeChange )
bdb_RegisterIdentifyTimeChangeCB:
          CFI Block cfiBlock188 Using cfiCommon0
          CFI Function bdb_RegisterIdentifyTimeChangeCB
        CODE
//  807 {
        PUSH      DPL
          CFI DPL0 Frame(CFA_SP, 4)
          CFI CFA_SP SP+-4
        PUSH      DPH
          CFI DPH0 Frame(CFA_SP, 5)
          CFI CFA_SP SP+-5
        ; Saved register size: 2
        ; Auto size: 0
//  808   pfnIdentifyTimeChangeCB = pfnIdentifyTimeChange;
        MOV       DPTR,#pfnIdentifyTimeChangeCB
        LJMP      ?Subroutine0 & 0xFFFF
//  809 }
          CFI EndBlock cfiBlock188
//  810 
//  811 #if (FINDING_AND_BINDING_PERIODIC_ENABLE==TRUE)
//  812 /*********************************************************************
//  813  * @fn      bdb_GetFBInitiatorStatus
//  814  *
//  815  * @brief   Get the F&B initiator status for periodic requests.
//  816  *
//  817  * @param   RemainingTime - in seconds
//  818  * @param   AttemptsLeft - number of attempts to be done
//  819  * @param   MatchesFound - Add the number of matches to this parameter
//  820  *                         since the last bdb_GetFBInitiatorStatus call
//  821  *
//  822  * @return  none
//  823  */

        RSEG BANKED_CODE:HUGECODE:NOROOT(0)
//  824 void bdb_GetFBInitiatorStatus(uint8 *RemainingTime, uint8* AttemptsLeft)
bdb_GetFBInitiatorStatus:
          CFI Block cfiBlock189 Using cfiCommon0
          CFI Function bdb_GetFBInitiatorStatus
        CODE
//  825 {
        FUNCALL bdb_GetFBInitiatorStatus, osal_get_timeoutEx
        LOCFRAME ISTACK, 0, STACK
        LOCFRAME PSTACK, 0, STACK
        LOCFRAME XSTACK, 18, STACK
        LOCFRAME IOVERLAY, 0, STATIC
        LOCFRAME DOVERLAY, 0, STATIC
        ARGFRAME ISTACK, 0, STACK
        ARGFRAME PSTACK, 0, STACK
        ARGFRAME XSTACK, 18, STACK
        ARGFRAME IOVERLAY, 0, STATIC
        ARGFRAME DOVERLAY, 0, STATIC
        REQUIRE ?V0
        REQUIRE ?V1
        REQUIRE ?V2
        REQUIRE ?V3
        REQUIRE ?V4
        REQUIRE ?V5
        REQUIRE ?V6
        REQUIRE ?V7
        MOV       A,#-0x10
        LCALL     ?BANKED_ENTER_XDATA
          CFI DPH0 load(1, XDATA, add(CFA_XSP16, literal(-1)))
          CFI DPL0 load(1, XDATA, add(CFA_XSP16, literal(-2)))
          CFI ?BRET_EXT load(1, XDATA, add(CFA_XSP16, literal(-3)))
          CFI ?RET_HIGH load(1, XDATA, add(CFA_XSP16, literal(-4)))
          CFI ?RET_LOW load(1, XDATA, add(CFA_XSP16, literal(-5)))
          CFI R7 load(1, XDATA, add(CFA_XSP16, literal(-6)))
          CFI V7 load(1, XDATA, add(CFA_XSP16, literal(-7)))
          CFI V6 load(1, XDATA, add(CFA_XSP16, literal(-8)))
          CFI V5 load(1, XDATA, add(CFA_XSP16, literal(-9)))
          CFI V4 load(1, XDATA, add(CFA_XSP16, literal(-10)))
          CFI V3 load(1, XDATA, add(CFA_XSP16, literal(-11)))
          CFI V2 load(1, XDATA, add(CFA_XSP16, literal(-12)))
          CFI V1 load(1, XDATA, add(CFA_XSP16, literal(-13)))
          CFI V0 load(1, XDATA, add(CFA_XSP16, literal(-14)))
          CFI VB load(1, XDATA, add(CFA_XSP16, literal(-15)))
          CFI R6 load(1, XDATA, add(CFA_XSP16, literal(-16)))
          CFI CFA_SP SP+0
          CFI CFA_XSP16 add(XSP16, 16)
        ; Saved register size: 16
        ; Auto size: 2
        MOV       A,#-0x2
        LCALL     ?ALLOC_XSTACK8
          CFI CFA_XSP16 add(XSP16, 18)
        MOV       DPL,?XSP + 0
        MOV       DPH,?XSP + 1
        MOV       A,R4
        MOVX      @DPTR,A
        INC       DPTR
        MOV       A,R5
        MOVX      @DPTR,A
        MOV       A,R2
        MOV       R6,A
        MOV       A,R3
        MOV       R7,A
//  826   if(RemainingTime != NULL)  
        MOV       A,R6
        ORL       A,R7
        JZ        ??bdb_GetFBInitiatorStatus_0
//  827   {
//  828     if (bdb_FB_InitiatorCurrentCyclesNumber == 0)
        MOV       DPTR,#bdb_FB_InitiatorCurrentCyclesNumber
        MOVX      A,@DPTR
        JNZ       ??bdb_GetFBInitiatorStatus_1
//  829     {
//  830       *RemainingTime = 0;
        MOV       DPL,R6
        MOV       DPH,R7
        CLR       A
        SJMP      ??bdb_GetFBInitiatorStatus_2
//  831     }
//  832     else
//  833     {
//  834       *RemainingTime = (bdb_FB_InitiatorCurrentCyclesNumber - 1) * FINDING_AND_BINDING_PERIODIC_TIME + ((osal_get_timeoutEx(bdb_TaskID, BDB_FINDING_AND_BINDING_PERIOD_TIMEOUT) + 999) / 1000);
??bdb_GetFBInitiatorStatus_1:
        ; Setup parameters for call to function osal_get_timeoutEx
        MOV       R2,#0x40
        MOV       R3,#0x0
        MOV       DPTR,#bdb_TaskID
        MOVX      A,@DPTR
        MOV       R1,A
        LCALL     `??osal_get_timeoutEx::?relay`; Banked call to: osal_get_timeoutEx
        MOV       ?V4,R2
        MOV       ?V5,R3
        MOV       ?V6,R4
        MOV       ?V7,R5
        MOV       DPTR,#__Constant_3e7
        MOV       R0,#?V4
        LCALL     ?L_ADD_X
        MOV       DPTR,#__Constant_3e8
        MOV       R0,#?V0
        LCALL     ?L_MOV_X
        MOV       R0,#?V4
        MOV       R1,#?V0
        LCALL     ?UL_DIV_MOD
        MOV       B,#0xf
        MOV       DPTR,#bdb_FB_InitiatorCurrentCyclesNumber
        MOVX      A,@DPTR
        DEC       A
        MUL       AB
        ADD       A,?V4
        MOV       DPL,R6
        MOV       DPH,R7
??bdb_GetFBInitiatorStatus_2:
        MOVX      @DPTR,A
//  835     }
//  836   }
//  837   
//  838   if(AttemptsLeft != NULL)
??bdb_GetFBInitiatorStatus_0:
        LCALL     ??Subroutine49_0 & 0xFFFF
??CrossCallReturnLabel_113:
        JZ        ??bdb_GetFBInitiatorStatus_3
//  839   {
//  840     *AttemptsLeft = bdb_FB_InitiatorCurrentCyclesNumber;
        MOV       DPTR,#bdb_FB_InitiatorCurrentCyclesNumber
        MOVX      A,@DPTR
        PUSH      A
          CFI CFA_SP SP+-1
        LCALL     ?Subroutine20 & 0xFFFF
//  841   }
??CrossCallReturnLabel_54:
        POP       A
          CFI CFA_SP SP+0
        MOVX      @DPTR,A
//  842 }
??bdb_GetFBInitiatorStatus_3:
        MOV       A,#0x2
        LJMP      ?Subroutine2 & 0xFFFF
          CFI EndBlock cfiBlock189
//  843 #endif
//  844 
//  845 /*********************************************************************
//  846  * @fn      bdb_RegisterBindNotificationCB
//  847  *
//  848  * @brief   Register an Application's notification callback function to let 
//  849  *          know the application when a new bind is added to the binding table.
//  850  *
//  851  * @param   pfnIdentify - application callback
//  852  *
//  853  * @return  none
//  854  */

        RSEG BANKED_CODE:HUGECODE:NOROOT(0)
//  855 void bdb_RegisterBindNotificationCB( bdbGCB_BindNotification_t pfnBindNotification )
bdb_RegisterBindNotificationCB:
          CFI Block cfiBlock190 Using cfiCommon0
          CFI Function bdb_RegisterBindNotificationCB
        CODE
//  856 {
        PUSH      DPL
          CFI DPL0 Frame(CFA_SP, 4)
          CFI CFA_SP SP+-4
        PUSH      DPH
          CFI DPH0 Frame(CFA_SP, 5)
          CFI CFA_SP SP+-5
        ; Saved register size: 2
        ; Auto size: 0
//  857   pfnBindNotificationCB = pfnBindNotification;
        MOV       DPTR,#pfnBindNotificationCB
        LJMP      ?Subroutine0 & 0xFFFF
//  858 }
          CFI EndBlock cfiBlock190
//  859 
//  860 /*********************************************************************
//  861  * @fn      bdb_SendIdentifyQuery
//  862  *
//  863  * @brief   Sends Identify query from the given endpoint
//  864  *
//  865  * @param   endpoint
//  866  *
//  867  * @return  ZStatus_t
//  868  */

        RSEG BANKED_CODE:HUGECODE:NOROOT(0)
//  869 ZStatus_t bdb_SendIdentifyQuery( uint8 endpoint )
bdb_SendIdentifyQuery:
          CFI Block cfiBlock191 Using cfiCommon0
          CFI Function bdb_SendIdentifyQuery
        CODE
//  870 {
        FUNCALL bdb_SendIdentifyQuery, bdb_getZCLFrameCounter
        LOCFRAME ISTACK, 0, STACK
        LOCFRAME PSTACK, 0, STACK
        LOCFRAME XSTACK, 22, STACK
        LOCFRAME IOVERLAY, 0, STATIC
        LOCFRAME DOVERLAY, 0, STATIC
        ARGFRAME ISTACK, 0, STACK
        ARGFRAME PSTACK, 0, STACK
        ARGFRAME XSTACK, 22, STACK
        ARGFRAME IOVERLAY, 0, STATIC
        ARGFRAME DOVERLAY, 0, STATIC
        FUNCALL bdb_SendIdentifyQuery, zcl_SendCommand
        LOCFRAME ISTACK, 0, STACK
        LOCFRAME PSTACK, 0, STACK
        LOCFRAME XSTACK, 33, STACK
        LOCFRAME IOVERLAY, 0, STATIC
        LOCFRAME DOVERLAY, 0, STATIC
        ARGFRAME ISTACK, 0, STACK
        ARGFRAME PSTACK, 0, STACK
        ARGFRAME XSTACK, 33, STACK
        ARGFRAME IOVERLAY, 0, STATIC
        ARGFRAME DOVERLAY, 0, STATIC
        FUNCALL bdb_SendIdentifyQuery, osal_start_timerEx
        LOCFRAME ISTACK, 0, STACK
        LOCFRAME PSTACK, 0, STACK
        LOCFRAME XSTACK, 26, STACK
        LOCFRAME IOVERLAY, 0, STATIC
        LOCFRAME DOVERLAY, 0, STATIC
        ARGFRAME ISTACK, 0, STACK
        ARGFRAME PSTACK, 0, STACK
        ARGFRAME XSTACK, 26, STACK
        ARGFRAME IOVERLAY, 0, STATIC
        ARGFRAME DOVERLAY, 0, STATIC
        REQUIRE ?V0
        REQUIRE ?V1
        MOV       A,#-0xa
        LCALL     ?BANKED_ENTER_XDATA
          CFI DPH0 load(1, XDATA, add(CFA_XSP16, literal(-1)))
          CFI DPL0 load(1, XDATA, add(CFA_XSP16, literal(-2)))
          CFI ?BRET_EXT load(1, XDATA, add(CFA_XSP16, literal(-3)))
          CFI ?RET_HIGH load(1, XDATA, add(CFA_XSP16, literal(-4)))
          CFI ?RET_LOW load(1, XDATA, add(CFA_XSP16, literal(-5)))
          CFI R7 load(1, XDATA, add(CFA_XSP16, literal(-6)))
          CFI V1 load(1, XDATA, add(CFA_XSP16, literal(-7)))
          CFI V0 load(1, XDATA, add(CFA_XSP16, literal(-8)))
          CFI VB load(1, XDATA, add(CFA_XSP16, literal(-9)))
          CFI R6 load(1, XDATA, add(CFA_XSP16, literal(-10)))
          CFI CFA_SP SP+0
          CFI CFA_XSP16 add(XSP16, 10)
        ; Saved register size: 10
        ; Auto size: 12
        MOV       A,#-0xc
        LCALL     ?ALLOC_XSTACK8
          CFI CFA_XSP16 add(XSP16, 22)
        MOV       A,R1
        MOV       R7,A
//  871   afAddrType_t dstAddr;
//  872   ZStatus_t    status;
//  873   
//  874   dstAddr.addr.shortAddr = NWK_BROADCAST_SHORTADDR_DEVALL;
        MOV       DPL,?XSP + 0
        MOV       DPH,?XSP + 1
        MOV       A,#-0x1
        MOVX      @DPTR,A
        INC       DPTR
        MOVX      @DPTR,A
//  875   dstAddr.addrMode = afAddr16Bit;
        MOV       A,#0x8
        LCALL     ?XSTACK_DISP0_8
        MOV       A,#0x2
        MOVX      @DPTR,A
//  876   dstAddr.endPoint = 0xFF;
        MOV       A,#0x9
        LCALL     ?XSTACK_DISP0_8
        MOV       A,#-0x1
        MOVX      @DPTR,A
//  877 
//  878   status = zclGeneral_SendIdentifyQuery( endpoint, &dstAddr, TRUE, bdb_getZCLFrameCounter() ); 
        ; Setup parameters for call to function bdb_getZCLFrameCounter
        LCALL     `??bdb_getZCLFrameCounter::?relay`; Banked call to: bdb_getZCLFrameCounter
        MOV       A,R1
        MOV       R1,A
        ; Setup parameters for call to function zcl_SendCommand
        CLR       A
        MOV       ?V0,A
        MOV       ?V1,A
        MOV       R0,#?V0
        LCALL     ?PUSH_XSTACK_I_TWO
          CFI CFA_XSP16 add(XSP16, 24)
        MOV       R0,#?V0
        LCALL     ?PUSH_XSTACK_I_TWO
          CFI CFA_XSP16 add(XSP16, 26)
        MOV       A,R1
        MOV       ?V0,A
        MOV       R0,#?V0
        LCALL     ?PUSH_XSTACK_I_ONE
          CFI CFA_XSP16 add(XSP16, 27)
        CLR       A
        MOV       ?V0,A
        MOV       R0,#?V0
        LCALL     ?PUSH_XSTACK_I_TWO
          CFI CFA_XSP16 add(XSP16, 29)
        MOV       ?V0,#0x1
        MOV       R0,#?V0
        LCALL     ?PUSH_XSTACK_I_ONE
          CFI CFA_XSP16 add(XSP16, 30)
        MOV       ?V0,#0x0
        MOV       R0,#?V0
        LCALL     ?PUSH_XSTACK_I_ONE
          CFI CFA_XSP16 add(XSP16, 31)
        MOV       ?V0,#0x1
        MOV       R0,#?V0
        LCALL     ?PUSH_XSTACK_I_ONE
          CFI CFA_XSP16 add(XSP16, 32)
        MOV       R0,#?V0
        LCALL     ?PUSH_XSTACK_I_ONE
          CFI CFA_XSP16 add(XSP16, 33)
        MOV       R4,#0x3
        MOV       R5,#0x0
        MOV       A,#0xb
        LCALL     ?XSTACK_DISP101_8
        MOV       A,R7
        MOV       R1,A
        LCALL     `??zcl_SendCommand::?relay`; Banked call to: zcl_SendCommand
        MOV       A,#0xb
        LCALL     ?DEALLOC_XSTACK8
          CFI CFA_XSP16 add(XSP16, 22)
        MOV       A,R1
        MOV       R6,A
//  879   
//  880   if(status == ZSuccess)
        JNZ       ??bdb_SendIdentifyQuery_0
//  881   {
//  882     osal_start_timerEx( bdb_TaskID, BDB_RESPONDENT_PROCESS_TIMEOUT, IDENTIFY_QUERY_RSP_TIMEOUT );
        ; Setup parameters for call to function osal_start_timerEx
        MOV       DPTR,#__Constant_1388
        LCALL     ?PUSH_XSTACK8_X_FOUR
          CFI CFA_XSP16 add(XSP16, 26)
        MOV       R2,#0x0
        MOV       R3,#0x40
        MOV       DPTR,#bdb_TaskID
        MOVX      A,@DPTR
        MOV       R1,A
        LCALL     `??osal_start_timerEx::?relay`; Banked call to: osal_start_timerEx
        MOV       A,#0x4
        LCALL     ?DEALLOC_XSTACK8
          CFI CFA_XSP16 add(XSP16, 22)
//  883   }
//  884   
//  885   return status;
??bdb_SendIdentifyQuery_0:
        MOV       A,R6
        MOV       R1,A
        LJMP      ?Subroutine1 & 0xFFFF
//  886 }
          CFI EndBlock cfiBlock191
//  887 
//  888 /*********************************************************************
//  889  * @fn      bdb_SendIdentifyQueryWithAddr
//  890  *
//  891  * @brief   Sends Identify query from the given endpoint
//  892  *
//  893  * @param   endpoint
//  894  *
//  895  * @return  ZStatus_t
//  896  */

        RSEG BANKED_CODE:HUGECODE:NOROOT(0)
//  897 ZStatus_t bdb_SendIdentifyQueryWithAddr(uint8 src_endpoint, uint16 shortAddr, uint8 endpoint)
bdb_SendIdentifyQueryWithAddr:
          CFI Block cfiBlock192 Using cfiCommon0
          CFI Function bdb_SendIdentifyQueryWithAddr
        CODE
//  898 {
        FUNCALL bdb_SendIdentifyQueryWithAddr, bdb_getZCLFrameCounter
        LOCFRAME ISTACK, 0, STACK
        LOCFRAME PSTACK, 0, STACK
        LOCFRAME XSTACK, 22, STACK
        LOCFRAME IOVERLAY, 0, STATIC
        LOCFRAME DOVERLAY, 0, STATIC
        ARGFRAME ISTACK, 0, STACK
        ARGFRAME PSTACK, 0, STACK
        ARGFRAME XSTACK, 22, STACK
        ARGFRAME IOVERLAY, 0, STATIC
        ARGFRAME DOVERLAY, 0, STATIC
        FUNCALL bdb_SendIdentifyQueryWithAddr, zcl_SendCommand
        LOCFRAME ISTACK, 0, STACK
        LOCFRAME PSTACK, 0, STACK
        LOCFRAME XSTACK, 33, STACK
        LOCFRAME IOVERLAY, 0, STATIC
        LOCFRAME DOVERLAY, 0, STATIC
        ARGFRAME ISTACK, 0, STACK
        ARGFRAME PSTACK, 0, STACK
        ARGFRAME XSTACK, 33, STACK
        ARGFRAME IOVERLAY, 0, STATIC
        ARGFRAME DOVERLAY, 0, STATIC
        FUNCALL bdb_SendIdentifyQueryWithAddr, osal_start_timerEx
        LOCFRAME ISTACK, 0, STACK
        LOCFRAME PSTACK, 0, STACK
        LOCFRAME XSTACK, 26, STACK
        LOCFRAME IOVERLAY, 0, STATIC
        LOCFRAME DOVERLAY, 0, STATIC
        ARGFRAME ISTACK, 0, STACK
        ARGFRAME PSTACK, 0, STACK
        ARGFRAME XSTACK, 26, STACK
        ARGFRAME IOVERLAY, 0, STATIC
        ARGFRAME DOVERLAY, 0, STATIC
        REQUIRE ?V0
        REQUIRE ?V1
        MOV       A,#-0xa
        LCALL     ?BANKED_ENTER_XDATA
          CFI DPH0 load(1, XDATA, add(CFA_XSP16, literal(-1)))
          CFI DPL0 load(1, XDATA, add(CFA_XSP16, literal(-2)))
          CFI ?BRET_EXT load(1, XDATA, add(CFA_XSP16, literal(-3)))
          CFI ?RET_HIGH load(1, XDATA, add(CFA_XSP16, literal(-4)))
          CFI ?RET_LOW load(1, XDATA, add(CFA_XSP16, literal(-5)))
          CFI R7 load(1, XDATA, add(CFA_XSP16, literal(-6)))
          CFI V1 load(1, XDATA, add(CFA_XSP16, literal(-7)))
          CFI V0 load(1, XDATA, add(CFA_XSP16, literal(-8)))
          CFI VB load(1, XDATA, add(CFA_XSP16, literal(-9)))
          CFI R6 load(1, XDATA, add(CFA_XSP16, literal(-10)))
          CFI CFA_SP SP+0
          CFI CFA_XSP16 add(XSP16, 10)
        ; Saved register size: 10
        ; Auto size: 12
        MOV       A,#-0xc
        LCALL     ?ALLOC_XSTACK8
          CFI CFA_XSP16 add(XSP16, 22)
        MOV       A,R1
        MOV       R7,A
//  899   afAddrType_t dstAddr;
//  900   ZStatus_t    status;
//  901   
//  902   dstAddr.addr.shortAddr = shortAddr;
        LCALL     ?Subroutine24 & 0xFFFF
//  903   dstAddr.addrMode = afAddr16Bit;
??CrossCallReturnLabel_85:
        MOV       A,#0x8
        LCALL     ?XSTACK_DISP0_8
        MOV       A,#0x2
        MOVX      @DPTR,A
//  904   dstAddr.endPoint = endpoint;
        MOV       A,#0x9
        LCALL     ?XSTACK_DISP0_8
        MOV       A,R4
        MOVX      @DPTR,A
//  905 
//  906   status = zclGeneral_SendIdentifyQuery( src_endpoint, &dstAddr, TRUE, bdb_getZCLFrameCounter() ); 
        ; Setup parameters for call to function bdb_getZCLFrameCounter
        LCALL     `??bdb_getZCLFrameCounter::?relay`; Banked call to: bdb_getZCLFrameCounter
        MOV       A,R1
        MOV       R1,A
        ; Setup parameters for call to function zcl_SendCommand
        CLR       A
        MOV       ?V0,A
        MOV       ?V1,A
        MOV       R0,#?V0
        LCALL     ?PUSH_XSTACK_I_TWO
          CFI CFA_XSP16 add(XSP16, 24)
        MOV       R0,#?V0
        LCALL     ?PUSH_XSTACK_I_TWO
          CFI CFA_XSP16 add(XSP16, 26)
        MOV       A,R1
        MOV       ?V0,A
        MOV       R0,#?V0
        LCALL     ?PUSH_XSTACK_I_ONE
          CFI CFA_XSP16 add(XSP16, 27)
        CLR       A
        MOV       ?V0,A
        MOV       R0,#?V0
        LCALL     ?PUSH_XSTACK_I_TWO
          CFI CFA_XSP16 add(XSP16, 29)
        MOV       ?V0,#0x1
        MOV       R0,#?V0
        LCALL     ?PUSH_XSTACK_I_ONE
          CFI CFA_XSP16 add(XSP16, 30)
        MOV       ?V0,#0x0
        MOV       R0,#?V0
        LCALL     ?PUSH_XSTACK_I_ONE
          CFI CFA_XSP16 add(XSP16, 31)
        MOV       ?V0,#0x1
        MOV       R0,#?V0
        LCALL     ?PUSH_XSTACK_I_ONE
          CFI CFA_XSP16 add(XSP16, 32)
        MOV       R0,#?V0
        LCALL     ?PUSH_XSTACK_I_ONE
          CFI CFA_XSP16 add(XSP16, 33)
        MOV       R4,#0x3
        MOV       R5,#0x0
        MOV       A,#0xb
        LCALL     ?XSTACK_DISP101_8
        MOV       A,R7
        MOV       R1,A
        LCALL     `??zcl_SendCommand::?relay`; Banked call to: zcl_SendCommand
        MOV       A,#0xb
        LCALL     ?DEALLOC_XSTACK8
          CFI CFA_XSP16 add(XSP16, 22)
        MOV       A,R1
        MOV       ?V0,A
//  907   
//  908   if(status == ZSuccess)
        JNZ       ??bdb_SendIdentifyQueryWithAddr_0
//  909   {
//  910     osal_start_timerEx( bdb_TaskID, BDB_RESPONDENT_PROCESS_TIMEOUT, IDENTIFY_QUERY_RSP_TIMEOUT );
        ; Setup parameters for call to function osal_start_timerEx
        MOV       DPTR,#__Constant_1388
        LCALL     ?PUSH_XSTACK8_X_FOUR
          CFI CFA_XSP16 add(XSP16, 26)
        MOV       R2,#0x0
        MOV       R3,#0x40
        MOV       DPTR,#bdb_TaskID
        MOVX      A,@DPTR
        MOV       R1,A
        LCALL     `??osal_start_timerEx::?relay`; Banked call to: osal_start_timerEx
        MOV       A,#0x4
        LCALL     ?DEALLOC_XSTACK8
          CFI CFA_XSP16 add(XSP16, 22)
//  911   }
//  912   
//  913   return status;
??bdb_SendIdentifyQueryWithAddr_0:
        MOV       R1,?V0
        LJMP      ?Subroutine1 & 0xFFFF
//  914 }
          CFI EndBlock cfiBlock192
//  915 
//  916 /*********************************************************************
//  917  * @fn      bdb_ZclIdentifyQueryCmdInd
//  918  *
//  919  * @brief   Callback from the ZCL General Cluster Library when
//  920  *          it received an Identity Query Response Command for this 
//  921  *          application.
//  922  *
//  923  * @param   srcAddr - source address and endpoint of the response message
//  924  * @param   identifyTime - the number of seconds to identify yourself
//  925  *
//  926  * @return  none
//  927  */

        RSEG BANKED_CODE:HUGECODE:NOROOT(0)
//  928 void bdb_ZclIdentifyQueryCmdInd( zclIdentifyQueryRsp_t *pCmd )
bdb_ZclIdentifyQueryCmdInd:
          CFI Block cfiBlock193 Using cfiCommon0
          CFI Function bdb_ZclIdentifyQueryCmdInd
        CODE
//  929 {
        FUNCALL bdb_ZclIdentifyQueryCmdInd, osal_stop_timerEx
        LOCFRAME ISTACK, 0, STACK
        LOCFRAME PSTACK, 0, STACK
        LOCFRAME XSTACK, 10, STACK
        LOCFRAME IOVERLAY, 0, STATIC
        LOCFRAME DOVERLAY, 0, STATIC
        ARGFRAME ISTACK, 0, STACK
        ARGFRAME PSTACK, 0, STACK
        ARGFRAME XSTACK, 10, STACK
        ARGFRAME IOVERLAY, 0, STATIC
        ARGFRAME DOVERLAY, 0, STATIC
        FUNCALL bdb_ZclIdentifyQueryCmdInd, bdb_AddRespondentNode
        LOCFRAME ISTACK, 0, STACK
        LOCFRAME PSTACK, 0, STACK
        LOCFRAME XSTACK, 10, STACK
        LOCFRAME IOVERLAY, 0, STATIC
        LOCFRAME DOVERLAY, 0, STATIC
        ARGFRAME ISTACK, 0, STACK
        ARGFRAME PSTACK, 0, STACK
        ARGFRAME XSTACK, 10, STACK
        ARGFRAME IOVERLAY, 0, STATIC
        ARGFRAME DOVERLAY, 0, STATIC
        FUNCALL bdb_ZclIdentifyQueryCmdInd, osal_set_event
        LOCFRAME ISTACK, 0, STACK
        LOCFRAME PSTACK, 0, STACK
        LOCFRAME XSTACK, 10, STACK
        LOCFRAME IOVERLAY, 0, STATIC
        LOCFRAME DOVERLAY, 0, STATIC
        ARGFRAME ISTACK, 0, STACK
        ARGFRAME PSTACK, 0, STACK
        ARGFRAME XSTACK, 10, STACK
        ARGFRAME IOVERLAY, 0, STATIC
        ARGFRAME DOVERLAY, 0, STATIC
        REQUIRE ?V0
        REQUIRE ?V1
        MOV       A,#-0xa
        LCALL     ?BANKED_ENTER_XDATA
          CFI DPH0 load(1, XDATA, add(CFA_XSP16, literal(-1)))
          CFI DPL0 load(1, XDATA, add(CFA_XSP16, literal(-2)))
          CFI ?BRET_EXT load(1, XDATA, add(CFA_XSP16, literal(-3)))
          CFI ?RET_HIGH load(1, XDATA, add(CFA_XSP16, literal(-4)))
          CFI ?RET_LOW load(1, XDATA, add(CFA_XSP16, literal(-5)))
          CFI R7 load(1, XDATA, add(CFA_XSP16, literal(-6)))
          CFI V1 load(1, XDATA, add(CFA_XSP16, literal(-7)))
          CFI V0 load(1, XDATA, add(CFA_XSP16, literal(-8)))
          CFI VB load(1, XDATA, add(CFA_XSP16, literal(-9)))
          CFI R6 load(1, XDATA, add(CFA_XSP16, literal(-10)))
          CFI CFA_SP SP+0
          CFI CFA_XSP16 add(XSP16, 10)
        ; Saved register size: 10
        ; Auto size: 0
        MOV       A,R2
        MOV       R6,A
        MOV       A,R3
        MOV       R7,A
//  930   bdbFindingBindingRespondent_t *pCurr;
//  931   
//  932   // Stop the timer before refresh
//  933   osal_stop_timerEx( bdb_TaskID, BDB_RESPONDENT_PROCESS_TIMEOUT );
        ; Setup parameters for call to function osal_stop_timerEx
        MOV       R2,#0x0
        MOV       R3,#0x40
        MOV       DPTR,#bdb_TaskID
        MOVX      A,@DPTR
        MOV       R1,A
        LCALL     `??osal_stop_timerEx::?relay`; Banked call to: osal_stop_timerEx
//  934   
//  935   // add new node to the list
//  936   pCurr = bdb_AddRespondentNode( &pRespondentHead, pCmd );
        ; Setup parameters for call to function bdb_AddRespondentNode
        MOV       A,R6
        MOV       R4,A
        MOV       A,R7
        MOV       R5,A
        MOV       R2,#pRespondentHead & 0xff
        MOV       R3,#(pRespondentHead >> 8) & 0xff
        LCALL     `??bdb_AddRespondentNode::?relay`; Banked call to: bdb_AddRespondentNode
//  937   
//  938   if(pCurr != NULL)
        MOV       A,R2
        ORL       A,R3
        JZ        ??bdb_ZclIdentifyQueryCmdInd_0
//  939   {
//  940     pCurr->data.addrMode = pCmd->srcAddr->addrMode;
        MOV       DPL,R6
        MOV       DPH,R7
        LCALL     ?Subroutine21 & 0xFFFF
??CrossCallReturnLabel_24:
        LCALL     ?Subroutine16 & 0xFFFF
??CrossCallReturnLabel_19:
        MOVX      @DPTR,A
//  941     pCurr->data.addr.shortAddr = pCmd->srcAddr->addr.shortAddr;
        MOV       DPL,R0
        MOV       DPH,R1
        MOVX      A,@DPTR
        MOV       R4,A
        INC       DPTR
        MOVX      A,@DPTR
        MOV       R5,A
        MOV       DPL,R2
        MOV       DPH,R3
        MOV       A,R4
        MOVX      @DPTR,A
        INC       DPTR
        MOV       A,R5
        MOVX      @DPTR,A
//  942     pCurr->data.endPoint = pCmd->srcAddr->endPoint;
        MOV       DPL,R0
        MOV       DPH,R1
        INC       DPTR
        LCALL     ?Subroutine16 & 0xFFFF
??CrossCallReturnLabel_20:
        INC       DPTR
        MOVX      @DPTR,A
//  943     pCurr->data.panId = pCmd->srcAddr->panId;
        MOV       DPL,R6
        MOV       DPH,R7
        LCALL     ??Subroutine35_0 & 0xFFFF
??CrossCallReturnLabel_36:
        ADD       A,#0xa
        MOV       DPL,A
        CLR       A
        ADDC      A,R0
        MOV       DPH,A
        LCALL     ??Subroutine34_0 & 0xFFFF
??CrossCallReturnLabel_33:
        MOV       DPL,R2
        MOV       DPH,R3
        INC       DPTR
        INC       DPTR
        INC       DPTR
        INC       DPTR
        INC       DPTR
        INC       DPTR
        INC       DPTR
        INC       DPTR
        INC       DPTR
        INC       DPTR
        LCALL     ??Subroutine41_0 & 0xFFFF
//  944     pCurr->attempts = FINDING_AND_BINDING_NEW_RESPONDENT;
??CrossCallReturnLabel_43:
        LCALL     ?Subroutine26 & 0xFFFF
??CrossCallReturnLabel_30:
        CLR       A
        MOVX      @DPTR,A
//  945     pCurr->SimpleDescriptor = NULL;
        MOV       A,R2
        ADD       A,#0xd
        MOV       DPL,A
        CLR       A
        ADDC      A,R3
        MOV       DPH,A
        CLR       A
        MOVX      @DPTR,A
        INC       DPTR
        MOVX      @DPTR,A
//  946   }
//  947   
//  948   //Process the identify query rsp
//  949   osal_set_event(bdb_TaskID, BDB_RESPONDENT_PROCESS_TIMEOUT);
??bdb_ZclIdentifyQueryCmdInd_0:
        ; Setup parameters for call to function osal_set_event
        MOV       R2,#0x0
        MOV       R3,#0x40
        MOV       DPTR,#bdb_TaskID
        MOVX      A,@DPTR
        MOV       R1,A
        LCALL     `??osal_set_event::?relay`; Banked call to: osal_set_event
//  950 }
        LJMP      ??Subroutine37_0 & 0xFFFF
          CFI EndBlock cfiBlock193

        RSEG BANKED_CODE:HUGECODE:NOROOT(0)
?Subroutine21:
          CFI Block cfiCond194 Using cfiCommon0
          CFI Function bdb_ProcessSimpleDesc
          CFI Conditional ??CrossCallReturnLabel_23
          CFI R6 load(1, XDATA, add(CFA_XSP16, literal(-9)))
          CFI VB load(1, XDATA, add(CFA_XSP16, literal(-8)))
          CFI V0 load(1, XDATA, add(CFA_XSP16, literal(-7)))
          CFI R7 load(1, XDATA, add(CFA_XSP16, literal(-6)))
          CFI ?RET_LOW load(1, XDATA, add(CFA_XSP16, literal(-5)))
          CFI ?RET_HIGH load(1, XDATA, add(CFA_XSP16, literal(-4)))
          CFI ?BRET_EXT load(1, XDATA, add(CFA_XSP16, literal(-3)))
          CFI DPL0 load(1, XDATA, add(CFA_XSP16, literal(-2)))
          CFI DPH0 load(1, XDATA, add(CFA_XSP16, literal(-1)))
          CFI CFA_SP SP+-2
          CFI CFA_XSP16 add(XSP16, 28)
          CFI Block cfiCond195 Using cfiCommon0
          CFI (cfiCond195) Function bdb_ZclIdentifyQueryCmdInd
          CFI (cfiCond195) Conditional ??CrossCallReturnLabel_24
          CFI (cfiCond195) R6 load(1, XDATA, add(CFA_XSP16, literal(-10)))
          CFI (cfiCond195) VB load(1, XDATA, add(CFA_XSP16, literal(-9)))
          CFI (cfiCond195) V0 load(1, XDATA, add(CFA_XSP16, literal(-8)))
          CFI (cfiCond195) V1 load(1, XDATA, add(CFA_XSP16, literal(-7)))
          CFI (cfiCond195) R7 load(1, XDATA, add(CFA_XSP16, literal(-6)))
          CFI (cfiCond195) ?RET_LOW load(1, XDATA, add(CFA_XSP16, literal(-5)))
          CFI (cfiCond195) ?RET_HIGH load(1, XDATA, add(CFA_XSP16, literal(-4)))
          CFI (cfiCond195) ?BRET_EXT load(1, XDATA, add(CFA_XSP16, literal(-3)))
          CFI (cfiCond195) DPL0 load(1, XDATA, add(CFA_XSP16, literal(-2)))
          CFI (cfiCond195) DPH0 load(1, XDATA, add(CFA_XSP16, literal(-1)))
          CFI (cfiCond195) CFA_SP SP+-2
          CFI (cfiCond195) CFA_XSP16 add(XSP16, 10)
          CFI Block cfiPicker196 Using cfiCommon1
          CFI (cfiPicker196) NoFunction
          CFI (cfiPicker196) Picker
        LCALL     ?Subroutine32 & 0xFFFF
??CrossCallReturnLabel_114:
        MOV       R1,A
        MOV       DPL,R0
        MOV       DPH,R1
        RET
          CFI EndBlock cfiCond194
          CFI EndBlock cfiCond195
          CFI EndBlock cfiPicker196

        RSEG BANKED_CODE:HUGECODE:NOROOT(0)
?Subroutine32:
          CFI Block cfiCond197 Using cfiCommon0
          CFI Function bdb_ProcessIEEEAddrRsp
          CFI Conditional ??CrossCallReturnLabel_115, ??CrossCallReturnLabel_34
          CFI R6 load(1, XDATA, add(CFA_XSP16, literal(-10)))
          CFI VB load(1, XDATA, add(CFA_XSP16, literal(-9)))
          CFI V0 load(1, XDATA, add(CFA_XSP16, literal(-8)))
          CFI V1 load(1, XDATA, add(CFA_XSP16, literal(-7)))
          CFI R7 load(1, XDATA, add(CFA_XSP16, literal(-6)))
          CFI ?RET_LOW load(1, XDATA, add(CFA_XSP16, literal(-5)))
          CFI ?RET_HIGH load(1, XDATA, add(CFA_XSP16, literal(-4)))
          CFI ?BRET_EXT load(1, XDATA, add(CFA_XSP16, literal(-3)))
          CFI DPL0 load(1, XDATA, add(CFA_XSP16, literal(-2)))
          CFI DPH0 load(1, XDATA, add(CFA_XSP16, literal(-1)))
          CFI CFA_SP SP+-4
          CFI CFA_XSP16 add(XSP16, 25)
          CFI Block cfiCond198 Using cfiCommon0
          CFI (cfiCond198) Function bdb_zclFindingBindingEpType
          CFI (cfiCond198) Conditional ??CrossCallReturnLabel_115, ??CrossCallReturnLabel_35
          CFI (cfiCond198) R6 load(1, XDATA, add(CFA_XSP16, literal(-14)))
          CFI (cfiCond198) VB load(1, XDATA, add(CFA_XSP16, literal(-13)))
          CFI (cfiCond198) V0 load(1, XDATA, add(CFA_XSP16, literal(-12)))
          CFI (cfiCond198) V1 load(1, XDATA, add(CFA_XSP16, literal(-11)))
          CFI (cfiCond198) V2 load(1, XDATA, add(CFA_XSP16, literal(-10)))
          CFI (cfiCond198) V3 load(1, XDATA, add(CFA_XSP16, literal(-9)))
          CFI (cfiCond198) V4 load(1, XDATA, add(CFA_XSP16, literal(-8)))
          CFI (cfiCond198) V5 load(1, XDATA, add(CFA_XSP16, literal(-7)))
          CFI (cfiCond198) R7 load(1, XDATA, add(CFA_XSP16, literal(-6)))
          CFI (cfiCond198) ?RET_LOW load(1, XDATA, add(CFA_XSP16, literal(-5)))
          CFI (cfiCond198) ?RET_HIGH load(1, XDATA, add(CFA_XSP16, literal(-4)))
          CFI (cfiCond198) ?BRET_EXT load(1, XDATA, add(CFA_XSP16, literal(-3)))
          CFI (cfiCond198) DPL0 load(1, XDATA, add(CFA_XSP16, literal(-2)))
          CFI (cfiCond198) DPH0 load(1, XDATA, add(CFA_XSP16, literal(-1)))
          CFI (cfiCond198) CFA_SP SP+-4
          CFI (cfiCond198) CFA_XSP16 add(XSP16, 14)
          CFI Block cfiCond199 Using cfiCommon0
          CFI (cfiCond199) Function bdb_setEpDescListToActiveEndpoint
          CFI (cfiCond199) Conditional ??CrossCallReturnLabel_115, ??CrossCallReturnLabel_32
          CFI (cfiCond199) DPL0 Frame(CFA_SP, 4)
          CFI (cfiCond199) DPH0 Frame(CFA_SP, 5)
          CFI (cfiCond199) CFA_SP SP+-9
          CFI Block cfiCond200 Using cfiCommon0
          CFI (cfiCond200) Function bdb_ZclIdentifyQueryCmdInd
          CFI (cfiCond200) Conditional ??CrossCallReturnLabel_115, ??CrossCallReturnLabel_33
          CFI (cfiCond200) R6 load(1, XDATA, add(CFA_XSP16, literal(-10)))
          CFI (cfiCond200) VB load(1, XDATA, add(CFA_XSP16, literal(-9)))
          CFI (cfiCond200) V0 load(1, XDATA, add(CFA_XSP16, literal(-8)))
          CFI (cfiCond200) V1 load(1, XDATA, add(CFA_XSP16, literal(-7)))
          CFI (cfiCond200) R7 load(1, XDATA, add(CFA_XSP16, literal(-6)))
          CFI (cfiCond200) ?RET_LOW load(1, XDATA, add(CFA_XSP16, literal(-5)))
          CFI (cfiCond200) ?RET_HIGH load(1, XDATA, add(CFA_XSP16, literal(-4)))
          CFI (cfiCond200) ?BRET_EXT load(1, XDATA, add(CFA_XSP16, literal(-3)))
          CFI (cfiCond200) DPL0 load(1, XDATA, add(CFA_XSP16, literal(-2)))
          CFI (cfiCond200) DPH0 load(1, XDATA, add(CFA_XSP16, literal(-1)))
          CFI (cfiCond200) CFA_SP SP+-4
          CFI (cfiCond200) CFA_XSP16 add(XSP16, 10)
          CFI Block cfiCond201 Using cfiCommon0
          CFI (cfiCond201) Function bdb_ProcessIEEEAddrRsp
          CFI (cfiCond201) Conditional ??CrossCallReturnLabel_116, ??CrossCallReturnLabel_40
          CFI (cfiCond201) R6 load(1, XDATA, add(CFA_XSP16, literal(-10)))
          CFI (cfiCond201) VB load(1, XDATA, add(CFA_XSP16, literal(-9)))
          CFI (cfiCond201) V0 load(1, XDATA, add(CFA_XSP16, literal(-8)))
          CFI (cfiCond201) V1 load(1, XDATA, add(CFA_XSP16, literal(-7)))
          CFI (cfiCond201) R7 load(1, XDATA, add(CFA_XSP16, literal(-6)))
          CFI (cfiCond201) ?RET_LOW load(1, XDATA, add(CFA_XSP16, literal(-5)))
          CFI (cfiCond201) ?RET_HIGH load(1, XDATA, add(CFA_XSP16, literal(-4)))
          CFI (cfiCond201) ?BRET_EXT load(1, XDATA, add(CFA_XSP16, literal(-3)))
          CFI (cfiCond201) DPL0 load(1, XDATA, add(CFA_XSP16, literal(-2)))
          CFI (cfiCond201) DPH0 load(1, XDATA, add(CFA_XSP16, literal(-1)))
          CFI (cfiCond201) CFA_SP SP+-4
          CFI (cfiCond201) CFA_XSP16 add(XSP16, 25)
          CFI Block cfiCond202 Using cfiCommon0
          CFI (cfiCond202) Function bdb_ProcessSimpleDesc
          CFI (cfiCond202) Conditional ??CrossCallReturnLabel_116, ??CrossCallReturnLabel_41
          CFI (cfiCond202) R6 load(1, XDATA, add(CFA_XSP16, literal(-9)))
          CFI (cfiCond202) VB load(1, XDATA, add(CFA_XSP16, literal(-8)))
          CFI (cfiCond202) V0 load(1, XDATA, add(CFA_XSP16, literal(-7)))
          CFI (cfiCond202) R7 load(1, XDATA, add(CFA_XSP16, literal(-6)))
          CFI (cfiCond202) ?RET_LOW load(1, XDATA, add(CFA_XSP16, literal(-5)))
          CFI (cfiCond202) ?RET_HIGH load(1, XDATA, add(CFA_XSP16, literal(-4)))
          CFI (cfiCond202) ?BRET_EXT load(1, XDATA, add(CFA_XSP16, literal(-3)))
          CFI (cfiCond202) DPL0 load(1, XDATA, add(CFA_XSP16, literal(-2)))
          CFI (cfiCond202) DPH0 load(1, XDATA, add(CFA_XSP16, literal(-1)))
          CFI (cfiCond202) CFA_SP SP+-4
          CFI (cfiCond202) CFA_XSP16 add(XSP16, 28)
          CFI Block cfiCond203 Using cfiCommon0
          CFI (cfiCond203) Function bdb_ZclIdentifyQueryCmdInd
          CFI (cfiCond203) Conditional ??CrossCallReturnLabel_116, ??CrossCallReturnLabel_36
          CFI (cfiCond203) R6 load(1, XDATA, add(CFA_XSP16, literal(-10)))
          CFI (cfiCond203) VB load(1, XDATA, add(CFA_XSP16, literal(-9)))
          CFI (cfiCond203) V0 load(1, XDATA, add(CFA_XSP16, literal(-8)))
          CFI (cfiCond203) V1 load(1, XDATA, add(CFA_XSP16, literal(-7)))
          CFI (cfiCond203) R7 load(1, XDATA, add(CFA_XSP16, literal(-6)))
          CFI (cfiCond203) ?RET_LOW load(1, XDATA, add(CFA_XSP16, literal(-5)))
          CFI (cfiCond203) ?RET_HIGH load(1, XDATA, add(CFA_XSP16, literal(-4)))
          CFI (cfiCond203) ?BRET_EXT load(1, XDATA, add(CFA_XSP16, literal(-3)))
          CFI (cfiCond203) DPL0 load(1, XDATA, add(CFA_XSP16, literal(-2)))
          CFI (cfiCond203) DPH0 load(1, XDATA, add(CFA_XSP16, literal(-1)))
          CFI (cfiCond203) CFA_SP SP+-4
          CFI (cfiCond203) CFA_XSP16 add(XSP16, 10)
          CFI Block cfiCond204 Using cfiCommon0
          CFI (cfiCond204) Function bdb_ProcessRespondentList
          CFI (cfiCond204) Conditional ??CrossCallReturnLabel_116, ??CrossCallReturnLabel_37
          CFI (cfiCond204) R6 load(1, XDATA, add(CFA_XSP16, literal(-9)))
          CFI (cfiCond204) VB load(1, XDATA, add(CFA_XSP16, literal(-8)))
          CFI (cfiCond204) V0 load(1, XDATA, add(CFA_XSP16, literal(-7)))
          CFI (cfiCond204) R7 load(1, XDATA, add(CFA_XSP16, literal(-6)))
          CFI (cfiCond204) ?RET_LOW load(1, XDATA, add(CFA_XSP16, literal(-5)))
          CFI (cfiCond204) ?RET_HIGH load(1, XDATA, add(CFA_XSP16, literal(-4)))
          CFI (cfiCond204) ?BRET_EXT load(1, XDATA, add(CFA_XSP16, literal(-3)))
          CFI (cfiCond204) DPL0 load(1, XDATA, add(CFA_XSP16, literal(-2)))
          CFI (cfiCond204) DPH0 load(1, XDATA, add(CFA_XSP16, literal(-1)))
          CFI (cfiCond204) CFA_SP SP+-4
          CFI (cfiCond204) CFA_XSP16 add(XSP16, 18)
          CFI Block cfiCond205 Using cfiCommon0
          CFI (cfiCond205) Function bdb_ProcessRespondentList
          CFI (cfiCond205) Conditional ??CrossCallReturnLabel_116, ??CrossCallReturnLabel_38
          CFI (cfiCond205) R6 load(1, XDATA, add(CFA_XSP16, literal(-9)))
          CFI (cfiCond205) VB load(1, XDATA, add(CFA_XSP16, literal(-8)))
          CFI (cfiCond205) V0 load(1, XDATA, add(CFA_XSP16, literal(-7)))
          CFI (cfiCond205) R7 load(1, XDATA, add(CFA_XSP16, literal(-6)))
          CFI (cfiCond205) ?RET_LOW load(1, XDATA, add(CFA_XSP16, literal(-5)))
          CFI (cfiCond205) ?RET_HIGH load(1, XDATA, add(CFA_XSP16, literal(-4)))
          CFI (cfiCond205) ?BRET_EXT load(1, XDATA, add(CFA_XSP16, literal(-3)))
          CFI (cfiCond205) DPL0 load(1, XDATA, add(CFA_XSP16, literal(-2)))
          CFI (cfiCond205) DPH0 load(1, XDATA, add(CFA_XSP16, literal(-1)))
          CFI (cfiCond205) CFA_SP SP+-4
          CFI (cfiCond205) CFA_XSP16 add(XSP16, 19)
          CFI Block cfiCond206 Using cfiCommon0
          CFI (cfiCond206) Function bdb_ProcessRespondentList
          CFI (cfiCond206) Conditional ??CrossCallReturnLabel_116, ??CrossCallReturnLabel_39
          CFI (cfiCond206) R6 load(1, XDATA, add(CFA_XSP16, literal(-9)))
          CFI (cfiCond206) VB load(1, XDATA, add(CFA_XSP16, literal(-8)))
          CFI (cfiCond206) V0 load(1, XDATA, add(CFA_XSP16, literal(-7)))
          CFI (cfiCond206) R7 load(1, XDATA, add(CFA_XSP16, literal(-6)))
          CFI (cfiCond206) ?RET_LOW load(1, XDATA, add(CFA_XSP16, literal(-5)))
          CFI (cfiCond206) ?RET_HIGH load(1, XDATA, add(CFA_XSP16, literal(-4)))
          CFI (cfiCond206) ?BRET_EXT load(1, XDATA, add(CFA_XSP16, literal(-3)))
          CFI (cfiCond206) DPL0 load(1, XDATA, add(CFA_XSP16, literal(-2)))
          CFI (cfiCond206) DPH0 load(1, XDATA, add(CFA_XSP16, literal(-1)))
          CFI (cfiCond206) CFA_SP SP+-4
          CFI (cfiCond206) CFA_XSP16 add(XSP16, 18)
          CFI Block cfiCond207 Using cfiCommon0
          CFI (cfiCond207) Function bdb_checkMatchingEndpoints
          CFI (cfiCond207) Conditional ??CrossCallReturnLabel_118, ??CrossCallReturnLabel_96, ??CrossCallReturnLabel_8
          CFI (cfiCond207) R6 load(1, XDATA, add(CFA_XSP16, literal(-16)))
          CFI (cfiCond207) VB load(1, XDATA, add(CFA_XSP16, literal(-15)))
          CFI (cfiCond207) V0 load(1, XDATA, add(CFA_XSP16, literal(-14)))
          CFI (cfiCond207) V1 load(1, XDATA, add(CFA_XSP16, literal(-13)))
          CFI (cfiCond207) V2 load(1, XDATA, add(CFA_XSP16, literal(-12)))
          CFI (cfiCond207) V3 load(1, XDATA, add(CFA_XSP16, literal(-11)))
          CFI (cfiCond207) V4 load(1, XDATA, add(CFA_XSP16, literal(-10)))
          CFI (cfiCond207) V5 load(1, XDATA, add(CFA_XSP16, literal(-9)))
          CFI (cfiCond207) V6 load(1, XDATA, add(CFA_XSP16, literal(-8)))
          CFI (cfiCond207) V7 load(1, XDATA, add(CFA_XSP16, literal(-7)))
          CFI (cfiCond207) R7 load(1, XDATA, add(CFA_XSP16, literal(-6)))
          CFI (cfiCond207) ?RET_LOW load(1, XDATA, add(CFA_XSP16, literal(-5)))
          CFI (cfiCond207) ?RET_HIGH load(1, XDATA, add(CFA_XSP16, literal(-4)))
          CFI (cfiCond207) ?BRET_EXT load(1, XDATA, add(CFA_XSP16, literal(-3)))
          CFI (cfiCond207) DPL0 load(1, XDATA, add(CFA_XSP16, literal(-2)))
          CFI (cfiCond207) DPH0 load(1, XDATA, add(CFA_XSP16, literal(-1)))
          CFI (cfiCond207) CFA_SP SP+-6
          CFI (cfiCond207) CFA_XSP16 add(XSP16, 29)
          CFI Block cfiCond208 Using cfiCommon0
          CFI (cfiCond208) Function bdb_checkMatchingEndpoints
          CFI (cfiCond208) Conditional ??CrossCallReturnLabel_118, ??CrossCallReturnLabel_96, ??CrossCallReturnLabel_9
          CFI (cfiCond208) R6 load(1, XDATA, add(CFA_XSP16, literal(-16)))
          CFI (cfiCond208) VB load(1, XDATA, add(CFA_XSP16, literal(-15)))
          CFI (cfiCond208) V0 load(1, XDATA, add(CFA_XSP16, literal(-14)))
          CFI (cfiCond208) V1 load(1, XDATA, add(CFA_XSP16, literal(-13)))
          CFI (cfiCond208) V2 load(1, XDATA, add(CFA_XSP16, literal(-12)))
          CFI (cfiCond208) V3 load(1, XDATA, add(CFA_XSP16, literal(-11)))
          CFI (cfiCond208) V4 load(1, XDATA, add(CFA_XSP16, literal(-10)))
          CFI (cfiCond208) V5 load(1, XDATA, add(CFA_XSP16, literal(-9)))
          CFI (cfiCond208) V6 load(1, XDATA, add(CFA_XSP16, literal(-8)))
          CFI (cfiCond208) V7 load(1, XDATA, add(CFA_XSP16, literal(-7)))
          CFI (cfiCond208) R7 load(1, XDATA, add(CFA_XSP16, literal(-6)))
          CFI (cfiCond208) ?RET_LOW load(1, XDATA, add(CFA_XSP16, literal(-5)))
          CFI (cfiCond208) ?RET_HIGH load(1, XDATA, add(CFA_XSP16, literal(-4)))
          CFI (cfiCond208) ?BRET_EXT load(1, XDATA, add(CFA_XSP16, literal(-3)))
          CFI (cfiCond208) DPL0 load(1, XDATA, add(CFA_XSP16, literal(-2)))
          CFI (cfiCond208) DPH0 load(1, XDATA, add(CFA_XSP16, literal(-1)))
          CFI (cfiCond208) CFA_SP SP+-6
          CFI (cfiCond208) CFA_XSP16 add(XSP16, 29)
          CFI Block cfiCond209 Using cfiCommon0
          CFI (cfiCond209) Function bdb_ProcessRespondentList
          CFI (cfiCond209) Conditional ??CrossCallReturnLabel_118, ??CrossCallReturnLabel_97, ??CrossCallReturnLabel_92
          CFI (cfiCond209) R6 load(1, XDATA, add(CFA_XSP16, literal(-9)))
          CFI (cfiCond209) VB load(1, XDATA, add(CFA_XSP16, literal(-8)))
          CFI (cfiCond209) V0 load(1, XDATA, add(CFA_XSP16, literal(-7)))
          CFI (cfiCond209) R7 load(1, XDATA, add(CFA_XSP16, literal(-6)))
          CFI (cfiCond209) ?RET_LOW load(1, XDATA, add(CFA_XSP16, literal(-5)))
          CFI (cfiCond209) ?RET_HIGH load(1, XDATA, add(CFA_XSP16, literal(-4)))
          CFI (cfiCond209) ?BRET_EXT load(1, XDATA, add(CFA_XSP16, literal(-3)))
          CFI (cfiCond209) DPL0 load(1, XDATA, add(CFA_XSP16, literal(-2)))
          CFI (cfiCond209) DPH0 load(1, XDATA, add(CFA_XSP16, literal(-1)))
          CFI (cfiCond209) CFA_SP SP+-6
          CFI (cfiCond209) CFA_XSP16 add(XSP16, 18)
          CFI Block cfiCond210 Using cfiCommon0
          CFI (cfiCond210) Function bdb_ProcessRespondentList
          CFI (cfiCond210) Conditional ??CrossCallReturnLabel_118, ??CrossCallReturnLabel_97, ??CrossCallReturnLabel_93
          CFI (cfiCond210) R6 load(1, XDATA, add(CFA_XSP16, literal(-9)))
          CFI (cfiCond210) VB load(1, XDATA, add(CFA_XSP16, literal(-8)))
          CFI (cfiCond210) V0 load(1, XDATA, add(CFA_XSP16, literal(-7)))
          CFI (cfiCond210) R7 load(1, XDATA, add(CFA_XSP16, literal(-6)))
          CFI (cfiCond210) ?RET_LOW load(1, XDATA, add(CFA_XSP16, literal(-5)))
          CFI (cfiCond210) ?RET_HIGH load(1, XDATA, add(CFA_XSP16, literal(-4)))
          CFI (cfiCond210) ?BRET_EXT load(1, XDATA, add(CFA_XSP16, literal(-3)))
          CFI (cfiCond210) DPL0 load(1, XDATA, add(CFA_XSP16, literal(-2)))
          CFI (cfiCond210) DPH0 load(1, XDATA, add(CFA_XSP16, literal(-1)))
          CFI (cfiCond210) CFA_SP SP+-6
          CFI (cfiCond210) CFA_XSP16 add(XSP16, 18)
          CFI Block cfiCond211 Using cfiCommon0
          CFI (cfiCond211) Function bdb_ProcessSimpleDesc
          CFI (cfiCond211) Conditional ??CrossCallReturnLabel_118, ??CrossCallReturnLabel_97, ??CrossCallReturnLabel_94
          CFI (cfiCond211) R6 load(1, XDATA, add(CFA_XSP16, literal(-9)))
          CFI (cfiCond211) VB load(1, XDATA, add(CFA_XSP16, literal(-8)))
          CFI (cfiCond211) V0 load(1, XDATA, add(CFA_XSP16, literal(-7)))
          CFI (cfiCond211) R7 load(1, XDATA, add(CFA_XSP16, literal(-6)))
          CFI (cfiCond211) ?RET_LOW load(1, XDATA, add(CFA_XSP16, literal(-5)))
          CFI (cfiCond211) ?RET_HIGH load(1, XDATA, add(CFA_XSP16, literal(-4)))
          CFI (cfiCond211) ?BRET_EXT load(1, XDATA, add(CFA_XSP16, literal(-3)))
          CFI (cfiCond211) DPL0 load(1, XDATA, add(CFA_XSP16, literal(-2)))
          CFI (cfiCond211) DPH0 load(1, XDATA, add(CFA_XSP16, literal(-1)))
          CFI (cfiCond211) CFA_SP SP+-6
          CFI (cfiCond211) CFA_XSP16 add(XSP16, 28)
          CFI Block cfiCond212 Using cfiCommon0
          CFI (cfiCond212) Function bdb_ProcessRespondentList
          CFI (cfiCond212) Conditional ??CrossCallReturnLabel_118, ??CrossCallReturnLabel_97, ??CrossCallReturnLabel_95
          CFI (cfiCond212) R6 load(1, XDATA, add(CFA_XSP16, literal(-9)))
          CFI (cfiCond212) VB load(1, XDATA, add(CFA_XSP16, literal(-8)))
          CFI (cfiCond212) V0 load(1, XDATA, add(CFA_XSP16, literal(-7)))
          CFI (cfiCond212) R7 load(1, XDATA, add(CFA_XSP16, literal(-6)))
          CFI (cfiCond212) ?RET_LOW load(1, XDATA, add(CFA_XSP16, literal(-5)))
          CFI (cfiCond212) ?RET_HIGH load(1, XDATA, add(CFA_XSP16, literal(-4)))
          CFI (cfiCond212) ?BRET_EXT load(1, XDATA, add(CFA_XSP16, literal(-3)))
          CFI (cfiCond212) DPL0 load(1, XDATA, add(CFA_XSP16, literal(-2)))
          CFI (cfiCond212) DPH0 load(1, XDATA, add(CFA_XSP16, literal(-1)))
          CFI (cfiCond212) CFA_SP SP+-6
          CFI (cfiCond212) CFA_XSP16 add(XSP16, 18)
          CFI Block cfiCond213 Using cfiCommon0
          CFI (cfiCond213) Function bdb_ProcessSimpleDesc
          CFI (cfiCond213) Conditional ??CrossCallReturnLabel_114, ??CrossCallReturnLabel_23
          CFI (cfiCond213) R6 load(1, XDATA, add(CFA_XSP16, literal(-9)))
          CFI (cfiCond213) VB load(1, XDATA, add(CFA_XSP16, literal(-8)))
          CFI (cfiCond213) V0 load(1, XDATA, add(CFA_XSP16, literal(-7)))
          CFI (cfiCond213) R7 load(1, XDATA, add(CFA_XSP16, literal(-6)))
          CFI (cfiCond213) ?RET_LOW load(1, XDATA, add(CFA_XSP16, literal(-5)))
          CFI (cfiCond213) ?RET_HIGH load(1, XDATA, add(CFA_XSP16, literal(-4)))
          CFI (cfiCond213) ?BRET_EXT load(1, XDATA, add(CFA_XSP16, literal(-3)))
          CFI (cfiCond213) DPL0 load(1, XDATA, add(CFA_XSP16, literal(-2)))
          CFI (cfiCond213) DPH0 load(1, XDATA, add(CFA_XSP16, literal(-1)))
          CFI (cfiCond213) CFA_SP SP+-4
          CFI (cfiCond213) CFA_XSP16 add(XSP16, 28)
          CFI Block cfiCond214 Using cfiCommon0
          CFI (cfiCond214) Function bdb_ZclIdentifyQueryCmdInd
          CFI (cfiCond214) Conditional ??CrossCallReturnLabel_114, ??CrossCallReturnLabel_24
          CFI (cfiCond214) R6 load(1, XDATA, add(CFA_XSP16, literal(-10)))
          CFI (cfiCond214) VB load(1, XDATA, add(CFA_XSP16, literal(-9)))
          CFI (cfiCond214) V0 load(1, XDATA, add(CFA_XSP16, literal(-8)))
          CFI (cfiCond214) V1 load(1, XDATA, add(CFA_XSP16, literal(-7)))
          CFI (cfiCond214) R7 load(1, XDATA, add(CFA_XSP16, literal(-6)))
          CFI (cfiCond214) ?RET_LOW load(1, XDATA, add(CFA_XSP16, literal(-5)))
          CFI (cfiCond214) ?RET_HIGH load(1, XDATA, add(CFA_XSP16, literal(-4)))
          CFI (cfiCond214) ?BRET_EXT load(1, XDATA, add(CFA_XSP16, literal(-3)))
          CFI (cfiCond214) DPL0 load(1, XDATA, add(CFA_XSP16, literal(-2)))
          CFI (cfiCond214) DPH0 load(1, XDATA, add(CFA_XSP16, literal(-1)))
          CFI (cfiCond214) CFA_SP SP+-4
          CFI (cfiCond214) CFA_XSP16 add(XSP16, 10)
          CFI Block cfiCond215 Using cfiCommon0
          CFI (cfiCond215) Function bdb_setEpDescListToActiveEndpoint
          CFI (cfiCond215) Conditional ??CrossCallReturnLabel_117, ??CrossCallReturnLabel_90, ??CrossCallReturnLabel_3
          CFI (cfiCond215) DPL0 Frame(CFA_SP, 4)
          CFI (cfiCond215) DPH0 Frame(CFA_SP, 5)
          CFI (cfiCond215) CFA_SP SP+-11
          CFI Block cfiCond216 Using cfiCommon0
          CFI (cfiCond216) Function bdb_setEpDescListToActiveEndpoint
          CFI (cfiCond216) Conditional ??CrossCallReturnLabel_117, ??CrossCallReturnLabel_90, ??CrossCallReturnLabel_4
          CFI (cfiCond216) DPL0 Frame(CFA_SP, 4)
          CFI (cfiCond216) DPH0 Frame(CFA_SP, 5)
          CFI (cfiCond216) CFA_SP SP+-11
          CFI Block cfiCond217 Using cfiCommon0
          CFI (cfiCond217) Function bdb_checkMatchingEndpoints
          CFI (cfiCond217) Conditional ??CrossCallReturnLabel_117, ??CrossCallReturnLabel_90, ??CrossCallReturnLabel_5
          CFI (cfiCond217) R6 load(1, XDATA, add(CFA_XSP16, literal(-16)))
          CFI (cfiCond217) VB load(1, XDATA, add(CFA_XSP16, literal(-15)))
          CFI (cfiCond217) V0 load(1, XDATA, add(CFA_XSP16, literal(-14)))
          CFI (cfiCond217) V1 load(1, XDATA, add(CFA_XSP16, literal(-13)))
          CFI (cfiCond217) V2 load(1, XDATA, add(CFA_XSP16, literal(-12)))
          CFI (cfiCond217) V3 load(1, XDATA, add(CFA_XSP16, literal(-11)))
          CFI (cfiCond217) V4 load(1, XDATA, add(CFA_XSP16, literal(-10)))
          CFI (cfiCond217) V5 load(1, XDATA, add(CFA_XSP16, literal(-9)))
          CFI (cfiCond217) V6 load(1, XDATA, add(CFA_XSP16, literal(-8)))
          CFI (cfiCond217) V7 load(1, XDATA, add(CFA_XSP16, literal(-7)))
          CFI (cfiCond217) R7 load(1, XDATA, add(CFA_XSP16, literal(-6)))
          CFI (cfiCond217) ?RET_LOW load(1, XDATA, add(CFA_XSP16, literal(-5)))
          CFI (cfiCond217) ?RET_HIGH load(1, XDATA, add(CFA_XSP16, literal(-4)))
          CFI (cfiCond217) ?BRET_EXT load(1, XDATA, add(CFA_XSP16, literal(-3)))
          CFI (cfiCond217) DPL0 load(1, XDATA, add(CFA_XSP16, literal(-2)))
          CFI (cfiCond217) DPH0 load(1, XDATA, add(CFA_XSP16, literal(-1)))
          CFI (cfiCond217) CFA_SP SP+-6
          CFI (cfiCond217) CFA_XSP16 add(XSP16, 29)
          CFI Block cfiCond218 Using cfiCommon0
          CFI (cfiCond218) Function bdb_setEpDescListToActiveEndpoint
          CFI (cfiCond218) Conditional ??CrossCallReturnLabel_117, ??CrossCallReturnLabel_89, ??CrossCallReturnLabel_0
          CFI (cfiCond218) DPL0 Frame(CFA_SP, 4)
          CFI (cfiCond218) DPH0 Frame(CFA_SP, 5)
          CFI (cfiCond218) CFA_SP SP+-11
          CFI Block cfiCond219 Using cfiCommon0
          CFI (cfiCond219) Function bdb_setEpDescListToActiveEndpoint
          CFI (cfiCond219) Conditional ??CrossCallReturnLabel_117, ??CrossCallReturnLabel_89, ??CrossCallReturnLabel_1
          CFI (cfiCond219) DPL0 Frame(CFA_SP, 4)
          CFI (cfiCond219) DPH0 Frame(CFA_SP, 5)
          CFI (cfiCond219) CFA_SP SP+-11
          CFI Block cfiCond220 Using cfiCommon0
          CFI (cfiCond220) Function bdb_checkMatchingEndpoints
          CFI (cfiCond220) Conditional ??CrossCallReturnLabel_117, ??CrossCallReturnLabel_89, ??CrossCallReturnLabel_2
          CFI (cfiCond220) R6 load(1, XDATA, add(CFA_XSP16, literal(-16)))
          CFI (cfiCond220) VB load(1, XDATA, add(CFA_XSP16, literal(-15)))
          CFI (cfiCond220) V0 load(1, XDATA, add(CFA_XSP16, literal(-14)))
          CFI (cfiCond220) V1 load(1, XDATA, add(CFA_XSP16, literal(-13)))
          CFI (cfiCond220) V2 load(1, XDATA, add(CFA_XSP16, literal(-12)))
          CFI (cfiCond220) V3 load(1, XDATA, add(CFA_XSP16, literal(-11)))
          CFI (cfiCond220) V4 load(1, XDATA, add(CFA_XSP16, literal(-10)))
          CFI (cfiCond220) V5 load(1, XDATA, add(CFA_XSP16, literal(-9)))
          CFI (cfiCond220) V6 load(1, XDATA, add(CFA_XSP16, literal(-8)))
          CFI (cfiCond220) V7 load(1, XDATA, add(CFA_XSP16, literal(-7)))
          CFI (cfiCond220) R7 load(1, XDATA, add(CFA_XSP16, literal(-6)))
          CFI (cfiCond220) ?RET_LOW load(1, XDATA, add(CFA_XSP16, literal(-5)))
          CFI (cfiCond220) ?RET_HIGH load(1, XDATA, add(CFA_XSP16, literal(-4)))
          CFI (cfiCond220) ?BRET_EXT load(1, XDATA, add(CFA_XSP16, literal(-3)))
          CFI (cfiCond220) DPL0 load(1, XDATA, add(CFA_XSP16, literal(-2)))
          CFI (cfiCond220) DPH0 load(1, XDATA, add(CFA_XSP16, literal(-1)))
          CFI (cfiCond220) CFA_SP SP+-6
          CFI (cfiCond220) CFA_XSP16 add(XSP16, 29)
          CFI Block cfiCond221 Using cfiCommon0
          CFI (cfiCond221) Function bdb_ProcessRespondentList
          CFI (cfiCond221) Conditional ??CrossCallReturnLabel_117, ??CrossCallReturnLabel_91, ??CrossCallReturnLabel_87
          CFI (cfiCond221) R6 load(1, XDATA, add(CFA_XSP16, literal(-9)))
          CFI (cfiCond221) VB load(1, XDATA, add(CFA_XSP16, literal(-8)))
          CFI (cfiCond221) V0 load(1, XDATA, add(CFA_XSP16, literal(-7)))
          CFI (cfiCond221) R7 load(1, XDATA, add(CFA_XSP16, literal(-6)))
          CFI (cfiCond221) ?RET_LOW load(1, XDATA, add(CFA_XSP16, literal(-5)))
          CFI (cfiCond221) ?RET_HIGH load(1, XDATA, add(CFA_XSP16, literal(-4)))
          CFI (cfiCond221) ?BRET_EXT load(1, XDATA, add(CFA_XSP16, literal(-3)))
          CFI (cfiCond221) DPL0 load(1, XDATA, add(CFA_XSP16, literal(-2)))
          CFI (cfiCond221) DPH0 load(1, XDATA, add(CFA_XSP16, literal(-1)))
          CFI (cfiCond221) CFA_SP SP+-6
          CFI (cfiCond221) CFA_XSP16 add(XSP16, 18)
          CFI Block cfiCond222 Using cfiCommon0
          CFI (cfiCond222) Function bdb_ProcessRespondentList
          CFI (cfiCond222) Conditional ??CrossCallReturnLabel_117, ??CrossCallReturnLabel_91, ??CrossCallReturnLabel_88
          CFI (cfiCond222) R6 load(1, XDATA, add(CFA_XSP16, literal(-9)))
          CFI (cfiCond222) VB load(1, XDATA, add(CFA_XSP16, literal(-8)))
          CFI (cfiCond222) V0 load(1, XDATA, add(CFA_XSP16, literal(-7)))
          CFI (cfiCond222) R7 load(1, XDATA, add(CFA_XSP16, literal(-6)))
          CFI (cfiCond222) ?RET_LOW load(1, XDATA, add(CFA_XSP16, literal(-5)))
          CFI (cfiCond222) ?RET_HIGH load(1, XDATA, add(CFA_XSP16, literal(-4)))
          CFI (cfiCond222) ?BRET_EXT load(1, XDATA, add(CFA_XSP16, literal(-3)))
          CFI (cfiCond222) DPL0 load(1, XDATA, add(CFA_XSP16, literal(-2)))
          CFI (cfiCond222) DPH0 load(1, XDATA, add(CFA_XSP16, literal(-1)))
          CFI (cfiCond222) CFA_SP SP+-6
          CFI (cfiCond222) CFA_XSP16 add(XSP16, 19)
          CFI Block cfiCond223 Using cfiCommon0
          CFI (cfiCond223) Function bdb_ProcessRespondentList
          CFI (cfiCond223) Conditional ??CrossCallReturnLabel_117, ??CrossCallReturnLabel_91, ??CrossCallReturnLabel_86
          CFI (cfiCond223) R6 load(1, XDATA, add(CFA_XSP16, literal(-9)))
          CFI (cfiCond223) VB load(1, XDATA, add(CFA_XSP16, literal(-8)))
          CFI (cfiCond223) V0 load(1, XDATA, add(CFA_XSP16, literal(-7)))
          CFI (cfiCond223) R7 load(1, XDATA, add(CFA_XSP16, literal(-6)))
          CFI (cfiCond223) ?RET_LOW load(1, XDATA, add(CFA_XSP16, literal(-5)))
          CFI (cfiCond223) ?RET_HIGH load(1, XDATA, add(CFA_XSP16, literal(-4)))
          CFI (cfiCond223) ?BRET_EXT load(1, XDATA, add(CFA_XSP16, literal(-3)))
          CFI (cfiCond223) DPL0 load(1, XDATA, add(CFA_XSP16, literal(-2)))
          CFI (cfiCond223) DPH0 load(1, XDATA, add(CFA_XSP16, literal(-1)))
          CFI (cfiCond223) CFA_SP SP+-6
          CFI (cfiCond223) CFA_XSP16 add(XSP16, 18)
          CFI Block cfiCond224 Using cfiCommon0
          CFI (cfiCond224) Function bdb_ProcessIEEEAddrRsp
          CFI (cfiCond224) Conditional ??CrossCallReturnLabel_119, ??CrossCallReturnLabel_100
          CFI (cfiCond224) R6 load(1, XDATA, add(CFA_XSP16, literal(-10)))
          CFI (cfiCond224) VB load(1, XDATA, add(CFA_XSP16, literal(-9)))
          CFI (cfiCond224) V0 load(1, XDATA, add(CFA_XSP16, literal(-8)))
          CFI (cfiCond224) V1 load(1, XDATA, add(CFA_XSP16, literal(-7)))
          CFI (cfiCond224) R7 load(1, XDATA, add(CFA_XSP16, literal(-6)))
          CFI (cfiCond224) ?RET_LOW load(1, XDATA, add(CFA_XSP16, literal(-5)))
          CFI (cfiCond224) ?RET_HIGH load(1, XDATA, add(CFA_XSP16, literal(-4)))
          CFI (cfiCond224) ?BRET_EXT load(1, XDATA, add(CFA_XSP16, literal(-3)))
          CFI (cfiCond224) DPL0 load(1, XDATA, add(CFA_XSP16, literal(-2)))
          CFI (cfiCond224) DPH0 load(1, XDATA, add(CFA_XSP16, literal(-1)))
          CFI (cfiCond224) CFA_SP SP+-4
          CFI (cfiCond224) CFA_XSP16 add(XSP16, 25)
          CFI Block cfiCond225 Using cfiCommon0
          CFI (cfiCond225) Function bdb_ProcessSimpleDesc
          CFI (cfiCond225) Conditional ??CrossCallReturnLabel_119, ??CrossCallReturnLabel_101
          CFI (cfiCond225) R6 load(1, XDATA, add(CFA_XSP16, literal(-9)))
          CFI (cfiCond225) VB load(1, XDATA, add(CFA_XSP16, literal(-8)))
          CFI (cfiCond225) V0 load(1, XDATA, add(CFA_XSP16, literal(-7)))
          CFI (cfiCond225) R7 load(1, XDATA, add(CFA_XSP16, literal(-6)))
          CFI (cfiCond225) ?RET_LOW load(1, XDATA, add(CFA_XSP16, literal(-5)))
          CFI (cfiCond225) ?RET_HIGH load(1, XDATA, add(CFA_XSP16, literal(-4)))
          CFI (cfiCond225) ?BRET_EXT load(1, XDATA, add(CFA_XSP16, literal(-3)))
          CFI (cfiCond225) DPL0 load(1, XDATA, add(CFA_XSP16, literal(-2)))
          CFI (cfiCond225) DPH0 load(1, XDATA, add(CFA_XSP16, literal(-1)))
          CFI (cfiCond225) CFA_SP SP+-4
          CFI (cfiCond225) CFA_XSP16 add(XSP16, 28)
          CFI Block cfiCond226 Using cfiCommon0
          CFI (cfiCond226) Function bdb_GetFBInitiatorStatus
          CFI (cfiCond226) Conditional ??CrossCallReturnLabel_119, ??CrossCallReturnLabel_113
          CFI (cfiCond226) R6 load(1, XDATA, add(CFA_XSP16, literal(-16)))
          CFI (cfiCond226) VB load(1, XDATA, add(CFA_XSP16, literal(-15)))
          CFI (cfiCond226) V0 load(1, XDATA, add(CFA_XSP16, literal(-14)))
          CFI (cfiCond226) V1 load(1, XDATA, add(CFA_XSP16, literal(-13)))
          CFI (cfiCond226) V2 load(1, XDATA, add(CFA_XSP16, literal(-12)))
          CFI (cfiCond226) V3 load(1, XDATA, add(CFA_XSP16, literal(-11)))
          CFI (cfiCond226) V4 load(1, XDATA, add(CFA_XSP16, literal(-10)))
          CFI (cfiCond226) V5 load(1, XDATA, add(CFA_XSP16, literal(-9)))
          CFI (cfiCond226) V6 load(1, XDATA, add(CFA_XSP16, literal(-8)))
          CFI (cfiCond226) V7 load(1, XDATA, add(CFA_XSP16, literal(-7)))
          CFI (cfiCond226) R7 load(1, XDATA, add(CFA_XSP16, literal(-6)))
          CFI (cfiCond226) ?RET_LOW load(1, XDATA, add(CFA_XSP16, literal(-5)))
          CFI (cfiCond226) ?RET_HIGH load(1, XDATA, add(CFA_XSP16, literal(-4)))
          CFI (cfiCond226) ?BRET_EXT load(1, XDATA, add(CFA_XSP16, literal(-3)))
          CFI (cfiCond226) DPL0 load(1, XDATA, add(CFA_XSP16, literal(-2)))
          CFI (cfiCond226) DPH0 load(1, XDATA, add(CFA_XSP16, literal(-1)))
          CFI (cfiCond226) CFA_SP SP+-4
          CFI (cfiCond226) CFA_XSP16 add(XSP16, 18)
          CFI Block cfiCond227 Using cfiCommon0
          CFI (cfiCond227) Function bdb_SetIdentifyActiveEndpoint
          CFI (cfiCond227) Conditional ??CrossCallReturnLabel_119, ??CrossCallReturnLabel_102
          CFI (cfiCond227) DPL0 Frame(CFA_SP, 4)
          CFI (cfiCond227) DPH0 Frame(CFA_SP, 5)
          CFI (cfiCond227) CFA_SP SP+-9
          CFI Block cfiCond228 Using cfiCommon0
          CFI (cfiCond228) Function bdb_setEpDescListToActiveEndpoint
          CFI (cfiCond228) Conditional ??CrossCallReturnLabel_119, ??CrossCallReturnLabel_103
          CFI (cfiCond228) DPL0 Frame(CFA_SP, 4)
          CFI (cfiCond228) DPH0 Frame(CFA_SP, 5)
          CFI (cfiCond228) CFA_SP SP+-9
          CFI Block cfiCond229 Using cfiCommon0
          CFI (cfiCond229) Function bdb_setEpDescListToActiveEndpoint
          CFI (cfiCond229) Conditional ??CrossCallReturnLabel_119, ??CrossCallReturnLabel_104
          CFI (cfiCond229) DPL0 Frame(CFA_SP, 4)
          CFI (cfiCond229) DPH0 Frame(CFA_SP, 5)
          CFI (cfiCond229) CFA_SP SP+-9
          CFI Block cfiCond230 Using cfiCommon0
          CFI (cfiCond230) Function bdb_checkMatchingEndpoints
          CFI (cfiCond230) Conditional ??CrossCallReturnLabel_119, ??CrossCallReturnLabel_105
          CFI (cfiCond230) R6 load(1, XDATA, add(CFA_XSP16, literal(-16)))
          CFI (cfiCond230) VB load(1, XDATA, add(CFA_XSP16, literal(-15)))
          CFI (cfiCond230) V0 load(1, XDATA, add(CFA_XSP16, literal(-14)))
          CFI (cfiCond230) V1 load(1, XDATA, add(CFA_XSP16, literal(-13)))
          CFI (cfiCond230) V2 load(1, XDATA, add(CFA_XSP16, literal(-12)))
          CFI (cfiCond230) V3 load(1, XDATA, add(CFA_XSP16, literal(-11)))
          CFI (cfiCond230) V4 load(1, XDATA, add(CFA_XSP16, literal(-10)))
          CFI (cfiCond230) V5 load(1, XDATA, add(CFA_XSP16, literal(-9)))
          CFI (cfiCond230) V6 load(1, XDATA, add(CFA_XSP16, literal(-8)))
          CFI (cfiCond230) V7 load(1, XDATA, add(CFA_XSP16, literal(-7)))
          CFI (cfiCond230) R7 load(1, XDATA, add(CFA_XSP16, literal(-6)))
          CFI (cfiCond230) ?RET_LOW load(1, XDATA, add(CFA_XSP16, literal(-5)))
          CFI (cfiCond230) ?RET_HIGH load(1, XDATA, add(CFA_XSP16, literal(-4)))
          CFI (cfiCond230) ?BRET_EXT load(1, XDATA, add(CFA_XSP16, literal(-3)))
          CFI (cfiCond230) DPL0 load(1, XDATA, add(CFA_XSP16, literal(-2)))
          CFI (cfiCond230) DPH0 load(1, XDATA, add(CFA_XSP16, literal(-1)))
          CFI (cfiCond230) CFA_SP SP+-4
          CFI (cfiCond230) CFA_XSP16 add(XSP16, 29)
          CFI Block cfiCond231 Using cfiCommon0
          CFI (cfiCond231) Function bdb_checkMatchingEndpoints
          CFI (cfiCond231) Conditional ??CrossCallReturnLabel_119, ??CrossCallReturnLabel_106
          CFI (cfiCond231) R6 load(1, XDATA, add(CFA_XSP16, literal(-16)))
          CFI (cfiCond231) VB load(1, XDATA, add(CFA_XSP16, literal(-15)))
          CFI (cfiCond231) V0 load(1, XDATA, add(CFA_XSP16, literal(-14)))
          CFI (cfiCond231) V1 load(1, XDATA, add(CFA_XSP16, literal(-13)))
          CFI (cfiCond231) V2 load(1, XDATA, add(CFA_XSP16, literal(-12)))
          CFI (cfiCond231) V3 load(1, XDATA, add(CFA_XSP16, literal(-11)))
          CFI (cfiCond231) V4 load(1, XDATA, add(CFA_XSP16, literal(-10)))
          CFI (cfiCond231) V5 load(1, XDATA, add(CFA_XSP16, literal(-9)))
          CFI (cfiCond231) V6 load(1, XDATA, add(CFA_XSP16, literal(-8)))
          CFI (cfiCond231) V7 load(1, XDATA, add(CFA_XSP16, literal(-7)))
          CFI (cfiCond231) R7 load(1, XDATA, add(CFA_XSP16, literal(-6)))
          CFI (cfiCond231) ?RET_LOW load(1, XDATA, add(CFA_XSP16, literal(-5)))
          CFI (cfiCond231) ?RET_HIGH load(1, XDATA, add(CFA_XSP16, literal(-4)))
          CFI (cfiCond231) ?BRET_EXT load(1, XDATA, add(CFA_XSP16, literal(-3)))
          CFI (cfiCond231) DPL0 load(1, XDATA, add(CFA_XSP16, literal(-2)))
          CFI (cfiCond231) DPH0 load(1, XDATA, add(CFA_XSP16, literal(-1)))
          CFI (cfiCond231) CFA_SP SP+-4
          CFI (cfiCond231) CFA_XSP16 add(XSP16, 29)
          CFI Block cfiCond232 Using cfiCommon0
          CFI (cfiCond232) Function bdb_zclFindingBindingAddBindEntry
          CFI (cfiCond232) Conditional ??CrossCallReturnLabel_119, ??CrossCallReturnLabel_107
          CFI (cfiCond232) R6 load(1, XDATA, add(CFA_XSP16, literal(-12)))
          CFI (cfiCond232) VB load(1, XDATA, add(CFA_XSP16, literal(-11)))
          CFI (cfiCond232) V0 load(1, XDATA, add(CFA_XSP16, literal(-10)))
          CFI (cfiCond232) V1 load(1, XDATA, add(CFA_XSP16, literal(-9)))
          CFI (cfiCond232) V2 load(1, XDATA, add(CFA_XSP16, literal(-8)))
          CFI (cfiCond232) V3 load(1, XDATA, add(CFA_XSP16, literal(-7)))
          CFI (cfiCond232) R7 load(1, XDATA, add(CFA_XSP16, literal(-6)))
          CFI (cfiCond232) ?RET_LOW load(1, XDATA, add(CFA_XSP16, literal(-5)))
          CFI (cfiCond232) ?RET_HIGH load(1, XDATA, add(CFA_XSP16, literal(-4)))
          CFI (cfiCond232) ?BRET_EXT load(1, XDATA, add(CFA_XSP16, literal(-3)))
          CFI (cfiCond232) DPL0 load(1, XDATA, add(CFA_XSP16, literal(-2)))
          CFI (cfiCond232) DPH0 load(1, XDATA, add(CFA_XSP16, literal(-1)))
          CFI (cfiCond232) CFA_SP SP+-4
          CFI (cfiCond232) CFA_XSP16 add(XSP16, 14)
          CFI Block cfiCond233 Using cfiCommon0
          CFI (cfiCond233) Function bdb_ProcessRespondentList
          CFI (cfiCond233) Conditional ??CrossCallReturnLabel_119, ??CrossCallReturnLabel_108
          CFI (cfiCond233) R6 load(1, XDATA, add(CFA_XSP16, literal(-9)))
          CFI (cfiCond233) VB load(1, XDATA, add(CFA_XSP16, literal(-8)))
          CFI (cfiCond233) V0 load(1, XDATA, add(CFA_XSP16, literal(-7)))
          CFI (cfiCond233) R7 load(1, XDATA, add(CFA_XSP16, literal(-6)))
          CFI (cfiCond233) ?RET_LOW load(1, XDATA, add(CFA_XSP16, literal(-5)))
          CFI (cfiCond233) ?RET_HIGH load(1, XDATA, add(CFA_XSP16, literal(-4)))
          CFI (cfiCond233) ?BRET_EXT load(1, XDATA, add(CFA_XSP16, literal(-3)))
          CFI (cfiCond233) DPL0 load(1, XDATA, add(CFA_XSP16, literal(-2)))
          CFI (cfiCond233) DPH0 load(1, XDATA, add(CFA_XSP16, literal(-1)))
          CFI (cfiCond233) CFA_SP SP+-4
          CFI (cfiCond233) CFA_XSP16 add(XSP16, 18)
          CFI Block cfiCond234 Using cfiCommon0
          CFI (cfiCond234) Function bdb_ProcessRespondentList
          CFI (cfiCond234) Conditional ??CrossCallReturnLabel_119, ??CrossCallReturnLabel_109
          CFI (cfiCond234) R6 load(1, XDATA, add(CFA_XSP16, literal(-9)))
          CFI (cfiCond234) VB load(1, XDATA, add(CFA_XSP16, literal(-8)))
          CFI (cfiCond234) V0 load(1, XDATA, add(CFA_XSP16, literal(-7)))
          CFI (cfiCond234) R7 load(1, XDATA, add(CFA_XSP16, literal(-6)))
          CFI (cfiCond234) ?RET_LOW load(1, XDATA, add(CFA_XSP16, literal(-5)))
          CFI (cfiCond234) ?RET_HIGH load(1, XDATA, add(CFA_XSP16, literal(-4)))
          CFI (cfiCond234) ?BRET_EXT load(1, XDATA, add(CFA_XSP16, literal(-3)))
          CFI (cfiCond234) DPL0 load(1, XDATA, add(CFA_XSP16, literal(-2)))
          CFI (cfiCond234) DPH0 load(1, XDATA, add(CFA_XSP16, literal(-1)))
          CFI (cfiCond234) CFA_SP SP+-4
          CFI (cfiCond234) CFA_XSP16 add(XSP16, 18)
          CFI Block cfiCond235 Using cfiCommon0
          CFI (cfiCond235) Function bdb_ProcessRespondentList
          CFI (cfiCond235) Conditional ??CrossCallReturnLabel_119, ??CrossCallReturnLabel_110
          CFI (cfiCond235) R6 load(1, XDATA, add(CFA_XSP16, literal(-9)))
          CFI (cfiCond235) VB load(1, XDATA, add(CFA_XSP16, literal(-8)))
          CFI (cfiCond235) V0 load(1, XDATA, add(CFA_XSP16, literal(-7)))
          CFI (cfiCond235) R7 load(1, XDATA, add(CFA_XSP16, literal(-6)))
          CFI (cfiCond235) ?RET_LOW load(1, XDATA, add(CFA_XSP16, literal(-5)))
          CFI (cfiCond235) ?RET_HIGH load(1, XDATA, add(CFA_XSP16, literal(-4)))
          CFI (cfiCond235) ?BRET_EXT load(1, XDATA, add(CFA_XSP16, literal(-3)))
          CFI (cfiCond235) DPL0 load(1, XDATA, add(CFA_XSP16, literal(-2)))
          CFI (cfiCond235) DPH0 load(1, XDATA, add(CFA_XSP16, literal(-1)))
          CFI (cfiCond235) CFA_SP SP+-4
          CFI (cfiCond235) CFA_XSP16 add(XSP16, 18)
          CFI Block cfiCond236 Using cfiCommon0
          CFI (cfiCond236) Function bdb_ProcessRespondentList
          CFI (cfiCond236) Conditional ??CrossCallReturnLabel_119, ??CrossCallReturnLabel_111
          CFI (cfiCond236) R6 load(1, XDATA, add(CFA_XSP16, literal(-9)))
          CFI (cfiCond236) VB load(1, XDATA, add(CFA_XSP16, literal(-8)))
          CFI (cfiCond236) V0 load(1, XDATA, add(CFA_XSP16, literal(-7)))
          CFI (cfiCond236) R7 load(1, XDATA, add(CFA_XSP16, literal(-6)))
          CFI (cfiCond236) ?RET_LOW load(1, XDATA, add(CFA_XSP16, literal(-5)))
          CFI (cfiCond236) ?RET_HIGH load(1, XDATA, add(CFA_XSP16, literal(-4)))
          CFI (cfiCond236) ?BRET_EXT load(1, XDATA, add(CFA_XSP16, literal(-3)))
          CFI (cfiCond236) DPL0 load(1, XDATA, add(CFA_XSP16, literal(-2)))
          CFI (cfiCond236) DPH0 load(1, XDATA, add(CFA_XSP16, literal(-1)))
          CFI (cfiCond236) CFA_SP SP+-4
          CFI (cfiCond236) CFA_XSP16 add(XSP16, 18)
          CFI Block cfiCond237 Using cfiCommon0
          CFI (cfiCond237) Function bdb_ProcessRespondentList
          CFI (cfiCond237) Conditional ??CrossCallReturnLabel_119, ??CrossCallReturnLabel_112
          CFI (cfiCond237) R6 load(1, XDATA, add(CFA_XSP16, literal(-9)))
          CFI (cfiCond237) VB load(1, XDATA, add(CFA_XSP16, literal(-8)))
          CFI (cfiCond237) V0 load(1, XDATA, add(CFA_XSP16, literal(-7)))
          CFI (cfiCond237) R7 load(1, XDATA, add(CFA_XSP16, literal(-6)))
          CFI (cfiCond237) ?RET_LOW load(1, XDATA, add(CFA_XSP16, literal(-5)))
          CFI (cfiCond237) ?RET_HIGH load(1, XDATA, add(CFA_XSP16, literal(-4)))
          CFI (cfiCond237) ?BRET_EXT load(1, XDATA, add(CFA_XSP16, literal(-3)))
          CFI (cfiCond237) DPL0 load(1, XDATA, add(CFA_XSP16, literal(-2)))
          CFI (cfiCond237) DPH0 load(1, XDATA, add(CFA_XSP16, literal(-1)))
          CFI (cfiCond237) CFA_SP SP+-4
          CFI (cfiCond237) CFA_XSP16 add(XSP16, 18)
          CFI Block cfiPicker238 Using cfiCommon1
          CFI (cfiPicker238) NoFunction
          CFI (cfiPicker238) Picker
        MOVX      A,@DPTR
        MOV       R0,A
        INC       DPTR
        MOVX      A,@DPTR
        RET
          CFI EndBlock cfiCond197
          CFI EndBlock cfiCond198
          CFI EndBlock cfiCond199
          CFI EndBlock cfiCond200
          CFI EndBlock cfiCond201
          CFI EndBlock cfiCond202
          CFI EndBlock cfiCond203
          CFI EndBlock cfiCond204
          CFI EndBlock cfiCond205
          CFI EndBlock cfiCond206
          CFI EndBlock cfiCond207
          CFI EndBlock cfiCond208
          CFI EndBlock cfiCond209
          CFI EndBlock cfiCond210
          CFI EndBlock cfiCond211
          CFI EndBlock cfiCond212
          CFI EndBlock cfiCond213
          CFI EndBlock cfiCond214
          CFI EndBlock cfiCond215
          CFI EndBlock cfiCond216
          CFI EndBlock cfiCond217
          CFI EndBlock cfiCond218
          CFI EndBlock cfiCond219
          CFI EndBlock cfiCond220
          CFI EndBlock cfiCond221
          CFI EndBlock cfiCond222
          CFI EndBlock cfiCond223
          CFI EndBlock cfiCond224
          CFI EndBlock cfiCond225
          CFI EndBlock cfiCond226
          CFI EndBlock cfiCond227
          CFI EndBlock cfiCond228
          CFI EndBlock cfiCond229
          CFI EndBlock cfiCond230
          CFI EndBlock cfiCond231
          CFI EndBlock cfiCond232
          CFI EndBlock cfiCond233
          CFI EndBlock cfiCond234
          CFI EndBlock cfiCond235
          CFI EndBlock cfiCond236
          CFI EndBlock cfiCond237
          CFI EndBlock cfiPicker238

        RSEG BANKED_CODE:HUGECODE:NOROOT(0)
?Subroutine16:
          CFI Block cfiCond239 Using cfiCommon0
          CFI Function bdb_ZclIdentifyQueryCmdInd
          CFI Conditional ??CrossCallReturnLabel_19
          CFI R6 load(1, XDATA, add(CFA_XSP16, literal(-10)))
          CFI VB load(1, XDATA, add(CFA_XSP16, literal(-9)))
          CFI V0 load(1, XDATA, add(CFA_XSP16, literal(-8)))
          CFI V1 load(1, XDATA, add(CFA_XSP16, literal(-7)))
          CFI R7 load(1, XDATA, add(CFA_XSP16, literal(-6)))
          CFI ?RET_LOW load(1, XDATA, add(CFA_XSP16, literal(-5)))
          CFI ?RET_HIGH load(1, XDATA, add(CFA_XSP16, literal(-4)))
          CFI ?BRET_EXT load(1, XDATA, add(CFA_XSP16, literal(-3)))
          CFI DPL0 load(1, XDATA, add(CFA_XSP16, literal(-2)))
          CFI DPH0 load(1, XDATA, add(CFA_XSP16, literal(-1)))
          CFI CFA_SP SP+-2
          CFI CFA_XSP16 add(XSP16, 10)
          CFI Block cfiCond240 Using cfiCommon0
          CFI (cfiCond240) Function bdb_ZclIdentifyQueryCmdInd
          CFI (cfiCond240) Conditional ??CrossCallReturnLabel_20
          CFI (cfiCond240) R6 load(1, XDATA, add(CFA_XSP16, literal(-10)))
          CFI (cfiCond240) VB load(1, XDATA, add(CFA_XSP16, literal(-9)))
          CFI (cfiCond240) V0 load(1, XDATA, add(CFA_XSP16, literal(-8)))
          CFI (cfiCond240) V1 load(1, XDATA, add(CFA_XSP16, literal(-7)))
          CFI (cfiCond240) R7 load(1, XDATA, add(CFA_XSP16, literal(-6)))
          CFI (cfiCond240) ?RET_LOW load(1, XDATA, add(CFA_XSP16, literal(-5)))
          CFI (cfiCond240) ?RET_HIGH load(1, XDATA, add(CFA_XSP16, literal(-4)))
          CFI (cfiCond240) ?BRET_EXT load(1, XDATA, add(CFA_XSP16, literal(-3)))
          CFI (cfiCond240) DPL0 load(1, XDATA, add(CFA_XSP16, literal(-2)))
          CFI (cfiCond240) DPH0 load(1, XDATA, add(CFA_XSP16, literal(-1)))
          CFI (cfiCond240) CFA_SP SP+-2
          CFI (cfiCond240) CFA_XSP16 add(XSP16, 10)
          CFI Block cfiPicker241 Using cfiCommon1
          CFI (cfiPicker241) NoFunction
          CFI (cfiPicker241) Picker
        INC       DPTR
        INC       DPTR
        INC       DPTR
        INC       DPTR
        INC       DPTR
        INC       DPTR
        INC       DPTR
        INC       DPTR
        MOVX      A,@DPTR
        MOV       DPL,R2
        MOV       DPH,R3
        INC       DPTR
        INC       DPTR
        INC       DPTR
        INC       DPTR
        INC       DPTR
        INC       DPTR
        INC       DPTR
        INC       DPTR
        RET
          CFI EndBlock cfiCond239
          CFI EndBlock cfiCond240
          CFI EndBlock cfiPicker241
//  951 
//  952 /*********************************************************************
//  953  * @fn      bdb_ProcessRespondentList
//  954  *
//  955  * @brief   Process the Identify Query respondent list by sending Simple Descriptor request to 
//  956  *          devices respondent in the list. Also send IEEE Addr Req to those 
//  957  *          device for which a bind is created but IEEE addr is missing.
//  958  *
//  959  * @param   none
//  960  *
//  961  * @return  none
//  962  */

        RSEG BANKED_CODE:HUGECODE:NOROOT(0)
//  963 void bdb_ProcessRespondentList( void )
bdb_ProcessRespondentList:
          CFI Block cfiBlock242 Using cfiCommon0
          CFI Function bdb_ProcessRespondentList
        CODE
//  964 {
        FUNCALL bdb_ProcessRespondentList, bdb_getRespondentRetry
        LOCFRAME ISTACK, 0, STACK
        LOCFRAME PSTACK, 0, STACK
        LOCFRAME XSTACK, 18, STACK
        LOCFRAME IOVERLAY, 0, STATIC
        LOCFRAME DOVERLAY, 0, STATIC
        ARGFRAME ISTACK, 0, STACK
        ARGFRAME PSTACK, 0, STACK
        ARGFRAME XSTACK, 18, STACK
        ARGFRAME IOVERLAY, 0, STATIC
        ARGFRAME DOVERLAY, 0, STATIC
        FUNCALL bdb_ProcessRespondentList, bdb_exitFindingBindingWStatus
        LOCFRAME ISTACK, 0, STACK
        LOCFRAME PSTACK, 0, STACK
        LOCFRAME XSTACK, 18, STACK
        LOCFRAME IOVERLAY, 0, STATIC
        LOCFRAME DOVERLAY, 0, STATIC
        ARGFRAME ISTACK, 0, STACK
        ARGFRAME PSTACK, 0, STACK
        ARGFRAME XSTACK, 18, STACK
        ARGFRAME IOVERLAY, 0, STATIC
        ARGFRAME DOVERLAY, 0, STATIC
        FUNCALL bdb_ProcessRespondentList, bdb_exitFindingBindingWStatus
        LOCFRAME ISTACK, 0, STACK
        LOCFRAME PSTACK, 0, STACK
        LOCFRAME XSTACK, 18, STACK
        LOCFRAME IOVERLAY, 0, STATIC
        LOCFRAME DOVERLAY, 0, STATIC
        ARGFRAME ISTACK, 0, STACK
        ARGFRAME PSTACK, 0, STACK
        ARGFRAME XSTACK, 18, STACK
        ARGFRAME IOVERLAY, 0, STATIC
        ARGFRAME DOVERLAY, 0, STATIC
        FUNCALL bdb_ProcessRespondentList, bdb_getRespondentRetry
        LOCFRAME ISTACK, 0, STACK
        LOCFRAME PSTACK, 0, STACK
        LOCFRAME XSTACK, 18, STACK
        LOCFRAME IOVERLAY, 0, STATIC
        LOCFRAME DOVERLAY, 0, STATIC
        ARGFRAME ISTACK, 0, STACK
        ARGFRAME PSTACK, 0, STACK
        ARGFRAME XSTACK, 18, STACK
        ARGFRAME IOVERLAY, 0, STATIC
        ARGFRAME DOVERLAY, 0, STATIC
        FUNCALL bdb_ProcessRespondentList, bdb_exitFindingBindingWStatus
        LOCFRAME ISTACK, 0, STACK
        LOCFRAME PSTACK, 0, STACK
        LOCFRAME XSTACK, 18, STACK
        LOCFRAME IOVERLAY, 0, STATIC
        LOCFRAME DOVERLAY, 0, STATIC
        ARGFRAME ISTACK, 0, STACK
        ARGFRAME PSTACK, 0, STACK
        ARGFRAME XSTACK, 18, STACK
        ARGFRAME IOVERLAY, 0, STATIC
        ARGFRAME DOVERLAY, 0, STATIC
        FUNCALL bdb_ProcessRespondentList, osal_start_timerEx
        LOCFRAME ISTACK, 0, STACK
        LOCFRAME PSTACK, 0, STACK
        LOCFRAME XSTACK, 22, STACK
        LOCFRAME IOVERLAY, 0, STATIC
        LOCFRAME DOVERLAY, 0, STATIC
        ARGFRAME ISTACK, 0, STACK
        ARGFRAME PSTACK, 0, STACK
        ARGFRAME XSTACK, 22, STACK
        ARGFRAME IOVERLAY, 0, STATIC
        ARGFRAME DOVERLAY, 0, STATIC
        FUNCALL bdb_ProcessRespondentList, ZDP_IEEEAddrReq
        LOCFRAME ISTACK, 0, STACK
        LOCFRAME PSTACK, 0, STACK
        LOCFRAME XSTACK, 18, STACK
        LOCFRAME IOVERLAY, 0, STATIC
        LOCFRAME DOVERLAY, 0, STATIC
        ARGFRAME ISTACK, 0, STACK
        ARGFRAME PSTACK, 0, STACK
        ARGFRAME XSTACK, 18, STACK
        ARGFRAME IOVERLAY, 0, STATIC
        ARGFRAME DOVERLAY, 0, STATIC
        FUNCALL bdb_ProcessRespondentList, ZDP_SimpleDescReq
        LOCFRAME ISTACK, 0, STACK
        LOCFRAME PSTACK, 0, STACK
        LOCFRAME XSTACK, 19, STACK
        LOCFRAME IOVERLAY, 0, STATIC
        LOCFRAME DOVERLAY, 0, STATIC
        ARGFRAME ISTACK, 0, STACK
        ARGFRAME PSTACK, 0, STACK
        ARGFRAME XSTACK, 19, STACK
        ARGFRAME IOVERLAY, 0, STATIC
        ARGFRAME DOVERLAY, 0, STATIC
        FUNCALL bdb_ProcessRespondentList, bdb_getRespondentRetry
        LOCFRAME ISTACK, 0, STACK
        LOCFRAME PSTACK, 0, STACK
        LOCFRAME XSTACK, 18, STACK
        LOCFRAME IOVERLAY, 0, STATIC
        LOCFRAME DOVERLAY, 0, STATIC
        ARGFRAME ISTACK, 0, STACK
        ARGFRAME PSTACK, 0, STACK
        ARGFRAME XSTACK, 18, STACK
        ARGFRAME IOVERLAY, 0, STATIC
        ARGFRAME DOVERLAY, 0, STATIC
        REQUIRE ?V0
        MOV       A,#-0x9
        LCALL     ?BANKED_ENTER_XDATA
          CFI DPH0 load(1, XDATA, add(CFA_XSP16, literal(-1)))
          CFI DPL0 load(1, XDATA, add(CFA_XSP16, literal(-2)))
          CFI ?BRET_EXT load(1, XDATA, add(CFA_XSP16, literal(-3)))
          CFI ?RET_HIGH load(1, XDATA, add(CFA_XSP16, literal(-4)))
          CFI ?RET_LOW load(1, XDATA, add(CFA_XSP16, literal(-5)))
          CFI R7 load(1, XDATA, add(CFA_XSP16, literal(-6)))
          CFI V0 load(1, XDATA, add(CFA_XSP16, literal(-7)))
          CFI VB load(1, XDATA, add(CFA_XSP16, literal(-8)))
          CFI R6 load(1, XDATA, add(CFA_XSP16, literal(-9)))
          CFI CFA_SP SP+0
          CFI CFA_XSP16 add(XSP16, 9)
        ; Saved register size: 9
        ; Auto size: 9
        MOV       A,#-0x9
        LCALL     ?ALLOC_XSTACK8
          CFI CFA_XSP16 add(XSP16, 18)
//  965   zAddrType_t dstAddr = { 0 };
        MOV       DPTR,#`?<Constant {{0}}>`
        MOV       R4,?XSP + 0
        MOV       R5,?XSP + 1
        MOV       A,#0x9
        LCALL     ?MOVE_LONG8_XDATA_XDATA
//  966   
//  967   // Look for the first respondent
//  968   if ( pRespondentCurr == NULL )
        MOV       DPTR,#pRespondentCurr
        LCALL     ??Subroutine50_0 & 0xFFFF
??CrossCallReturnLabel_108:
        JNZ       ??bdb_ProcessRespondentList_0
//  969   {
//  970     pRespondentCurr = bdb_getRespondentRetry(pRespondentHead);
        ; Setup parameters for call to function bdb_getRespondentRetry
        MOV       DPTR,#pRespondentHead
        LCALL     ??Subroutine45_0 & 0xFFFF
??CrossCallReturnLabel_67:
        LCALL     `??bdb_getRespondentRetry::?relay`; Banked call to: bdb_getRespondentRetry
        MOV       DPTR,#pRespondentCurr
        LCALL     ??Subroutine46_0 & 0xFFFF
//  971     
//  972     // If null, then no responses from Identify query request
//  973     if ( (pRespondentCurr == NULL) )
??CrossCallReturnLabel_80:
        MOV       DPTR,#pRespondentCurr
        LCALL     ??Subroutine50_0 & 0xFFFF
??CrossCallReturnLabel_109:
        JNZ       ??CrossCallReturnLabel_44
//  974     {
//  975       //No responses, then no responses
//  976       if(pRespondentHead == NULL)
        MOV       DPTR,#pRespondentHead
        LCALL     ??Subroutine50_0 & 0xFFFF
??CrossCallReturnLabel_110:
        JNZ       ??bdb_ProcessRespondentList_1
//  977       {
//  978         bdb_exitFindingBindingWStatus( BDB_COMMISSIONING_FB_NO_IDENTIFY_QUERY_RESPONSE );
        ; Setup parameters for call to function bdb_exitFindingBindingWStatus
        MOV       R1,#0xb
        SJMP      ??bdb_ProcessRespondentList_2
//  979       }
//  980       //Responses and binded to all clusters possible
//  981       else
//  982       {
//  983         bdb_exitFindingBindingWStatus( BDB_COMMISSIONING_SUCCESS );
//  984       }
//  985       return;
//  986     }
//  987   }
//  988   else
//  989   {
//  990     //Validate that we are not processing a missing IEEE Address before chaning 
//  991     //the current respondent to be process
//  992     if((pRespondentCurr->attempts & FINDING_AND_BINDING_MISSING_IEEE_ADDR) &&
//  993        (pRespondentCurr->attempts & ~FINDING_AND_BINDING_MISSING_IEEE_ADDR) >= FINDING_AND_BINDING_MAX_ATTEMPTS)
??bdb_ProcessRespondentList_0:
        MOV       DPTR,#pRespondentCurr
        MOVX      A,@DPTR
        ADD       A,#0xc
        MOV       R0,A
        INC       DPTR
        MOVX      A,@DPTR
        ADDC      A,#0x0
        MOV       R1,A
        MOV       DPL,R0
        MOV       DPH,R1
        MOVX      A,@DPTR
        MOV       C,0xE0 /* A   */.7
        JNC       ??CrossCallReturnLabel_44
        ANL       A,#0x7f
        CLR       C
        SUBB      A,#0x4
        JC        ??CrossCallReturnLabel_44
//  994     {
//  995       if(pRespondentNext == NULL)
        MOV       DPTR,#pRespondentNext
        LCALL     ??Subroutine50_0 & 0xFFFF
??CrossCallReturnLabel_111:
        JNZ       ??bdb_ProcessRespondentList_3
//  996       {
//  997         //Review the whole list if we have simple desc that we need to attempt.
//  998         pRespondentCurr = bdb_getRespondentRetry(pRespondentHead);
        ; Setup parameters for call to function bdb_getRespondentRetry
        MOV       DPTR,#pRespondentHead
        LCALL     ??Subroutine45_0 & 0xFFFF
??CrossCallReturnLabel_68:
        LCALL     `??bdb_getRespondentRetry::?relay`; Banked call to: bdb_getRespondentRetry
        MOV       DPTR,#pRespondentCurr
        LCALL     ??Subroutine46_0 & 0xFFFF
//  999           
// 1000         if(pRespondentCurr == NULL)
??CrossCallReturnLabel_81:
        MOV       DPTR,#pRespondentCurr
        LCALL     ??Subroutine50_0 & 0xFFFF
??CrossCallReturnLabel_112:
        JNZ       ??CrossCallReturnLabel_44
// 1001         {
// 1002           bdb_exitFindingBindingWStatus( BDB_COMMISSIONING_SUCCESS );
        ; Setup parameters for call to function bdb_exitFindingBindingWStatus
??bdb_ProcessRespondentList_1:
        MOV       R1,#0x0
??bdb_ProcessRespondentList_2:
        LCALL     `??bdb_exitFindingBindingWStatus::?relay`; Banked call to: bdb_exitFindingBindingWStatus
// 1003           return;
        LJMP      ??CrossCallReturnLabel_82 & 0xFFFF
// 1004         }
// 1005       }
// 1006       else
// 1007       {
// 1008         pRespondentCurr = pRespondentNext;
??bdb_ProcessRespondentList_3:
        MOV       DPTR,#pRespondentCurr
        LCALL     ??Subroutine41_0 & 0xFFFF
// 1009       }
// 1010     }
// 1011   }
// 1012   
// 1013   //Start the timer to process the next respondent
// 1014   osal_start_timerEx( bdb_TaskID, BDB_RESPONDENT_PROCESS_TIMEOUT, SIMPLEDESC_RESPONSE_TIMEOUT );
??CrossCallReturnLabel_44:
        ; Setup parameters for call to function osal_start_timerEx
        MOV       DPTR,#__Constant_1388
        LCALL     ?PUSH_XSTACK8_X_FOUR
          CFI CFA_XSP16 add(XSP16, 22)
        MOV       R2,#0x0
        MOV       R3,#0x40
        MOV       DPTR,#bdb_TaskID
        MOVX      A,@DPTR
        MOV       R1,A
        LCALL     `??osal_start_timerEx::?relay`; Banked call to: osal_start_timerEx
        MOV       A,#0x4
        LCALL     ?DEALLOC_XSTACK8
          CFI CFA_XSP16 add(XSP16, 18)
// 1015   
// 1016   /**
// 1017    * JC NOTES: Followings are the codes querying the device which just replied to an Identify Query Response
// 1018    * about the IEEE address or the simple device descriptor.
// 1019   **/
// 1020   //If ParentLost is reported, then do not attempt send SimpleDesc, mark those as pending, 
// 1021   //if Parent Lost is restored, then these simpleDesc attempts will be restored to 0
// 1022   if(bdbCommissioningProcedureState.bdbCommissioningState != BDB_PARENT_LOST)
        MOV       DPTR,#bdbCommissioningProcedureState
        MOVX      A,@DPTR
        XRL       A,#0x8
        MOV       DPTR,#pRespondentCurr
        JZ        ??bdb_ProcessRespondentList_4
// 1023   {
// 1024     dstAddr.addr.shortAddr = pRespondentCurr->data.addr.shortAddr;
        LCALL     ??Subroutine47_0 & 0xFFFF
??CrossCallReturnLabel_86:
        MOV       R0,A
        INC       DPTR
        MOVX      A,@DPTR
        MOV       R1,A
        MOV       DPL,?XSP + 0
        MOV       DPH,?XSP + 1
        LCALL     ??Subroutine41_0 & 0xFFFF
// 1025     dstAddr.addrMode = pRespondentCurr->data.addrMode;
??CrossCallReturnLabel_45:
        MOV       DPTR,#pRespondentCurr
        LCALL     ??Subroutine35_0 & 0xFFFF
??CrossCallReturnLabel_37:
        ADD       A,#0x8
        MOV       DPL,A
        CLR       A
        ADDC      A,R0
        MOV       DPH,A
        MOVX      A,@DPTR
        PUSH      A
          CFI CFA_SP SP+-1
        MOV       A,#0x8
        LCALL     ?XSTACK_DISP0_8
        POP       A
          CFI CFA_SP SP+0
        LCALL     ?Subroutine6 & 0xFFFF
// 1026 
// 1027     //Update the attempts, ahead of actually sending the frame, as this is done just below
// 1028     pRespondentCurr->attempts++;
??CrossCallReturnLabel_92:
        INC       A
        LCALL     ?Subroutine6 & 0xFFFF
// 1029     
// 1030     //Send IEEE addr request or simple desc req
// 1031     if(pRespondentCurr->attempts & FINDING_AND_BINDING_MISSING_IEEE_ADDR)
??CrossCallReturnLabel_93:
        MOV       C,0xE0 /* A   */.7
        JNC       ??bdb_ProcessRespondentList_5
// 1032     {
// 1033       ZDP_IEEEAddrReq(pRespondentCurr->data.addr.shortAddr,0,0,0);
        ; Setup parameters for call to function ZDP_IEEEAddrReq
        MOV       R5,#0x0
        MOV       R4,#0x0
        MOV       R1,#0x0
        LCALL     ?Subroutine12 & 0xFFFF
// 1034     }
??CrossCallReturnLabel_87:
        MOV       R2,A
        INC       DPTR
        MOVX      A,@DPTR
        MOV       R3,A
        LCALL     `??ZDP_IEEEAddrReq::?relay`; Banked call to: ZDP_IEEEAddrReq
        SJMP      ??bdb_ProcessRespondentList_6
// 1035     else
// 1036     {
// 1037       //Send simple descriptor
// 1038       ZDP_SimpleDescReq( &dstAddr, pRespondentCurr->data.addr.shortAddr, pRespondentCurr->data.endPoint, 0 );
??bdb_ProcessRespondentList_5:
        ; Setup parameters for call to function ZDP_SimpleDescReq
        MOV       ?V0,#0x0
        MOV       R0,#?V0
        LCALL     ?PUSH_XSTACK_I_ONE
          CFI CFA_XSP16 add(XSP16, 19)
        MOV       DPTR,#pRespondentCurr
        LCALL     ??Subroutine35_0 & 0xFFFF
// 1039     }
// 1040   }
??CrossCallReturnLabel_38:
        ADD       A,#0x9
        MOV       DPL,A
        CLR       A
        ADDC      A,R0
        MOV       DPH,A
        MOVX      A,@DPTR
        MOV       R1,A
        LCALL     ?Subroutine12 & 0xFFFF
??CrossCallReturnLabel_88:
        MOV       R4,A
        INC       DPTR
        MOVX      A,@DPTR
        MOV       R5,A
        MOV       A,#0x1
        LCALL     ?XSTACK_DISP101_8
        LCALL     `??ZDP_SimpleDescReq::?relay`; Banked call to: ZDP_SimpleDescReq
        MOV       A,#0x1
        LCALL     ?DEALLOC_XSTACK8
          CFI CFA_XSP16 add(XSP16, 18)
        SJMP      ??bdb_ProcessRespondentList_6
// 1041   else
// 1042   {
// 1043     //Stop any attempt due to parent lost
// 1044     pRespondentCurr->attempts |= FINDING_AND_BINDING_PARENT_LOST;
??bdb_ProcessRespondentList_4:
        LCALL     ??Subroutine48_0 & 0xFFFF
// 1045   }
??CrossCallReturnLabel_95:
        SETB      0xE0 /* A   */.6
        MOVX      @DPTR,A
// 1046   
// 1047   //Search for the next respondant that has not enough tries in the list
// 1048   pRespondentNext = bdb_getRespondentRetry(pRespondentCurr->pNext);
??bdb_ProcessRespondentList_6:
        ; Setup parameters for call to function bdb_getRespondentRetry
        MOV       DPTR,#pRespondentCurr
        LCALL     ??Subroutine35_0 & 0xFFFF
??CrossCallReturnLabel_39:
        ADD       A,#0xf
        MOV       DPL,A
        CLR       A
        ADDC      A,R0
        MOV       DPH,A
        LCALL     ??Subroutine45_0 & 0xFFFF
??CrossCallReturnLabel_69:
        LCALL     `??bdb_getRespondentRetry::?relay`; Banked call to: bdb_getRespondentRetry
        MOV       DPTR,#pRespondentNext
        LCALL     ??Subroutine46_0 & 0xFFFF
// 1049 }
??CrossCallReturnLabel_82:
        MOV       A,#0x9
        LJMP      ?Subroutine3 & 0xFFFF
          CFI EndBlock cfiBlock242

        RSEG BANKED_CODE:HUGECODE:NOROOT(0)
?Subroutine24:
          CFI Block cfiCond243 Using cfiCommon0
          CFI Function bdb_zclFindingBindingAddBindEntry
          CFI Conditional ??CrossCallReturnLabel_84
          CFI R6 load(1, XDATA, add(CFA_XSP16, literal(-12)))
          CFI VB load(1, XDATA, add(CFA_XSP16, literal(-11)))
          CFI V0 load(1, XDATA, add(CFA_XSP16, literal(-10)))
          CFI V1 load(1, XDATA, add(CFA_XSP16, literal(-9)))
          CFI V2 load(1, XDATA, add(CFA_XSP16, literal(-8)))
          CFI V3 load(1, XDATA, add(CFA_XSP16, literal(-7)))
          CFI R7 load(1, XDATA, add(CFA_XSP16, literal(-6)))
          CFI ?RET_LOW load(1, XDATA, add(CFA_XSP16, literal(-5)))
          CFI ?RET_HIGH load(1, XDATA, add(CFA_XSP16, literal(-4)))
          CFI ?BRET_EXT load(1, XDATA, add(CFA_XSP16, literal(-3)))
          CFI DPL0 load(1, XDATA, add(CFA_XSP16, literal(-2)))
          CFI DPH0 load(1, XDATA, add(CFA_XSP16, literal(-1)))
          CFI CFA_SP SP+-2
          CFI CFA_XSP16 add(XSP16, 14)
          CFI Block cfiCond244 Using cfiCommon0
          CFI (cfiCond244) Function bdb_SendIdentifyQueryWithAddr
          CFI (cfiCond244) Conditional ??CrossCallReturnLabel_85
          CFI (cfiCond244) R6 load(1, XDATA, add(CFA_XSP16, literal(-10)))
          CFI (cfiCond244) VB load(1, XDATA, add(CFA_XSP16, literal(-9)))
          CFI (cfiCond244) V0 load(1, XDATA, add(CFA_XSP16, literal(-8)))
          CFI (cfiCond244) V1 load(1, XDATA, add(CFA_XSP16, literal(-7)))
          CFI (cfiCond244) R7 load(1, XDATA, add(CFA_XSP16, literal(-6)))
          CFI (cfiCond244) ?RET_LOW load(1, XDATA, add(CFA_XSP16, literal(-5)))
          CFI (cfiCond244) ?RET_HIGH load(1, XDATA, add(CFA_XSP16, literal(-4)))
          CFI (cfiCond244) ?BRET_EXT load(1, XDATA, add(CFA_XSP16, literal(-3)))
          CFI (cfiCond244) DPL0 load(1, XDATA, add(CFA_XSP16, literal(-2)))
          CFI (cfiCond244) DPH0 load(1, XDATA, add(CFA_XSP16, literal(-1)))
          CFI (cfiCond244) CFA_SP SP+-2
          CFI (cfiCond244) CFA_XSP16 add(XSP16, 22)
          CFI Block cfiPicker245 Using cfiCommon1
          CFI (cfiPicker245) NoFunction
          CFI (cfiPicker245) Picker
        MOV       DPL,?XSP + 0
        MOV       DPH,?XSP + 1
          CFI EndBlock cfiCond243
          CFI EndBlock cfiCond244
          CFI EndBlock cfiPicker245
        REQUIRE ??Subroutine46_0
        ; // Fall through to label ??Subroutine46_0

        RSEG BANKED_CODE:HUGECODE:NOROOT(0)
??Subroutine46_0:
          CFI Block cfiCond246 Using cfiCommon0
          CFI Function bdb_RegisterIdentifyTimeChangeCB
          CFI Conditional ??CrossCallReturnLabel_83
          CFI DPL0 Frame(CFA_SP, 4)
          CFI DPH0 Frame(CFA_SP, 5)
          CFI CFA_SP SP+-7
          CFI Block cfiCond247 Using cfiCommon0
          CFI (cfiCond247) Function bdb_RegisterBindNotificationCB
          CFI (cfiCond247) Conditional ??CrossCallReturnLabel_83
          CFI (cfiCond247) DPL0 Frame(CFA_SP, 4)
          CFI (cfiCond247) DPH0 Frame(CFA_SP, 5)
          CFI (cfiCond247) CFA_SP SP+-7
          CFI Block cfiCond248 Using cfiCommon0
          CFI (cfiCond248) Function bdb_checkMatchingEndpoints
          CFI (cfiCond248) Conditional ??CrossCallReturnLabel_78
          CFI (cfiCond248) R6 load(1, XDATA, add(CFA_XSP16, literal(-16)))
          CFI (cfiCond248) VB load(1, XDATA, add(CFA_XSP16, literal(-15)))
          CFI (cfiCond248) V0 load(1, XDATA, add(CFA_XSP16, literal(-14)))
          CFI (cfiCond248) V1 load(1, XDATA, add(CFA_XSP16, literal(-13)))
          CFI (cfiCond248) V2 load(1, XDATA, add(CFA_XSP16, literal(-12)))
          CFI (cfiCond248) V3 load(1, XDATA, add(CFA_XSP16, literal(-11)))
          CFI (cfiCond248) V4 load(1, XDATA, add(CFA_XSP16, literal(-10)))
          CFI (cfiCond248) V5 load(1, XDATA, add(CFA_XSP16, literal(-9)))
          CFI (cfiCond248) V6 load(1, XDATA, add(CFA_XSP16, literal(-8)))
          CFI (cfiCond248) V7 load(1, XDATA, add(CFA_XSP16, literal(-7)))
          CFI (cfiCond248) R7 load(1, XDATA, add(CFA_XSP16, literal(-6)))
          CFI (cfiCond248) ?RET_LOW load(1, XDATA, add(CFA_XSP16, literal(-5)))
          CFI (cfiCond248) ?RET_HIGH load(1, XDATA, add(CFA_XSP16, literal(-4)))
          CFI (cfiCond248) ?BRET_EXT load(1, XDATA, add(CFA_XSP16, literal(-3)))
          CFI (cfiCond248) DPL0 load(1, XDATA, add(CFA_XSP16, literal(-2)))
          CFI (cfiCond248) DPH0 load(1, XDATA, add(CFA_XSP16, literal(-1)))
          CFI (cfiCond248) CFA_SP SP+-2
          CFI (cfiCond248) CFA_XSP16 add(XSP16, 29)
          CFI Block cfiCond249 Using cfiCommon0
          CFI (cfiCond249) Function bdb_ProcessSimpleDesc
          CFI (cfiCond249) Conditional ??CrossCallReturnLabel_79
          CFI (cfiCond249) R6 load(1, XDATA, add(CFA_XSP16, literal(-9)))
          CFI (cfiCond249) VB load(1, XDATA, add(CFA_XSP16, literal(-8)))
          CFI (cfiCond249) V0 load(1, XDATA, add(CFA_XSP16, literal(-7)))
          CFI (cfiCond249) R7 load(1, XDATA, add(CFA_XSP16, literal(-6)))
          CFI (cfiCond249) ?RET_LOW load(1, XDATA, add(CFA_XSP16, literal(-5)))
          CFI (cfiCond249) ?RET_HIGH load(1, XDATA, add(CFA_XSP16, literal(-4)))
          CFI (cfiCond249) ?BRET_EXT load(1, XDATA, add(CFA_XSP16, literal(-3)))
          CFI (cfiCond249) DPL0 load(1, XDATA, add(CFA_XSP16, literal(-2)))
          CFI (cfiCond249) DPH0 load(1, XDATA, add(CFA_XSP16, literal(-1)))
          CFI (cfiCond249) CFA_SP SP+-2
          CFI (cfiCond249) CFA_XSP16 add(XSP16, 28)
          CFI Block cfiCond250 Using cfiCommon0
          CFI (cfiCond250) Function bdb_ProcessRespondentList
          CFI (cfiCond250) Conditional ??CrossCallReturnLabel_80
          CFI (cfiCond250) R6 load(1, XDATA, add(CFA_XSP16, literal(-9)))
          CFI (cfiCond250) VB load(1, XDATA, add(CFA_XSP16, literal(-8)))
          CFI (cfiCond250) V0 load(1, XDATA, add(CFA_XSP16, literal(-7)))
          CFI (cfiCond250) R7 load(1, XDATA, add(CFA_XSP16, literal(-6)))
          CFI (cfiCond250) ?RET_LOW load(1, XDATA, add(CFA_XSP16, literal(-5)))
          CFI (cfiCond250) ?RET_HIGH load(1, XDATA, add(CFA_XSP16, literal(-4)))
          CFI (cfiCond250) ?BRET_EXT load(1, XDATA, add(CFA_XSP16, literal(-3)))
          CFI (cfiCond250) DPL0 load(1, XDATA, add(CFA_XSP16, literal(-2)))
          CFI (cfiCond250) DPH0 load(1, XDATA, add(CFA_XSP16, literal(-1)))
          CFI (cfiCond250) CFA_SP SP+-2
          CFI (cfiCond250) CFA_XSP16 add(XSP16, 18)
          CFI Block cfiCond251 Using cfiCommon0
          CFI (cfiCond251) Function bdb_ProcessRespondentList
          CFI (cfiCond251) Conditional ??CrossCallReturnLabel_81
          CFI (cfiCond251) R6 load(1, XDATA, add(CFA_XSP16, literal(-9)))
          CFI (cfiCond251) VB load(1, XDATA, add(CFA_XSP16, literal(-8)))
          CFI (cfiCond251) V0 load(1, XDATA, add(CFA_XSP16, literal(-7)))
          CFI (cfiCond251) R7 load(1, XDATA, add(CFA_XSP16, literal(-6)))
          CFI (cfiCond251) ?RET_LOW load(1, XDATA, add(CFA_XSP16, literal(-5)))
          CFI (cfiCond251) ?RET_HIGH load(1, XDATA, add(CFA_XSP16, literal(-4)))
          CFI (cfiCond251) ?BRET_EXT load(1, XDATA, add(CFA_XSP16, literal(-3)))
          CFI (cfiCond251) DPL0 load(1, XDATA, add(CFA_XSP16, literal(-2)))
          CFI (cfiCond251) DPH0 load(1, XDATA, add(CFA_XSP16, literal(-1)))
          CFI (cfiCond251) CFA_SP SP+-2
          CFI (cfiCond251) CFA_XSP16 add(XSP16, 18)
          CFI Block cfiCond252 Using cfiCommon0
          CFI (cfiCond252) Function bdb_ProcessRespondentList
          CFI (cfiCond252) Conditional ??CrossCallReturnLabel_82
          CFI (cfiCond252) R6 load(1, XDATA, add(CFA_XSP16, literal(-9)))
          CFI (cfiCond252) VB load(1, XDATA, add(CFA_XSP16, literal(-8)))
          CFI (cfiCond252) V0 load(1, XDATA, add(CFA_XSP16, literal(-7)))
          CFI (cfiCond252) R7 load(1, XDATA, add(CFA_XSP16, literal(-6)))
          CFI (cfiCond252) ?RET_LOW load(1, XDATA, add(CFA_XSP16, literal(-5)))
          CFI (cfiCond252) ?RET_HIGH load(1, XDATA, add(CFA_XSP16, literal(-4)))
          CFI (cfiCond252) ?BRET_EXT load(1, XDATA, add(CFA_XSP16, literal(-3)))
          CFI (cfiCond252) DPL0 load(1, XDATA, add(CFA_XSP16, literal(-2)))
          CFI (cfiCond252) DPH0 load(1, XDATA, add(CFA_XSP16, literal(-1)))
          CFI (cfiCond252) CFA_SP SP+-2
          CFI (cfiCond252) CFA_XSP16 add(XSP16, 18)
          CFI Block cfiCond253 Using cfiCommon0
          CFI (cfiCond253) Function bdb_zclFindingBindingAddBindEntry
          CFI (cfiCond253) Conditional ??CrossCallReturnLabel_84
          CFI (cfiCond253) R6 load(1, XDATA, add(CFA_XSP16, literal(-12)))
          CFI (cfiCond253) VB load(1, XDATA, add(CFA_XSP16, literal(-11)))
          CFI (cfiCond253) V0 load(1, XDATA, add(CFA_XSP16, literal(-10)))
          CFI (cfiCond253) V1 load(1, XDATA, add(CFA_XSP16, literal(-9)))
          CFI (cfiCond253) V2 load(1, XDATA, add(CFA_XSP16, literal(-8)))
          CFI (cfiCond253) V3 load(1, XDATA, add(CFA_XSP16, literal(-7)))
          CFI (cfiCond253) R7 load(1, XDATA, add(CFA_XSP16, literal(-6)))
          CFI (cfiCond253) ?RET_LOW load(1, XDATA, add(CFA_XSP16, literal(-5)))
          CFI (cfiCond253) ?RET_HIGH load(1, XDATA, add(CFA_XSP16, literal(-4)))
          CFI (cfiCond253) ?BRET_EXT load(1, XDATA, add(CFA_XSP16, literal(-3)))
          CFI (cfiCond253) DPL0 load(1, XDATA, add(CFA_XSP16, literal(-2)))
          CFI (cfiCond253) DPH0 load(1, XDATA, add(CFA_XSP16, literal(-1)))
          CFI (cfiCond253) CFA_SP SP+-2
          CFI (cfiCond253) CFA_XSP16 add(XSP16, 14)
          CFI Block cfiCond254 Using cfiCommon0
          CFI (cfiCond254) Function bdb_SendIdentifyQueryWithAddr
          CFI (cfiCond254) Conditional ??CrossCallReturnLabel_85
          CFI (cfiCond254) R6 load(1, XDATA, add(CFA_XSP16, literal(-10)))
          CFI (cfiCond254) VB load(1, XDATA, add(CFA_XSP16, literal(-9)))
          CFI (cfiCond254) V0 load(1, XDATA, add(CFA_XSP16, literal(-8)))
          CFI (cfiCond254) V1 load(1, XDATA, add(CFA_XSP16, literal(-7)))
          CFI (cfiCond254) R7 load(1, XDATA, add(CFA_XSP16, literal(-6)))
          CFI (cfiCond254) ?RET_LOW load(1, XDATA, add(CFA_XSP16, literal(-5)))
          CFI (cfiCond254) ?RET_HIGH load(1, XDATA, add(CFA_XSP16, literal(-4)))
          CFI (cfiCond254) ?BRET_EXT load(1, XDATA, add(CFA_XSP16, literal(-3)))
          CFI (cfiCond254) DPL0 load(1, XDATA, add(CFA_XSP16, literal(-2)))
          CFI (cfiCond254) DPH0 load(1, XDATA, add(CFA_XSP16, literal(-1)))
          CFI (cfiCond254) CFA_SP SP+-2
          CFI (cfiCond254) CFA_XSP16 add(XSP16, 22)
          CFI Block cfiPicker255 Using cfiCommon1
          CFI (cfiPicker255) NoFunction
          CFI (cfiPicker255) Picker
        MOV       A,R2
        MOVX      @DPTR,A
        INC       DPTR
        MOV       A,R3
        MOVX      @DPTR,A
        RET
          CFI EndBlock cfiCond246
          CFI EndBlock cfiCond247
          CFI EndBlock cfiCond248
          CFI EndBlock cfiCond249
          CFI EndBlock cfiCond250
          CFI EndBlock cfiCond251
          CFI EndBlock cfiCond252
          CFI EndBlock cfiCond253
          CFI EndBlock cfiCond254
          CFI EndBlock cfiPicker255

        RSEG BANKED_CODE:HUGECODE:NOROOT(0)
?Subroutine12:
          CFI Block cfiCond256 Using cfiCommon0
          CFI Function bdb_ProcessRespondentList
          CFI Conditional ??CrossCallReturnLabel_87
          CFI R6 load(1, XDATA, add(CFA_XSP16, literal(-9)))
          CFI VB load(1, XDATA, add(CFA_XSP16, literal(-8)))
          CFI V0 load(1, XDATA, add(CFA_XSP16, literal(-7)))
          CFI R7 load(1, XDATA, add(CFA_XSP16, literal(-6)))
          CFI ?RET_LOW load(1, XDATA, add(CFA_XSP16, literal(-5)))
          CFI ?RET_HIGH load(1, XDATA, add(CFA_XSP16, literal(-4)))
          CFI ?BRET_EXT load(1, XDATA, add(CFA_XSP16, literal(-3)))
          CFI DPL0 load(1, XDATA, add(CFA_XSP16, literal(-2)))
          CFI DPH0 load(1, XDATA, add(CFA_XSP16, literal(-1)))
          CFI CFA_SP SP+-2
          CFI CFA_XSP16 add(XSP16, 18)
          CFI Block cfiCond257 Using cfiCommon0
          CFI (cfiCond257) Function bdb_ProcessRespondentList
          CFI (cfiCond257) Conditional ??CrossCallReturnLabel_88
          CFI (cfiCond257) R6 load(1, XDATA, add(CFA_XSP16, literal(-9)))
          CFI (cfiCond257) VB load(1, XDATA, add(CFA_XSP16, literal(-8)))
          CFI (cfiCond257) V0 load(1, XDATA, add(CFA_XSP16, literal(-7)))
          CFI (cfiCond257) R7 load(1, XDATA, add(CFA_XSP16, literal(-6)))
          CFI (cfiCond257) ?RET_LOW load(1, XDATA, add(CFA_XSP16, literal(-5)))
          CFI (cfiCond257) ?RET_HIGH load(1, XDATA, add(CFA_XSP16, literal(-4)))
          CFI (cfiCond257) ?BRET_EXT load(1, XDATA, add(CFA_XSP16, literal(-3)))
          CFI (cfiCond257) DPL0 load(1, XDATA, add(CFA_XSP16, literal(-2)))
          CFI (cfiCond257) DPH0 load(1, XDATA, add(CFA_XSP16, literal(-1)))
          CFI (cfiCond257) CFA_SP SP+-2
          CFI (cfiCond257) CFA_XSP16 add(XSP16, 19)
          CFI Block cfiPicker258 Using cfiCommon1
          CFI (cfiPicker258) NoFunction
          CFI (cfiPicker258) Picker
        MOV       DPTR,#pRespondentCurr
          CFI EndBlock cfiCond256
          CFI EndBlock cfiCond257
          CFI EndBlock cfiPicker258
        REQUIRE ??Subroutine47_0
        ; // Fall through to label ??Subroutine47_0

        RSEG BANKED_CODE:HUGECODE:NOROOT(0)
??Subroutine47_0:
          CFI Block cfiCond259 Using cfiCommon0
          CFI Function bdb_ProcessRespondentList
          CFI Conditional ??CrossCallReturnLabel_86
          CFI R6 load(1, XDATA, add(CFA_XSP16, literal(-9)))
          CFI VB load(1, XDATA, add(CFA_XSP16, literal(-8)))
          CFI V0 load(1, XDATA, add(CFA_XSP16, literal(-7)))
          CFI R7 load(1, XDATA, add(CFA_XSP16, literal(-6)))
          CFI ?RET_LOW load(1, XDATA, add(CFA_XSP16, literal(-5)))
          CFI ?RET_HIGH load(1, XDATA, add(CFA_XSP16, literal(-4)))
          CFI ?BRET_EXT load(1, XDATA, add(CFA_XSP16, literal(-3)))
          CFI DPL0 load(1, XDATA, add(CFA_XSP16, literal(-2)))
          CFI DPH0 load(1, XDATA, add(CFA_XSP16, literal(-1)))
          CFI CFA_SP SP+-2
          CFI CFA_XSP16 add(XSP16, 18)
          CFI Block cfiCond260 Using cfiCommon0
          CFI (cfiCond260) Function bdb_ProcessRespondentList
          CFI (cfiCond260) Conditional ??CrossCallReturnLabel_87
          CFI (cfiCond260) R6 load(1, XDATA, add(CFA_XSP16, literal(-9)))
          CFI (cfiCond260) VB load(1, XDATA, add(CFA_XSP16, literal(-8)))
          CFI (cfiCond260) V0 load(1, XDATA, add(CFA_XSP16, literal(-7)))
          CFI (cfiCond260) R7 load(1, XDATA, add(CFA_XSP16, literal(-6)))
          CFI (cfiCond260) ?RET_LOW load(1, XDATA, add(CFA_XSP16, literal(-5)))
          CFI (cfiCond260) ?RET_HIGH load(1, XDATA, add(CFA_XSP16, literal(-4)))
          CFI (cfiCond260) ?BRET_EXT load(1, XDATA, add(CFA_XSP16, literal(-3)))
          CFI (cfiCond260) DPL0 load(1, XDATA, add(CFA_XSP16, literal(-2)))
          CFI (cfiCond260) DPH0 load(1, XDATA, add(CFA_XSP16, literal(-1)))
          CFI (cfiCond260) CFA_SP SP+-2
          CFI (cfiCond260) CFA_XSP16 add(XSP16, 18)
          CFI Block cfiCond261 Using cfiCommon0
          CFI (cfiCond261) Function bdb_ProcessRespondentList
          CFI (cfiCond261) Conditional ??CrossCallReturnLabel_88
          CFI (cfiCond261) R6 load(1, XDATA, add(CFA_XSP16, literal(-9)))
          CFI (cfiCond261) VB load(1, XDATA, add(CFA_XSP16, literal(-8)))
          CFI (cfiCond261) V0 load(1, XDATA, add(CFA_XSP16, literal(-7)))
          CFI (cfiCond261) R7 load(1, XDATA, add(CFA_XSP16, literal(-6)))
          CFI (cfiCond261) ?RET_LOW load(1, XDATA, add(CFA_XSP16, literal(-5)))
          CFI (cfiCond261) ?RET_HIGH load(1, XDATA, add(CFA_XSP16, literal(-4)))
          CFI (cfiCond261) ?BRET_EXT load(1, XDATA, add(CFA_XSP16, literal(-3)))
          CFI (cfiCond261) DPL0 load(1, XDATA, add(CFA_XSP16, literal(-2)))
          CFI (cfiCond261) DPH0 load(1, XDATA, add(CFA_XSP16, literal(-1)))
          CFI (cfiCond261) CFA_SP SP+-2
          CFI (cfiCond261) CFA_XSP16 add(XSP16, 19)
          CFI Block cfiPicker262 Using cfiCommon1
          CFI (cfiPicker262) NoFunction
          CFI (cfiPicker262) Picker
        LCALL     ?Subroutine28 & 0xFFFF
??CrossCallReturnLabel_91:
        RET
          CFI EndBlock cfiCond259
          CFI EndBlock cfiCond260
          CFI EndBlock cfiCond261
          CFI EndBlock cfiPicker262

        RSEG BANKED_CODE:HUGECODE:NOROOT(0)
?Subroutine28:
          CFI Block cfiCond263 Using cfiCommon0
          CFI Function bdb_setEpDescListToActiveEndpoint
          CFI Conditional ??CrossCallReturnLabel_90, ??CrossCallReturnLabel_3
          CFI DPL0 Frame(CFA_SP, 4)
          CFI DPH0 Frame(CFA_SP, 5)
          CFI CFA_SP SP+-9
          CFI Block cfiCond264 Using cfiCommon0
          CFI (cfiCond264) Function bdb_setEpDescListToActiveEndpoint
          CFI (cfiCond264) Conditional ??CrossCallReturnLabel_90, ??CrossCallReturnLabel_4
          CFI (cfiCond264) DPL0 Frame(CFA_SP, 4)
          CFI (cfiCond264) DPH0 Frame(CFA_SP, 5)
          CFI (cfiCond264) CFA_SP SP+-9
          CFI Block cfiCond265 Using cfiCommon0
          CFI (cfiCond265) Function bdb_checkMatchingEndpoints
          CFI (cfiCond265) Conditional ??CrossCallReturnLabel_90, ??CrossCallReturnLabel_5
          CFI (cfiCond265) R6 load(1, XDATA, add(CFA_XSP16, literal(-16)))
          CFI (cfiCond265) VB load(1, XDATA, add(CFA_XSP16, literal(-15)))
          CFI (cfiCond265) V0 load(1, XDATA, add(CFA_XSP16, literal(-14)))
          CFI (cfiCond265) V1 load(1, XDATA, add(CFA_XSP16, literal(-13)))
          CFI (cfiCond265) V2 load(1, XDATA, add(CFA_XSP16, literal(-12)))
          CFI (cfiCond265) V3 load(1, XDATA, add(CFA_XSP16, literal(-11)))
          CFI (cfiCond265) V4 load(1, XDATA, add(CFA_XSP16, literal(-10)))
          CFI (cfiCond265) V5 load(1, XDATA, add(CFA_XSP16, literal(-9)))
          CFI (cfiCond265) V6 load(1, XDATA, add(CFA_XSP16, literal(-8)))
          CFI (cfiCond265) V7 load(1, XDATA, add(CFA_XSP16, literal(-7)))
          CFI (cfiCond265) R7 load(1, XDATA, add(CFA_XSP16, literal(-6)))
          CFI (cfiCond265) ?RET_LOW load(1, XDATA, add(CFA_XSP16, literal(-5)))
          CFI (cfiCond265) ?RET_HIGH load(1, XDATA, add(CFA_XSP16, literal(-4)))
          CFI (cfiCond265) ?BRET_EXT load(1, XDATA, add(CFA_XSP16, literal(-3)))
          CFI (cfiCond265) DPL0 load(1, XDATA, add(CFA_XSP16, literal(-2)))
          CFI (cfiCond265) DPH0 load(1, XDATA, add(CFA_XSP16, literal(-1)))
          CFI (cfiCond265) CFA_SP SP+-4
          CFI (cfiCond265) CFA_XSP16 add(XSP16, 29)
          CFI Block cfiCond266 Using cfiCommon0
          CFI (cfiCond266) Function bdb_setEpDescListToActiveEndpoint
          CFI (cfiCond266) Conditional ??CrossCallReturnLabel_89, ??CrossCallReturnLabel_0
          CFI (cfiCond266) DPL0 Frame(CFA_SP, 4)
          CFI (cfiCond266) DPH0 Frame(CFA_SP, 5)
          CFI (cfiCond266) CFA_SP SP+-9
          CFI Block cfiCond267 Using cfiCommon0
          CFI (cfiCond267) Function bdb_setEpDescListToActiveEndpoint
          CFI (cfiCond267) Conditional ??CrossCallReturnLabel_89, ??CrossCallReturnLabel_1
          CFI (cfiCond267) DPL0 Frame(CFA_SP, 4)
          CFI (cfiCond267) DPH0 Frame(CFA_SP, 5)
          CFI (cfiCond267) CFA_SP SP+-9
          CFI Block cfiCond268 Using cfiCommon0
          CFI (cfiCond268) Function bdb_checkMatchingEndpoints
          CFI (cfiCond268) Conditional ??CrossCallReturnLabel_89, ??CrossCallReturnLabel_2
          CFI (cfiCond268) R6 load(1, XDATA, add(CFA_XSP16, literal(-16)))
          CFI (cfiCond268) VB load(1, XDATA, add(CFA_XSP16, literal(-15)))
          CFI (cfiCond268) V0 load(1, XDATA, add(CFA_XSP16, literal(-14)))
          CFI (cfiCond268) V1 load(1, XDATA, add(CFA_XSP16, literal(-13)))
          CFI (cfiCond268) V2 load(1, XDATA, add(CFA_XSP16, literal(-12)))
          CFI (cfiCond268) V3 load(1, XDATA, add(CFA_XSP16, literal(-11)))
          CFI (cfiCond268) V4 load(1, XDATA, add(CFA_XSP16, literal(-10)))
          CFI (cfiCond268) V5 load(1, XDATA, add(CFA_XSP16, literal(-9)))
          CFI (cfiCond268) V6 load(1, XDATA, add(CFA_XSP16, literal(-8)))
          CFI (cfiCond268) V7 load(1, XDATA, add(CFA_XSP16, literal(-7)))
          CFI (cfiCond268) R7 load(1, XDATA, add(CFA_XSP16, literal(-6)))
          CFI (cfiCond268) ?RET_LOW load(1, XDATA, add(CFA_XSP16, literal(-5)))
          CFI (cfiCond268) ?RET_HIGH load(1, XDATA, add(CFA_XSP16, literal(-4)))
          CFI (cfiCond268) ?BRET_EXT load(1, XDATA, add(CFA_XSP16, literal(-3)))
          CFI (cfiCond268) DPL0 load(1, XDATA, add(CFA_XSP16, literal(-2)))
          CFI (cfiCond268) DPH0 load(1, XDATA, add(CFA_XSP16, literal(-1)))
          CFI (cfiCond268) CFA_SP SP+-4
          CFI (cfiCond268) CFA_XSP16 add(XSP16, 29)
          CFI Block cfiCond269 Using cfiCommon0
          CFI (cfiCond269) Function bdb_ProcessRespondentList
          CFI (cfiCond269) Conditional ??CrossCallReturnLabel_91, ??CrossCallReturnLabel_87
          CFI (cfiCond269) R6 load(1, XDATA, add(CFA_XSP16, literal(-9)))
          CFI (cfiCond269) VB load(1, XDATA, add(CFA_XSP16, literal(-8)))
          CFI (cfiCond269) V0 load(1, XDATA, add(CFA_XSP16, literal(-7)))
          CFI (cfiCond269) R7 load(1, XDATA, add(CFA_XSP16, literal(-6)))
          CFI (cfiCond269) ?RET_LOW load(1, XDATA, add(CFA_XSP16, literal(-5)))
          CFI (cfiCond269) ?RET_HIGH load(1, XDATA, add(CFA_XSP16, literal(-4)))
          CFI (cfiCond269) ?BRET_EXT load(1, XDATA, add(CFA_XSP16, literal(-3)))
          CFI (cfiCond269) DPL0 load(1, XDATA, add(CFA_XSP16, literal(-2)))
          CFI (cfiCond269) DPH0 load(1, XDATA, add(CFA_XSP16, literal(-1)))
          CFI (cfiCond269) CFA_SP SP+-4
          CFI (cfiCond269) CFA_XSP16 add(XSP16, 18)
          CFI Block cfiCond270 Using cfiCommon0
          CFI (cfiCond270) Function bdb_ProcessRespondentList
          CFI (cfiCond270) Conditional ??CrossCallReturnLabel_91, ??CrossCallReturnLabel_88
          CFI (cfiCond270) R6 load(1, XDATA, add(CFA_XSP16, literal(-9)))
          CFI (cfiCond270) VB load(1, XDATA, add(CFA_XSP16, literal(-8)))
          CFI (cfiCond270) V0 load(1, XDATA, add(CFA_XSP16, literal(-7)))
          CFI (cfiCond270) R7 load(1, XDATA, add(CFA_XSP16, literal(-6)))
          CFI (cfiCond270) ?RET_LOW load(1, XDATA, add(CFA_XSP16, literal(-5)))
          CFI (cfiCond270) ?RET_HIGH load(1, XDATA, add(CFA_XSP16, literal(-4)))
          CFI (cfiCond270) ?BRET_EXT load(1, XDATA, add(CFA_XSP16, literal(-3)))
          CFI (cfiCond270) DPL0 load(1, XDATA, add(CFA_XSP16, literal(-2)))
          CFI (cfiCond270) DPH0 load(1, XDATA, add(CFA_XSP16, literal(-1)))
          CFI (cfiCond270) CFA_SP SP+-4
          CFI (cfiCond270) CFA_XSP16 add(XSP16, 19)
          CFI Block cfiCond271 Using cfiCommon0
          CFI (cfiCond271) Function bdb_ProcessRespondentList
          CFI (cfiCond271) Conditional ??CrossCallReturnLabel_91, ??CrossCallReturnLabel_86
          CFI (cfiCond271) R6 load(1, XDATA, add(CFA_XSP16, literal(-9)))
          CFI (cfiCond271) VB load(1, XDATA, add(CFA_XSP16, literal(-8)))
          CFI (cfiCond271) V0 load(1, XDATA, add(CFA_XSP16, literal(-7)))
          CFI (cfiCond271) R7 load(1, XDATA, add(CFA_XSP16, literal(-6)))
          CFI (cfiCond271) ?RET_LOW load(1, XDATA, add(CFA_XSP16, literal(-5)))
          CFI (cfiCond271) ?RET_HIGH load(1, XDATA, add(CFA_XSP16, literal(-4)))
          CFI (cfiCond271) ?BRET_EXT load(1, XDATA, add(CFA_XSP16, literal(-3)))
          CFI (cfiCond271) DPL0 load(1, XDATA, add(CFA_XSP16, literal(-2)))
          CFI (cfiCond271) DPH0 load(1, XDATA, add(CFA_XSP16, literal(-1)))
          CFI (cfiCond271) CFA_SP SP+-4
          CFI (cfiCond271) CFA_XSP16 add(XSP16, 18)
          CFI Block cfiPicker272 Using cfiCommon1
          CFI (cfiPicker272) NoFunction
          CFI (cfiPicker272) Picker
        LCALL     ?Subroutine32 & 0xFFFF
??CrossCallReturnLabel_117:
        MOV       DPH,A
        MOV       DPL,R0
        MOVX      A,@DPTR
        RET
          CFI EndBlock cfiCond263
          CFI EndBlock cfiCond264
          CFI EndBlock cfiCond265
          CFI EndBlock cfiCond266
          CFI EndBlock cfiCond267
          CFI EndBlock cfiCond268
          CFI EndBlock cfiCond269
          CFI EndBlock cfiCond270
          CFI EndBlock cfiCond271
          CFI EndBlock cfiPicker272

        RSEG BANKED_CODE:HUGECODE:NOROOT(0)
?Subroutine6:
          CFI Block cfiCond273 Using cfiCommon0
          CFI Function bdb_ProcessRespondentList
          CFI Conditional ??CrossCallReturnLabel_92
          CFI R6 load(1, XDATA, add(CFA_XSP16, literal(-9)))
          CFI VB load(1, XDATA, add(CFA_XSP16, literal(-8)))
          CFI V0 load(1, XDATA, add(CFA_XSP16, literal(-7)))
          CFI R7 load(1, XDATA, add(CFA_XSP16, literal(-6)))
          CFI ?RET_LOW load(1, XDATA, add(CFA_XSP16, literal(-5)))
          CFI ?RET_HIGH load(1, XDATA, add(CFA_XSP16, literal(-4)))
          CFI ?BRET_EXT load(1, XDATA, add(CFA_XSP16, literal(-3)))
          CFI DPL0 load(1, XDATA, add(CFA_XSP16, literal(-2)))
          CFI DPH0 load(1, XDATA, add(CFA_XSP16, literal(-1)))
          CFI CFA_SP SP+-2
          CFI CFA_XSP16 add(XSP16, 18)
          CFI Block cfiCond274 Using cfiCommon0
          CFI (cfiCond274) Function bdb_ProcessRespondentList
          CFI (cfiCond274) Conditional ??CrossCallReturnLabel_93
          CFI (cfiCond274) R6 load(1, XDATA, add(CFA_XSP16, literal(-9)))
          CFI (cfiCond274) VB load(1, XDATA, add(CFA_XSP16, literal(-8)))
          CFI (cfiCond274) V0 load(1, XDATA, add(CFA_XSP16, literal(-7)))
          CFI (cfiCond274) R7 load(1, XDATA, add(CFA_XSP16, literal(-6)))
          CFI (cfiCond274) ?RET_LOW load(1, XDATA, add(CFA_XSP16, literal(-5)))
          CFI (cfiCond274) ?RET_HIGH load(1, XDATA, add(CFA_XSP16, literal(-4)))
          CFI (cfiCond274) ?BRET_EXT load(1, XDATA, add(CFA_XSP16, literal(-3)))
          CFI (cfiCond274) DPL0 load(1, XDATA, add(CFA_XSP16, literal(-2)))
          CFI (cfiCond274) DPH0 load(1, XDATA, add(CFA_XSP16, literal(-1)))
          CFI (cfiCond274) CFA_SP SP+-2
          CFI (cfiCond274) CFA_XSP16 add(XSP16, 18)
          CFI Block cfiPicker275 Using cfiCommon1
          CFI (cfiPicker275) NoFunction
          CFI (cfiPicker275) Picker
        MOVX      @DPTR,A
        MOV       DPTR,#pRespondentCurr
          CFI EndBlock cfiCond273
          CFI EndBlock cfiCond274
          CFI EndBlock cfiPicker275
        REQUIRE ??Subroutine48_0
        ; // Fall through to label ??Subroutine48_0

        RSEG BANKED_CODE:HUGECODE:NOROOT(0)
??Subroutine48_0:
          CFI Block cfiCond276 Using cfiCommon0
          CFI Function bdb_ProcessSimpleDesc
          CFI Conditional ??CrossCallReturnLabel_94
          CFI R6 load(1, XDATA, add(CFA_XSP16, literal(-9)))
          CFI VB load(1, XDATA, add(CFA_XSP16, literal(-8)))
          CFI V0 load(1, XDATA, add(CFA_XSP16, literal(-7)))
          CFI R7 load(1, XDATA, add(CFA_XSP16, literal(-6)))
          CFI ?RET_LOW load(1, XDATA, add(CFA_XSP16, literal(-5)))
          CFI ?RET_HIGH load(1, XDATA, add(CFA_XSP16, literal(-4)))
          CFI ?BRET_EXT load(1, XDATA, add(CFA_XSP16, literal(-3)))
          CFI DPL0 load(1, XDATA, add(CFA_XSP16, literal(-2)))
          CFI DPH0 load(1, XDATA, add(CFA_XSP16, literal(-1)))
          CFI CFA_SP SP+-2
          CFI CFA_XSP16 add(XSP16, 28)
          CFI Block cfiCond277 Using cfiCommon0
          CFI (cfiCond277) Function bdb_ProcessRespondentList
          CFI (cfiCond277) Conditional ??CrossCallReturnLabel_95
          CFI (cfiCond277) R6 load(1, XDATA, add(CFA_XSP16, literal(-9)))
          CFI (cfiCond277) VB load(1, XDATA, add(CFA_XSP16, literal(-8)))
          CFI (cfiCond277) V0 load(1, XDATA, add(CFA_XSP16, literal(-7)))
          CFI (cfiCond277) R7 load(1, XDATA, add(CFA_XSP16, literal(-6)))
          CFI (cfiCond277) ?RET_LOW load(1, XDATA, add(CFA_XSP16, literal(-5)))
          CFI (cfiCond277) ?RET_HIGH load(1, XDATA, add(CFA_XSP16, literal(-4)))
          CFI (cfiCond277) ?BRET_EXT load(1, XDATA, add(CFA_XSP16, literal(-3)))
          CFI (cfiCond277) DPL0 load(1, XDATA, add(CFA_XSP16, literal(-2)))
          CFI (cfiCond277) DPH0 load(1, XDATA, add(CFA_XSP16, literal(-1)))
          CFI (cfiCond277) CFA_SP SP+-2
          CFI (cfiCond277) CFA_XSP16 add(XSP16, 18)
          CFI Block cfiCond278 Using cfiCommon0
          CFI (cfiCond278) Function bdb_ProcessRespondentList
          CFI (cfiCond278) Conditional ??CrossCallReturnLabel_92
          CFI (cfiCond278) R6 load(1, XDATA, add(CFA_XSP16, literal(-9)))
          CFI (cfiCond278) VB load(1, XDATA, add(CFA_XSP16, literal(-8)))
          CFI (cfiCond278) V0 load(1, XDATA, add(CFA_XSP16, literal(-7)))
          CFI (cfiCond278) R7 load(1, XDATA, add(CFA_XSP16, literal(-6)))
          CFI (cfiCond278) ?RET_LOW load(1, XDATA, add(CFA_XSP16, literal(-5)))
          CFI (cfiCond278) ?RET_HIGH load(1, XDATA, add(CFA_XSP16, literal(-4)))
          CFI (cfiCond278) ?BRET_EXT load(1, XDATA, add(CFA_XSP16, literal(-3)))
          CFI (cfiCond278) DPL0 load(1, XDATA, add(CFA_XSP16, literal(-2)))
          CFI (cfiCond278) DPH0 load(1, XDATA, add(CFA_XSP16, literal(-1)))
          CFI (cfiCond278) CFA_SP SP+-2
          CFI (cfiCond278) CFA_XSP16 add(XSP16, 18)
          CFI Block cfiCond279 Using cfiCommon0
          CFI (cfiCond279) Function bdb_ProcessRespondentList
          CFI (cfiCond279) Conditional ??CrossCallReturnLabel_93
          CFI (cfiCond279) R6 load(1, XDATA, add(CFA_XSP16, literal(-9)))
          CFI (cfiCond279) VB load(1, XDATA, add(CFA_XSP16, literal(-8)))
          CFI (cfiCond279) V0 load(1, XDATA, add(CFA_XSP16, literal(-7)))
          CFI (cfiCond279) R7 load(1, XDATA, add(CFA_XSP16, literal(-6)))
          CFI (cfiCond279) ?RET_LOW load(1, XDATA, add(CFA_XSP16, literal(-5)))
          CFI (cfiCond279) ?RET_HIGH load(1, XDATA, add(CFA_XSP16, literal(-4)))
          CFI (cfiCond279) ?BRET_EXT load(1, XDATA, add(CFA_XSP16, literal(-3)))
          CFI (cfiCond279) DPL0 load(1, XDATA, add(CFA_XSP16, literal(-2)))
          CFI (cfiCond279) DPH0 load(1, XDATA, add(CFA_XSP16, literal(-1)))
          CFI (cfiCond279) CFA_SP SP+-2
          CFI (cfiCond279) CFA_XSP16 add(XSP16, 18)
          CFI Block cfiPicker280 Using cfiCommon1
          CFI (cfiPicker280) NoFunction
          CFI (cfiPicker280) Picker
        LCALL     ?Subroutine27 & 0xFFFF
??CrossCallReturnLabel_97:
        MOVX      A,@DPTR
        RET
          CFI EndBlock cfiCond276
          CFI EndBlock cfiCond277
          CFI EndBlock cfiCond278
          CFI EndBlock cfiCond279
          CFI EndBlock cfiPicker280

        RSEG BANKED_CODE:HUGECODE:NOROOT(0)
?Subroutine4:
          CFI Block cfiCond281 Using cfiCommon0
          CFI Function bdb_ProcessIEEEAddrRsp
          CFI Conditional ??CrossCallReturnLabel_100
          CFI R6 load(1, XDATA, add(CFA_XSP16, literal(-10)))
          CFI VB load(1, XDATA, add(CFA_XSP16, literal(-9)))
          CFI V0 load(1, XDATA, add(CFA_XSP16, literal(-8)))
          CFI V1 load(1, XDATA, add(CFA_XSP16, literal(-7)))
          CFI R7 load(1, XDATA, add(CFA_XSP16, literal(-6)))
          CFI ?RET_LOW load(1, XDATA, add(CFA_XSP16, literal(-5)))
          CFI ?RET_HIGH load(1, XDATA, add(CFA_XSP16, literal(-4)))
          CFI ?BRET_EXT load(1, XDATA, add(CFA_XSP16, literal(-3)))
          CFI DPL0 load(1, XDATA, add(CFA_XSP16, literal(-2)))
          CFI DPH0 load(1, XDATA, add(CFA_XSP16, literal(-1)))
          CFI CFA_SP SP+-2
          CFI CFA_XSP16 add(XSP16, 25)
          CFI Block cfiCond282 Using cfiCommon0
          CFI (cfiCond282) Function bdb_ProcessSimpleDesc
          CFI (cfiCond282) Conditional ??CrossCallReturnLabel_101
          CFI (cfiCond282) R6 load(1, XDATA, add(CFA_XSP16, literal(-9)))
          CFI (cfiCond282) VB load(1, XDATA, add(CFA_XSP16, literal(-8)))
          CFI (cfiCond282) V0 load(1, XDATA, add(CFA_XSP16, literal(-7)))
          CFI (cfiCond282) R7 load(1, XDATA, add(CFA_XSP16, literal(-6)))
          CFI (cfiCond282) ?RET_LOW load(1, XDATA, add(CFA_XSP16, literal(-5)))
          CFI (cfiCond282) ?RET_HIGH load(1, XDATA, add(CFA_XSP16, literal(-4)))
          CFI (cfiCond282) ?BRET_EXT load(1, XDATA, add(CFA_XSP16, literal(-3)))
          CFI (cfiCond282) DPL0 load(1, XDATA, add(CFA_XSP16, literal(-2)))
          CFI (cfiCond282) DPH0 load(1, XDATA, add(CFA_XSP16, literal(-1)))
          CFI (cfiCond282) CFA_SP SP+-2
          CFI (cfiCond282) CFA_XSP16 add(XSP16, 28)
          CFI Block cfiPicker283 Using cfiCommon1
          CFI (cfiPicker283) NoFunction
          CFI (cfiPicker283) Picker
        MOV       DPL,?XSP + 0
        MOV       DPH,?XSP + 1
        MOV       A,R2
        MOVX      @DPTR,A
        INC       DPTR
        MOV       A,R3
        MOVX      @DPTR,A
          CFI EndBlock cfiCond281
          CFI EndBlock cfiCond282
          CFI EndBlock cfiPicker283
        REQUIRE ??Subroutine49_0
        ; // Fall through to label ??Subroutine49_0

        RSEG BANKED_CODE:HUGECODE:NOROOT(0)
??Subroutine49_0:
          CFI Block cfiCond284 Using cfiCommon0
          CFI Function bdb_GetFBInitiatorStatus
          CFI Conditional ??CrossCallReturnLabel_113
          CFI R6 load(1, XDATA, add(CFA_XSP16, literal(-16)))
          CFI VB load(1, XDATA, add(CFA_XSP16, literal(-15)))
          CFI V0 load(1, XDATA, add(CFA_XSP16, literal(-14)))
          CFI V1 load(1, XDATA, add(CFA_XSP16, literal(-13)))
          CFI V2 load(1, XDATA, add(CFA_XSP16, literal(-12)))
          CFI V3 load(1, XDATA, add(CFA_XSP16, literal(-11)))
          CFI V4 load(1, XDATA, add(CFA_XSP16, literal(-10)))
          CFI V5 load(1, XDATA, add(CFA_XSP16, literal(-9)))
          CFI V6 load(1, XDATA, add(CFA_XSP16, literal(-8)))
          CFI V7 load(1, XDATA, add(CFA_XSP16, literal(-7)))
          CFI R7 load(1, XDATA, add(CFA_XSP16, literal(-6)))
          CFI ?RET_LOW load(1, XDATA, add(CFA_XSP16, literal(-5)))
          CFI ?RET_HIGH load(1, XDATA, add(CFA_XSP16, literal(-4)))
          CFI ?BRET_EXT load(1, XDATA, add(CFA_XSP16, literal(-3)))
          CFI DPL0 load(1, XDATA, add(CFA_XSP16, literal(-2)))
          CFI DPH0 load(1, XDATA, add(CFA_XSP16, literal(-1)))
          CFI CFA_SP SP+-2
          CFI CFA_XSP16 add(XSP16, 18)
          CFI Block cfiCond285 Using cfiCommon0
          CFI (cfiCond285) Function bdb_ProcessIEEEAddrRsp
          CFI (cfiCond285) Conditional ??CrossCallReturnLabel_100
          CFI (cfiCond285) R6 load(1, XDATA, add(CFA_XSP16, literal(-10)))
          CFI (cfiCond285) VB load(1, XDATA, add(CFA_XSP16, literal(-9)))
          CFI (cfiCond285) V0 load(1, XDATA, add(CFA_XSP16, literal(-8)))
          CFI (cfiCond285) V1 load(1, XDATA, add(CFA_XSP16, literal(-7)))
          CFI (cfiCond285) R7 load(1, XDATA, add(CFA_XSP16, literal(-6)))
          CFI (cfiCond285) ?RET_LOW load(1, XDATA, add(CFA_XSP16, literal(-5)))
          CFI (cfiCond285) ?RET_HIGH load(1, XDATA, add(CFA_XSP16, literal(-4)))
          CFI (cfiCond285) ?BRET_EXT load(1, XDATA, add(CFA_XSP16, literal(-3)))
          CFI (cfiCond285) DPL0 load(1, XDATA, add(CFA_XSP16, literal(-2)))
          CFI (cfiCond285) DPH0 load(1, XDATA, add(CFA_XSP16, literal(-1)))
          CFI (cfiCond285) CFA_SP SP+-2
          CFI (cfiCond285) CFA_XSP16 add(XSP16, 25)
          CFI Block cfiCond286 Using cfiCommon0
          CFI (cfiCond286) Function bdb_ProcessSimpleDesc
          CFI (cfiCond286) Conditional ??CrossCallReturnLabel_101
          CFI (cfiCond286) R6 load(1, XDATA, add(CFA_XSP16, literal(-9)))
          CFI (cfiCond286) VB load(1, XDATA, add(CFA_XSP16, literal(-8)))
          CFI (cfiCond286) V0 load(1, XDATA, add(CFA_XSP16, literal(-7)))
          CFI (cfiCond286) R7 load(1, XDATA, add(CFA_XSP16, literal(-6)))
          CFI (cfiCond286) ?RET_LOW load(1, XDATA, add(CFA_XSP16, literal(-5)))
          CFI (cfiCond286) ?RET_HIGH load(1, XDATA, add(CFA_XSP16, literal(-4)))
          CFI (cfiCond286) ?BRET_EXT load(1, XDATA, add(CFA_XSP16, literal(-3)))
          CFI (cfiCond286) DPL0 load(1, XDATA, add(CFA_XSP16, literal(-2)))
          CFI (cfiCond286) DPH0 load(1, XDATA, add(CFA_XSP16, literal(-1)))
          CFI (cfiCond286) CFA_SP SP+-2
          CFI (cfiCond286) CFA_XSP16 add(XSP16, 28)
          CFI Block cfiPicker287 Using cfiCommon1
          CFI (cfiPicker287) NoFunction
          CFI (cfiPicker287) Picker
        MOV       DPL,?XSP + 0
        MOV       DPH,?XSP + 1
          CFI EndBlock cfiCond284
          CFI EndBlock cfiCond285
          CFI EndBlock cfiCond286
          CFI EndBlock cfiPicker287
        REQUIRE ??Subroutine50_0
        ; // Fall through to label ??Subroutine50_0

        RSEG BANKED_CODE:HUGECODE:NOROOT(0)
??Subroutine50_0:
          CFI Block cfiCond288 Using cfiCommon0
          CFI Function bdb_SetIdentifyActiveEndpoint
          CFI Conditional ??CrossCallReturnLabel_102
          CFI DPL0 Frame(CFA_SP, 4)
          CFI DPH0 Frame(CFA_SP, 5)
          CFI CFA_SP SP+-7
          CFI Block cfiCond289 Using cfiCommon0
          CFI (cfiCond289) Function bdb_setEpDescListToActiveEndpoint
          CFI (cfiCond289) Conditional ??CrossCallReturnLabel_103
          CFI (cfiCond289) DPL0 Frame(CFA_SP, 4)
          CFI (cfiCond289) DPH0 Frame(CFA_SP, 5)
          CFI (cfiCond289) CFA_SP SP+-7
          CFI Block cfiCond290 Using cfiCommon0
          CFI (cfiCond290) Function bdb_setEpDescListToActiveEndpoint
          CFI (cfiCond290) Conditional ??CrossCallReturnLabel_104
          CFI (cfiCond290) DPL0 Frame(CFA_SP, 4)
          CFI (cfiCond290) DPH0 Frame(CFA_SP, 5)
          CFI (cfiCond290) CFA_SP SP+-7
          CFI Block cfiCond291 Using cfiCommon0
          CFI (cfiCond291) Function bdb_checkMatchingEndpoints
          CFI (cfiCond291) Conditional ??CrossCallReturnLabel_105
          CFI (cfiCond291) R6 load(1, XDATA, add(CFA_XSP16, literal(-16)))
          CFI (cfiCond291) VB load(1, XDATA, add(CFA_XSP16, literal(-15)))
          CFI (cfiCond291) V0 load(1, XDATA, add(CFA_XSP16, literal(-14)))
          CFI (cfiCond291) V1 load(1, XDATA, add(CFA_XSP16, literal(-13)))
          CFI (cfiCond291) V2 load(1, XDATA, add(CFA_XSP16, literal(-12)))
          CFI (cfiCond291) V3 load(1, XDATA, add(CFA_XSP16, literal(-11)))
          CFI (cfiCond291) V4 load(1, XDATA, add(CFA_XSP16, literal(-10)))
          CFI (cfiCond291) V5 load(1, XDATA, add(CFA_XSP16, literal(-9)))
          CFI (cfiCond291) V6 load(1, XDATA, add(CFA_XSP16, literal(-8)))
          CFI (cfiCond291) V7 load(1, XDATA, add(CFA_XSP16, literal(-7)))
          CFI (cfiCond291) R7 load(1, XDATA, add(CFA_XSP16, literal(-6)))
          CFI (cfiCond291) ?RET_LOW load(1, XDATA, add(CFA_XSP16, literal(-5)))
          CFI (cfiCond291) ?RET_HIGH load(1, XDATA, add(CFA_XSP16, literal(-4)))
          CFI (cfiCond291) ?BRET_EXT load(1, XDATA, add(CFA_XSP16, literal(-3)))
          CFI (cfiCond291) DPL0 load(1, XDATA, add(CFA_XSP16, literal(-2)))
          CFI (cfiCond291) DPH0 load(1, XDATA, add(CFA_XSP16, literal(-1)))
          CFI (cfiCond291) CFA_SP SP+-2
          CFI (cfiCond291) CFA_XSP16 add(XSP16, 29)
          CFI Block cfiCond292 Using cfiCommon0
          CFI (cfiCond292) Function bdb_checkMatchingEndpoints
          CFI (cfiCond292) Conditional ??CrossCallReturnLabel_106
          CFI (cfiCond292) R6 load(1, XDATA, add(CFA_XSP16, literal(-16)))
          CFI (cfiCond292) VB load(1, XDATA, add(CFA_XSP16, literal(-15)))
          CFI (cfiCond292) V0 load(1, XDATA, add(CFA_XSP16, literal(-14)))
          CFI (cfiCond292) V1 load(1, XDATA, add(CFA_XSP16, literal(-13)))
          CFI (cfiCond292) V2 load(1, XDATA, add(CFA_XSP16, literal(-12)))
          CFI (cfiCond292) V3 load(1, XDATA, add(CFA_XSP16, literal(-11)))
          CFI (cfiCond292) V4 load(1, XDATA, add(CFA_XSP16, literal(-10)))
          CFI (cfiCond292) V5 load(1, XDATA, add(CFA_XSP16, literal(-9)))
          CFI (cfiCond292) V6 load(1, XDATA, add(CFA_XSP16, literal(-8)))
          CFI (cfiCond292) V7 load(1, XDATA, add(CFA_XSP16, literal(-7)))
          CFI (cfiCond292) R7 load(1, XDATA, add(CFA_XSP16, literal(-6)))
          CFI (cfiCond292) ?RET_LOW load(1, XDATA, add(CFA_XSP16, literal(-5)))
          CFI (cfiCond292) ?RET_HIGH load(1, XDATA, add(CFA_XSP16, literal(-4)))
          CFI (cfiCond292) ?BRET_EXT load(1, XDATA, add(CFA_XSP16, literal(-3)))
          CFI (cfiCond292) DPL0 load(1, XDATA, add(CFA_XSP16, literal(-2)))
          CFI (cfiCond292) DPH0 load(1, XDATA, add(CFA_XSP16, literal(-1)))
          CFI (cfiCond292) CFA_SP SP+-2
          CFI (cfiCond292) CFA_XSP16 add(XSP16, 29)
          CFI Block cfiCond293 Using cfiCommon0
          CFI (cfiCond293) Function bdb_zclFindingBindingAddBindEntry
          CFI (cfiCond293) Conditional ??CrossCallReturnLabel_107
          CFI (cfiCond293) R6 load(1, XDATA, add(CFA_XSP16, literal(-12)))
          CFI (cfiCond293) VB load(1, XDATA, add(CFA_XSP16, literal(-11)))
          CFI (cfiCond293) V0 load(1, XDATA, add(CFA_XSP16, literal(-10)))
          CFI (cfiCond293) V1 load(1, XDATA, add(CFA_XSP16, literal(-9)))
          CFI (cfiCond293) V2 load(1, XDATA, add(CFA_XSP16, literal(-8)))
          CFI (cfiCond293) V3 load(1, XDATA, add(CFA_XSP16, literal(-7)))
          CFI (cfiCond293) R7 load(1, XDATA, add(CFA_XSP16, literal(-6)))
          CFI (cfiCond293) ?RET_LOW load(1, XDATA, add(CFA_XSP16, literal(-5)))
          CFI (cfiCond293) ?RET_HIGH load(1, XDATA, add(CFA_XSP16, literal(-4)))
          CFI (cfiCond293) ?BRET_EXT load(1, XDATA, add(CFA_XSP16, literal(-3)))
          CFI (cfiCond293) DPL0 load(1, XDATA, add(CFA_XSP16, literal(-2)))
          CFI (cfiCond293) DPH0 load(1, XDATA, add(CFA_XSP16, literal(-1)))
          CFI (cfiCond293) CFA_SP SP+-2
          CFI (cfiCond293) CFA_XSP16 add(XSP16, 14)
          CFI Block cfiCond294 Using cfiCommon0
          CFI (cfiCond294) Function bdb_ProcessRespondentList
          CFI (cfiCond294) Conditional ??CrossCallReturnLabel_108
          CFI (cfiCond294) R6 load(1, XDATA, add(CFA_XSP16, literal(-9)))
          CFI (cfiCond294) VB load(1, XDATA, add(CFA_XSP16, literal(-8)))
          CFI (cfiCond294) V0 load(1, XDATA, add(CFA_XSP16, literal(-7)))
          CFI (cfiCond294) R7 load(1, XDATA, add(CFA_XSP16, literal(-6)))
          CFI (cfiCond294) ?RET_LOW load(1, XDATA, add(CFA_XSP16, literal(-5)))
          CFI (cfiCond294) ?RET_HIGH load(1, XDATA, add(CFA_XSP16, literal(-4)))
          CFI (cfiCond294) ?BRET_EXT load(1, XDATA, add(CFA_XSP16, literal(-3)))
          CFI (cfiCond294) DPL0 load(1, XDATA, add(CFA_XSP16, literal(-2)))
          CFI (cfiCond294) DPH0 load(1, XDATA, add(CFA_XSP16, literal(-1)))
          CFI (cfiCond294) CFA_SP SP+-2
          CFI (cfiCond294) CFA_XSP16 add(XSP16, 18)
          CFI Block cfiCond295 Using cfiCommon0
          CFI (cfiCond295) Function bdb_ProcessRespondentList
          CFI (cfiCond295) Conditional ??CrossCallReturnLabel_109
          CFI (cfiCond295) R6 load(1, XDATA, add(CFA_XSP16, literal(-9)))
          CFI (cfiCond295) VB load(1, XDATA, add(CFA_XSP16, literal(-8)))
          CFI (cfiCond295) V0 load(1, XDATA, add(CFA_XSP16, literal(-7)))
          CFI (cfiCond295) R7 load(1, XDATA, add(CFA_XSP16, literal(-6)))
          CFI (cfiCond295) ?RET_LOW load(1, XDATA, add(CFA_XSP16, literal(-5)))
          CFI (cfiCond295) ?RET_HIGH load(1, XDATA, add(CFA_XSP16, literal(-4)))
          CFI (cfiCond295) ?BRET_EXT load(1, XDATA, add(CFA_XSP16, literal(-3)))
          CFI (cfiCond295) DPL0 load(1, XDATA, add(CFA_XSP16, literal(-2)))
          CFI (cfiCond295) DPH0 load(1, XDATA, add(CFA_XSP16, literal(-1)))
          CFI (cfiCond295) CFA_SP SP+-2
          CFI (cfiCond295) CFA_XSP16 add(XSP16, 18)
          CFI Block cfiCond296 Using cfiCommon0
          CFI (cfiCond296) Function bdb_ProcessRespondentList
          CFI (cfiCond296) Conditional ??CrossCallReturnLabel_110
          CFI (cfiCond296) R6 load(1, XDATA, add(CFA_XSP16, literal(-9)))
          CFI (cfiCond296) VB load(1, XDATA, add(CFA_XSP16, literal(-8)))
          CFI (cfiCond296) V0 load(1, XDATA, add(CFA_XSP16, literal(-7)))
          CFI (cfiCond296) R7 load(1, XDATA, add(CFA_XSP16, literal(-6)))
          CFI (cfiCond296) ?RET_LOW load(1, XDATA, add(CFA_XSP16, literal(-5)))
          CFI (cfiCond296) ?RET_HIGH load(1, XDATA, add(CFA_XSP16, literal(-4)))
          CFI (cfiCond296) ?BRET_EXT load(1, XDATA, add(CFA_XSP16, literal(-3)))
          CFI (cfiCond296) DPL0 load(1, XDATA, add(CFA_XSP16, literal(-2)))
          CFI (cfiCond296) DPH0 load(1, XDATA, add(CFA_XSP16, literal(-1)))
          CFI (cfiCond296) CFA_SP SP+-2
          CFI (cfiCond296) CFA_XSP16 add(XSP16, 18)
          CFI Block cfiCond297 Using cfiCommon0
          CFI (cfiCond297) Function bdb_ProcessRespondentList
          CFI (cfiCond297) Conditional ??CrossCallReturnLabel_111
          CFI (cfiCond297) R6 load(1, XDATA, add(CFA_XSP16, literal(-9)))
          CFI (cfiCond297) VB load(1, XDATA, add(CFA_XSP16, literal(-8)))
          CFI (cfiCond297) V0 load(1, XDATA, add(CFA_XSP16, literal(-7)))
          CFI (cfiCond297) R7 load(1, XDATA, add(CFA_XSP16, literal(-6)))
          CFI (cfiCond297) ?RET_LOW load(1, XDATA, add(CFA_XSP16, literal(-5)))
          CFI (cfiCond297) ?RET_HIGH load(1, XDATA, add(CFA_XSP16, literal(-4)))
          CFI (cfiCond297) ?BRET_EXT load(1, XDATA, add(CFA_XSP16, literal(-3)))
          CFI (cfiCond297) DPL0 load(1, XDATA, add(CFA_XSP16, literal(-2)))
          CFI (cfiCond297) DPH0 load(1, XDATA, add(CFA_XSP16, literal(-1)))
          CFI (cfiCond297) CFA_SP SP+-2
          CFI (cfiCond297) CFA_XSP16 add(XSP16, 18)
          CFI Block cfiCond298 Using cfiCommon0
          CFI (cfiCond298) Function bdb_ProcessRespondentList
          CFI (cfiCond298) Conditional ??CrossCallReturnLabel_112
          CFI (cfiCond298) R6 load(1, XDATA, add(CFA_XSP16, literal(-9)))
          CFI (cfiCond298) VB load(1, XDATA, add(CFA_XSP16, literal(-8)))
          CFI (cfiCond298) V0 load(1, XDATA, add(CFA_XSP16, literal(-7)))
          CFI (cfiCond298) R7 load(1, XDATA, add(CFA_XSP16, literal(-6)))
          CFI (cfiCond298) ?RET_LOW load(1, XDATA, add(CFA_XSP16, literal(-5)))
          CFI (cfiCond298) ?RET_HIGH load(1, XDATA, add(CFA_XSP16, literal(-4)))
          CFI (cfiCond298) ?BRET_EXT load(1, XDATA, add(CFA_XSP16, literal(-3)))
          CFI (cfiCond298) DPL0 load(1, XDATA, add(CFA_XSP16, literal(-2)))
          CFI (cfiCond298) DPH0 load(1, XDATA, add(CFA_XSP16, literal(-1)))
          CFI (cfiCond298) CFA_SP SP+-2
          CFI (cfiCond298) CFA_XSP16 add(XSP16, 18)
          CFI Block cfiCond299 Using cfiCommon0
          CFI (cfiCond299) Function bdb_GetFBInitiatorStatus
          CFI (cfiCond299) Conditional ??CrossCallReturnLabel_113
          CFI (cfiCond299) R6 load(1, XDATA, add(CFA_XSP16, literal(-16)))
          CFI (cfiCond299) VB load(1, XDATA, add(CFA_XSP16, literal(-15)))
          CFI (cfiCond299) V0 load(1, XDATA, add(CFA_XSP16, literal(-14)))
          CFI (cfiCond299) V1 load(1, XDATA, add(CFA_XSP16, literal(-13)))
          CFI (cfiCond299) V2 load(1, XDATA, add(CFA_XSP16, literal(-12)))
          CFI (cfiCond299) V3 load(1, XDATA, add(CFA_XSP16, literal(-11)))
          CFI (cfiCond299) V4 load(1, XDATA, add(CFA_XSP16, literal(-10)))
          CFI (cfiCond299) V5 load(1, XDATA, add(CFA_XSP16, literal(-9)))
          CFI (cfiCond299) V6 load(1, XDATA, add(CFA_XSP16, literal(-8)))
          CFI (cfiCond299) V7 load(1, XDATA, add(CFA_XSP16, literal(-7)))
          CFI (cfiCond299) R7 load(1, XDATA, add(CFA_XSP16, literal(-6)))
          CFI (cfiCond299) ?RET_LOW load(1, XDATA, add(CFA_XSP16, literal(-5)))
          CFI (cfiCond299) ?RET_HIGH load(1, XDATA, add(CFA_XSP16, literal(-4)))
          CFI (cfiCond299) ?BRET_EXT load(1, XDATA, add(CFA_XSP16, literal(-3)))
          CFI (cfiCond299) DPL0 load(1, XDATA, add(CFA_XSP16, literal(-2)))
          CFI (cfiCond299) DPH0 load(1, XDATA, add(CFA_XSP16, literal(-1)))
          CFI (cfiCond299) CFA_SP SP+-2
          CFI (cfiCond299) CFA_XSP16 add(XSP16, 18)
          CFI Block cfiCond300 Using cfiCommon0
          CFI (cfiCond300) Function bdb_ProcessIEEEAddrRsp
          CFI (cfiCond300) Conditional ??CrossCallReturnLabel_100
          CFI (cfiCond300) R6 load(1, XDATA, add(CFA_XSP16, literal(-10)))
          CFI (cfiCond300) VB load(1, XDATA, add(CFA_XSP16, literal(-9)))
          CFI (cfiCond300) V0 load(1, XDATA, add(CFA_XSP16, literal(-8)))
          CFI (cfiCond300) V1 load(1, XDATA, add(CFA_XSP16, literal(-7)))
          CFI (cfiCond300) R7 load(1, XDATA, add(CFA_XSP16, literal(-6)))
          CFI (cfiCond300) ?RET_LOW load(1, XDATA, add(CFA_XSP16, literal(-5)))
          CFI (cfiCond300) ?RET_HIGH load(1, XDATA, add(CFA_XSP16, literal(-4)))
          CFI (cfiCond300) ?BRET_EXT load(1, XDATA, add(CFA_XSP16, literal(-3)))
          CFI (cfiCond300) DPL0 load(1, XDATA, add(CFA_XSP16, literal(-2)))
          CFI (cfiCond300) DPH0 load(1, XDATA, add(CFA_XSP16, literal(-1)))
          CFI (cfiCond300) CFA_SP SP+-2
          CFI (cfiCond300) CFA_XSP16 add(XSP16, 25)
          CFI Block cfiCond301 Using cfiCommon0
          CFI (cfiCond301) Function bdb_ProcessSimpleDesc
          CFI (cfiCond301) Conditional ??CrossCallReturnLabel_101
          CFI (cfiCond301) R6 load(1, XDATA, add(CFA_XSP16, literal(-9)))
          CFI (cfiCond301) VB load(1, XDATA, add(CFA_XSP16, literal(-8)))
          CFI (cfiCond301) V0 load(1, XDATA, add(CFA_XSP16, literal(-7)))
          CFI (cfiCond301) R7 load(1, XDATA, add(CFA_XSP16, literal(-6)))
          CFI (cfiCond301) ?RET_LOW load(1, XDATA, add(CFA_XSP16, literal(-5)))
          CFI (cfiCond301) ?RET_HIGH load(1, XDATA, add(CFA_XSP16, literal(-4)))
          CFI (cfiCond301) ?BRET_EXT load(1, XDATA, add(CFA_XSP16, literal(-3)))
          CFI (cfiCond301) DPL0 load(1, XDATA, add(CFA_XSP16, literal(-2)))
          CFI (cfiCond301) DPH0 load(1, XDATA, add(CFA_XSP16, literal(-1)))
          CFI (cfiCond301) CFA_SP SP+-2
          CFI (cfiCond301) CFA_XSP16 add(XSP16, 28)
          CFI Block cfiPicker302 Using cfiCommon1
          CFI (cfiPicker302) NoFunction
          CFI (cfiPicker302) Picker
        LCALL     ?Subroutine32 & 0xFFFF
??CrossCallReturnLabel_119:
        MOV       R1,A
        MOV       A,R0
        ORL       A,R1
        RET
          CFI EndBlock cfiCond288
          CFI EndBlock cfiCond289
          CFI EndBlock cfiCond290
          CFI EndBlock cfiCond291
          CFI EndBlock cfiCond292
          CFI EndBlock cfiCond293
          CFI EndBlock cfiCond294
          CFI EndBlock cfiCond295
          CFI EndBlock cfiCond296
          CFI EndBlock cfiCond297
          CFI EndBlock cfiCond298
          CFI EndBlock cfiCond299
          CFI EndBlock cfiCond300
          CFI EndBlock cfiCond301
          CFI EndBlock cfiPicker302

        RSEG XDATA_ROM_C:CONST:REORDER:NOROOT(0)
        DATA8
`?<Constant {{0}}>`:
        DATA16
        DW 0
        DB 0, 0, 0, 0, 0, 0
        DB 0
// 1050 
// 1051 /*********************************************************************
// 1052  * @fn      bdb_FindIfAppCluster
// 1053  *
// 1054  * @brief   To verify if cluster is application type
// 1055  *
// 1056  * @param   none
// 1057  *
// 1058  * @return  true if success
// 1059  */

        RSEG BANKED_CODE:HUGECODE:NOROOT(0)
// 1060 uint8 bdb_FindIfAppCluster( cId_t ClusterId )
bdb_FindIfAppCluster:
          CFI Block cfiBlock303 Using cfiCommon0
          CFI Function bdb_FindIfAppCluster
        CODE
// 1061 {
        PUSH      DPL
          CFI DPL0 Frame(CFA_SP, 4)
          CFI CFA_SP SP+-4
        PUSH      DPH
          CFI DPH0 Frame(CFA_SP, 5)
          CFI CFA_SP SP+-5
        ; Saved register size: 2
        ; Auto size: 0
// 1062   uint8 i;
// 1063   uint8 ClusterCnt;
// 1064 
// 1065   ClusterCnt = sizeof( bdb_ZclType1Clusters )/sizeof( uint16 );
// 1066   
// 1067   for ( i = 0; i < ClusterCnt; i++ )
        MOV       R0,#0x0
// 1068   {
// 1069     if ( bdb_ZclType1Clusters[i] == ClusterId )
??bdb_FindIfAppCluster_0:
        MOV       A,R0
        ADD       A,0xE0 /* A   */
        MOV       R4,A
        CLR       A
        RLC       A
        MOV       R5,A
        MOV       A,#bdb_ZclType1Clusters & 0xff
        ADD       A,R4
        MOV       DPL,A
        MOV       A,#(bdb_ZclType1Clusters >> 8) & 0xff
        ADDC      A,R5
        MOV       DPH,A
        MOVX      A,@DPTR
        XRL       A,R2
        JNZ       ??bdb_FindIfAppCluster_1
        INC       DPTR
        MOVX      A,@DPTR
        XRL       A,R3
??bdb_FindIfAppCluster_1:
        JZ        ??bdb_FindIfAppCluster_2
// 1070     {
// 1071       return ( SUCCESS );
// 1072     }
// 1073   }
        INC       R0
        MOV       A,R0
        CLR       C
        SUBB      A,#0x18
        JC        ??bdb_FindIfAppCluster_0
// 1074   
// 1075   ClusterCnt = sizeof( bdb_ZclType2Clusters )/sizeof( uint16 );
// 1076   
// 1077   for ( i = 0; i < ClusterCnt; i++ )
        MOV       R0,#0x0
// 1078   {
// 1079     if ( bdb_ZclType2Clusters[i] == ClusterId )
??bdb_FindIfAppCluster_3:
        MOV       A,R0
        ADD       A,0xE0 /* A   */
        MOV       R4,A
        CLR       A
        RLC       A
        MOV       R5,A
        MOV       A,#bdb_ZclType2Clusters & 0xff
        ADD       A,R4
        MOV       DPL,A
        MOV       A,#(bdb_ZclType2Clusters >> 8) & 0xff
        ADDC      A,R5
        MOV       DPH,A
        MOVX      A,@DPTR
        XRL       A,R2
        JNZ       ??bdb_FindIfAppCluster_4
        INC       DPTR
        MOVX      A,@DPTR
        XRL       A,R3
??bdb_FindIfAppCluster_4:
        JNZ       ??bdb_FindIfAppCluster_5
// 1080     {
// 1081       return ( SUCCESS );
??bdb_FindIfAppCluster_2:
        MOV       R1,#0x0
        SJMP      ??bdb_FindIfAppCluster_6
// 1082     }
// 1083   }
??bdb_FindIfAppCluster_5:
        INC       R0
        MOV       A,R0
        CLR       C
        SUBB      A,#0x31
        JC        ??bdb_FindIfAppCluster_3
// 1084   
// 1085   // If not found, take it as application cluster it will be filtered
// 1086   // by simple descriptor at some point
// 1087   return ( FAILURE );
        MOV       R1,#0x1
??bdb_FindIfAppCluster_6:
        LJMP      ??Subroutine38_0 & 0xFFFF
// 1088 }
          CFI EndBlock cfiBlock303
// 1089 
// 1090 
// 1091 /*********************************************************************
// 1092  * @fn      bdb_getRespondentRetry
// 1093  *
// 1094  * @brief   Get the next Respondant entry to retry
// 1095  *
// 1096  * @param   pHead - pointer to a pointer of the list head
// 1097  *
// 1098  * @return  respondant entry if found, otherwise NULL
// 1099  */

        RSEG BANKED_CODE:HUGECODE:NOROOT(0)
// 1100 bdbFindingBindingRespondent_t* bdb_getRespondentRetry(bdbFindingBindingRespondent_t* pRespondentHead)
bdb_getRespondentRetry:
          CFI Block cfiBlock304 Using cfiCommon0
          CFI Function bdb_getRespondentRetry
        CODE
// 1101 {
        PUSH      DPL
          CFI DPL0 Frame(CFA_SP, 4)
          CFI CFA_SP SP+-4
        PUSH      DPH
          CFI DPH0 Frame(CFA_SP, 5)
          CFI CFA_SP SP+-5
        ; Saved register size: 2
        ; Auto size: 0
// 1102   bdbFindingBindingRespondent_t *pTemp;
// 1103   
// 1104   pTemp = pRespondentHead;
        SJMP      ??CrossCallReturnLabel_70
// 1105   
// 1106   while(pTemp != NULL)
// 1107   {
// 1108     //does the next entry requires to perform an attempt on simple desc req or IEEE addr req?
// 1109     if((pTemp->attempts & ~FINDING_AND_BINDING_MISSING_IEEE_ADDR) < FINDING_AND_BINDING_MAX_ATTEMPTS)
// 1110     {
// 1111       return pTemp;
// 1112     }
// 1113    
// 1114     pTemp = pTemp->pNext;
??bdb_getRespondentRetry_0:
        MOV       A,R2
        ADD       A,#0xf
        MOV       DPL,A
        CLR       A
        ADDC      A,R3
        MOV       DPH,A
        LCALL     ??Subroutine45_0 & 0xFFFF
??CrossCallReturnLabel_70:
        MOV       A,R2
        ORL       A,R3
        JZ        ??bdb_getRespondentRetry_1
        LCALL     ?Subroutine26 & 0xFFFF
??CrossCallReturnLabel_31:
        MOVX      A,@DPTR
        ANL       A,#0x7f
        CLR       C
        SUBB      A,#0x4
        JNC       ??bdb_getRespondentRetry_0
        SJMP      ??bdb_getRespondentRetry_2
// 1115   }
// 1116   return NULL;
??bdb_getRespondentRetry_1:
        MOV       R2,#0x0
        MOV       R3,#0x0
??bdb_getRespondentRetry_2:
        LJMP      ??Subroutine38_0 & 0xFFFF
// 1117 }
          CFI EndBlock cfiBlock304

        RSEG BANKED_CODE:HUGECODE:NOROOT(0)
?Subroutine26:
          CFI Block cfiCond305 Using cfiCommon0
          CFI Function bdb_ZclIdentifyQueryCmdInd
          CFI Conditional ??CrossCallReturnLabel_30
          CFI R6 load(1, XDATA, add(CFA_XSP16, literal(-10)))
          CFI VB load(1, XDATA, add(CFA_XSP16, literal(-9)))
          CFI V0 load(1, XDATA, add(CFA_XSP16, literal(-8)))
          CFI V1 load(1, XDATA, add(CFA_XSP16, literal(-7)))
          CFI R7 load(1, XDATA, add(CFA_XSP16, literal(-6)))
          CFI ?RET_LOW load(1, XDATA, add(CFA_XSP16, literal(-5)))
          CFI ?RET_HIGH load(1, XDATA, add(CFA_XSP16, literal(-4)))
          CFI ?BRET_EXT load(1, XDATA, add(CFA_XSP16, literal(-3)))
          CFI DPL0 load(1, XDATA, add(CFA_XSP16, literal(-2)))
          CFI DPH0 load(1, XDATA, add(CFA_XSP16, literal(-1)))
          CFI CFA_SP SP+-2
          CFI CFA_XSP16 add(XSP16, 10)
          CFI Block cfiCond306 Using cfiCommon0
          CFI (cfiCond306) Function bdb_getRespondentRetry
          CFI (cfiCond306) Conditional ??CrossCallReturnLabel_31
          CFI (cfiCond306) DPL0 Frame(CFA_SP, 4)
          CFI (cfiCond306) DPH0 Frame(CFA_SP, 5)
          CFI (cfiCond306) CFA_SP SP+-7
          CFI Block cfiPicker307 Using cfiCommon1
          CFI (cfiPicker307) NoFunction
          CFI (cfiPicker307) Picker
        MOV       A,R2
        ADD       A,#0xc
        MOV       DPL,A
        CLR       A
        ADDC      A,R3
        MOV       DPH,A
        RET
          CFI EndBlock cfiCond305
          CFI EndBlock cfiCond306
          CFI EndBlock cfiPicker307
// 1118 
// 1119 

        RSEG BANKED_CODE:HUGECODE:NOROOT(0)
// 1120 bdbFindingBindingRespondent_t* bdb_findRespondentNode(uint8 endpoint, uint16 shortAddress)
bdb_findRespondentNode:
          CFI Block cfiBlock308 Using cfiCommon0
          CFI Function bdb_findRespondentNode
        CODE
// 1121 {
        PUSH      DPL
          CFI DPL0 Frame(CFA_SP, 4)
          CFI CFA_SP SP+-4
        PUSH      DPH
          CFI DPH0 Frame(CFA_SP, 5)
          CFI CFA_SP SP+-5
        ; Saved register size: 2
        ; Auto size: 0
// 1122   bdbFindingBindingRespondent_t* pTemp = pRespondentHead;
        MOV       DPTR,#pRespondentHead
        SJMP      ??bdb_findRespondentNode_0
// 1123   
// 1124   while(pTemp != NULL)  
// 1125   {
// 1126     if((pTemp->data.addr.shortAddr == shortAddress) && (pTemp->data.endPoint == endpoint))
// 1127     {
// 1128       return pTemp;
// 1129     }
// 1130     
// 1131     pTemp = pTemp->pNext;
??bdb_findRespondentNode_1:
        MOV       A,R4
        ADD       A,#0xf
        MOV       DPL,A
        CLR       A
        ADDC      A,R5
        MOV       DPH,A
??bdb_findRespondentNode_0:
        MOVX      A,@DPTR
        MOV       R4,A
        INC       DPTR
        MOVX      A,@DPTR
        MOV       R5,A
        MOV       A,R4
        ORL       A,R5
        JZ        ??bdb_findRespondentNode_2
        MOV       DPL,R4
        MOV       DPH,R5
        MOVX      A,@DPTR
        XRL       A,R2
        JNZ       ??bdb_findRespondentNode_3
        INC       DPTR
        MOVX      A,@DPTR
        XRL       A,R3
??bdb_findRespondentNode_3:
        JNZ       ??bdb_findRespondentNode_1
        MOV       DPL,R4
        MOV       DPH,R5
        INC       DPTR
        INC       DPTR
        INC       DPTR
        INC       DPTR
        INC       DPTR
        INC       DPTR
        INC       DPTR
        INC       DPTR
        INC       DPTR
        MOVX      A,@DPTR
        XRL       A,R1
        JNZ       ??bdb_findRespondentNode_1
        MOV       A,R4
        MOV       R2,A
        MOV       A,R5
        MOV       R3,A
        SJMP      ??bdb_findRespondentNode_4
// 1132   }
// 1133   
// 1134   return NULL;
??bdb_findRespondentNode_2:
        MOV       R2,#0x0
        MOV       R3,#0x0
??bdb_findRespondentNode_4:
        LJMP      ??Subroutine38_0 & 0xFFFF
// 1135 }
          CFI EndBlock cfiBlock308

        RSEG XDATA_ID:CODE:NOROOT(0)
`?<Initializer for grpName>`:
        DATA8
        DB 71
        DB 114
        DB 111
        DB 117
        DB 112
        DB 0

        RSEG XDATA_ID:CODE:NOROOT(0)
`?<Initializer for bdbIndentifyActiveEndpoint>`:
        DATA8
        DB 255

        RSEG XDATA_ROM_C:CONST:REORDER:NOROOT(0)
        DATA32
__Constant_3e7:
        DD 999

        RSEG XDATA_ROM_C:CONST:REORDER:NOROOT(0)
        DATA32
__Constant_3e8:
        DD 1000

        RSEG XDATA_ROM_C:CONST:REORDER:NOROOT(0)
        DATA32
__Constant_1388:
        DD 5000

        RSEG BANK_RELAYS:CODE:REORDER:NOROOT(0)
`??bdb_SetIdentifyActiveEndpoint::?relay`:
        CODE
        LCALL   ?BDISPATCH
        DATA24
        DC24    bdb_SetIdentifyActiveEndpoint

        RSEG BANK_RELAYS:CODE:REORDER:NOROOT(0)
`??bdb_setEpDescListToActiveEndpoint::?relay`:
        CODE
        LCALL   ?BDISPATCH
        DATA24
        DC24    bdb_setEpDescListToActiveEndpoint

        RSEG BANK_RELAYS:CODE:REORDER:NOROOT(0)
`??bdb_ProcessIEEEAddrRsp::?relay`:
        CODE
        LCALL   ?BDISPATCH
        DATA24
        DC24    bdb_ProcessIEEEAddrRsp

        RSEG BANK_RELAYS:CODE:REORDER:NOROOT(0)
`??bdb_StopInitiatorFindingBinding::?relay`:
        CODE
        LCALL   ?BDISPATCH
        DATA24
        DC24    bdb_StopInitiatorFindingBinding

        RSEG BANK_RELAYS:CODE:REORDER:NOROOT(0)
`??bdb_checkMatchingEndpoints::?relay`:
        CODE
        LCALL   ?BDISPATCH
        DATA24
        DC24    bdb_checkMatchingEndpoints

        RSEG BANK_RELAYS:CODE:REORDER:NOROOT(0)
`??bdb_ProcessSimpleDesc::?relay`:
        CODE
        LCALL   ?BDISPATCH
        DATA24
        DC24    bdb_ProcessSimpleDesc

        RSEG BANK_RELAYS:CODE:REORDER:NOROOT(0)
`??bdb_zclFindingBindingEpType::?relay`:
        CODE
        LCALL   ?BDISPATCH
        DATA24
        DC24    bdb_zclFindingBindingEpType

        RSEG BANK_RELAYS:CODE:REORDER:NOROOT(0)
`??bdb_zclFindingBindingAddBindEntry::?relay`:
        CODE
        LCALL   ?BDISPATCH
        DATA24
        DC24    bdb_zclFindingBindingAddBindEntry

        RSEG BANK_RELAYS:CODE:REORDER:NOROOT(0)
`??bdb_exitFindingBindingWStatus::?relay`:
        CODE
        LCALL   ?BDISPATCH
        DATA24
        DC24    bdb_exitFindingBindingWStatus

        RSEG BANK_RELAYS:CODE:REORDER:NOROOT(0)
`??bdb_zclSimpleDescClusterListClean::?relay`:
        CODE
        LCALL   ?BDISPATCH
        DATA24
        DC24    bdb_zclSimpleDescClusterListClean

        RSEG BANK_RELAYS:CODE:REORDER:NOROOT(0)
`??bdb_RegisterIdentifyTimeChangeCB::?relay`:
        CODE
        LCALL   ?BDISPATCH
        DATA24
        DC24    bdb_RegisterIdentifyTimeChangeCB

        RSEG BANK_RELAYS:CODE:REORDER:NOROOT(0)
`??bdb_GetFBInitiatorStatus::?relay`:
        CODE
        LCALL   ?BDISPATCH
        DATA24
        DC24    bdb_GetFBInitiatorStatus

        RSEG BANK_RELAYS:CODE:REORDER:NOROOT(0)
`??bdb_RegisterBindNotificationCB::?relay`:
        CODE
        LCALL   ?BDISPATCH
        DATA24
        DC24    bdb_RegisterBindNotificationCB

        RSEG BANK_RELAYS:CODE:REORDER:NOROOT(0)
`??bdb_SendIdentifyQuery::?relay`:
        CODE
        LCALL   ?BDISPATCH
        DATA24
        DC24    bdb_SendIdentifyQuery

        RSEG BANK_RELAYS:CODE:REORDER:NOROOT(0)
`??bdb_SendIdentifyQueryWithAddr::?relay`:
        CODE
        LCALL   ?BDISPATCH
        DATA24
        DC24    bdb_SendIdentifyQueryWithAddr

        RSEG BANK_RELAYS:CODE:REORDER:NOROOT(0)
`??bdb_ZclIdentifyQueryCmdInd::?relay`:
        CODE
        LCALL   ?BDISPATCH
        DATA24
        DC24    bdb_ZclIdentifyQueryCmdInd

        RSEG BANK_RELAYS:CODE:REORDER:NOROOT(0)
`??bdb_ProcessRespondentList::?relay`:
        CODE
        LCALL   ?BDISPATCH
        DATA24
        DC24    bdb_ProcessRespondentList

        RSEG BANK_RELAYS:CODE:REORDER:NOROOT(0)
`??bdb_FindIfAppCluster::?relay`:
        CODE
        LCALL   ?BDISPATCH
        DATA24
        DC24    bdb_FindIfAppCluster

        RSEG BANK_RELAYS:CODE:REORDER:NOROOT(0)
`??bdb_getRespondentRetry::?relay`:
        CODE
        LCALL   ?BDISPATCH
        DATA24
        DC24    bdb_getRespondentRetry

        RSEG BANK_RELAYS:CODE:REORDER:NOROOT(0)
`??bdb_findRespondentNode::?relay`:
        CODE
        LCALL   ?BDISPATCH
        DATA24
        DC24    bdb_findRespondentNode

        END
// 1136 
// 1137 #endif  
// 1138 
// 1139 /*********************************************************************
// 1140 *********************************************************************/
// 
// 2 937 bytes in segment BANKED_CODE
//   120 bytes in segment BANK_RELAYS
//     7 bytes in segment XDATA_I
//     7 bytes in segment XDATA_ID
//   167 bytes in segment XDATA_ROM_C
//    16 bytes in segment XDATA_Z
// 
//   127 bytes of CODE     memory
//   155 bytes of CONST    memory (+ 12 bytes shared)
// 2 937 bytes of HUGECODE memory
//    23 bytes of XDATA    memory
//
//Errors: none
//Warnings: none
