///////////////////////////////////////////////////////////////////////////////
//
// IAR C/C++ Compiler V10.10.1.4655 for 8051              22/Nov/2023  15:42:40
// Copyright 2004-2017 IAR Systems AB.
// Standalone license - IAR Embedded Workbench for 8051
//
//    Core               =  plain
//    Code model         =  banked
//    Data model         =  large
//    Calling convention =  xdata reentrant
//    Constant location  =  data_rom
//    Dptr setup         =  1,16
//                          
//    Source file        =  
//        D:\fuzzing-coordinator-response-collection\Components\stack\GP\gp_common.c
//    Command line       =  
//        -f C:\Users\ADMINI~1\AppData\Local\Temp\EW98AF.tmp
//        (D:\fuzzing-coordinator-response-collection\Components\stack\GP\gp_common.c
//        -D SECURE=1 -D TC_LINKKEY_JOIN -D NV_INIT -D NV_RESTORE -D
//        MULTICAST_ENABLED=FALSE -D ZCL_READ -D ZCL_DISCOVER -D ZCL_WRITE -D
//        ZCL_BASIC -D ZCL_IDENTIFY -D ISR_KEYINTERRUPT -D HAL_UART=TRUE -D
//        HAL_LCD=FALSE -D ZCL_ON_OFF -D INT_HEAP_LEN=2800 -D
//        HAL_UART_DMA_RX_MAX=256 -D HAL_UART_DMA_TX_MAX=256 -lC
//        D:\fuzzing-coordinator-response-collection\Projects\zstack\HomeAutomation\SampleSwitch\CC2530DB\CoordinatorEB\List
//        -lA
//        D:\fuzzing-coordinator-response-collection\Projects\zstack\HomeAutomation\SampleSwitch\CC2530DB\CoordinatorEB\List
//        --diag_suppress Pe001,Pa010 -o
//        D:\fuzzing-coordinator-response-collection\Projects\zstack\HomeAutomation\SampleSwitch\CC2530DB\CoordinatorEB\Obj
//        -e --debug --core=plain --dptr=16,1 --data_model=large
//        --code_model=banked --calling_convention=xdata_reentrant
//        --place_constants=data_rom --nr_virtual_regs 8 -f
//        D:\fuzzing-coordinator-response-collection\Projects\zstack\HomeAutomation\SampleSwitch\CC2530DB\..\..\..\Tools\CC2530DB\f8wCoord.cfg
//        (-DCPU32MHZ -DROOT=__near_func -DMAC_CFG_APP_PENDING_QUEUE=TRUE
//        -DMAC_CFG_TX_DATA_MAX=5 -DMAC_CFG_TX_MAX=8 -DMAC_CFG_RX_MAX=5
//        -DZDO_COORDINATOR -DRTR_NWK) -f
//        D:\fuzzing-coordinator-response-collection\Projects\zstack\HomeAutomation\SampleSwitch\CC2530DB\..\..\..\Tools\CC2530DB\f8wConfig.cfg
//        (-DZIGBEEPRO -DSECURE=1 -DZG_SECURE_DYNAMIC=0 -DREFLECTOR
//        -DDEFAULT_CHANLIST=0x00000800 -DZDAPP_CONFIG_PAN_ID=0xFFFF
//        -DNWK_START_DELAY=100 -DEXTENDED_JOINING_RANDOM_MASK=0x007F
//        -DBEACON_REQUEST_DELAY=100 -DBEACON_REQ_DELAY_MASK=0x00FF
//        -DLINK_STATUS_JITTER_MASK=0x007F -DROUTE_EXPIRY_TIME=30
//        -DAPSC_ACK_WAIT_DURATION_POLLED=3000 -DNWK_INDIRECT_MSG_TIMEOUT=7
//        -DMAX_RREQ_ENTRIES=8 -DAPSC_MAX_FRAME_RETRIES=3
//        -DNWK_MAX_DATA_RETRIES=2 -DMAX_POLL_FAILURE_RETRIES=2 -DMAX_BCAST=9
//        -DAPS_MAX_GROUPS=16 -DMAX_RTG_ENTRIES=40 -DNWK_MAX_BINDING_ENTRIES=4
//        -DMAX_BINDING_CLUSTER_IDS=4 "-DDEFAULT_KEY={0x00, 0x01, 0x02, 0x03,
//        0x04, 0x05, 0x06, 0x07, 0x08, 0x09, 0x0A, 0x0B, 0x0C, 0x0D, 0x0E,
//        0x0F}" -DMAC_MAX_FRAME_SIZE=116 -DZDNWKMGR_MIN_TRANSMISSIONS=20
//        "-DCONST=const __code" -DGENERIC=__generic -DRFD_RCVC_ALWAYS_ON=FALSE
//        -DPOLL_RATE=1000 -DQUEUED_POLL_RATE=100 -DRESPONSE_POLL_RATE=100
//        -DREJOIN_POLL_RATE=440 -DREJOIN_BACKOFF=900000 -DREJOIN_SCAN=900000
//        -DENABLE_LED4_DISABLE_S1) -f
//        D:\fuzzing-coordinator-response-collection\Projects\zstack\HomeAutomation\SampleSwitch\CC2530DB\..\..\..\Tools\CC2530DB\f8wZCL.cfg
//        -I
//        D:\fuzzing-coordinator-response-collection\Projects\zstack\HomeAutomation\SampleSwitch\CC2530DB\
//        -I
//        D:\fuzzing-coordinator-response-collection\Projects\zstack\HomeAutomation\SampleSwitch\CC2530DB\..\Source\
//        -I
//        D:\fuzzing-coordinator-response-collection\Projects\zstack\HomeAutomation\SampleSwitch\CC2530DB\..\..\Source\
//        -I
//        D:\fuzzing-coordinator-response-collection\Projects\zstack\HomeAutomation\SampleSwitch\CC2530DB\..\..\..\ZMain\TI2530DB\
//        -I
//        D:\fuzzing-coordinator-response-collection\Projects\zstack\HomeAutomation\SampleSwitch\CC2530DB\..\..\..\..\..\Components\hal\include\
//        -I
//        D:\fuzzing-coordinator-response-collection\Projects\zstack\HomeAutomation\SampleSwitch\CC2530DB\..\..\..\..\..\Components\hal\target\CC2530EB\
//        -I
//        D:\fuzzing-coordinator-response-collection\Projects\zstack\HomeAutomation\SampleSwitch\CC2530DB\..\..\..\..\..\Components\mac\include\
//        -I
//        D:\fuzzing-coordinator-response-collection\Projects\zstack\HomeAutomation\SampleSwitch\CC2530DB\..\..\..\..\..\Components\mac\high_level\
//        -I
//        D:\fuzzing-coordinator-response-collection\Projects\zstack\HomeAutomation\SampleSwitch\CC2530DB\..\..\..\..\..\Components\mac\low_level\srf04\
//        -I
//        D:\fuzzing-coordinator-response-collection\Projects\zstack\HomeAutomation\SampleSwitch\CC2530DB\..\..\..\..\..\Components\mac\low_level\srf04\single_chip\
//        -I
//        D:\fuzzing-coordinator-response-collection\Projects\zstack\HomeAutomation\SampleSwitch\CC2530DB\..\..\..\..\..\Components\mt\
//        -I
//        D:\fuzzing-coordinator-response-collection\Projects\zstack\HomeAutomation\SampleSwitch\CC2530DB\..\..\..\..\..\Components\osal\include\
//        -I
//        D:\fuzzing-coordinator-response-collection\Projects\zstack\HomeAutomation\SampleSwitch\CC2530DB\..\..\..\..\..\Components\services\saddr\
//        -I
//        D:\fuzzing-coordinator-response-collection\Projects\zstack\HomeAutomation\SampleSwitch\CC2530DB\..\..\..\..\..\Components\services\sdata\
//        -I
//        D:\fuzzing-coordinator-response-collection\Projects\zstack\HomeAutomation\SampleSwitch\CC2530DB\..\..\..\..\..\Components\stack\af\
//        -I
//        D:\fuzzing-coordinator-response-collection\Projects\zstack\HomeAutomation\SampleSwitch\CC2530DB\..\..\..\..\..\Components\stack\bdb\
//        -I
//        D:\fuzzing-coordinator-response-collection\Projects\zstack\HomeAutomation\SampleSwitch\CC2530DB\..\..\..\..\..\Components\stack\gp\
//        -I
//        D:\fuzzing-coordinator-response-collection\Projects\zstack\HomeAutomation\SampleSwitch\CC2530DB\..\..\..\..\..\Components\stack\nwk\
//        -I
//        D:\fuzzing-coordinator-response-collection\Projects\zstack\HomeAutomation\SampleSwitch\CC2530DB\..\..\..\..\..\Components\stack\sapi\
//        -I
//        D:\fuzzing-coordinator-response-collection\Projects\zstack\HomeAutomation\SampleSwitch\CC2530DB\..\..\..\..\..\Components\stack\sec\
//        -I
//        D:\fuzzing-coordinator-response-collection\Projects\zstack\HomeAutomation\SampleSwitch\CC2530DB\..\..\..\..\..\Components\stack\sys\
//        -I
//        D:\fuzzing-coordinator-response-collection\Projects\zstack\HomeAutomation\SampleSwitch\CC2530DB\..\..\..\..\..\Components\stack\zcl\
//        -I
//        D:\fuzzing-coordinator-response-collection\Projects\zstack\HomeAutomation\SampleSwitch\CC2530DB\..\..\..\..\..\Components\stack\zdo\
//        -I
//        D:\fuzzing-coordinator-response-collection\Projects\zstack\HomeAutomation\SampleSwitch\CC2530DB\..\..\..\..\..\Components\zmac\
//        -I
//        D:\fuzzing-coordinator-response-collection\Projects\zstack\HomeAutomation\SampleSwitch\CC2530DB\..\..\..\..\..\Components\zmac\f8w\
//        -I
//        D:\fuzzing-coordinator-response-collection\Projects\zstack\HomeAutomation\SampleSwitch\CC2530DB\..\..\..\..\..\Components\hal\target\CC2530EB\Common\
//        -I
//        D:\fuzzing-coordinator-response-collection\Projects\zstack\HomeAutomation\SampleSwitch\CC2530DB\..\..\..\..\..\Components\hal\target\CC2530EB\SPI\
//        -I
//        D:\fuzzing-coordinator-response-collection\Projects\zstack\HomeAutomation\SampleSwitch\CC2530DB\..\..\..\..\..\Components\hal\target\CC2530EB\HW_LCD\Font\
//        -I
//        D:\fuzzing-coordinator-response-collection\Projects\zstack\HomeAutomation\SampleSwitch\CC2530DB\..\..\..\..\..\Components\hal\target\CC2530EB\HW_LCD\HAL_LCD_SPI\
//        -I
//        D:\fuzzing-coordinator-response-collection\Projects\zstack\HomeAutomation\SampleSwitch\CC2530DB\..\..\..\..\..\Components\hal\target\CC2530EB\HW_LCD\HAL_OLED\
//        -I
//        D:\fuzzing-coordinator-response-collection\Projects\zstack\HomeAutomation\SampleSwitch\CC2530DB\..\..\..\..\..\Components\hal\target\CC2530EB\HW_LCD\HAL_TFT\
//        -Ohz --require_prototypes)
//    Locale             =  Chinese (Simplified)_China.936
//    List file          =  
//        D:\fuzzing-coordinator-response-collection\Projects\zstack\HomeAutomation\SampleSwitch\CC2530DB\CoordinatorEB\List\gp_common.s51
//
///////////////////////////////////////////////////////////////////////////////

        NAME gp_common

        RTMODEL "__SystemLibrary", "CLib"
        RTMODEL "__calling_convention", "xdata_reentrant"
        RTMODEL "__code_model", "banked"
        RTMODEL "__core", "plain"
        RTMODEL "__data_model", "large"
        RTMODEL "__dptr_size", "16"
        RTMODEL "__extended_stack", "disabled"
        RTMODEL "__location_for_constants", "data"
        RTMODEL "__number_of_dptrs", "1"
        RTMODEL "__register_banks", "*"
        RTMODEL "__rt_version", "1"

        RSEG DOVERLAY:DATA:NOROOT(0)
        RSEG IOVERLAY:IDATA:NOROOT(0)
        RSEG ISTACK:IDATA:NOROOT(0)
        RSEG PSTACK:XDATA:NOROOT(0)
        RSEG XSTACK:XDATA:NOROOT(0)

        EXTERN ?V0
        EXTERN ?V1
        EXTERN ?V2
        EXTERN ?V4
        EXTERN ?V5
        EXTERN ?V6
        EXTERN ?V7
        EXTERN ?V3
        EXTERN ?ALLOC_XSTACK8
        EXTERN ?BANKED_ENTER_XDATA
        EXTERN ?BANKED_LEAVE_XDATA
        EXTERN ?BDISPATCH
        EXTERN ?BRET
        EXTERN ?CALL_IND
        EXTERN ?DEALLOC_XSTACK8
        EXTERN ?L_ADD_TO_X
        EXTERN ?L_AND_X
        EXTERN ?L_EQ_X
        EXTERN ?L_IOR
        EXTERN ?L_IOR_TO_X
        EXTERN ?L_IOR_X
        EXTERN ?L_MOV_TO_X
        EXTERN ?L_MOV_X
        EXTERN ?L_SHL
        EXTERN ?L_SUB_FROM_X
        EXTERN ?MOVE_LONG8_XDATA_XDATA
        EXTERN ?PUSH_XSTACK8_X_FOUR
        EXTERN ?PUSH_XSTACK_I_THREE
        EXTERN ?PUSH_XSTACK_I_TWO
        EXTERN ?SC_DIV_MOD
        EXTERN ?UL_GE_X
        EXTERN ?XLOAD_R0123
        EXTERN ?XSP
        EXTERN ?XSTACK_DISP0_8
        EXTERN ?XSTACK_DISP100_8
        EXTERN ?XSTACK_DISP101_8
        EXTERN ?XSTACK_DISP102_8
        EXTERN ?XSTORE_R0123
        EXTERN ?XSTORE_R2345
        EXTERN __INIT_XDATA_I
        EXTERN __INIT_XDATA_Z

        PUBLIC `??GP_DataCnf::?relay`
        FUNCTION `??GP_DataCnf::?relay`,0203H
        PUBLIC `??GP_DataInd::?relay`
        FUNCTION `??GP_DataInd::?relay`,0203H
        FUNCTION `??GP_RecoveryKey::?relay`,0203H
        PUBLIC `??GP_SecReq::?relay`
        FUNCTION `??GP_SecReq::?relay`,0203H
        PUBLIC `??gp_PopulateField::?relay`
        FUNCTION `??gp_PopulateField::?relay`,0203H
        PUBLIC `??gp_ProxyTblInit::?relay`
        FUNCTION `??gp_ProxyTblInit::?relay`,0203H
        PUBLIC `??gp_RegisterCommissioningModeCB::?relay`
        FUNCTION `??gp_RegisterCommissioningModeCB::?relay`,0203H
        PUBLIC `??gp_RegisterGPChangeChannelReqCB::?relay`
        FUNCTION `??gp_RegisterGPChangeChannelReqCB::?relay`,0203H
        PUBLIC `??gp_RegisterGPChangeChannelReqForBDBCB::?relay`
        FUNCTION `??gp_RegisterGPChangeChannelReqForBDBCB::?relay`,0203H
        FUNCTION `??gp_SecurityOperationProxy::?relay`,0203H
        FUNCTION `??gp_ZclPairingParse::?relay`,0203H
        FUNCTION `??gp_ZclProxyTableReqParse::?relay`,0203H
        PUBLIC `??gp_endpointInit::?relay`
        FUNCTION `??gp_endpointInit::?relay`,0203H
        PUBLIC `??gp_expireDuplicateFiltering::?relay`
        FUNCTION `??gp_expireDuplicateFiltering::?relay`,0203H
        PUBLIC `??gp_getProxyTableByGpId::?relay`
        FUNCTION `??gp_getProxyTableByGpId::?relay`,0203H
        PUBLIC `??gp_getProxyTableByIndex::?relay`
        FUNCTION `??gp_getProxyTableByIndex::?relay`,0203H
        PUBLIC `??gp_returnOperationalChannel::?relay`
        FUNCTION `??gp_returnOperationalChannel::?relay`,0203H
        PUBLIC `??gp_stopCommissioningMode::?relay`
        FUNCTION `??gp_stopCommissioningMode::?relay`,0203H
        PUBLIC `??zclGp_DataIndParse::?relay`
        FUNCTION `??zclGp_DataIndParse::?relay`,0203H
        FUNCTION `??zclGp_GpPairingCommandCB::?relay`,0203H
        FUNCTION `??zclGp_GpProxyCommissioningModeCB::?relay`,0203H
        FUNCTION `??zclGp_GpProxyTableReqCB::?relay`,0203H
        FUNCTION `??zclGp_GpResponseCommandCB::?relay`,0203H
        PUBLIC `??zclGp_ManteinanceIndParse::?relay`
        FUNCTION `??zclGp_ManteinanceIndParse::?relay`,0203H
        PUBLIC GP_DataCnf
        FUNCTION GP_DataCnf,0203H
        ARGFRAME XSTACK, 0, STACK
        PUBLIC GP_DataInd
        FUNCTION GP_DataInd,0a1203H
        ARGFRAME XSTACK, 0, STACK
        LOCFRAME ISTACK, 1, STACK
        LOCFRAME XSTACK, 150, STACK
        FUNCTION GP_RecoveryKey,0a1203H
        ARGFRAME XSTACK, 99, STACK
        ARGFRAME IOVERLAY, 0, STATIC
        ARGFRAME DOVERLAY, 0, STATIC
        LOCFRAME XSTACK, 40, STACK
        PUBLIC GP_SecReq
        FUNCTION GP_SecReq,0a1203H
        ARGFRAME XSTACK, 0, STACK
        LOCFRAME ISTACK, 1, STACK
        LOCFRAME XSTACK, 102, STACK
        PUBWEAK __Constant_10000
        PUBWEAK __Constant_1388
        PUBWEAK __Constant_20000
        PUBWEAK __Constant_ff
        PUBWEAK __Constant_ff00
        PUBWEAK __Constant_ff0000
        PUBLIC gp_DataIndList
        PUBLIC gp_PopulateField
        FUNCTION gp_PopulateField,0a1203H
        ARGFRAME XSTACK, 81, STACK
        ARGFRAME IOVERLAY, 0, STATIC
        ARGFRAME DOVERLAY, 0, STATIC
        LOCFRAME ISTACK, 2, STACK
        LOCFRAME XSTACK, 20, STACK
        PUBLIC gp_ProxyTblInit
        FUNCTION gp_ProxyTblInit,0a1203H
        ARGFRAME XSTACK, 0, STACK
        ARGFRAME IOVERLAY, 0, STATIC
        ARGFRAME DOVERLAY, 0, STATIC
        LOCFRAME XSTACK, 81, STACK
        PUBLIC gp_RegisterCommissioningModeCB
        FUNCTION gp_RegisterCommissioningModeCB,0203H
        ARGFRAME XSTACK, 0, STACK
        LOCFRAME ISTACK, 2, STACK
        PUBLIC gp_RegisterGPChangeChannelReqCB
        FUNCTION gp_RegisterGPChangeChannelReqCB,0203H
        ARGFRAME XSTACK, 0, STACK
        LOCFRAME ISTACK, 2, STACK
        PUBLIC gp_RegisterGPChangeChannelReqForBDBCB
        FUNCTION gp_RegisterGPChangeChannelReqForBDBCB,0203H
        ARGFRAME XSTACK, 0, STACK
        LOCFRAME ISTACK, 2, STACK
        FUNCTION gp_SecurityOperationProxy,0a1203H
        ARGFRAME XSTACK, 101, STACK
        ARGFRAME IOVERLAY, 0, STATIC
        ARGFRAME DOVERLAY, 0, STATIC
        LOCFRAME ISTACK, 1, STACK
        LOCFRAME XSTACK, 97, STACK
        FUNCTION gp_ZclPairingParse,0a1203H
        ARGFRAME XSTACK, 53, STACK
        ARGFRAME IOVERLAY, 0, STATIC
        ARGFRAME DOVERLAY, 0, STATIC
        LOCFRAME XSTACK, 84, STACK
        FUNCTION gp_ZclProxyTableReqParse,0a1203H
        ARGFRAME XSTACK, 181, STACK
        ARGFRAME IOVERLAY, 0, STATIC
        ARGFRAME DOVERLAY, 0, STATIC
        LOCFRAME ISTACK, 1, STACK
        LOCFRAME XSTACK, 14, STACK
        PUBLIC gp_commissionerAddress
        PUBLIC gp_commissioningOptions
        PUBLIC gp_commissioningUnicastAddress
        PUBLIC gp_endpointInit
        FUNCTION gp_endpointInit,021203H
        ARGFRAME XSTACK, 0, STACK
        LOCFRAME ISTACK, 2, STACK
        PUBLIC gp_expireDuplicateFiltering
        FUNCTION gp_expireDuplicateFiltering,0a1203H
        ARGFRAME XSTACK, 0, STACK
        LOCFRAME XSTACK, 12, STACK
        PUBLIC gp_getProxyTableByGpId
        FUNCTION gp_getProxyTableByGpId,0a1203H
        ARGFRAME XSTACK, 183, STACK
        ARGFRAME IOVERLAY, 0, STATIC
        ARGFRAME DOVERLAY, 0, STATIC
        LOCFRAME XSTACK, 22, STACK
        PUBLIC gp_getProxyTableByIndex
        FUNCTION gp_getProxyTableByIndex,0a1203H
        ARGFRAME XSTACK, 181, STACK
        ARGFRAME IOVERLAY, 0, STATIC
        ARGFRAME DOVERLAY, 0, STATIC
        LOCFRAME XSTACK, 20, STACK
        PUBLIC gp_returnOperationalChannel
        FUNCTION gp_returnOperationalChannel,021203H
        ARGFRAME XSTACK, 0, STACK
        LOCFRAME ISTACK, 2, STACK
        LOCFRAME XSTACK, 21, STACK
        PUBLIC gp_stopCommissioningMode
        FUNCTION gp_stopCommissioningMode,021203H
        ARGFRAME XSTACK, 53, STACK
        ARGFRAME IOVERLAY, 0, STATIC
        ARGFRAME DOVERLAY, 0, STATIC
        LOCFRAME ISTACK, 2, STACK
        PUBLIC gp_tempLogicalChannel
        PUBLIC pZclGp_ProxyTableEntries
        PUBLIC pZclGp_gppBlockedGPDID
        PUBLIC zclGp_Attrs
        PUBLIC zclGp_DataIndParse
        FUNCTION zclGp_DataIndParse,0a1203H
        ARGFRAME XSTACK, 146, STACK
        ARGFRAME IOVERLAY, 0, STATIC
        ARGFRAME DOVERLAY, 0, STATIC
        LOCFRAME ISTACK, 1, STACK
        LOCFRAME XSTACK, 89, STACK
        FUNCTION zclGp_GpPairingCommandCB,021603H
        ARGFRAME XSTACK, 0, STACK
        LOCFRAME ISTACK, 2, STACK
        LOCFRAME XSTACK, 53, STACK
        FUNCTION zclGp_GpProxyCommissioningModeCB,0a1603H
        ARGFRAME XSTACK, 0, STACK
        LOCFRAME XSTACK, 10, STACK
        FUNCTION zclGp_GpProxyTableReqCB,0a1603H
        ARGFRAME XSTACK, 0, STACK
        LOCFRAME ISTACK, 1, STACK
        LOCFRAME XSTACK, 184, STACK
        FUNCTION zclGp_GpResponseCommandCB,0a1603H
        ARGFRAME XSTACK, 0, STACK
        LOCFRAME ISTACK, 1, STACK
        LOCFRAME XSTACK, 97, STACK
        PUBLIC zclGp_ManteinanceIndParse
        FUNCTION zclGp_ManteinanceIndParse,0a1203H
        ARGFRAME XSTACK, 146, STACK
        ARGFRAME IOVERLAY, 0, STATIC
        ARGFRAME DOVERLAY, 0, STATIC
        LOCFRAME ISTACK, 1, STACK
        LOCFRAME XSTACK, 21, STACK
        PUBLIC zclGp_NumAttributes
        PUBLIC zclGp_clusterRevision
        PUBLIC zclGp_gpLinkKey
        PUBLIC zclGp_gpSharedSecurityKey
        PUBLIC zclGp_gpSharedSecurityKeyType
        PUBLIC zclGp_gppActiveFunctionality
        PUBLIC zclGp_gppFunctionality
        PUBLIC zclGp_gppMaxProxyTableEntries
        PUBLIC zclGp_gppMaxSearchCounter
        PUBLIC zclGp_gppNotificationRetryNumber
        PUBLIC zclGp_gppNotificationRetryTimer
        PUBLIC zgGP_InCommissioningMode
        PUBLIC zgpSharedKey
        
          CFI Names cfiNames0
          CFI StackFrame CFA_SP SP IDATA
          CFI StackFrame CFA_PSP16 PSP16 XDATA
          CFI StackFrame CFA_XSP16 XSP16 XDATA
          CFI StaticOverlayFrame CFA_IOVERLAY IOVERLAY
          CFI StaticOverlayFrame CFA_DOVERLAY DOVERLAY
          CFI Resource `PSW.CY`:1, `B.BR0`:1, `B.BR1`:1, `B.BR2`:1, `B.BR3`:1
          CFI Resource `B.BR4`:1, `B.BR5`:1, `B.BR6`:1, `B.BR7`:1, `VB.BR8`:1
          CFI Resource `VB.BR9`:1, `VB.BR10`:1, `VB.BR11`:1, `VB.BR12`:1
          CFI Resource `VB.BR13`:1, `VB.BR14`:1, `VB.BR15`:1, VB:8, B:8, A:8
          CFI Resource PSW:8, DPL0:8, DPH0:8, R0:8, R1:8, R2:8, R3:8, R4:8, R5:8
          CFI Resource R6:8, R7:8, V0:8, V1:8, V2:8, V3:8, V4:8, V5:8, V6:8, V7:8
          CFI Resource SP:8, PSPH:8, PSPL:8, PSP16:16, XSPH:8, XSPL:8, XSP16:16
          CFI VirtualResource ?RET:24
          CFI Resource ?BRET_EXT:8
          CFI VirtualResource ?RET_HIGH:8, ?RET_LOW:8
          CFI ResourceParts PSP16 PSPH, PSPL
          CFI ResourceParts XSP16 XSPH, XSPL
          CFI ResourceParts ?RET ?BRET_EXT, ?RET_HIGH, ?RET_LOW
          CFI EndNames cfiNames0
        
          CFI Common cfiCommon0 Using cfiNames0
          CFI CodeAlign 1
          CFI DataAlign -1
          CFI ReturnAddress ?RET CODE
          CFI CFA_DOVERLAY Used
          CFI CFA_IOVERLAY Used
          CFI CFA_SP SP+-3
          CFI CFA_PSP16 PSP16+0
          CFI CFA_XSP16 XSP16+0
          CFI `PSW.CY` SameValue
          CFI `B.BR0` SameValue
          CFI `B.BR1` SameValue
          CFI `B.BR2` SameValue
          CFI `B.BR3` SameValue
          CFI `B.BR4` SameValue
          CFI `B.BR5` SameValue
          CFI `B.BR6` SameValue
          CFI `B.BR7` SameValue
          CFI `VB.BR8` SameValue
          CFI `VB.BR9` SameValue
          CFI `VB.BR10` SameValue
          CFI `VB.BR11` SameValue
          CFI `VB.BR12` SameValue
          CFI `VB.BR13` SameValue
          CFI `VB.BR14` SameValue
          CFI `VB.BR15` SameValue
          CFI VB SameValue
          CFI B Undefined
          CFI A Undefined
          CFI PSW SameValue
          CFI DPL0 SameValue
          CFI DPH0 SameValue
          CFI R0 Undefined
          CFI R1 Undefined
          CFI R2 Undefined
          CFI R3 Undefined
          CFI R4 Undefined
          CFI R5 Undefined
          CFI R6 SameValue
          CFI R7 SameValue
          CFI V0 SameValue
          CFI V1 SameValue
          CFI V2 SameValue
          CFI V3 SameValue
          CFI V4 SameValue
          CFI V5 SameValue
          CFI V6 SameValue
          CFI V7 SameValue
          CFI PSPH Undefined
          CFI PSPL Undefined
          CFI XSPH Undefined
          CFI XSPL Undefined
          CFI ?RET Concat
          CFI ?BRET_EXT Frame(CFA_SP, 3)
          CFI ?RET_HIGH Frame(CFA_SP, 2)
          CFI ?RET_LOW Frame(CFA_SP, 1)
          CFI EndCommon cfiCommon0
        
        
          CFI Common cfiCommon1 Using cfiNames0
          CFI CodeAlign 1
          CFI DataAlign -1
          CFI ReturnAddress ?RET CODE
          CFI CFA_DOVERLAY Used
          CFI CFA_IOVERLAY Used
          CFI CFA_SP SP+-2
          CFI CFA_PSP16 PSP16+0
          CFI CFA_XSP16 XSP16+0
          CFI `PSW.CY` SameValue
          CFI `B.BR0` SameValue
          CFI `B.BR1` SameValue
          CFI `B.BR2` SameValue
          CFI `B.BR3` SameValue
          CFI `B.BR4` SameValue
          CFI `B.BR5` SameValue
          CFI `B.BR6` SameValue
          CFI `B.BR7` SameValue
          CFI `VB.BR8` SameValue
          CFI `VB.BR9` SameValue
          CFI `VB.BR10` SameValue
          CFI `VB.BR11` SameValue
          CFI `VB.BR12` SameValue
          CFI `VB.BR13` SameValue
          CFI `VB.BR14` SameValue
          CFI `VB.BR15` SameValue
          CFI VB SameValue
          CFI B SameValue
          CFI A SameValue
          CFI PSW SameValue
          CFI DPL0 SameValue
          CFI DPH0 SameValue
          CFI R0 SameValue
          CFI R1 SameValue
          CFI R2 SameValue
          CFI R3 SameValue
          CFI R4 SameValue
          CFI R5 SameValue
          CFI R6 SameValue
          CFI R7 SameValue
          CFI V0 SameValue
          CFI V1 SameValue
          CFI V2 SameValue
          CFI V3 SameValue
          CFI V4 SameValue
          CFI V5 SameValue
          CFI V6 SameValue
          CFI V7 SameValue
          CFI PSPH Undefined
          CFI PSPL Undefined
          CFI XSPH Undefined
          CFI XSPL Undefined
          CFI ?RET Concat
          CFI ?BRET_EXT SameValue
          CFI ?RET_HIGH Frame(CFA_SP, 2)
          CFI ?RET_LOW Frame(CFA_SP, 1)
          CFI EndCommon cfiCommon1
        
GP_DataReq          SYMBOL "GP_DataReq"
`??GP_DataReq::?relay` SYMBOL "?relay", GP_DataReq
ZDSecMgrReadKeyFromNv SYMBOL "ZDSecMgrReadKeyFromNv"
`??ZDSecMgrReadKeyFromNv::?relay` SYMBOL "?relay", ZDSecMgrReadKeyFromNv
ZMacSetReq          SYMBOL "ZMacSetReq"
`??ZMacSetReq::?relay` SYMBOL "?relay", ZMacSetReq
bdb_RegisterSimpleDescriptor SYMBOL "bdb_RegisterSimpleDescriptor"
`??bdb_RegisterSimpleDescriptor::?relay` SYMBOL "?relay", bdb_RegisterSimpleDescriptor
gp_DataIndAppendToList SYMBOL "gp_DataIndAppendToList"
`??gp_DataIndAppendToList::?relay` SYMBOL "?relay", gp_DataIndAppendToList
gp_DataIndGet       SYMBOL "gp_DataIndGet"
`??gp_DataIndGet::?relay` SYMBOL "?relay", gp_DataIndGet
gp_DataIndReleaseFromList SYMBOL "gp_DataIndReleaseFromList"
`??gp_DataIndReleaseFromList::?relay` SYMBOL "?relay", gp_DataIndReleaseFromList
gp_FreeGpTxQueue    SYMBOL "gp_FreeGpTxQueue"
`??gp_FreeGpTxQueue::?relay` SYMBOL "?relay", gp_FreeGpTxQueue
gp_GetHandle        SYMBOL "gp_GetHandle"
`??gp_GetHandle::?relay` SYMBOL "?relay", gp_GetHandle
gp_PairingUpdateProxyTlb SYMBOL "gp_PairingUpdateProxyTlb"
`??gp_PairingUpdateProxyTlb::?relay` SYMBOL "?relay", gp_PairingUpdateProxyTlb
gp_ResetProxyBasicTblEntry SYMBOL "gp_ResetProxyBasicTblEntry"
`??gp_ResetProxyBasicTblEntry::?relay` SYMBOL "?relay", gp_ResetProxyBasicTblEntry
osal_build_uint16   SYMBOL "osal_build_uint16"
`??osal_build_uint16::?relay` SYMBOL "?relay", osal_build_uint16
osal_build_uint32   SYMBOL "osal_build_uint32"
`??osal_build_uint32::?relay` SYMBOL "?relay", osal_build_uint32
osal_get_timeoutEx  SYMBOL "osal_get_timeoutEx"
`??osal_get_timeoutEx::?relay` SYMBOL "?relay", osal_get_timeoutEx
osal_mem_alloc      SYMBOL "osal_mem_alloc"
`??osal_mem_alloc::?relay` SYMBOL "?relay", osal_mem_alloc
osal_mem_free       SYMBOL "osal_mem_free"
`??osal_mem_free::?relay` SYMBOL "?relay", osal_mem_free
osal_memcmp         SYMBOL "osal_memcmp"
`??osal_memcmp::?relay` SYMBOL "?relay", osal_memcmp
osal_memcpy         SYMBOL "osal_memcpy"
`??osal_memcpy::?relay` SYMBOL "?relay", osal_memcpy
osal_memset         SYMBOL "osal_memset"
`??osal_memset::?relay` SYMBOL "?relay", osal_memset
osal_msg_allocate   SYMBOL "osal_msg_allocate"
`??osal_msg_allocate::?relay` SYMBOL "?relay", osal_msg_allocate
osal_msg_send       SYMBOL "osal_msg_send"
`??osal_msg_send::?relay` SYMBOL "?relay", osal_msg_send
osal_nv_item_init   SYMBOL "osal_nv_item_init"
`??osal_nv_item_init::?relay` SYMBOL "?relay", osal_nv_item_init
osal_nv_read        SYMBOL "osal_nv_read"
`??osal_nv_read::?relay` SYMBOL "?relay", osal_nv_read
osal_nv_write       SYMBOL "osal_nv_write"
`??osal_nv_write::?relay` SYMBOL "?relay", osal_nv_write
osal_start_timerEx  SYMBOL "osal_start_timerEx"
`??osal_start_timerEx::?relay` SYMBOL "?relay", osal_start_timerEx
osal_stop_timerEx   SYMBOL "osal_stop_timerEx"
`??osal_stop_timerEx::?relay` SYMBOL "?relay", osal_stop_timerEx
pt_ZclReadGetProxyEntry SYMBOL "pt_ZclReadGetProxyEntry"
`??pt_ZclReadGetProxyEntry::?relay` SYMBOL "?relay", pt_ZclReadGetProxyEntry
zclGp_RegisterCmdCallbacks SYMBOL "zclGp_RegisterCmdCallbacks"
`??zclGp_RegisterCmdCallbacks::?relay` SYMBOL "?relay", zclGp_RegisterCmdCallbacks
zclGp_SendGpCommissioningNotificationCommand SYMBOL "zclGp_SendGpCommissioningNotificationCommand"
`??zclGp_SendGpCommissioningNotificationCommand:` SYMBOL "?relay", zclGp_SendGpCommissioningNotificationCommand
zclGp_SendGpNotificationCommand SYMBOL "zclGp_SendGpNotificationCommand"
`??zclGp_SendGpNotificationCommand::?relay` SYMBOL "?relay", zclGp_SendGpNotificationCommand
zclGp_SendGpProxyTableResponse SYMBOL "zclGp_SendGpProxyTableResponse"
`??zclGp_SendGpProxyTableResponse::?relay` SYMBOL "?relay", zclGp_SendGpProxyTableResponse
`?<Name zclGpp_ReadWriteAttr 62>` SYMBOL "zclGpp_ReadWriteAttrCB"
`??zclGpp_ReadWriteAttrCB::?relay` SYMBOL "?relay", `?<Name zclGpp_ReadWriteAttr 62>`
zcl_ReadAttrData    SYMBOL "zcl_ReadAttrData"
`??zcl_ReadAttrData::?relay` SYMBOL "?relay", zcl_ReadAttrData
zcl_registerAttrList SYMBOL "zcl_registerAttrList"
`??zcl_registerAttrList::?relay` SYMBOL "?relay", zcl_registerAttrList
zcl_registerReadWriteCB SYMBOL "zcl_registerReadWriteCB"
`??zcl_registerReadWriteCB::?relay` SYMBOL "?relay", zcl_registerReadWriteCB
GP_DataCnf          SYMBOL "GP_DataCnf"
`??GP_DataCnf::?relay` SYMBOL "?relay", GP_DataCnf
GP_DataInd          SYMBOL "GP_DataInd"
`??GP_DataInd::?relay` SYMBOL "?relay", GP_DataInd
GP_SecReq           SYMBOL "GP_SecReq"
`??GP_SecReq::?relay` SYMBOL "?relay", GP_SecReq
gp_PopulateField    SYMBOL "gp_PopulateField"
`??gp_PopulateField::?relay` SYMBOL "?relay", gp_PopulateField
gp_ProxyTblInit     SYMBOL "gp_ProxyTblInit"
`??gp_ProxyTblInit::?relay` SYMBOL "?relay", gp_ProxyTblInit
gp_RegisterCommissioningModeCB SYMBOL "gp_RegisterCommissioningModeCB"
`??gp_RegisterCommissioningModeCB::?relay` SYMBOL "?relay", gp_RegisterCommissioningModeCB
gp_RegisterGPChangeChannelReqCB SYMBOL "gp_RegisterGPChangeChannelReqCB"
`??gp_RegisterGPChangeChannelReqCB::?relay` SYMBOL "?relay", gp_RegisterGPChangeChannelReqCB
gp_RegisterGPChangeChannelReqForBDBCB SYMBOL "gp_RegisterGPChangeChannelReqForBDBCB"
`??gp_RegisterGPChangeChannelReqForBDBCB::?relay` SYMBOL "?relay", gp_RegisterGPChangeChannelReqForBDBCB
gp_endpointInit     SYMBOL "gp_endpointInit"
`??gp_endpointInit::?relay` SYMBOL "?relay", gp_endpointInit
gp_expireDuplicateFiltering SYMBOL "gp_expireDuplicateFiltering"
`??gp_expireDuplicateFiltering::?relay` SYMBOL "?relay", gp_expireDuplicateFiltering
gp_getProxyTableByGpId SYMBOL "gp_getProxyTableByGpId"
`??gp_getProxyTableByGpId::?relay` SYMBOL "?relay", gp_getProxyTableByGpId
gp_getProxyTableByIndex SYMBOL "gp_getProxyTableByIndex"
`??gp_getProxyTableByIndex::?relay` SYMBOL "?relay", gp_getProxyTableByIndex
gp_returnOperationalChannel SYMBOL "gp_returnOperationalChannel"
`??gp_returnOperationalChannel::?relay` SYMBOL "?relay", gp_returnOperationalChannel
gp_stopCommissioningMode SYMBOL "gp_stopCommissioningMode"
`??gp_stopCommissioningMode::?relay` SYMBOL "?relay", gp_stopCommissioningMode
zclGp_DataIndParse  SYMBOL "zclGp_DataIndParse"
`??zclGp_DataIndParse::?relay` SYMBOL "?relay", zclGp_DataIndParse
zclGp_ManteinanceIndParse SYMBOL "zclGp_ManteinanceIndParse"
`??zclGp_ManteinanceIndParse::?relay` SYMBOL "?relay", zclGp_ManteinanceIndParse

        EXTERN `??GP_DataReq::?relay`
        FUNCTION `??GP_DataReq::?relay`,00H
        EXTERN `??ZDSecMgrReadKeyFromNv::?relay`
        FUNCTION `??ZDSecMgrReadKeyFromNv::?relay`,00H
        EXTERN `??ZMacSetReq::?relay`
        FUNCTION `??ZMacSetReq::?relay`,00H
        EXTERN `??bdb_RegisterSimpleDescriptor::?relay`
        FUNCTION `??bdb_RegisterSimpleDescriptor::?relay`,00H
        EXTERN `??gp_DataIndAppendToList::?relay`
        FUNCTION `??gp_DataIndAppendToList::?relay`,00H
        EXTERN `??gp_DataIndGet::?relay`
        FUNCTION `??gp_DataIndGet::?relay`,00H
        EXTERN `??gp_DataIndReleaseFromList::?relay`
        FUNCTION `??gp_DataIndReleaseFromList::?relay`,00H
        EXTERN `??gp_FreeGpTxQueue::?relay`
        FUNCTION `??gp_FreeGpTxQueue::?relay`,00H
        EXTERN `??gp_GetHandle::?relay`
        FUNCTION `??gp_GetHandle::?relay`,00H
        EXTERN `??gp_PairingUpdateProxyTlb::?relay`
        FUNCTION `??gp_PairingUpdateProxyTlb::?relay`,00H
        EXTERN `??gp_ResetProxyBasicTblEntry::?relay`
        FUNCTION `??gp_ResetProxyBasicTblEntry::?relay`,00H
        EXTERN `??osal_build_uint16::?relay`
        FUNCTION `??osal_build_uint16::?relay`,00H
        EXTERN `??osal_build_uint32::?relay`
        FUNCTION `??osal_build_uint32::?relay`,00H
        EXTERN `??osal_get_timeoutEx::?relay`
        FUNCTION `??osal_get_timeoutEx::?relay`,00H
        EXTERN `??osal_mem_alloc::?relay`
        FUNCTION `??osal_mem_alloc::?relay`,00H
        EXTERN `??osal_mem_free::?relay`
        FUNCTION `??osal_mem_free::?relay`,00H
        EXTERN `??osal_memcmp::?relay`
        FUNCTION `??osal_memcmp::?relay`,00H
        EXTERN `??osal_memcpy::?relay`
        FUNCTION `??osal_memcpy::?relay`,00H
        EXTERN `??osal_memset::?relay`
        FUNCTION `??osal_memset::?relay`,00H
        EXTERN `??osal_msg_allocate::?relay`
        FUNCTION `??osal_msg_allocate::?relay`,00H
        EXTERN `??osal_msg_send::?relay`
        FUNCTION `??osal_msg_send::?relay`,00H
        EXTERN `??osal_nv_item_init::?relay`
        FUNCTION `??osal_nv_item_init::?relay`,00H
        EXTERN `??osal_nv_read::?relay`
        FUNCTION `??osal_nv_read::?relay`,00H
        EXTERN `??osal_nv_write::?relay`
        FUNCTION `??osal_nv_write::?relay`,00H
        EXTERN `??osal_start_timerEx::?relay`
        FUNCTION `??osal_start_timerEx::?relay`,00H
        EXTERN `??osal_stop_timerEx::?relay`
        FUNCTION `??osal_stop_timerEx::?relay`,00H
        EXTERN `??pt_ZclReadGetProxyEntry::?relay`
        FUNCTION `??pt_ZclReadGetProxyEntry::?relay`,00H
        EXTERN `??zclGp_RegisterCmdCallbacks::?relay`
        FUNCTION `??zclGp_RegisterCmdCallbacks::?relay`,00H
        EXTERN `??zclGp_SendGpCommissioningNotificationCommand:`
        FUNCTION `??zclGp_SendGpCommissioningNotificationCommand:`,00H
        EXTERN `??zclGp_SendGpNotificationCommand::?relay`
        FUNCTION `??zclGp_SendGpNotificationCommand::?relay`,00H
        EXTERN `??zclGp_SendGpProxyTableResponse::?relay`
        FUNCTION `??zclGp_SendGpProxyTableResponse::?relay`,00H
        EXTERN `??zclGpp_ReadWriteAttrCB::?relay`
        FUNCTION `??zclGpp_ReadWriteAttrCB::?relay`,00H
        EXTERN `??zcl_ReadAttrData::?relay`
        FUNCTION `??zcl_ReadAttrData::?relay`,00H
        EXTERN `??zcl_registerAttrList::?relay`
        FUNCTION `??zcl_registerAttrList::?relay`,00H
        EXTERN `??zcl_registerReadWriteCB::?relay`
        FUNCTION `??zcl_registerReadWriteCB::?relay`,00H
        EXTERN GP_DataReq
        FUNCTION GP_DataReq,0202H
        ARGFRAME ISTACK, 2, STACK
        ARGFRAME PSTACK, 0, STACK
        ARGFRAME XSTACK, 21, STACK
        ARGFRAME IOVERLAY, 0, STATIC
        ARGFRAME DOVERLAY, 0, STATIC
        EXTERN ZDSecMgrReadKeyFromNv
        FUNCTION ZDSecMgrReadKeyFromNv,0202H
        ARGFRAME ISTACK, 0, STACK
        ARGFRAME PSTACK, 0, STACK
        ARGFRAME XSTACK, 36, STACK
        ARGFRAME IOVERLAY, 0, STATIC
        ARGFRAME DOVERLAY, 0, STATIC
        EXTERN ZMacSetReq
        FUNCTION ZMacSetReq,0202H
        ARGFRAME ISTACK, 2, STACK
        ARGFRAME PSTACK, 0, STACK
        ARGFRAME XSTACK, 93, STACK
        ARGFRAME IOVERLAY, 0, STATIC
        ARGFRAME DOVERLAY, 0, STATIC
        EXTERN _NIB
        EXTERN bdb_RegisterSimpleDescriptor
        FUNCTION bdb_RegisterSimpleDescriptor,0202H
        ARGFRAME ISTACK, 2, STACK
        ARGFRAME PSTACK, 0, STACK
        ARGFRAME XSTACK, 0, STACK
        ARGFRAME IOVERLAY, 0, STATIC
        ARGFRAME DOVERLAY, 0, STATIC
        EXTERN gp_DataIndAppendToList
        FUNCTION gp_DataIndAppendToList,0202H
        ARGFRAME ISTACK, 0, STACK
        ARGFRAME PSTACK, 0, STACK
        ARGFRAME XSTACK, 146, STACK
        ARGFRAME IOVERLAY, 0, STATIC
        ARGFRAME DOVERLAY, 0, STATIC
        EXTERN gp_DataIndGet
        FUNCTION gp_DataIndGet,0202H
        ARGFRAME ISTACK, 0, STACK
        ARGFRAME PSTACK, 0, STACK
        ARGFRAME XSTACK, 99, STACK
        ARGFRAME IOVERLAY, 0, STATIC
        ARGFRAME DOVERLAY, 0, STATIC
        EXTERN gp_DataIndReleaseFromList
        FUNCTION gp_DataIndReleaseFromList,0202H
        ARGFRAME ISTACK, 0, STACK
        ARGFRAME PSTACK, 0, STACK
        ARGFRAME XSTACK, 12, STACK
        ARGFRAME IOVERLAY, 0, STATIC
        ARGFRAME DOVERLAY, 0, STATIC
        EXTERN gp_FreeGpTxQueue
        FUNCTION gp_FreeGpTxQueue,0202H
        ARGFRAME ISTACK, 2, STACK
        ARGFRAME PSTACK, 0, STACK
        ARGFRAME XSTACK, 0, STACK
        ARGFRAME IOVERLAY, 0, STATIC
        ARGFRAME DOVERLAY, 0, STATIC
        EXTERN gp_GetHandle
        FUNCTION gp_GetHandle,0202H
        ARGFRAME ISTACK, 0, STACK
        ARGFRAME PSTACK, 0, STACK
        ARGFRAME XSTACK, 93, STACK
        ARGFRAME IOVERLAY, 0, STATIC
        ARGFRAME DOVERLAY, 0, STATIC
        EXTERN gp_PairingUpdateProxyTlb
        FUNCTION gp_PairingUpdateProxyTlb,0202H
        ARGFRAME ISTACK, 2, STACK
        ARGFRAME PSTACK, 0, STACK
        ARGFRAME XSTACK, 53, STACK
        ARGFRAME IOVERLAY, 0, STATIC
        ARGFRAME DOVERLAY, 0, STATIC
        EXTERN gp_ResetProxyBasicTblEntry
        FUNCTION gp_ResetProxyBasicTblEntry,0202H
        ARGFRAME ISTACK, 0, STACK
        ARGFRAME PSTACK, 0, STACK
        ARGFRAME XSTACK, 81, STACK
        ARGFRAME IOVERLAY, 0, STATIC
        ARGFRAME DOVERLAY, 0, STATIC
        EXTERN gp_TaskID
        EXTERN osal_build_uint16
        FUNCTION osal_build_uint16,0202H
        ARGFRAME ISTACK, 0, STACK
        ARGFRAME PSTACK, 0, STACK
        ARGFRAME XSTACK, 10, STACK
        ARGFRAME IOVERLAY, 0, STATIC
        ARGFRAME DOVERLAY, 0, STATIC
        EXTERN osal_build_uint32
        FUNCTION osal_build_uint32,0202H
        ARGFRAME ISTACK, 0, STACK
        ARGFRAME PSTACK, 0, STACK
        ARGFRAME XSTACK, 94, STACK
        ARGFRAME IOVERLAY, 0, STATIC
        ARGFRAME DOVERLAY, 0, STATIC
        EXTERN osal_get_timeoutEx
        FUNCTION osal_get_timeoutEx,0202H
        ARGFRAME ISTACK, 0, STACK
        ARGFRAME PSTACK, 0, STACK
        ARGFRAME XSTACK, 146, STACK
        ARGFRAME IOVERLAY, 0, STATIC
        ARGFRAME DOVERLAY, 0, STATIC
        EXTERN osal_mem_alloc
        FUNCTION osal_mem_alloc,0202H
        ARGFRAME ISTACK, 0, STACK
        ARGFRAME PSTACK, 0, STACK
        ARGFRAME XSTACK, 181, STACK
        ARGFRAME IOVERLAY, 0, STATIC
        ARGFRAME DOVERLAY, 0, STATIC
        EXTERN osal_mem_free
        FUNCTION osal_mem_free,0202H
        ARGFRAME ISTACK, 0, STACK
        ARGFRAME PSTACK, 0, STACK
        ARGFRAME XSTACK, 181, STACK
        ARGFRAME IOVERLAY, 0, STATIC
        ARGFRAME DOVERLAY, 0, STATIC
        EXTERN osal_memcmp
        FUNCTION osal_memcmp,0202H
        ARGFRAME ISTACK, 0, STACK
        ARGFRAME PSTACK, 0, STACK
        ARGFRAME XSTACK, 97, STACK
        ARGFRAME IOVERLAY, 0, STATIC
        ARGFRAME DOVERLAY, 0, STATIC
        EXTERN osal_memcpy
        FUNCTION osal_memcpy,0202H
        ARGFRAME ISTACK, 0, STACK
        ARGFRAME PSTACK, 0, STACK
        ARGFRAME XSTACK, 184, STACK
        ARGFRAME IOVERLAY, 0, STATIC
        ARGFRAME DOVERLAY, 0, STATIC
        EXTERN osal_memset
        FUNCTION osal_memset,0202H
        ARGFRAME ISTACK, 0, STACK
        ARGFRAME PSTACK, 0, STACK
        ARGFRAME XSTACK, 146, STACK
        ARGFRAME IOVERLAY, 0, STATIC
        ARGFRAME DOVERLAY, 0, STATIC
        EXTERN osal_msg_allocate
        FUNCTION osal_msg_allocate,0202H
        ARGFRAME ISTACK, 0, STACK
        ARGFRAME PSTACK, 0, STACK
        ARGFRAME XSTACK, 99, STACK
        ARGFRAME IOVERLAY, 0, STATIC
        ARGFRAME DOVERLAY, 0, STATIC
        EXTERN osal_msg_send
        FUNCTION osal_msg_send,0202H
        ARGFRAME ISTACK, 0, STACK
        ARGFRAME PSTACK, 0, STACK
        ARGFRAME XSTACK, 99, STACK
        ARGFRAME IOVERLAY, 0, STATIC
        ARGFRAME DOVERLAY, 0, STATIC
        EXTERN osal_nv_item_init
        FUNCTION osal_nv_item_init,0202H
        ARGFRAME ISTACK, 0, STACK
        ARGFRAME PSTACK, 0, STACK
        ARGFRAME XSTACK, 79, STACK
        ARGFRAME IOVERLAY, 0, STATIC
        ARGFRAME DOVERLAY, 0, STATIC
        EXTERN osal_nv_read
        FUNCTION osal_nv_read,0202H
        ARGFRAME ISTACK, 0, STACK
        ARGFRAME PSTACK, 0, STACK
        ARGFRAME XSTACK, 20, STACK
        ARGFRAME IOVERLAY, 0, STATIC
        ARGFRAME DOVERLAY, 0, STATIC
        EXTERN osal_nv_write
        FUNCTION osal_nv_write,0202H
        ARGFRAME ISTACK, 0, STACK
        ARGFRAME PSTACK, 0, STACK
        ARGFRAME XSTACK, 150, STACK
        ARGFRAME IOVERLAY, 0, STATIC
        ARGFRAME DOVERLAY, 0, STATIC
        EXTERN osal_start_timerEx
        FUNCTION osal_start_timerEx,0202H
        ARGFRAME ISTACK, 0, STACK
        ARGFRAME PSTACK, 0, STACK
        ARGFRAME XSTACK, 150, STACK
        ARGFRAME IOVERLAY, 0, STATIC
        ARGFRAME DOVERLAY, 0, STATIC
        EXTERN osal_stop_timerEx
        FUNCTION osal_stop_timerEx,0202H
        ARGFRAME ISTACK, 2, STACK
        ARGFRAME PSTACK, 0, STACK
        ARGFRAME XSTACK, 21, STACK
        ARGFRAME IOVERLAY, 0, STATIC
        ARGFRAME DOVERLAY, 0, STATIC
        EXTERN pt_ZclReadGetProxyEntry
        FUNCTION pt_ZclReadGetProxyEntry,0202H
        ARGFRAME ISTACK, 0, STACK
        ARGFRAME PSTACK, 0, STACK
        ARGFRAME XSTACK, 183, STACK
        ARGFRAME IOVERLAY, 0, STATIC
        ARGFRAME DOVERLAY, 0, STATIC
        EXTERN zclGp_RegisterCmdCallbacks
        FUNCTION zclGp_RegisterCmdCallbacks,0202H
        ARGFRAME ISTACK, 2, STACK
        ARGFRAME PSTACK, 0, STACK
        ARGFRAME XSTACK, 0, STACK
        ARGFRAME IOVERLAY, 0, STATIC
        ARGFRAME DOVERLAY, 0, STATIC
        EXTERN zclGp_SendGpCommissioningNotificationCommand
        FUNCTION zclGp_SendGpCommissioningNotificationCommand,0202H
        ARGFRAME ISTACK, 0, STACK
        ARGFRAME PSTACK, 0, STACK
        ARGFRAME XSTACK, 146, STACK
        ARGFRAME IOVERLAY, 0, STATIC
        ARGFRAME DOVERLAY, 0, STATIC
        EXTERN zclGp_SendGpNotificationCommand
        FUNCTION zclGp_SendGpNotificationCommand,0202H
        ARGFRAME ISTACK, 0, STACK
        ARGFRAME PSTACK, 0, STACK
        ARGFRAME XSTACK, 146, STACK
        ARGFRAME IOVERLAY, 0, STATIC
        ARGFRAME DOVERLAY, 0, STATIC
        EXTERN zclGp_SendGpProxyTableResponse
        FUNCTION zclGp_SendGpProxyTableResponse,0202H
        ARGFRAME ISTACK, 0, STACK
        ARGFRAME PSTACK, 0, STACK
        ARGFRAME XSTACK, 181, STACK
        ARGFRAME IOVERLAY, 0, STATIC
        ARGFRAME DOVERLAY, 0, STATIC
        EXTERN zcl_InSeqNum
        EXTERN zcl_ReadAttrData
        FUNCTION zcl_ReadAttrData,0202H
        ARGFRAME ISTACK, 0, STACK
        ARGFRAME PSTACK, 0, STACK
        ARGFRAME XSTACK, 40, STACK
        ARGFRAME IOVERLAY, 0, STATIC
        ARGFRAME DOVERLAY, 0, STATIC
        EXTERN zcl_registerAttrList
        FUNCTION zcl_registerAttrList,0202H
        ARGFRAME ISTACK, 2, STACK
        ARGFRAME PSTACK, 0, STACK
        ARGFRAME XSTACK, 0, STACK
        ARGFRAME IOVERLAY, 0, STATIC
        ARGFRAME DOVERLAY, 0, STATIC
        EXTERN zcl_registerReadWriteCB
        FUNCTION zcl_registerReadWriteCB,0202H
        ARGFRAME ISTACK, 2, STACK
        ARGFRAME PSTACK, 0, STACK
        ARGFRAME XSTACK, 0, STACK
        ARGFRAME IOVERLAY, 0, STATIC
        ARGFRAME DOVERLAY, 0, STATIC

// D:\fuzzing-coordinator-response-collection\Components\stack\GP\gp_common.c
//    1 /**************************************************************************************************
//    2   Filename:       gp_common.c
//    3   Revised:        $Date: 2016-02-25 11:51:49 -0700 (Thu, 25 Feb 2016) $
//    4   Revision:       $Revision: - $
//    5 
//    6   Description:    This file contains the implementation of the cGP stub.
//    7 
//    8 
//    9   Copyright 2006-2015 Texas Instruments Incorporated. All rights reserved.
//   10 
//   11   IMPORTANT: Your use of this Software is limited to those specific rights
//   12   granted under the terms of a software license agreement between the user
//   13   who downloaded the software, his/her employer (which must be your employer)
//   14   and Texas Instruments Incorporated (the "License").  You may not use this
//   15   Software unless you agree to abide by the terms of the License. The License
//   16   limits your use, and you acknowledge, that the Software may not be modified,
//   17   copied or distributed unless embedded on a Texas Instruments microcontroller
//   18   or used solely and exclusively in conjunction with a Texas Instruments radio
//   19   frequency transceiver, which is integrated into your product.  Other than for
//   20   the foregoing purpose, you may not use, reproduce, copy, prepare derivative
//   21   works of, modify, distribute, perform, display or sell this Software and/or
//   22   its documentation for any purpose.
//   23 
//   24   YOU FURTHER ACKNOWLEDGE AND AGREE THAT THE SOFTWARE AND DOCUMENTATION ARE
//   25   PROVIDED "AS IS" WITHOUT WARRANTY OF ANY KIND, EITHER EXPRESS OR IMPLIED,
//   26   INCLUDING WITHOUT LIMITATION, ANY WARRANTY OF MERCHANTABILITY, TITLE,
//   27   NON-INFRINGEMENT AND FITNESS FOR A PARTICULAR PURPOSE. IN NO EVENT SHALL
//   28   TEXAS INSTRUMENTS OR ITS LICENSORS BE LIABLE OR OBLIGATED UNDER CONTRACT,
//   29   NEGLIGENCE, STRICT LIABILITY, CONTRIBUTION, BREACH OF WARRANTY, OR OTHER
//   30   LEGAL EQUITABLE THEORY ANY DIRECT OR INDIRECT DAMAGES OR EXPENSES
//   31   INCLUDING BUT NOT LIMITED TO ANY INCIDENTAL, SPECIAL, INDIRECT, PUNITIVE
//   32   OR CONSEQUENTIAL DAMAGES, LOST PROFITS OR LOST DATA, COST OF PROCUREMENT
//   33   OF SUBSTITUTE GOODS, TECHNOLOGY, SERVICES, OR ANY CLAIMS BY THIRD PARTIES
//   34   (INCLUDING BUT NOT LIMITED TO ANY DEFENSE THEREOF), OR OTHER SIMILAR COSTS.
//   35 
//   36   Should you have any questions regarding your right to use this Software,
//   37   contact Texas Instruments Incorporated at www.TI.com.
//   38 **************************************************************************************************/
//   39 
//   40 /*********************************************************************
//   41  * INCLUDES
//   42  */
//   43 
//   44 #include "ZGlobals.h"
//   45 #include "ZComDef.h"
//   46 #include "zcl_general.h"
//   47 #include "AF.h"
//   48 #include "gp_common.h"
//   49 #include "gp_interface.h"
//   50 #include "zcl_green_power.h"
//   51 #include "OSAL.h"
//   52 #include "dGP_stub.h"
//   53 #include "mac_api.h"
//   54 #include "ZDSecMgr.h"
//   55 #include "bdb.h"
//   56 
//   57 #if !defined (DISABLE_GREENPOWER_BASIC_PROXY) && (ZG_BUILD_RTR_TYPE)
//   58 
//   59  /*********************************************************************
//   60  * MACROS
//   61  */ 
//   62 
//   63    
//   64  /*********************************************************************
//   65  * CONSTANTS
//   66  */
//   67 
//   68 #define PGG_COMMISSIONING_WINDOW   180  //180 seconds by defaut
//   69 
//   70 
//   71 #ifdef GP_SHARED_KEY

        RSEG CODE_C:CODE:REORDER:NOROOT(0)
        DATA8
//   72   CONFIG_ITEM uint8 zgpSharedKey[SEC_KEY_LEN] = GP_SHARED_KEY;
zgpSharedKey:
        DB 192
        DB 193
        DB 194
        DB 195
        DB 196
        DB 197
        DB 198
        DB 199
        DB 200
        DB 201
        DB 202
        DB 203
        DB 204
        DB 205
        DB 206
        DB 207
//   73 #else
//   74   CONFIG_ITEM uint8 zgpSharedKey[SEC_KEY_LEN] = {0xFF};
//   75 #endif
//   76 
//   77 /*********************************************************************
//   78  * TYPEDEFS
//   79  */
//   80    
//   81  /*********************************************************************
//   82  * GLOBAL VARIABLES
//   83  */
//   84 
//   85 

        RSEG XDATA_I:XDATA:NOROOT(0)
//   86 uint8  zclGp_gppMaxProxyTableEntries = GPP_MAX_PROXY_TABLE_ENTRIES;
zclGp_gppMaxProxyTableEntries:
        DATA8
        DS 1
        REQUIRE `?<Initializer for zclGp_gppMaxProxyTableEntrie`
        REQUIRE __INIT_XDATA_I

        RSEG XDATA_Z:XDATA:NOROOT(0)
        DATA16
//   87 uint8 *pZclGp_ProxyTableEntries = NULL;
pZclGp_ProxyTableEntries:
        DS 2
        REQUIRE __INIT_XDATA_Z

        RSEG XDATA_I:XDATA:NOROOT(0)
//   88 uint8  zclGp_gppNotificationRetryNumber = GPP_NOTIFICATION_RETRY_NUMBER;
zclGp_gppNotificationRetryNumber:
        DATA8
        DS 1
        REQUIRE `?<Initializer for zclGp_gppNotificationRetryNu`
        REQUIRE __INIT_XDATA_I

        RSEG XDATA_I:XDATA:NOROOT(0)
//   89 uint8  zclGp_gppNotificationRetryTimer = GPP_NOTIFICATION_RETRY_TIMER;
zclGp_gppNotificationRetryTimer:
        DATA8
        DS 1
        REQUIRE `?<Initializer for zclGp_gppNotificationRetryTi`
        REQUIRE __INIT_XDATA_I

        RSEG XDATA_I:XDATA:NOROOT(0)
//   90 uint8  zclGp_gppMaxSearchCounter = GPP_MAX_SEARCH_COUNTER;
zclGp_gppMaxSearchCounter:
        DATA8
        DS 1
        REQUIRE `?<Initializer for zclGp_gppMaxSearchCounter>`
        REQUIRE __INIT_XDATA_I

        RSEG XDATA_Z:XDATA:NOROOT(0)
        DATA16
//   91 uint8 *pZclGp_gppBlockedGPDID = NULL;
pZclGp_gppBlockedGPDID:
        DS 2
        REQUIRE __INIT_XDATA_Z
//   92 
//   93 /**********************************************************************************
//   94 ZigBee PRO Green Power feature specification
//   95 Basic functionality set
//   96 Version 1.0
//   97 
//   98 Table 42 – Format of the gppFunctionality attribute
//   99 ----------------------------------------------------------------------------------
//  100 Indication   | Functionality                                        | Basic Proxy
//  101 -------------|------------------------------------------------------|-------------
//  102 b0           | GP feature                                           | 0b1
//  103 b1           | Direct communication (reception of GPDF via GP stub) | 0b1
//  104 b2           | Derived groupcast communication                      | 0b1
//  105 b3           | Pre-commissioned groupcast communication             | 0b1
//  106 b4           | Full unicast communication                           | 0b0
//  107 b5           | Lightweight unicast communication                    | 0b1
//  108 b6           | Reserved                                             | 0b0
//  109 b7           | Bidirectional operation                              | 0b0
//  110 b8           | Proxy Table maintenance (active and passive,         | 0b0
//  111              | for GPD mobility and GPP robustness)                 |
//  112 b9           | Reserved                                             | 0b0
//  113 b10          | GP commissioning                                     | 0b1
//  114 b11          | CT-based commissioning                               | 0b1
//  115 b12          | Maintenance of GPD (deliver channel/key              | 0b0
//  116              | during operation)                                    | 
//  117 b13          | gpdSecurityLevel  = 0b00                             | 0b1
//  118 b14          | Deprecated: gpdSe curityLevel = 0b01                 | 0b0
//  119 b15          | gpdSecurityLevel  = 0b10                             | 0b1
//  120 b16          | gpdSecurityLevel  = 0b11                             | 0b1
//  121 b17          | Reserved                                             | 0b0
//  122 b18          | Reserved                                             | 0b0
//  123 b19          | GPD IEEE address                                     | 0b1
//  124 b20 – b23    | Reserved                                             | 0b0
//  125 ----------------------------------------------------------------------------------
//  126 ***********************************************************************************/
//  127 
//  128 //                                          b0-b7       b8-b15      b16-23
//  129 //                                        0b00101111  0b10101100  0b00001001

        RSEG XDATA_I:XDATA:NOROOT(0)
//  130 uint8  zclGp_gppFunctionality[3] =       {   0x2F,      0xAC,        0x09};
zclGp_gppFunctionality:
        DATA8
        DS 3
        REQUIRE `?<Initializer for zclGp_gppFunctionality>`
        REQUIRE __INIT_XDATA_I

        RSEG XDATA_I:XDATA:NOROOT(0)
//  131 uint8  zclGp_gppActiveFunctionality[3] = {   0x2F,      0xAC,        0x09};
zclGp_gppActiveFunctionality:
        DATA8
        DS 3
        REQUIRE `?<Initializer for zclGp_gppActiveFunctionality`
        REQUIRE __INIT_XDATA_I
//  132 

        RSEG XDATA_Z:XDATA:NOROOT(0)
        DATA8
//  133 uint8  zclGp_gpSharedSecurityKeyType = GP_SHARED_SEC_KEY_TYPE;
zclGp_gpSharedSecurityKeyType:
        DS 1
        REQUIRE __INIT_XDATA_Z

        RSEG XDATA_I:XDATA:NOROOT(0)
//  134 uint8  zclGp_gpSharedSecurityKey[SEC_KEY_LEN] = GP_SHARED_KEY;
zclGp_gpSharedSecurityKey:
        DATA8
        DS 16
        REQUIRE `?<Initializer for zclGp_gpSharedSecurityKey>`
        REQUIRE __INIT_XDATA_I

        RSEG XDATA_I:XDATA:NOROOT(0)
//  135 uint8  zclGp_gpLinkKey[SEC_KEY_LEN] = GP_LINK_LEY;
zclGp_gpLinkKey:
        DATA8
        DS 16
        REQUIRE `?<Initializer for zclGp_gpLinkKey>`
        REQUIRE __INIT_XDATA_I

        RSEG XDATA_I:XDATA:NOROOT(0)
//  136 uint16 zclGp_clusterRevision = GP_CLUSTER_REVISION;
zclGp_clusterRevision:
        DATA16
        DS 2
        REQUIRE `?<Initializer for zclGp_clusterRevision>`
        REQUIRE __INIT_XDATA_I
//  137 

        RSEG XDATA_Z:XDATA:NOROOT(0)
        DATA16
//  138 static gpCommissioningMode_t  pfnCommissioningMode = NULL;
pfnCommissioningMode:
        DS 2
        REQUIRE __INIT_XDATA_Z

        RSEG XDATA_Z:XDATA:NOROOT(0)
        DATA16
//  139 static gpChangeChannelReq_t   pfnChangeChannelReq = NULL;
pfnChangeChannelReq:
        DS 2
        REQUIRE __INIT_XDATA_Z

        RSEG XDATA_Z:XDATA:NOROOT(0)
        DATA16
//  140 static gpChangeChannelReq_t   pfnChangeChannelReqForBDB = NULL;
pfnChangeChannelReqForBDB:
        DS 2
        REQUIRE __INIT_XDATA_Z
//  141 
//  142 

        RSEG XDATA_Z:XDATA:NOROOT(0)
        DATA8
//  143 uint8 gp_commissioningOptions = 0;           //Commissioning Options from the ommissioningMode command
gp_commissioningOptions:
        DS 1
        REQUIRE __INIT_XDATA_Z

        RSEG XDATA_Z:XDATA:NOROOT(0)
        DATA16
//  144 uint16 gp_commissioningUnicastAddress = 0;   //address of the device to which send the notifications
gp_commissioningUnicastAddress:
        DS 2
        REQUIRE __INIT_XDATA_Z
//  145 

        RSEG XDATA_Z:XDATA:NOROOT(0)
        DATA8
//  146 uint8  zgGP_InCommissioningMode = FALSE;     // Global flag that states if in commissioning mode or in operational mode.
zgGP_InCommissioningMode:
        DS 1
        REQUIRE __INIT_XDATA_Z

        RSEG XDATA_I:XDATA:NOROOT(0)
//  147 uint16 gp_commissionerAddress = 0xFFFF;      //Address to which send the notifications during commissioning mode
gp_commissionerAddress:
        DATA16
        DS 2
        REQUIRE `?<Initializer for gp_commissionerAddress>`
        REQUIRE __INIT_XDATA_I

        RSEG XDATA_Z:XDATA:NOROOT(0)
        DATA8
//  148 byte   gp_tempLogicalChannel = 0;            //Holder of the operational nwk channel
gp_tempLogicalChannel:
        DS 1
        REQUIRE __INIT_XDATA_Z
//  149 
//  150 
//  151 
//  152   
//  153 
//  154 /*********************************************************************
//  155  * ATTRIBUTE DEFINITIONS - Uses REAL cluster IDs
//  156  */

        RSEG CODE_C:CODE:REORDER:NOROOT(0)
        DATA8
//  157 CONST zclAttrRec_t zclGp_Attrs[] =
zclGp_Attrs:
        DATA16
        DW 33
        DW 16
        DATA8
        DB 32
        DB 129
        DATA16
        DW zclGp_gppMaxProxyTableEntries
        DW 33
        DW 17
        DATA8
        DB 67
        DB 129
        DATA16
        DW 0H
        DW 33
        DW 18
        DATA8
        DB 32
        DB 131
        DATA16
        DW zclGp_gppNotificationRetryNumber
        DW 33
        DW 19
        DATA8
        DB 32
        DB 131
        DATA16
        DW zclGp_gppNotificationRetryTimer
        DW 33
        DW 20
        DATA8
        DB 32
        DB 131
        DATA16
        DW zclGp_gppMaxSearchCounter
        DW 33
        DW 21
        DATA8
        DB 67
        DB 129
        DATA16
        DW pZclGp_gppBlockedGPDID
        DW 33
        DW 22
        DATA8
        DB 26
        DB 129
        DATA16
        DW zclGp_gppFunctionality
        DW 33
        DW 23
        DATA8
        DB 26
        DB 129
        DATA16
        DW zclGp_gppActiveFunctionality
        DW 33
        DW 32
        DATA8
        DB 24
        DB 131
        DATA16
        DW zclGp_gpSharedSecurityKeyType
        DW 33
        DW 33
        DATA8
        DB 241
        DB 131
        DATA16
        DW zclGp_gpSharedSecurityKey
        DW 33
        DW 34
        DATA8
        DB 241
        DB 131
        DATA16
        DW zclGp_gpLinkKey
        DW 33
        DW 65533
        DATA8
        DB 33
        DB 129
        DATA16
        DW zclGp_clusterRevision
//  158 {
//  159   // *** Green Power Proxy Cluster Attributes ***
//  160   {
//  161     ZCL_CLUSTER_ID_GREEN_POWER,
//  162     {  // Attribute record
//  163       ATTRID_GP_GPP_MAX_PROXY_TABLE_ENTRIES,
//  164       ZCL_DATATYPE_UINT8,
//  165       ACCESS_CONTROL_READ | ACCESS_CLIENT,
//  166       (void *)&zclGp_gppMaxProxyTableEntries
//  167     }
//  168   },
//  169   {
//  170     ZCL_CLUSTER_ID_GREEN_POWER,
//  171     {  // Attribute record
//  172       ATTRID_GP_PROXY_TABLE,
//  173       ZCL_DATATYPE_LONG_OCTET_STR,
//  174       ACCESS_CONTROL_READ | ACCESS_CLIENT,
//  175       NULL // Use application's callback to Read this attribute
//  176     }
//  177   },
//  178   {
//  179     ZCL_CLUSTER_ID_GREEN_POWER,
//  180     {  // Attribute record
//  181       ATTRID_GP_GPP_NOTIFICATION_RETRY_NUMBER,
//  182       ZCL_DATATYPE_UINT8,
//  183       ACCESS_CONTROL_READ | ACCESS_CONTROL_WRITE | ACCESS_CLIENT,
//  184       (void *)&zclGp_gppNotificationRetryNumber
//  185     }
//  186   },
//  187   {
//  188     ZCL_CLUSTER_ID_GREEN_POWER,
//  189     {  // Attribute record
//  190       ATTRID_GP_GPP_NOTIFICATION_RETRY_TIMER,
//  191       ZCL_DATATYPE_UINT8,
//  192       ACCESS_CONTROL_READ | ACCESS_CONTROL_WRITE | ACCESS_CLIENT,
//  193       (void *)&zclGp_gppNotificationRetryTimer
//  194     }
//  195   },
//  196   {
//  197     ZCL_CLUSTER_ID_GREEN_POWER,
//  198     {  // Attribute record
//  199       ATTRID_GP_GPP_MAX_SEARCH_COUNTER,
//  200       ZCL_DATATYPE_UINT8,
//  201       ACCESS_CONTROL_READ | ACCESS_CONTROL_WRITE | ACCESS_CLIENT,
//  202       (void *)&zclGp_gppMaxSearchCounter
//  203     }
//  204   },
//  205   {
//  206     ZCL_CLUSTER_ID_GREEN_POWER,
//  207     {  // Attribute record
//  208       ATTRID_GP_GPP_BLOCKED_GPD_ID,
//  209       ZCL_DATATYPE_LONG_OCTET_STR,
//  210       ACCESS_CONTROL_READ | ACCESS_CLIENT,
//  211       (void *)&pZclGp_gppBlockedGPDID
//  212     }
//  213   },
//  214   {
//  215     ZCL_CLUSTER_ID_GREEN_POWER,
//  216     {  // Attribute record
//  217       ATTRID_GP_GPP_FUNCTIONALITY,
//  218       ZCL_DATATYPE_BITMAP24,
//  219       ACCESS_CONTROL_READ | ACCESS_CLIENT,
//  220       (void *)&zclGp_gppFunctionality
//  221     }
//  222   },
//  223   {
//  224     ZCL_CLUSTER_ID_GREEN_POWER,
//  225     {  // Attribute record
//  226       ATTRID_GP_GPP_ACTIVE_FUNCTIONALITY,
//  227       ZCL_DATATYPE_BITMAP24,
//  228       ACCESS_CONTROL_READ | ACCESS_CLIENT,
//  229       (void *)&zclGp_gppActiveFunctionality
//  230     }
//  231   },
//  232   {
//  233     ZCL_CLUSTER_ID_GREEN_POWER,
//  234     {  // Attribute record
//  235       ATTRID_GP_SHARED_SEC_KEY_TYPE,
//  236       ZCL_DATATYPE_BITMAP8,
//  237       ACCESS_CONTROL_READ | ACCESS_CONTROL_WRITE | ACCESS_CLIENT,
//  238       (void *)&zclGp_gpSharedSecurityKeyType
//  239     }
//  240   },
//  241   {
//  242     ZCL_CLUSTER_ID_GREEN_POWER,
//  243     {  // Attribute record
//  244       ATTRID_GP_SHARED_SEC_KEY,
//  245       ZCL_DATATYPE_128_BIT_SEC_KEY,
//  246       ACCESS_CONTROL_READ | ACCESS_CONTROL_WRITE | ACCESS_CLIENT,
//  247       (void *)&zclGp_gpSharedSecurityKey
//  248     }
//  249   },
//  250   {
//  251     ZCL_CLUSTER_ID_GREEN_POWER,
//  252     {  // Attribute record
//  253       ATTRID_GP_LINK_KEY,
//  254       ZCL_DATATYPE_128_BIT_SEC_KEY,
//  255       ACCESS_CONTROL_READ | ACCESS_CONTROL_WRITE | ACCESS_CLIENT,
//  256       (void *)&zclGp_gpLinkKey
//  257     }
//  258   },
//  259   {
//  260     ZCL_CLUSTER_ID_GREEN_POWER,
//  261     {  // Attribute record
//  262       ATTRID_CLUSTER_REVISION,
//  263       ZCL_DATATYPE_UINT16,
//  264       ACCESS_CONTROL_READ | ACCESS_CLIENT,
//  265       (void *)&zclGp_clusterRevision
//  266     }
//  267   }
//  268 };
//  269 
//  270 

        RSEG CODE_C:CODE:REORDER:NOROOT(0)
        DATA8
//  271 uint8 CONST zclGp_NumAttributes = ( sizeof(zclGp_Attrs) / sizeof(zclGp_Attrs[0]) );
zclGp_NumAttributes:
        DB 12
//  272 
//  273  /*********************************************************************
//  274  * EXTERNAL VARIABLES
//  275  */
//  276 
//  277 //List to filter duplicated packets

        RSEG XDATA_Z:XDATA:NOROOT(0)
        DATA16
//  278 gp_DataInd_t        *gp_DataIndList;
gp_DataIndList:
        DS 2
        REQUIRE __INIT_XDATA_Z
//  279 
//  280 
//  281 /*********************************************************************
//  282  * EXTERNAL FUNCTIONS
//  283  */
//  284 
//  285 
//  286 /*********************************************************************
//  287  * LOCAL VARIABLES
//  288  */
//  289 // This is the Cluster ID List and should be filled with Application
//  290 // specific cluster IDs.
//  291 #define GREEN_POWER_EP_MAX_INCLUSTERS       1
//  292 
//  293 #define GREEN_POWER_EP_MAX_OUTCLUSTERS       1

        RSEG XDATA_ROM_C:CONST:REORDER:NOROOT(0)
        DATA16
//  294 static const cId_t greenPower_EP_OutClusterList[GREEN_POWER_EP_MAX_OUTCLUSTERS] =
greenPower_EP_OutClusterList:
        DW 33
//  295 {
//  296   ZCL_CLUSTER_ID_GREEN_POWER
//  297 };
//  298 

        RSEG XDATA_I:XDATA:NOROOT(0)
//  299 static SimpleDescriptionFormat_t greenPower_EP_SimpleDesc =
greenPower_EP_SimpleDesc:
        DATA8
        DS 12
        REQUIRE `?<Initializer for greenPower_EP_SimpleDesc>`
        REQUIRE __INIT_XDATA_I
//  300 {
//  301   GREEN_POWER_INTERNAL_ENDPOINT,         //  int Endpoint;
//  302   ZCL_GP_PROFILE_ID,                     //  uint16 AppProfId;
//  303   ZCL_GP_DEVICEID_PROXY_BASIC,           //  uint16 AppDeviceId;
//  304   0,                                     //  int   AppDevVer:4;
//  305   0,                                     //  int   AppFlags:4;
//  306   0,                                     //  byte  AppNumInClusters;
//  307   NULL,                                  //  byte *pAppInClusterList;
//  308   GREEN_POWER_EP_MAX_OUTCLUSTERS,        //  byte  AppNumInClusters;
//  309   (cId_t *)greenPower_EP_OutClusterList  //  byte *pAppInClusterList;
//  310 };
//  311 
//  312 
//  313 
//  314 
//  315  /*********************************************************************
//  316  * LOCAL FUNCTIONS
//  317  */
//  318 static void GP_ProccessCommissioningNotification(gp_DataInd_t *gp_DataInd);
//  319 static void GP_ProccessNotification(gp_DataInd_t *gp_DataInd);
//  320 
//  321 static void zclGp_GpPairingCommandCB( zclGpPairing_t *pCmd );
//  322 static void zclGp_GpProxyTableReqCB( zclGpProxyTableRequest_t *pCmd );
//  323 static void zclGp_GpProxyCommissioningModeCB(zclGpProxyCommissioningMode_t* pCmd);
//  324 static void zclGp_GpResponseCommandCB(zclGpResponse_t* pCmd);
//  325 static void gp_u32CastPointer( uint8 *data, uint8 *p );
//  326 static void gp_u16CastPointer( uint8 *data, uint8 *p );
//  327 static void gp_u8CastPointer( uint8 *data, uint8 *p );
//  328 static void gp_ZclPairingParse( zclGpPairing_t* pCmd, gpPairingCmd_t* payload );
//  329 static void gp_ZclProxyTableReqParse( zclGpProxyTableRequest_t* pCmd, gpProxyTableReqCmd_t* payload );
//  330 static uint8 gp_SecurityOperationProxy( gp_DataInd_t* pInd, uint8* pKeyType, uint8* pKey);
//  331 static gp_DataInd_t* gp_DataIndFindDuplicate(uint8 handle, uint8 secLvl);
//  332 static uint8 GP_RecoveryKey(uint8 GPDFKeyType,uint8 KeyType, uint8 status, uint8 *Key);
//  333  
//  334 
//  335 
//  336 
//  337 /*********************************************************************
//  338  * ZCL General Profile Callback table
//  339  */

        RSEG XDATA_I:XDATA:NOROOT(0)
//  340 static zclGp_AppCallbacks_t zclGpProxy_CmdCallbacks =
zclGpProxy_CmdCallbacks:
        DATA8
        DS 8
        REQUIRE `?<Initializer for zclGpProxy_CmdCallbacks>`
        REQUIRE __INIT_XDATA_I
//  341 {
//  342   zclGp_GpPairingCommandCB,            //
//  343   zclGp_GpProxyTableReqCB,
//  344   zclGp_GpProxyCommissioningModeCB,    //
//  345   zclGp_GpResponseCommandCB  
//  346 };
//  347 
//  348 /*********************************************************************
//  349  * PUBLIC FUNCTIONS
//  350  *********************************************************************/
//  351 
//  352 
//  353  

        RSEG BANKED_CODE:HUGECODE:NOROOT(0)
//  354 void gp_endpointInit(void)
gp_endpointInit:
          CFI Block cfiBlock0 Using cfiCommon0
          CFI Function gp_endpointInit
        CODE
//  355 {
        FUNCALL gp_endpointInit, bdb_RegisterSimpleDescriptor
        LOCFRAME ISTACK, 2, STACK
        LOCFRAME PSTACK, 0, STACK
        LOCFRAME XSTACK, 0, STACK
        LOCFRAME IOVERLAY, 0, STATIC
        LOCFRAME DOVERLAY, 0, STATIC
        ARGFRAME ISTACK, 2, STACK
        ARGFRAME PSTACK, 0, STACK
        ARGFRAME XSTACK, 0, STACK
        ARGFRAME IOVERLAY, 0, STATIC
        ARGFRAME DOVERLAY, 0, STATIC
        FUNCALL gp_endpointInit, zclGp_RegisterCmdCallbacks
        LOCFRAME ISTACK, 2, STACK
        LOCFRAME PSTACK, 0, STACK
        LOCFRAME XSTACK, 0, STACK
        LOCFRAME IOVERLAY, 0, STATIC
        LOCFRAME DOVERLAY, 0, STATIC
        ARGFRAME ISTACK, 2, STACK
        ARGFRAME PSTACK, 0, STACK
        ARGFRAME XSTACK, 0, STACK
        ARGFRAME IOVERLAY, 0, STATIC
        ARGFRAME DOVERLAY, 0, STATIC
        FUNCALL gp_endpointInit, zcl_registerAttrList
        LOCFRAME ISTACK, 2, STACK
        LOCFRAME PSTACK, 0, STACK
        LOCFRAME XSTACK, 0, STACK
        LOCFRAME IOVERLAY, 0, STATIC
        LOCFRAME DOVERLAY, 0, STATIC
        ARGFRAME ISTACK, 2, STACK
        ARGFRAME PSTACK, 0, STACK
        ARGFRAME XSTACK, 0, STACK
        ARGFRAME IOVERLAY, 0, STATIC
        ARGFRAME DOVERLAY, 0, STATIC
        FUNCALL gp_endpointInit, zcl_registerReadWriteCB
        LOCFRAME ISTACK, 2, STACK
        LOCFRAME PSTACK, 0, STACK
        LOCFRAME XSTACK, 0, STACK
        LOCFRAME IOVERLAY, 0, STATIC
        LOCFRAME DOVERLAY, 0, STATIC
        ARGFRAME ISTACK, 2, STACK
        ARGFRAME PSTACK, 0, STACK
        ARGFRAME XSTACK, 0, STACK
        ARGFRAME IOVERLAY, 0, STATIC
        ARGFRAME DOVERLAY, 0, STATIC
        FUNCALL gp_endpointInit, gp_ProxyTblInit
        LOCFRAME ISTACK, 2, STACK
        LOCFRAME PSTACK, 0, STACK
        LOCFRAME XSTACK, 0, STACK
        LOCFRAME IOVERLAY, 0, STATIC
        LOCFRAME DOVERLAY, 0, STATIC
        ARGFRAME ISTACK, 2, STACK
        ARGFRAME PSTACK, 0, STACK
        ARGFRAME XSTACK, 0, STACK
        ARGFRAME IOVERLAY, 0, STATIC
        ARGFRAME DOVERLAY, 0, STATIC
        PUSH      DPL
          CFI DPL0 Frame(CFA_SP, 4)
          CFI CFA_SP SP+-4
        PUSH      DPH
          CFI DPH0 Frame(CFA_SP, 5)
          CFI CFA_SP SP+-5
        ; Saved register size: 2
        ; Auto size: 0
//  356 
//  357   bdb_RegisterSimpleDescriptor( &greenPower_EP_SimpleDesc );
        ; Setup parameters for call to function bdb_RegisterSimpleDescriptor
        MOV       R2,#greenPower_EP_SimpleDesc & 0xff
        MOV       R3,#(greenPower_EP_SimpleDesc >> 8) & 0xff
        LCALL     `??bdb_RegisterSimpleDescriptor::?relay`; Banked call to: bdb_RegisterSimpleDescriptor
//  358   
//  359   zclGp_RegisterCmdCallbacks( GREEN_POWER_INTERNAL_ENDPOINT, &zclGpProxy_CmdCallbacks );
        ; Setup parameters for call to function zclGp_RegisterCmdCallbacks
        MOV       R2,#zclGpProxy_CmdCallbacks & 0xff
        MOV       R3,#(zclGpProxy_CmdCallbacks >> 8) & 0xff
        MOV       R1,#-0xe
        LCALL     `??zclGp_RegisterCmdCallbacks::?relay`; Banked call to: zclGp_RegisterCmdCallbacks
//  360   
//  361   // Register the application's attribute list
//  362   zcl_registerAttrList( GREEN_POWER_INTERNAL_ENDPOINT, zclGp_NumAttributes, zclGp_Attrs );
        ; Setup parameters for call to function zcl_registerAttrList
        MOV       R4,#zclGp_Attrs & 0xff
        MOV       R5,#(zclGp_Attrs >> 8) & 0xff
        MOV       R2,#0xc
        MOV       R1,#-0xe
        LCALL     `??zcl_registerAttrList::?relay`; Banked call to: zcl_registerAttrList
//  363   
//  364   zcl_registerReadWriteCB( GREEN_POWER_INTERNAL_ENDPOINT, zclGpp_ReadWriteAttrCB, NULL );
        ; Setup parameters for call to function zcl_registerReadWriteCB
        MOV       R4,#0x0
        MOV       R5,#0x0
        MOV       R2,#`??zclGpp_ReadWriteAttrCB::?relay` & 0xff
        MOV       R3,#(`??zclGpp_ReadWriteAttrCB::?relay` >> 8) & 0xff
        MOV       R1,#-0xe
        LCALL     `??zcl_registerReadWriteCB::?relay`; Banked call to: zcl_registerReadWriteCB
//  365   
//  366   gp_ProxyTblInit( FALSE );
        ; Setup parameters for call to function gp_ProxyTblInit
        MOV       R1,#0x0
        LCALL     `??gp_ProxyTblInit::?relay`; Banked call to: gp_ProxyTblInit
//  367 
//  368 }
        SJMP      ??Subroutine55_0
          CFI EndBlock cfiBlock0
//  369 
//  370 /*********************************************************************
//  371  * @fn      gp_stopCommissioningMode
//  372  *
//  373  * @brief   Stops the commissioning mode
//  374  *
//  375  * @param   none
//  376  *
//  377  * @return  none
//  378  */

        RSEG BANKED_CODE:HUGECODE:NOROOT(0)
//  379 void gp_stopCommissioningMode(void)
gp_stopCommissioningMode:
          CFI Block cfiBlock1 Using cfiCommon0
          CFI Function gp_stopCommissioningMode
        CODE
//  380 {
        FUNCALL gp_stopCommissioningMode, osal_stop_timerEx
        LOCFRAME ISTACK, 2, STACK
        LOCFRAME PSTACK, 0, STACK
        LOCFRAME XSTACK, 0, STACK
        LOCFRAME IOVERLAY, 0, STATIC
        LOCFRAME DOVERLAY, 0, STATIC
        ARGFRAME ISTACK, 2, STACK
        ARGFRAME PSTACK, 0, STACK
        ARGFRAME XSTACK, 0, STACK
        ARGFRAME IOVERLAY, 0, STATIC
        ARGFRAME DOVERLAY, 0, STATIC
        FUNCALL gp_stopCommissioningMode, gp_FreeGpTxQueue
        LOCFRAME ISTACK, 2, STACK
        LOCFRAME PSTACK, 0, STACK
        LOCFRAME XSTACK, 0, STACK
        LOCFRAME IOVERLAY, 0, STATIC
        LOCFRAME DOVERLAY, 0, STATIC
        ARGFRAME ISTACK, 2, STACK
        ARGFRAME PSTACK, 0, STACK
        ARGFRAME XSTACK, 0, STACK
        ARGFRAME IOVERLAY, 0, STATIC
        ARGFRAME DOVERLAY, 0, STATIC
        PUSH      DPL
          CFI DPL0 Frame(CFA_SP, 4)
          CFI CFA_SP SP+-4
        PUSH      DPH
          CFI DPH0 Frame(CFA_SP, 5)
          CFI CFA_SP SP+-5
        ; Saved register size: 2
        ; Auto size: 0
//  381   //Callback to notify about the end of the commissioning mode
//  382   gp_commissioningOptions = 0;
        MOV       DPTR,#gp_commissioningOptions
        CLR       A
        MOVX      @DPTR,A
//  383   zgGP_InCommissioningMode = FALSE;
        MOV       DPTR,#zgGP_InCommissioningMode
        MOVX      @DPTR,A
//  384   gp_commissionerAddress = 0xFFFF;
        MOV       DPTR,#gp_commissionerAddress
        MOV       A,#-0x1
        MOVX      @DPTR,A
        INC       DPTR
        MOVX      @DPTR,A
//  385   osal_stop_timerEx(gp_TaskID,GP_COMMISSIONING_WINDOW_TIMEOUT);
        ; Setup parameters for call to function osal_stop_timerEx
        MOV       R2,#0x4
        MOV       R3,#0x0
        MOV       DPTR,#gp_TaskID
        MOVX      A,@DPTR
        MOV       R1,A
        LCALL     `??osal_stop_timerEx::?relay`; Banked call to: osal_stop_timerEx
//  386   
//  387   //Release the gpTxQueue, proxy does not support bidirectional communication on operational mode
//  388   //A.3.2.8
//  389   gp_FreeGpTxQueue();
        ; Setup parameters for call to function gp_FreeGpTxQueue
        LCALL     `??gp_FreeGpTxQueue::?relay`; Banked call to: gp_FreeGpTxQueue
//  390   
//  391   //Notify the user that we have exited the commissioning mode
//  392   if(pfnCommissioningMode)
        LCALL     ?Subroutine22 & 0xFFFF
??CrossCallReturnLabel_177:
        JZ        ??gp_stopCommissioningMode_0
//  393   {
//  394     pfnCommissioningMode(FALSE);
        ; Setup parameters for indirect call
        MOV       R1,#0x0
        LCALL     ??Subroutine64_0 & 0xFFFF
//  395   }
??CrossCallReturnLabel_128:
        LCALL     ?CALL_IND
//  396 }
??gp_stopCommissioningMode_0:
        SJMP      ??Subroutine55_0
          CFI EndBlock cfiBlock1

        RSEG BANKED_CODE:HUGECODE:NOROOT(0)
?Subroutine0:
          CFI Block cfiBlock2 Using cfiCommon0
          CFI NoFunction
          CFI CFA_SP SP+-5
          CFI CFA_XSP16 add(XSP16, 53)
          CFI DPL0 Frame(CFA_SP, 4)
          CFI DPH0 Frame(CFA_SP, 5)
          CFI Invalid
        LCALL     ?DEALLOC_XSTACK8
          CFI EndBlock cfiBlock2
        REQUIRE ??Subroutine55_0
        ; // Fall through to label ??Subroutine55_0

        RSEG BANKED_CODE:HUGECODE:NOROOT(0)
??Subroutine55_0:
          CFI Block cfiBlock3 Using cfiCommon0
          CFI NoFunction
          CFI CFA_SP SP+-5
          CFI DPL0 Frame(CFA_SP, 4)
          CFI DPH0 Frame(CFA_SP, 5)
        POP       DPH
          CFI CFA_SP SP+-4
          CFI DPH0 SameValue
        POP       DPL
          CFI CFA_SP SP+-3
          CFI DPL0 SameValue
        LJMP      ?BRET
          CFI EndBlock cfiBlock3
//  397 
//  398 /*********************************************************************
//  399  * @fn      zclGp_ManteinanceIndParse
//  400  *
//  401  * @brief   Parse the Gp Manteinance indication to Gp Notification command
//  402  *
//  403  * @param   pInd - Pointer to the incoming data
//  404  *
//  405  * @return  ZStatus_t
//  406  */

        RSEG BANKED_CODE:HUGECODE:NOROOT(0)
//  407 ZStatus_t zclGp_ManteinanceIndParse( gp_DataInd_t *pInd, gpCommissioningNotificationCmd_t *pGpNotification )
zclGp_ManteinanceIndParse:
          CFI Block cfiBlock4 Using cfiCommon0
          CFI Function zclGp_ManteinanceIndParse
        CODE
//  408 {
        FUNCALL zclGp_ManteinanceIndParse, osal_memcpy
        LOCFRAME ISTACK, 0, STACK
        LOCFRAME PSTACK, 0, STACK
        LOCFRAME XSTACK, 21, STACK
        LOCFRAME IOVERLAY, 0, STATIC
        LOCFRAME DOVERLAY, 0, STATIC
        ARGFRAME ISTACK, 0, STACK
        ARGFRAME PSTACK, 0, STACK
        ARGFRAME XSTACK, 21, STACK
        ARGFRAME IOVERLAY, 0, STATIC
        ARGFRAME DOVERLAY, 0, STATIC
        REQUIRE ?V0
        REQUIRE ?V1
        REQUIRE ?V2
        REQUIRE ?V4
        REQUIRE ?V5
        REQUIRE ?V6
        REQUIRE ?V7
        MOV       A,#-0x10
        LCALL     ?BANKED_ENTER_XDATA
          CFI DPH0 load(1, XDATA, add(CFA_XSP16, literal(-1)))
          CFI DPL0 load(1, XDATA, add(CFA_XSP16, literal(-2)))
          CFI ?BRET_EXT load(1, XDATA, add(CFA_XSP16, literal(-3)))
          CFI ?RET_HIGH load(1, XDATA, add(CFA_XSP16, literal(-4)))
          CFI ?RET_LOW load(1, XDATA, add(CFA_XSP16, literal(-5)))
          CFI R7 load(1, XDATA, add(CFA_XSP16, literal(-6)))
          CFI V7 load(1, XDATA, add(CFA_XSP16, literal(-7)))
          CFI V6 load(1, XDATA, add(CFA_XSP16, literal(-8)))
          CFI V5 load(1, XDATA, add(CFA_XSP16, literal(-9)))
          CFI V4 load(1, XDATA, add(CFA_XSP16, literal(-10)))
          CFI V3 load(1, XDATA, add(CFA_XSP16, literal(-11)))
          CFI V2 load(1, XDATA, add(CFA_XSP16, literal(-12)))
          CFI V1 load(1, XDATA, add(CFA_XSP16, literal(-13)))
          CFI V0 load(1, XDATA, add(CFA_XSP16, literal(-14)))
          CFI VB load(1, XDATA, add(CFA_XSP16, literal(-15)))
          CFI R6 load(1, XDATA, add(CFA_XSP16, literal(-16)))
          CFI CFA_SP SP+0
          CFI CFA_XSP16 add(XSP16, 16)
        ; Saved register size: 16
        ; Auto size: 2
        MOV       A,#-0x2
        LCALL     ?ALLOC_XSTACK8
          CFI CFA_XSP16 add(XSP16, 18)
        MOV       A,R2
        MOV       R6,A
        MOV       A,R3
        MOV       R7,A
        MOV       ?V4,R4
        MOV       ?V5,R5
//  409   uint8 currEntry[PROXY_TBL_ENTRY_LEN] = PROXY_BASIC_TBL_EMPTY_ENTRY;
//  410   uint8  ntfOpt[2] = {0x00, 0x00};
        MOV       DPTR,#`?<Constant {0, 0}>`
        MOV       R4,?XSP + 0
        MOV       R5,?XSP + 1
        MOV       A,#0x2
        LCALL     ?MOVE_LONG8_XDATA_XDATA
//  411   int8 RSSI;
//  412   uint8 LQI;
//  413   
//  414   if ( pInd->GPDCmmdID != GP_CHANNEL_REQ_COMMAND_ID )
        MOV       A,R6
        ADD       A,#0x2a
        LCALL     ?Subroutine40 & 0xFFFF
??CrossCallReturnLabel_60:
        XRL       A,#0xe3
        JZ        ??zclGp_ManteinanceIndParse_0
//  415   {
//  416     if ( PROXY_TBL_COMP_APPLICTION_ID( pInd->appID, GP_OPT_APP_ID_GPD ) )
        LCALL     ?Subroutine39 & 0xFFFF
??CrossCallReturnLabel_153:
        ANL       A,#0x7
        MOV       R0,A
        JNZ       ??zclGp_ManteinanceIndParse_1
//  417     {
//  418       pGpNotification->gpdId = pInd->SrcId;
        LCALL     ?Subroutine38 & 0xFFFF
??CrossCallReturnLabel_57:
        LCALL     ?XLOAD_R0123
        MOV       DPL,?V4
        MOV       DPH,?V5
        INC       DPTR
        INC       DPTR
        LCALL     ?XSTORE_R0123
//  419       ntfOpt[0] = GP_OPT_APP_ID_GPD;
        MOV       DPL,?XSP + 0
        MOV       DPH,?XSP + 1
        CLR       A
        SJMP      ??zclGp_ManteinanceIndParse_2
//  420     }
//  421     else if ( PROXY_TBL_COMP_APPLICTION_ID( pInd->appID, GP_OPT_APP_ID_IEEE ) )
??zclGp_ManteinanceIndParse_1:
        MOV       A,#0x2
        XRL       A,R0
        JNZ       ??zclGp_ManteinanceIndParse_0
//  422     {
//  423       osal_memcpy( pGpNotification->gpdIEEE, &(pInd->srcAddr.addr.extAddr), Z_EXTADDR_LEN );
        ; Setup parameters for call to function osal_memcpy
        LCALL     ?Subroutine37 & 0xFFFF
??CrossCallReturnLabel_156:
        LCALL     ?PUSH_XSTACK_I_THREE
          CFI CFA_XSP16 add(XSP16, 21)
        MOV       R4,#0x8
        MOV       R5,#0x0
        MOV       A,?V4
        ADD       A,#0x6
        MOV       R2,A
        CLR       A
        ADDC      A,?V5
        MOV       R3,A
        LCALL     `??osal_memcpy::?relay`; Banked call to: osal_memcpy
        MOV       A,#0x3
        LCALL     ?DEALLOC_XSTACK8
          CFI CFA_XSP16 add(XSP16, 18)
//  424       pGpNotification->ep = pInd->EndPoint;
        MOV       A,R6
        ADD       A,#0x25
        LCALL     ??Subroutine66_0 & 0xFFFF
//  425       ntfOpt[0] = GP_OPT_APP_ID_IEEE;
//  426     }
//  427   }
??CrossCallReturnLabel_146:
        PUSH      A
          CFI CFA_SP SP+-1
        MOV       A,?V4
        ADD       A,#0xe
        LCALL     ?Subroutine46 & 0xFFFF
??CrossCallReturnLabel_73:
        POP       A
          CFI CFA_SP SP+0
        LCALL     ?Subroutine10 & 0xFFFF
??CrossCallReturnLabel_12:
        MOV       A,#0x2
??zclGp_ManteinanceIndParse_2:
        MOVX      @DPTR,A
//  428   
//  429   // Set the options bit field
//  430   ( pInd->RxAfterTx == TRUE ) ?PROXY_TBL_SET_RX_AFTER_TX( ( uint8* )&ntfOpt[0] ) : PROXY_TBL_CLR_RX_AFTER_TX( ( uint8* )&ntfOpt[0] );
??zclGp_ManteinanceIndParse_0:
        MOV       A,R6
        ADD       A,#0x20
        LCALL     ??Subroutine66_0 & 0xFFFF
??CrossCallReturnLabel_147:
        XRL       A,#0x1
        MOV       DPL,?XSP + 0
        MOV       DPH,?XSP + 1
        JNZ       ??zclGp_ManteinanceIndParse_3
        MOVX      A,@DPTR
        SETB      0xE0 /* A   */.3
        SJMP      ??zclGp_ManteinanceIndParse_4
??zclGp_ManteinanceIndParse_3:
        MOVX      A,@DPTR
        CLR       0xE0 /* A   */.3
??zclGp_ManteinanceIndParse_4:
        MOVX      @DPTR,A
//  431   GP_CNTF_SET_SEC_LEVEL( ( uint8* )&ntfOpt[0], currEntry[PROXY_TBL_ENTRY_SEC_OPT] );
        MOVX      A,@DPTR
        ORL       A,#0x30
        MOVX      @DPTR,A
//  432   GP_CNTF_SET_SEC_KEY_TYPE( ( uint16* )ntfOpt, currEntry[PROXY_TBL_ENTRY_SEC_OPT] );
        ORL       A,#0xc0
        MOV       R0,A
        INC       DPTR
        MOVX      A,@DPTR
        ORL       A,#0x1
        MOV       R1,A
        MOV       DPL,?XSP + 0
        MOV       DPH,?XSP + 1
        LCALL     ??Subroutine65_0 & 0xFFFF
//  433   if( pInd->status == GP_DATA_IND_STATUS_AUTH_FAILURE )
??CrossCallReturnLabel_138:
        MOV       A,?V4
        ADD       A,#0x1a
        MOV       R0,A
        CLR       A
        ADDC      A,?V5
        MOV       R1,A
        MOV       A,R0
        MOV       R4,A
        MOV       A,R1
        MOV       R5,A
        MOV       A,R6
        ADD       A,#0xd
        LCALL     ??Subroutine66_0 & 0xFFFF
??CrossCallReturnLabel_148:
        XRL       A,#0x3
        JNZ       ??zclGp_ManteinanceIndParse_5
//  434   {
//  435     GP_CNTF_SET_SEC_FAIL( ( uint8* )&ntfOpt[1] );
        MOV       A,#0x1
        LCALL     ?XSTACK_DISP0_8
        MOVX      A,@DPTR
        SETB      0xE0 /* A   */.1
        MOVX      @DPTR,A
//  436     pGpNotification->mic = pInd->MIC;
        MOV       A,R6
        ADD       A,#0x2b
        MOV       DPL,A
        CLR       A
        ADDC      A,R7
        MOV       DPH,A
        LCALL     ?XLOAD_R0123
        MOV       DPL,R4
        MOV       DPH,R5
        LCALL     ?XSTORE_R0123
        SJMP      ??CrossCallReturnLabel_98
//  437   }
//  438   else
//  439   {
//  440     GP_CNTF_CLR_SEC_FAIL( ( uint8* )&ntfOpt[1] );
??zclGp_ManteinanceIndParse_5:
        MOV       A,#0x1
        LCALL     ?XSTACK_DISP0_8
        MOVX      A,@DPTR
        CLR       0xE0 /* A   */.1
        MOVX      @DPTR,A
//  441     pGpNotification->mic = 0xFFFFFFFF;
        MOV       DPL,R4
        MOV       DPH,R5
        LCALL     ?Subroutine14 & 0xFFFF
//  442   }
//  443   GP_CNTF_SET_BIDIRECTIONAL_CAP( ( uint8* )&ntfOpt[1] );
//  444 
//  445   GP_CNTF_SET_PROXY_INFO( ( uint8* )&ntfOpt[1] );
??CrossCallReturnLabel_98:
        MOV       A,#0x1
        LCALL     ?XSTACK_DISP0_8
        MOVX      A,@DPTR
        ORL       A,#0xc
        LCALL     ?Subroutine8 & 0xFFFF
//  446   
//  447   pGpNotification->options |= ( ( ntfOpt[0] ) & 0x00FF );
//  448   pGpNotification->options |= ( ( ( ntfOpt[1] ) <<  8 ) & 0xFF00 );
??CrossCallReturnLabel_7:
        MOV       R2,A
        MOV       A,#0x1
        LCALL     ?XSTACK_DISP0_8
        MOVX      A,@DPTR
        MOV       R1,A
        MOV       A,R2
        MOV       R0,A
        MOV       DPL,?V4
        MOV       DPH,?V5
        MOVX      A,@DPTR
        ORL       A,R0
        MOVX      @DPTR,A
        INC       DPTR
        MOVX      A,@DPTR
        ORL       A,R1
        MOVX      @DPTR,A
//  449   
//  450   pGpNotification->gpdSecCounter = pInd->GPDSecFrameCounter;
        LCALL     ?Subroutine45 & 0xFFFF
??CrossCallReturnLabel_70:
        LCALL     ?XLOAD_R0123
        MOV       A,?V4
        ADD       A,#0xf
        LCALL     ?Subroutine46 & 0xFFFF
??CrossCallReturnLabel_74:
        LCALL     ?XSTORE_R0123
//  451   pGpNotification->cmdId = pInd->GPDCmmdID;
        MOV       DPL,?V6
        MOV       DPH,?V7
        MOVX      A,@DPTR
        PUSH      A
          CFI CFA_SP SP+-1
        MOV       A,?V4
        ADD       A,#0x13
        LCALL     ?Subroutine46 & 0xFFFF
??CrossCallReturnLabel_75:
        POP       A
          CFI CFA_SP SP+0
        MOVX      @DPTR,A
//  452 
//  453   if ( pInd->GPDasduLength > 0 )
        MOV       A,R6
        ADD       A,#0x2f
        LCALL     ??Subroutine66_0 & 0xFFFF
??CrossCallReturnLabel_149:
        JZ        ??CrossCallReturnLabel_139
//  454   {
//  455     pGpNotification->payloadLen = pInd->GPDasduLength;
        PUSH      A
          CFI CFA_SP SP+-1
        MOV       A,?V4
        ADD       A,#0x14
        LCALL     ?Subroutine46 & 0xFFFF
??CrossCallReturnLabel_76:
        POP       A
          CFI CFA_SP SP+0
        MOVX      @DPTR,A
//  456     pGpNotification->cmdPayload = pInd->GPDasdu;
        MOV       A,R6
        ADD       A,#0x30
        MOV       R0,A
        CLR       A
        ADDC      A,R7
        MOV       R1,A
        MOV       A,?V4
        ADD       A,#0x15
        LCALL     ?Subroutine46 & 0xFFFF
//  457   }
??CrossCallReturnLabel_77:
        LCALL     ??Subroutine65_0 & 0xFFFF
//  458   
//  459   pGpNotification->gppShortAddr = _NIB.nwkDevAddress;
??CrossCallReturnLabel_139:
        LCALL     ?Subroutine31 & 0xFFFF
??CrossCallReturnLabel_106:
        MOV       A,?V4
        ADD       A,#0x17
        LCALL     ?Subroutine46 & 0xFFFF
??CrossCallReturnLabel_78:
        MOV       A,R0
        MOVX      @DPTR,A
        INC       DPTR
        MOV       A,R1
        LCALL     ?Subroutine11 & 0xFFFF
//  460   
//  461   RSSI = pInd->Rssi;
??CrossCallReturnLabel_15:
        LCALL     ?Subroutine28 & 0xFFFF
//  462   ( RSSI > 8 ) ?RSSI = 8 : ( RSSI < -109 ) ?RSSI = -109 : NULL;
??CrossCallReturnLabel_39:
        JC        ??zclGp_ManteinanceIndParse_6
        MOV       R0,#0x3b
        SJMP      ??zclGp_ManteinanceIndParse_7
??zclGp_ManteinanceIndParse_6:
        MOV       A,R0
        CLR       C
        SUBB      A,#-0x6d
        MOV       C,0xD0 /* PSW */.2
        XRL       A,PSW
        RLC       A
        JNC       ??zclGp_ManteinanceIndParse_8
        MOV       R0,#0x0
        SJMP      ??zclGp_ManteinanceIndParse_7
??zclGp_ManteinanceIndParse_8:
        MOV       A,#0x6e
        ADD       A,R0
        MOV       B,#0x2
        LCALL     ?SC_DIV_MOD
        MOV       R0,A
//  463   RSSI += 110;
//  464   RSSI /= 2;
//  465   
//  466   ( pInd->LinkQuality == 0 ) ?LQI = 0 : ( pInd->LinkQuality > 0 ) ?LQI = 2 : NULL;
??zclGp_ManteinanceIndParse_7:
        MOV       A,R6
        ADD       A,#0xf
        LCALL     ??Subroutine66_0 & 0xFFFF
??CrossCallReturnLabel_150:
        JNZ       ??zclGp_ManteinanceIndParse_9
        MOV       R1,#0x0
        SJMP      ??zclGp_ManteinanceIndParse_10
??zclGp_ManteinanceIndParse_9:
        MOV       R1,#0x2
//  467   
//  468   pGpNotification->gppGpdLink = RSSI;
//  469   pGpNotification->gppGpdLink |= ( LQI << 6 );
??zclGp_ManteinanceIndParse_10:
        MOV       A,R1
        SWAP      A
        RLC       A
        RLC       A
        ANL       A,#0xc0
        ORL       A,R0
        PUSH      A
          CFI CFA_SP SP+-1
        MOV       A,?V4
        ADD       A,#0x19
        LCALL     ?Subroutine46 & 0xFFFF
??CrossCallReturnLabel_79:
        POP       A
          CFI CFA_SP SP+0
        MOVX      @DPTR,A
//  470     
//  471   return SUCCESS;
        MOV       R1,#0x0
        MOV       A,#0x2
        LJMP      ?Subroutine1 & 0xFFFF
//  472 }
          CFI EndBlock cfiBlock4

        RSEG BANKED_CODE:HUGECODE:NOROOT(0)
?Subroutine14:
          CFI Block cfiCond5 Using cfiCommon0
          CFI Function zclGp_ManteinanceIndParse
          CFI Conditional ??CrossCallReturnLabel_98
          CFI R6 load(1, XDATA, add(CFA_XSP16, literal(-16)))
          CFI VB load(1, XDATA, add(CFA_XSP16, literal(-15)))
          CFI V0 load(1, XDATA, add(CFA_XSP16, literal(-14)))
          CFI V1 load(1, XDATA, add(CFA_XSP16, literal(-13)))
          CFI V2 load(1, XDATA, add(CFA_XSP16, literal(-12)))
          CFI V3 load(1, XDATA, add(CFA_XSP16, literal(-11)))
          CFI V4 load(1, XDATA, add(CFA_XSP16, literal(-10)))
          CFI V5 load(1, XDATA, add(CFA_XSP16, literal(-9)))
          CFI V6 load(1, XDATA, add(CFA_XSP16, literal(-8)))
          CFI V7 load(1, XDATA, add(CFA_XSP16, literal(-7)))
          CFI R7 load(1, XDATA, add(CFA_XSP16, literal(-6)))
          CFI ?RET_LOW load(1, XDATA, add(CFA_XSP16, literal(-5)))
          CFI ?RET_HIGH load(1, XDATA, add(CFA_XSP16, literal(-4)))
          CFI ?BRET_EXT load(1, XDATA, add(CFA_XSP16, literal(-3)))
          CFI DPL0 load(1, XDATA, add(CFA_XSP16, literal(-2)))
          CFI DPH0 load(1, XDATA, add(CFA_XSP16, literal(-1)))
          CFI CFA_SP SP+-2
          CFI CFA_XSP16 add(XSP16, 18)
          CFI Block cfiCond6 Using cfiCommon0
          CFI (cfiCond6) Function gp_ZclPairingParse
          CFI (cfiCond6) Conditional ??CrossCallReturnLabel_99
          CFI (cfiCond6) R6 load(1, XDATA, add(CFA_XSP16, literal(-16)))
          CFI (cfiCond6) VB load(1, XDATA, add(CFA_XSP16, literal(-15)))
          CFI (cfiCond6) V0 load(1, XDATA, add(CFA_XSP16, literal(-14)))
          CFI (cfiCond6) V1 load(1, XDATA, add(CFA_XSP16, literal(-13)))
          CFI (cfiCond6) V2 load(1, XDATA, add(CFA_XSP16, literal(-12)))
          CFI (cfiCond6) V3 load(1, XDATA, add(CFA_XSP16, literal(-11)))
          CFI (cfiCond6) V4 load(1, XDATA, add(CFA_XSP16, literal(-10)))
          CFI (cfiCond6) V5 load(1, XDATA, add(CFA_XSP16, literal(-9)))
          CFI (cfiCond6) V6 load(1, XDATA, add(CFA_XSP16, literal(-8)))
          CFI (cfiCond6) V7 load(1, XDATA, add(CFA_XSP16, literal(-7)))
          CFI (cfiCond6) R7 load(1, XDATA, add(CFA_XSP16, literal(-6)))
          CFI (cfiCond6) ?RET_LOW load(1, XDATA, add(CFA_XSP16, literal(-5)))
          CFI (cfiCond6) ?RET_HIGH load(1, XDATA, add(CFA_XSP16, literal(-4)))
          CFI (cfiCond6) ?BRET_EXT load(1, XDATA, add(CFA_XSP16, literal(-3)))
          CFI (cfiCond6) DPL0 load(1, XDATA, add(CFA_XSP16, literal(-2)))
          CFI (cfiCond6) DPH0 load(1, XDATA, add(CFA_XSP16, literal(-1)))
          CFI (cfiCond6) CFA_SP SP+-2
          CFI (cfiCond6) CFA_XSP16 add(XSP16, 81)
          CFI Block cfiCond7 Using cfiCommon0
          CFI (cfiCond7) Function gp_ZclProxyTableReqParse
          CFI (cfiCond7) Conditional ??CrossCallReturnLabel_100
          CFI (cfiCond7) R6 load(1, XDATA, add(CFA_XSP16, literal(-14)))
          CFI (cfiCond7) VB load(1, XDATA, add(CFA_XSP16, literal(-13)))
          CFI (cfiCond7) V0 load(1, XDATA, add(CFA_XSP16, literal(-12)))
          CFI (cfiCond7) V1 load(1, XDATA, add(CFA_XSP16, literal(-11)))
          CFI (cfiCond7) V2 load(1, XDATA, add(CFA_XSP16, literal(-10)))
          CFI (cfiCond7) V3 load(1, XDATA, add(CFA_XSP16, literal(-9)))
          CFI (cfiCond7) V4 load(1, XDATA, add(CFA_XSP16, literal(-8)))
          CFI (cfiCond7) V5 load(1, XDATA, add(CFA_XSP16, literal(-7)))
          CFI (cfiCond7) R7 load(1, XDATA, add(CFA_XSP16, literal(-6)))
          CFI (cfiCond7) ?RET_LOW load(1, XDATA, add(CFA_XSP16, literal(-5)))
          CFI (cfiCond7) ?RET_HIGH load(1, XDATA, add(CFA_XSP16, literal(-4)))
          CFI (cfiCond7) ?BRET_EXT load(1, XDATA, add(CFA_XSP16, literal(-3)))
          CFI (cfiCond7) DPL0 load(1, XDATA, add(CFA_XSP16, literal(-2)))
          CFI (cfiCond7) DPH0 load(1, XDATA, add(CFA_XSP16, literal(-1)))
          CFI (cfiCond7) CFA_SP SP+-2
          CFI (cfiCond7) CFA_XSP16 add(XSP16, 14)
          CFI Block cfiPicker8 Using cfiCommon1
          CFI (cfiPicker8) NoFunction
          CFI (cfiPicker8) Picker
        MOV       A,#-0x1
          CFI EndBlock cfiCond5
          CFI EndBlock cfiCond6
          CFI EndBlock cfiCond7
          CFI EndBlock cfiPicker8
        REQUIRE ??Subroutine56_0
        ; // Fall through to label ??Subroutine56_0

        RSEG BANKED_CODE:HUGECODE:NOROOT(0)
??Subroutine56_0:
          CFI Block cfiCond9 Using cfiCommon0
          CFI Function gp_ZclPairingParse
          CFI Conditional ??CrossCallReturnLabel_96
          CFI R6 load(1, XDATA, add(CFA_XSP16, literal(-16)))
          CFI VB load(1, XDATA, add(CFA_XSP16, literal(-15)))
          CFI V0 load(1, XDATA, add(CFA_XSP16, literal(-14)))
          CFI V1 load(1, XDATA, add(CFA_XSP16, literal(-13)))
          CFI V2 load(1, XDATA, add(CFA_XSP16, literal(-12)))
          CFI V3 load(1, XDATA, add(CFA_XSP16, literal(-11)))
          CFI V4 load(1, XDATA, add(CFA_XSP16, literal(-10)))
          CFI V5 load(1, XDATA, add(CFA_XSP16, literal(-9)))
          CFI V6 load(1, XDATA, add(CFA_XSP16, literal(-8)))
          CFI V7 load(1, XDATA, add(CFA_XSP16, literal(-7)))
          CFI R7 load(1, XDATA, add(CFA_XSP16, literal(-6)))
          CFI ?RET_LOW load(1, XDATA, add(CFA_XSP16, literal(-5)))
          CFI ?RET_HIGH load(1, XDATA, add(CFA_XSP16, literal(-4)))
          CFI ?BRET_EXT load(1, XDATA, add(CFA_XSP16, literal(-3)))
          CFI DPL0 load(1, XDATA, add(CFA_XSP16, literal(-2)))
          CFI DPH0 load(1, XDATA, add(CFA_XSP16, literal(-1)))
          CFI CFA_SP SP+-2
          CFI CFA_XSP16 add(XSP16, 81)
          CFI Block cfiCond10 Using cfiCommon0
          CFI (cfiCond10) Function gp_returnOperationalChannel
          CFI (cfiCond10) Conditional ??CrossCallReturnLabel_97
          CFI (cfiCond10) DPL0 Frame(CFA_SP, 4)
          CFI (cfiCond10) DPH0 Frame(CFA_SP, 5)
          CFI (cfiCond10) CFA_SP SP+-7
          CFI (cfiCond10) CFA_XSP16 add(XSP16, 21)
          CFI Block cfiCond11 Using cfiCommon0
          CFI (cfiCond11) Function zclGp_ManteinanceIndParse
          CFI (cfiCond11) Conditional ??CrossCallReturnLabel_98
          CFI (cfiCond11) R6 load(1, XDATA, add(CFA_XSP16, literal(-16)))
          CFI (cfiCond11) VB load(1, XDATA, add(CFA_XSP16, literal(-15)))
          CFI (cfiCond11) V0 load(1, XDATA, add(CFA_XSP16, literal(-14)))
          CFI (cfiCond11) V1 load(1, XDATA, add(CFA_XSP16, literal(-13)))
          CFI (cfiCond11) V2 load(1, XDATA, add(CFA_XSP16, literal(-12)))
          CFI (cfiCond11) V3 load(1, XDATA, add(CFA_XSP16, literal(-11)))
          CFI (cfiCond11) V4 load(1, XDATA, add(CFA_XSP16, literal(-10)))
          CFI (cfiCond11) V5 load(1, XDATA, add(CFA_XSP16, literal(-9)))
          CFI (cfiCond11) V6 load(1, XDATA, add(CFA_XSP16, literal(-8)))
          CFI (cfiCond11) V7 load(1, XDATA, add(CFA_XSP16, literal(-7)))
          CFI (cfiCond11) R7 load(1, XDATA, add(CFA_XSP16, literal(-6)))
          CFI (cfiCond11) ?RET_LOW load(1, XDATA, add(CFA_XSP16, literal(-5)))
          CFI (cfiCond11) ?RET_HIGH load(1, XDATA, add(CFA_XSP16, literal(-4)))
          CFI (cfiCond11) ?BRET_EXT load(1, XDATA, add(CFA_XSP16, literal(-3)))
          CFI (cfiCond11) DPL0 load(1, XDATA, add(CFA_XSP16, literal(-2)))
          CFI (cfiCond11) DPH0 load(1, XDATA, add(CFA_XSP16, literal(-1)))
          CFI (cfiCond11) CFA_SP SP+-2
          CFI (cfiCond11) CFA_XSP16 add(XSP16, 18)
          CFI Block cfiCond12 Using cfiCommon0
          CFI (cfiCond12) Function gp_ZclPairingParse
          CFI (cfiCond12) Conditional ??CrossCallReturnLabel_99
          CFI (cfiCond12) R6 load(1, XDATA, add(CFA_XSP16, literal(-16)))
          CFI (cfiCond12) VB load(1, XDATA, add(CFA_XSP16, literal(-15)))
          CFI (cfiCond12) V0 load(1, XDATA, add(CFA_XSP16, literal(-14)))
          CFI (cfiCond12) V1 load(1, XDATA, add(CFA_XSP16, literal(-13)))
          CFI (cfiCond12) V2 load(1, XDATA, add(CFA_XSP16, literal(-12)))
          CFI (cfiCond12) V3 load(1, XDATA, add(CFA_XSP16, literal(-11)))
          CFI (cfiCond12) V4 load(1, XDATA, add(CFA_XSP16, literal(-10)))
          CFI (cfiCond12) V5 load(1, XDATA, add(CFA_XSP16, literal(-9)))
          CFI (cfiCond12) V6 load(1, XDATA, add(CFA_XSP16, literal(-8)))
          CFI (cfiCond12) V7 load(1, XDATA, add(CFA_XSP16, literal(-7)))
          CFI (cfiCond12) R7 load(1, XDATA, add(CFA_XSP16, literal(-6)))
          CFI (cfiCond12) ?RET_LOW load(1, XDATA, add(CFA_XSP16, literal(-5)))
          CFI (cfiCond12) ?RET_HIGH load(1, XDATA, add(CFA_XSP16, literal(-4)))
          CFI (cfiCond12) ?BRET_EXT load(1, XDATA, add(CFA_XSP16, literal(-3)))
          CFI (cfiCond12) DPL0 load(1, XDATA, add(CFA_XSP16, literal(-2)))
          CFI (cfiCond12) DPH0 load(1, XDATA, add(CFA_XSP16, literal(-1)))
          CFI (cfiCond12) CFA_SP SP+-2
          CFI (cfiCond12) CFA_XSP16 add(XSP16, 81)
          CFI Block cfiCond13 Using cfiCommon0
          CFI (cfiCond13) Function gp_ZclProxyTableReqParse
          CFI (cfiCond13) Conditional ??CrossCallReturnLabel_100
          CFI (cfiCond13) R6 load(1, XDATA, add(CFA_XSP16, literal(-14)))
          CFI (cfiCond13) VB load(1, XDATA, add(CFA_XSP16, literal(-13)))
          CFI (cfiCond13) V0 load(1, XDATA, add(CFA_XSP16, literal(-12)))
          CFI (cfiCond13) V1 load(1, XDATA, add(CFA_XSP16, literal(-11)))
          CFI (cfiCond13) V2 load(1, XDATA, add(CFA_XSP16, literal(-10)))
          CFI (cfiCond13) V3 load(1, XDATA, add(CFA_XSP16, literal(-9)))
          CFI (cfiCond13) V4 load(1, XDATA, add(CFA_XSP16, literal(-8)))
          CFI (cfiCond13) V5 load(1, XDATA, add(CFA_XSP16, literal(-7)))
          CFI (cfiCond13) R7 load(1, XDATA, add(CFA_XSP16, literal(-6)))
          CFI (cfiCond13) ?RET_LOW load(1, XDATA, add(CFA_XSP16, literal(-5)))
          CFI (cfiCond13) ?RET_HIGH load(1, XDATA, add(CFA_XSP16, literal(-4)))
          CFI (cfiCond13) ?BRET_EXT load(1, XDATA, add(CFA_XSP16, literal(-3)))
          CFI (cfiCond13) DPL0 load(1, XDATA, add(CFA_XSP16, literal(-2)))
          CFI (cfiCond13) DPH0 load(1, XDATA, add(CFA_XSP16, literal(-1)))
          CFI (cfiCond13) CFA_SP SP+-2
          CFI (cfiCond13) CFA_XSP16 add(XSP16, 14)
          CFI Block cfiPicker14 Using cfiCommon1
          CFI (cfiPicker14) NoFunction
          CFI (cfiPicker14) Picker
        MOVX      @DPTR,A
        INC       DPTR
        MOVX      @DPTR,A
        INC       DPTR
        MOVX      @DPTR,A
        INC       DPTR
        MOVX      @DPTR,A
        RET
          CFI EndBlock cfiCond9
          CFI EndBlock cfiCond10
          CFI EndBlock cfiCond11
          CFI EndBlock cfiCond12
          CFI EndBlock cfiCond13
          CFI EndBlock cfiPicker14
//  473 
//  474 /*********************************************************************
//  475  * @fn      zclGp_DataIndParse
//  476  *
//  477 
//  478  * @brief   Parse the Gp Data indication to Gp Notification command
//  479  *
//  480  * @param   pInd - Pointer to the incoming data
//  481  *
//  482  * @return  ZStatus_t
//  483  */

        RSEG BANKED_CODE:HUGECODE:NOROOT(0)
//  484 ZStatus_t zclGp_DataIndParse( gp_DataInd_t *pInd, gpNotificationCmd_t *pGpNotification )
zclGp_DataIndParse:
          CFI Block cfiBlock15 Using cfiCommon0
          CFI Function zclGp_DataIndParse
        CODE
//  485 {
        FUNCALL zclGp_DataIndParse, gp_getProxyTableByIndex
        LOCFRAME ISTACK, 0, STACK
        LOCFRAME PSTACK, 0, STACK
        LOCFRAME XSTACK, 86, STACK
        LOCFRAME IOVERLAY, 0, STATIC
        LOCFRAME DOVERLAY, 0, STATIC
        ARGFRAME ISTACK, 0, STACK
        ARGFRAME PSTACK, 0, STACK
        ARGFRAME XSTACK, 86, STACK
        ARGFRAME IOVERLAY, 0, STATIC
        ARGFRAME DOVERLAY, 0, STATIC
        FUNCALL zclGp_DataIndParse, osal_memcmp
        LOCFRAME ISTACK, 0, STACK
        LOCFRAME PSTACK, 0, STACK
        LOCFRAME XSTACK, 89, STACK
        LOCFRAME IOVERLAY, 0, STATIC
        LOCFRAME DOVERLAY, 0, STATIC
        ARGFRAME ISTACK, 0, STACK
        ARGFRAME PSTACK, 0, STACK
        ARGFRAME XSTACK, 89, STACK
        ARGFRAME IOVERLAY, 0, STATIC
        ARGFRAME DOVERLAY, 0, STATIC
        FUNCALL zclGp_DataIndParse, osal_memcmp
        LOCFRAME ISTACK, 0, STACK
        LOCFRAME PSTACK, 0, STACK
        LOCFRAME XSTACK, 89, STACK
        LOCFRAME IOVERLAY, 0, STATIC
        LOCFRAME DOVERLAY, 0, STATIC
        ARGFRAME ISTACK, 0, STACK
        ARGFRAME PSTACK, 0, STACK
        ARGFRAME XSTACK, 89, STACK
        ARGFRAME IOVERLAY, 0, STATIC
        ARGFRAME DOVERLAY, 0, STATIC
        FUNCALL zclGp_DataIndParse, osal_memcpy
        LOCFRAME ISTACK, 0, STACK
        LOCFRAME PSTACK, 0, STACK
        LOCFRAME XSTACK, 89, STACK
        LOCFRAME IOVERLAY, 0, STATIC
        LOCFRAME DOVERLAY, 0, STATIC
        ARGFRAME ISTACK, 0, STACK
        ARGFRAME PSTACK, 0, STACK
        ARGFRAME XSTACK, 89, STACK
        ARGFRAME IOVERLAY, 0, STATIC
        ARGFRAME DOVERLAY, 0, STATIC
        REQUIRE ?V0
        REQUIRE ?V1
        REQUIRE ?V2
        REQUIRE ?V4
        REQUIRE ?V5
        REQUIRE ?V6
        MOV       A,#-0xf
        LCALL     ?BANKED_ENTER_XDATA
          CFI DPH0 load(1, XDATA, add(CFA_XSP16, literal(-1)))
          CFI DPL0 load(1, XDATA, add(CFA_XSP16, literal(-2)))
          CFI ?BRET_EXT load(1, XDATA, add(CFA_XSP16, literal(-3)))
          CFI ?RET_HIGH load(1, XDATA, add(CFA_XSP16, literal(-4)))
          CFI ?RET_LOW load(1, XDATA, add(CFA_XSP16, literal(-5)))
          CFI R7 load(1, XDATA, add(CFA_XSP16, literal(-6)))
          CFI V6 load(1, XDATA, add(CFA_XSP16, literal(-7)))
          CFI V5 load(1, XDATA, add(CFA_XSP16, literal(-8)))
          CFI V4 load(1, XDATA, add(CFA_XSP16, literal(-9)))
          CFI V3 load(1, XDATA, add(CFA_XSP16, literal(-10)))
          CFI V2 load(1, XDATA, add(CFA_XSP16, literal(-11)))
          CFI V1 load(1, XDATA, add(CFA_XSP16, literal(-12)))
          CFI V0 load(1, XDATA, add(CFA_XSP16, literal(-13)))
          CFI VB load(1, XDATA, add(CFA_XSP16, literal(-14)))
          CFI R6 load(1, XDATA, add(CFA_XSP16, literal(-15)))
          CFI CFA_SP SP+0
          CFI CFA_XSP16 add(XSP16, 15)
        ; Saved register size: 15
        ; Auto size: 71
        MOV       A,#-0x47
        LCALL     ?ALLOC_XSTACK8
          CFI CFA_XSP16 add(XSP16, 86)
        MOV       DPL,?XSP + 0
        MOV       DPH,?XSP + 1
        LCALL     ?Subroutine17 & 0xFFFF
??CrossCallReturnLabel_23:
        MOV       A,#0x2
        LCALL     ?XSTACK_DISP0_8
        MOV       A,R4
        MOVX      @DPTR,A
        INC       DPTR
        MOV       A,R5
        MOVX      @DPTR,A
//  486   uint8 currEntry[PROXY_TBL_ENTRY_LEN] = PROXY_BASIC_TBL_EMPTY_ENTRY;
        MOV       DPTR,#`?<Constant {255, 255, 255, 255, 255, 255, 255,`
        MOV       A,#0x6
        LCALL     ?XSTACK_DISP102_8
        MOV       A,#0x41
        LCALL     ?MOVE_LONG8_XDATA_XDATA
//  487   uint8  ntfOpt[2] = {0x00, 0x00};
        MOV       R6,#0x0
//  488   uint8 i;
//  489   int8 RSSI;
//  490   uint8 LQI;
//  491   uint8 status;
//  492   
//  493   for ( i = 0; i <= GPP_MAX_PROXY_TABLE_ENTRIES ; i++ )
        MOV       R7,#0x0
        MOV       DPL,?XSP + 0
        MOV       DPH,?XSP + 1
        MOVX      A,@DPTR
        ADD       A,#0x11
        LCALL     ?Subroutine32 & 0xFFFF
??CrossCallReturnLabel_45:
        MOV       ?V2,R6
        MOV       DPL,?XSP + 0
        MOV       DPH,?XSP + 1
        MOVX      A,@DPTR
        ADD       A,#0x21
        MOV       R0,A
        INC       DPTR
        MOVX      A,@DPTR
        ADDC      A,#0x0
        MOV       R1,A
        MOV       A,#0x4
        LCALL     ?XSTACK_DISP0_8
        LCALL     ??Subroutine65_0 & 0xFFFF
//  494   {
//  495     status = gp_getProxyTableByIndex( ( ZCD_NV_PROXY_TABLE_START + i ), currEntry );
??CrossCallReturnLabel_140:
        ; Setup parameters for call to function gp_getProxyTableByIndex
        MOV       A,#0x6
        LCALL     ?XSTACK_DISP102_8
        MOV       A,R7
        LCALL     ??Subroutine60_0 & 0xFFFF
??CrossCallReturnLabel_116:
        LCALL     `??gp_getProxyTableByIndex::?relay`; Banked call to: gp_getProxyTableByIndex
        MOV       A,R1
        MOV       R0,A
//  496 
//  497     if ( status == NV_OPER_FAILED )
        MOV       A,#0xa
        XRL       A,R0
        JNZ       ??zclGp_DataIndParse_0
//  498     {
//  499       return status;
        MOV       R1,#0xa
        LJMP      ??zclGp_DataIndParse_1 & 0xFFFF
//  500     }
//  501     
//  502     // if the entry is empty
//  503     if ( status == NV_INVALID_DATA )
??zclGp_DataIndParse_0:
        MOV       A,#0xd
        XRL       A,R0
        JNZ       $+5
        LJMP      ??zclGp_DataIndParse_2 & 0xFFFF
//  504     {
//  505       continue;
//  506     }
//  507   
//  508     if ( PROXY_TBL_COMP_APPLICTION_ID( pInd->appID, currEntry[PROXY_TBL_ENTRY_OPT] ) )
        LCALL     ?Subroutine23 & 0xFFFF
??CrossCallReturnLabel_113:
        ADD       A,#0x1c
        MOV       DPL,A
        CLR       A
        ADDC      A,R0
        MOV       DPH,A
        MOVX      A,@DPTR
        MOV       R0,A
        MOV       A,#0x7
        ANL       A,R0
        MOV       R1,A
        MOV       A,#0x6
        LCALL     ?XSTACK_DISP0_8
        MOVX      A,@DPTR
        ANL       A,#0x7
        XRL       A,R1
        JZ        $+5
        LJMP      ??zclGp_DataIndParse_2 & 0xFFFF
//  509     {
//  510       if ( pInd->appID == GP_OPT_APP_ID_GPD )
        MOV       A,R0
        JNZ       ??zclGp_DataIndParse_3
//  511       {
//  512         if ( osal_memcmp( &pInd->SrcId, &currEntry[PROXY_TBL_ENTRY_GPD_ID + 4], sizeof ( uint32 ) ) )
        ; Setup parameters for call to function osal_memcmp
        MOV       A,#0xc
        LCALL     ?XSTACK_DISP0_8
        MOV       R1,DPL
        MOV       R2,DPH
        MOV       ?V4,R1
        MOV       ?V5,R2
        MOV       ?V6,R6
        MOV       R0,#?V4
        LCALL     ?PUSH_XSTACK_I_THREE
          CFI CFA_XSP16 add(XSP16, 89)
        MOV       R4,#0x4
        MOV       R5,#0x0
        MOV       A,#0x7
        LCALL     ?XSTACK_DISP0_8
        LCALL     ?Subroutine24 & 0xFFFF
??CrossCallReturnLabel_35:
        LCALL     `??osal_memcmp::?relay`; Banked call to: osal_memcmp
        MOV       A,#0x3
        LCALL     ?DEALLOC_XSTACK8
          CFI CFA_XSP16 add(XSP16, 86)
        MOV       A,R1
        JNZ       $+5
        LJMP      ??zclGp_DataIndParse_2 & 0xFFFF
//  513         {
//  514           // Entry found
//  515           pGpNotification->gpdId = pInd->SrcId;
        MOV       A,#0x4
        LCALL     ?XSTACK_DISP0_8
        LCALL     ??Subroutine63_0 & 0xFFFF
??CrossCallReturnLabel_132:
        LCALL     ?XLOAD_R0123
        MOV       A,#0x2
        LCALL     ?XSTACK_DISP0_8
        MOVX      A,@DPTR
        MOV       R4,A
        INC       DPTR
        MOVX      A,@DPTR
        MOV       DPH,A
        MOV       DPL,R4
        INC       DPTR
        INC       DPTR
        LCALL     ?XSTORE_R0123
//  516           ntfOpt[0] = GP_OPT_APP_ID_GPD;
//  517           break;
        SJMP      ??zclGp_DataIndParse_4
//  518         }
//  519       }
//  520       else if ( pInd->appID == GP_OPT_APP_ID_IEEE )
??zclGp_DataIndParse_3:
        MOV       A,#0x2
        XRL       A,R0
        JNZ       ??zclGp_DataIndParse_2
//  521       {
//  522         if ( osal_memcmp( &pInd->srcAddr, &currEntry[PROXY_TBL_ENTRY_GPD_ID], Z_EXTADDR_LEN ) )
        ; Setup parameters for call to function osal_memcmp
        MOV       A,#0x8
        LCALL     ?XSTACK_DISP0_8
        MOV       R1,DPL
        MOV       R2,DPH
        MOV       ?V4,R1
        MOV       ?V5,R2
        MOV       ?V6,R6
        MOV       R0,#?V4
        LCALL     ?PUSH_XSTACK_I_THREE
          CFI CFA_XSP16 add(XSP16, 89)
        MOV       R4,#0x8
        MOV       R5,#0x0
        MOV       R1,?V0
        MOV       R2,?V1
        MOV       R3,?V2
        LCALL     `??osal_memcmp::?relay`; Banked call to: osal_memcmp
        MOV       A,#0x3
        LCALL     ?DEALLOC_XSTACK8
          CFI CFA_XSP16 add(XSP16, 86)
        MOV       A,R1
        JZ        ??zclGp_DataIndParse_2
//  523         {
//  524           // Entry found
//  525           osal_memcpy( pGpNotification->gpdIEEE, &(pInd->srcAddr.addr.extAddr), Z_EXTADDR_LEN );
        ; Setup parameters for call to function osal_memcpy
        MOV       R0,#?V0
        LCALL     ?PUSH_XSTACK_I_THREE
          CFI CFA_XSP16 add(XSP16, 89)
        MOV       R4,#0x8
        MOV       R5,#0x0
        MOV       A,#0x5
        LCALL     ?XSTACK_DISP0_8
        MOVX      A,@DPTR
        ADD       A,#0x6
        MOV       R2,A
        INC       DPTR
        MOVX      A,@DPTR
        ADDC      A,#0x0
        MOV       R3,A
        LCALL     `??osal_memcpy::?relay`; Banked call to: osal_memcpy
        MOV       A,#0x3
        LCALL     ?DEALLOC_XSTACK8
          CFI CFA_XSP16 add(XSP16, 86)
//  526           pGpNotification->ep = pInd->EndPoint;
        LCALL     ?Subroutine23 & 0xFFFF
??CrossCallReturnLabel_114:
        ADD       A,#0x25
        MOV       DPL,A
        CLR       A
        ADDC      A,R0
        MOV       DPH,A
        MOVX      A,@DPTR
        PUSH      A
          CFI CFA_SP SP+-1
        MOV       A,#0x2
        LCALL     ?XSTACK_DISP0_8
        LCALL     ??Subroutine59_0 & 0xFFFF
??CrossCallReturnLabel_109:
        LCALL     ?Subroutine47 & 0xFFFF
??CrossCallReturnLabel_83:
        POP       A
          CFI CFA_SP SP+0
        MOVX      @DPTR,A
//  527           ntfOpt[0] = GP_OPT_APP_ID_IEEE;
        MOV       R6,#0x2
//  528           break;
        SJMP      ??zclGp_DataIndParse_4
//  529         }
//  530       }
//  531     }
//  532     else
//  533     {
//  534       continue;
//  535     }
//  536   }
??zclGp_DataIndParse_2:
        INC       R7
        MOV       A,R7
        CLR       C
        SUBB      A,#0x6
        JNC       $+5
        LJMP      ??CrossCallReturnLabel_140 & 0xFFFF
//  537   
//  538   // Set the options bit field
//  539   GP_NTF_SET_ALSO_UNICAST( ( uint8* )&ntfOpt[0], currEntry[PROXY_TBL_ENTRY_OPT] );
//  540   GP_NTF_SET_ALSO_DGROUP( ( uint8* )&ntfOpt[0], currEntry[PROXY_TBL_ENTRY_OPT] );
//  541   GP_NTF_SET_ALSO_CGROUP( ( uint8* )&ntfOpt[0], currEntry[PROXY_TBL_ENTRY_OPT] );
//  542   GP_NTF_SET_SEC_LEVEL( ( uint8* )&ntfOpt[0], currEntry[PROXY_TBL_ENTRY_SEC_OPT] );
??zclGp_DataIndParse_4:
        MOV       A,#0x13
        LCALL     ?XSTACK_DISP0_8
        MOVX      A,@DPTR
        MOV       R0,A
        SWAP      A
        RLC       A
        RLC       A
        ANL       A,#0xc0
        MOV       R2,A
        MOV       A,#0x6
        LCALL     ?XSTACK_DISP0_8
        MOVX      A,@DPTR
        MOV       C,0xE0 /* A   */.0
        CLR       A
        RLC       A
        SWAP      A
        RLC       A
        MOV       R1,A
        MOV       A,#0x6
        LCALL     ?XSTACK_DISP0_8
        MOVX      A,@DPTR
        RRC       A
        RRC       A
        RRC       A
        ANL       A,#0x1f
        ANL       A,#0x18
        ORL       A,R6
        ORL       A,R1
        ANL       A,#0x3f
        ORL       A,R2
        MOV       R6,A
//  543   GP_NTF_SET_SEC_KEY_TYPE( ( uint8* )&ntfOpt[1], currEntry[PROXY_TBL_ENTRY_SEC_OPT] );
        MOV       A,R0
        RRC       A
        RRC       A
        ANL       A,#0x3f
        ANL       A,#0x7
        MOV       R0,A
//  544   pInd->RxAfterTx ?PROXY_TBL_SET_RX_AFTER_TX( ( uint8* )&ntfOpt[1] ) : PROXY_TBL_CLR_RX_AFTER_TX( ( uint8* )&ntfOpt[1] );
        MOV       DPL,?XSP + 0
        MOV       DPH,?XSP + 1
        MOVX      A,@DPTR
        MOV       R1,A
        INC       DPTR
        MOVX      A,@DPTR
        XCH       A,R1
        ADD       A,#0x20
        MOV       DPL,A
        CLR       A
        ADDC      A,R1
        MOV       DPH,A
        MOVX      A,@DPTR
        JZ        ??zclGp_DataIndParse_5
        MOV       A,R0
        SETB      0xE0 /* A   */.3
        MOV       R0,A
//  545   
//  546   // Mandatory to set this sub fields to 0b1 by the Green Power Proxy Basic Spec in A.3.3.4.1
//  547   PROXY_TBL_CLR_TX_QUEUE_FULL( ( uint8* )&ntfOpt[1] );
//  548   PROXY_TBL_SET_BIDIRECTIONAL_CAP( ( uint8* )&ntfOpt[1] );
//  549   PROXY_TBL_SET_PROXY_INFO( ( uint8* )&ntfOpt[1] );
//  550   
//  551   pGpNotification->options |= ( ( ntfOpt[0] ) & 0x00FF );
//  552   pGpNotification->options |= ( ( ( ntfOpt[1] ) <<  8 ) & 0xFF00 );
??zclGp_DataIndParse_5:
        MOV       A,R6
        MOV       R2,A
        MOV       A,#0x60
        ORL       A,R0
        MOV       R1,A
        MOV       A,R2
        MOV       R0,A
        MOV       A,#0x2
        LCALL     ?XSTACK_DISP0_8
        LCALL     ?Subroutine34 & 0xFFFF
??CrossCallReturnLabel_102:
        ORL       A,R0
        MOVX      @DPTR,A
        INC       DPTR
        MOVX      A,@DPTR
        ORL       A,R1
        LCALL     ?Subroutine5 & 0xFFFF
//  553   
//  554   pGpNotification->gpdSecCounter = pInd->GPDSecFrameCounter;
??CrossCallReturnLabel_0:
        ADD       A,#0x26
        MOV       DPL,A
        CLR       A
        ADDC      A,R0
        MOV       DPH,A
        LCALL     ?XLOAD_R0123
        MOV       A,#0x2
        LCALL     ?XSTACK_DISP0_8
        MOVX      A,@DPTR
        MOV       R4,A
        INC       DPTR
        MOVX      A,@DPTR
        XCH       A,R4
        ADD       A,#0xf
        MOV       DPL,A
        CLR       A
        ADDC      A,R4
        MOV       DPH,A
        LCALL     ?XSTORE_R0123
//  555   pGpNotification->cmdId = pInd->GPDCmmdID;
        LCALL     ?Subroutine23 & 0xFFFF
??CrossCallReturnLabel_115:
        ADD       A,#0x2a
        MOV       DPL,A
        CLR       A
        ADDC      A,R0
        MOV       DPH,A
        MOVX      A,@DPTR
        PUSH      A
          CFI CFA_SP SP+-1
        MOV       A,#0x2
        LCALL     ?XSTACK_DISP0_8
        LCALL     ??Subroutine59_0 & 0xFFFF
??CrossCallReturnLabel_110:
        ADD       A,#0x13
        MOV       DPL,A
        CLR       A
        ADDC      A,R0
        MOV       DPH,A
        POP       A
          CFI CFA_SP SP+0
        LCALL     ?Subroutine5 & 0xFFFF
//  556 
//  557   if ( pInd->GPDasduLength > 0 )
??CrossCallReturnLabel_1:
        ADD       A,#0x2f
        MOV       DPL,A
        CLR       A
        ADDC      A,R0
        MOV       DPH,A
        MOVX      A,@DPTR
        JZ        ??CrossCallReturnLabel_141
//  558   {
//  559     pGpNotification->payloadLen = pInd->GPDasduLength;
        PUSH      A
          CFI CFA_SP SP+-1
        MOV       A,#0x2
        LCALL     ?XSTACK_DISP0_8
        LCALL     ??Subroutine59_0 & 0xFFFF
//  560     pGpNotification->cmdPayload = pInd->GPDasdu;
//  561   }
??CrossCallReturnLabel_111:
        ADD       A,#0x14
        MOV       DPL,A
        CLR       A
        ADDC      A,R0
        MOV       DPH,A
        POP       A
          CFI CFA_SP SP+0
        LCALL     ?Subroutine8 & 0xFFFF
??CrossCallReturnLabel_8:
        ADD       A,#0x30
        MOV       R0,A
        INC       DPTR
        MOVX      A,@DPTR
        ADDC      A,#0x0
        MOV       R1,A
        MOV       A,#0x2
        LCALL     ?XSTACK_DISP0_8
        MOVX      A,@DPTR
        MOV       R2,A
        INC       DPTR
        MOVX      A,@DPTR
        XCH       A,R2
        ADD       A,#0x15
        MOV       DPL,A
        CLR       A
        ADDC      A,R2
        MOV       DPH,A
        LCALL     ??Subroutine65_0 & 0xFFFF
//  562   
//  563   pGpNotification->gppShortAddr = _NIB.nwkDevAddress;
??CrossCallReturnLabel_141:
        LCALL     ?Subroutine31 & 0xFFFF
??CrossCallReturnLabel_107:
        MOV       A,#0x2
        LCALL     ?XSTACK_DISP0_8
        MOVX      A,@DPTR
        MOV       R2,A
        INC       DPTR
        MOVX      A,@DPTR
        XCH       A,R2
        ADD       A,#0x17
        MOV       DPL,A
        CLR       A
        ADDC      A,R2
        MOV       DPH,A
        MOV       A,R0
        MOVX      @DPTR,A
        INC       DPTR
        MOV       A,R1
        LCALL     ?Subroutine5 & 0xFFFF
//  564   
//  565   RSSI = pInd->Rssi;
??CrossCallReturnLabel_2:
        LCALL     ?Subroutine47 & 0xFFFF
??CrossCallReturnLabel_84:
        LCALL     ?Subroutine28 & 0xFFFF
//  566   ( RSSI > 8 ) ?RSSI = 8 : ( RSSI < -109 ) ?RSSI = -109 : NULL;
??CrossCallReturnLabel_40:
        JC        ??zclGp_DataIndParse_6
        MOV       R0,#0x8
        SJMP      ??zclGp_DataIndParse_7
??zclGp_DataIndParse_6:
        MOV       A,R0
        CLR       C
        SUBB      A,#-0x6d
        MOV       C,0xD0 /* PSW */.2
        XRL       A,PSW
        RLC       A
        JNC       ??zclGp_DataIndParse_7
        MOV       R0,#-0x6d
//  567   RSSI += 110;
//  568   RSSI /= 2;
??zclGp_DataIndParse_7:
        MOV       A,#0x6e
        ADD       A,R0
        MOV       B,#0x2
        LCALL     ?SC_DIV_MOD
        MOV       R0,A
//  569   
//  570   ( pInd->LinkQuality == 0 ) ?LQI = 0 : ( pInd->LinkQuality > 0 ) ?LQI = 2 : NULL;
        MOV       DPL,?XSP + 0
        MOV       DPH,?XSP + 1
        MOVX      A,@DPTR
        MOV       R1,A
        INC       DPTR
        MOVX      A,@DPTR
        XCH       A,R1
        ADD       A,#0xf
        MOV       DPL,A
        CLR       A
        ADDC      A,R1
        MOV       DPH,A
        MOVX      A,@DPTR
        JNZ       ??zclGp_DataIndParse_8
        MOV       R1,#0x0
        SJMP      ??zclGp_DataIndParse_9
??zclGp_DataIndParse_8:
        MOV       R1,#0x2
//  571   
//  572   pGpNotification->gppGpdLink = RSSI;
//  573   pGpNotification->gppGpdLink |= ( LQI << 6 );
??zclGp_DataIndParse_9:
        MOV       A,R1
        SWAP      A
        RLC       A
        RLC       A
        ANL       A,#0xc0
        ORL       A,R0
        PUSH      A
          CFI CFA_SP SP+-1
        MOV       A,#0x2
        LCALL     ?XSTACK_DISP0_8
        LCALL     ??Subroutine59_0 & 0xFFFF
??CrossCallReturnLabel_112:
        ADD       A,#0x19
        MOV       DPL,A
        CLR       A
        ADDC      A,R0
        MOV       DPH,A
        POP       A
          CFI CFA_SP SP+0
        MOVX      @DPTR,A
//  574     
//  575   return SUCCESS;
        MOV       R1,#0x0
??zclGp_DataIndParse_1:
        MOV       A,#0x47
        LJMP      ?Subroutine2 & 0xFFFF
//  576 }
          CFI EndBlock cfiBlock15

        RSEG BANKED_CODE:HUGECODE:NOROOT(0)
?Subroutine47:
          CFI Block cfiCond16 Using cfiCommon0
          CFI Function zclGp_DataIndParse
          CFI Conditional ??CrossCallReturnLabel_83
          CFI R6 load(1, XDATA, add(CFA_XSP16, literal(-15)))
          CFI VB load(1, XDATA, add(CFA_XSP16, literal(-14)))
          CFI V0 load(1, XDATA, add(CFA_XSP16, literal(-13)))
          CFI V1 load(1, XDATA, add(CFA_XSP16, literal(-12)))
          CFI V2 load(1, XDATA, add(CFA_XSP16, literal(-11)))
          CFI V3 load(1, XDATA, add(CFA_XSP16, literal(-10)))
          CFI V4 load(1, XDATA, add(CFA_XSP16, literal(-9)))
          CFI V5 load(1, XDATA, add(CFA_XSP16, literal(-8)))
          CFI V6 load(1, XDATA, add(CFA_XSP16, literal(-7)))
          CFI R7 load(1, XDATA, add(CFA_XSP16, literal(-6)))
          CFI ?RET_LOW load(1, XDATA, add(CFA_XSP16, literal(-5)))
          CFI ?RET_HIGH load(1, XDATA, add(CFA_XSP16, literal(-4)))
          CFI ?BRET_EXT load(1, XDATA, add(CFA_XSP16, literal(-3)))
          CFI DPL0 load(1, XDATA, add(CFA_XSP16, literal(-2)))
          CFI DPH0 load(1, XDATA, add(CFA_XSP16, literal(-1)))
          CFI CFA_XSP16 add(XSP16, 86)
          CFI Block cfiCond17 Using cfiCommon0
          CFI (cfiCond17) Function zclGp_DataIndParse
          CFI (cfiCond17) Conditional ??CrossCallReturnLabel_84
          CFI (cfiCond17) R6 load(1, XDATA, add(CFA_XSP16, literal(-15)))
          CFI (cfiCond17) VB load(1, XDATA, add(CFA_XSP16, literal(-14)))
          CFI (cfiCond17) V0 load(1, XDATA, add(CFA_XSP16, literal(-13)))
          CFI (cfiCond17) V1 load(1, XDATA, add(CFA_XSP16, literal(-12)))
          CFI (cfiCond17) V2 load(1, XDATA, add(CFA_XSP16, literal(-11)))
          CFI (cfiCond17) V3 load(1, XDATA, add(CFA_XSP16, literal(-10)))
          CFI (cfiCond17) V4 load(1, XDATA, add(CFA_XSP16, literal(-9)))
          CFI (cfiCond17) V5 load(1, XDATA, add(CFA_XSP16, literal(-8)))
          CFI (cfiCond17) V6 load(1, XDATA, add(CFA_XSP16, literal(-7)))
          CFI (cfiCond17) R7 load(1, XDATA, add(CFA_XSP16, literal(-6)))
          CFI (cfiCond17) ?RET_LOW load(1, XDATA, add(CFA_XSP16, literal(-5)))
          CFI (cfiCond17) ?RET_HIGH load(1, XDATA, add(CFA_XSP16, literal(-4)))
          CFI (cfiCond17) ?BRET_EXT load(1, XDATA, add(CFA_XSP16, literal(-3)))
          CFI (cfiCond17) DPL0 load(1, XDATA, add(CFA_XSP16, literal(-2)))
          CFI (cfiCond17) DPH0 load(1, XDATA, add(CFA_XSP16, literal(-1)))
          CFI (cfiCond17) CFA_SP SP+-2
          CFI (cfiCond17) CFA_XSP16 add(XSP16, 86)
          CFI Block cfiPicker18 Using cfiCommon1
          CFI (cfiPicker18) NoFunction
          CFI (cfiPicker18) Picker
        ADD       A,#0xe
        MOV       DPL,A
        CLR       A
        ADDC      A,R0
        MOV       DPH,A
        RET
          CFI EndBlock cfiCond16
          CFI EndBlock cfiCond17
          CFI EndBlock cfiPicker18

        RSEG BANKED_CODE:HUGECODE:NOROOT(0)
?Subroutine34:
          CFI Block cfiCond19 Using cfiCommon0
          CFI Function zclGp_DataIndParse
          CFI Conditional ??CrossCallReturnLabel_102
          CFI R6 load(1, XDATA, add(CFA_XSP16, literal(-15)))
          CFI VB load(1, XDATA, add(CFA_XSP16, literal(-14)))
          CFI V0 load(1, XDATA, add(CFA_XSP16, literal(-13)))
          CFI V1 load(1, XDATA, add(CFA_XSP16, literal(-12)))
          CFI V2 load(1, XDATA, add(CFA_XSP16, literal(-11)))
          CFI V3 load(1, XDATA, add(CFA_XSP16, literal(-10)))
          CFI V4 load(1, XDATA, add(CFA_XSP16, literal(-9)))
          CFI V5 load(1, XDATA, add(CFA_XSP16, literal(-8)))
          CFI V6 load(1, XDATA, add(CFA_XSP16, literal(-7)))
          CFI R7 load(1, XDATA, add(CFA_XSP16, literal(-6)))
          CFI ?RET_LOW load(1, XDATA, add(CFA_XSP16, literal(-5)))
          CFI ?RET_HIGH load(1, XDATA, add(CFA_XSP16, literal(-4)))
          CFI ?BRET_EXT load(1, XDATA, add(CFA_XSP16, literal(-3)))
          CFI DPL0 load(1, XDATA, add(CFA_XSP16, literal(-2)))
          CFI DPH0 load(1, XDATA, add(CFA_XSP16, literal(-1)))
          CFI CFA_SP SP+-2
          CFI CFA_XSP16 add(XSP16, 86)
          CFI Block cfiCond20 Using cfiCommon0
          CFI (cfiCond20) Function gp_getProxyTableByGpId
          CFI (cfiCond20) Conditional ??CrossCallReturnLabel_103
          CFI (cfiCond20) R6 load(1, XDATA, add(CFA_XSP16, literal(-15)))
          CFI (cfiCond20) VB load(1, XDATA, add(CFA_XSP16, literal(-14)))
          CFI (cfiCond20) V0 load(1, XDATA, add(CFA_XSP16, literal(-13)))
          CFI (cfiCond20) V1 load(1, XDATA, add(CFA_XSP16, literal(-12)))
          CFI (cfiCond20) V2 load(1, XDATA, add(CFA_XSP16, literal(-11)))
          CFI (cfiCond20) V3 load(1, XDATA, add(CFA_XSP16, literal(-10)))
          CFI (cfiCond20) V4 load(1, XDATA, add(CFA_XSP16, literal(-9)))
          CFI (cfiCond20) V5 load(1, XDATA, add(CFA_XSP16, literal(-8)))
          CFI (cfiCond20) V6 load(1, XDATA, add(CFA_XSP16, literal(-7)))
          CFI (cfiCond20) R7 load(1, XDATA, add(CFA_XSP16, literal(-6)))
          CFI (cfiCond20) ?RET_LOW load(1, XDATA, add(CFA_XSP16, literal(-5)))
          CFI (cfiCond20) ?RET_HIGH load(1, XDATA, add(CFA_XSP16, literal(-4)))
          CFI (cfiCond20) ?BRET_EXT load(1, XDATA, add(CFA_XSP16, literal(-3)))
          CFI (cfiCond20) DPL0 load(1, XDATA, add(CFA_XSP16, literal(-2)))
          CFI (cfiCond20) DPH0 load(1, XDATA, add(CFA_XSP16, literal(-1)))
          CFI (cfiCond20) CFA_SP SP+-2
          CFI (cfiCond20) CFA_XSP16 add(XSP16, 19)
          CFI Block cfiPicker21 Using cfiCommon1
          CFI (cfiPicker21) NoFunction
          CFI (cfiPicker21) Picker
        MOVX      A,@DPTR
        MOV       R2,A
          CFI EndBlock cfiCond19
          CFI EndBlock cfiCond20
          CFI EndBlock cfiPicker21
        REQUIRE ??Subroutine57_0
        ; // Fall through to label ??Subroutine57_0

        RSEG BANKED_CODE:HUGECODE:NOROOT(0)
??Subroutine57_0:
          CFI Block cfiCond22 Using cfiCommon0
          CFI Function zclGp_GpResponseCommandCB
          CFI Conditional ??CrossCallReturnLabel_101
          CFI R6 load(1, XDATA, add(CFA_XSP16, literal(-15)))
          CFI VB load(1, XDATA, add(CFA_XSP16, literal(-14)))
          CFI V0 load(1, XDATA, add(CFA_XSP16, literal(-13)))
          CFI V1 load(1, XDATA, add(CFA_XSP16, literal(-12)))
          CFI V2 load(1, XDATA, add(CFA_XSP16, literal(-11)))
          CFI V3 load(1, XDATA, add(CFA_XSP16, literal(-10)))
          CFI V4 load(1, XDATA, add(CFA_XSP16, literal(-9)))
          CFI V5 load(1, XDATA, add(CFA_XSP16, literal(-8)))
          CFI V6 load(1, XDATA, add(CFA_XSP16, literal(-7)))
          CFI R7 load(1, XDATA, add(CFA_XSP16, literal(-6)))
          CFI ?RET_LOW load(1, XDATA, add(CFA_XSP16, literal(-5)))
          CFI ?RET_HIGH load(1, XDATA, add(CFA_XSP16, literal(-4)))
          CFI ?BRET_EXT load(1, XDATA, add(CFA_XSP16, literal(-3)))
          CFI DPL0 load(1, XDATA, add(CFA_XSP16, literal(-2)))
          CFI DPH0 load(1, XDATA, add(CFA_XSP16, literal(-1)))
          CFI CFA_SP SP+-2
          CFI CFA_XSP16 add(XSP16, 93)
          CFI Block cfiCond23 Using cfiCommon0
          CFI (cfiCond23) Function zclGp_DataIndParse
          CFI (cfiCond23) Conditional ??CrossCallReturnLabel_102
          CFI (cfiCond23) R6 load(1, XDATA, add(CFA_XSP16, literal(-15)))
          CFI (cfiCond23) VB load(1, XDATA, add(CFA_XSP16, literal(-14)))
          CFI (cfiCond23) V0 load(1, XDATA, add(CFA_XSP16, literal(-13)))
          CFI (cfiCond23) V1 load(1, XDATA, add(CFA_XSP16, literal(-12)))
          CFI (cfiCond23) V2 load(1, XDATA, add(CFA_XSP16, literal(-11)))
          CFI (cfiCond23) V3 load(1, XDATA, add(CFA_XSP16, literal(-10)))
          CFI (cfiCond23) V4 load(1, XDATA, add(CFA_XSP16, literal(-9)))
          CFI (cfiCond23) V5 load(1, XDATA, add(CFA_XSP16, literal(-8)))
          CFI (cfiCond23) V6 load(1, XDATA, add(CFA_XSP16, literal(-7)))
          CFI (cfiCond23) R7 load(1, XDATA, add(CFA_XSP16, literal(-6)))
          CFI (cfiCond23) ?RET_LOW load(1, XDATA, add(CFA_XSP16, literal(-5)))
          CFI (cfiCond23) ?RET_HIGH load(1, XDATA, add(CFA_XSP16, literal(-4)))
          CFI (cfiCond23) ?BRET_EXT load(1, XDATA, add(CFA_XSP16, literal(-3)))
          CFI (cfiCond23) DPL0 load(1, XDATA, add(CFA_XSP16, literal(-2)))
          CFI (cfiCond23) DPH0 load(1, XDATA, add(CFA_XSP16, literal(-1)))
          CFI (cfiCond23) CFA_SP SP+-2
          CFI (cfiCond23) CFA_XSP16 add(XSP16, 86)
          CFI Block cfiCond24 Using cfiCommon0
          CFI (cfiCond24) Function gp_getProxyTableByGpId
          CFI (cfiCond24) Conditional ??CrossCallReturnLabel_103
          CFI (cfiCond24) R6 load(1, XDATA, add(CFA_XSP16, literal(-15)))
          CFI (cfiCond24) VB load(1, XDATA, add(CFA_XSP16, literal(-14)))
          CFI (cfiCond24) V0 load(1, XDATA, add(CFA_XSP16, literal(-13)))
          CFI (cfiCond24) V1 load(1, XDATA, add(CFA_XSP16, literal(-12)))
          CFI (cfiCond24) V2 load(1, XDATA, add(CFA_XSP16, literal(-11)))
          CFI (cfiCond24) V3 load(1, XDATA, add(CFA_XSP16, literal(-10)))
          CFI (cfiCond24) V4 load(1, XDATA, add(CFA_XSP16, literal(-9)))
          CFI (cfiCond24) V5 load(1, XDATA, add(CFA_XSP16, literal(-8)))
          CFI (cfiCond24) V6 load(1, XDATA, add(CFA_XSP16, literal(-7)))
          CFI (cfiCond24) R7 load(1, XDATA, add(CFA_XSP16, literal(-6)))
          CFI (cfiCond24) ?RET_LOW load(1, XDATA, add(CFA_XSP16, literal(-5)))
          CFI (cfiCond24) ?RET_HIGH load(1, XDATA, add(CFA_XSP16, literal(-4)))
          CFI (cfiCond24) ?BRET_EXT load(1, XDATA, add(CFA_XSP16, literal(-3)))
          CFI (cfiCond24) DPL0 load(1, XDATA, add(CFA_XSP16, literal(-2)))
          CFI (cfiCond24) DPH0 load(1, XDATA, add(CFA_XSP16, literal(-1)))
          CFI (cfiCond24) CFA_SP SP+-2
          CFI (cfiCond24) CFA_XSP16 add(XSP16, 19)
          CFI Block cfiPicker25 Using cfiCommon1
          CFI (cfiPicker25) NoFunction
          CFI (cfiPicker25) Picker
        INC       DPTR
        MOVX      A,@DPTR
        MOV       DPH,A
        MOV       DPL,R2
        MOVX      A,@DPTR
        RET
          CFI EndBlock cfiCond22
          CFI EndBlock cfiCond23
          CFI EndBlock cfiCond24
          CFI EndBlock cfiPicker25

        RSEG BANKED_CODE:HUGECODE:NOROOT(0)
?Subroutine31:
          CFI Block cfiCond26 Using cfiCommon0
          CFI Function zclGp_ManteinanceIndParse
          CFI Conditional ??CrossCallReturnLabel_106
          CFI R6 load(1, XDATA, add(CFA_XSP16, literal(-16)))
          CFI VB load(1, XDATA, add(CFA_XSP16, literal(-15)))
          CFI V0 load(1, XDATA, add(CFA_XSP16, literal(-14)))
          CFI V1 load(1, XDATA, add(CFA_XSP16, literal(-13)))
          CFI V2 load(1, XDATA, add(CFA_XSP16, literal(-12)))
          CFI V3 load(1, XDATA, add(CFA_XSP16, literal(-11)))
          CFI V4 load(1, XDATA, add(CFA_XSP16, literal(-10)))
          CFI V5 load(1, XDATA, add(CFA_XSP16, literal(-9)))
          CFI V6 load(1, XDATA, add(CFA_XSP16, literal(-8)))
          CFI V7 load(1, XDATA, add(CFA_XSP16, literal(-7)))
          CFI R7 load(1, XDATA, add(CFA_XSP16, literal(-6)))
          CFI ?RET_LOW load(1, XDATA, add(CFA_XSP16, literal(-5)))
          CFI ?RET_HIGH load(1, XDATA, add(CFA_XSP16, literal(-4)))
          CFI ?BRET_EXT load(1, XDATA, add(CFA_XSP16, literal(-3)))
          CFI DPL0 load(1, XDATA, add(CFA_XSP16, literal(-2)))
          CFI DPH0 load(1, XDATA, add(CFA_XSP16, literal(-1)))
          CFI CFA_SP SP+-2
          CFI CFA_XSP16 add(XSP16, 18)
          CFI Block cfiCond27 Using cfiCommon0
          CFI (cfiCond27) Function zclGp_DataIndParse
          CFI (cfiCond27) Conditional ??CrossCallReturnLabel_107
          CFI (cfiCond27) R6 load(1, XDATA, add(CFA_XSP16, literal(-15)))
          CFI (cfiCond27) VB load(1, XDATA, add(CFA_XSP16, literal(-14)))
          CFI (cfiCond27) V0 load(1, XDATA, add(CFA_XSP16, literal(-13)))
          CFI (cfiCond27) V1 load(1, XDATA, add(CFA_XSP16, literal(-12)))
          CFI (cfiCond27) V2 load(1, XDATA, add(CFA_XSP16, literal(-11)))
          CFI (cfiCond27) V3 load(1, XDATA, add(CFA_XSP16, literal(-10)))
          CFI (cfiCond27) V4 load(1, XDATA, add(CFA_XSP16, literal(-9)))
          CFI (cfiCond27) V5 load(1, XDATA, add(CFA_XSP16, literal(-8)))
          CFI (cfiCond27) V6 load(1, XDATA, add(CFA_XSP16, literal(-7)))
          CFI (cfiCond27) R7 load(1, XDATA, add(CFA_XSP16, literal(-6)))
          CFI (cfiCond27) ?RET_LOW load(1, XDATA, add(CFA_XSP16, literal(-5)))
          CFI (cfiCond27) ?RET_HIGH load(1, XDATA, add(CFA_XSP16, literal(-4)))
          CFI (cfiCond27) ?BRET_EXT load(1, XDATA, add(CFA_XSP16, literal(-3)))
          CFI (cfiCond27) DPL0 load(1, XDATA, add(CFA_XSP16, literal(-2)))
          CFI (cfiCond27) DPH0 load(1, XDATA, add(CFA_XSP16, literal(-1)))
          CFI (cfiCond27) CFA_SP SP+-2
          CFI (cfiCond27) CFA_XSP16 add(XSP16, 86)
          CFI Block cfiCond28 Using cfiCommon0
          CFI (cfiCond28) Function zclGp_GpResponseCommandCB
          CFI (cfiCond28) Conditional ??CrossCallReturnLabel_108
          CFI (cfiCond28) R6 load(1, XDATA, add(CFA_XSP16, literal(-15)))
          CFI (cfiCond28) VB load(1, XDATA, add(CFA_XSP16, literal(-14)))
          CFI (cfiCond28) V0 load(1, XDATA, add(CFA_XSP16, literal(-13)))
          CFI (cfiCond28) V1 load(1, XDATA, add(CFA_XSP16, literal(-12)))
          CFI (cfiCond28) V2 load(1, XDATA, add(CFA_XSP16, literal(-11)))
          CFI (cfiCond28) V3 load(1, XDATA, add(CFA_XSP16, literal(-10)))
          CFI (cfiCond28) V4 load(1, XDATA, add(CFA_XSP16, literal(-9)))
          CFI (cfiCond28) V5 load(1, XDATA, add(CFA_XSP16, literal(-8)))
          CFI (cfiCond28) V6 load(1, XDATA, add(CFA_XSP16, literal(-7)))
          CFI (cfiCond28) R7 load(1, XDATA, add(CFA_XSP16, literal(-6)))
          CFI (cfiCond28) ?RET_LOW load(1, XDATA, add(CFA_XSP16, literal(-5)))
          CFI (cfiCond28) ?RET_HIGH load(1, XDATA, add(CFA_XSP16, literal(-4)))
          CFI (cfiCond28) ?BRET_EXT load(1, XDATA, add(CFA_XSP16, literal(-3)))
          CFI (cfiCond28) DPL0 load(1, XDATA, add(CFA_XSP16, literal(-2)))
          CFI (cfiCond28) DPH0 load(1, XDATA, add(CFA_XSP16, literal(-1)))
          CFI (cfiCond28) CFA_SP SP+-2
          CFI (cfiCond28) CFA_XSP16 add(XSP16, 93)
          CFI Block cfiPicker29 Using cfiCommon1
          CFI (cfiPicker29) NoFunction
          CFI (cfiPicker29) Picker
        MOV       DPTR,#_NIB + 20
          CFI EndBlock cfiCond26
          CFI EndBlock cfiCond27
          CFI EndBlock cfiCond28
          CFI EndBlock cfiPicker29
        REQUIRE ??Subroutine58_0
        ; // Fall through to label ??Subroutine58_0

        RSEG BANKED_CODE:HUGECODE:NOROOT(0)
??Subroutine58_0:
          CFI Block cfiCond30 Using cfiCommon0
          CFI Function zclGp_GpProxyCommissioningModeCB
          CFI Conditional ??CrossCallReturnLabel_104
          CFI R6 load(1, XDATA, add(CFA_XSP16, literal(-10)))
          CFI VB load(1, XDATA, add(CFA_XSP16, literal(-9)))
          CFI V0 load(1, XDATA, add(CFA_XSP16, literal(-8)))
          CFI V1 load(1, XDATA, add(CFA_XSP16, literal(-7)))
          CFI R7 load(1, XDATA, add(CFA_XSP16, literal(-6)))
          CFI ?RET_LOW load(1, XDATA, add(CFA_XSP16, literal(-5)))
          CFI ?RET_HIGH load(1, XDATA, add(CFA_XSP16, literal(-4)))
          CFI ?BRET_EXT load(1, XDATA, add(CFA_XSP16, literal(-3)))
          CFI DPL0 load(1, XDATA, add(CFA_XSP16, literal(-2)))
          CFI DPH0 load(1, XDATA, add(CFA_XSP16, literal(-1)))
          CFI CFA_SP SP+-2
          CFI CFA_XSP16 add(XSP16, 10)
          CFI Block cfiCond31 Using cfiCommon0
          CFI (cfiCond31) Function zclGp_GpProxyCommissioningModeCB
          CFI (cfiCond31) Conditional ??CrossCallReturnLabel_105
          CFI (cfiCond31) R6 load(1, XDATA, add(CFA_XSP16, literal(-10)))
          CFI (cfiCond31) VB load(1, XDATA, add(CFA_XSP16, literal(-9)))
          CFI (cfiCond31) V0 load(1, XDATA, add(CFA_XSP16, literal(-8)))
          CFI (cfiCond31) V1 load(1, XDATA, add(CFA_XSP16, literal(-7)))
          CFI (cfiCond31) R7 load(1, XDATA, add(CFA_XSP16, literal(-6)))
          CFI (cfiCond31) ?RET_LOW load(1, XDATA, add(CFA_XSP16, literal(-5)))
          CFI (cfiCond31) ?RET_HIGH load(1, XDATA, add(CFA_XSP16, literal(-4)))
          CFI (cfiCond31) ?BRET_EXT load(1, XDATA, add(CFA_XSP16, literal(-3)))
          CFI (cfiCond31) DPL0 load(1, XDATA, add(CFA_XSP16, literal(-2)))
          CFI (cfiCond31) DPH0 load(1, XDATA, add(CFA_XSP16, literal(-1)))
          CFI (cfiCond31) CFA_SP SP+-2
          CFI (cfiCond31) CFA_XSP16 add(XSP16, 10)
          CFI Block cfiCond32 Using cfiCommon0
          CFI (cfiCond32) Function zclGp_ManteinanceIndParse
          CFI (cfiCond32) Conditional ??CrossCallReturnLabel_106
          CFI (cfiCond32) R6 load(1, XDATA, add(CFA_XSP16, literal(-16)))
          CFI (cfiCond32) VB load(1, XDATA, add(CFA_XSP16, literal(-15)))
          CFI (cfiCond32) V0 load(1, XDATA, add(CFA_XSP16, literal(-14)))
          CFI (cfiCond32) V1 load(1, XDATA, add(CFA_XSP16, literal(-13)))
          CFI (cfiCond32) V2 load(1, XDATA, add(CFA_XSP16, literal(-12)))
          CFI (cfiCond32) V3 load(1, XDATA, add(CFA_XSP16, literal(-11)))
          CFI (cfiCond32) V4 load(1, XDATA, add(CFA_XSP16, literal(-10)))
          CFI (cfiCond32) V5 load(1, XDATA, add(CFA_XSP16, literal(-9)))
          CFI (cfiCond32) V6 load(1, XDATA, add(CFA_XSP16, literal(-8)))
          CFI (cfiCond32) V7 load(1, XDATA, add(CFA_XSP16, literal(-7)))
          CFI (cfiCond32) R7 load(1, XDATA, add(CFA_XSP16, literal(-6)))
          CFI (cfiCond32) ?RET_LOW load(1, XDATA, add(CFA_XSP16, literal(-5)))
          CFI (cfiCond32) ?RET_HIGH load(1, XDATA, add(CFA_XSP16, literal(-4)))
          CFI (cfiCond32) ?BRET_EXT load(1, XDATA, add(CFA_XSP16, literal(-3)))
          CFI (cfiCond32) DPL0 load(1, XDATA, add(CFA_XSP16, literal(-2)))
          CFI (cfiCond32) DPH0 load(1, XDATA, add(CFA_XSP16, literal(-1)))
          CFI (cfiCond32) CFA_SP SP+-2
          CFI (cfiCond32) CFA_XSP16 add(XSP16, 18)
          CFI Block cfiCond33 Using cfiCommon0
          CFI (cfiCond33) Function zclGp_DataIndParse
          CFI (cfiCond33) Conditional ??CrossCallReturnLabel_107
          CFI (cfiCond33) R6 load(1, XDATA, add(CFA_XSP16, literal(-15)))
          CFI (cfiCond33) VB load(1, XDATA, add(CFA_XSP16, literal(-14)))
          CFI (cfiCond33) V0 load(1, XDATA, add(CFA_XSP16, literal(-13)))
          CFI (cfiCond33) V1 load(1, XDATA, add(CFA_XSP16, literal(-12)))
          CFI (cfiCond33) V2 load(1, XDATA, add(CFA_XSP16, literal(-11)))
          CFI (cfiCond33) V3 load(1, XDATA, add(CFA_XSP16, literal(-10)))
          CFI (cfiCond33) V4 load(1, XDATA, add(CFA_XSP16, literal(-9)))
          CFI (cfiCond33) V5 load(1, XDATA, add(CFA_XSP16, literal(-8)))
          CFI (cfiCond33) V6 load(1, XDATA, add(CFA_XSP16, literal(-7)))
          CFI (cfiCond33) R7 load(1, XDATA, add(CFA_XSP16, literal(-6)))
          CFI (cfiCond33) ?RET_LOW load(1, XDATA, add(CFA_XSP16, literal(-5)))
          CFI (cfiCond33) ?RET_HIGH load(1, XDATA, add(CFA_XSP16, literal(-4)))
          CFI (cfiCond33) ?BRET_EXT load(1, XDATA, add(CFA_XSP16, literal(-3)))
          CFI (cfiCond33) DPL0 load(1, XDATA, add(CFA_XSP16, literal(-2)))
          CFI (cfiCond33) DPH0 load(1, XDATA, add(CFA_XSP16, literal(-1)))
          CFI (cfiCond33) CFA_SP SP+-2
          CFI (cfiCond33) CFA_XSP16 add(XSP16, 86)
          CFI Block cfiCond34 Using cfiCommon0
          CFI (cfiCond34) Function zclGp_GpResponseCommandCB
          CFI (cfiCond34) Conditional ??CrossCallReturnLabel_108
          CFI (cfiCond34) R6 load(1, XDATA, add(CFA_XSP16, literal(-15)))
          CFI (cfiCond34) VB load(1, XDATA, add(CFA_XSP16, literal(-14)))
          CFI (cfiCond34) V0 load(1, XDATA, add(CFA_XSP16, literal(-13)))
          CFI (cfiCond34) V1 load(1, XDATA, add(CFA_XSP16, literal(-12)))
          CFI (cfiCond34) V2 load(1, XDATA, add(CFA_XSP16, literal(-11)))
          CFI (cfiCond34) V3 load(1, XDATA, add(CFA_XSP16, literal(-10)))
          CFI (cfiCond34) V4 load(1, XDATA, add(CFA_XSP16, literal(-9)))
          CFI (cfiCond34) V5 load(1, XDATA, add(CFA_XSP16, literal(-8)))
          CFI (cfiCond34) V6 load(1, XDATA, add(CFA_XSP16, literal(-7)))
          CFI (cfiCond34) R7 load(1, XDATA, add(CFA_XSP16, literal(-6)))
          CFI (cfiCond34) ?RET_LOW load(1, XDATA, add(CFA_XSP16, literal(-5)))
          CFI (cfiCond34) ?RET_HIGH load(1, XDATA, add(CFA_XSP16, literal(-4)))
          CFI (cfiCond34) ?BRET_EXT load(1, XDATA, add(CFA_XSP16, literal(-3)))
          CFI (cfiCond34) DPL0 load(1, XDATA, add(CFA_XSP16, literal(-2)))
          CFI (cfiCond34) DPH0 load(1, XDATA, add(CFA_XSP16, literal(-1)))
          CFI (cfiCond34) CFA_SP SP+-2
          CFI (cfiCond34) CFA_XSP16 add(XSP16, 93)
          CFI Block cfiPicker35 Using cfiCommon1
          CFI (cfiPicker35) NoFunction
          CFI (cfiPicker35) Picker
        MOVX      A,@DPTR
        MOV       R0,A
        INC       DPTR
        MOVX      A,@DPTR
        MOV       R1,A
        RET
          CFI EndBlock cfiCond30
          CFI EndBlock cfiCond31
          CFI EndBlock cfiCond32
          CFI EndBlock cfiCond33
          CFI EndBlock cfiCond34
          CFI EndBlock cfiPicker35

        RSEG BANKED_CODE:HUGECODE:NOROOT(0)
?Subroutine28:
          CFI Block cfiCond36 Using cfiCommon0
          CFI Function zclGp_ManteinanceIndParse
          CFI Conditional ??CrossCallReturnLabel_39
          CFI R6 load(1, XDATA, add(CFA_XSP16, literal(-16)))
          CFI VB load(1, XDATA, add(CFA_XSP16, literal(-15)))
          CFI V0 load(1, XDATA, add(CFA_XSP16, literal(-14)))
          CFI V1 load(1, XDATA, add(CFA_XSP16, literal(-13)))
          CFI V2 load(1, XDATA, add(CFA_XSP16, literal(-12)))
          CFI V3 load(1, XDATA, add(CFA_XSP16, literal(-11)))
          CFI V4 load(1, XDATA, add(CFA_XSP16, literal(-10)))
          CFI V5 load(1, XDATA, add(CFA_XSP16, literal(-9)))
          CFI V6 load(1, XDATA, add(CFA_XSP16, literal(-8)))
          CFI V7 load(1, XDATA, add(CFA_XSP16, literal(-7)))
          CFI R7 load(1, XDATA, add(CFA_XSP16, literal(-6)))
          CFI ?RET_LOW load(1, XDATA, add(CFA_XSP16, literal(-5)))
          CFI ?RET_HIGH load(1, XDATA, add(CFA_XSP16, literal(-4)))
          CFI ?BRET_EXT load(1, XDATA, add(CFA_XSP16, literal(-3)))
          CFI DPL0 load(1, XDATA, add(CFA_XSP16, literal(-2)))
          CFI DPH0 load(1, XDATA, add(CFA_XSP16, literal(-1)))
          CFI CFA_SP SP+-2
          CFI CFA_XSP16 add(XSP16, 18)
          CFI Block cfiCond37 Using cfiCommon0
          CFI (cfiCond37) Function zclGp_DataIndParse
          CFI (cfiCond37) Conditional ??CrossCallReturnLabel_40
          CFI (cfiCond37) R6 load(1, XDATA, add(CFA_XSP16, literal(-15)))
          CFI (cfiCond37) VB load(1, XDATA, add(CFA_XSP16, literal(-14)))
          CFI (cfiCond37) V0 load(1, XDATA, add(CFA_XSP16, literal(-13)))
          CFI (cfiCond37) V1 load(1, XDATA, add(CFA_XSP16, literal(-12)))
          CFI (cfiCond37) V2 load(1, XDATA, add(CFA_XSP16, literal(-11)))
          CFI (cfiCond37) V3 load(1, XDATA, add(CFA_XSP16, literal(-10)))
          CFI (cfiCond37) V4 load(1, XDATA, add(CFA_XSP16, literal(-9)))
          CFI (cfiCond37) V5 load(1, XDATA, add(CFA_XSP16, literal(-8)))
          CFI (cfiCond37) V6 load(1, XDATA, add(CFA_XSP16, literal(-7)))
          CFI (cfiCond37) R7 load(1, XDATA, add(CFA_XSP16, literal(-6)))
          CFI (cfiCond37) ?RET_LOW load(1, XDATA, add(CFA_XSP16, literal(-5)))
          CFI (cfiCond37) ?RET_HIGH load(1, XDATA, add(CFA_XSP16, literal(-4)))
          CFI (cfiCond37) ?BRET_EXT load(1, XDATA, add(CFA_XSP16, literal(-3)))
          CFI (cfiCond37) DPL0 load(1, XDATA, add(CFA_XSP16, literal(-2)))
          CFI (cfiCond37) DPH0 load(1, XDATA, add(CFA_XSP16, literal(-1)))
          CFI (cfiCond37) CFA_SP SP+-2
          CFI (cfiCond37) CFA_XSP16 add(XSP16, 86)
          CFI Block cfiPicker38 Using cfiCommon1
          CFI (cfiPicker38) NoFunction
          CFI (cfiPicker38) Picker
        MOVX      A,@DPTR
        MOV       R0,A
        CLR       C
        SUBB      A,#0x9
        MOV       C,0xD0 /* PSW */.2
        XRL       A,PSW
        RLC       A
        RET
          CFI EndBlock cfiCond36
          CFI EndBlock cfiCond37
          CFI EndBlock cfiPicker38

        RSEG BANKED_CODE:HUGECODE:NOROOT(0)
?Subroutine23:
          CFI Block cfiCond39 Using cfiCommon0
          CFI Function zclGp_DataIndParse
          CFI Conditional ??CrossCallReturnLabel_113
          CFI R6 load(1, XDATA, add(CFA_XSP16, literal(-15)))
          CFI VB load(1, XDATA, add(CFA_XSP16, literal(-14)))
          CFI V0 load(1, XDATA, add(CFA_XSP16, literal(-13)))
          CFI V1 load(1, XDATA, add(CFA_XSP16, literal(-12)))
          CFI V2 load(1, XDATA, add(CFA_XSP16, literal(-11)))
          CFI V3 load(1, XDATA, add(CFA_XSP16, literal(-10)))
          CFI V4 load(1, XDATA, add(CFA_XSP16, literal(-9)))
          CFI V5 load(1, XDATA, add(CFA_XSP16, literal(-8)))
          CFI V6 load(1, XDATA, add(CFA_XSP16, literal(-7)))
          CFI R7 load(1, XDATA, add(CFA_XSP16, literal(-6)))
          CFI ?RET_LOW load(1, XDATA, add(CFA_XSP16, literal(-5)))
          CFI ?RET_HIGH load(1, XDATA, add(CFA_XSP16, literal(-4)))
          CFI ?BRET_EXT load(1, XDATA, add(CFA_XSP16, literal(-3)))
          CFI DPL0 load(1, XDATA, add(CFA_XSP16, literal(-2)))
          CFI DPH0 load(1, XDATA, add(CFA_XSP16, literal(-1)))
          CFI CFA_SP SP+-2
          CFI CFA_XSP16 add(XSP16, 86)
          CFI Block cfiCond40 Using cfiCommon0
          CFI (cfiCond40) Function zclGp_DataIndParse
          CFI (cfiCond40) Conditional ??CrossCallReturnLabel_114
          CFI (cfiCond40) R6 load(1, XDATA, add(CFA_XSP16, literal(-15)))
          CFI (cfiCond40) VB load(1, XDATA, add(CFA_XSP16, literal(-14)))
          CFI (cfiCond40) V0 load(1, XDATA, add(CFA_XSP16, literal(-13)))
          CFI (cfiCond40) V1 load(1, XDATA, add(CFA_XSP16, literal(-12)))
          CFI (cfiCond40) V2 load(1, XDATA, add(CFA_XSP16, literal(-11)))
          CFI (cfiCond40) V3 load(1, XDATA, add(CFA_XSP16, literal(-10)))
          CFI (cfiCond40) V4 load(1, XDATA, add(CFA_XSP16, literal(-9)))
          CFI (cfiCond40) V5 load(1, XDATA, add(CFA_XSP16, literal(-8)))
          CFI (cfiCond40) V6 load(1, XDATA, add(CFA_XSP16, literal(-7)))
          CFI (cfiCond40) R7 load(1, XDATA, add(CFA_XSP16, literal(-6)))
          CFI (cfiCond40) ?RET_LOW load(1, XDATA, add(CFA_XSP16, literal(-5)))
          CFI (cfiCond40) ?RET_HIGH load(1, XDATA, add(CFA_XSP16, literal(-4)))
          CFI (cfiCond40) ?BRET_EXT load(1, XDATA, add(CFA_XSP16, literal(-3)))
          CFI (cfiCond40) DPL0 load(1, XDATA, add(CFA_XSP16, literal(-2)))
          CFI (cfiCond40) DPH0 load(1, XDATA, add(CFA_XSP16, literal(-1)))
          CFI (cfiCond40) CFA_SP SP+-2
          CFI (cfiCond40) CFA_XSP16 add(XSP16, 86)
          CFI Block cfiCond41 Using cfiCommon0
          CFI (cfiCond41) Function zclGp_DataIndParse
          CFI (cfiCond41) Conditional ??CrossCallReturnLabel_115
          CFI (cfiCond41) R6 load(1, XDATA, add(CFA_XSP16, literal(-15)))
          CFI (cfiCond41) VB load(1, XDATA, add(CFA_XSP16, literal(-14)))
          CFI (cfiCond41) V0 load(1, XDATA, add(CFA_XSP16, literal(-13)))
          CFI (cfiCond41) V1 load(1, XDATA, add(CFA_XSP16, literal(-12)))
          CFI (cfiCond41) V2 load(1, XDATA, add(CFA_XSP16, literal(-11)))
          CFI (cfiCond41) V3 load(1, XDATA, add(CFA_XSP16, literal(-10)))
          CFI (cfiCond41) V4 load(1, XDATA, add(CFA_XSP16, literal(-9)))
          CFI (cfiCond41) V5 load(1, XDATA, add(CFA_XSP16, literal(-8)))
          CFI (cfiCond41) V6 load(1, XDATA, add(CFA_XSP16, literal(-7)))
          CFI (cfiCond41) R7 load(1, XDATA, add(CFA_XSP16, literal(-6)))
          CFI (cfiCond41) ?RET_LOW load(1, XDATA, add(CFA_XSP16, literal(-5)))
          CFI (cfiCond41) ?RET_HIGH load(1, XDATA, add(CFA_XSP16, literal(-4)))
          CFI (cfiCond41) ?BRET_EXT load(1, XDATA, add(CFA_XSP16, literal(-3)))
          CFI (cfiCond41) DPL0 load(1, XDATA, add(CFA_XSP16, literal(-2)))
          CFI (cfiCond41) DPH0 load(1, XDATA, add(CFA_XSP16, literal(-1)))
          CFI (cfiCond41) CFA_SP SP+-2
          CFI (cfiCond41) CFA_XSP16 add(XSP16, 86)
          CFI Block cfiPicker42 Using cfiCommon1
          CFI (cfiPicker42) NoFunction
          CFI (cfiPicker42) Picker
        MOV       DPL,?XSP + 0
        MOV       DPH,?XSP + 1
          CFI EndBlock cfiCond39
          CFI EndBlock cfiCond40
          CFI EndBlock cfiCond41
          CFI EndBlock cfiPicker42
        REQUIRE ??Subroutine59_0
        ; // Fall through to label ??Subroutine59_0

        RSEG BANKED_CODE:HUGECODE:NOROOT(0)
??Subroutine59_0:
          CFI Block cfiCond43 Using cfiCommon0
          CFI Function zclGp_DataIndParse
          CFI Conditional ??CrossCallReturnLabel_109
          CFI R6 load(1, XDATA, add(CFA_XSP16, literal(-15)))
          CFI VB load(1, XDATA, add(CFA_XSP16, literal(-14)))
          CFI V0 load(1, XDATA, add(CFA_XSP16, literal(-13)))
          CFI V1 load(1, XDATA, add(CFA_XSP16, literal(-12)))
          CFI V2 load(1, XDATA, add(CFA_XSP16, literal(-11)))
          CFI V3 load(1, XDATA, add(CFA_XSP16, literal(-10)))
          CFI V4 load(1, XDATA, add(CFA_XSP16, literal(-9)))
          CFI V5 load(1, XDATA, add(CFA_XSP16, literal(-8)))
          CFI V6 load(1, XDATA, add(CFA_XSP16, literal(-7)))
          CFI R7 load(1, XDATA, add(CFA_XSP16, literal(-6)))
          CFI ?RET_LOW load(1, XDATA, add(CFA_XSP16, literal(-5)))
          CFI ?RET_HIGH load(1, XDATA, add(CFA_XSP16, literal(-4)))
          CFI ?BRET_EXT load(1, XDATA, add(CFA_XSP16, literal(-3)))
          CFI DPL0 load(1, XDATA, add(CFA_XSP16, literal(-2)))
          CFI DPH0 load(1, XDATA, add(CFA_XSP16, literal(-1)))
          CFI CFA_XSP16 add(XSP16, 86)
          CFI Block cfiCond44 Using cfiCommon0
          CFI (cfiCond44) Function zclGp_DataIndParse
          CFI (cfiCond44) Conditional ??CrossCallReturnLabel_110
          CFI (cfiCond44) R6 load(1, XDATA, add(CFA_XSP16, literal(-15)))
          CFI (cfiCond44) VB load(1, XDATA, add(CFA_XSP16, literal(-14)))
          CFI (cfiCond44) V0 load(1, XDATA, add(CFA_XSP16, literal(-13)))
          CFI (cfiCond44) V1 load(1, XDATA, add(CFA_XSP16, literal(-12)))
          CFI (cfiCond44) V2 load(1, XDATA, add(CFA_XSP16, literal(-11)))
          CFI (cfiCond44) V3 load(1, XDATA, add(CFA_XSP16, literal(-10)))
          CFI (cfiCond44) V4 load(1, XDATA, add(CFA_XSP16, literal(-9)))
          CFI (cfiCond44) V5 load(1, XDATA, add(CFA_XSP16, literal(-8)))
          CFI (cfiCond44) V6 load(1, XDATA, add(CFA_XSP16, literal(-7)))
          CFI (cfiCond44) R7 load(1, XDATA, add(CFA_XSP16, literal(-6)))
          CFI (cfiCond44) ?RET_LOW load(1, XDATA, add(CFA_XSP16, literal(-5)))
          CFI (cfiCond44) ?RET_HIGH load(1, XDATA, add(CFA_XSP16, literal(-4)))
          CFI (cfiCond44) ?BRET_EXT load(1, XDATA, add(CFA_XSP16, literal(-3)))
          CFI (cfiCond44) DPL0 load(1, XDATA, add(CFA_XSP16, literal(-2)))
          CFI (cfiCond44) DPH0 load(1, XDATA, add(CFA_XSP16, literal(-1)))
          CFI (cfiCond44) CFA_XSP16 add(XSP16, 86)
          CFI Block cfiCond45 Using cfiCommon0
          CFI (cfiCond45) Function zclGp_DataIndParse
          CFI (cfiCond45) Conditional ??CrossCallReturnLabel_111
          CFI (cfiCond45) R6 load(1, XDATA, add(CFA_XSP16, literal(-15)))
          CFI (cfiCond45) VB load(1, XDATA, add(CFA_XSP16, literal(-14)))
          CFI (cfiCond45) V0 load(1, XDATA, add(CFA_XSP16, literal(-13)))
          CFI (cfiCond45) V1 load(1, XDATA, add(CFA_XSP16, literal(-12)))
          CFI (cfiCond45) V2 load(1, XDATA, add(CFA_XSP16, literal(-11)))
          CFI (cfiCond45) V3 load(1, XDATA, add(CFA_XSP16, literal(-10)))
          CFI (cfiCond45) V4 load(1, XDATA, add(CFA_XSP16, literal(-9)))
          CFI (cfiCond45) V5 load(1, XDATA, add(CFA_XSP16, literal(-8)))
          CFI (cfiCond45) V6 load(1, XDATA, add(CFA_XSP16, literal(-7)))
          CFI (cfiCond45) R7 load(1, XDATA, add(CFA_XSP16, literal(-6)))
          CFI (cfiCond45) ?RET_LOW load(1, XDATA, add(CFA_XSP16, literal(-5)))
          CFI (cfiCond45) ?RET_HIGH load(1, XDATA, add(CFA_XSP16, literal(-4)))
          CFI (cfiCond45) ?BRET_EXT load(1, XDATA, add(CFA_XSP16, literal(-3)))
          CFI (cfiCond45) DPL0 load(1, XDATA, add(CFA_XSP16, literal(-2)))
          CFI (cfiCond45) DPH0 load(1, XDATA, add(CFA_XSP16, literal(-1)))
          CFI (cfiCond45) CFA_XSP16 add(XSP16, 86)
          CFI Block cfiCond46 Using cfiCommon0
          CFI (cfiCond46) Function zclGp_DataIndParse
          CFI (cfiCond46) Conditional ??CrossCallReturnLabel_112
          CFI (cfiCond46) R6 load(1, XDATA, add(CFA_XSP16, literal(-15)))
          CFI (cfiCond46) VB load(1, XDATA, add(CFA_XSP16, literal(-14)))
          CFI (cfiCond46) V0 load(1, XDATA, add(CFA_XSP16, literal(-13)))
          CFI (cfiCond46) V1 load(1, XDATA, add(CFA_XSP16, literal(-12)))
          CFI (cfiCond46) V2 load(1, XDATA, add(CFA_XSP16, literal(-11)))
          CFI (cfiCond46) V3 load(1, XDATA, add(CFA_XSP16, literal(-10)))
          CFI (cfiCond46) V4 load(1, XDATA, add(CFA_XSP16, literal(-9)))
          CFI (cfiCond46) V5 load(1, XDATA, add(CFA_XSP16, literal(-8)))
          CFI (cfiCond46) V6 load(1, XDATA, add(CFA_XSP16, literal(-7)))
          CFI (cfiCond46) R7 load(1, XDATA, add(CFA_XSP16, literal(-6)))
          CFI (cfiCond46) ?RET_LOW load(1, XDATA, add(CFA_XSP16, literal(-5)))
          CFI (cfiCond46) ?RET_HIGH load(1, XDATA, add(CFA_XSP16, literal(-4)))
          CFI (cfiCond46) ?BRET_EXT load(1, XDATA, add(CFA_XSP16, literal(-3)))
          CFI (cfiCond46) DPL0 load(1, XDATA, add(CFA_XSP16, literal(-2)))
          CFI (cfiCond46) DPH0 load(1, XDATA, add(CFA_XSP16, literal(-1)))
          CFI (cfiCond46) CFA_XSP16 add(XSP16, 86)
          CFI Block cfiCond47 Using cfiCommon0
          CFI (cfiCond47) Function zclGp_DataIndParse
          CFI (cfiCond47) Conditional ??CrossCallReturnLabel_113
          CFI (cfiCond47) R6 load(1, XDATA, add(CFA_XSP16, literal(-15)))
          CFI (cfiCond47) VB load(1, XDATA, add(CFA_XSP16, literal(-14)))
          CFI (cfiCond47) V0 load(1, XDATA, add(CFA_XSP16, literal(-13)))
          CFI (cfiCond47) V1 load(1, XDATA, add(CFA_XSP16, literal(-12)))
          CFI (cfiCond47) V2 load(1, XDATA, add(CFA_XSP16, literal(-11)))
          CFI (cfiCond47) V3 load(1, XDATA, add(CFA_XSP16, literal(-10)))
          CFI (cfiCond47) V4 load(1, XDATA, add(CFA_XSP16, literal(-9)))
          CFI (cfiCond47) V5 load(1, XDATA, add(CFA_XSP16, literal(-8)))
          CFI (cfiCond47) V6 load(1, XDATA, add(CFA_XSP16, literal(-7)))
          CFI (cfiCond47) R7 load(1, XDATA, add(CFA_XSP16, literal(-6)))
          CFI (cfiCond47) ?RET_LOW load(1, XDATA, add(CFA_XSP16, literal(-5)))
          CFI (cfiCond47) ?RET_HIGH load(1, XDATA, add(CFA_XSP16, literal(-4)))
          CFI (cfiCond47) ?BRET_EXT load(1, XDATA, add(CFA_XSP16, literal(-3)))
          CFI (cfiCond47) DPL0 load(1, XDATA, add(CFA_XSP16, literal(-2)))
          CFI (cfiCond47) DPH0 load(1, XDATA, add(CFA_XSP16, literal(-1)))
          CFI (cfiCond47) CFA_SP SP+-2
          CFI (cfiCond47) CFA_XSP16 add(XSP16, 86)
          CFI Block cfiCond48 Using cfiCommon0
          CFI (cfiCond48) Function zclGp_DataIndParse
          CFI (cfiCond48) Conditional ??CrossCallReturnLabel_114
          CFI (cfiCond48) R6 load(1, XDATA, add(CFA_XSP16, literal(-15)))
          CFI (cfiCond48) VB load(1, XDATA, add(CFA_XSP16, literal(-14)))
          CFI (cfiCond48) V0 load(1, XDATA, add(CFA_XSP16, literal(-13)))
          CFI (cfiCond48) V1 load(1, XDATA, add(CFA_XSP16, literal(-12)))
          CFI (cfiCond48) V2 load(1, XDATA, add(CFA_XSP16, literal(-11)))
          CFI (cfiCond48) V3 load(1, XDATA, add(CFA_XSP16, literal(-10)))
          CFI (cfiCond48) V4 load(1, XDATA, add(CFA_XSP16, literal(-9)))
          CFI (cfiCond48) V5 load(1, XDATA, add(CFA_XSP16, literal(-8)))
          CFI (cfiCond48) V6 load(1, XDATA, add(CFA_XSP16, literal(-7)))
          CFI (cfiCond48) R7 load(1, XDATA, add(CFA_XSP16, literal(-6)))
          CFI (cfiCond48) ?RET_LOW load(1, XDATA, add(CFA_XSP16, literal(-5)))
          CFI (cfiCond48) ?RET_HIGH load(1, XDATA, add(CFA_XSP16, literal(-4)))
          CFI (cfiCond48) ?BRET_EXT load(1, XDATA, add(CFA_XSP16, literal(-3)))
          CFI (cfiCond48) DPL0 load(1, XDATA, add(CFA_XSP16, literal(-2)))
          CFI (cfiCond48) DPH0 load(1, XDATA, add(CFA_XSP16, literal(-1)))
          CFI (cfiCond48) CFA_SP SP+-2
          CFI (cfiCond48) CFA_XSP16 add(XSP16, 86)
          CFI Block cfiCond49 Using cfiCommon0
          CFI (cfiCond49) Function zclGp_DataIndParse
          CFI (cfiCond49) Conditional ??CrossCallReturnLabel_115
          CFI (cfiCond49) R6 load(1, XDATA, add(CFA_XSP16, literal(-15)))
          CFI (cfiCond49) VB load(1, XDATA, add(CFA_XSP16, literal(-14)))
          CFI (cfiCond49) V0 load(1, XDATA, add(CFA_XSP16, literal(-13)))
          CFI (cfiCond49) V1 load(1, XDATA, add(CFA_XSP16, literal(-12)))
          CFI (cfiCond49) V2 load(1, XDATA, add(CFA_XSP16, literal(-11)))
          CFI (cfiCond49) V3 load(1, XDATA, add(CFA_XSP16, literal(-10)))
          CFI (cfiCond49) V4 load(1, XDATA, add(CFA_XSP16, literal(-9)))
          CFI (cfiCond49) V5 load(1, XDATA, add(CFA_XSP16, literal(-8)))
          CFI (cfiCond49) V6 load(1, XDATA, add(CFA_XSP16, literal(-7)))
          CFI (cfiCond49) R7 load(1, XDATA, add(CFA_XSP16, literal(-6)))
          CFI (cfiCond49) ?RET_LOW load(1, XDATA, add(CFA_XSP16, literal(-5)))
          CFI (cfiCond49) ?RET_HIGH load(1, XDATA, add(CFA_XSP16, literal(-4)))
          CFI (cfiCond49) ?BRET_EXT load(1, XDATA, add(CFA_XSP16, literal(-3)))
          CFI (cfiCond49) DPL0 load(1, XDATA, add(CFA_XSP16, literal(-2)))
          CFI (cfiCond49) DPH0 load(1, XDATA, add(CFA_XSP16, literal(-1)))
          CFI (cfiCond49) CFA_SP SP+-2
          CFI (cfiCond49) CFA_XSP16 add(XSP16, 86)
          CFI Block cfiPicker50 Using cfiCommon1
          CFI (cfiPicker50) NoFunction
          CFI (cfiPicker50) Picker
        MOVX      A,@DPTR
        MOV       R0,A
        INC       DPTR
        MOVX      A,@DPTR
        XCH       A,R0
        RET
          CFI EndBlock cfiCond43
          CFI EndBlock cfiCond44
          CFI EndBlock cfiCond45
          CFI EndBlock cfiCond46
          CFI EndBlock cfiCond47
          CFI EndBlock cfiCond48
          CFI EndBlock cfiCond49
          CFI EndBlock cfiPicker50

        RSEG BANKED_CODE:HUGECODE:NOROOT(0)
?Subroutine8:
          CFI Block cfiCond51 Using cfiCommon0
          CFI Function zclGp_ManteinanceIndParse
          CFI Conditional ??CrossCallReturnLabel_7
          CFI R6 load(1, XDATA, add(CFA_XSP16, literal(-16)))
          CFI VB load(1, XDATA, add(CFA_XSP16, literal(-15)))
          CFI V0 load(1, XDATA, add(CFA_XSP16, literal(-14)))
          CFI V1 load(1, XDATA, add(CFA_XSP16, literal(-13)))
          CFI V2 load(1, XDATA, add(CFA_XSP16, literal(-12)))
          CFI V3 load(1, XDATA, add(CFA_XSP16, literal(-11)))
          CFI V4 load(1, XDATA, add(CFA_XSP16, literal(-10)))
          CFI V5 load(1, XDATA, add(CFA_XSP16, literal(-9)))
          CFI V6 load(1, XDATA, add(CFA_XSP16, literal(-8)))
          CFI V7 load(1, XDATA, add(CFA_XSP16, literal(-7)))
          CFI R7 load(1, XDATA, add(CFA_XSP16, literal(-6)))
          CFI ?RET_LOW load(1, XDATA, add(CFA_XSP16, literal(-5)))
          CFI ?RET_HIGH load(1, XDATA, add(CFA_XSP16, literal(-4)))
          CFI ?BRET_EXT load(1, XDATA, add(CFA_XSP16, literal(-3)))
          CFI DPL0 load(1, XDATA, add(CFA_XSP16, literal(-2)))
          CFI DPH0 load(1, XDATA, add(CFA_XSP16, literal(-1)))
          CFI CFA_SP SP+-2
          CFI CFA_XSP16 add(XSP16, 18)
          CFI Block cfiCond52 Using cfiCommon0
          CFI (cfiCond52) Function zclGp_DataIndParse
          CFI (cfiCond52) Conditional ??CrossCallReturnLabel_8
          CFI (cfiCond52) R6 load(1, XDATA, add(CFA_XSP16, literal(-15)))
          CFI (cfiCond52) VB load(1, XDATA, add(CFA_XSP16, literal(-14)))
          CFI (cfiCond52) V0 load(1, XDATA, add(CFA_XSP16, literal(-13)))
          CFI (cfiCond52) V1 load(1, XDATA, add(CFA_XSP16, literal(-12)))
          CFI (cfiCond52) V2 load(1, XDATA, add(CFA_XSP16, literal(-11)))
          CFI (cfiCond52) V3 load(1, XDATA, add(CFA_XSP16, literal(-10)))
          CFI (cfiCond52) V4 load(1, XDATA, add(CFA_XSP16, literal(-9)))
          CFI (cfiCond52) V5 load(1, XDATA, add(CFA_XSP16, literal(-8)))
          CFI (cfiCond52) V6 load(1, XDATA, add(CFA_XSP16, literal(-7)))
          CFI (cfiCond52) R7 load(1, XDATA, add(CFA_XSP16, literal(-6)))
          CFI (cfiCond52) ?RET_LOW load(1, XDATA, add(CFA_XSP16, literal(-5)))
          CFI (cfiCond52) ?RET_HIGH load(1, XDATA, add(CFA_XSP16, literal(-4)))
          CFI (cfiCond52) ?BRET_EXT load(1, XDATA, add(CFA_XSP16, literal(-3)))
          CFI (cfiCond52) DPL0 load(1, XDATA, add(CFA_XSP16, literal(-2)))
          CFI (cfiCond52) DPH0 load(1, XDATA, add(CFA_XSP16, literal(-1)))
          CFI (cfiCond52) CFA_SP SP+-2
          CFI (cfiCond52) CFA_XSP16 add(XSP16, 86)
          CFI Block cfiCond53 Using cfiCommon0
          CFI (cfiCond53) Function zclGp_GpProxyTableReqCB
          CFI (cfiCond53) Conditional ??CrossCallReturnLabel_9
          CFI (cfiCond53) R6 load(1, XDATA, add(CFA_XSP16, literal(-15)))
          CFI (cfiCond53) VB load(1, XDATA, add(CFA_XSP16, literal(-14)))
          CFI (cfiCond53) V0 load(1, XDATA, add(CFA_XSP16, literal(-13)))
          CFI (cfiCond53) V1 load(1, XDATA, add(CFA_XSP16, literal(-12)))
          CFI (cfiCond53) V2 load(1, XDATA, add(CFA_XSP16, literal(-11)))
          CFI (cfiCond53) V3 load(1, XDATA, add(CFA_XSP16, literal(-10)))
          CFI (cfiCond53) V4 load(1, XDATA, add(CFA_XSP16, literal(-9)))
          CFI (cfiCond53) V5 load(1, XDATA, add(CFA_XSP16, literal(-8)))
          CFI (cfiCond53) V6 load(1, XDATA, add(CFA_XSP16, literal(-7)))
          CFI (cfiCond53) R7 load(1, XDATA, add(CFA_XSP16, literal(-6)))
          CFI (cfiCond53) ?RET_LOW load(1, XDATA, add(CFA_XSP16, literal(-5)))
          CFI (cfiCond53) ?RET_HIGH load(1, XDATA, add(CFA_XSP16, literal(-4)))
          CFI (cfiCond53) ?BRET_EXT load(1, XDATA, add(CFA_XSP16, literal(-3)))
          CFI (cfiCond53) DPL0 load(1, XDATA, add(CFA_XSP16, literal(-2)))
          CFI (cfiCond53) DPH0 load(1, XDATA, add(CFA_XSP16, literal(-1)))
          CFI (cfiCond53) CFA_SP SP+-2
          CFI (cfiCond53) CFA_XSP16 add(XSP16, 181)
          CFI Block cfiPicker54 Using cfiCommon1
          CFI (cfiPicker54) NoFunction
          CFI (cfiPicker54) Picker
        LCALL     ?Subroutine54 & 0xFFFF
??CrossCallReturnLabel_94:
        RET
          CFI EndBlock cfiCond51
          CFI EndBlock cfiCond52
          CFI EndBlock cfiCond53
          CFI EndBlock cfiPicker54

        RSEG BANKED_CODE:HUGECODE:NOROOT(0)
?Subroutine54:
          CFI Block cfiCond55 Using cfiCommon0
          CFI Function zclGp_ManteinanceIndParse
          CFI Conditional ??CrossCallReturnLabel_94, ??CrossCallReturnLabel_7
          CFI R6 load(1, XDATA, add(CFA_XSP16, literal(-16)))
          CFI VB load(1, XDATA, add(CFA_XSP16, literal(-15)))
          CFI V0 load(1, XDATA, add(CFA_XSP16, literal(-14)))
          CFI V1 load(1, XDATA, add(CFA_XSP16, literal(-13)))
          CFI V2 load(1, XDATA, add(CFA_XSP16, literal(-12)))
          CFI V3 load(1, XDATA, add(CFA_XSP16, literal(-11)))
          CFI V4 load(1, XDATA, add(CFA_XSP16, literal(-10)))
          CFI V5 load(1, XDATA, add(CFA_XSP16, literal(-9)))
          CFI V6 load(1, XDATA, add(CFA_XSP16, literal(-8)))
          CFI V7 load(1, XDATA, add(CFA_XSP16, literal(-7)))
          CFI R7 load(1, XDATA, add(CFA_XSP16, literal(-6)))
          CFI ?RET_LOW load(1, XDATA, add(CFA_XSP16, literal(-5)))
          CFI ?RET_HIGH load(1, XDATA, add(CFA_XSP16, literal(-4)))
          CFI ?BRET_EXT load(1, XDATA, add(CFA_XSP16, literal(-3)))
          CFI DPL0 load(1, XDATA, add(CFA_XSP16, literal(-2)))
          CFI DPH0 load(1, XDATA, add(CFA_XSP16, literal(-1)))
          CFI CFA_SP SP+-4
          CFI CFA_XSP16 add(XSP16, 18)
          CFI Block cfiCond56 Using cfiCommon0
          CFI (cfiCond56) Function zclGp_DataIndParse
          CFI (cfiCond56) Conditional ??CrossCallReturnLabel_94, ??CrossCallReturnLabel_8
          CFI (cfiCond56) R6 load(1, XDATA, add(CFA_XSP16, literal(-15)))
          CFI (cfiCond56) VB load(1, XDATA, add(CFA_XSP16, literal(-14)))
          CFI (cfiCond56) V0 load(1, XDATA, add(CFA_XSP16, literal(-13)))
          CFI (cfiCond56) V1 load(1, XDATA, add(CFA_XSP16, literal(-12)))
          CFI (cfiCond56) V2 load(1, XDATA, add(CFA_XSP16, literal(-11)))
          CFI (cfiCond56) V3 load(1, XDATA, add(CFA_XSP16, literal(-10)))
          CFI (cfiCond56) V4 load(1, XDATA, add(CFA_XSP16, literal(-9)))
          CFI (cfiCond56) V5 load(1, XDATA, add(CFA_XSP16, literal(-8)))
          CFI (cfiCond56) V6 load(1, XDATA, add(CFA_XSP16, literal(-7)))
          CFI (cfiCond56) R7 load(1, XDATA, add(CFA_XSP16, literal(-6)))
          CFI (cfiCond56) ?RET_LOW load(1, XDATA, add(CFA_XSP16, literal(-5)))
          CFI (cfiCond56) ?RET_HIGH load(1, XDATA, add(CFA_XSP16, literal(-4)))
          CFI (cfiCond56) ?BRET_EXT load(1, XDATA, add(CFA_XSP16, literal(-3)))
          CFI (cfiCond56) DPL0 load(1, XDATA, add(CFA_XSP16, literal(-2)))
          CFI (cfiCond56) DPH0 load(1, XDATA, add(CFA_XSP16, literal(-1)))
          CFI (cfiCond56) CFA_SP SP+-4
          CFI (cfiCond56) CFA_XSP16 add(XSP16, 86)
          CFI Block cfiCond57 Using cfiCommon0
          CFI (cfiCond57) Function zclGp_GpProxyTableReqCB
          CFI (cfiCond57) Conditional ??CrossCallReturnLabel_94, ??CrossCallReturnLabel_9
          CFI (cfiCond57) R6 load(1, XDATA, add(CFA_XSP16, literal(-15)))
          CFI (cfiCond57) VB load(1, XDATA, add(CFA_XSP16, literal(-14)))
          CFI (cfiCond57) V0 load(1, XDATA, add(CFA_XSP16, literal(-13)))
          CFI (cfiCond57) V1 load(1, XDATA, add(CFA_XSP16, literal(-12)))
          CFI (cfiCond57) V2 load(1, XDATA, add(CFA_XSP16, literal(-11)))
          CFI (cfiCond57) V3 load(1, XDATA, add(CFA_XSP16, literal(-10)))
          CFI (cfiCond57) V4 load(1, XDATA, add(CFA_XSP16, literal(-9)))
          CFI (cfiCond57) V5 load(1, XDATA, add(CFA_XSP16, literal(-8)))
          CFI (cfiCond57) V6 load(1, XDATA, add(CFA_XSP16, literal(-7)))
          CFI (cfiCond57) R7 load(1, XDATA, add(CFA_XSP16, literal(-6)))
          CFI (cfiCond57) ?RET_LOW load(1, XDATA, add(CFA_XSP16, literal(-5)))
          CFI (cfiCond57) ?RET_HIGH load(1, XDATA, add(CFA_XSP16, literal(-4)))
          CFI (cfiCond57) ?BRET_EXT load(1, XDATA, add(CFA_XSP16, literal(-3)))
          CFI (cfiCond57) DPL0 load(1, XDATA, add(CFA_XSP16, literal(-2)))
          CFI (cfiCond57) DPH0 load(1, XDATA, add(CFA_XSP16, literal(-1)))
          CFI (cfiCond57) CFA_SP SP+-4
          CFI (cfiCond57) CFA_XSP16 add(XSP16, 181)
          CFI Block cfiCond58 Using cfiCommon0
          CFI (cfiCond58) Function zclGp_DataIndParse
          CFI (cfiCond58) Conditional ??CrossCallReturnLabel_95, ??CrossCallReturnLabel_85, ??CrossCallReturnLabel_0
          CFI (cfiCond58) R6 load(1, XDATA, add(CFA_XSP16, literal(-15)))
          CFI (cfiCond58) VB load(1, XDATA, add(CFA_XSP16, literal(-14)))
          CFI (cfiCond58) V0 load(1, XDATA, add(CFA_XSP16, literal(-13)))
          CFI (cfiCond58) V1 load(1, XDATA, add(CFA_XSP16, literal(-12)))
          CFI (cfiCond58) V2 load(1, XDATA, add(CFA_XSP16, literal(-11)))
          CFI (cfiCond58) V3 load(1, XDATA, add(CFA_XSP16, literal(-10)))
          CFI (cfiCond58) V4 load(1, XDATA, add(CFA_XSP16, literal(-9)))
          CFI (cfiCond58) V5 load(1, XDATA, add(CFA_XSP16, literal(-8)))
          CFI (cfiCond58) V6 load(1, XDATA, add(CFA_XSP16, literal(-7)))
          CFI (cfiCond58) R7 load(1, XDATA, add(CFA_XSP16, literal(-6)))
          CFI (cfiCond58) ?RET_LOW load(1, XDATA, add(CFA_XSP16, literal(-5)))
          CFI (cfiCond58) ?RET_HIGH load(1, XDATA, add(CFA_XSP16, literal(-4)))
          CFI (cfiCond58) ?BRET_EXT load(1, XDATA, add(CFA_XSP16, literal(-3)))
          CFI (cfiCond58) DPL0 load(1, XDATA, add(CFA_XSP16, literal(-2)))
          CFI (cfiCond58) DPH0 load(1, XDATA, add(CFA_XSP16, literal(-1)))
          CFI (cfiCond58) CFA_SP SP+-6
          CFI (cfiCond58) CFA_XSP16 add(XSP16, 86)
          CFI Block cfiCond59 Using cfiCommon0
          CFI (cfiCond59) Function zclGp_DataIndParse
          CFI (cfiCond59) Conditional ??CrossCallReturnLabel_95, ??CrossCallReturnLabel_85, ??CrossCallReturnLabel_1
          CFI (cfiCond59) R6 load(1, XDATA, add(CFA_XSP16, literal(-15)))
          CFI (cfiCond59) VB load(1, XDATA, add(CFA_XSP16, literal(-14)))
          CFI (cfiCond59) V0 load(1, XDATA, add(CFA_XSP16, literal(-13)))
          CFI (cfiCond59) V1 load(1, XDATA, add(CFA_XSP16, literal(-12)))
          CFI (cfiCond59) V2 load(1, XDATA, add(CFA_XSP16, literal(-11)))
          CFI (cfiCond59) V3 load(1, XDATA, add(CFA_XSP16, literal(-10)))
          CFI (cfiCond59) V4 load(1, XDATA, add(CFA_XSP16, literal(-9)))
          CFI (cfiCond59) V5 load(1, XDATA, add(CFA_XSP16, literal(-8)))
          CFI (cfiCond59) V6 load(1, XDATA, add(CFA_XSP16, literal(-7)))
          CFI (cfiCond59) R7 load(1, XDATA, add(CFA_XSP16, literal(-6)))
          CFI (cfiCond59) ?RET_LOW load(1, XDATA, add(CFA_XSP16, literal(-5)))
          CFI (cfiCond59) ?RET_HIGH load(1, XDATA, add(CFA_XSP16, literal(-4)))
          CFI (cfiCond59) ?BRET_EXT load(1, XDATA, add(CFA_XSP16, literal(-3)))
          CFI (cfiCond59) DPL0 load(1, XDATA, add(CFA_XSP16, literal(-2)))
          CFI (cfiCond59) DPH0 load(1, XDATA, add(CFA_XSP16, literal(-1)))
          CFI (cfiCond59) CFA_SP SP+-6
          CFI (cfiCond59) CFA_XSP16 add(XSP16, 86)
          CFI Block cfiCond60 Using cfiCommon0
          CFI (cfiCond60) Function zclGp_DataIndParse
          CFI (cfiCond60) Conditional ??CrossCallReturnLabel_95, ??CrossCallReturnLabel_85, ??CrossCallReturnLabel_2
          CFI (cfiCond60) R6 load(1, XDATA, add(CFA_XSP16, literal(-15)))
          CFI (cfiCond60) VB load(1, XDATA, add(CFA_XSP16, literal(-14)))
          CFI (cfiCond60) V0 load(1, XDATA, add(CFA_XSP16, literal(-13)))
          CFI (cfiCond60) V1 load(1, XDATA, add(CFA_XSP16, literal(-12)))
          CFI (cfiCond60) V2 load(1, XDATA, add(CFA_XSP16, literal(-11)))
          CFI (cfiCond60) V3 load(1, XDATA, add(CFA_XSP16, literal(-10)))
          CFI (cfiCond60) V4 load(1, XDATA, add(CFA_XSP16, literal(-9)))
          CFI (cfiCond60) V5 load(1, XDATA, add(CFA_XSP16, literal(-8)))
          CFI (cfiCond60) V6 load(1, XDATA, add(CFA_XSP16, literal(-7)))
          CFI (cfiCond60) R7 load(1, XDATA, add(CFA_XSP16, literal(-6)))
          CFI (cfiCond60) ?RET_LOW load(1, XDATA, add(CFA_XSP16, literal(-5)))
          CFI (cfiCond60) ?RET_HIGH load(1, XDATA, add(CFA_XSP16, literal(-4)))
          CFI (cfiCond60) ?BRET_EXT load(1, XDATA, add(CFA_XSP16, literal(-3)))
          CFI (cfiCond60) DPL0 load(1, XDATA, add(CFA_XSP16, literal(-2)))
          CFI (cfiCond60) DPH0 load(1, XDATA, add(CFA_XSP16, literal(-1)))
          CFI (cfiCond60) CFA_SP SP+-6
          CFI (cfiCond60) CFA_XSP16 add(XSP16, 86)
          CFI Block cfiCond61 Using cfiCommon0
          CFI (cfiCond61) Function zclGp_GpResponseCommandCB
          CFI (cfiCond61) Conditional ??CrossCallReturnLabel_95, ??CrossCallReturnLabel_86, ??CrossCallReturnLabel_4
          CFI (cfiCond61) R6 load(1, XDATA, add(CFA_XSP16, literal(-15)))
          CFI (cfiCond61) VB load(1, XDATA, add(CFA_XSP16, literal(-14)))
          CFI (cfiCond61) V0 load(1, XDATA, add(CFA_XSP16, literal(-13)))
          CFI (cfiCond61) V1 load(1, XDATA, add(CFA_XSP16, literal(-12)))
          CFI (cfiCond61) V2 load(1, XDATA, add(CFA_XSP16, literal(-11)))
          CFI (cfiCond61) V3 load(1, XDATA, add(CFA_XSP16, literal(-10)))
          CFI (cfiCond61) V4 load(1, XDATA, add(CFA_XSP16, literal(-9)))
          CFI (cfiCond61) V5 load(1, XDATA, add(CFA_XSP16, literal(-8)))
          CFI (cfiCond61) V6 load(1, XDATA, add(CFA_XSP16, literal(-7)))
          CFI (cfiCond61) R7 load(1, XDATA, add(CFA_XSP16, literal(-6)))
          CFI (cfiCond61) ?RET_LOW load(1, XDATA, add(CFA_XSP16, literal(-5)))
          CFI (cfiCond61) ?RET_HIGH load(1, XDATA, add(CFA_XSP16, literal(-4)))
          CFI (cfiCond61) ?BRET_EXT load(1, XDATA, add(CFA_XSP16, literal(-3)))
          CFI (cfiCond61) DPL0 load(1, XDATA, add(CFA_XSP16, literal(-2)))
          CFI (cfiCond61) DPH0 load(1, XDATA, add(CFA_XSP16, literal(-1)))
          CFI (cfiCond61) CFA_SP SP+-6
          CFI (cfiCond61) CFA_XSP16 add(XSP16, 93)
          CFI Block cfiCond62 Using cfiCommon0
          CFI (cfiCond62) Function zclGp_GpResponseCommandCB
          CFI (cfiCond62) Conditional ??CrossCallReturnLabel_95, ??CrossCallReturnLabel_86, ??CrossCallReturnLabel_3
          CFI (cfiCond62) R6 load(1, XDATA, add(CFA_XSP16, literal(-15)))
          CFI (cfiCond62) VB load(1, XDATA, add(CFA_XSP16, literal(-14)))
          CFI (cfiCond62) V0 load(1, XDATA, add(CFA_XSP16, literal(-13)))
          CFI (cfiCond62) V1 load(1, XDATA, add(CFA_XSP16, literal(-12)))
          CFI (cfiCond62) V2 load(1, XDATA, add(CFA_XSP16, literal(-11)))
          CFI (cfiCond62) V3 load(1, XDATA, add(CFA_XSP16, literal(-10)))
          CFI (cfiCond62) V4 load(1, XDATA, add(CFA_XSP16, literal(-9)))
          CFI (cfiCond62) V5 load(1, XDATA, add(CFA_XSP16, literal(-8)))
          CFI (cfiCond62) V6 load(1, XDATA, add(CFA_XSP16, literal(-7)))
          CFI (cfiCond62) R7 load(1, XDATA, add(CFA_XSP16, literal(-6)))
          CFI (cfiCond62) ?RET_LOW load(1, XDATA, add(CFA_XSP16, literal(-5)))
          CFI (cfiCond62) ?RET_HIGH load(1, XDATA, add(CFA_XSP16, literal(-4)))
          CFI (cfiCond62) ?BRET_EXT load(1, XDATA, add(CFA_XSP16, literal(-3)))
          CFI (cfiCond62) DPL0 load(1, XDATA, add(CFA_XSP16, literal(-2)))
          CFI (cfiCond62) DPH0 load(1, XDATA, add(CFA_XSP16, literal(-1)))
          CFI (cfiCond62) CFA_SP SP+-6
          CFI (cfiCond62) CFA_XSP16 add(XSP16, 93)
          CFI Block cfiCond63 Using cfiCommon0
          CFI (cfiCond63) Function gp_getProxyTableByGpId
          CFI (cfiCond63) Conditional ??CrossCallReturnLabel_95, ??CrossCallReturnLabel_87, ??CrossCallReturnLabel_5
          CFI (cfiCond63) R6 load(1, XDATA, add(CFA_XSP16, literal(-15)))
          CFI (cfiCond63) VB load(1, XDATA, add(CFA_XSP16, literal(-14)))
          CFI (cfiCond63) V0 load(1, XDATA, add(CFA_XSP16, literal(-13)))
          CFI (cfiCond63) V1 load(1, XDATA, add(CFA_XSP16, literal(-12)))
          CFI (cfiCond63) V2 load(1, XDATA, add(CFA_XSP16, literal(-11)))
          CFI (cfiCond63) V3 load(1, XDATA, add(CFA_XSP16, literal(-10)))
          CFI (cfiCond63) V4 load(1, XDATA, add(CFA_XSP16, literal(-9)))
          CFI (cfiCond63) V5 load(1, XDATA, add(CFA_XSP16, literal(-8)))
          CFI (cfiCond63) V6 load(1, XDATA, add(CFA_XSP16, literal(-7)))
          CFI (cfiCond63) R7 load(1, XDATA, add(CFA_XSP16, literal(-6)))
          CFI (cfiCond63) ?RET_LOW load(1, XDATA, add(CFA_XSP16, literal(-5)))
          CFI (cfiCond63) ?RET_HIGH load(1, XDATA, add(CFA_XSP16, literal(-4)))
          CFI (cfiCond63) ?BRET_EXT load(1, XDATA, add(CFA_XSP16, literal(-3)))
          CFI (cfiCond63) DPL0 load(1, XDATA, add(CFA_XSP16, literal(-2)))
          CFI (cfiCond63) DPH0 load(1, XDATA, add(CFA_XSP16, literal(-1)))
          CFI (cfiCond63) CFA_SP SP+-6
          CFI (cfiCond63) CFA_XSP16 add(XSP16, 19)
          CFI Block cfiCond64 Using cfiCommon0
          CFI (cfiCond64) Function gp_SecurityOperationProxy
          CFI (cfiCond64) Conditional ??CrossCallReturnLabel_95, ??CrossCallReturnLabel_87, ??CrossCallReturnLabel_6
          CFI (cfiCond64) R6 load(1, XDATA, add(CFA_XSP16, literal(-16)))
          CFI (cfiCond64) VB load(1, XDATA, add(CFA_XSP16, literal(-15)))
          CFI (cfiCond64) V0 load(1, XDATA, add(CFA_XSP16, literal(-14)))
          CFI (cfiCond64) V1 load(1, XDATA, add(CFA_XSP16, literal(-13)))
          CFI (cfiCond64) V2 load(1, XDATA, add(CFA_XSP16, literal(-12)))
          CFI (cfiCond64) V3 load(1, XDATA, add(CFA_XSP16, literal(-11)))
          CFI (cfiCond64) V4 load(1, XDATA, add(CFA_XSP16, literal(-10)))
          CFI (cfiCond64) V5 load(1, XDATA, add(CFA_XSP16, literal(-9)))
          CFI (cfiCond64) V6 load(1, XDATA, add(CFA_XSP16, literal(-8)))
          CFI (cfiCond64) V7 load(1, XDATA, add(CFA_XSP16, literal(-7)))
          CFI (cfiCond64) R7 load(1, XDATA, add(CFA_XSP16, literal(-6)))
          CFI (cfiCond64) ?RET_LOW load(1, XDATA, add(CFA_XSP16, literal(-5)))
          CFI (cfiCond64) ?RET_HIGH load(1, XDATA, add(CFA_XSP16, literal(-4)))
          CFI (cfiCond64) ?BRET_EXT load(1, XDATA, add(CFA_XSP16, literal(-3)))
          CFI (cfiCond64) DPL0 load(1, XDATA, add(CFA_XSP16, literal(-2)))
          CFI (cfiCond64) DPH0 load(1, XDATA, add(CFA_XSP16, literal(-1)))
          CFI (cfiCond64) CFA_SP SP+-6
          CFI (cfiCond64) CFA_XSP16 add(XSP16, 94)
          CFI Block cfiPicker65 Using cfiCommon1
          CFI (cfiPicker65) NoFunction
          CFI (cfiPicker65) Picker
        MOVX      @DPTR,A
        MOV       DPL,?XSP + 0
        MOV       DPH,?XSP + 1
        MOVX      A,@DPTR
        RET
          CFI EndBlock cfiCond55
          CFI EndBlock cfiCond56
          CFI EndBlock cfiCond57
          CFI EndBlock cfiCond58
          CFI EndBlock cfiCond59
          CFI EndBlock cfiCond60
          CFI EndBlock cfiCond61
          CFI EndBlock cfiCond62
          CFI EndBlock cfiCond63
          CFI EndBlock cfiCond64
          CFI EndBlock cfiPicker65

        RSEG BANKED_CODE:HUGECODE:NOROOT(0)
?Subroutine5:
          CFI Block cfiCond66 Using cfiCommon0
          CFI Function zclGp_DataIndParse
          CFI Conditional ??CrossCallReturnLabel_0
          CFI R6 load(1, XDATA, add(CFA_XSP16, literal(-15)))
          CFI VB load(1, XDATA, add(CFA_XSP16, literal(-14)))
          CFI V0 load(1, XDATA, add(CFA_XSP16, literal(-13)))
          CFI V1 load(1, XDATA, add(CFA_XSP16, literal(-12)))
          CFI V2 load(1, XDATA, add(CFA_XSP16, literal(-11)))
          CFI V3 load(1, XDATA, add(CFA_XSP16, literal(-10)))
          CFI V4 load(1, XDATA, add(CFA_XSP16, literal(-9)))
          CFI V5 load(1, XDATA, add(CFA_XSP16, literal(-8)))
          CFI V6 load(1, XDATA, add(CFA_XSP16, literal(-7)))
          CFI R7 load(1, XDATA, add(CFA_XSP16, literal(-6)))
          CFI ?RET_LOW load(1, XDATA, add(CFA_XSP16, literal(-5)))
          CFI ?RET_HIGH load(1, XDATA, add(CFA_XSP16, literal(-4)))
          CFI ?BRET_EXT load(1, XDATA, add(CFA_XSP16, literal(-3)))
          CFI DPL0 load(1, XDATA, add(CFA_XSP16, literal(-2)))
          CFI DPH0 load(1, XDATA, add(CFA_XSP16, literal(-1)))
          CFI CFA_SP SP+-2
          CFI CFA_XSP16 add(XSP16, 86)
          CFI Block cfiCond67 Using cfiCommon0
          CFI (cfiCond67) Function zclGp_DataIndParse
          CFI (cfiCond67) Conditional ??CrossCallReturnLabel_1
          CFI (cfiCond67) R6 load(1, XDATA, add(CFA_XSP16, literal(-15)))
          CFI (cfiCond67) VB load(1, XDATA, add(CFA_XSP16, literal(-14)))
          CFI (cfiCond67) V0 load(1, XDATA, add(CFA_XSP16, literal(-13)))
          CFI (cfiCond67) V1 load(1, XDATA, add(CFA_XSP16, literal(-12)))
          CFI (cfiCond67) V2 load(1, XDATA, add(CFA_XSP16, literal(-11)))
          CFI (cfiCond67) V3 load(1, XDATA, add(CFA_XSP16, literal(-10)))
          CFI (cfiCond67) V4 load(1, XDATA, add(CFA_XSP16, literal(-9)))
          CFI (cfiCond67) V5 load(1, XDATA, add(CFA_XSP16, literal(-8)))
          CFI (cfiCond67) V6 load(1, XDATA, add(CFA_XSP16, literal(-7)))
          CFI (cfiCond67) R7 load(1, XDATA, add(CFA_XSP16, literal(-6)))
          CFI (cfiCond67) ?RET_LOW load(1, XDATA, add(CFA_XSP16, literal(-5)))
          CFI (cfiCond67) ?RET_HIGH load(1, XDATA, add(CFA_XSP16, literal(-4)))
          CFI (cfiCond67) ?BRET_EXT load(1, XDATA, add(CFA_XSP16, literal(-3)))
          CFI (cfiCond67) DPL0 load(1, XDATA, add(CFA_XSP16, literal(-2)))
          CFI (cfiCond67) DPH0 load(1, XDATA, add(CFA_XSP16, literal(-1)))
          CFI (cfiCond67) CFA_SP SP+-2
          CFI (cfiCond67) CFA_XSP16 add(XSP16, 86)
          CFI Block cfiCond68 Using cfiCommon0
          CFI (cfiCond68) Function zclGp_DataIndParse
          CFI (cfiCond68) Conditional ??CrossCallReturnLabel_2
          CFI (cfiCond68) R6 load(1, XDATA, add(CFA_XSP16, literal(-15)))
          CFI (cfiCond68) VB load(1, XDATA, add(CFA_XSP16, literal(-14)))
          CFI (cfiCond68) V0 load(1, XDATA, add(CFA_XSP16, literal(-13)))
          CFI (cfiCond68) V1 load(1, XDATA, add(CFA_XSP16, literal(-12)))
          CFI (cfiCond68) V2 load(1, XDATA, add(CFA_XSP16, literal(-11)))
          CFI (cfiCond68) V3 load(1, XDATA, add(CFA_XSP16, literal(-10)))
          CFI (cfiCond68) V4 load(1, XDATA, add(CFA_XSP16, literal(-9)))
          CFI (cfiCond68) V5 load(1, XDATA, add(CFA_XSP16, literal(-8)))
          CFI (cfiCond68) V6 load(1, XDATA, add(CFA_XSP16, literal(-7)))
          CFI (cfiCond68) R7 load(1, XDATA, add(CFA_XSP16, literal(-6)))
          CFI (cfiCond68) ?RET_LOW load(1, XDATA, add(CFA_XSP16, literal(-5)))
          CFI (cfiCond68) ?RET_HIGH load(1, XDATA, add(CFA_XSP16, literal(-4)))
          CFI (cfiCond68) ?BRET_EXT load(1, XDATA, add(CFA_XSP16, literal(-3)))
          CFI (cfiCond68) DPL0 load(1, XDATA, add(CFA_XSP16, literal(-2)))
          CFI (cfiCond68) DPH0 load(1, XDATA, add(CFA_XSP16, literal(-1)))
          CFI (cfiCond68) CFA_SP SP+-2
          CFI (cfiCond68) CFA_XSP16 add(XSP16, 86)
          CFI Block cfiPicker69 Using cfiCommon1
          CFI (cfiPicker69) NoFunction
          CFI (cfiPicker69) Picker
        LCALL     ?Subroutine50 & 0xFFFF
??CrossCallReturnLabel_85:
        XCH       A,R0
        RET
          CFI EndBlock cfiCond66
          CFI EndBlock cfiCond67
          CFI EndBlock cfiCond68
          CFI EndBlock cfiPicker69
//  577 
//  578 /*********************************************************************
//  579  * @fn      zclGp_GpPairingCommandCB
//  580  *
//  581  * @brief   Callback from the ZCL GreenPower Cluster Library when
//  582  *          it received an Gp Notification Command for this application.
//  583  *
//  584  * @param   pCmd - command payload
//  585  *
//  586  * @return  none
//  587  */

        RSEG BANKED_CODE:HUGECODE:NOROOT(0)
//  588 static void zclGp_GpPairingCommandCB( zclGpPairing_t *pCmd )
zclGp_GpPairingCommandCB:
          CFI Block cfiBlock70 Using cfiCommon0
          CFI Function zclGp_GpPairingCommandCB
        CODE
//  589 {
        FUNCALL zclGp_GpPairingCommandCB, gp_ZclPairingParse
        LOCFRAME ISTACK, 2, STACK
        LOCFRAME PSTACK, 0, STACK
        LOCFRAME XSTACK, 53, STACK
        LOCFRAME IOVERLAY, 0, STATIC
        LOCFRAME DOVERLAY, 0, STATIC
        ARGFRAME ISTACK, 2, STACK
        ARGFRAME PSTACK, 0, STACK
        ARGFRAME XSTACK, 53, STACK
        ARGFRAME IOVERLAY, 0, STATIC
        ARGFRAME DOVERLAY, 0, STATIC
        FUNCALL zclGp_GpPairingCommandCB, gp_PairingUpdateProxyTlb
        LOCFRAME ISTACK, 2, STACK
        LOCFRAME PSTACK, 0, STACK
        LOCFRAME XSTACK, 53, STACK
        LOCFRAME IOVERLAY, 0, STATIC
        LOCFRAME DOVERLAY, 0, STATIC
        ARGFRAME ISTACK, 2, STACK
        ARGFRAME PSTACK, 0, STACK
        ARGFRAME XSTACK, 53, STACK
        ARGFRAME IOVERLAY, 0, STATIC
        ARGFRAME DOVERLAY, 0, STATIC
        FUNCALL zclGp_GpPairingCommandCB, gp_stopCommissioningMode
        LOCFRAME ISTACK, 2, STACK
        LOCFRAME PSTACK, 0, STACK
        LOCFRAME XSTACK, 53, STACK
        LOCFRAME IOVERLAY, 0, STATIC
        LOCFRAME DOVERLAY, 0, STATIC
        ARGFRAME ISTACK, 2, STACK
        ARGFRAME PSTACK, 0, STACK
        ARGFRAME XSTACK, 53, STACK
        ARGFRAME IOVERLAY, 0, STATIC
        ARGFRAME DOVERLAY, 0, STATIC
        PUSH      DPL
          CFI DPL0 Frame(CFA_SP, 4)
          CFI CFA_SP SP+-4
        PUSH      DPH
          CFI DPH0 Frame(CFA_SP, 5)
          CFI CFA_SP SP+-5
        ; Saved register size: 2
        ; Auto size: 53
        MOV       A,#-0x35
        LCALL     ?ALLOC_XSTACK8
          CFI CFA_XSP16 add(XSP16, 53)
//  590   gpPairingCmd_t pairingPayload = {0x00};
        MOV       DPTR,#`?<Constant {0, 0, {0, 0, 0, 0, 0, 0, 0, 0}, 0,`
        MOV       R4,?XSP + 0
        MOV       R5,?XSP + 1
        MOV       A,#0x35
        LCALL     ?MOVE_LONG8_XDATA_XDATA
//  591 
//  592   gp_ZclPairingParse( pCmd, &pairingPayload );
        ; Setup parameters for call to function gp_ZclPairingParse
        MOV       R4,?XSP + 0
        MOV       R5,?XSP + 1
        LCALL     `??gp_ZclPairingParse::?relay`; Banked call to: gp_ZclPairingParse
//  593   gp_PairingUpdateProxyTlb( &pairingPayload );
        ; Setup parameters for call to function gp_PairingUpdateProxyTlb
        MOV       R2,?XSP + 0
        MOV       R3,?XSP + 1
        LCALL     `??gp_PairingUpdateProxyTlb::?relay`; Banked call to: gp_PairingUpdateProxyTlb
//  594   
//  595   
//  596   if(gp_commissioningOptions & GP_COMM_OPT_EXIT_ON_PAIRING_SUCCESS_MASK)
        MOV       DPTR,#gp_commissioningOptions
        MOVX      A,@DPTR
        MOV       C,0xE0 /* A   */.2
        JNC       ??zclGp_GpPairingCommandCB_0
//  597   {
//  598     gp_stopCommissioningMode();
        ; Setup parameters for call to function gp_stopCommissioningMode
        LCALL     `??gp_stopCommissioningMode::?relay`; Banked call to: gp_stopCommissioningMode
//  599   }
//  600 }
??zclGp_GpPairingCommandCB_0:
        MOV       A,#0x35
        LJMP      ?Subroutine0 & 0xFFFF
          CFI EndBlock cfiBlock70
//  601 
//  602 /*********************************************************************
//  603  * @fn      zclGp_GpProxyTableReqCB
//  604  *
//  605  * @brief   Callback from the ZCL GreenPower Cluster Library when
//  606  *          it received a Gp proxy table req.
//  607  *
//  608  * @param   pCmd - command payload
//  609  *
//  610  * @return  none
//  611  */

        RSEG BANKED_CODE:HUGECODE:NOROOT(0)
//  612 static void zclGp_GpProxyTableReqCB( zclGpProxyTableRequest_t *pCmd )
zclGp_GpProxyTableReqCB:
          CFI Block cfiBlock71 Using cfiCommon0
          CFI Function zclGp_GpProxyTableReqCB
        CODE
//  613 {
        FUNCALL zclGp_GpProxyTableReqCB, gp_ZclProxyTableReqParse
        LOCFRAME ISTACK, 0, STACK
        LOCFRAME PSTACK, 0, STACK
        LOCFRAME XSTACK, 181, STACK
        LOCFRAME IOVERLAY, 0, STATIC
        LOCFRAME DOVERLAY, 0, STATIC
        ARGFRAME ISTACK, 0, STACK
        ARGFRAME PSTACK, 0, STACK
        ARGFRAME XSTACK, 181, STACK
        ARGFRAME IOVERLAY, 0, STATIC
        ARGFRAME DOVERLAY, 0, STATIC
        FUNCALL zclGp_GpProxyTableReqCB, gp_getProxyTableByIndex
        LOCFRAME ISTACK, 0, STACK
        LOCFRAME PSTACK, 0, STACK
        LOCFRAME XSTACK, 181, STACK
        LOCFRAME IOVERLAY, 0, STATIC
        LOCFRAME DOVERLAY, 0, STATIC
        ARGFRAME ISTACK, 0, STACK
        ARGFRAME PSTACK, 0, STACK
        ARGFRAME XSTACK, 181, STACK
        ARGFRAME IOVERLAY, 0, STATIC
        ARGFRAME DOVERLAY, 0, STATIC
        FUNCALL zclGp_GpProxyTableReqCB, zclGp_SendGpProxyTableResponse
        LOCFRAME ISTACK, 0, STACK
        LOCFRAME PSTACK, 0, STACK
        LOCFRAME XSTACK, 181, STACK
        LOCFRAME IOVERLAY, 0, STATIC
        LOCFRAME DOVERLAY, 0, STATIC
        ARGFRAME ISTACK, 0, STACK
        ARGFRAME PSTACK, 0, STACK
        ARGFRAME XSTACK, 181, STACK
        ARGFRAME IOVERLAY, 0, STATIC
        ARGFRAME DOVERLAY, 0, STATIC
        FUNCALL zclGp_GpProxyTableReqCB, pt_ZclReadGetProxyEntry
        LOCFRAME ISTACK, 0, STACK
        LOCFRAME PSTACK, 0, STACK
        LOCFRAME XSTACK, 183, STACK
        LOCFRAME IOVERLAY, 0, STATIC
        LOCFRAME DOVERLAY, 0, STATIC
        ARGFRAME ISTACK, 0, STACK
        ARGFRAME PSTACK, 0, STACK
        ARGFRAME XSTACK, 183, STACK
        ARGFRAME IOVERLAY, 0, STATIC
        ARGFRAME DOVERLAY, 0, STATIC
        FUNCALL zclGp_GpProxyTableReqCB, osal_mem_alloc
        LOCFRAME ISTACK, 0, STACK
        LOCFRAME PSTACK, 0, STACK
        LOCFRAME XSTACK, 181, STACK
        LOCFRAME IOVERLAY, 0, STATIC
        LOCFRAME DOVERLAY, 0, STATIC
        ARGFRAME ISTACK, 0, STACK
        ARGFRAME PSTACK, 0, STACK
        ARGFRAME XSTACK, 181, STACK
        ARGFRAME IOVERLAY, 0, STATIC
        ARGFRAME DOVERLAY, 0, STATIC
        FUNCALL zclGp_GpProxyTableReqCB, pt_ZclReadGetProxyEntry
        LOCFRAME ISTACK, 0, STACK
        LOCFRAME PSTACK, 0, STACK
        LOCFRAME XSTACK, 183, STACK
        LOCFRAME IOVERLAY, 0, STATIC
        LOCFRAME DOVERLAY, 0, STATIC
        ARGFRAME ISTACK, 0, STACK
        ARGFRAME PSTACK, 0, STACK
        ARGFRAME XSTACK, 183, STACK
        ARGFRAME IOVERLAY, 0, STATIC
        ARGFRAME DOVERLAY, 0, STATIC
        FUNCALL zclGp_GpProxyTableReqCB, osal_memcpy
        LOCFRAME ISTACK, 0, STACK
        LOCFRAME PSTACK, 0, STACK
        LOCFRAME XSTACK, 184, STACK
        LOCFRAME IOVERLAY, 0, STATIC
        LOCFRAME DOVERLAY, 0, STATIC
        ARGFRAME ISTACK, 0, STACK
        ARGFRAME PSTACK, 0, STACK
        ARGFRAME XSTACK, 184, STACK
        ARGFRAME IOVERLAY, 0, STATIC
        ARGFRAME DOVERLAY, 0, STATIC
        FUNCALL zclGp_GpProxyTableReqCB, gp_getProxyTableByGpId
        LOCFRAME ISTACK, 0, STACK
        LOCFRAME PSTACK, 0, STACK
        LOCFRAME XSTACK, 183, STACK
        LOCFRAME IOVERLAY, 0, STATIC
        LOCFRAME DOVERLAY, 0, STATIC
        ARGFRAME ISTACK, 0, STACK
        ARGFRAME PSTACK, 0, STACK
        ARGFRAME XSTACK, 183, STACK
        ARGFRAME IOVERLAY, 0, STATIC
        ARGFRAME DOVERLAY, 0, STATIC
        FUNCALL zclGp_GpProxyTableReqCB, pt_ZclReadGetProxyEntry
        LOCFRAME ISTACK, 0, STACK
        LOCFRAME PSTACK, 0, STACK
        LOCFRAME XSTACK, 183, STACK
        LOCFRAME IOVERLAY, 0, STATIC
        LOCFRAME DOVERLAY, 0, STATIC
        ARGFRAME ISTACK, 0, STACK
        ARGFRAME PSTACK, 0, STACK
        ARGFRAME XSTACK, 183, STACK
        ARGFRAME IOVERLAY, 0, STATIC
        ARGFRAME DOVERLAY, 0, STATIC
        FUNCALL zclGp_GpProxyTableReqCB, zclGp_SendGpProxyTableResponse
        LOCFRAME ISTACK, 0, STACK
        LOCFRAME PSTACK, 0, STACK
        LOCFRAME XSTACK, 181, STACK
        LOCFRAME IOVERLAY, 0, STATIC
        LOCFRAME DOVERLAY, 0, STATIC
        ARGFRAME ISTACK, 0, STACK
        ARGFRAME PSTACK, 0, STACK
        ARGFRAME XSTACK, 181, STACK
        ARGFRAME IOVERLAY, 0, STATIC
        ARGFRAME DOVERLAY, 0, STATIC
        FUNCALL zclGp_GpProxyTableReqCB, osal_mem_free
        LOCFRAME ISTACK, 0, STACK
        LOCFRAME PSTACK, 0, STACK
        LOCFRAME XSTACK, 181, STACK
        LOCFRAME IOVERLAY, 0, STATIC
        LOCFRAME DOVERLAY, 0, STATIC
        ARGFRAME ISTACK, 0, STACK
        ARGFRAME PSTACK, 0, STACK
        ARGFRAME XSTACK, 181, STACK
        ARGFRAME IOVERLAY, 0, STATIC
        ARGFRAME DOVERLAY, 0, STATIC
        FUNCALL zclGp_GpProxyTableReqCB, osal_mem_alloc
        LOCFRAME ISTACK, 0, STACK
        LOCFRAME PSTACK, 0, STACK
        LOCFRAME XSTACK, 181, STACK
        LOCFRAME IOVERLAY, 0, STATIC
        LOCFRAME DOVERLAY, 0, STATIC
        ARGFRAME ISTACK, 0, STACK
        ARGFRAME PSTACK, 0, STACK
        ARGFRAME XSTACK, 181, STACK
        ARGFRAME IOVERLAY, 0, STATIC
        ARGFRAME DOVERLAY, 0, STATIC
        FUNCALL zclGp_GpProxyTableReqCB, pt_ZclReadGetProxyEntry
        LOCFRAME ISTACK, 0, STACK
        LOCFRAME PSTACK, 0, STACK
        LOCFRAME XSTACK, 183, STACK
        LOCFRAME IOVERLAY, 0, STATIC
        LOCFRAME DOVERLAY, 0, STATIC
        ARGFRAME ISTACK, 0, STACK
        ARGFRAME PSTACK, 0, STACK
        ARGFRAME XSTACK, 183, STACK
        ARGFRAME IOVERLAY, 0, STATIC
        ARGFRAME DOVERLAY, 0, STATIC
        REQUIRE ?V0
        REQUIRE ?V1
        REQUIRE ?V2
        REQUIRE ?V3
        REQUIRE ?V4
        REQUIRE ?V5
        REQUIRE ?V6
        MOV       A,#-0xf
        LCALL     ?BANKED_ENTER_XDATA
          CFI DPH0 load(1, XDATA, add(CFA_XSP16, literal(-1)))
          CFI DPL0 load(1, XDATA, add(CFA_XSP16, literal(-2)))
          CFI ?BRET_EXT load(1, XDATA, add(CFA_XSP16, literal(-3)))
          CFI ?RET_HIGH load(1, XDATA, add(CFA_XSP16, literal(-4)))
          CFI ?RET_LOW load(1, XDATA, add(CFA_XSP16, literal(-5)))
          CFI R7 load(1, XDATA, add(CFA_XSP16, literal(-6)))
          CFI V6 load(1, XDATA, add(CFA_XSP16, literal(-7)))
          CFI V5 load(1, XDATA, add(CFA_XSP16, literal(-8)))
          CFI V4 load(1, XDATA, add(CFA_XSP16, literal(-9)))
          CFI V3 load(1, XDATA, add(CFA_XSP16, literal(-10)))
          CFI V2 load(1, XDATA, add(CFA_XSP16, literal(-11)))
          CFI V1 load(1, XDATA, add(CFA_XSP16, literal(-12)))
          CFI V0 load(1, XDATA, add(CFA_XSP16, literal(-13)))
          CFI VB load(1, XDATA, add(CFA_XSP16, literal(-14)))
          CFI R6 load(1, XDATA, add(CFA_XSP16, literal(-15)))
          CFI CFA_SP SP+0
          CFI CFA_XSP16 add(XSP16, 15)
        ; Saved register size: 15
        ; Auto size: 166
        MOV       A,#0x5a
        LCALL     ?ALLOC_XSTACK8
          CFI CFA_XSP16 add(XSP16, 181)
        MOV       A,#0xa
        LCALL     ?XSTACK_DISP0_8
        LCALL     ?Subroutine17 & 0xFFFF
//  614   uint8 i;
//  615   uint8 emptyEntry = 0;
??CrossCallReturnLabel_24:
        MOV       A,#0x9
        LCALL     ?XSTACK_DISP0_8
        CLR       A
        LCALL     ?Subroutine10 & 0xFFFF
//  616   uint8 entryLen = 0;
??CrossCallReturnLabel_13:
        MOVX      @DPTR,A
//  617   uint8 maxEntryLen = 0;
        MOV       R7,#0x0
//  618   uint8* buf = NULL;
        MOV       ?V0,A
        MOV       ?V1,A
//  619   uint8 currEntry[PROXY_TBL_ENTRY_LEN] = PROXY_BASIC_TBL_EMPTY_ENTRY;
        MOV       DPTR,#`?<Constant {255, 255, 255, 255, 255, 255, 255,_1`
        MOV       A,#0x65
        LCALL     ?XSTACK_DISP102_8
        MOV       A,#0x41
        LCALL     ?MOVE_LONG8_XDATA_XDATA
//  620   
//  621   zclGpProxyTableResponse_t proxyTblRsp = {0};
        MOV       DPTR,#`?<Constant {0}>`
        INC       A
        LCALL     ?XSTACK_DISP102_8
        MOV       A,#0x6
        LCALL     ?MOVE_LONG8_XDATA_XDATA
//  622   gpProxyTableReqCmd_t proxyTblReqPayload = {0};
        MOV       DPTR,#`?<Constant {0, 0, {0, 0, 0, 0, 0, 0, 0, 0}, 0,_1`
        MOV       A,#0x15
        LCALL     ?XSTACK_DISP102_8
        MOV       A,#0xf
        LCALL     ?MOVE_LONG8_XDATA_XDATA
//  623   
//  624   proxyTblRsp.proxyTableEntry = NULL;
        MOV       A,#0x5
        LCALL     ?XSTACK_DISP0_8
        CLR       A
        MOVX      @DPTR,A
        INC       DPTR
        MOVX      @DPTR,A
//  625   
//  626 
//  627   gp_ZclProxyTableReqParse( pCmd, &proxyTblReqPayload );
        ; Setup parameters for call to function gp_ZclProxyTableReqParse
        MOV       A,#0x15
        LCALL     ?XSTACK_DISP102_8
        MOV       A,#0xa
        LCALL     ?XSTACK_DISP0_8
        LCALL     ??Subroutine68_0 & 0xFFFF
??CrossCallReturnLabel_159:
        LCALL     `??gp_ZclProxyTableReqParse::?relay`; Banked call to: gp_ZclProxyTableReqParse
//  628   
//  629   // To get total entries for "Total number of non-empty Proxy Table entries" field
//  630   for ( i = 0; i <= GPP_MAX_PROXY_TABLE_ENTRIES; i++ )
        MOV       R6,#0x0
//  631   {
//  632     if ( gp_getProxyTableByIndex( ( ZCD_NV_PROXY_TABLE_START + i ), currEntry ) == SUCCESS )
??zclGp_GpProxyTableReqCB_0:
        ; Setup parameters for call to function gp_getProxyTableByIndex
        MOV       A,#0x65
        LCALL     ?XSTACK_DISP102_8
        LCALL     ?Subroutine48 & 0xFFFF
??CrossCallReturnLabel_118:
        LCALL     `??gp_getProxyTableByIndex::?relay`; Banked call to: gp_getProxyTableByIndex
        MOV       A,R1
        JNZ       ??zclGp_GpProxyTableReqCB_1
//  633     {
//  634       proxyTblRsp.tableEntriesTotal += 1;
        MOV       A,#0x2
        LCALL     ?XSTACK_DISP0_8
        MOVX      A,@DPTR
        INC       A
        MOVX      @DPTR,A
//  635     }
//  636   }
??zclGp_GpProxyTableReqCB_1:
        INC       R6
        MOV       A,R6
        CLR       C
        SUBB      A,#0x6
        JC        ??zclGp_GpProxyTableReqCB_0
//  637   
//  638   if ( proxyTblRsp.tableEntriesTotal == 0x00 )
        MOV       A,#0x2
        LCALL     ?XSTACK_DISP0_8
        MOVX      A,@DPTR
        JNZ       ??zclGp_GpProxyTableReqCB_2
//  639   {
//  640     proxyTblRsp.status = SUCCESS;
        MOV       A,#0x1
        LCALL     ?XSTACK_DISP0_8
        CLR       A
        MOVX      @DPTR,A
//  641     proxyTblRsp.startIndex = 0x00;
        MOV       A,#0x3
        LCALL     ?XSTACK_DISP0_8
        CLR       A
        MOVX      @DPTR,A
//  642     proxyTblRsp.entriesCount = 0x00;
        MOV       A,#0x4
        LCALL     ?XSTACK_DISP0_8
        CLR       A
        LCALL     ?Subroutine19 & 0xFFFF
//  643     // Send response and exit
//  644     zclGp_SendGpProxyTableResponse( pCmd->srcAddr, &proxyTblRsp, zcl_InSeqNum );
??CrossCallReturnLabel_31:
        LCALL     ?XSTACK_DISP102_8
        MOV       A,#0xa
        LCALL     ?XSTACK_DISP0_8
        LCALL     ?Subroutine21 & 0xFFFF
??CrossCallReturnLabel_171:
        LCALL     `??zclGp_SendGpProxyTableResponse::?relay`; Banked call to: zclGp_SendGpProxyTableResponse
//  645     return;
        LJMP      ??zclGp_GpProxyTableReqCB_3 & 0xFFFF
//  646   }
//  647   
//  648   // for Request Table Entries by Index
//  649   if ( GP_IS_REQ_TPY_INDEX ( proxyTblReqPayload.options ) )
??zclGp_GpProxyTableReqCB_2:
        MOV       A,#0x15
        LCALL     ?XSTACK_DISP0_8
        LCALL     ?Subroutine36 & 0xFFFF
??CrossCallReturnLabel_55:
        XRL       A,#0x1
        JZ        $+5
        LJMP      ??zclGp_GpProxyTableReqCB_4 & 0xFFFF
//  650   {
//  651     
//  652     for ( i = proxyTblReqPayload.index; i <= GPP_MAX_PROXY_TABLE_ENTRIES; i++ )
        MOV       A,#0x23
        LCALL     ?XSTACK_DISP0_8
        MOVX      A,@DPTR
        MOV       R6,A
        SJMP      ??zclGp_GpProxyTableReqCB_5
??zclGp_GpProxyTableReqCB_6:
        INC       R6
??zclGp_GpProxyTableReqCB_5:
        MOV       A,R6
        CLR       C
        SUBB      A,#0x6
        JNC       ??zclGp_GpProxyTableReqCB_7
//  653     {    
//  654       maxEntryLen = entryLen;    // Save the last iteration Lenght
        LCALL     ?Subroutine27 & 0xFFFF
//  655       
//  656       // Get the length of the payload
//  657       if ( pt_ZclReadGetProxyEntry ( ( ZCD_NV_PROXY_TABLE_START + i ), NULL, &entryLen ) != SUCCESS )
??CrossCallReturnLabel_37:
        LCALL     ?PUSH_XSTACK_I_TWO
          CFI CFA_XSP16 add(XSP16, 183)
        MOV       R4,#0x0
        MOV       R5,#0x0
        LCALL     ?Subroutine48 & 0xFFFF
??CrossCallReturnLabel_119:
        LCALL     `??pt_ZclReadGetProxyEntry::?relay`; Banked call to: pt_ZclReadGetProxyEntry
        MOV       A,#0x2
        LCALL     ?DEALLOC_XSTACK8
          CFI CFA_XSP16 add(XSP16, 181)
        MOV       A,R1
        JNZ       ??zclGp_GpProxyTableReqCB_7
//  658       {
//  659         break;
//  660       }
//  661       
//  662       if ( entryLen >= 75 )   // max payload for entries
        MOV       DPL,?XSP + 0
        MOV       DPH,?XSP + 1
        MOVX      A,@DPTR
        CLR       C
        SUBB      A,#0x4b
        JC        ??zclGp_GpProxyTableReqCB_6
//  663       {
//  664         entryLen = maxEntryLen;   // The last valid lenght is the MAX for this packet
        MOV       A,R7
        MOVX      @DPTR,A
//  665         break;
//  666       }
//  667     }
//  668 
//  669     if ( entryLen )
??zclGp_GpProxyTableReqCB_7:
        MOV       DPL,?XSP + 0
        MOV       DPH,?XSP + 1
        MOVX      A,@DPTR
        JZ        ??zclGp_GpProxyTableReqCB_4
//  670     {
//  671       buf = zcl_mem_alloc( entryLen );
        ; Setup parameters for call to function osal_mem_alloc
        MOV       R2,A
        MOV       R3,#0x0
        LCALL     `??osal_mem_alloc::?relay`; Banked call to: osal_mem_alloc
        MOV       ?V0,R2
        MOV       ?V1,R3
//  672       if ( buf != NULL )
        MOV       A,R2
        ORL       A,?V1
        JZ        ??zclGp_GpProxyTableReqCB_4
//  673       {
//  674         // Load the buffer - serially
//  675         uint8 *pBuf = buf;
//  676       
//  677         entryLen = 0;
        MOV       DPL,?XSP + 0
        MOV       DPH,?XSP + 1
        CLR       A
        MOVX      @DPTR,A
//  678         proxyTblRsp.entriesCount = 0;
        MOV       A,#0x4
        LCALL     ?XSTACK_DISP0_8
        CLR       A
        MOVX      @DPTR,A
//  679         for ( i = proxyTblReqPayload.index; i <= GPP_MAX_PROXY_TABLE_ENTRIES ; i++ )
        MOV       A,#0x23
        LCALL     ?XSTACK_DISP0_8
        MOVX      A,@DPTR
        MOV       R6,A
        SJMP      ??zclGp_GpProxyTableReqCB_8
??zclGp_GpProxyTableReqCB_9:
        INC       R6
??zclGp_GpProxyTableReqCB_8:
        MOV       A,R6
        CLR       C
        SUBB      A,#0x6
        JNC       ??zclGp_GpProxyTableReqCB_4
//  680         {  
//  681           if( pt_ZclReadGetProxyEntry ( ( ZCD_NV_PROXY_TABLE_START + i ), pBuf, &entryLen ) != SUCCESS )
        ; Setup parameters for call to function pt_ZclReadGetProxyEntry
        MOV       R0,?XSP + 0
        MOV       R1,?XSP + 1
        MOV       ?V2,R0
        MOV       ?V3,R1
        MOV       R0,#?V2
        LCALL     ?PUSH_XSTACK_I_TWO
          CFI CFA_XSP16 add(XSP16, 183)
        MOV       R4,?V0
        MOV       R5,?V1
        LCALL     ?Subroutine48 & 0xFFFF
??CrossCallReturnLabel_120:
        LCALL     `??pt_ZclReadGetProxyEntry::?relay`; Banked call to: pt_ZclReadGetProxyEntry
        MOV       A,#0x2
        LCALL     ?DEALLOC_XSTACK8
          CFI CFA_XSP16 add(XSP16, 181)
        MOV       A,R1
        JNZ       ??zclGp_GpProxyTableReqCB_4
//  682           {
//  683             break;
//  684           }
//  685           
//  686           proxyTblRsp.entriesCount += 1;
        MOV       A,#0x4
        LCALL     ?XSTACK_DISP0_8
        MOVX      A,@DPTR
        INC       A
        LCALL     ?Subroutine8 & 0xFFFF
//  687           if ( entryLen >= maxEntryLen )   // to see if we reched the MAX calculated payload
//  688           {
//  689             break;
//  690           }
//  691         }
//  692       }
//  693     }
//  694   }
??CrossCallReturnLabel_9:
        CLR       C
        SUBB      A,R7
        JC        ??zclGp_GpProxyTableReqCB_9
//  695   
//  696   // for Request Table Entries by GPD ID
//  697   if ( GP_IS_REQ_TYP_GPD ( proxyTblReqPayload.options ) )
??zclGp_GpProxyTableReqCB_4:
        MOV       A,#0x15
        LCALL     ?XSTACK_DISP0_8
        LCALL     ?Subroutine36 & 0xFFFF
??CrossCallReturnLabel_56:
        JZ        $+5
        LJMP      ??zclGp_GpProxyTableReqCB_10 & 0xFFFF
//  698   {
//  699     uint8 lookForEntry = 0;
//  700     gpd_ID_t gpd_ID;
//  701     uint16 NvProxyTableIndex;
//  702     uint8  ProxyTableEntryTemp[PROXY_TBL_ENTRY_LEN];
//  703     
//  704     if ( GP_IS_APPLICATION_ID_GPD( proxyTblReqPayload.options ) )
        MOVX      A,@DPTR
        ANL       A,#0x7
        MOV       R0,A
        JNZ       ??zclGp_GpProxyTableReqCB_11
//  705     {
//  706       gpd_ID.AppID = GP_OPT_APP_ID_GPD;
        MOV       A,#0xc
        LCALL     ?XSTACK_DISP0_8
        CLR       A
        MOVX      @DPTR,A
//  707       gpd_ID.GPDId.SrcID = proxyTblReqPayload.gpdId;
        MOV       A,#0x16
        LCALL     ?XSTACK_DISP0_8
        LCALL     ?XLOAD_R0123
        MOV       A,#0xd
        LCALL     ?XSTACK_DISP0_8
        LCALL     ?XSTORE_R0123
//  708       lookForEntry = 1;
//  709       proxyTblRsp.startIndex = 0xFF;
        SJMP      ??zclGp_GpProxyTableReqCB_12
//  710     }
//  711     else if ( GP_IS_APPLICATION_ID_IEEE( proxyTblReqPayload.options ) )
??zclGp_GpProxyTableReqCB_11:
        MOV       A,#0x2
        XRL       A,R0
        JZ        $+5
        LJMP      ??zclGp_GpProxyTableReqCB_10 & 0xFFFF
//  712     {
//  713       gpd_ID.AppID = GP_OPT_APP_ID_IEEE;
        MOV       A,#0xc
        LCALL     ?XSTACK_DISP0_8
        MOV       A,#0x2
        MOVX      @DPTR,A
//  714       osal_memcpy( gpd_ID.GPDId.GPDExtAddr, proxyTblReqPayload.gpdIEEE, Z_EXTADDR_LEN );
        ; Setup parameters for call to function osal_memcpy
        MOV       A,#0x1a
        LCALL     ?XSTACK_DISP0_8
        MOV       R1,DPL
        MOV       R2,DPH
        MOV       ?V4,R1
        MOV       ?V5,R2
        MOV       ?V6,#0x0
        MOV       R0,#?V4
        LCALL     ?PUSH_XSTACK_I_THREE
          CFI CFA_XSP16 add(XSP16, 184)
        MOV       R4,#0x8
        MOV       R5,#0x0
        MOV       A,#0x10
        LCALL     ?XSTACK_DISP0_8
        MOV       R2,DPL
        MOV       R3,DPH
        LCALL     `??osal_memcpy::?relay`; Banked call to: osal_memcpy
        MOV       A,#0x3
        LCALL     ?DEALLOC_XSTACK8
          CFI CFA_XSP16 add(XSP16, 181)
//  715       lookForEntry = 1;
//  716       proxyTblRsp.startIndex = 0xFF;
??zclGp_GpProxyTableReqCB_12:
        MOV       A,#0x3
        LCALL     ?XSTACK_DISP0_8
        MOV       A,#-0x1
        MOVX      @DPTR,A
//  717     }
//  718     
//  719     if ( lookForEntry )
//  720     {
//  721       if ( gp_getProxyTableByGpId(&gpd_ID, ProxyTableEntryTemp, &NvProxyTableIndex) == ZSuccess )
        ; Setup parameters for call to function gp_getProxyTableByGpId
        MOV       A,#0x7
        LCALL     ?XSTACK_DISP100_8
        MOV       ?V2,R0
        MOV       ?V3,R1
        MOV       R0,#?V2
        LCALL     ?PUSH_XSTACK_I_TWO
          CFI CFA_XSP16 add(XSP16, 183)
        MOV       A,#0x26
        LCALL     ?XSTACK_DISP102_8
        MOV       A,#0xe
        LCALL     ?XSTACK_DISP101_8
        LCALL     `??gp_getProxyTableByGpId::?relay`; Banked call to: gp_getProxyTableByGpId
        MOV       A,#0x2
        LCALL     ?DEALLOC_XSTACK8
          CFI CFA_XSP16 add(XSP16, 181)
        MOV       A,R1
        JNZ       ??zclGp_GpProxyTableReqCB_13
//  722       {    
//  723         maxEntryLen = entryLen;    // Save the last iteration Lenght
        LCALL     ?Subroutine27 & 0xFFFF
//  724         
//  725         // Get the length of the payload
//  726         if ( pt_ZclReadGetProxyEntry ( NvProxyTableIndex, NULL, &entryLen ) != ZSuccess )
??CrossCallReturnLabel_38:
        LCALL     ?PUSH_XSTACK_I_TWO
          CFI CFA_XSP16 add(XSP16, 183)
        MOV       R4,#0x0
        MOV       R5,#0x0
        MOV       A,#0x9
        LCALL     ?XSTACK_DISP0_8
        LCALL     ??Subroutine68_0 & 0xFFFF
??CrossCallReturnLabel_160:
        LCALL     `??pt_ZclReadGetProxyEntry::?relay`; Banked call to: pt_ZclReadGetProxyEntry
        MOV       A,#0x2
        LCALL     ?DEALLOC_XSTACK8
          CFI CFA_XSP16 add(XSP16, 181)
        MOV       A,R1
        MOV       DPL,?XSP + 0
        MOV       DPH,?XSP + 1
        JZ        ??zclGp_GpProxyTableReqCB_14
//  727         {
//  728           entryLen = 0;
        CLR       A
        MOVX      @DPTR,A
//  729         }
//  730       
//  731         if ( entryLen >= 75 )   // max payload for entries
//  732         {
//  733           entryLen = maxEntryLen;   // The last valid lenght is the MAX for this packet
//  734         }
//  735       }
//  736       else
//  737       {
//  738         proxyTblRsp.status = ZCL_STATUS_NOT_FOUND;
//  739       }
//  740       
//  741       if ( entryLen )
//  742       {
//  743         buf = zcl_mem_alloc( entryLen );
//  744         if ( buf != NULL )
//  745         {
//  746           // Load the buffer - serially
//  747           uint8 *pBuf = buf;
//  748         
//  749           entryLen = 0;
//  750           proxyTblRsp.entriesCount = 0;
//  751         
//  752           if ( pt_ZclReadGetProxyEntry ( NvProxyTableIndex, pBuf, &entryLen ) == SUCCESS )
//  753           {
//  754             proxyTblRsp.entriesCount = 1;
//  755           }
//  756         }
//  757       }
//  758     }
//  759   }
//  760   
//  761   // If the entry is empty then point the buffer to an empty string
//  762   if ( buf == NULL )
??zclGp_GpProxyTableReqCB_10:
        MOV       A,?V0
        ORL       A,?V1
        JNZ       ??zclGp_GpProxyTableReqCB_15
//  763   {
//  764     buf = &emptyEntry;
??zclGp_GpProxyTableReqCB_16:
        MOV       A,#0x9
        LCALL     ?XSTACK_DISP100_8
        MOV       ?V0,R0
        MOV       ?V1,R1
//  765   }
//  766 
//  767     
//  768   // Send response and exit
//  769   proxyTblRsp.startIndex = proxyTblReqPayload.index;
??zclGp_GpProxyTableReqCB_15:
        MOV       A,#0x23
        LCALL     ?XSTACK_DISP0_8
        MOVX      A,@DPTR
        PUSH      A
          CFI CFA_SP SP+-1
        MOV       A,#0x3
        LCALL     ?XSTACK_DISP0_8
        POP       A
          CFI CFA_SP SP+0
        MOVX      @DPTR,A
//  770   proxyTblRsp.proxyTableEntry = buf;
        MOV       A,#0x5
        LCALL     ?XSTACK_DISP0_8
        MOV       A,?V0
        MOVX      @DPTR,A
        INC       DPTR
        MOV       A,?V1
        LCALL     ?Subroutine19 & 0xFFFF
//  771   zclGp_SendGpProxyTableResponse( pCmd->srcAddr, &proxyTblRsp, zcl_InSeqNum );
??CrossCallReturnLabel_32:
        LCALL     ?XSTACK_DISP102_8
        MOV       A,#0xa
        LCALL     ?XSTACK_DISP0_8
        LCALL     ?Subroutine21 & 0xFFFF
??CrossCallReturnLabel_172:
        LCALL     `??zclGp_SendGpProxyTableResponse::?relay`; Banked call to: zclGp_SendGpProxyTableResponse
//  772   zcl_mem_free( buf );
        ; Setup parameters for call to function osal_mem_free
        MOV       R2,?V0
        MOV       R3,?V1
        LCALL     `??osal_mem_free::?relay`; Banked call to: osal_mem_free
//  773 }
??zclGp_GpProxyTableReqCB_3:
        MOV       A,#-0x5a
        LJMP      ?Subroutine2 & 0xFFFF
??zclGp_GpProxyTableReqCB_14:
        MOVX      A,@DPTR
        CLR       C
        SUBB      A,#0x4b
        JC        ??zclGp_GpProxyTableReqCB_17
        MOV       A,R7
        SJMP      ??zclGp_GpProxyTableReqCB_18
??zclGp_GpProxyTableReqCB_13:
        MOV       A,#0x1
        LCALL     ?XSTACK_DISP0_8
        MOV       A,#-0x75
??zclGp_GpProxyTableReqCB_18:
        MOVX      @DPTR,A
??zclGp_GpProxyTableReqCB_17:
        MOV       DPL,?XSP + 0
        MOV       DPH,?XSP + 1
        MOVX      A,@DPTR
        JZ        ??zclGp_GpProxyTableReqCB_10
        ; Setup parameters for call to function osal_mem_alloc
        MOV       R2,A
        MOV       R3,#0x0
        LCALL     `??osal_mem_alloc::?relay`; Banked call to: osal_mem_alloc
        MOV       ?V0,R2
        MOV       ?V1,R3
        MOV       A,R2
        ORL       A,?V1
        JZ        ??zclGp_GpProxyTableReqCB_16
        MOV       DPL,?XSP + 0
        MOV       DPH,?XSP + 1
        CLR       A
        MOVX      @DPTR,A
        MOV       A,#0x4
        LCALL     ?XSTACK_DISP0_8
        CLR       A
        MOVX      @DPTR,A
        ; Setup parameters for call to function pt_ZclReadGetProxyEntry
        MOV       R0,?XSP + 0
        MOV       R1,?XSP + 1
        MOV       ?V2,R0
        MOV       ?V3,R1
        MOV       R0,#?V2
        LCALL     ?PUSH_XSTACK_I_TWO
          CFI CFA_XSP16 add(XSP16, 183)
        MOV       R4,?V0
        MOV       R5,?V1
        MOV       A,#0x9
        LCALL     ?XSTACK_DISP0_8
        LCALL     ??Subroutine68_0 & 0xFFFF
??CrossCallReturnLabel_161:
        LCALL     `??pt_ZclReadGetProxyEntry::?relay`; Banked call to: pt_ZclReadGetProxyEntry
        MOV       A,#0x2
        LCALL     ?DEALLOC_XSTACK8
          CFI CFA_XSP16 add(XSP16, 181)
        MOV       A,R1
        JZ        $+5
        LJMP      ??zclGp_GpProxyTableReqCB_15 & 0xFFFF
        MOV       A,#0x4
        LCALL     ?XSTACK_DISP0_8
        MOV       A,#0x1
        MOVX      @DPTR,A
        LJMP      ??zclGp_GpProxyTableReqCB_15 & 0xFFFF
          CFI EndBlock cfiBlock71

        RSEG BANKED_CODE:HUGECODE:NOROOT(0)
?Subroutine48:
          CFI Block cfiCond72 Using cfiCommon0
          CFI Function zclGp_GpProxyTableReqCB
          CFI Conditional ??CrossCallReturnLabel_118
          CFI R6 load(1, XDATA, add(CFA_XSP16, literal(-15)))
          CFI VB load(1, XDATA, add(CFA_XSP16, literal(-14)))
          CFI V0 load(1, XDATA, add(CFA_XSP16, literal(-13)))
          CFI V1 load(1, XDATA, add(CFA_XSP16, literal(-12)))
          CFI V2 load(1, XDATA, add(CFA_XSP16, literal(-11)))
          CFI V3 load(1, XDATA, add(CFA_XSP16, literal(-10)))
          CFI V4 load(1, XDATA, add(CFA_XSP16, literal(-9)))
          CFI V5 load(1, XDATA, add(CFA_XSP16, literal(-8)))
          CFI V6 load(1, XDATA, add(CFA_XSP16, literal(-7)))
          CFI R7 load(1, XDATA, add(CFA_XSP16, literal(-6)))
          CFI ?RET_LOW load(1, XDATA, add(CFA_XSP16, literal(-5)))
          CFI ?RET_HIGH load(1, XDATA, add(CFA_XSP16, literal(-4)))
          CFI ?BRET_EXT load(1, XDATA, add(CFA_XSP16, literal(-3)))
          CFI DPL0 load(1, XDATA, add(CFA_XSP16, literal(-2)))
          CFI DPH0 load(1, XDATA, add(CFA_XSP16, literal(-1)))
          CFI CFA_SP SP+-2
          CFI CFA_XSP16 add(XSP16, 181)
          CFI Block cfiCond73 Using cfiCommon0
          CFI (cfiCond73) Function zclGp_GpProxyTableReqCB
          CFI (cfiCond73) Conditional ??CrossCallReturnLabel_119
          CFI (cfiCond73) R6 load(1, XDATA, add(CFA_XSP16, literal(-15)))
          CFI (cfiCond73) VB load(1, XDATA, add(CFA_XSP16, literal(-14)))
          CFI (cfiCond73) V0 load(1, XDATA, add(CFA_XSP16, literal(-13)))
          CFI (cfiCond73) V1 load(1, XDATA, add(CFA_XSP16, literal(-12)))
          CFI (cfiCond73) V2 load(1, XDATA, add(CFA_XSP16, literal(-11)))
          CFI (cfiCond73) V3 load(1, XDATA, add(CFA_XSP16, literal(-10)))
          CFI (cfiCond73) V4 load(1, XDATA, add(CFA_XSP16, literal(-9)))
          CFI (cfiCond73) V5 load(1, XDATA, add(CFA_XSP16, literal(-8)))
          CFI (cfiCond73) V6 load(1, XDATA, add(CFA_XSP16, literal(-7)))
          CFI (cfiCond73) R7 load(1, XDATA, add(CFA_XSP16, literal(-6)))
          CFI (cfiCond73) ?RET_LOW load(1, XDATA, add(CFA_XSP16, literal(-5)))
          CFI (cfiCond73) ?RET_HIGH load(1, XDATA, add(CFA_XSP16, literal(-4)))
          CFI (cfiCond73) ?BRET_EXT load(1, XDATA, add(CFA_XSP16, literal(-3)))
          CFI (cfiCond73) DPL0 load(1, XDATA, add(CFA_XSP16, literal(-2)))
          CFI (cfiCond73) DPH0 load(1, XDATA, add(CFA_XSP16, literal(-1)))
          CFI (cfiCond73) CFA_SP SP+-2
          CFI (cfiCond73) CFA_XSP16 add(XSP16, 183)
          CFI Block cfiCond74 Using cfiCommon0
          CFI (cfiCond74) Function zclGp_GpProxyTableReqCB
          CFI (cfiCond74) Conditional ??CrossCallReturnLabel_120
          CFI (cfiCond74) R6 load(1, XDATA, add(CFA_XSP16, literal(-15)))
          CFI (cfiCond74) VB load(1, XDATA, add(CFA_XSP16, literal(-14)))
          CFI (cfiCond74) V0 load(1, XDATA, add(CFA_XSP16, literal(-13)))
          CFI (cfiCond74) V1 load(1, XDATA, add(CFA_XSP16, literal(-12)))
          CFI (cfiCond74) V2 load(1, XDATA, add(CFA_XSP16, literal(-11)))
          CFI (cfiCond74) V3 load(1, XDATA, add(CFA_XSP16, literal(-10)))
          CFI (cfiCond74) V4 load(1, XDATA, add(CFA_XSP16, literal(-9)))
          CFI (cfiCond74) V5 load(1, XDATA, add(CFA_XSP16, literal(-8)))
          CFI (cfiCond74) V6 load(1, XDATA, add(CFA_XSP16, literal(-7)))
          CFI (cfiCond74) R7 load(1, XDATA, add(CFA_XSP16, literal(-6)))
          CFI (cfiCond74) ?RET_LOW load(1, XDATA, add(CFA_XSP16, literal(-5)))
          CFI (cfiCond74) ?RET_HIGH load(1, XDATA, add(CFA_XSP16, literal(-4)))
          CFI (cfiCond74) ?BRET_EXT load(1, XDATA, add(CFA_XSP16, literal(-3)))
          CFI (cfiCond74) DPL0 load(1, XDATA, add(CFA_XSP16, literal(-2)))
          CFI (cfiCond74) DPH0 load(1, XDATA, add(CFA_XSP16, literal(-1)))
          CFI (cfiCond74) CFA_SP SP+-2
          CFI (cfiCond74) CFA_XSP16 add(XSP16, 183)
          CFI Block cfiCond75 Using cfiCommon0
          CFI (cfiCond75) Function gp_getProxyTableByGpId
          CFI (cfiCond75) Conditional ??CrossCallReturnLabel_121
          CFI (cfiCond75) R6 load(1, XDATA, add(CFA_XSP16, literal(-15)))
          CFI (cfiCond75) VB load(1, XDATA, add(CFA_XSP16, literal(-14)))
          CFI (cfiCond75) V0 load(1, XDATA, add(CFA_XSP16, literal(-13)))
          CFI (cfiCond75) V1 load(1, XDATA, add(CFA_XSP16, literal(-12)))
          CFI (cfiCond75) V2 load(1, XDATA, add(CFA_XSP16, literal(-11)))
          CFI (cfiCond75) V3 load(1, XDATA, add(CFA_XSP16, literal(-10)))
          CFI (cfiCond75) V4 load(1, XDATA, add(CFA_XSP16, literal(-9)))
          CFI (cfiCond75) V5 load(1, XDATA, add(CFA_XSP16, literal(-8)))
          CFI (cfiCond75) V6 load(1, XDATA, add(CFA_XSP16, literal(-7)))
          CFI (cfiCond75) R7 load(1, XDATA, add(CFA_XSP16, literal(-6)))
          CFI (cfiCond75) ?RET_LOW load(1, XDATA, add(CFA_XSP16, literal(-5)))
          CFI (cfiCond75) ?RET_HIGH load(1, XDATA, add(CFA_XSP16, literal(-4)))
          CFI (cfiCond75) ?BRET_EXT load(1, XDATA, add(CFA_XSP16, literal(-3)))
          CFI (cfiCond75) DPL0 load(1, XDATA, add(CFA_XSP16, literal(-2)))
          CFI (cfiCond75) DPH0 load(1, XDATA, add(CFA_XSP16, literal(-1)))
          CFI (cfiCond75) CFA_SP SP+-2
          CFI (cfiCond75) CFA_XSP16 add(XSP16, 19)
          CFI Block cfiPicker76 Using cfiCommon1
          CFI (cfiPicker76) NoFunction
          CFI (cfiPicker76) Picker
        MOV       A,R6
          CFI EndBlock cfiCond72
          CFI EndBlock cfiCond73
          CFI EndBlock cfiCond74
          CFI EndBlock cfiCond75
          CFI EndBlock cfiPicker76
        REQUIRE ??Subroutine60_0
        ; // Fall through to label ??Subroutine60_0

        RSEG BANKED_CODE:HUGECODE:NOROOT(0)
??Subroutine60_0:
          CFI Block cfiCond77 Using cfiCommon0
          CFI Function zclGp_DataIndParse
          CFI Conditional ??CrossCallReturnLabel_116
          CFI R6 load(1, XDATA, add(CFA_XSP16, literal(-15)))
          CFI VB load(1, XDATA, add(CFA_XSP16, literal(-14)))
          CFI V0 load(1, XDATA, add(CFA_XSP16, literal(-13)))
          CFI V1 load(1, XDATA, add(CFA_XSP16, literal(-12)))
          CFI V2 load(1, XDATA, add(CFA_XSP16, literal(-11)))
          CFI V3 load(1, XDATA, add(CFA_XSP16, literal(-10)))
          CFI V4 load(1, XDATA, add(CFA_XSP16, literal(-9)))
          CFI V5 load(1, XDATA, add(CFA_XSP16, literal(-8)))
          CFI V6 load(1, XDATA, add(CFA_XSP16, literal(-7)))
          CFI R7 load(1, XDATA, add(CFA_XSP16, literal(-6)))
          CFI ?RET_LOW load(1, XDATA, add(CFA_XSP16, literal(-5)))
          CFI ?RET_HIGH load(1, XDATA, add(CFA_XSP16, literal(-4)))
          CFI ?BRET_EXT load(1, XDATA, add(CFA_XSP16, literal(-3)))
          CFI DPL0 load(1, XDATA, add(CFA_XSP16, literal(-2)))
          CFI DPH0 load(1, XDATA, add(CFA_XSP16, literal(-1)))
          CFI CFA_SP SP+-2
          CFI CFA_XSP16 add(XSP16, 86)
          CFI Block cfiCond78 Using cfiCommon0
          CFI (cfiCond78) Function gp_ZclPairingParse
          CFI (cfiCond78) Conditional ??CrossCallReturnLabel_117
          CFI (cfiCond78) R6 load(1, XDATA, add(CFA_XSP16, literal(-16)))
          CFI (cfiCond78) VB load(1, XDATA, add(CFA_XSP16, literal(-15)))
          CFI (cfiCond78) V0 load(1, XDATA, add(CFA_XSP16, literal(-14)))
          CFI (cfiCond78) V1 load(1, XDATA, add(CFA_XSP16, literal(-13)))
          CFI (cfiCond78) V2 load(1, XDATA, add(CFA_XSP16, literal(-12)))
          CFI (cfiCond78) V3 load(1, XDATA, add(CFA_XSP16, literal(-11)))
          CFI (cfiCond78) V4 load(1, XDATA, add(CFA_XSP16, literal(-10)))
          CFI (cfiCond78) V5 load(1, XDATA, add(CFA_XSP16, literal(-9)))
          CFI (cfiCond78) V6 load(1, XDATA, add(CFA_XSP16, literal(-8)))
          CFI (cfiCond78) V7 load(1, XDATA, add(CFA_XSP16, literal(-7)))
          CFI (cfiCond78) R7 load(1, XDATA, add(CFA_XSP16, literal(-6)))
          CFI (cfiCond78) ?RET_LOW load(1, XDATA, add(CFA_XSP16, literal(-5)))
          CFI (cfiCond78) ?RET_HIGH load(1, XDATA, add(CFA_XSP16, literal(-4)))
          CFI (cfiCond78) ?BRET_EXT load(1, XDATA, add(CFA_XSP16, literal(-3)))
          CFI (cfiCond78) DPL0 load(1, XDATA, add(CFA_XSP16, literal(-2)))
          CFI (cfiCond78) DPH0 load(1, XDATA, add(CFA_XSP16, literal(-1)))
          CFI (cfiCond78) CFA_SP SP+-2
          CFI (cfiCond78) CFA_XSP16 add(XSP16, 81)
          CFI Block cfiCond79 Using cfiCommon0
          CFI (cfiCond79) Function zclGp_GpProxyTableReqCB
          CFI (cfiCond79) Conditional ??CrossCallReturnLabel_118
          CFI (cfiCond79) R6 load(1, XDATA, add(CFA_XSP16, literal(-15)))
          CFI (cfiCond79) VB load(1, XDATA, add(CFA_XSP16, literal(-14)))
          CFI (cfiCond79) V0 load(1, XDATA, add(CFA_XSP16, literal(-13)))
          CFI (cfiCond79) V1 load(1, XDATA, add(CFA_XSP16, literal(-12)))
          CFI (cfiCond79) V2 load(1, XDATA, add(CFA_XSP16, literal(-11)))
          CFI (cfiCond79) V3 load(1, XDATA, add(CFA_XSP16, literal(-10)))
          CFI (cfiCond79) V4 load(1, XDATA, add(CFA_XSP16, literal(-9)))
          CFI (cfiCond79) V5 load(1, XDATA, add(CFA_XSP16, literal(-8)))
          CFI (cfiCond79) V6 load(1, XDATA, add(CFA_XSP16, literal(-7)))
          CFI (cfiCond79) R7 load(1, XDATA, add(CFA_XSP16, literal(-6)))
          CFI (cfiCond79) ?RET_LOW load(1, XDATA, add(CFA_XSP16, literal(-5)))
          CFI (cfiCond79) ?RET_HIGH load(1, XDATA, add(CFA_XSP16, literal(-4)))
          CFI (cfiCond79) ?BRET_EXT load(1, XDATA, add(CFA_XSP16, literal(-3)))
          CFI (cfiCond79) DPL0 load(1, XDATA, add(CFA_XSP16, literal(-2)))
          CFI (cfiCond79) DPH0 load(1, XDATA, add(CFA_XSP16, literal(-1)))
          CFI (cfiCond79) CFA_SP SP+-2
          CFI (cfiCond79) CFA_XSP16 add(XSP16, 181)
          CFI Block cfiCond80 Using cfiCommon0
          CFI (cfiCond80) Function zclGp_GpProxyTableReqCB
          CFI (cfiCond80) Conditional ??CrossCallReturnLabel_119
          CFI (cfiCond80) R6 load(1, XDATA, add(CFA_XSP16, literal(-15)))
          CFI (cfiCond80) VB load(1, XDATA, add(CFA_XSP16, literal(-14)))
          CFI (cfiCond80) V0 load(1, XDATA, add(CFA_XSP16, literal(-13)))
          CFI (cfiCond80) V1 load(1, XDATA, add(CFA_XSP16, literal(-12)))
          CFI (cfiCond80) V2 load(1, XDATA, add(CFA_XSP16, literal(-11)))
          CFI (cfiCond80) V3 load(1, XDATA, add(CFA_XSP16, literal(-10)))
          CFI (cfiCond80) V4 load(1, XDATA, add(CFA_XSP16, literal(-9)))
          CFI (cfiCond80) V5 load(1, XDATA, add(CFA_XSP16, literal(-8)))
          CFI (cfiCond80) V6 load(1, XDATA, add(CFA_XSP16, literal(-7)))
          CFI (cfiCond80) R7 load(1, XDATA, add(CFA_XSP16, literal(-6)))
          CFI (cfiCond80) ?RET_LOW load(1, XDATA, add(CFA_XSP16, literal(-5)))
          CFI (cfiCond80) ?RET_HIGH load(1, XDATA, add(CFA_XSP16, literal(-4)))
          CFI (cfiCond80) ?BRET_EXT load(1, XDATA, add(CFA_XSP16, literal(-3)))
          CFI (cfiCond80) DPL0 load(1, XDATA, add(CFA_XSP16, literal(-2)))
          CFI (cfiCond80) DPH0 load(1, XDATA, add(CFA_XSP16, literal(-1)))
          CFI (cfiCond80) CFA_SP SP+-2
          CFI (cfiCond80) CFA_XSP16 add(XSP16, 183)
          CFI Block cfiCond81 Using cfiCommon0
          CFI (cfiCond81) Function zclGp_GpProxyTableReqCB
          CFI (cfiCond81) Conditional ??CrossCallReturnLabel_120
          CFI (cfiCond81) R6 load(1, XDATA, add(CFA_XSP16, literal(-15)))
          CFI (cfiCond81) VB load(1, XDATA, add(CFA_XSP16, literal(-14)))
          CFI (cfiCond81) V0 load(1, XDATA, add(CFA_XSP16, literal(-13)))
          CFI (cfiCond81) V1 load(1, XDATA, add(CFA_XSP16, literal(-12)))
          CFI (cfiCond81) V2 load(1, XDATA, add(CFA_XSP16, literal(-11)))
          CFI (cfiCond81) V3 load(1, XDATA, add(CFA_XSP16, literal(-10)))
          CFI (cfiCond81) V4 load(1, XDATA, add(CFA_XSP16, literal(-9)))
          CFI (cfiCond81) V5 load(1, XDATA, add(CFA_XSP16, literal(-8)))
          CFI (cfiCond81) V6 load(1, XDATA, add(CFA_XSP16, literal(-7)))
          CFI (cfiCond81) R7 load(1, XDATA, add(CFA_XSP16, literal(-6)))
          CFI (cfiCond81) ?RET_LOW load(1, XDATA, add(CFA_XSP16, literal(-5)))
          CFI (cfiCond81) ?RET_HIGH load(1, XDATA, add(CFA_XSP16, literal(-4)))
          CFI (cfiCond81) ?BRET_EXT load(1, XDATA, add(CFA_XSP16, literal(-3)))
          CFI (cfiCond81) DPL0 load(1, XDATA, add(CFA_XSP16, literal(-2)))
          CFI (cfiCond81) DPH0 load(1, XDATA, add(CFA_XSP16, literal(-1)))
          CFI (cfiCond81) CFA_SP SP+-2
          CFI (cfiCond81) CFA_XSP16 add(XSP16, 183)
          CFI Block cfiCond82 Using cfiCommon0
          CFI (cfiCond82) Function gp_getProxyTableByGpId
          CFI (cfiCond82) Conditional ??CrossCallReturnLabel_121
          CFI (cfiCond82) R6 load(1, XDATA, add(CFA_XSP16, literal(-15)))
          CFI (cfiCond82) VB load(1, XDATA, add(CFA_XSP16, literal(-14)))
          CFI (cfiCond82) V0 load(1, XDATA, add(CFA_XSP16, literal(-13)))
          CFI (cfiCond82) V1 load(1, XDATA, add(CFA_XSP16, literal(-12)))
          CFI (cfiCond82) V2 load(1, XDATA, add(CFA_XSP16, literal(-11)))
          CFI (cfiCond82) V3 load(1, XDATA, add(CFA_XSP16, literal(-10)))
          CFI (cfiCond82) V4 load(1, XDATA, add(CFA_XSP16, literal(-9)))
          CFI (cfiCond82) V5 load(1, XDATA, add(CFA_XSP16, literal(-8)))
          CFI (cfiCond82) V6 load(1, XDATA, add(CFA_XSP16, literal(-7)))
          CFI (cfiCond82) R7 load(1, XDATA, add(CFA_XSP16, literal(-6)))
          CFI (cfiCond82) ?RET_LOW load(1, XDATA, add(CFA_XSP16, literal(-5)))
          CFI (cfiCond82) ?RET_HIGH load(1, XDATA, add(CFA_XSP16, literal(-4)))
          CFI (cfiCond82) ?BRET_EXT load(1, XDATA, add(CFA_XSP16, literal(-3)))
          CFI (cfiCond82) DPL0 load(1, XDATA, add(CFA_XSP16, literal(-2)))
          CFI (cfiCond82) DPH0 load(1, XDATA, add(CFA_XSP16, literal(-1)))
          CFI (cfiCond82) CFA_SP SP+-2
          CFI (cfiCond82) CFA_XSP16 add(XSP16, 19)
          CFI Block cfiPicker83 Using cfiCommon1
          CFI (cfiPicker83) NoFunction
          CFI (cfiPicker83) Picker
        ADD       A,#0x10
        MOV       R2,A
        CLR       A
        ADDC      A,#0x3
        MOV       R3,A
        RET
          CFI EndBlock cfiCond77
          CFI EndBlock cfiCond78
          CFI EndBlock cfiCond79
          CFI EndBlock cfiCond80
          CFI EndBlock cfiCond81
          CFI EndBlock cfiCond82
          CFI EndBlock cfiPicker83

        RSEG BANKED_CODE:HUGECODE:NOROOT(0)
?Subroutine36:
          CFI Block cfiCond84 Using cfiCommon0
          CFI Function zclGp_GpProxyTableReqCB
          CFI Conditional ??CrossCallReturnLabel_55
          CFI R6 load(1, XDATA, add(CFA_XSP16, literal(-15)))
          CFI VB load(1, XDATA, add(CFA_XSP16, literal(-14)))
          CFI V0 load(1, XDATA, add(CFA_XSP16, literal(-13)))
          CFI V1 load(1, XDATA, add(CFA_XSP16, literal(-12)))
          CFI V2 load(1, XDATA, add(CFA_XSP16, literal(-11)))
          CFI V3 load(1, XDATA, add(CFA_XSP16, literal(-10)))
          CFI V4 load(1, XDATA, add(CFA_XSP16, literal(-9)))
          CFI V5 load(1, XDATA, add(CFA_XSP16, literal(-8)))
          CFI V6 load(1, XDATA, add(CFA_XSP16, literal(-7)))
          CFI R7 load(1, XDATA, add(CFA_XSP16, literal(-6)))
          CFI ?RET_LOW load(1, XDATA, add(CFA_XSP16, literal(-5)))
          CFI ?RET_HIGH load(1, XDATA, add(CFA_XSP16, literal(-4)))
          CFI ?BRET_EXT load(1, XDATA, add(CFA_XSP16, literal(-3)))
          CFI DPL0 load(1, XDATA, add(CFA_XSP16, literal(-2)))
          CFI DPH0 load(1, XDATA, add(CFA_XSP16, literal(-1)))
          CFI CFA_SP SP+-2
          CFI CFA_XSP16 add(XSP16, 181)
          CFI Block cfiCond85 Using cfiCommon0
          CFI (cfiCond85) Function zclGp_GpProxyTableReqCB
          CFI (cfiCond85) Conditional ??CrossCallReturnLabel_56
          CFI (cfiCond85) R6 load(1, XDATA, add(CFA_XSP16, literal(-15)))
          CFI (cfiCond85) VB load(1, XDATA, add(CFA_XSP16, literal(-14)))
          CFI (cfiCond85) V0 load(1, XDATA, add(CFA_XSP16, literal(-13)))
          CFI (cfiCond85) V1 load(1, XDATA, add(CFA_XSP16, literal(-12)))
          CFI (cfiCond85) V2 load(1, XDATA, add(CFA_XSP16, literal(-11)))
          CFI (cfiCond85) V3 load(1, XDATA, add(CFA_XSP16, literal(-10)))
          CFI (cfiCond85) V4 load(1, XDATA, add(CFA_XSP16, literal(-9)))
          CFI (cfiCond85) V5 load(1, XDATA, add(CFA_XSP16, literal(-8)))
          CFI (cfiCond85) V6 load(1, XDATA, add(CFA_XSP16, literal(-7)))
          CFI (cfiCond85) R7 load(1, XDATA, add(CFA_XSP16, literal(-6)))
          CFI (cfiCond85) ?RET_LOW load(1, XDATA, add(CFA_XSP16, literal(-5)))
          CFI (cfiCond85) ?RET_HIGH load(1, XDATA, add(CFA_XSP16, literal(-4)))
          CFI (cfiCond85) ?BRET_EXT load(1, XDATA, add(CFA_XSP16, literal(-3)))
          CFI (cfiCond85) DPL0 load(1, XDATA, add(CFA_XSP16, literal(-2)))
          CFI (cfiCond85) DPH0 load(1, XDATA, add(CFA_XSP16, literal(-1)))
          CFI (cfiCond85) CFA_SP SP+-2
          CFI (cfiCond85) CFA_XSP16 add(XSP16, 181)
          CFI Block cfiPicker86 Using cfiCommon1
          CFI (cfiPicker86) NoFunction
          CFI (cfiPicker86) Picker
        MOVX      A,@DPTR
        RRC       A
        RRC       A
        RRC       A
        ANL       A,#0x1f
        ANL       A,#0x3
        RET
          CFI EndBlock cfiCond84
          CFI EndBlock cfiCond85
          CFI EndBlock cfiPicker86

        RSEG BANKED_CODE:HUGECODE:NOROOT(0)
?Subroutine27:
          CFI Block cfiCond87 Using cfiCommon0
          CFI Function zclGp_GpProxyTableReqCB
          CFI Conditional ??CrossCallReturnLabel_37
          CFI R6 load(1, XDATA, add(CFA_XSP16, literal(-15)))
          CFI VB load(1, XDATA, add(CFA_XSP16, literal(-14)))
          CFI V0 load(1, XDATA, add(CFA_XSP16, literal(-13)))
          CFI V1 load(1, XDATA, add(CFA_XSP16, literal(-12)))
          CFI V2 load(1, XDATA, add(CFA_XSP16, literal(-11)))
          CFI V3 load(1, XDATA, add(CFA_XSP16, literal(-10)))
          CFI V4 load(1, XDATA, add(CFA_XSP16, literal(-9)))
          CFI V5 load(1, XDATA, add(CFA_XSP16, literal(-8)))
          CFI V6 load(1, XDATA, add(CFA_XSP16, literal(-7)))
          CFI R7 load(1, XDATA, add(CFA_XSP16, literal(-6)))
          CFI ?RET_LOW load(1, XDATA, add(CFA_XSP16, literal(-5)))
          CFI ?RET_HIGH load(1, XDATA, add(CFA_XSP16, literal(-4)))
          CFI ?BRET_EXT load(1, XDATA, add(CFA_XSP16, literal(-3)))
          CFI DPL0 load(1, XDATA, add(CFA_XSP16, literal(-2)))
          CFI DPH0 load(1, XDATA, add(CFA_XSP16, literal(-1)))
          CFI CFA_SP SP+-2
          CFI CFA_XSP16 add(XSP16, 181)
          CFI Block cfiCond88 Using cfiCommon0
          CFI (cfiCond88) Function zclGp_GpProxyTableReqCB
          CFI (cfiCond88) Conditional ??CrossCallReturnLabel_38
          CFI (cfiCond88) R6 load(1, XDATA, add(CFA_XSP16, literal(-15)))
          CFI (cfiCond88) VB load(1, XDATA, add(CFA_XSP16, literal(-14)))
          CFI (cfiCond88) V0 load(1, XDATA, add(CFA_XSP16, literal(-13)))
          CFI (cfiCond88) V1 load(1, XDATA, add(CFA_XSP16, literal(-12)))
          CFI (cfiCond88) V2 load(1, XDATA, add(CFA_XSP16, literal(-11)))
          CFI (cfiCond88) V3 load(1, XDATA, add(CFA_XSP16, literal(-10)))
          CFI (cfiCond88) V4 load(1, XDATA, add(CFA_XSP16, literal(-9)))
          CFI (cfiCond88) V5 load(1, XDATA, add(CFA_XSP16, literal(-8)))
          CFI (cfiCond88) V6 load(1, XDATA, add(CFA_XSP16, literal(-7)))
          CFI (cfiCond88) R7 load(1, XDATA, add(CFA_XSP16, literal(-6)))
          CFI (cfiCond88) ?RET_LOW load(1, XDATA, add(CFA_XSP16, literal(-5)))
          CFI (cfiCond88) ?RET_HIGH load(1, XDATA, add(CFA_XSP16, literal(-4)))
          CFI (cfiCond88) ?BRET_EXT load(1, XDATA, add(CFA_XSP16, literal(-3)))
          CFI (cfiCond88) DPL0 load(1, XDATA, add(CFA_XSP16, literal(-2)))
          CFI (cfiCond88) DPH0 load(1, XDATA, add(CFA_XSP16, literal(-1)))
          CFI (cfiCond88) CFA_SP SP+-2
          CFI (cfiCond88) CFA_XSP16 add(XSP16, 181)
          CFI Block cfiPicker89 Using cfiCommon1
          CFI (cfiPicker89) NoFunction
          CFI (cfiPicker89) Picker
        MOV       DPL,?XSP + 0
        MOV       DPH,?XSP + 1
        MOVX      A,@DPTR
        MOV       R7,A
        ; Setup parameters for call to function pt_ZclReadGetProxyEntry
        ; Setup parameters for call to function pt_ZclReadGetProxyEntry
        MOV       R0,?XSP + 0
        MOV       R1,?XSP + 1
        MOV       ?V2,R0
        MOV       ?V3,R1
        MOV       R0,#?V2
        RET
          CFI EndBlock cfiCond87
          CFI EndBlock cfiCond88
          CFI EndBlock cfiPicker89

        RSEG BANKED_CODE:HUGECODE:NOROOT(0)
?Subroutine19:
          CFI Block cfiCond90 Using cfiCommon0
          CFI Function zclGp_GpProxyTableReqCB
          CFI Conditional ??CrossCallReturnLabel_31
          CFI R6 load(1, XDATA, add(CFA_XSP16, literal(-15)))
          CFI VB load(1, XDATA, add(CFA_XSP16, literal(-14)))
          CFI V0 load(1, XDATA, add(CFA_XSP16, literal(-13)))
          CFI V1 load(1, XDATA, add(CFA_XSP16, literal(-12)))
          CFI V2 load(1, XDATA, add(CFA_XSP16, literal(-11)))
          CFI V3 load(1, XDATA, add(CFA_XSP16, literal(-10)))
          CFI V4 load(1, XDATA, add(CFA_XSP16, literal(-9)))
          CFI V5 load(1, XDATA, add(CFA_XSP16, literal(-8)))
          CFI V6 load(1, XDATA, add(CFA_XSP16, literal(-7)))
          CFI R7 load(1, XDATA, add(CFA_XSP16, literal(-6)))
          CFI ?RET_LOW load(1, XDATA, add(CFA_XSP16, literal(-5)))
          CFI ?RET_HIGH load(1, XDATA, add(CFA_XSP16, literal(-4)))
          CFI ?BRET_EXT load(1, XDATA, add(CFA_XSP16, literal(-3)))
          CFI DPL0 load(1, XDATA, add(CFA_XSP16, literal(-2)))
          CFI DPH0 load(1, XDATA, add(CFA_XSP16, literal(-1)))
          CFI CFA_SP SP+-2
          CFI CFA_XSP16 add(XSP16, 181)
          CFI Block cfiCond91 Using cfiCommon0
          CFI (cfiCond91) Function zclGp_GpProxyTableReqCB
          CFI (cfiCond91) Conditional ??CrossCallReturnLabel_32
          CFI (cfiCond91) R6 load(1, XDATA, add(CFA_XSP16, literal(-15)))
          CFI (cfiCond91) VB load(1, XDATA, add(CFA_XSP16, literal(-14)))
          CFI (cfiCond91) V0 load(1, XDATA, add(CFA_XSP16, literal(-13)))
          CFI (cfiCond91) V1 load(1, XDATA, add(CFA_XSP16, literal(-12)))
          CFI (cfiCond91) V2 load(1, XDATA, add(CFA_XSP16, literal(-11)))
          CFI (cfiCond91) V3 load(1, XDATA, add(CFA_XSP16, literal(-10)))
          CFI (cfiCond91) V4 load(1, XDATA, add(CFA_XSP16, literal(-9)))
          CFI (cfiCond91) V5 load(1, XDATA, add(CFA_XSP16, literal(-8)))
          CFI (cfiCond91) V6 load(1, XDATA, add(CFA_XSP16, literal(-7)))
          CFI (cfiCond91) R7 load(1, XDATA, add(CFA_XSP16, literal(-6)))
          CFI (cfiCond91) ?RET_LOW load(1, XDATA, add(CFA_XSP16, literal(-5)))
          CFI (cfiCond91) ?RET_HIGH load(1, XDATA, add(CFA_XSP16, literal(-4)))
          CFI (cfiCond91) ?BRET_EXT load(1, XDATA, add(CFA_XSP16, literal(-3)))
          CFI (cfiCond91) DPL0 load(1, XDATA, add(CFA_XSP16, literal(-2)))
          CFI (cfiCond91) DPH0 load(1, XDATA, add(CFA_XSP16, literal(-1)))
          CFI (cfiCond91) CFA_SP SP+-2
          CFI (cfiCond91) CFA_XSP16 add(XSP16, 181)
          CFI Block cfiPicker92 Using cfiCommon1
          CFI (cfiPicker92) NoFunction
          CFI (cfiPicker92) Picker
        MOVX      @DPTR,A
        ; Setup parameters for call to function zclGp_SendGpProxyTableResponse
        ; Setup parameters for call to function zclGp_SendGpProxyTableResponse
        MOV       DPTR,#zcl_InSeqNum
        MOVX      A,@DPTR
        MOV       R1,A
        MOV       A,#0x1
        RET
          CFI EndBlock cfiCond90
          CFI EndBlock cfiCond91
          CFI EndBlock cfiPicker92

        RSEG BANKED_CODE:HUGECODE:NOROOT(0)
?Subroutine10:
          CFI Block cfiCond93 Using cfiCommon0
          CFI Function zclGp_ManteinanceIndParse
          CFI Conditional ??CrossCallReturnLabel_12
          CFI R6 load(1, XDATA, add(CFA_XSP16, literal(-16)))
          CFI VB load(1, XDATA, add(CFA_XSP16, literal(-15)))
          CFI V0 load(1, XDATA, add(CFA_XSP16, literal(-14)))
          CFI V1 load(1, XDATA, add(CFA_XSP16, literal(-13)))
          CFI V2 load(1, XDATA, add(CFA_XSP16, literal(-12)))
          CFI V3 load(1, XDATA, add(CFA_XSP16, literal(-11)))
          CFI V4 load(1, XDATA, add(CFA_XSP16, literal(-10)))
          CFI V5 load(1, XDATA, add(CFA_XSP16, literal(-9)))
          CFI V6 load(1, XDATA, add(CFA_XSP16, literal(-8)))
          CFI V7 load(1, XDATA, add(CFA_XSP16, literal(-7)))
          CFI R7 load(1, XDATA, add(CFA_XSP16, literal(-6)))
          CFI ?RET_LOW load(1, XDATA, add(CFA_XSP16, literal(-5)))
          CFI ?RET_HIGH load(1, XDATA, add(CFA_XSP16, literal(-4)))
          CFI ?BRET_EXT load(1, XDATA, add(CFA_XSP16, literal(-3)))
          CFI DPL0 load(1, XDATA, add(CFA_XSP16, literal(-2)))
          CFI DPH0 load(1, XDATA, add(CFA_XSP16, literal(-1)))
          CFI CFA_SP SP+-2
          CFI CFA_XSP16 add(XSP16, 18)
          CFI Block cfiCond94 Using cfiCommon0
          CFI (cfiCond94) Function zclGp_GpProxyTableReqCB
          CFI (cfiCond94) Conditional ??CrossCallReturnLabel_13
          CFI (cfiCond94) R6 load(1, XDATA, add(CFA_XSP16, literal(-15)))
          CFI (cfiCond94) VB load(1, XDATA, add(CFA_XSP16, literal(-14)))
          CFI (cfiCond94) V0 load(1, XDATA, add(CFA_XSP16, literal(-13)))
          CFI (cfiCond94) V1 load(1, XDATA, add(CFA_XSP16, literal(-12)))
          CFI (cfiCond94) V2 load(1, XDATA, add(CFA_XSP16, literal(-11)))
          CFI (cfiCond94) V3 load(1, XDATA, add(CFA_XSP16, literal(-10)))
          CFI (cfiCond94) V4 load(1, XDATA, add(CFA_XSP16, literal(-9)))
          CFI (cfiCond94) V5 load(1, XDATA, add(CFA_XSP16, literal(-8)))
          CFI (cfiCond94) V6 load(1, XDATA, add(CFA_XSP16, literal(-7)))
          CFI (cfiCond94) R7 load(1, XDATA, add(CFA_XSP16, literal(-6)))
          CFI (cfiCond94) ?RET_LOW load(1, XDATA, add(CFA_XSP16, literal(-5)))
          CFI (cfiCond94) ?RET_HIGH load(1, XDATA, add(CFA_XSP16, literal(-4)))
          CFI (cfiCond94) ?BRET_EXT load(1, XDATA, add(CFA_XSP16, literal(-3)))
          CFI (cfiCond94) DPL0 load(1, XDATA, add(CFA_XSP16, literal(-2)))
          CFI (cfiCond94) DPH0 load(1, XDATA, add(CFA_XSP16, literal(-1)))
          CFI (cfiCond94) CFA_SP SP+-2
          CFI (cfiCond94) CFA_XSP16 add(XSP16, 181)
          CFI Block cfiCond95 Using cfiCommon0
          CFI (cfiCond95) Function gp_getProxyTableByGpId
          CFI (cfiCond95) Conditional ??CrossCallReturnLabel_14
          CFI (cfiCond95) R6 load(1, XDATA, add(CFA_XSP16, literal(-15)))
          CFI (cfiCond95) VB load(1, XDATA, add(CFA_XSP16, literal(-14)))
          CFI (cfiCond95) V0 load(1, XDATA, add(CFA_XSP16, literal(-13)))
          CFI (cfiCond95) V1 load(1, XDATA, add(CFA_XSP16, literal(-12)))
          CFI (cfiCond95) V2 load(1, XDATA, add(CFA_XSP16, literal(-11)))
          CFI (cfiCond95) V3 load(1, XDATA, add(CFA_XSP16, literal(-10)))
          CFI (cfiCond95) V4 load(1, XDATA, add(CFA_XSP16, literal(-9)))
          CFI (cfiCond95) V5 load(1, XDATA, add(CFA_XSP16, literal(-8)))
          CFI (cfiCond95) V6 load(1, XDATA, add(CFA_XSP16, literal(-7)))
          CFI (cfiCond95) R7 load(1, XDATA, add(CFA_XSP16, literal(-6)))
          CFI (cfiCond95) ?RET_LOW load(1, XDATA, add(CFA_XSP16, literal(-5)))
          CFI (cfiCond95) ?RET_HIGH load(1, XDATA, add(CFA_XSP16, literal(-4)))
          CFI (cfiCond95) ?BRET_EXT load(1, XDATA, add(CFA_XSP16, literal(-3)))
          CFI (cfiCond95) DPL0 load(1, XDATA, add(CFA_XSP16, literal(-2)))
          CFI (cfiCond95) DPH0 load(1, XDATA, add(CFA_XSP16, literal(-1)))
          CFI (cfiCond95) CFA_SP SP+-2
          CFI (cfiCond95) CFA_XSP16 add(XSP16, 19)
          CFI Block cfiPicker96 Using cfiCommon1
          CFI (cfiPicker96) NoFunction
          CFI (cfiPicker96) Picker
        MOVX      @DPTR,A
        MOV       DPL,?XSP + 0
        MOV       DPH,?XSP + 1
        RET
          CFI EndBlock cfiCond93
          CFI EndBlock cfiCond94
          CFI EndBlock cfiCond95
          CFI EndBlock cfiPicker96

        RSEG XDATA_ROM_C:CONST:REORDER:NOROOT(0)
        DATA8
`?<Constant {0}>`:
        DB 0
        DB 0, 0, 0, 0, 0
//  774 
//  775 
//  776 /*********************************************************************
//  777  * @fn      zclGp_GpResponseCommandCB
//  778  *
//  779  * @brief   Callback from the ZCL GreenPower Cluster Library when
//  780  *          it received a Gp Response command. (Ref A.3.5.2.1)
//  781  *
//  782  * @param   pCmd - command payload
//  783  *
//  784  * @return  none
//  785  */

        RSEG BANKED_CODE:HUGECODE:NOROOT(0)
//  786 static void zclGp_GpResponseCommandCB(zclGpResponse_t *pCmd)
zclGp_GpResponseCommandCB:
          CFI Block cfiBlock97 Using cfiCommon0
          CFI Function zclGp_GpResponseCommandCB
        CODE
//  787 {
        FUNCALL zclGp_GpResponseCommandCB, osal_build_uint32
        LOCFRAME ISTACK, 0, STACK
        LOCFRAME PSTACK, 0, STACK
        LOCFRAME XSTACK, 93, STACK
        LOCFRAME IOVERLAY, 0, STATIC
        LOCFRAME DOVERLAY, 0, STATIC
        ARGFRAME ISTACK, 0, STACK
        ARGFRAME PSTACK, 0, STACK
        ARGFRAME XSTACK, 93, STACK
        ARGFRAME IOVERLAY, 0, STATIC
        ARGFRAME DOVERLAY, 0, STATIC
        FUNCALL zclGp_GpResponseCommandCB, osal_msg_allocate
        LOCFRAME ISTACK, 0, STACK
        LOCFRAME PSTACK, 0, STACK
        LOCFRAME XSTACK, 93, STACK
        LOCFRAME IOVERLAY, 0, STATIC
        LOCFRAME DOVERLAY, 0, STATIC
        ARGFRAME ISTACK, 0, STACK
        ARGFRAME PSTACK, 0, STACK
        ARGFRAME XSTACK, 93, STACK
        ARGFRAME IOVERLAY, 0, STATIC
        ARGFRAME DOVERLAY, 0, STATIC
        FUNCALL zclGp_GpResponseCommandCB, osal_memcpy
        LOCFRAME ISTACK, 0, STACK
        LOCFRAME PSTACK, 0, STACK
        LOCFRAME XSTACK, 96, STACK
        LOCFRAME IOVERLAY, 0, STATIC
        LOCFRAME DOVERLAY, 0, STATIC
        ARGFRAME ISTACK, 0, STACK
        ARGFRAME PSTACK, 0, STACK
        ARGFRAME XSTACK, 96, STACK
        ARGFRAME IOVERLAY, 0, STATIC
        ARGFRAME DOVERLAY, 0, STATIC
        FUNCALL zclGp_GpResponseCommandCB, osal_memcpy
        LOCFRAME ISTACK, 0, STACK
        LOCFRAME PSTACK, 0, STACK
        LOCFRAME XSTACK, 96, STACK
        LOCFRAME IOVERLAY, 0, STATIC
        LOCFRAME DOVERLAY, 0, STATIC
        ARGFRAME ISTACK, 0, STACK
        ARGFRAME PSTACK, 0, STACK
        ARGFRAME XSTACK, 96, STACK
        ARGFRAME IOVERLAY, 0, STATIC
        ARGFRAME DOVERLAY, 0, STATIC
        FUNCALL zclGp_GpResponseCommandCB, gp_GetHandle
        LOCFRAME ISTACK, 0, STACK
        LOCFRAME PSTACK, 0, STACK
        LOCFRAME XSTACK, 93, STACK
        LOCFRAME IOVERLAY, 0, STATIC
        LOCFRAME DOVERLAY, 0, STATIC
        ARGFRAME ISTACK, 0, STACK
        ARGFRAME PSTACK, 0, STACK
        ARGFRAME XSTACK, 93, STACK
        ARGFRAME IOVERLAY, 0, STATIC
        ARGFRAME DOVERLAY, 0, STATIC
        FUNCALL zclGp_GpResponseCommandCB, gp_getProxyTableByGpId
        LOCFRAME ISTACK, 0, STACK
        LOCFRAME PSTACK, 0, STACK
        LOCFRAME XSTACK, 95, STACK
        LOCFRAME IOVERLAY, 0, STATIC
        LOCFRAME DOVERLAY, 0, STATIC
        ARGFRAME ISTACK, 0, STACK
        ARGFRAME PSTACK, 0, STACK
        ARGFRAME XSTACK, 95, STACK
        ARGFRAME IOVERLAY, 0, STATIC
        ARGFRAME DOVERLAY, 0, STATIC
        FUNCALL zclGp_GpResponseCommandCB, osal_nv_write
        LOCFRAME ISTACK, 0, STACK
        LOCFRAME PSTACK, 0, STACK
        LOCFRAME XSTACK, 97, STACK
        LOCFRAME IOVERLAY, 0, STATIC
        LOCFRAME DOVERLAY, 0, STATIC
        ARGFRAME ISTACK, 0, STACK
        ARGFRAME PSTACK, 0, STACK
        ARGFRAME XSTACK, 97, STACK
        ARGFRAME IOVERLAY, 0, STATIC
        ARGFRAME DOVERLAY, 0, STATIC
        FUNCALL zclGp_GpResponseCommandCB, osal_get_timeoutEx
        LOCFRAME ISTACK, 0, STACK
        LOCFRAME PSTACK, 0, STACK
        LOCFRAME XSTACK, 93, STACK
        LOCFRAME IOVERLAY, 0, STATIC
        LOCFRAME DOVERLAY, 0, STATIC
        ARGFRAME ISTACK, 0, STACK
        ARGFRAME PSTACK, 0, STACK
        ARGFRAME XSTACK, 93, STACK
        ARGFRAME IOVERLAY, 0, STATIC
        ARGFRAME DOVERLAY, 0, STATIC
        FUNCALL zclGp_GpResponseCommandCB, ZMacSetReq
        LOCFRAME ISTACK, 0, STACK
        LOCFRAME PSTACK, 0, STACK
        LOCFRAME XSTACK, 93, STACK
        LOCFRAME IOVERLAY, 0, STATIC
        LOCFRAME DOVERLAY, 0, STATIC
        ARGFRAME ISTACK, 0, STACK
        ARGFRAME PSTACK, 0, STACK
        ARGFRAME XSTACK, 93, STACK
        ARGFRAME IOVERLAY, 0, STATIC
        ARGFRAME DOVERLAY, 0, STATIC
        FUNCALL zclGp_GpResponseCommandCB, gp_getProxyTableByGpId
        LOCFRAME ISTACK, 0, STACK
        LOCFRAME PSTACK, 0, STACK
        LOCFRAME XSTACK, 95, STACK
        LOCFRAME IOVERLAY, 0, STATIC
        LOCFRAME DOVERLAY, 0, STATIC
        ARGFRAME ISTACK, 0, STACK
        ARGFRAME PSTACK, 0, STACK
        ARGFRAME XSTACK, 95, STACK
        ARGFRAME IOVERLAY, 0, STATIC
        ARGFRAME DOVERLAY, 0, STATIC
        FUNCALL zclGp_GpResponseCommandCB, osal_nv_write
        LOCFRAME ISTACK, 0, STACK
        LOCFRAME PSTACK, 0, STACK
        LOCFRAME XSTACK, 97, STACK
        LOCFRAME IOVERLAY, 0, STATIC
        LOCFRAME DOVERLAY, 0, STATIC
        ARGFRAME ISTACK, 0, STACK
        ARGFRAME PSTACK, 0, STACK
        ARGFRAME XSTACK, 97, STACK
        ARGFRAME IOVERLAY, 0, STATIC
        ARGFRAME DOVERLAY, 0, STATIC
        FUNCALL zclGp_GpResponseCommandCB, osal_msg_send
        LOCFRAME ISTACK, 0, STACK
        LOCFRAME PSTACK, 0, STACK
        LOCFRAME XSTACK, 93, STACK
        LOCFRAME IOVERLAY, 0, STATIC
        LOCFRAME DOVERLAY, 0, STATIC
        ARGFRAME ISTACK, 0, STACK
        ARGFRAME PSTACK, 0, STACK
        ARGFRAME XSTACK, 93, STACK
        ARGFRAME IOVERLAY, 0, STATIC
        ARGFRAME DOVERLAY, 0, STATIC
        REQUIRE ?V0
        REQUIRE ?V1
        REQUIRE ?V2
        REQUIRE ?V3
        REQUIRE ?V4
        REQUIRE ?V5
        REQUIRE ?V6
        MOV       A,#-0xf
        LCALL     ?BANKED_ENTER_XDATA
          CFI DPH0 load(1, XDATA, add(CFA_XSP16, literal(-1)))
          CFI DPL0 load(1, XDATA, add(CFA_XSP16, literal(-2)))
          CFI ?BRET_EXT load(1, XDATA, add(CFA_XSP16, literal(-3)))
          CFI ?RET_HIGH load(1, XDATA, add(CFA_XSP16, literal(-4)))
          CFI ?RET_LOW load(1, XDATA, add(CFA_XSP16, literal(-5)))
          CFI R7 load(1, XDATA, add(CFA_XSP16, literal(-6)))
          CFI V6 load(1, XDATA, add(CFA_XSP16, literal(-7)))
          CFI V5 load(1, XDATA, add(CFA_XSP16, literal(-8)))
          CFI V4 load(1, XDATA, add(CFA_XSP16, literal(-9)))
          CFI V3 load(1, XDATA, add(CFA_XSP16, literal(-10)))
          CFI V2 load(1, XDATA, add(CFA_XSP16, literal(-11)))
          CFI V1 load(1, XDATA, add(CFA_XSP16, literal(-12)))
          CFI V0 load(1, XDATA, add(CFA_XSP16, literal(-13)))
          CFI VB load(1, XDATA, add(CFA_XSP16, literal(-14)))
          CFI R6 load(1, XDATA, add(CFA_XSP16, literal(-15)))
          CFI CFA_SP SP+0
          CFI CFA_XSP16 add(XSP16, 15)
        ; Saved register size: 15
        ; Auto size: 78
        MOV       A,#-0x4e
        LCALL     ?ALLOC_XSTACK8
          CFI CFA_XSP16 add(XSP16, 93)
        MOV       A,#0x2
        LCALL     ?XSTACK_DISP0_8
        LCALL     ?Subroutine17 & 0xFFFF
//  788   gp_DataReq_t  *gp_DataReq;
//  789   gpd_ID_t      gpd_ID;
//  790   uint8         endpoint = 0;
//  791   uint8         command;
//  792   uint8         payloadLen = 0;
//  793   
//  794   //No bidirectional communication in operational mode
//  795   //A.3.2.8
//  796   if(!zgGP_InCommissioningMode)
??CrossCallReturnLabel_25:
        MOV       DPTR,#zgGP_InCommissioningMode
        MOVX      A,@DPTR
        JNZ       $+5
        LJMP      ??zclGp_GpResponseCommandCB_0 & 0xFFFF
//  797   {
//  798     return;
//  799   }
//  800   
//  801   gpd_ID.AppID = pCmd->options & GP_RSP_CMD_OPT_APP_ID_MASK;
        MOV       A,#0x2
        LCALL     ?XSTACK_DISP0_8
        LCALL     ?Subroutine35 & 0xFFFF
??CrossCallReturnLabel_53:
        MOV       DPL,?XSP + 0
        MOV       DPH,?XSP + 1
        MOV       A,R0
        MOVX      @DPTR,A
        INC       DPTR
        MOV       A,R1
        LCALL     ?Subroutine6 & 0xFFFF
??CrossCallReturnLabel_4:
        ANL       A,#0x7
        PUSH      A
          CFI CFA_SP SP+-1
        MOV       A,#0x4
        LCALL     ?XSTACK_DISP0_8
        POP       A
          CFI CFA_SP SP+0
        MOVX      @DPTR,A
//  802   if(gpd_ID.AppID == GP_APP_ID_DEFAULT)
        JZ        $+5
        LJMP      ??zclGp_GpResponseCommandCB_0 & 0xFFFF
//  803   {
//  804     gpd_ID.GPDId.SrcID = osal_build_uint32(pCmd->pData,sizeof(uint32));
        MOV       A,#0x2
        LCALL     ?XSTACK_DISP0_8
        MOVX      A,@DPTR
        ADD       A,#0x6
        LCALL     ?Subroutine32 & 0xFFFF
??CrossCallReturnLabel_46:
        ; Setup parameters for call to function osal_build_uint32
        MOV       R1,#0x4
        MOV       DPL,?V0
        MOV       DPH,A
        LCALL     ??Subroutine68_0 & 0xFFFF
??CrossCallReturnLabel_162:
        LCALL     `??osal_build_uint32::?relay`; Banked call to: osal_build_uint32
        MOV       A,#0x5
        LCALL     ?XSTACK_DISP0_8
        LCALL     ?XSTORE_R2345
//  805     pCmd->pData += sizeof(uint32);
        MOV       DPL,?V0
        MOV       DPH,?V1
        MOVX      A,@DPTR
        ADD       A,#0x4
        MOV       R0,A
        INC       DPTR
        MOVX      A,@DPTR
        ADDC      A,#0x0
        MOV       R1,A
        LCALL     ?Subroutine15 & 0xFFFF
//  806   }
//  807   else if(gpd_ID.AppID == GP_APP_ID_DEFAULT)
//  808   {
//  809     gpd_ID.GPDId.SrcID = osal_build_uint32(pCmd->pData,sizeof(uint32));
//  810     pCmd->pData += sizeof(uint32);
//  811     
//  812     endpoint = *pCmd->pData;
//  813     pCmd->pData++;
//  814   }
//  815   else
//  816   {
//  817     //Invalid app ID
//  818     return;
//  819   }
//  820   
//  821   command  = *pCmd->pData;
??CrossCallReturnLabel_21:
        MOV       ?V6,A
//  822   pCmd->pData++;
        INC       DPTR
        MOV       R0,DPL
        MOV       R1,DPH
        LCALL     ?Subroutine15 & 0xFFFF
//  823   payloadLen = *pCmd->pData;
??CrossCallReturnLabel_22:
        MOV       ?V3,A
//  824   pCmd->pData++;
        INC       DPTR
        INC       R0
        MOV       R1,DPH
        LCALL     ?Subroutine16 & 0xFFFF
//  825    
//  826   gp_DataReq = (gp_DataReq_t*)osal_msg_allocate(sizeof(gp_DataReq_t) + payloadLen);  
??CrossCallReturnLabel_144:
        ; Setup parameters for call to function osal_msg_allocate
        MOV       A,?V3
        ADD       A,#0x15
        MOV       R2,A
        CLR       A
        ADDC      A,#0x0
        MOV       R3,A
        LCALL     `??osal_msg_allocate::?relay`; Banked call to: osal_msg_allocate
        MOV       ?V4,R2
        MOV       ?V5,R3
        MOV       R6,?V4
        MOV       R7,?V5
//  827   
//  828   if(gp_DataReq == NULL)
        MOV       A,R6
        ORL       A,R7
        JNZ       $+5
        LJMP      ??zclGp_GpResponseCommandCB_0 & 0xFFFF
//  829   {
//  830     //FAIL no memory
//  831     return;
//  832   }
//  833   if(payloadLen == 0xFF)
        MOV       A,#-0x1
        XRL       A,?V3
        JNZ       ??zclGp_GpResponseCommandCB_1
//  834   {
//  835     payloadLen = 0;
        MOV       ?V3,#0x0
//  836   }
//  837   gp_DataReq->TxOptions = GP_OPT_USE_TX_QUEUE_MASK;
??zclGp_GpResponseCommandCB_1:
        MOV       A,R6
        ADD       A,#0x3
        LCALL     ?Subroutine42 & 0xFFFF
??CrossCallReturnLabel_64:
        MOV       A,#0x1
        LCALL     ?Subroutine12 & 0xFFFF
//  838   gp_DataReq->EndPoint = endpoint;
??CrossCallReturnLabel_17:
        CLR       A
        LCALL     ?Subroutine20 & 0xFFFF
//  839   osal_memcpy(gp_DataReq->GPDasdu,pCmd->pData,payloadLen);
??CrossCallReturnLabel_33:
        LCALL     ??Subroutine62_0 & 0xFFFF
??CrossCallReturnLabel_125:
        LCALL     ?PUSH_XSTACK_I_THREE
          CFI CFA_XSP16 add(XSP16, 96)
        MOV       R4,?V3
        MOV       R5,#0x0
        MOV       A,R6
        ADD       A,#0x14
        MOV       R2,A
        CLR       A
        ADDC      A,R7
        MOV       R3,A
        LCALL     `??osal_memcpy::?relay`; Banked call to: osal_memcpy
        MOV       A,#0x3
        LCALL     ?DEALLOC_XSTACK8
          CFI CFA_XSP16 add(XSP16, 93)
//  840   gp_DataReq->GPDasduLength = payloadLen;
        MOV       A,R6
        ADD       A,#0x13
        MOV       DPL,A
        CLR       A
        ADDC      A,R7
        MOV       DPH,A
        MOV       A,?V3
        LCALL     ?Subroutine11 & 0xFFFF
//  841   gp_DataReq->GPDCmmdId = command;
??CrossCallReturnLabel_16:
        MOV       A,?V6
        MOVX      @DPTR,A
//  842   osal_memcpy(&gp_DataReq->gpd_ID,&gpd_ID,sizeof(gpd_ID_t));
        ; Setup parameters for call to function osal_memcpy
        MOV       A,#0x4
        LCALL     ?XSTACK_DISP100_8
        MOV       ?V0,R0
        MOV       ?V1,R1
        MOV       R0,#?V0
        LCALL     ?PUSH_XSTACK_I_THREE
          CFI CFA_XSP16 add(XSP16, 96)
        MOV       R4,#0x9
        MOV       R5,#0x0
        MOV       A,R6
        ADD       A,#0x4
        MOV       R2,A
        CLR       A
        ADDC      A,R7
        MOV       R3,A
        LCALL     `??osal_memcpy::?relay`; Banked call to: osal_memcpy
        MOV       A,#0x3
        LCALL     ?DEALLOC_XSTACK8
          CFI CFA_XSP16 add(XSP16, 93)
//  843 
//  844   gp_DataReq->GPEPhandle = gp_GetHandle(GPEP_HANDLE_TYPE);
        ; Setup parameters for call to function gp_GetHandle
        MOV       R1,#0x1
        LCALL     `??gp_GetHandle::?relay`; Banked call to: gp_GetHandle
        MOV       A,R6
        ADD       A,#0xf
        MOV       DPL,A
        CLR       A
        ADDC      A,R7
        MOV       DPH,A
        MOV       A,R1
        MOVX      @DPTR,A
//  845       
//  846   gp_DataReq->hdr.event = GP_DATA_REQ;
        MOV       DPL,R6
        MOV       DPH,R7
        MOV       A,#0x5
        MOVX      @DPTR,A
//  847   gp_DataReq->hdr.status = 0;  
        INC       DPTR
        CLR       A
        LCALL     ?Subroutine6 & 0xFFFF
//  848   
//  849   if(pCmd->options & GP_RSP_CMD_OPT_TRANSMIT_ON_ENDPOINT_MATCH_MASK)
??CrossCallReturnLabel_3:
        MOV       C,0xE0 /* A   */.3
        JNC       ??zclGp_GpResponseCommandCB_2
//  850   {
//  851     gp_DataReq->TxOptions |= GP_OPT_TX_ON_MATCHING_ENDPOINT_MASK;
        MOV       DPL,?V4
        MOV       DPH,?V5
        MOVX      A,@DPTR
        SETB      0xE0 /* A   */.5
        MOVX      @DPTR,A
//  852   }
//  853   
//  854   //Validate the command being send as unicast and we are the tempMaster
//  855   if((pCmd->tempMasterShortAddr == _NIB.nwkDevAddress) && (pCmd->dstAddr == _NIB.nwkDevAddress))
??zclGp_GpResponseCommandCB_2:
        LCALL     ?Subroutine31 & 0xFFFF
??CrossCallReturnLabel_108:
        MOV       A,R6
        ADD       A,#0x2
        MOV       ?V0,A
        CLR       A
        ADDC      A,R7
        MOV       ?V1,A
        MOV       A,#0x2
        LCALL     ?XSTACK_DISP0_8
        MOVX      A,@DPTR
        MOV       R2,A
        INC       DPTR
        MOVX      A,@DPTR
        MOV       DPH,A
        MOV       DPL,R2
        INC       DPTR
        INC       DPTR
        INC       DPTR
        MOVX      A,@DPTR
        XRL       A,R0
        JNZ       ??zclGp_GpResponseCommandCB_3
        INC       DPTR
        MOVX      A,@DPTR
        XRL       A,R1
??zclGp_GpResponseCommandCB_3:
        JZ        $+5
        LJMP      ??zclGp_GpResponseCommandCB_4 & 0xFFFF
        MOV       A,#0x2
        LCALL     ?XSTACK_DISP0_8
        LCALL     ??Subroutine57_0 & 0xFFFF
??CrossCallReturnLabel_101:
        XRL       A,R0
        JNZ       ??zclGp_GpResponseCommandCB_5
        INC       DPTR
        MOVX      A,@DPTR
        XRL       A,R1
??zclGp_GpResponseCommandCB_5:
        JZ        $+5
        LJMP      ??zclGp_GpResponseCommandCB_4 & 0xFFFF
//  856   {
//  857     uint16 NvProxyTableIndex;
//  858     uint8  ProxyTableEntryTemp[PROXY_TBL_ENTRY_LEN];
//  859     
//  860     //Check if the entry exist, if so, set the first to forward flag to 1
//  861     if ( gp_getProxyTableByGpId(&gpd_ID,ProxyTableEntryTemp,&NvProxyTableIndex) == ZSuccess )
        ; Setup parameters for call to function gp_getProxyTableByGpId
        MOV       R0,?XSP + 0
        MOV       R1,?XSP + 1
        MOV       ?V2,R0
        MOV       ?V3,R1
        MOV       R0,#?V2
        LCALL     ?PUSH_XSTACK_I_TWO
          CFI CFA_XSP16 add(XSP16, 95)
        MOV       A,#0xf
        LCALL     ?XSTACK_DISP102_8
        MOV       A,#0x6
        LCALL     ?XSTACK_DISP101_8
        LCALL     `??gp_getProxyTableByGpId::?relay`; Banked call to: gp_getProxyTableByGpId
        MOV       A,#0x2
        LCALL     ?DEALLOC_XSTACK8
          CFI CFA_XSP16 add(XSP16, 93)
        MOV       A,R1
        JNZ       ??zclGp_GpResponseCommandCB_6
//  862     {
//  863       //Update FirstToForward to 1
//  864       if(PROXY_TBL_GET_FIRST_TO_FORWARD(ProxyTableEntryTemp[PROXY_TBL_ENTRY_OPT]) == 0)
        MOV       A,#0xd
        LCALL     ?XSTACK_DISP0_8
        MOVX      A,@DPTR
        MOV       C,0xE0 /* A   */.1
        JC        ??zclGp_GpResponseCommandCB_6
//  865       {
//  866         PROXY_TBL_SET_FIRST_TO_FORWARD(&ProxyTableEntryTemp[PROXY_TBL_ENTRY_OPT]);
        SETB      0xE0 /* A   */.1
        MOVX      @DPTR,A
//  867         osal_nv_write(NvProxyTableIndex,PROXY_TBL_ENTRY_OPT,2,&ProxyTableEntryTemp[PROXY_TBL_ENTRY_OPT]);
        ; Setup parameters for call to function osal_nv_write
        MOV       A,#0xd
        LCALL     ?XSTACK_DISP100_8
        MOV       ?V2,R0
        MOV       ?V3,R1
        MOV       R0,#?V2
        LCALL     ?PUSH_XSTACK_I_TWO
          CFI CFA_XSP16 add(XSP16, 95)
        MOV       ?V2,#0x2
        MOV       ?V3,#0x0
        MOV       R0,#?V2
        LCALL     ?PUSH_XSTACK_I_TWO
          CFI CFA_XSP16 add(XSP16, 97)
        MOV       R4,#0x0
        MOV       R5,#0x0
        MOV       A,#0x4
        LCALL     ?XSTACK_DISP0_8
        LCALL     ??Subroutine68_0 & 0xFFFF
//  868       }
//  869     }
??CrossCallReturnLabel_163:
        LCALL     `??osal_nv_write::?relay`; Banked call to: osal_nv_write
        MOV       A,#0x4
        LCALL     ?DEALLOC_XSTACK8
          CFI CFA_XSP16 add(XSP16, 93)
//  870     //Depends on TempMasterAddress
//  871     gp_DataReq->Action = TRUE;
??zclGp_GpResponseCommandCB_6:
        MOV       DPL,?V0
        MOV       DPH,?V1
        MOV       A,#0x1
        MOVX      @DPTR,A
//  872     
//  873     //Step 6 of Section A.3.9.1 The Procedure
//  874     //Check if we are in a different channel
//  875     if((pCmd->tempMasterTxChannel + 0x0B) != _NIB.nwkLogicalChannel)
        INC       A
        LCALL     ?XSTACK_DISP0_8
        MOVX      A,@DPTR
        ADD       A,#0x5
        LCALL     ?Subroutine32 & 0xFFFF
??CrossCallReturnLabel_47:
        MOV       DPL,?V0
        MOV       DPH,A
        MOVX      A,@DPTR
        MOV       R1,#0x0
        ADD       A,#0xb
        MOV       R0,A
        JNC       ??zclGp_GpResponseCommandCB_7
        INC       R1
??zclGp_GpResponseCommandCB_7:
        MOV       DPTR,#_NIB + 22
        MOVX      A,@DPTR
        XRL       A,R0
        JNZ       ??zclGp_GpResponseCommandCB_8
        MOV       A,R1
??zclGp_GpResponseCommandCB_8:
        JNZ       $+5
        LJMP      ??zclGp_GpResponseCommandCB_9 & 0xFFFF
//  876     {
//  877       //did we got permission to attend channel request?
//  878       if(osal_get_timeoutEx(gp_TaskID,GP_CHANNEL_CONFIGURATION_TIMEOUT))
        ; Setup parameters for call to function osal_get_timeoutEx
        MOV       R2,#0x8
        MOV       R3,#0x0
        MOV       DPTR,#gp_TaskID
        MOVX      A,@DPTR
        MOV       R1,A
        LCALL     `??osal_get_timeoutEx::?relay`; Banked call to: osal_get_timeoutEx
        MOV       A,R2
        ORL       A,R3
        ORL       A,R4
        ORL       A,R5
        JZ        ??zclGp_GpResponseCommandCB_9
//  879       {
//  880         gp_tempLogicalChannel = _NIB.nwkLogicalChannel;
        MOV       DPTR,#_NIB + 22
        MOVX      A,@DPTR
        MOV       DPTR,#gp_tempLogicalChannel
        LCALL     ?Subroutine20 & 0xFFFF
//  881         _NIB.nwkLogicalChannel = pCmd->tempMasterTxChannel;
??CrossCallReturnLabel_34:
        MOV       DPTR,#_NIB + 22
        MOVX      @DPTR,A
//  882         ZMacSetReq( ZMacChannel, &(_NIB.nwkLogicalChannel) );
        ; Setup parameters for call to function ZMacSetReq
        MOV       R2,#(_NIB + 22) & 0xff
        MOV       R3,#((_NIB + 22) >> 8) & 0xff
        MOV       R1,#-0x1f
        LCALL     `??ZMacSetReq::?relay`; Banked call to: ZMacSetReq
        SJMP      ??zclGp_GpResponseCommandCB_9
//  883       }
//  884     }
//  885   }
//  886   else
//  887   {
//  888     uint16 NvProxyTableIndex;
//  889     uint8  ProxyTableEntryTemp[PROXY_TBL_ENTRY_LEN];
//  890        
//  891     //We are not the tempMaster or this was not a unicast to us, set the first to forward flag to 0
//  892     if( gp_getProxyTableByGpId(&gpd_ID,ProxyTableEntryTemp,&NvProxyTableIndex) == ZSuccess )
??zclGp_GpResponseCommandCB_4:
        ; Setup parameters for call to function gp_getProxyTableByGpId
        MOV       R0,?XSP + 0
        MOV       R1,?XSP + 1
        MOV       ?V2,R0
        MOV       ?V3,R1
        MOV       R0,#?V2
        LCALL     ?PUSH_XSTACK_I_TWO
          CFI CFA_XSP16 add(XSP16, 95)
        MOV       A,#0xf
        LCALL     ?XSTACK_DISP102_8
        MOV       A,#0x6
        LCALL     ?XSTACK_DISP101_8
        LCALL     `??gp_getProxyTableByGpId::?relay`; Banked call to: gp_getProxyTableByGpId
        MOV       A,#0x2
        LCALL     ?DEALLOC_XSTACK8
          CFI CFA_XSP16 add(XSP16, 93)
        MOV       A,R1
        JNZ       ??zclGp_GpResponseCommandCB_10
//  893     {
//  894       if(PROXY_TBL_GET_FIRST_TO_FORWARD(ProxyTableEntryTemp[PROXY_TBL_ENTRY_OPT]) == 1)
        MOV       A,#0xd
        LCALL     ?XSTACK_DISP0_8
        MOVX      A,@DPTR
        MOV       C,0xE0 /* A   */.1
        JNC       ??zclGp_GpResponseCommandCB_10
//  895       {
//  896         PROXY_TBL_SET_FIRST_TO_FORWARD(&ProxyTableEntryTemp[PROXY_TBL_ENTRY_OPT]);
        SETB      0xE0 /* A   */.1
        MOVX      @DPTR,A
//  897         osal_nv_write(NvProxyTableIndex,PROXY_TBL_ENTRY_OPT,2,&ProxyTableEntryTemp[PROXY_TBL_ENTRY_OPT]);
        ; Setup parameters for call to function osal_nv_write
        MOV       A,#0xd
        LCALL     ?XSTACK_DISP100_8
        MOV       ?V2,R0
        MOV       ?V3,R1
        MOV       R0,#?V2
        LCALL     ?PUSH_XSTACK_I_TWO
          CFI CFA_XSP16 add(XSP16, 95)
        MOV       ?V2,#0x2
        MOV       ?V3,#0x0
        MOV       R0,#?V2
        LCALL     ?PUSH_XSTACK_I_TWO
          CFI CFA_XSP16 add(XSP16, 97)
        MOV       R4,#0x0
        MOV       R5,#0x0
        MOV       A,#0x4
        LCALL     ?XSTACK_DISP0_8
        LCALL     ??Subroutine68_0 & 0xFFFF
//  898       } 
//  899     }
??CrossCallReturnLabel_164:
        LCALL     `??osal_nv_write::?relay`; Banked call to: osal_nv_write
        MOV       A,#0x4
        LCALL     ?DEALLOC_XSTACK8
          CFI CFA_XSP16 add(XSP16, 93)
//  900     
//  901     //Also remove any packet to the GPD
//  902     gp_DataReq->Action = 0;
??zclGp_GpResponseCommandCB_10:
        MOV       DPL,?V0
        MOV       DPH,?V1
        CLR       A
        MOVX      @DPTR,A
//  903   }
//  904   
//  905   osal_msg_send(gp_TaskID,(uint8*)gp_DataReq);
??zclGp_GpResponseCommandCB_9:
        ; Setup parameters for call to function osal_msg_send
        MOV       A,R6
        MOV       R2,A
        MOV       A,R7
        MOV       R3,A
        MOV       DPTR,#gp_TaskID
        MOVX      A,@DPTR
        MOV       R1,A
        LCALL     `??osal_msg_send::?relay`; Banked call to: osal_msg_send
//  906 }
??zclGp_GpResponseCommandCB_0:
        MOV       A,#0x4e
          CFI EndBlock cfiBlock97
        REQUIRE ?Subroutine2
        ; // Fall through to label ?Subroutine2

        RSEG BANKED_CODE:HUGECODE:NOROOT(0)
?Subroutine2:
          CFI Block cfiBlock98 Using cfiCommon0
          CFI NoFunction
          CFI CFA_SP SP+0
          CFI CFA_XSP16 add(XSP16, 86)
          CFI VB load(1, XDATA, add(CFA_XSP16, literal(-14)))
          CFI DPL0 load(1, XDATA, add(CFA_XSP16, literal(-2)))
          CFI DPH0 load(1, XDATA, add(CFA_XSP16, literal(-1)))
          CFI R6 load(1, XDATA, add(CFA_XSP16, literal(-15)))
          CFI R7 load(1, XDATA, add(CFA_XSP16, literal(-6)))
          CFI V0 load(1, XDATA, add(CFA_XSP16, literal(-13)))
          CFI V1 load(1, XDATA, add(CFA_XSP16, literal(-12)))
          CFI V2 load(1, XDATA, add(CFA_XSP16, literal(-11)))
          CFI V3 load(1, XDATA, add(CFA_XSP16, literal(-10)))
          CFI V4 load(1, XDATA, add(CFA_XSP16, literal(-9)))
          CFI V5 load(1, XDATA, add(CFA_XSP16, literal(-8)))
          CFI V6 load(1, XDATA, add(CFA_XSP16, literal(-7)))
          CFI ?BRET_EXT load(1, XDATA, add(CFA_XSP16, literal(-3)))
          CFI ?RET_HIGH load(1, XDATA, add(CFA_XSP16, literal(-4)))
          CFI ?RET_LOW load(1, XDATA, add(CFA_XSP16, literal(-5)))
          CFI Invalid
        LCALL     ?DEALLOC_XSTACK8
          CFI CFA_XSP16 add(XSP16, 15)
          CFI Valid
        MOV       R7,#0x7
        LJMP      ?BANKED_LEAVE_XDATA
          CFI EndBlock cfiBlock98

        RSEG BANKED_CODE:HUGECODE:NOROOT(0)
?Subroutine32:
          CFI Block cfiCond99 Using cfiCommon0
          CFI Function zclGp_DataIndParse
          CFI Conditional ??CrossCallReturnLabel_45
          CFI R6 load(1, XDATA, add(CFA_XSP16, literal(-15)))
          CFI VB load(1, XDATA, add(CFA_XSP16, literal(-14)))
          CFI V0 load(1, XDATA, add(CFA_XSP16, literal(-13)))
          CFI V1 load(1, XDATA, add(CFA_XSP16, literal(-12)))
          CFI V2 load(1, XDATA, add(CFA_XSP16, literal(-11)))
          CFI V3 load(1, XDATA, add(CFA_XSP16, literal(-10)))
          CFI V4 load(1, XDATA, add(CFA_XSP16, literal(-9)))
          CFI V5 load(1, XDATA, add(CFA_XSP16, literal(-8)))
          CFI V6 load(1, XDATA, add(CFA_XSP16, literal(-7)))
          CFI R7 load(1, XDATA, add(CFA_XSP16, literal(-6)))
          CFI ?RET_LOW load(1, XDATA, add(CFA_XSP16, literal(-5)))
          CFI ?RET_HIGH load(1, XDATA, add(CFA_XSP16, literal(-4)))
          CFI ?BRET_EXT load(1, XDATA, add(CFA_XSP16, literal(-3)))
          CFI DPL0 load(1, XDATA, add(CFA_XSP16, literal(-2)))
          CFI DPH0 load(1, XDATA, add(CFA_XSP16, literal(-1)))
          CFI CFA_SP SP+-2
          CFI CFA_XSP16 add(XSP16, 86)
          CFI Block cfiCond100 Using cfiCommon0
          CFI (cfiCond100) Function zclGp_GpResponseCommandCB
          CFI (cfiCond100) Conditional ??CrossCallReturnLabel_46
          CFI (cfiCond100) R6 load(1, XDATA, add(CFA_XSP16, literal(-15)))
          CFI (cfiCond100) VB load(1, XDATA, add(CFA_XSP16, literal(-14)))
          CFI (cfiCond100) V0 load(1, XDATA, add(CFA_XSP16, literal(-13)))
          CFI (cfiCond100) V1 load(1, XDATA, add(CFA_XSP16, literal(-12)))
          CFI (cfiCond100) V2 load(1, XDATA, add(CFA_XSP16, literal(-11)))
          CFI (cfiCond100) V3 load(1, XDATA, add(CFA_XSP16, literal(-10)))
          CFI (cfiCond100) V4 load(1, XDATA, add(CFA_XSP16, literal(-9)))
          CFI (cfiCond100) V5 load(1, XDATA, add(CFA_XSP16, literal(-8)))
          CFI (cfiCond100) V6 load(1, XDATA, add(CFA_XSP16, literal(-7)))
          CFI (cfiCond100) R7 load(1, XDATA, add(CFA_XSP16, literal(-6)))
          CFI (cfiCond100) ?RET_LOW load(1, XDATA, add(CFA_XSP16, literal(-5)))
          CFI (cfiCond100) ?RET_HIGH load(1, XDATA, add(CFA_XSP16, literal(-4)))
          CFI (cfiCond100) ?BRET_EXT load(1, XDATA, add(CFA_XSP16, literal(-3)))
          CFI (cfiCond100) DPL0 load(1, XDATA, add(CFA_XSP16, literal(-2)))
          CFI (cfiCond100) DPH0 load(1, XDATA, add(CFA_XSP16, literal(-1)))
          CFI (cfiCond100) CFA_SP SP+-2
          CFI (cfiCond100) CFA_XSP16 add(XSP16, 93)
          CFI Block cfiCond101 Using cfiCommon0
          CFI (cfiCond101) Function zclGp_GpResponseCommandCB
          CFI (cfiCond101) Conditional ??CrossCallReturnLabel_47
          CFI (cfiCond101) R6 load(1, XDATA, add(CFA_XSP16, literal(-15)))
          CFI (cfiCond101) VB load(1, XDATA, add(CFA_XSP16, literal(-14)))
          CFI (cfiCond101) V0 load(1, XDATA, add(CFA_XSP16, literal(-13)))
          CFI (cfiCond101) V1 load(1, XDATA, add(CFA_XSP16, literal(-12)))
          CFI (cfiCond101) V2 load(1, XDATA, add(CFA_XSP16, literal(-11)))
          CFI (cfiCond101) V3 load(1, XDATA, add(CFA_XSP16, literal(-10)))
          CFI (cfiCond101) V4 load(1, XDATA, add(CFA_XSP16, literal(-9)))
          CFI (cfiCond101) V5 load(1, XDATA, add(CFA_XSP16, literal(-8)))
          CFI (cfiCond101) V6 load(1, XDATA, add(CFA_XSP16, literal(-7)))
          CFI (cfiCond101) R7 load(1, XDATA, add(CFA_XSP16, literal(-6)))
          CFI (cfiCond101) ?RET_LOW load(1, XDATA, add(CFA_XSP16, literal(-5)))
          CFI (cfiCond101) ?RET_HIGH load(1, XDATA, add(CFA_XSP16, literal(-4)))
          CFI (cfiCond101) ?BRET_EXT load(1, XDATA, add(CFA_XSP16, literal(-3)))
          CFI (cfiCond101) DPL0 load(1, XDATA, add(CFA_XSP16, literal(-2)))
          CFI (cfiCond101) DPH0 load(1, XDATA, add(CFA_XSP16, literal(-1)))
          CFI (cfiCond101) CFA_SP SP+-2
          CFI (cfiCond101) CFA_XSP16 add(XSP16, 93)
          CFI Block cfiCond102 Using cfiCommon0
          CFI (cfiCond102) Function gp_getProxyTableByGpId
          CFI (cfiCond102) Conditional ??CrossCallReturnLabel_48
          CFI (cfiCond102) R6 load(1, XDATA, add(CFA_XSP16, literal(-15)))
          CFI (cfiCond102) VB load(1, XDATA, add(CFA_XSP16, literal(-14)))
          CFI (cfiCond102) V0 load(1, XDATA, add(CFA_XSP16, literal(-13)))
          CFI (cfiCond102) V1 load(1, XDATA, add(CFA_XSP16, literal(-12)))
          CFI (cfiCond102) V2 load(1, XDATA, add(CFA_XSP16, literal(-11)))
          CFI (cfiCond102) V3 load(1, XDATA, add(CFA_XSP16, literal(-10)))
          CFI (cfiCond102) V4 load(1, XDATA, add(CFA_XSP16, literal(-9)))
          CFI (cfiCond102) V5 load(1, XDATA, add(CFA_XSP16, literal(-8)))
          CFI (cfiCond102) V6 load(1, XDATA, add(CFA_XSP16, literal(-7)))
          CFI (cfiCond102) R7 load(1, XDATA, add(CFA_XSP16, literal(-6)))
          CFI (cfiCond102) ?RET_LOW load(1, XDATA, add(CFA_XSP16, literal(-5)))
          CFI (cfiCond102) ?RET_HIGH load(1, XDATA, add(CFA_XSP16, literal(-4)))
          CFI (cfiCond102) ?BRET_EXT load(1, XDATA, add(CFA_XSP16, literal(-3)))
          CFI (cfiCond102) DPL0 load(1, XDATA, add(CFA_XSP16, literal(-2)))
          CFI (cfiCond102) DPH0 load(1, XDATA, add(CFA_XSP16, literal(-1)))
          CFI (cfiCond102) CFA_SP SP+-2
          CFI (cfiCond102) CFA_XSP16 add(XSP16, 19)
          CFI Block cfiPicker103 Using cfiCommon1
          CFI (cfiPicker103) NoFunction
          CFI (cfiPicker103) Picker
        MOV       ?V0,A
        INC       DPTR
        MOVX      A,@DPTR
        ADDC      A,#0x0
        MOV       ?V1,A
        RET
          CFI EndBlock cfiCond99
          CFI EndBlock cfiCond100
          CFI EndBlock cfiCond101
          CFI EndBlock cfiCond102
          CFI EndBlock cfiPicker103

        RSEG BANKED_CODE:HUGECODE:NOROOT(0)
?Subroutine20:
          CFI Block cfiCond104 Using cfiCommon0
          CFI Function zclGp_GpResponseCommandCB
          CFI Conditional ??CrossCallReturnLabel_33
          CFI R6 load(1, XDATA, add(CFA_XSP16, literal(-15)))
          CFI VB load(1, XDATA, add(CFA_XSP16, literal(-14)))
          CFI V0 load(1, XDATA, add(CFA_XSP16, literal(-13)))
          CFI V1 load(1, XDATA, add(CFA_XSP16, literal(-12)))
          CFI V2 load(1, XDATA, add(CFA_XSP16, literal(-11)))
          CFI V3 load(1, XDATA, add(CFA_XSP16, literal(-10)))
          CFI V4 load(1, XDATA, add(CFA_XSP16, literal(-9)))
          CFI V5 load(1, XDATA, add(CFA_XSP16, literal(-8)))
          CFI V6 load(1, XDATA, add(CFA_XSP16, literal(-7)))
          CFI R7 load(1, XDATA, add(CFA_XSP16, literal(-6)))
          CFI ?RET_LOW load(1, XDATA, add(CFA_XSP16, literal(-5)))
          CFI ?RET_HIGH load(1, XDATA, add(CFA_XSP16, literal(-4)))
          CFI ?BRET_EXT load(1, XDATA, add(CFA_XSP16, literal(-3)))
          CFI DPL0 load(1, XDATA, add(CFA_XSP16, literal(-2)))
          CFI DPH0 load(1, XDATA, add(CFA_XSP16, literal(-1)))
          CFI CFA_SP SP+-2
          CFI CFA_XSP16 add(XSP16, 93)
          CFI Block cfiCond105 Using cfiCommon0
          CFI (cfiCond105) Function zclGp_GpResponseCommandCB
          CFI (cfiCond105) Conditional ??CrossCallReturnLabel_34
          CFI (cfiCond105) R6 load(1, XDATA, add(CFA_XSP16, literal(-15)))
          CFI (cfiCond105) VB load(1, XDATA, add(CFA_XSP16, literal(-14)))
          CFI (cfiCond105) V0 load(1, XDATA, add(CFA_XSP16, literal(-13)))
          CFI (cfiCond105) V1 load(1, XDATA, add(CFA_XSP16, literal(-12)))
          CFI (cfiCond105) V2 load(1, XDATA, add(CFA_XSP16, literal(-11)))
          CFI (cfiCond105) V3 load(1, XDATA, add(CFA_XSP16, literal(-10)))
          CFI (cfiCond105) V4 load(1, XDATA, add(CFA_XSP16, literal(-9)))
          CFI (cfiCond105) V5 load(1, XDATA, add(CFA_XSP16, literal(-8)))
          CFI (cfiCond105) V6 load(1, XDATA, add(CFA_XSP16, literal(-7)))
          CFI (cfiCond105) R7 load(1, XDATA, add(CFA_XSP16, literal(-6)))
          CFI (cfiCond105) ?RET_LOW load(1, XDATA, add(CFA_XSP16, literal(-5)))
          CFI (cfiCond105) ?RET_HIGH load(1, XDATA, add(CFA_XSP16, literal(-4)))
          CFI (cfiCond105) ?BRET_EXT load(1, XDATA, add(CFA_XSP16, literal(-3)))
          CFI (cfiCond105) DPL0 load(1, XDATA, add(CFA_XSP16, literal(-2)))
          CFI (cfiCond105) DPH0 load(1, XDATA, add(CFA_XSP16, literal(-1)))
          CFI (cfiCond105) CFA_SP SP+-2
          CFI (cfiCond105) CFA_XSP16 add(XSP16, 93)
          CFI Block cfiPicker106 Using cfiCommon1
          CFI (cfiPicker106) NoFunction
          CFI (cfiPicker106) Picker
        MOVX      @DPTR,A
        ; Setup parameters for call to function osal_memcpy
        MOV       DPL,?V0
        MOV       DPH,?V1
        MOVX      A,@DPTR
        RET
          CFI EndBlock cfiCond104
          CFI EndBlock cfiCond105
          CFI EndBlock cfiPicker106

        RSEG BANKED_CODE:HUGECODE:NOROOT(0)
?Subroutine15:
          CFI Block cfiCond107 Using cfiCommon0
          CFI Function zclGp_GpResponseCommandCB
          CFI Conditional ??CrossCallReturnLabel_21
          CFI R6 load(1, XDATA, add(CFA_XSP16, literal(-15)))
          CFI VB load(1, XDATA, add(CFA_XSP16, literal(-14)))
          CFI V0 load(1, XDATA, add(CFA_XSP16, literal(-13)))
          CFI V1 load(1, XDATA, add(CFA_XSP16, literal(-12)))
          CFI V2 load(1, XDATA, add(CFA_XSP16, literal(-11)))
          CFI V3 load(1, XDATA, add(CFA_XSP16, literal(-10)))
          CFI V4 load(1, XDATA, add(CFA_XSP16, literal(-9)))
          CFI V5 load(1, XDATA, add(CFA_XSP16, literal(-8)))
          CFI V6 load(1, XDATA, add(CFA_XSP16, literal(-7)))
          CFI R7 load(1, XDATA, add(CFA_XSP16, literal(-6)))
          CFI ?RET_LOW load(1, XDATA, add(CFA_XSP16, literal(-5)))
          CFI ?RET_HIGH load(1, XDATA, add(CFA_XSP16, literal(-4)))
          CFI ?BRET_EXT load(1, XDATA, add(CFA_XSP16, literal(-3)))
          CFI DPL0 load(1, XDATA, add(CFA_XSP16, literal(-2)))
          CFI DPH0 load(1, XDATA, add(CFA_XSP16, literal(-1)))
          CFI CFA_SP SP+-2
          CFI CFA_XSP16 add(XSP16, 93)
          CFI Block cfiCond108 Using cfiCommon0
          CFI (cfiCond108) Function zclGp_GpResponseCommandCB
          CFI (cfiCond108) Conditional ??CrossCallReturnLabel_22
          CFI (cfiCond108) R6 load(1, XDATA, add(CFA_XSP16, literal(-15)))
          CFI (cfiCond108) VB load(1, XDATA, add(CFA_XSP16, literal(-14)))
          CFI (cfiCond108) V0 load(1, XDATA, add(CFA_XSP16, literal(-13)))
          CFI (cfiCond108) V1 load(1, XDATA, add(CFA_XSP16, literal(-12)))
          CFI (cfiCond108) V2 load(1, XDATA, add(CFA_XSP16, literal(-11)))
          CFI (cfiCond108) V3 load(1, XDATA, add(CFA_XSP16, literal(-10)))
          CFI (cfiCond108) V4 load(1, XDATA, add(CFA_XSP16, literal(-9)))
          CFI (cfiCond108) V5 load(1, XDATA, add(CFA_XSP16, literal(-8)))
          CFI (cfiCond108) V6 load(1, XDATA, add(CFA_XSP16, literal(-7)))
          CFI (cfiCond108) R7 load(1, XDATA, add(CFA_XSP16, literal(-6)))
          CFI (cfiCond108) ?RET_LOW load(1, XDATA, add(CFA_XSP16, literal(-5)))
          CFI (cfiCond108) ?RET_HIGH load(1, XDATA, add(CFA_XSP16, literal(-4)))
          CFI (cfiCond108) ?BRET_EXT load(1, XDATA, add(CFA_XSP16, literal(-3)))
          CFI (cfiCond108) DPL0 load(1, XDATA, add(CFA_XSP16, literal(-2)))
          CFI (cfiCond108) DPH0 load(1, XDATA, add(CFA_XSP16, literal(-1)))
          CFI (cfiCond108) CFA_SP SP+-2
          CFI (cfiCond108) CFA_XSP16 add(XSP16, 93)
          CFI Block cfiPicker109 Using cfiCommon1
          CFI (cfiPicker109) NoFunction
          CFI (cfiPicker109) Picker
        MOV       DPL,?V0
        MOV       DPH,?V1
        MOV       A,R0
        MOVX      @DPTR,A
        INC       DPTR
        MOV       A,R1
        MOVX      @DPTR,A
        MOV       DPL,R0
        MOV       DPH,R1
        MOVX      A,@DPTR
        RET
          CFI EndBlock cfiCond107
          CFI EndBlock cfiCond108
          CFI EndBlock cfiPicker109

        RSEG BANKED_CODE:HUGECODE:NOROOT(0)
?Subroutine11:
          CFI Block cfiCond110 Using cfiCommon0
          CFI Function zclGp_ManteinanceIndParse
          CFI Conditional ??CrossCallReturnLabel_15
          CFI R6 load(1, XDATA, add(CFA_XSP16, literal(-16)))
          CFI VB load(1, XDATA, add(CFA_XSP16, literal(-15)))
          CFI V0 load(1, XDATA, add(CFA_XSP16, literal(-14)))
          CFI V1 load(1, XDATA, add(CFA_XSP16, literal(-13)))
          CFI V2 load(1, XDATA, add(CFA_XSP16, literal(-12)))
          CFI V3 load(1, XDATA, add(CFA_XSP16, literal(-11)))
          CFI V4 load(1, XDATA, add(CFA_XSP16, literal(-10)))
          CFI V5 load(1, XDATA, add(CFA_XSP16, literal(-9)))
          CFI V6 load(1, XDATA, add(CFA_XSP16, literal(-8)))
          CFI V7 load(1, XDATA, add(CFA_XSP16, literal(-7)))
          CFI R7 load(1, XDATA, add(CFA_XSP16, literal(-6)))
          CFI ?RET_LOW load(1, XDATA, add(CFA_XSP16, literal(-5)))
          CFI ?RET_HIGH load(1, XDATA, add(CFA_XSP16, literal(-4)))
          CFI ?BRET_EXT load(1, XDATA, add(CFA_XSP16, literal(-3)))
          CFI DPL0 load(1, XDATA, add(CFA_XSP16, literal(-2)))
          CFI DPH0 load(1, XDATA, add(CFA_XSP16, literal(-1)))
          CFI CFA_SP SP+-2
          CFI CFA_XSP16 add(XSP16, 18)
          CFI Block cfiCond111 Using cfiCommon0
          CFI (cfiCond111) Function zclGp_GpResponseCommandCB
          CFI (cfiCond111) Conditional ??CrossCallReturnLabel_16
          CFI (cfiCond111) R6 load(1, XDATA, add(CFA_XSP16, literal(-15)))
          CFI (cfiCond111) VB load(1, XDATA, add(CFA_XSP16, literal(-14)))
          CFI (cfiCond111) V0 load(1, XDATA, add(CFA_XSP16, literal(-13)))
          CFI (cfiCond111) V1 load(1, XDATA, add(CFA_XSP16, literal(-12)))
          CFI (cfiCond111) V2 load(1, XDATA, add(CFA_XSP16, literal(-11)))
          CFI (cfiCond111) V3 load(1, XDATA, add(CFA_XSP16, literal(-10)))
          CFI (cfiCond111) V4 load(1, XDATA, add(CFA_XSP16, literal(-9)))
          CFI (cfiCond111) V5 load(1, XDATA, add(CFA_XSP16, literal(-8)))
          CFI (cfiCond111) V6 load(1, XDATA, add(CFA_XSP16, literal(-7)))
          CFI (cfiCond111) R7 load(1, XDATA, add(CFA_XSP16, literal(-6)))
          CFI (cfiCond111) ?RET_LOW load(1, XDATA, add(CFA_XSP16, literal(-5)))
          CFI (cfiCond111) ?RET_HIGH load(1, XDATA, add(CFA_XSP16, literal(-4)))
          CFI (cfiCond111) ?BRET_EXT load(1, XDATA, add(CFA_XSP16, literal(-3)))
          CFI (cfiCond111) DPL0 load(1, XDATA, add(CFA_XSP16, literal(-2)))
          CFI (cfiCond111) DPH0 load(1, XDATA, add(CFA_XSP16, literal(-1)))
          CFI (cfiCond111) CFA_SP SP+-2
          CFI (cfiCond111) CFA_XSP16 add(XSP16, 93)
          CFI Block cfiPicker112 Using cfiCommon1
          CFI (cfiPicker112) NoFunction
          CFI (cfiPicker112) Picker
        MOVX      @DPTR,A
        MOV       A,R6
        ADD       A,#0xe
        MOV       DPL,A
        CLR       A
        ADDC      A,R7
        MOV       DPH,A
        RET
          CFI EndBlock cfiCond110
          CFI EndBlock cfiCond111
          CFI EndBlock cfiPicker112

        RSEG BANKED_CODE:HUGECODE:NOROOT(0)
?Subroutine6:
          CFI Block cfiCond113 Using cfiCommon0
          CFI Function zclGp_GpResponseCommandCB
          CFI Conditional ??CrossCallReturnLabel_4
          CFI R6 load(1, XDATA, add(CFA_XSP16, literal(-15)))
          CFI VB load(1, XDATA, add(CFA_XSP16, literal(-14)))
          CFI V0 load(1, XDATA, add(CFA_XSP16, literal(-13)))
          CFI V1 load(1, XDATA, add(CFA_XSP16, literal(-12)))
          CFI V2 load(1, XDATA, add(CFA_XSP16, literal(-11)))
          CFI V3 load(1, XDATA, add(CFA_XSP16, literal(-10)))
          CFI V4 load(1, XDATA, add(CFA_XSP16, literal(-9)))
          CFI V5 load(1, XDATA, add(CFA_XSP16, literal(-8)))
          CFI V6 load(1, XDATA, add(CFA_XSP16, literal(-7)))
          CFI R7 load(1, XDATA, add(CFA_XSP16, literal(-6)))
          CFI ?RET_LOW load(1, XDATA, add(CFA_XSP16, literal(-5)))
          CFI ?RET_HIGH load(1, XDATA, add(CFA_XSP16, literal(-4)))
          CFI ?BRET_EXT load(1, XDATA, add(CFA_XSP16, literal(-3)))
          CFI DPL0 load(1, XDATA, add(CFA_XSP16, literal(-2)))
          CFI DPH0 load(1, XDATA, add(CFA_XSP16, literal(-1)))
          CFI CFA_SP SP+-2
          CFI CFA_XSP16 add(XSP16, 93)
          CFI Block cfiCond114 Using cfiCommon0
          CFI (cfiCond114) Function zclGp_GpResponseCommandCB
          CFI (cfiCond114) Conditional ??CrossCallReturnLabel_3
          CFI (cfiCond114) R6 load(1, XDATA, add(CFA_XSP16, literal(-15)))
          CFI (cfiCond114) VB load(1, XDATA, add(CFA_XSP16, literal(-14)))
          CFI (cfiCond114) V0 load(1, XDATA, add(CFA_XSP16, literal(-13)))
          CFI (cfiCond114) V1 load(1, XDATA, add(CFA_XSP16, literal(-12)))
          CFI (cfiCond114) V2 load(1, XDATA, add(CFA_XSP16, literal(-11)))
          CFI (cfiCond114) V3 load(1, XDATA, add(CFA_XSP16, literal(-10)))
          CFI (cfiCond114) V4 load(1, XDATA, add(CFA_XSP16, literal(-9)))
          CFI (cfiCond114) V5 load(1, XDATA, add(CFA_XSP16, literal(-8)))
          CFI (cfiCond114) V6 load(1, XDATA, add(CFA_XSP16, literal(-7)))
          CFI (cfiCond114) R7 load(1, XDATA, add(CFA_XSP16, literal(-6)))
          CFI (cfiCond114) ?RET_LOW load(1, XDATA, add(CFA_XSP16, literal(-5)))
          CFI (cfiCond114) ?RET_HIGH load(1, XDATA, add(CFA_XSP16, literal(-4)))
          CFI (cfiCond114) ?BRET_EXT load(1, XDATA, add(CFA_XSP16, literal(-3)))
          CFI (cfiCond114) DPL0 load(1, XDATA, add(CFA_XSP16, literal(-2)))
          CFI (cfiCond114) DPH0 load(1, XDATA, add(CFA_XSP16, literal(-1)))
          CFI (cfiCond114) CFA_SP SP+-2
          CFI (cfiCond114) CFA_XSP16 add(XSP16, 93)
          CFI Block cfiPicker115 Using cfiCommon1
          CFI (cfiPicker115) NoFunction
          CFI (cfiPicker115) Picker
        LCALL     ?Subroutine50 & 0xFFFF
??CrossCallReturnLabel_86:
        MOV       DPH,A
        MOV       DPL,R0
        MOVX      A,@DPTR
        RET
          CFI EndBlock cfiCond113
          CFI EndBlock cfiCond114
          CFI EndBlock cfiPicker115

        RSEG BANKED_CODE:HUGECODE:NOROOT(0)
?Subroutine50:
          CFI Block cfiCond116 Using cfiCommon0
          CFI Function zclGp_DataIndParse
          CFI Conditional ??CrossCallReturnLabel_85, ??CrossCallReturnLabel_0
          CFI R6 load(1, XDATA, add(CFA_XSP16, literal(-15)))
          CFI VB load(1, XDATA, add(CFA_XSP16, literal(-14)))
          CFI V0 load(1, XDATA, add(CFA_XSP16, literal(-13)))
          CFI V1 load(1, XDATA, add(CFA_XSP16, literal(-12)))
          CFI V2 load(1, XDATA, add(CFA_XSP16, literal(-11)))
          CFI V3 load(1, XDATA, add(CFA_XSP16, literal(-10)))
          CFI V4 load(1, XDATA, add(CFA_XSP16, literal(-9)))
          CFI V5 load(1, XDATA, add(CFA_XSP16, literal(-8)))
          CFI V6 load(1, XDATA, add(CFA_XSP16, literal(-7)))
          CFI R7 load(1, XDATA, add(CFA_XSP16, literal(-6)))
          CFI ?RET_LOW load(1, XDATA, add(CFA_XSP16, literal(-5)))
          CFI ?RET_HIGH load(1, XDATA, add(CFA_XSP16, literal(-4)))
          CFI ?BRET_EXT load(1, XDATA, add(CFA_XSP16, literal(-3)))
          CFI DPL0 load(1, XDATA, add(CFA_XSP16, literal(-2)))
          CFI DPH0 load(1, XDATA, add(CFA_XSP16, literal(-1)))
          CFI CFA_SP SP+-4
          CFI CFA_XSP16 add(XSP16, 86)
          CFI Block cfiCond117 Using cfiCommon0
          CFI (cfiCond117) Function zclGp_DataIndParse
          CFI (cfiCond117) Conditional ??CrossCallReturnLabel_85, ??CrossCallReturnLabel_1
          CFI (cfiCond117) R6 load(1, XDATA, add(CFA_XSP16, literal(-15)))
          CFI (cfiCond117) VB load(1, XDATA, add(CFA_XSP16, literal(-14)))
          CFI (cfiCond117) V0 load(1, XDATA, add(CFA_XSP16, literal(-13)))
          CFI (cfiCond117) V1 load(1, XDATA, add(CFA_XSP16, literal(-12)))
          CFI (cfiCond117) V2 load(1, XDATA, add(CFA_XSP16, literal(-11)))
          CFI (cfiCond117) V3 load(1, XDATA, add(CFA_XSP16, literal(-10)))
          CFI (cfiCond117) V4 load(1, XDATA, add(CFA_XSP16, literal(-9)))
          CFI (cfiCond117) V5 load(1, XDATA, add(CFA_XSP16, literal(-8)))
          CFI (cfiCond117) V6 load(1, XDATA, add(CFA_XSP16, literal(-7)))
          CFI (cfiCond117) R7 load(1, XDATA, add(CFA_XSP16, literal(-6)))
          CFI (cfiCond117) ?RET_LOW load(1, XDATA, add(CFA_XSP16, literal(-5)))
          CFI (cfiCond117) ?RET_HIGH load(1, XDATA, add(CFA_XSP16, literal(-4)))
          CFI (cfiCond117) ?BRET_EXT load(1, XDATA, add(CFA_XSP16, literal(-3)))
          CFI (cfiCond117) DPL0 load(1, XDATA, add(CFA_XSP16, literal(-2)))
          CFI (cfiCond117) DPH0 load(1, XDATA, add(CFA_XSP16, literal(-1)))
          CFI (cfiCond117) CFA_SP SP+-4
          CFI (cfiCond117) CFA_XSP16 add(XSP16, 86)
          CFI Block cfiCond118 Using cfiCommon0
          CFI (cfiCond118) Function zclGp_DataIndParse
          CFI (cfiCond118) Conditional ??CrossCallReturnLabel_85, ??CrossCallReturnLabel_2
          CFI (cfiCond118) R6 load(1, XDATA, add(CFA_XSP16, literal(-15)))
          CFI (cfiCond118) VB load(1, XDATA, add(CFA_XSP16, literal(-14)))
          CFI (cfiCond118) V0 load(1, XDATA, add(CFA_XSP16, literal(-13)))
          CFI (cfiCond118) V1 load(1, XDATA, add(CFA_XSP16, literal(-12)))
          CFI (cfiCond118) V2 load(1, XDATA, add(CFA_XSP16, literal(-11)))
          CFI (cfiCond118) V3 load(1, XDATA, add(CFA_XSP16, literal(-10)))
          CFI (cfiCond118) V4 load(1, XDATA, add(CFA_XSP16, literal(-9)))
          CFI (cfiCond118) V5 load(1, XDATA, add(CFA_XSP16, literal(-8)))
          CFI (cfiCond118) V6 load(1, XDATA, add(CFA_XSP16, literal(-7)))
          CFI (cfiCond118) R7 load(1, XDATA, add(CFA_XSP16, literal(-6)))
          CFI (cfiCond118) ?RET_LOW load(1, XDATA, add(CFA_XSP16, literal(-5)))
          CFI (cfiCond118) ?RET_HIGH load(1, XDATA, add(CFA_XSP16, literal(-4)))
          CFI (cfiCond118) ?BRET_EXT load(1, XDATA, add(CFA_XSP16, literal(-3)))
          CFI (cfiCond118) DPL0 load(1, XDATA, add(CFA_XSP16, literal(-2)))
          CFI (cfiCond118) DPH0 load(1, XDATA, add(CFA_XSP16, literal(-1)))
          CFI (cfiCond118) CFA_SP SP+-4
          CFI (cfiCond118) CFA_XSP16 add(XSP16, 86)
          CFI Block cfiCond119 Using cfiCommon0
          CFI (cfiCond119) Function zclGp_GpResponseCommandCB
          CFI (cfiCond119) Conditional ??CrossCallReturnLabel_86, ??CrossCallReturnLabel_4
          CFI (cfiCond119) R6 load(1, XDATA, add(CFA_XSP16, literal(-15)))
          CFI (cfiCond119) VB load(1, XDATA, add(CFA_XSP16, literal(-14)))
          CFI (cfiCond119) V0 load(1, XDATA, add(CFA_XSP16, literal(-13)))
          CFI (cfiCond119) V1 load(1, XDATA, add(CFA_XSP16, literal(-12)))
          CFI (cfiCond119) V2 load(1, XDATA, add(CFA_XSP16, literal(-11)))
          CFI (cfiCond119) V3 load(1, XDATA, add(CFA_XSP16, literal(-10)))
          CFI (cfiCond119) V4 load(1, XDATA, add(CFA_XSP16, literal(-9)))
          CFI (cfiCond119) V5 load(1, XDATA, add(CFA_XSP16, literal(-8)))
          CFI (cfiCond119) V6 load(1, XDATA, add(CFA_XSP16, literal(-7)))
          CFI (cfiCond119) R7 load(1, XDATA, add(CFA_XSP16, literal(-6)))
          CFI (cfiCond119) ?RET_LOW load(1, XDATA, add(CFA_XSP16, literal(-5)))
          CFI (cfiCond119) ?RET_HIGH load(1, XDATA, add(CFA_XSP16, literal(-4)))
          CFI (cfiCond119) ?BRET_EXT load(1, XDATA, add(CFA_XSP16, literal(-3)))
          CFI (cfiCond119) DPL0 load(1, XDATA, add(CFA_XSP16, literal(-2)))
          CFI (cfiCond119) DPH0 load(1, XDATA, add(CFA_XSP16, literal(-1)))
          CFI (cfiCond119) CFA_SP SP+-4
          CFI (cfiCond119) CFA_XSP16 add(XSP16, 93)
          CFI Block cfiCond120 Using cfiCommon0
          CFI (cfiCond120) Function zclGp_GpResponseCommandCB
          CFI (cfiCond120) Conditional ??CrossCallReturnLabel_86, ??CrossCallReturnLabel_3
          CFI (cfiCond120) R6 load(1, XDATA, add(CFA_XSP16, literal(-15)))
          CFI (cfiCond120) VB load(1, XDATA, add(CFA_XSP16, literal(-14)))
          CFI (cfiCond120) V0 load(1, XDATA, add(CFA_XSP16, literal(-13)))
          CFI (cfiCond120) V1 load(1, XDATA, add(CFA_XSP16, literal(-12)))
          CFI (cfiCond120) V2 load(1, XDATA, add(CFA_XSP16, literal(-11)))
          CFI (cfiCond120) V3 load(1, XDATA, add(CFA_XSP16, literal(-10)))
          CFI (cfiCond120) V4 load(1, XDATA, add(CFA_XSP16, literal(-9)))
          CFI (cfiCond120) V5 load(1, XDATA, add(CFA_XSP16, literal(-8)))
          CFI (cfiCond120) V6 load(1, XDATA, add(CFA_XSP16, literal(-7)))
          CFI (cfiCond120) R7 load(1, XDATA, add(CFA_XSP16, literal(-6)))
          CFI (cfiCond120) ?RET_LOW load(1, XDATA, add(CFA_XSP16, literal(-5)))
          CFI (cfiCond120) ?RET_HIGH load(1, XDATA, add(CFA_XSP16, literal(-4)))
          CFI (cfiCond120) ?BRET_EXT load(1, XDATA, add(CFA_XSP16, literal(-3)))
          CFI (cfiCond120) DPL0 load(1, XDATA, add(CFA_XSP16, literal(-2)))
          CFI (cfiCond120) DPH0 load(1, XDATA, add(CFA_XSP16, literal(-1)))
          CFI (cfiCond120) CFA_SP SP+-4
          CFI (cfiCond120) CFA_XSP16 add(XSP16, 93)
          CFI Block cfiCond121 Using cfiCommon0
          CFI (cfiCond121) Function gp_getProxyTableByGpId
          CFI (cfiCond121) Conditional ??CrossCallReturnLabel_87, ??CrossCallReturnLabel_5
          CFI (cfiCond121) R6 load(1, XDATA, add(CFA_XSP16, literal(-15)))
          CFI (cfiCond121) VB load(1, XDATA, add(CFA_XSP16, literal(-14)))
          CFI (cfiCond121) V0 load(1, XDATA, add(CFA_XSP16, literal(-13)))
          CFI (cfiCond121) V1 load(1, XDATA, add(CFA_XSP16, literal(-12)))
          CFI (cfiCond121) V2 load(1, XDATA, add(CFA_XSP16, literal(-11)))
          CFI (cfiCond121) V3 load(1, XDATA, add(CFA_XSP16, literal(-10)))
          CFI (cfiCond121) V4 load(1, XDATA, add(CFA_XSP16, literal(-9)))
          CFI (cfiCond121) V5 load(1, XDATA, add(CFA_XSP16, literal(-8)))
          CFI (cfiCond121) V6 load(1, XDATA, add(CFA_XSP16, literal(-7)))
          CFI (cfiCond121) R7 load(1, XDATA, add(CFA_XSP16, literal(-6)))
          CFI (cfiCond121) ?RET_LOW load(1, XDATA, add(CFA_XSP16, literal(-5)))
          CFI (cfiCond121) ?RET_HIGH load(1, XDATA, add(CFA_XSP16, literal(-4)))
          CFI (cfiCond121) ?BRET_EXT load(1, XDATA, add(CFA_XSP16, literal(-3)))
          CFI (cfiCond121) DPL0 load(1, XDATA, add(CFA_XSP16, literal(-2)))
          CFI (cfiCond121) DPH0 load(1, XDATA, add(CFA_XSP16, literal(-1)))
          CFI (cfiCond121) CFA_SP SP+-4
          CFI (cfiCond121) CFA_XSP16 add(XSP16, 19)
          CFI Block cfiCond122 Using cfiCommon0
          CFI (cfiCond122) Function gp_SecurityOperationProxy
          CFI (cfiCond122) Conditional ??CrossCallReturnLabel_87, ??CrossCallReturnLabel_6
          CFI (cfiCond122) R6 load(1, XDATA, add(CFA_XSP16, literal(-16)))
          CFI (cfiCond122) VB load(1, XDATA, add(CFA_XSP16, literal(-15)))
          CFI (cfiCond122) V0 load(1, XDATA, add(CFA_XSP16, literal(-14)))
          CFI (cfiCond122) V1 load(1, XDATA, add(CFA_XSP16, literal(-13)))
          CFI (cfiCond122) V2 load(1, XDATA, add(CFA_XSP16, literal(-12)))
          CFI (cfiCond122) V3 load(1, XDATA, add(CFA_XSP16, literal(-11)))
          CFI (cfiCond122) V4 load(1, XDATA, add(CFA_XSP16, literal(-10)))
          CFI (cfiCond122) V5 load(1, XDATA, add(CFA_XSP16, literal(-9)))
          CFI (cfiCond122) V6 load(1, XDATA, add(CFA_XSP16, literal(-8)))
          CFI (cfiCond122) V7 load(1, XDATA, add(CFA_XSP16, literal(-7)))
          CFI (cfiCond122) R7 load(1, XDATA, add(CFA_XSP16, literal(-6)))
          CFI (cfiCond122) ?RET_LOW load(1, XDATA, add(CFA_XSP16, literal(-5)))
          CFI (cfiCond122) ?RET_HIGH load(1, XDATA, add(CFA_XSP16, literal(-4)))
          CFI (cfiCond122) ?BRET_EXT load(1, XDATA, add(CFA_XSP16, literal(-3)))
          CFI (cfiCond122) DPL0 load(1, XDATA, add(CFA_XSP16, literal(-2)))
          CFI (cfiCond122) DPH0 load(1, XDATA, add(CFA_XSP16, literal(-1)))
          CFI (cfiCond122) CFA_SP SP+-4
          CFI (cfiCond122) CFA_XSP16 add(XSP16, 94)
          CFI Block cfiPicker123 Using cfiCommon1
          CFI (cfiPicker123) NoFunction
          CFI (cfiPicker123) Picker
        LCALL     ?Subroutine54 & 0xFFFF
??CrossCallReturnLabel_95:
        MOV       R0,A
        INC       DPTR
        MOVX      A,@DPTR
        RET
          CFI EndBlock cfiCond116
          CFI EndBlock cfiCond117
          CFI EndBlock cfiCond118
          CFI EndBlock cfiCond119
          CFI EndBlock cfiCond120
          CFI EndBlock cfiCond121
          CFI EndBlock cfiCond122
          CFI EndBlock cfiPicker123
//  907 
//  908 
//  909 
//  910 /*********************************************************************
//  911  * @fn      zclGp_GpProxyCommissioningModeCB
//  912  *
//  913  * @brief   Callback from the ZCL GreenPower Cluster Library when
//  914  *          it received a Gp Commissioning Mode command.
//  915  *
//  916  * @param   pCmd - command payload
//  917  *
//  918  * @return  none
//  919  */

        RSEG BANKED_CODE:HUGECODE:NOROOT(0)
//  920 static void zclGp_GpProxyCommissioningModeCB(zclGpProxyCommissioningMode_t* pCmd)
zclGp_GpProxyCommissioningModeCB:
          CFI Block cfiBlock124 Using cfiCommon0
          CFI Function zclGp_GpProxyCommissioningModeCB
        CODE
//  921 {
        FUNCALL zclGp_GpProxyCommissioningModeCB, osal_build_uint16
        LOCFRAME ISTACK, 0, STACK
        LOCFRAME PSTACK, 0, STACK
        LOCFRAME XSTACK, 10, STACK
        LOCFRAME IOVERLAY, 0, STATIC
        LOCFRAME DOVERLAY, 0, STATIC
        ARGFRAME ISTACK, 0, STACK
        ARGFRAME PSTACK, 0, STACK
        ARGFRAME XSTACK, 10, STACK
        ARGFRAME IOVERLAY, 0, STATIC
        ARGFRAME DOVERLAY, 0, STATIC
        FUNCALL zclGp_GpProxyCommissioningModeCB, gp_stopCommissioningMode
        LOCFRAME ISTACK, 0, STACK
        LOCFRAME PSTACK, 0, STACK
        LOCFRAME XSTACK, 10, STACK
        LOCFRAME IOVERLAY, 0, STATIC
        LOCFRAME DOVERLAY, 0, STATIC
        ARGFRAME ISTACK, 0, STACK
        ARGFRAME PSTACK, 0, STACK
        ARGFRAME XSTACK, 10, STACK
        ARGFRAME IOVERLAY, 0, STATIC
        ARGFRAME DOVERLAY, 0, STATIC
        REQUIRE ?V0
        REQUIRE ?V1
        MOV       A,#-0xa
        LCALL     ?BANKED_ENTER_XDATA
          CFI DPH0 load(1, XDATA, add(CFA_XSP16, literal(-1)))
          CFI DPL0 load(1, XDATA, add(CFA_XSP16, literal(-2)))
          CFI ?BRET_EXT load(1, XDATA, add(CFA_XSP16, literal(-3)))
          CFI ?RET_HIGH load(1, XDATA, add(CFA_XSP16, literal(-4)))
          CFI ?RET_LOW load(1, XDATA, add(CFA_XSP16, literal(-5)))
          CFI R7 load(1, XDATA, add(CFA_XSP16, literal(-6)))
          CFI V1 load(1, XDATA, add(CFA_XSP16, literal(-7)))
          CFI V0 load(1, XDATA, add(CFA_XSP16, literal(-8)))
          CFI VB load(1, XDATA, add(CFA_XSP16, literal(-9)))
          CFI R6 load(1, XDATA, add(CFA_XSP16, literal(-10)))
          CFI CFA_SP SP+0
          CFI CFA_XSP16 add(XSP16, 10)
        ; Saved register size: 10
        ; Auto size: 0
        MOV       A,R2
        MOV       R6,A
        MOV       A,R3
        MOV       R7,A
//  922   gp_commissioningOptions = pCmd->options;
        MOV       DPL,R6
        MOV       DPH,R7
        INC       DPTR
        INC       DPTR
        MOVX      A,@DPTR
        MOV       DPTR,#gp_commissioningOptions
        MOVX      @DPTR,A
//  923   uint32 CommissioningWindow = PGG_COMMISSIONING_WINDOW;
//  924   
//  925   if ( ( zgGP_InCommissioningMode == TRUE ) && ( gp_commissionerAddress != pCmd->srcAddr ) )
        MOV       DPTR,#zgGP_InCommissioningMode
        MOVX      A,@DPTR
        XRL       A,#0x1
        JNZ       ??zclGp_GpProxyCommissioningModeCB_0
        MOV       DPTR,#gp_commissionerAddress
        LCALL     ??Subroutine58_0 & 0xFFFF
??CrossCallReturnLabel_104:
        MOV       DPL,R6
        MOV       DPH,R7
        MOVX      A,@DPTR
        XRL       A,R0
        JNZ       ??zclGp_GpProxyCommissioningModeCB_1
        INC       DPTR
        MOVX      A,@DPTR
        XRL       A,R1
??zclGp_GpProxyCommissioningModeCB_1:
        JNZ       ??zclGp_GpProxyCommissioningModeCB_2
//  926   {
//  927     // If is in commissioning mode and the soruce address is different from 
//  928     // the device that set the proxy in commissioning mode, then drop
//  929     // the request.
//  930     return;
//  931   }
//  932 
//  933   //Enter in commissioning mode
//  934   if(gp_commissioningOptions & GP_COMM_OPT_ACTION_MASK)
??zclGp_GpProxyCommissioningModeCB_0:
        MOV       DPTR,#gp_commissioningOptions
        MOVX      A,@DPTR
        MOV       C,0xE0 /* A   */.0
        JNC       ??zclGp_GpProxyCommissioningModeCB_3
//  935   {
//  936   
//  937 #if 0
//  938     if(gp_commissioningOptions & GP_COMM_OPT_CHANNEL_PRES_MASK)
//  939     {
//  940       //Section A.3.3.5.3, channel field is not supported in the current version of the spec
//  941     }
//  942 #endif
//  943  
//  944     if(gp_commissioningOptions & GP_COMM_OPT_EXIT_ON_WINDOW_EXPIRATION_MASK)
        MOV       C,0xE0 /* A   */.1
        JNC       ??CrossCallReturnLabel_145
//  945     {
//  946       CommissioningWindow = osal_build_uint16(pCmd->pData);
        MOV       A,R6
        ADD       A,#0x3
        LCALL     ?Subroutine44 & 0xFFFF
??CrossCallReturnLabel_68:
        LCALL     ??Subroutine68_0 & 0xFFFF
??CrossCallReturnLabel_165:
        LCALL     `??osal_build_uint16::?relay`; Banked call to: osal_build_uint16
//  947       pCmd->pData += sizeof(uint16);
        MOV       DPL,?V0
        MOV       DPH,?V1
        LCALL     ?Subroutine35 & 0xFFFF
//  948       
//  949       
//  950     }
??CrossCallReturnLabel_54:
        LCALL     ?Subroutine16 & 0xFFFF
//  951     if(gp_commissioningOptions & GP_COMM_OPT_UNICAST_COMM_MASK)
??CrossCallReturnLabel_145:
        MOV       DPTR,#gp_commissioningOptions
        MOVX      A,@DPTR
        MOV       C,0xE0 /* A   */.5
        JNC       ??zclGp_GpProxyCommissioningModeCB_4
//  952     {
//  953       gp_commissionerAddress = pCmd->srcAddr;
        MOV       DPL,R6
        MOV       DPH,R7
        LCALL     ??Subroutine58_0 & 0xFFFF
//  954     }
??CrossCallReturnLabel_105:
        MOV       DPTR,#gp_commissionerAddress
        MOV       A,R0
        MOVX      @DPTR,A
        INC       DPTR
        MOV       A,R1
        SJMP      ??zclGp_GpProxyCommissioningModeCB_5
//  955     else
//  956     {
//  957       gp_commissionerAddress = 0xFFFF;
??zclGp_GpProxyCommissioningModeCB_4:
        MOV       DPTR,#gp_commissionerAddress
        MOV       A,#-0x1
        MOVX      @DPTR,A
        INC       DPTR
??zclGp_GpProxyCommissioningModeCB_5:
        MOVX      @DPTR,A
//  958     }
//  959     
//  960     //Convert to timer units
//  961     CommissioningWindow = CommissioningWindow * 1000;
//  962     
//  963     //Exit upon expire
//  964     zgGP_InCommissioningMode = TRUE;
        MOV       DPTR,#zgGP_InCommissioningMode
        MOV       A,#0x1
        MOVX      @DPTR,A
//  965     
//  966     //Notify the user about entering in commissioning mode
//  967     if(pfnCommissioningMode)
        LCALL     ?Subroutine22 & 0xFFFF
??CrossCallReturnLabel_178:
        JZ        ??zclGp_GpProxyCommissioningModeCB_2
//  968     {
//  969       pfnCommissioningMode(TRUE);
        ; Setup parameters for indirect call
        MOV       R1,#0x1
        LCALL     ??Subroutine64_0 & 0xFFFF
//  970     }
//  971   }
??CrossCallReturnLabel_129:
        LCALL     ?CALL_IND
        SJMP      ??zclGp_GpProxyCommissioningModeCB_2
//  972   //Exit commissioning mode
//  973   else
//  974   { 
//  975     gp_stopCommissioningMode();
??zclGp_GpProxyCommissioningModeCB_3:
        ; Setup parameters for call to function gp_stopCommissioningMode
        LCALL     `??gp_stopCommissioningMode::?relay`; Banked call to: gp_stopCommissioningMode
//  976   }
//  977 }
??zclGp_GpProxyCommissioningModeCB_2:
        MOV       R7,#0x2
        LJMP      ?BANKED_LEAVE_XDATA
          CFI EndBlock cfiBlock124

        RSEG BANKED_CODE:HUGECODE:NOROOT(0)
?Subroutine35:
          CFI Block cfiCond125 Using cfiCommon0
          CFI Function zclGp_GpResponseCommandCB
          CFI Conditional ??CrossCallReturnLabel_53
          CFI R6 load(1, XDATA, add(CFA_XSP16, literal(-15)))
          CFI VB load(1, XDATA, add(CFA_XSP16, literal(-14)))
          CFI V0 load(1, XDATA, add(CFA_XSP16, literal(-13)))
          CFI V1 load(1, XDATA, add(CFA_XSP16, literal(-12)))
          CFI V2 load(1, XDATA, add(CFA_XSP16, literal(-11)))
          CFI V3 load(1, XDATA, add(CFA_XSP16, literal(-10)))
          CFI V4 load(1, XDATA, add(CFA_XSP16, literal(-9)))
          CFI V5 load(1, XDATA, add(CFA_XSP16, literal(-8)))
          CFI V6 load(1, XDATA, add(CFA_XSP16, literal(-7)))
          CFI R7 load(1, XDATA, add(CFA_XSP16, literal(-6)))
          CFI ?RET_LOW load(1, XDATA, add(CFA_XSP16, literal(-5)))
          CFI ?RET_HIGH load(1, XDATA, add(CFA_XSP16, literal(-4)))
          CFI ?BRET_EXT load(1, XDATA, add(CFA_XSP16, literal(-3)))
          CFI DPL0 load(1, XDATA, add(CFA_XSP16, literal(-2)))
          CFI DPH0 load(1, XDATA, add(CFA_XSP16, literal(-1)))
          CFI CFA_SP SP+-2
          CFI CFA_XSP16 add(XSP16, 93)
          CFI Block cfiCond126 Using cfiCommon0
          CFI (cfiCond126) Function zclGp_GpProxyCommissioningModeCB
          CFI (cfiCond126) Conditional ??CrossCallReturnLabel_54
          CFI (cfiCond126) R6 load(1, XDATA, add(CFA_XSP16, literal(-10)))
          CFI (cfiCond126) VB load(1, XDATA, add(CFA_XSP16, literal(-9)))
          CFI (cfiCond126) V0 load(1, XDATA, add(CFA_XSP16, literal(-8)))
          CFI (cfiCond126) V1 load(1, XDATA, add(CFA_XSP16, literal(-7)))
          CFI (cfiCond126) R7 load(1, XDATA, add(CFA_XSP16, literal(-6)))
          CFI (cfiCond126) ?RET_LOW load(1, XDATA, add(CFA_XSP16, literal(-5)))
          CFI (cfiCond126) ?RET_HIGH load(1, XDATA, add(CFA_XSP16, literal(-4)))
          CFI (cfiCond126) ?BRET_EXT load(1, XDATA, add(CFA_XSP16, literal(-3)))
          CFI (cfiCond126) DPL0 load(1, XDATA, add(CFA_XSP16, literal(-2)))
          CFI (cfiCond126) DPH0 load(1, XDATA, add(CFA_XSP16, literal(-1)))
          CFI (cfiCond126) CFA_SP SP+-2
          CFI (cfiCond126) CFA_XSP16 add(XSP16, 10)
          CFI Block cfiPicker127 Using cfiCommon1
          CFI (cfiPicker127) NoFunction
          CFI (cfiPicker127) Picker
        MOVX      A,@DPTR
        ADD       A,#0x2
        MOV       R0,A
        INC       DPTR
        MOVX      A,@DPTR
        ADDC      A,#0x0
        MOV       R1,A
        RET
          CFI EndBlock cfiCond125
          CFI EndBlock cfiCond126
          CFI EndBlock cfiPicker127
//  978 
//  979  /*********************************************************************
//  980  * @fn          gp_ZclPairingParse
//  981  *
//  982  * @brief       Parse the pairing data message payload
//  983  *
//  984  * @param       
//  985  *
//  986  * @return      
//  987  */

        RSEG BANKED_CODE:HUGECODE:NOROOT(0)
//  988 static void gp_ZclPairingParse( zclGpPairing_t* pCmd, gpPairingCmd_t* payload )
gp_ZclPairingParse:
          CFI Block cfiBlock128 Using cfiCommon0
          CFI Function gp_ZclPairingParse
        CODE
//  989 {
        FUNCALL gp_ZclPairingParse, gp_PopulateField
        LOCFRAME ISTACK, 0, STACK
        LOCFRAME PSTACK, 0, STACK
        LOCFRAME XSTACK, 81, STACK
        LOCFRAME IOVERLAY, 0, STATIC
        LOCFRAME DOVERLAY, 0, STATIC
        ARGFRAME ISTACK, 0, STACK
        ARGFRAME PSTACK, 0, STACK
        ARGFRAME XSTACK, 81, STACK
        ARGFRAME IOVERLAY, 0, STATIC
        ARGFRAME DOVERLAY, 0, STATIC
        FUNCALL gp_ZclPairingParse, osal_memset
        LOCFRAME ISTACK, 0, STACK
        LOCFRAME PSTACK, 0, STACK
        LOCFRAME XSTACK, 81, STACK
        LOCFRAME IOVERLAY, 0, STATIC
        LOCFRAME DOVERLAY, 0, STATIC
        ARGFRAME ISTACK, 0, STACK
        ARGFRAME PSTACK, 0, STACK
        ARGFRAME XSTACK, 81, STACK
        ARGFRAME IOVERLAY, 0, STATIC
        ARGFRAME DOVERLAY, 0, STATIC
        FUNCALL gp_ZclPairingParse, gp_PopulateField
        LOCFRAME ISTACK, 0, STACK
        LOCFRAME PSTACK, 0, STACK
        LOCFRAME XSTACK, 81, STACK
        LOCFRAME IOVERLAY, 0, STATIC
        LOCFRAME DOVERLAY, 0, STATIC
        ARGFRAME ISTACK, 0, STACK
        ARGFRAME PSTACK, 0, STACK
        ARGFRAME XSTACK, 81, STACK
        ARGFRAME IOVERLAY, 0, STATIC
        ARGFRAME DOVERLAY, 0, STATIC
        FUNCALL gp_ZclPairingParse, gp_PopulateField
        LOCFRAME ISTACK, 0, STACK
        LOCFRAME PSTACK, 0, STACK
        LOCFRAME XSTACK, 81, STACK
        LOCFRAME IOVERLAY, 0, STATIC
        LOCFRAME DOVERLAY, 0, STATIC
        ARGFRAME ISTACK, 0, STACK
        ARGFRAME PSTACK, 0, STACK
        ARGFRAME XSTACK, 81, STACK
        ARGFRAME IOVERLAY, 0, STATIC
        ARGFRAME DOVERLAY, 0, STATIC
        FUNCALL gp_ZclPairingParse, gp_PopulateField
        LOCFRAME ISTACK, 0, STACK
        LOCFRAME PSTACK, 0, STACK
        LOCFRAME XSTACK, 81, STACK
        LOCFRAME IOVERLAY, 0, STATIC
        LOCFRAME DOVERLAY, 0, STATIC
        ARGFRAME ISTACK, 0, STACK
        ARGFRAME PSTACK, 0, STACK
        ARGFRAME XSTACK, 81, STACK
        ARGFRAME IOVERLAY, 0, STATIC
        ARGFRAME DOVERLAY, 0, STATIC
        FUNCALL gp_ZclPairingParse, gp_PopulateField
        LOCFRAME ISTACK, 0, STACK
        LOCFRAME PSTACK, 0, STACK
        LOCFRAME XSTACK, 81, STACK
        LOCFRAME IOVERLAY, 0, STATIC
        LOCFRAME DOVERLAY, 0, STATIC
        ARGFRAME ISTACK, 0, STACK
        ARGFRAME PSTACK, 0, STACK
        ARGFRAME XSTACK, 81, STACK
        ARGFRAME IOVERLAY, 0, STATIC
        ARGFRAME DOVERLAY, 0, STATIC
        FUNCALL gp_ZclPairingParse, osal_memset
        LOCFRAME ISTACK, 0, STACK
        LOCFRAME PSTACK, 0, STACK
        LOCFRAME XSTACK, 81, STACK
        LOCFRAME IOVERLAY, 0, STATIC
        LOCFRAME DOVERLAY, 0, STATIC
        ARGFRAME ISTACK, 0, STACK
        ARGFRAME PSTACK, 0, STACK
        ARGFRAME XSTACK, 81, STACK
        ARGFRAME IOVERLAY, 0, STATIC
        ARGFRAME DOVERLAY, 0, STATIC
        FUNCALL gp_ZclPairingParse, gp_PopulateField
        LOCFRAME ISTACK, 0, STACK
        LOCFRAME PSTACK, 0, STACK
        LOCFRAME XSTACK, 81, STACK
        LOCFRAME IOVERLAY, 0, STATIC
        LOCFRAME DOVERLAY, 0, STATIC
        ARGFRAME ISTACK, 0, STACK
        ARGFRAME PSTACK, 0, STACK
        ARGFRAME XSTACK, 81, STACK
        ARGFRAME IOVERLAY, 0, STATIC
        ARGFRAME DOVERLAY, 0, STATIC
        FUNCALL gp_ZclPairingParse, gp_getProxyTableByIndex
        LOCFRAME ISTACK, 0, STACK
        LOCFRAME PSTACK, 0, STACK
        LOCFRAME XSTACK, 81, STACK
        LOCFRAME IOVERLAY, 0, STATIC
        LOCFRAME DOVERLAY, 0, STATIC
        ARGFRAME ISTACK, 0, STACK
        ARGFRAME PSTACK, 0, STACK
        ARGFRAME XSTACK, 81, STACK
        ARGFRAME IOVERLAY, 0, STATIC
        ARGFRAME DOVERLAY, 0, STATIC
        FUNCALL gp_ZclPairingParse, osal_memcmp
        LOCFRAME ISTACK, 0, STACK
        LOCFRAME PSTACK, 0, STACK
        LOCFRAME XSTACK, 84, STACK
        LOCFRAME IOVERLAY, 0, STATIC
        LOCFRAME DOVERLAY, 0, STATIC
        ARGFRAME ISTACK, 0, STACK
        ARGFRAME PSTACK, 0, STACK
        ARGFRAME XSTACK, 84, STACK
        ARGFRAME IOVERLAY, 0, STATIC
        ARGFRAME DOVERLAY, 0, STATIC
        FUNCALL gp_ZclPairingParse, osal_memcmp
        LOCFRAME ISTACK, 0, STACK
        LOCFRAME PSTACK, 0, STACK
        LOCFRAME XSTACK, 84, STACK
        LOCFRAME IOVERLAY, 0, STATIC
        LOCFRAME DOVERLAY, 0, STATIC
        ARGFRAME ISTACK, 0, STACK
        ARGFRAME PSTACK, 0, STACK
        ARGFRAME XSTACK, 84, STACK
        ARGFRAME IOVERLAY, 0, STATIC
        ARGFRAME DOVERLAY, 0, STATIC
        FUNCALL gp_ZclPairingParse, gp_ResetProxyBasicTblEntry
        LOCFRAME ISTACK, 0, STACK
        LOCFRAME PSTACK, 0, STACK
        LOCFRAME XSTACK, 81, STACK
        LOCFRAME IOVERLAY, 0, STATIC
        LOCFRAME DOVERLAY, 0, STATIC
        ARGFRAME ISTACK, 0, STACK
        ARGFRAME PSTACK, 0, STACK
        ARGFRAME XSTACK, 81, STACK
        ARGFRAME IOVERLAY, 0, STATIC
        ARGFRAME DOVERLAY, 0, STATIC
        FUNCALL gp_ZclPairingParse, gp_PopulateField
        LOCFRAME ISTACK, 0, STACK
        LOCFRAME PSTACK, 0, STACK
        LOCFRAME XSTACK, 81, STACK
        LOCFRAME IOVERLAY, 0, STATIC
        LOCFRAME DOVERLAY, 0, STATIC
        ARGFRAME ISTACK, 0, STACK
        ARGFRAME PSTACK, 0, STACK
        ARGFRAME XSTACK, 81, STACK
        ARGFRAME IOVERLAY, 0, STATIC
        ARGFRAME DOVERLAY, 0, STATIC
        FUNCALL gp_ZclPairingParse, gp_PopulateField
        LOCFRAME ISTACK, 0, STACK
        LOCFRAME PSTACK, 0, STACK
        LOCFRAME XSTACK, 81, STACK
        LOCFRAME IOVERLAY, 0, STATIC
        LOCFRAME DOVERLAY, 0, STATIC
        ARGFRAME ISTACK, 0, STACK
        ARGFRAME PSTACK, 0, STACK
        ARGFRAME XSTACK, 81, STACK
        ARGFRAME IOVERLAY, 0, STATIC
        ARGFRAME DOVERLAY, 0, STATIC
        FUNCALL gp_ZclPairingParse, gp_PopulateField
        LOCFRAME ISTACK, 0, STACK
        LOCFRAME PSTACK, 0, STACK
        LOCFRAME XSTACK, 81, STACK
        LOCFRAME IOVERLAY, 0, STATIC
        LOCFRAME DOVERLAY, 0, STATIC
        ARGFRAME ISTACK, 0, STACK
        ARGFRAME PSTACK, 0, STACK
        ARGFRAME XSTACK, 81, STACK
        ARGFRAME IOVERLAY, 0, STATIC
        ARGFRAME DOVERLAY, 0, STATIC
        FUNCALL gp_ZclPairingParse, osal_memset
        LOCFRAME ISTACK, 0, STACK
        LOCFRAME PSTACK, 0, STACK
        LOCFRAME XSTACK, 81, STACK
        LOCFRAME IOVERLAY, 0, STATIC
        LOCFRAME DOVERLAY, 0, STATIC
        ARGFRAME ISTACK, 0, STACK
        ARGFRAME PSTACK, 0, STACK
        ARGFRAME XSTACK, 81, STACK
        ARGFRAME IOVERLAY, 0, STATIC
        ARGFRAME DOVERLAY, 0, STATIC
        FUNCALL gp_ZclPairingParse, gp_PopulateField
        LOCFRAME ISTACK, 0, STACK
        LOCFRAME PSTACK, 0, STACK
        LOCFRAME XSTACK, 81, STACK
        LOCFRAME IOVERLAY, 0, STATIC
        LOCFRAME DOVERLAY, 0, STATIC
        ARGFRAME ISTACK, 0, STACK
        ARGFRAME PSTACK, 0, STACK
        ARGFRAME XSTACK, 81, STACK
        ARGFRAME IOVERLAY, 0, STATIC
        ARGFRAME DOVERLAY, 0, STATIC
        FUNCALL gp_ZclPairingParse, gp_PopulateField
        LOCFRAME ISTACK, 0, STACK
        LOCFRAME PSTACK, 0, STACK
        LOCFRAME XSTACK, 81, STACK
        LOCFRAME IOVERLAY, 0, STATIC
        LOCFRAME DOVERLAY, 0, STATIC
        ARGFRAME ISTACK, 0, STACK
        ARGFRAME PSTACK, 0, STACK
        ARGFRAME XSTACK, 81, STACK
        ARGFRAME IOVERLAY, 0, STATIC
        ARGFRAME DOVERLAY, 0, STATIC
        REQUIRE ?V0
        REQUIRE ?V1
        REQUIRE ?V2
        REQUIRE ?V3
        REQUIRE ?V4
        REQUIRE ?V5
        REQUIRE ?V6
        REQUIRE ?V7
        MOV       A,#-0x10
        LCALL     ?BANKED_ENTER_XDATA
          CFI DPH0 load(1, XDATA, add(CFA_XSP16, literal(-1)))
          CFI DPL0 load(1, XDATA, add(CFA_XSP16, literal(-2)))
          CFI ?BRET_EXT load(1, XDATA, add(CFA_XSP16, literal(-3)))
          CFI ?RET_HIGH load(1, XDATA, add(CFA_XSP16, literal(-4)))
          CFI ?RET_LOW load(1, XDATA, add(CFA_XSP16, literal(-5)))
          CFI R7 load(1, XDATA, add(CFA_XSP16, literal(-6)))
          CFI V7 load(1, XDATA, add(CFA_XSP16, literal(-7)))
          CFI V6 load(1, XDATA, add(CFA_XSP16, literal(-8)))
          CFI V5 load(1, XDATA, add(CFA_XSP16, literal(-9)))
          CFI V4 load(1, XDATA, add(CFA_XSP16, literal(-10)))
          CFI V3 load(1, XDATA, add(CFA_XSP16, literal(-11)))
          CFI V2 load(1, XDATA, add(CFA_XSP16, literal(-12)))
          CFI V1 load(1, XDATA, add(CFA_XSP16, literal(-13)))
          CFI V0 load(1, XDATA, add(CFA_XSP16, literal(-14)))
          CFI VB load(1, XDATA, add(CFA_XSP16, literal(-15)))
          CFI R6 load(1, XDATA, add(CFA_XSP16, literal(-16)))
          CFI CFA_SP SP+0
          CFI CFA_XSP16 add(XSP16, 16)
        ; Saved register size: 16
        ; Auto size: 65
        MOV       A,#-0x41
        LCALL     ?ALLOC_XSTACK8
          CFI CFA_XSP16 add(XSP16, 81)
        MOV       A,R4
        MOV       R6,A
        MOV       A,R5
        MOV       R7,A
//  990 
//  991   payload->options |= ( ( ( uint32 ) pCmd->options[2] << 16 ) & 0x00FF0000 );
        MOV       DPL,R2
        MOV       DPH,R3
        INC       DPTR
        INC       DPTR
        INC       DPTR
        INC       DPTR
        MOVX      A,@DPTR
        MOV       ?V0,A
        CLR       A
        MOV       ?V1,A
        MOV       ?V2,A
        MOV       ?V3,A
        MOV       A,#0x10
        MOV       R0,#?V0
        LCALL     ?L_SHL
        MOV       DPL,R6
        MOV       DPH,R7
        MOV       R0,#?V0
        LCALL     ?L_IOR_TO_X
//  992   payload->options |= ( ( ( uint32 ) pCmd->options[1] <<  8 ) & 0x0000FF00 );
        MOV       DPL,R2
        MOV       DPH,R3
        INC       DPTR
        INC       DPTR
        INC       DPTR
        MOVX      A,@DPTR
        MOV       ?V0,A
        CLR       A
        MOV       ?V2,A
        MOV       A,#0x8
        MOV       R0,#?V0
        LCALL     ?L_SHL
        MOV       DPL,R6
        MOV       DPH,R7
        MOV       R0,#?V0
        LCALL     ?L_IOR_TO_X
//  993   payload->options |= ( ( ( uint32 ) pCmd->options[0] )       & 0x000000FF );
        MOV       DPL,R2
        MOV       DPH,R3
        INC       DPTR
        INC       DPTR
        MOVX      A,@DPTR
        MOV       ?V0,A
        CLR       A
        MOV       ?V1,A
        MOV       DPL,R6
        MOV       DPH,R7
        MOV       R0,#?V0
        LCALL     ?L_IOR_TO_X
        MOV       DPL,R6
        MOV       DPH,R7
        MOV       R0,#?V0
        LCALL     ?L_MOV_X
        MOV       A,?V0
        ANL       A,#0x7
        MOV       R0,A
        MOV       A,R6
        ADD       A,#0x10
        MOV       ?V2,A
        CLR       A
        ADDC      A,R7
        MOV       ?V3,A
        MOV       A,R6
        ADD       A,#0x8
        MOV       ?V0,A
        CLR       A
        ADDC      A,R7
        MOV       ?V1,A
        MOV       A,R2
        ADD       A,#0x5
        MOV       ?V4,A
        CLR       A
        ADDC      A,R3
        MOV       ?V5,A
        MOV       A,R0
        JNZ       ??gp_ZclPairingParse_0
//  994     
//  995   // Options bitfield
//  996   // If Application Id bitfield is 0b000
//  997   if( GP_IS_APPLICATION_ID_GPD( payload->options ) )
//  998   {        
//  999     // Populate GPD ID
// 1000     gp_PopulateField( ( uint8* )&payload->gpdId, &pCmd->pData, sizeof( payload->gpdId ) );
        ; Setup parameters for call to function gp_PopulateField
        MOV       R1,#0x4
        MOV       R4,?V4
        MOV       R5,?V5
        MOV       A,R6
        ADD       A,R1
        MOV       R2,A
        CLR       A
        ADDC      A,R7
        MOV       R3,A
        LCALL     `??gp_PopulateField::?relay`; Banked call to: gp_PopulateField
// 1001     
// 1002     // Populate GPD IEEE Invalid
// 1003     osal_memset ( &payload->gpdIEEE, 0xFF, Z_EXTADDR_LEN );
        ; Setup parameters for call to function osal_memset
        MOV       R4,#0x8
        MOV       R5,#0x0
        MOV       R1,#-0x1
        MOV       R2,?V0
        MOV       R3,?V1
        LCALL     `??osal_memset::?relay`; Banked call to: osal_memset
// 1004     // Populate EP Invalid
// 1005     payload->ep = 0xFF;
        MOV       DPL,?V2
        MOV       DPH,?V3
        MOV       A,#-0x1
        MOVX      @DPTR,A
        SJMP      ??gp_ZclPairingParse_1
// 1006   }
// 1007   // If Application Id bitfield is 0b010
// 1008   else if( GP_IS_APPLICATION_ID_IEEE( payload->options ) )
??gp_ZclPairingParse_0:
        MOV       A,#0x2
        XRL       A,R0
        JNZ       ??gp_ZclPairingParse_1
// 1009   {
// 1010     // Populate GPD ID Invalid
// 1011     payload->gpdId = 0xFFFFFFFF;
        MOV       DPL,R6
        MOV       DPH,R7
        INC       DPTR
        INC       DPTR
        INC       DPTR
        INC       DPTR
        LCALL     ?Subroutine13 & 0xFFFF
// 1012     
// 1013     // Populate GPD IEEE
// 1014     gp_PopulateField( ( uint8* )&payload->gpdIEEE, &pCmd->pData, Z_EXTADDR_LEN );
??CrossCallReturnLabel_19:
        MOV       R4,?V4
        MOV       R5,?V5
        MOV       R2,?V0
        MOV       R3,?V1
        LCALL     `??gp_PopulateField::?relay`; Banked call to: gp_PopulateField
// 1015     // Populate EP
// 1016     gp_PopulateField( ( uint8* )&payload->ep, &pCmd->pData, sizeof( payload->ep ) );
        ; Setup parameters for call to function gp_PopulateField
        MOV       R1,#0x1
        MOV       R4,?V4
        MOV       R5,?V5
        MOV       R2,?V2
        MOV       R3,?V3
        LCALL     `??gp_PopulateField::?relay`; Banked call to: gp_PopulateField
// 1017   }
// 1018   
// 1019   // If Remove GPD bit is 0b0
// 1020   if( !GP_REMOVE_GPD( payload->options ) )
??gp_ZclPairingParse_1:
        MOV       A,R6
        ADD       A,#0x11
        MOV       ?V6,A
        CLR       A
        ADDC      A,R7
        MOV       ?V7,A
        MOV       DPL,R6
        MOV       DPH,R7
        MOV       R0,#?V0
        LCALL     ?L_MOV_X
        MOV       A,?V0
        ANL       A,#0x10
        JZ        $+5
        LJMP      ??gp_ZclPairingParse_2 & 0xFFFF
// 1021   {
// 1022     // Communication Mode 0b00 or 0b11
// 1023     if( ( GP_IS_COMMUNICATION_MODE_FULL_UNICAST( payload->options ) ) || ( GP_IS_COMMUNICATION_MODE_LIGHT_UNICAST( payload->options ) ) )
        MOV       A,?V0
        SWAP      A
        RRC       A
        ANL       A,#0x7
        ANL       A,#0x3
        MOV       R0,A
        MOV       A,R6
        ADD       A,#0x1b
        MOV       ?V2,A
        CLR       A
        ADDC      A,R7
        MOV       ?V3,A
        MOV       A,R6
        ADD       A,#0x19
        MOV       ?V0,A
        CLR       A
        ADDC      A,R7
        MOV       ?V1,A
        MOV       A,R0
        JZ        ??gp_ZclPairingParse_3
        MOV       A,#0x3
        XRL       A,R0
        JNZ       ??gp_ZclPairingParse_4
// 1024     {
// 1025       // Populate Sink Addesses
// 1026       gp_PopulateField( ( uint8* )&payload->sinkIEEE, &pCmd->pData, Z_EXTADDR_LEN );
??gp_ZclPairingParse_3:
        ; Setup parameters for call to function gp_PopulateField
        MOV       R1,#0x8
        MOV       R4,?V4
        MOV       R5,?V5
        MOV       R2,?V6
        MOV       R3,?V7
        LCALL     `??gp_PopulateField::?relay`; Banked call to: gp_PopulateField
// 1027       gp_PopulateField( ( uint8* )&payload->sinkNwkAddr, &pCmd->pData, sizeof( payload->sinkNwkAddr ) );
        ; Setup parameters for call to function gp_PopulateField
        MOV       R1,#0x2
        MOV       R4,?V4
        MOV       R5,?V5
        MOV       R2,?V0
        MOV       R3,?V1
        LCALL     `??gp_PopulateField::?relay`; Banked call to: gp_PopulateField
// 1028       
// 1029       // Populate Grp Address Ivalid
// 1030       payload->sinkGroupID = 0xFFFF;
        MOV       DPL,?V2
        MOV       DPH,?V3
        MOV       A,#-0x1
        MOVX      @DPTR,A
        INC       DPTR
        MOVX      @DPTR,A
        SJMP      ??gp_ZclPairingParse_5
// 1031     }
// 1032     // Communication Mode 0b01 or 0b10
// 1033     else if ( ( GP_IS_COMMUNICATION_MODE_GRPCAST_DGROUP_ID( payload->options ) ) || ( GP_IS_COMMUNICATION_MODE_GRPCAST_GROUP_ID( payload->options ) ) )
??gp_ZclPairingParse_4:
        MOV       A,#0x1
        XRL       A,R0
        JZ        ??gp_ZclPairingParse_6
        MOV       A,#0x2
        XRL       A,R0
        JNZ       ??gp_ZclPairingParse_5
// 1034     {
// 1035       // Populate Sink Addesses Invalid
// 1036       osal_memset ( &payload->sinkIEEE, 0xFF, Z_EXTADDR_LEN );
??gp_ZclPairingParse_6:
        ; Setup parameters for call to function osal_memset
        MOV       R4,#0x8
        MOV       R5,#0x0
        MOV       R1,#-0x1
        MOV       R2,?V6
        MOV       R3,?V7
        LCALL     `??osal_memset::?relay`; Banked call to: osal_memset
// 1037       payload->sinkNwkAddr = 0xFFFF;
        MOV       DPL,?V0
        MOV       DPH,?V1
        MOV       A,#-0x1
        MOVX      @DPTR,A
        INC       DPTR
        MOVX      @DPTR,A
// 1038       
// 1039       // Populate Grp Address
// 1040       gp_PopulateField( ( uint8* )&payload->sinkGroupID, &pCmd->pData, sizeof( payload->sinkGroupID ) );
        ; Setup parameters for call to function gp_PopulateField
        MOV       R1,#0x2
        MOV       R4,?V4
        MOV       R5,?V5
        MOV       R2,?V2
        MOV       R3,?V3
        LCALL     `??gp_PopulateField::?relay`; Banked call to: gp_PopulateField
??gp_ZclPairingParse_5:
        MOV       A,R6
        ADD       A,#0x1e
        MOV       ?V6,A
        CLR       A
        ADDC      A,R7
        MOV       ?V7,A
        MOV       A,R6
        ADD       A,#0x1d
// 1041     }
// 1042   }
        LCALL     ?Subroutine43 & 0xFFFF
??CrossCallReturnLabel_66:
        LCALL     ?L_MOV_X
        MOV       A,?V0
        ANL       A,#0x8
        JZ        $+5
        LJMP      ??gp_ZclPairingParse_7 & 0xFFFF
// 1043   else
// 1044   {
// 1045     uint8 i;
// 1046     uint8 status;
// 1047     uint8 currEntry[PROXY_TBL_ENTRY_LEN] = PROXY_BASIC_TBL_EMPTY_ENTRY;
// 1048       
// 1049     // Remove
// 1050     for ( i = 0; i <= GPP_MAX_PROXY_TABLE_ENTRIES ; i++ )
// 1051     {
// 1052       status = gp_getProxyTableByIndex( ( ZCD_NV_PROXY_TABLE_START + i ), currEntry );
// 1053 
// 1054       if ( status == NV_OPER_FAILED )
// 1055       {
// 1056         // FAIL
// 1057         return;
// 1058       }
// 1059     
// 1060       // if the entry is empty
// 1061       if ( status == NV_INVALID_DATA )
// 1062       {
// 1063         // Look for the next entry
// 1064         continue;
// 1065       }
// 1066       
// 1067       if( GP_IS_APPLICATION_ID_GPD( payload->options ) )
// 1068       {
// 1069         if ( osal_memcmp( &currEntry[PROXY_TBL_ENTRY_GPD_ID + 4], &payload->gpdId, sizeof ( uint32 ) ) )
// 1070         {
// 1071           // Remove this GPD entry
// 1072           gp_ResetProxyBasicTblEntry( currEntry );
// 1073         }
// 1074       }
// 1075       else if( GP_IS_APPLICATION_ID_IEEE( payload->options ) )
// 1076       {   
// 1077         if ( osal_memcmp( &currEntry[PROXY_TBL_ENTRY_GPD_ID ], payload->sinkIEEE, Z_EXTADDR_LEN ) )
// 1078         {
// 1079           // Remove this GPD entry
// 1080           gp_ResetProxyBasicTblEntry( currEntry );
// 1081         }
// 1082       }
// 1083     }
// 1084     return;
// 1085   }
// 1086   
// 1087   // If Add Sink bit is 0b1
// 1088   if ( GP_ADD_SINK( payload->options ) )
// 1089   {
// 1090     // Populate Device ID
// 1091     gp_PopulateField( ( uint8* )&payload->deviceId, &pCmd->pData, sizeof( payload->deviceId ) );
// 1092     
// 1093     if ( GP_SEC_COUNTER( payload->options ) )
// 1094     {
// 1095       // Populate GPD security frame counter
// 1096       gp_PopulateField( ( uint8* )&payload->gpdSecCounter, &pCmd->pData, sizeof( payload->gpdSecCounter ) );
// 1097     }
// 1098     else
// 1099     {
// 1100       payload->gpdSecCounter = 0xFFFFFFFF;
// 1101     }
// 1102     
// 1103     if ( GP_SEC_KEY ( payload->options ) )
// 1104     {
// 1105       gp_PopulateField( ( uint8* )&payload->gpdKey, &pCmd->pData, SEC_KEY_LEN );
// 1106     }
// 1107     else
// 1108     {
// 1109       osal_memset ( &payload->gpdKey, 0xFF, SEC_KEY_LEN );
// 1110     }
// 1111     
// 1112     if ( GP_ALIAS ( payload->options ) )
// 1113     {
// 1114       gp_PopulateField( ( uint8* )&payload->assignedAlias, &pCmd->pData, sizeof( payload->assignedAlias ) );
// 1115     }
// 1116     else
// 1117     {
// 1118       payload->assignedAlias = 0xFFFF;
// 1119     }
// 1120     if ( GP_FORWARDING_RADIUS ( payload->options ) )
// 1121     {
// 1122       gp_PopulateField( ( uint8* )&payload->forwardingRadius, &pCmd->pData, sizeof( payload->forwardingRadius ) );
// 1123     }
// 1124     else
// 1125     {
// 1126       payload->forwardingRadius = 0xFF;
// 1127     }
// 1128   }
// 1129   else
// 1130   {
// 1131     // Ivalidate every field
// 1132     payload->deviceId = 0xFF;
        MOV       DPL,R2
        MOV       DPH,R3
        MOV       A,#-0x1
        MOVX      @DPTR,A
// 1133     payload->gpdSecCounter = 0xFFFFFFFF;
        MOV       DPL,?V6
        MOV       DPH,?V7
        LCALL     ??Subroutine56_0 & 0xFFFF
// 1134     payload->assignedAlias = 0xFFFF;
??CrossCallReturnLabel_96:
        LCALL     ?Subroutine41 & 0xFFFF
// 1135     payload->forwardingRadius = 0xFF;
??CrossCallReturnLabel_62:
        MOV       A,R6
        ADD       A,#0x34
        MOV       DPL,A
        CLR       A
        ADDC      A,R7
        MOV       DPH,A
        MOV       A,#-0x1
        MOVX      @DPTR,A
// 1136   }
// 1137 }
??gp_ZclPairingParse_8:
        MOV       A,#0x41
        LJMP      ?Subroutine1 & 0xFFFF
??gp_ZclPairingParse_2:
        MOV       DPTR,#`?<Constant {255, 255, 255, 255, 255, 255, 255,_2`
        MOV       R4,?XSP + 0
        MOV       R5,?XSP + 1
        MOV       A,#0x41
        LCALL     ?MOVE_LONG8_XDATA_XDATA
        MOV       ?V4,#0x0
??gp_ZclPairingParse_9:
        ; Setup parameters for call to function gp_getProxyTableByIndex
        MOV       R4,?XSP + 0
        MOV       R5,?XSP + 1
        MOV       A,?V4
        LCALL     ??Subroutine60_0 & 0xFFFF
??CrossCallReturnLabel_117:
        LCALL     `??gp_getProxyTableByIndex::?relay`; Banked call to: gp_getProxyTableByIndex
        MOV       A,R1
        MOV       R0,A
        MOV       A,#0xa
        XRL       A,R0
        JZ        ??gp_ZclPairingParse_8
        MOV       A,#0xd
        XRL       A,R0
        JZ        ??gp_ZclPairingParse_10
        MOV       DPL,R6
        MOV       DPH,R7
        MOV       R0,#?V0
        LCALL     ?L_MOV_X
        MOV       A,?V0
        ANL       A,#0x7
        MOV       R0,A
        JNZ       ??gp_ZclPairingParse_11
        ; Setup parameters for call to function osal_memcmp
        MOV       A,R6
        ADD       A,#0x4
        LCALL     ??Subroutine67_0 & 0xFFFF
??CrossCallReturnLabel_155:
        LCALL     ?PUSH_XSTACK_I_THREE
          CFI CFA_XSP16 add(XSP16, 84)
        MOV       R4,#0x4
        MOV       R5,#0x0
        MOV       A,#0x9
        LCALL     ?XSTACK_DISP0_8
        MOV       R1,DPL
        MOV       R2,DPH
        MOV       R3,#0x0
        LCALL     `??osal_memcmp::?relay`; Banked call to: osal_memcmp
        MOV       A,#0x3
        LCALL     ?DEALLOC_XSTACK8
          CFI CFA_XSP16 add(XSP16, 81)
        MOV       A,R1
        JNZ       ??gp_ZclPairingParse_12
        SJMP      ??gp_ZclPairingParse_10
??gp_ZclPairingParse_11:
        MOV       A,#0x2
        XRL       A,R0
        JNZ       ??gp_ZclPairingParse_10
        ; Setup parameters for call to function osal_memcmp
        MOV       ?V0,?V6
        MOV       ?V1,?V7
        MOV       ?V2,#0x0
        MOV       R0,#?V0
        LCALL     ?PUSH_XSTACK_I_THREE
          CFI CFA_XSP16 add(XSP16, 84)
        MOV       R4,#0x8
        MOV       R5,#0x0
        MOV       A,#0x5
        LCALL     ?XSTACK_DISP0_8
        MOV       R1,DPL
        MOV       R2,DPH
        MOV       R3,#0x0
        LCALL     `??osal_memcmp::?relay`; Banked call to: osal_memcmp
        MOV       A,#0x3
        LCALL     ?DEALLOC_XSTACK8
          CFI CFA_XSP16 add(XSP16, 81)
        MOV       A,R1
        JZ        ??gp_ZclPairingParse_10
??gp_ZclPairingParse_12:
        ; Setup parameters for call to function gp_ResetProxyBasicTblEntry
        MOV       R2,?XSP + 0
        MOV       R3,?XSP + 1
        LCALL     `??gp_ResetProxyBasicTblEntry::?relay`; Banked call to: gp_ResetProxyBasicTblEntry
??gp_ZclPairingParse_10:
        INC       ?V4
        MOV       A,?V4
        CLR       C
        SUBB      A,#0x6
        JNC       $+5
        LJMP      ??gp_ZclPairingParse_9 & 0xFFFF
        LJMP      ??gp_ZclPairingParse_8 & 0xFFFF
??gp_ZclPairingParse_7:
        ; Setup parameters for call to function gp_PopulateField
        MOV       R1,#0x1
        MOV       R4,?V4
        MOV       R5,?V5
        LCALL     `??gp_PopulateField::?relay`; Banked call to: gp_PopulateField
        MOV       DPL,R6
        MOV       DPH,R7
        MOV       R0,#?V0
        LCALL     ?L_MOV_X
        MOV       A,?V1
        ANL       A,#0x40
        JZ        ??gp_ZclPairingParse_13
        ; Setup parameters for call to function gp_PopulateField
        MOV       R1,#0x4
        MOV       R4,?V4
        MOV       R5,?V5
        MOV       R2,?V6
        MOV       R3,?V7
        LCALL     `??gp_PopulateField::?relay`; Banked call to: gp_PopulateField
        SJMP      ??CrossCallReturnLabel_99
??gp_ZclPairingParse_13:
        MOV       DPL,?V6
        MOV       DPH,?V7
        LCALL     ?Subroutine14 & 0xFFFF
??CrossCallReturnLabel_99:
        MOV       A,R6
        ADD       A,#0x22
        LCALL     ?Subroutine43 & 0xFFFF
??CrossCallReturnLabel_67:
        LCALL     ?L_MOV_X
        MOV       A,?V1
        ANL       A,#0x80
        JZ        ??gp_ZclPairingParse_14
        ; Setup parameters for call to function gp_PopulateField
        MOV       R1,#0x10
        MOV       R4,?V4
        MOV       R5,?V5
        LCALL     `??gp_PopulateField::?relay`; Banked call to: gp_PopulateField
        SJMP      ??gp_ZclPairingParse_15
??gp_ZclPairingParse_14:
        ; Setup parameters for call to function osal_memset
        MOV       R4,#0x10
        MOV       R5,#0x0
        MOV       R1,#-0x1
        LCALL     `??osal_memset::?relay`; Banked call to: osal_memset
??gp_ZclPairingParse_15:
        MOV       DPL,R6
        MOV       DPH,R7
        MOV       R0,#?V0
        LCALL     ?L_MOV_X
        MOV       DPTR,#__Constant_10000
        MOV       R0,#?V0
        LCALL     ?L_AND_X
        LCALL     ?Subroutine49 & 0xFFFF
??CrossCallReturnLabel_123:
        JZ        ??gp_ZclPairingParse_16
        ; Setup parameters for call to function gp_PopulateField
        MOV       R1,#0x2
        MOV       R4,?V4
        MOV       R5,?V5
        MOV       A,R6
        ADD       A,#0x32
        MOV       R2,A
        CLR       A
        ADDC      A,R7
        MOV       R3,A
        LCALL     `??gp_PopulateField::?relay`; Banked call to: gp_PopulateField
        SJMP      ??CrossCallReturnLabel_63
??gp_ZclPairingParse_16:
        LCALL     ?Subroutine41 & 0xFFFF
??CrossCallReturnLabel_63:
        MOV       DPL,R6
        MOV       DPH,R7
        MOV       R0,#?V0
        LCALL     ?L_MOV_X
        MOV       DPTR,#__Constant_20000
        MOV       R0,#?V0
        LCALL     ?L_AND_X
        LCALL     ?Subroutine49 & 0xFFFF
??CrossCallReturnLabel_124:
        JZ        ??gp_ZclPairingParse_17
        ; Setup parameters for call to function gp_PopulateField
        MOV       R1,#0x1
        MOV       R4,?V4
        MOV       R5,?V5
        MOV       A,R6
        ADD       A,#0x34
        MOV       R2,A
        CLR       A
        ADDC      A,R7
        MOV       R3,A
        LCALL     `??gp_PopulateField::?relay`; Banked call to: gp_PopulateField
        LJMP      ??gp_ZclPairingParse_8 & 0xFFFF
??gp_ZclPairingParse_17:
        LJMP      ??CrossCallReturnLabel_62 & 0xFFFF
          CFI EndBlock cfiBlock128

        RSEG BANKED_CODE:HUGECODE:NOROOT(0)
?Subroutine49:
          CFI Block cfiCond129 Using cfiCommon0
          CFI Function gp_ZclPairingParse
          CFI Conditional ??CrossCallReturnLabel_123
          CFI R6 load(1, XDATA, add(CFA_XSP16, literal(-16)))
          CFI VB load(1, XDATA, add(CFA_XSP16, literal(-15)))
          CFI V0 load(1, XDATA, add(CFA_XSP16, literal(-14)))
          CFI V1 load(1, XDATA, add(CFA_XSP16, literal(-13)))
          CFI V2 load(1, XDATA, add(CFA_XSP16, literal(-12)))
          CFI V3 load(1, XDATA, add(CFA_XSP16, literal(-11)))
          CFI V4 load(1, XDATA, add(CFA_XSP16, literal(-10)))
          CFI V5 load(1, XDATA, add(CFA_XSP16, literal(-9)))
          CFI V6 load(1, XDATA, add(CFA_XSP16, literal(-8)))
          CFI V7 load(1, XDATA, add(CFA_XSP16, literal(-7)))
          CFI R7 load(1, XDATA, add(CFA_XSP16, literal(-6)))
          CFI ?RET_LOW load(1, XDATA, add(CFA_XSP16, literal(-5)))
          CFI ?RET_HIGH load(1, XDATA, add(CFA_XSP16, literal(-4)))
          CFI ?BRET_EXT load(1, XDATA, add(CFA_XSP16, literal(-3)))
          CFI DPL0 load(1, XDATA, add(CFA_XSP16, literal(-2)))
          CFI DPH0 load(1, XDATA, add(CFA_XSP16, literal(-1)))
          CFI CFA_SP SP+-2
          CFI CFA_XSP16 add(XSP16, 81)
          CFI Block cfiCond130 Using cfiCommon0
          CFI (cfiCond130) Function gp_ZclPairingParse
          CFI (cfiCond130) Conditional ??CrossCallReturnLabel_124
          CFI (cfiCond130) R6 load(1, XDATA, add(CFA_XSP16, literal(-16)))
          CFI (cfiCond130) VB load(1, XDATA, add(CFA_XSP16, literal(-15)))
          CFI (cfiCond130) V0 load(1, XDATA, add(CFA_XSP16, literal(-14)))
          CFI (cfiCond130) V1 load(1, XDATA, add(CFA_XSP16, literal(-13)))
          CFI (cfiCond130) V2 load(1, XDATA, add(CFA_XSP16, literal(-12)))
          CFI (cfiCond130) V3 load(1, XDATA, add(CFA_XSP16, literal(-11)))
          CFI (cfiCond130) V4 load(1, XDATA, add(CFA_XSP16, literal(-10)))
          CFI (cfiCond130) V5 load(1, XDATA, add(CFA_XSP16, literal(-9)))
          CFI (cfiCond130) V6 load(1, XDATA, add(CFA_XSP16, literal(-8)))
          CFI (cfiCond130) V7 load(1, XDATA, add(CFA_XSP16, literal(-7)))
          CFI (cfiCond130) R7 load(1, XDATA, add(CFA_XSP16, literal(-6)))
          CFI (cfiCond130) ?RET_LOW load(1, XDATA, add(CFA_XSP16, literal(-5)))
          CFI (cfiCond130) ?RET_HIGH load(1, XDATA, add(CFA_XSP16, literal(-4)))
          CFI (cfiCond130) ?BRET_EXT load(1, XDATA, add(CFA_XSP16, literal(-3)))
          CFI (cfiCond130) DPL0 load(1, XDATA, add(CFA_XSP16, literal(-2)))
          CFI (cfiCond130) DPH0 load(1, XDATA, add(CFA_XSP16, literal(-1)))
          CFI (cfiCond130) CFA_SP SP+-2
          CFI (cfiCond130) CFA_XSP16 add(XSP16, 81)
          CFI Block cfiPicker131 Using cfiCommon1
          CFI (cfiPicker131) NoFunction
          CFI (cfiPicker131) Picker
        MOV       A,?V0
          CFI EndBlock cfiCond129
          CFI EndBlock cfiCond130
          CFI EndBlock cfiPicker131
        REQUIRE ??Subroutine61_0
        ; // Fall through to label ??Subroutine61_0

        RSEG BANKED_CODE:HUGECODE:NOROOT(0)
??Subroutine61_0:
          CFI Block cfiCond132 Using cfiCommon0
          CFI Function GP_DataInd
          CFI Conditional ??CrossCallReturnLabel_122
          CFI R6 load(1, XDATA, add(CFA_XSP16, literal(-14)))
          CFI VB load(1, XDATA, add(CFA_XSP16, literal(-13)))
          CFI V0 load(1, XDATA, add(CFA_XSP16, literal(-12)))
          CFI V1 load(1, XDATA, add(CFA_XSP16, literal(-11)))
          CFI V2 load(1, XDATA, add(CFA_XSP16, literal(-10)))
          CFI V3 load(1, XDATA, add(CFA_XSP16, literal(-9)))
          CFI V4 load(1, XDATA, add(CFA_XSP16, literal(-8)))
          CFI V5 load(1, XDATA, add(CFA_XSP16, literal(-7)))
          CFI R7 load(1, XDATA, add(CFA_XSP16, literal(-6)))
          CFI ?RET_LOW load(1, XDATA, add(CFA_XSP16, literal(-5)))
          CFI ?RET_HIGH load(1, XDATA, add(CFA_XSP16, literal(-4)))
          CFI ?BRET_EXT load(1, XDATA, add(CFA_XSP16, literal(-3)))
          CFI DPL0 load(1, XDATA, add(CFA_XSP16, literal(-2)))
          CFI DPH0 load(1, XDATA, add(CFA_XSP16, literal(-1)))
          CFI CFA_SP SP+-2
          CFI CFA_XSP16 add(XSP16, 146)
          CFI Block cfiCond133 Using cfiCommon0
          CFI (cfiCond133) Function gp_ZclPairingParse
          CFI (cfiCond133) Conditional ??CrossCallReturnLabel_123
          CFI (cfiCond133) R6 load(1, XDATA, add(CFA_XSP16, literal(-16)))
          CFI (cfiCond133) VB load(1, XDATA, add(CFA_XSP16, literal(-15)))
          CFI (cfiCond133) V0 load(1, XDATA, add(CFA_XSP16, literal(-14)))
          CFI (cfiCond133) V1 load(1, XDATA, add(CFA_XSP16, literal(-13)))
          CFI (cfiCond133) V2 load(1, XDATA, add(CFA_XSP16, literal(-12)))
          CFI (cfiCond133) V3 load(1, XDATA, add(CFA_XSP16, literal(-11)))
          CFI (cfiCond133) V4 load(1, XDATA, add(CFA_XSP16, literal(-10)))
          CFI (cfiCond133) V5 load(1, XDATA, add(CFA_XSP16, literal(-9)))
          CFI (cfiCond133) V6 load(1, XDATA, add(CFA_XSP16, literal(-8)))
          CFI (cfiCond133) V7 load(1, XDATA, add(CFA_XSP16, literal(-7)))
          CFI (cfiCond133) R7 load(1, XDATA, add(CFA_XSP16, literal(-6)))
          CFI (cfiCond133) ?RET_LOW load(1, XDATA, add(CFA_XSP16, literal(-5)))
          CFI (cfiCond133) ?RET_HIGH load(1, XDATA, add(CFA_XSP16, literal(-4)))
          CFI (cfiCond133) ?BRET_EXT load(1, XDATA, add(CFA_XSP16, literal(-3)))
          CFI (cfiCond133) DPL0 load(1, XDATA, add(CFA_XSP16, literal(-2)))
          CFI (cfiCond133) DPH0 load(1, XDATA, add(CFA_XSP16, literal(-1)))
          CFI (cfiCond133) CFA_SP SP+-2
          CFI (cfiCond133) CFA_XSP16 add(XSP16, 81)
          CFI Block cfiCond134 Using cfiCommon0
          CFI (cfiCond134) Function gp_ZclPairingParse
          CFI (cfiCond134) Conditional ??CrossCallReturnLabel_124
          CFI (cfiCond134) R6 load(1, XDATA, add(CFA_XSP16, literal(-16)))
          CFI (cfiCond134) VB load(1, XDATA, add(CFA_XSP16, literal(-15)))
          CFI (cfiCond134) V0 load(1, XDATA, add(CFA_XSP16, literal(-14)))
          CFI (cfiCond134) V1 load(1, XDATA, add(CFA_XSP16, literal(-13)))
          CFI (cfiCond134) V2 load(1, XDATA, add(CFA_XSP16, literal(-12)))
          CFI (cfiCond134) V3 load(1, XDATA, add(CFA_XSP16, literal(-11)))
          CFI (cfiCond134) V4 load(1, XDATA, add(CFA_XSP16, literal(-10)))
          CFI (cfiCond134) V5 load(1, XDATA, add(CFA_XSP16, literal(-9)))
          CFI (cfiCond134) V6 load(1, XDATA, add(CFA_XSP16, literal(-8)))
          CFI (cfiCond134) V7 load(1, XDATA, add(CFA_XSP16, literal(-7)))
          CFI (cfiCond134) R7 load(1, XDATA, add(CFA_XSP16, literal(-6)))
          CFI (cfiCond134) ?RET_LOW load(1, XDATA, add(CFA_XSP16, literal(-5)))
          CFI (cfiCond134) ?RET_HIGH load(1, XDATA, add(CFA_XSP16, literal(-4)))
          CFI (cfiCond134) ?BRET_EXT load(1, XDATA, add(CFA_XSP16, literal(-3)))
          CFI (cfiCond134) DPL0 load(1, XDATA, add(CFA_XSP16, literal(-2)))
          CFI (cfiCond134) DPH0 load(1, XDATA, add(CFA_XSP16, literal(-1)))
          CFI (cfiCond134) CFA_SP SP+-2
          CFI (cfiCond134) CFA_XSP16 add(XSP16, 81)
          CFI Block cfiPicker135 Using cfiCommon1
          CFI (cfiPicker135) NoFunction
          CFI (cfiPicker135) Picker
        ORL       A,?V1
        ORL       A,?V2
        ORL       A,?V3
        RET
          CFI EndBlock cfiCond132
          CFI EndBlock cfiCond133
          CFI EndBlock cfiCond134
          CFI EndBlock cfiPicker135

        RSEG BANKED_CODE:HUGECODE:NOROOT(0)
?Subroutine43:
          CFI Block cfiCond136 Using cfiCommon0
          CFI Function gp_ZclPairingParse
          CFI Conditional ??CrossCallReturnLabel_66
          CFI R6 load(1, XDATA, add(CFA_XSP16, literal(-16)))
          CFI VB load(1, XDATA, add(CFA_XSP16, literal(-15)))
          CFI V0 load(1, XDATA, add(CFA_XSP16, literal(-14)))
          CFI V1 load(1, XDATA, add(CFA_XSP16, literal(-13)))
          CFI V2 load(1, XDATA, add(CFA_XSP16, literal(-12)))
          CFI V3 load(1, XDATA, add(CFA_XSP16, literal(-11)))
          CFI V4 load(1, XDATA, add(CFA_XSP16, literal(-10)))
          CFI V5 load(1, XDATA, add(CFA_XSP16, literal(-9)))
          CFI V6 load(1, XDATA, add(CFA_XSP16, literal(-8)))
          CFI V7 load(1, XDATA, add(CFA_XSP16, literal(-7)))
          CFI R7 load(1, XDATA, add(CFA_XSP16, literal(-6)))
          CFI ?RET_LOW load(1, XDATA, add(CFA_XSP16, literal(-5)))
          CFI ?RET_HIGH load(1, XDATA, add(CFA_XSP16, literal(-4)))
          CFI ?BRET_EXT load(1, XDATA, add(CFA_XSP16, literal(-3)))
          CFI DPL0 load(1, XDATA, add(CFA_XSP16, literal(-2)))
          CFI DPH0 load(1, XDATA, add(CFA_XSP16, literal(-1)))
          CFI CFA_SP SP+-2
          CFI CFA_XSP16 add(XSP16, 81)
          CFI Block cfiCond137 Using cfiCommon0
          CFI (cfiCond137) Function gp_ZclPairingParse
          CFI (cfiCond137) Conditional ??CrossCallReturnLabel_67
          CFI (cfiCond137) R6 load(1, XDATA, add(CFA_XSP16, literal(-16)))
          CFI (cfiCond137) VB load(1, XDATA, add(CFA_XSP16, literal(-15)))
          CFI (cfiCond137) V0 load(1, XDATA, add(CFA_XSP16, literal(-14)))
          CFI (cfiCond137) V1 load(1, XDATA, add(CFA_XSP16, literal(-13)))
          CFI (cfiCond137) V2 load(1, XDATA, add(CFA_XSP16, literal(-12)))
          CFI (cfiCond137) V3 load(1, XDATA, add(CFA_XSP16, literal(-11)))
          CFI (cfiCond137) V4 load(1, XDATA, add(CFA_XSP16, literal(-10)))
          CFI (cfiCond137) V5 load(1, XDATA, add(CFA_XSP16, literal(-9)))
          CFI (cfiCond137) V6 load(1, XDATA, add(CFA_XSP16, literal(-8)))
          CFI (cfiCond137) V7 load(1, XDATA, add(CFA_XSP16, literal(-7)))
          CFI (cfiCond137) R7 load(1, XDATA, add(CFA_XSP16, literal(-6)))
          CFI (cfiCond137) ?RET_LOW load(1, XDATA, add(CFA_XSP16, literal(-5)))
          CFI (cfiCond137) ?RET_HIGH load(1, XDATA, add(CFA_XSP16, literal(-4)))
          CFI (cfiCond137) ?BRET_EXT load(1, XDATA, add(CFA_XSP16, literal(-3)))
          CFI (cfiCond137) DPL0 load(1, XDATA, add(CFA_XSP16, literal(-2)))
          CFI (cfiCond137) DPH0 load(1, XDATA, add(CFA_XSP16, literal(-1)))
          CFI (cfiCond137) CFA_SP SP+-2
          CFI (cfiCond137) CFA_XSP16 add(XSP16, 81)
          CFI Block cfiPicker138 Using cfiCommon1
          CFI (cfiPicker138) NoFunction
          CFI (cfiPicker138) Picker
        MOV       R2,A
        CLR       A
        ADDC      A,R7
        MOV       R3,A
        MOV       DPL,R6
        MOV       DPH,R7
        MOV       R0,#?V0
        RET
          CFI EndBlock cfiCond136
          CFI EndBlock cfiCond137
          CFI EndBlock cfiPicker138

        RSEG BANKED_CODE:HUGECODE:NOROOT(0)
?Subroutine41:
          CFI Block cfiCond139 Using cfiCommon0
          CFI Function gp_ZclPairingParse
          CFI Conditional ??CrossCallReturnLabel_62
          CFI R6 load(1, XDATA, add(CFA_XSP16, literal(-16)))
          CFI VB load(1, XDATA, add(CFA_XSP16, literal(-15)))
          CFI V0 load(1, XDATA, add(CFA_XSP16, literal(-14)))
          CFI V1 load(1, XDATA, add(CFA_XSP16, literal(-13)))
          CFI V2 load(1, XDATA, add(CFA_XSP16, literal(-12)))
          CFI V3 load(1, XDATA, add(CFA_XSP16, literal(-11)))
          CFI V4 load(1, XDATA, add(CFA_XSP16, literal(-10)))
          CFI V5 load(1, XDATA, add(CFA_XSP16, literal(-9)))
          CFI V6 load(1, XDATA, add(CFA_XSP16, literal(-8)))
          CFI V7 load(1, XDATA, add(CFA_XSP16, literal(-7)))
          CFI R7 load(1, XDATA, add(CFA_XSP16, literal(-6)))
          CFI ?RET_LOW load(1, XDATA, add(CFA_XSP16, literal(-5)))
          CFI ?RET_HIGH load(1, XDATA, add(CFA_XSP16, literal(-4)))
          CFI ?BRET_EXT load(1, XDATA, add(CFA_XSP16, literal(-3)))
          CFI DPL0 load(1, XDATA, add(CFA_XSP16, literal(-2)))
          CFI DPH0 load(1, XDATA, add(CFA_XSP16, literal(-1)))
          CFI CFA_SP SP+-2
          CFI CFA_XSP16 add(XSP16, 81)
          CFI Block cfiCond140 Using cfiCommon0
          CFI (cfiCond140) Function gp_ZclPairingParse
          CFI (cfiCond140) Conditional ??CrossCallReturnLabel_63
          CFI (cfiCond140) R6 load(1, XDATA, add(CFA_XSP16, literal(-16)))
          CFI (cfiCond140) VB load(1, XDATA, add(CFA_XSP16, literal(-15)))
          CFI (cfiCond140) V0 load(1, XDATA, add(CFA_XSP16, literal(-14)))
          CFI (cfiCond140) V1 load(1, XDATA, add(CFA_XSP16, literal(-13)))
          CFI (cfiCond140) V2 load(1, XDATA, add(CFA_XSP16, literal(-12)))
          CFI (cfiCond140) V3 load(1, XDATA, add(CFA_XSP16, literal(-11)))
          CFI (cfiCond140) V4 load(1, XDATA, add(CFA_XSP16, literal(-10)))
          CFI (cfiCond140) V5 load(1, XDATA, add(CFA_XSP16, literal(-9)))
          CFI (cfiCond140) V6 load(1, XDATA, add(CFA_XSP16, literal(-8)))
          CFI (cfiCond140) V7 load(1, XDATA, add(CFA_XSP16, literal(-7)))
          CFI (cfiCond140) R7 load(1, XDATA, add(CFA_XSP16, literal(-6)))
          CFI (cfiCond140) ?RET_LOW load(1, XDATA, add(CFA_XSP16, literal(-5)))
          CFI (cfiCond140) ?RET_HIGH load(1, XDATA, add(CFA_XSP16, literal(-4)))
          CFI (cfiCond140) ?BRET_EXT load(1, XDATA, add(CFA_XSP16, literal(-3)))
          CFI (cfiCond140) DPL0 load(1, XDATA, add(CFA_XSP16, literal(-2)))
          CFI (cfiCond140) DPH0 load(1, XDATA, add(CFA_XSP16, literal(-1)))
          CFI (cfiCond140) CFA_SP SP+-2
          CFI (cfiCond140) CFA_XSP16 add(XSP16, 81)
          CFI Block cfiPicker141 Using cfiCommon1
          CFI (cfiPicker141) NoFunction
          CFI (cfiPicker141) Picker
        MOV       A,R6
        ADD       A,#0x32
        MOV       DPL,A
        CLR       A
        ADDC      A,R7
        MOV       DPH,A
        MOV       A,#-0x1
        MOVX      @DPTR,A
        INC       DPTR
        MOVX      @DPTR,A
        RET
          CFI EndBlock cfiCond139
          CFI EndBlock cfiCond140
          CFI EndBlock cfiPicker141
// 1138 
// 1139  /*********************************************************************
// 1140  * @fn          gp_ZclProxyTableReqParse
// 1141  *
// 1142  * @brief       Parse the proxy table request data message payload
// 1143  *
// 1144  * @param       
// 1145  *
// 1146  * @return      
// 1147  */

        RSEG BANKED_CODE:HUGECODE:NOROOT(0)
// 1148 static void gp_ZclProxyTableReqParse( zclGpProxyTableRequest_t* pCmd, gpProxyTableReqCmd_t* payload )
gp_ZclProxyTableReqParse:
          CFI Block cfiBlock142 Using cfiCommon0
          CFI Function gp_ZclProxyTableReqParse
        CODE
// 1149 {
        FUNCALL gp_ZclProxyTableReqParse, gp_PopulateField
        LOCFRAME ISTACK, 0, STACK
        LOCFRAME PSTACK, 0, STACK
        LOCFRAME XSTACK, 14, STACK
        LOCFRAME IOVERLAY, 0, STATIC
        LOCFRAME DOVERLAY, 0, STATIC
        ARGFRAME ISTACK, 0, STACK
        ARGFRAME PSTACK, 0, STACK
        ARGFRAME XSTACK, 14, STACK
        ARGFRAME IOVERLAY, 0, STATIC
        ARGFRAME DOVERLAY, 0, STATIC
        FUNCALL gp_ZclProxyTableReqParse, osal_memset
        LOCFRAME ISTACK, 0, STACK
        LOCFRAME PSTACK, 0, STACK
        LOCFRAME XSTACK, 14, STACK
        LOCFRAME IOVERLAY, 0, STATIC
        LOCFRAME DOVERLAY, 0, STATIC
        ARGFRAME ISTACK, 0, STACK
        ARGFRAME PSTACK, 0, STACK
        ARGFRAME XSTACK, 14, STACK
        ARGFRAME IOVERLAY, 0, STATIC
        ARGFRAME DOVERLAY, 0, STATIC
        FUNCALL gp_ZclProxyTableReqParse, gp_PopulateField
        LOCFRAME ISTACK, 0, STACK
        LOCFRAME PSTACK, 0, STACK
        LOCFRAME XSTACK, 14, STACK
        LOCFRAME IOVERLAY, 0, STATIC
        LOCFRAME DOVERLAY, 0, STATIC
        ARGFRAME ISTACK, 0, STACK
        ARGFRAME PSTACK, 0, STACK
        ARGFRAME XSTACK, 14, STACK
        ARGFRAME IOVERLAY, 0, STATIC
        ARGFRAME DOVERLAY, 0, STATIC
        FUNCALL gp_ZclProxyTableReqParse, gp_PopulateField
        LOCFRAME ISTACK, 0, STACK
        LOCFRAME PSTACK, 0, STACK
        LOCFRAME XSTACK, 14, STACK
        LOCFRAME IOVERLAY, 0, STATIC
        LOCFRAME DOVERLAY, 0, STATIC
        ARGFRAME ISTACK, 0, STACK
        ARGFRAME PSTACK, 0, STACK
        ARGFRAME XSTACK, 14, STACK
        ARGFRAME IOVERLAY, 0, STATIC
        ARGFRAME DOVERLAY, 0, STATIC
        FUNCALL gp_ZclProxyTableReqParse, osal_memset
        LOCFRAME ISTACK, 0, STACK
        LOCFRAME PSTACK, 0, STACK
        LOCFRAME XSTACK, 14, STACK
        LOCFRAME IOVERLAY, 0, STATIC
        LOCFRAME DOVERLAY, 0, STATIC
        ARGFRAME ISTACK, 0, STACK
        ARGFRAME PSTACK, 0, STACK
        ARGFRAME XSTACK, 14, STACK
        ARGFRAME IOVERLAY, 0, STATIC
        ARGFRAME DOVERLAY, 0, STATIC
        FUNCALL gp_ZclProxyTableReqParse, gp_PopulateField
        LOCFRAME ISTACK, 0, STACK
        LOCFRAME PSTACK, 0, STACK
        LOCFRAME XSTACK, 14, STACK
        LOCFRAME IOVERLAY, 0, STATIC
        LOCFRAME DOVERLAY, 0, STATIC
        ARGFRAME ISTACK, 0, STACK
        ARGFRAME PSTACK, 0, STACK
        ARGFRAME XSTACK, 14, STACK
        ARGFRAME IOVERLAY, 0, STATIC
        ARGFRAME DOVERLAY, 0, STATIC
        REQUIRE ?V0
        REQUIRE ?V1
        REQUIRE ?V2
        REQUIRE ?V3
        REQUIRE ?V4
        REQUIRE ?V5
        MOV       A,#-0xe
        LCALL     ?BANKED_ENTER_XDATA
          CFI DPH0 load(1, XDATA, add(CFA_XSP16, literal(-1)))
          CFI DPL0 load(1, XDATA, add(CFA_XSP16, literal(-2)))
          CFI ?BRET_EXT load(1, XDATA, add(CFA_XSP16, literal(-3)))
          CFI ?RET_HIGH load(1, XDATA, add(CFA_XSP16, literal(-4)))
          CFI ?RET_LOW load(1, XDATA, add(CFA_XSP16, literal(-5)))
          CFI R7 load(1, XDATA, add(CFA_XSP16, literal(-6)))
          CFI V5 load(1, XDATA, add(CFA_XSP16, literal(-7)))
          CFI V4 load(1, XDATA, add(CFA_XSP16, literal(-8)))
          CFI V3 load(1, XDATA, add(CFA_XSP16, literal(-9)))
          CFI V2 load(1, XDATA, add(CFA_XSP16, literal(-10)))
          CFI V1 load(1, XDATA, add(CFA_XSP16, literal(-11)))
          CFI V0 load(1, XDATA, add(CFA_XSP16, literal(-12)))
          CFI VB load(1, XDATA, add(CFA_XSP16, literal(-13)))
          CFI R6 load(1, XDATA, add(CFA_XSP16, literal(-14)))
          CFI CFA_SP SP+0
          CFI CFA_XSP16 add(XSP16, 14)
        ; Saved register size: 14
        ; Auto size: 0
// 1150 
// 1151   payload->options =  pCmd->options;
        MOV       DPL,R2
        MOV       DPH,R3
        INC       DPTR
        INC       DPTR
        MOVX      A,@DPTR
        MOV       R0,A
        MOV       DPL,R4
        MOV       DPH,R5
        MOVX      @DPTR,A
// 1152     
// 1153   // If Request type bitfield is 0b00
// 1154   if( GP_IS_REQ_TYP_GPD( payload->options ) )
        RRC       A
        RRC       A
        RRC       A
        ANL       A,#0x1f
        ANL       A,#0x3
        MOV       R1,A
        MOV       A,R4
        ADD       A,#0xe
        MOV       ?V4,A
        CLR       A
        ADDC      A,R5
        MOV       ?V5,A
        MOV       A,R4
        ADD       A,#0xd
        MOV       ?V2,A
        CLR       A
        ADDC      A,R5
        MOV       ?V3,A
        MOV       A,R4
        ADD       A,#0x5
        MOV       ?V0,A
        CLR       A
        ADDC      A,R5
        MOV       ?V1,A
        INC       DPTR
        MOV       A,R2
        ADD       A,#0x3
        MOV       R6,A
        CLR       A
        ADDC      A,R3
        MOV       R7,A
        MOV       A,R1
        JNZ       ??gp_ZclProxyTableReqParse_0
// 1155   {  
// 1156     // If Application Id bitfield is 0b000
// 1157     if( GP_IS_APPLICATION_ID_GPD( payload->options ) )
        MOV       A,#0x7
        ANL       A,R0
        MOV       R0,A
        JNZ       ??gp_ZclProxyTableReqParse_1
// 1158     {        
// 1159       // Populate GPD ID
// 1160       gp_PopulateField( ( uint8* )&payload->gpdId, &pCmd->pData, sizeof( payload->gpdId ) );
        ; Setup parameters for call to function gp_PopulateField
        MOV       R1,#0x4
        MOV       A,R6
        MOV       R4,A
        MOV       A,R7
        MOV       R5,A
        MOV       R2,DPL
        MOV       R3,DPH
        LCALL     `??gp_PopulateField::?relay`; Banked call to: gp_PopulateField
// 1161     
// 1162       // Populate GPD IEEE Invalid
// 1163       osal_memset ( &payload->gpdIEEE, 0xFF, Z_EXTADDR_LEN );
        ; Setup parameters for call to function osal_memset
        MOV       R4,#0x8
        MOV       R5,#0x0
        MOV       R1,#-0x1
        MOV       R2,?V0
        MOV       R3,?V1
        LCALL     `??osal_memset::?relay`; Banked call to: osal_memset
// 1164       // Populate EP Invalid
// 1165       payload->ep = 0xFF;
        MOV       DPL,?V2
        MOV       DPH,?V3
        MOV       A,#-0x1
        MOVX      @DPTR,A
        SJMP      ??gp_ZclProxyTableReqParse_2
// 1166     }
// 1167     // If Application Id bitfield is 0b010
// 1168     else if( GP_IS_APPLICATION_ID_IEEE( payload->options ) )
??gp_ZclProxyTableReqParse_1:
        MOV       A,#0x2
        XRL       A,R0
        JNZ       ??gp_ZclProxyTableReqParse_2
// 1169     {
// 1170       // Populate GPD ID Invalid
// 1171       payload->gpdId = 0xFFFFFFFF;
        LCALL     ?Subroutine13 & 0xFFFF
// 1172     
// 1173       // Populate GPD IEEE
// 1174       gp_PopulateField( ( uint8* )&payload->gpdIEEE, &pCmd->pData, Z_EXTADDR_LEN );
??CrossCallReturnLabel_20:
        MOV       A,R6
        MOV       R4,A
        MOV       A,R7
        MOV       R5,A
        MOV       R2,?V0
        MOV       R3,?V1
        LCALL     `??gp_PopulateField::?relay`; Banked call to: gp_PopulateField
// 1175       // Populate EP
// 1176       gp_PopulateField( ( uint8* )&payload->ep, &pCmd->pData, sizeof( payload->ep ) );
        ; Setup parameters for call to function gp_PopulateField
        MOV       R1,#0x1
        MOV       A,R6
        MOV       R4,A
        MOV       A,R7
        MOV       R5,A
        MOV       R2,?V2
        MOV       R3,?V3
        LCALL     `??gp_PopulateField::?relay`; Banked call to: gp_PopulateField
// 1177     }
// 1178     // Populate Index Invalid
// 1179     payload->index = 0xFF;
??gp_ZclProxyTableReqParse_2:
        MOV       DPL,?V4
        MOV       DPH,?V5
        MOV       A,#-0x1
        MOVX      @DPTR,A
        SJMP      ??gp_ZclProxyTableReqParse_3
// 1180   }
// 1181   // If Request type bitfield is 0b01
// 1182   else if( GP_IS_REQ_TPY_INDEX( payload->options ) )
??gp_ZclProxyTableReqParse_0:
        MOV       A,#0x1
        XRL       A,R1
        JNZ       ??gp_ZclProxyTableReqParse_3
// 1183   {
// 1184     // Populate GPD ID Invalid
// 1185     payload->gpdId = 0xFFFFFFFF;
        LCALL     ?Subroutine14 & 0xFFFF
// 1186     
// 1187     // Populate GPD IEEE Invalid
// 1188     osal_memset ( &payload->gpdIEEE, 0xFF, Z_EXTADDR_LEN );
??CrossCallReturnLabel_100:
        ; Setup parameters for call to function osal_memset
        MOV       R4,#0x8
        MOV       R5,#0x0
        MOV       R1,A
        MOV       R2,?V0
        MOV       R3,?V1
        LCALL     `??osal_memset::?relay`; Banked call to: osal_memset
// 1189     
// 1190     // Populate EP Invalid
// 1191     payload->ep = 0xFF;
        MOV       DPL,?V2
        MOV       DPH,?V3
        MOV       A,#-0x1
        MOVX      @DPTR,A
// 1192     
// 1193     // Populate index
// 1194     gp_PopulateField( ( uint8* )&payload->index, &pCmd->pData, sizeof( payload->index ) );
        ; Setup parameters for call to function gp_PopulateField
        MOV       R1,#0x1
        MOV       A,R6
        MOV       R4,A
        MOV       A,R7
        MOV       R5,A
        MOV       R2,?V4
        MOV       R3,?V5
        LCALL     `??gp_PopulateField::?relay`; Banked call to: gp_PopulateField
// 1195   }
// 1196 
// 1197 }
??gp_ZclProxyTableReqParse_3:
        LJMP      ??Subroutine69_0 & 0xFFFF
          CFI EndBlock cfiBlock142

        RSEG BANKED_CODE:HUGECODE:NOROOT(0)
?Subroutine13:
          CFI Block cfiCond143 Using cfiCommon0
          CFI Function gp_ZclPairingParse
          CFI Conditional ??CrossCallReturnLabel_19
          CFI R6 load(1, XDATA, add(CFA_XSP16, literal(-16)))
          CFI VB load(1, XDATA, add(CFA_XSP16, literal(-15)))
          CFI V0 load(1, XDATA, add(CFA_XSP16, literal(-14)))
          CFI V1 load(1, XDATA, add(CFA_XSP16, literal(-13)))
          CFI V2 load(1, XDATA, add(CFA_XSP16, literal(-12)))
          CFI V3 load(1, XDATA, add(CFA_XSP16, literal(-11)))
          CFI V4 load(1, XDATA, add(CFA_XSP16, literal(-10)))
          CFI V5 load(1, XDATA, add(CFA_XSP16, literal(-9)))
          CFI V6 load(1, XDATA, add(CFA_XSP16, literal(-8)))
          CFI V7 load(1, XDATA, add(CFA_XSP16, literal(-7)))
          CFI R7 load(1, XDATA, add(CFA_XSP16, literal(-6)))
          CFI ?RET_LOW load(1, XDATA, add(CFA_XSP16, literal(-5)))
          CFI ?RET_HIGH load(1, XDATA, add(CFA_XSP16, literal(-4)))
          CFI ?BRET_EXT load(1, XDATA, add(CFA_XSP16, literal(-3)))
          CFI DPL0 load(1, XDATA, add(CFA_XSP16, literal(-2)))
          CFI DPH0 load(1, XDATA, add(CFA_XSP16, literal(-1)))
          CFI CFA_SP SP+-2
          CFI CFA_XSP16 add(XSP16, 81)
          CFI Block cfiCond144 Using cfiCommon0
          CFI (cfiCond144) Function gp_ZclProxyTableReqParse
          CFI (cfiCond144) Conditional ??CrossCallReturnLabel_20
          CFI (cfiCond144) R6 load(1, XDATA, add(CFA_XSP16, literal(-14)))
          CFI (cfiCond144) VB load(1, XDATA, add(CFA_XSP16, literal(-13)))
          CFI (cfiCond144) V0 load(1, XDATA, add(CFA_XSP16, literal(-12)))
          CFI (cfiCond144) V1 load(1, XDATA, add(CFA_XSP16, literal(-11)))
          CFI (cfiCond144) V2 load(1, XDATA, add(CFA_XSP16, literal(-10)))
          CFI (cfiCond144) V3 load(1, XDATA, add(CFA_XSP16, literal(-9)))
          CFI (cfiCond144) V4 load(1, XDATA, add(CFA_XSP16, literal(-8)))
          CFI (cfiCond144) V5 load(1, XDATA, add(CFA_XSP16, literal(-7)))
          CFI (cfiCond144) R7 load(1, XDATA, add(CFA_XSP16, literal(-6)))
          CFI (cfiCond144) ?RET_LOW load(1, XDATA, add(CFA_XSP16, literal(-5)))
          CFI (cfiCond144) ?RET_HIGH load(1, XDATA, add(CFA_XSP16, literal(-4)))
          CFI (cfiCond144) ?BRET_EXT load(1, XDATA, add(CFA_XSP16, literal(-3)))
          CFI (cfiCond144) DPL0 load(1, XDATA, add(CFA_XSP16, literal(-2)))
          CFI (cfiCond144) DPH0 load(1, XDATA, add(CFA_XSP16, literal(-1)))
          CFI (cfiCond144) CFA_SP SP+-2
          CFI (cfiCond144) CFA_XSP16 add(XSP16, 14)
          CFI Block cfiPicker145 Using cfiCommon1
          CFI (cfiPicker145) NoFunction
          CFI (cfiPicker145) Picker
        MOV       A,#-0x1
        MOVX      @DPTR,A
        INC       DPTR
        MOVX      @DPTR,A
        INC       DPTR
        MOVX      @DPTR,A
        INC       DPTR
        MOVX      @DPTR,A
        ; Setup parameters for call to function gp_PopulateField
        ; Setup parameters for call to function gp_PopulateField
        MOV       R1,#0x8
        RET
          CFI EndBlock cfiCond143
          CFI EndBlock cfiCond144
          CFI EndBlock cfiPicker145
// 1198 
// 1199  /*********************************************************************
// 1200  * @fn          gp_PopulateField
// 1201  *
// 1202  * @brief       General function fill the proxy table vector item
// 1203  *
// 1204  * @param       
// 1205  *
// 1206  * @return      
// 1207  */

        RSEG BANKED_CODE:HUGECODE:NOROOT(0)
// 1208 void gp_PopulateField( uint8* pField, uint8** pData, uint8 size )
gp_PopulateField:
          CFI Block cfiBlock146 Using cfiCommon0
          CFI Function gp_PopulateField
        CODE
// 1209 {
        FUNCALL gp_PopulateField, osal_memcpy
        LOCFRAME ISTACK, 0, STACK
        LOCFRAME PSTACK, 0, STACK
        LOCFRAME XSTACK, 20, STACK
        LOCFRAME IOVERLAY, 0, STATIC
        LOCFRAME DOVERLAY, 0, STATIC
        ARGFRAME ISTACK, 0, STACK
        ARGFRAME PSTACK, 0, STACK
        ARGFRAME XSTACK, 20, STACK
        ARGFRAME IOVERLAY, 0, STATIC
        ARGFRAME DOVERLAY, 0, STATIC
        FUNCALL gp_PopulateField, osal_memcpy
        LOCFRAME ISTACK, 0, STACK
        LOCFRAME PSTACK, 0, STACK
        LOCFRAME XSTACK, 20, STACK
        LOCFRAME IOVERLAY, 0, STATIC
        LOCFRAME DOVERLAY, 0, STATIC
        ARGFRAME ISTACK, 0, STACK
        ARGFRAME PSTACK, 0, STACK
        ARGFRAME XSTACK, 20, STACK
        ARGFRAME IOVERLAY, 0, STATIC
        ARGFRAME DOVERLAY, 0, STATIC
        REQUIRE ?V0
        REQUIRE ?V1
        REQUIRE ?V2
        REQUIRE ?V3
        REQUIRE ?V4
        REQUIRE ?V5
        REQUIRE ?V6
        REQUIRE ?V7
        MOV       A,#-0x10
        LCALL     ?BANKED_ENTER_XDATA
          CFI DPH0 load(1, XDATA, add(CFA_XSP16, literal(-1)))
          CFI DPL0 load(1, XDATA, add(CFA_XSP16, literal(-2)))
          CFI ?BRET_EXT load(1, XDATA, add(CFA_XSP16, literal(-3)))
          CFI ?RET_HIGH load(1, XDATA, add(CFA_XSP16, literal(-4)))
          CFI ?RET_LOW load(1, XDATA, add(CFA_XSP16, literal(-5)))
          CFI R7 load(1, XDATA, add(CFA_XSP16, literal(-6)))
          CFI V7 load(1, XDATA, add(CFA_XSP16, literal(-7)))
          CFI V6 load(1, XDATA, add(CFA_XSP16, literal(-8)))
          CFI V5 load(1, XDATA, add(CFA_XSP16, literal(-9)))
          CFI V4 load(1, XDATA, add(CFA_XSP16, literal(-10)))
          CFI V3 load(1, XDATA, add(CFA_XSP16, literal(-11)))
          CFI V2 load(1, XDATA, add(CFA_XSP16, literal(-12)))
          CFI V1 load(1, XDATA, add(CFA_XSP16, literal(-13)))
          CFI V0 load(1, XDATA, add(CFA_XSP16, literal(-14)))
          CFI VB load(1, XDATA, add(CFA_XSP16, literal(-15)))
          CFI R6 load(1, XDATA, add(CFA_XSP16, literal(-16)))
          CFI CFA_SP SP+0
          CFI CFA_XSP16 add(XSP16, 16)
        ; Saved register size: 16
        ; Auto size: 1
        MOV       A,#-0x1
        LCALL     ?ALLOC_XSTACK8
          CFI CFA_XSP16 add(XSP16, 17)
        MOV       A,R1
        MOV       DPL,?XSP + 0
        MOV       DPH,?XSP + 1
        MOVX      @DPTR,A
        MOV       A,R4
        MOV       R6,A
        MOV       A,R5
        MOV       R7,A
// 1210   switch ( size )
        MOVX      A,@DPTR
        DEC       A
        JZ        ??gp_PopulateField_0
        DEC       A
        JZ        ??gp_PopulateField_1
        ADD       A,#-0x2
        JZ        ??gp_PopulateField_2
        ADD       A,#-0x4
        JNZ       $+5
        LJMP      ??gp_PopulateField_3 & 0xFFFF
        ADD       A,#-0x8
        JNZ       $+5
        LJMP      ??gp_PopulateField_4 & 0xFFFF
        LJMP      ??gp_PopulateField_5 & 0xFFFF
// 1211   {
// 1212     case ( sizeof( uint8 ) ):
// 1213       gp_u8CastPointer( pField, *pData );
??gp_PopulateField_0:
        MOV       DPL,R6
        MOV       DPH,R7
        LCALL     ??Subroutine63_0 & 0xFFFF
??CrossCallReturnLabel_133:
        MOVX      A,@DPTR
        MOV       R0,A
        MOV       DPL,R2
        MOV       DPH,R3
        MOVX      A,@DPTR
        ORL       A,R0
        SJMP      ??gp_PopulateField_6
// 1214       break;
// 1215     case ( sizeof( uint16 ) ):
// 1216       gp_u16CastPointer( pField, *pData );
??gp_PopulateField_1:
        MOV       DPL,R6
        MOV       DPH,R7
        LCALL     ?Subroutine30 & 0xFFFF
??CrossCallReturnLabel_43:
        MOVX      A,@DPTR
        MOV       R4,A
        MOV       DPH,R3
        MOV       DPL,R2
        MOVX      A,@DPTR
        ORL       A,R4
        MOV       R4,A
        INC       DPTR
        MOVX      A,@DPTR
        MOV       R5,A
        MOV       DPL,R2
        MOV       DPH,R3
        MOV       A,R4
        MOVX      @DPTR,A
        INC       DPTR
        MOV       A,R5
        MOVX      @DPTR,A
        MOV       DPL,R0
        MOV       DPH,R1
        INC       DPTR
        MOVX      A,@DPTR
        MOV       R1,A
        MOV       A,R4
        MOV       R0,A
        MOV       A,R5
        ORL       A,R1
        MOV       R1,A
        MOV       DPL,R2
        MOV       DPH,R3
        MOV       A,R0
        MOVX      @DPTR,A
        INC       DPTR
        MOV       A,R1
??gp_PopulateField_6:
        MOVX      @DPTR,A
// 1217       break;
        LJMP      ??gp_PopulateField_5 & 0xFFFF
// 1218     case ( sizeof( uint32 ) ):
// 1219       gp_u32CastPointer( pField, *pData );
??gp_PopulateField_2:
        MOV       DPL,R6
        MOV       DPH,R7
        LCALL     ?Subroutine33 & 0xFFFF
??CrossCallReturnLabel_49:
        MOV       DPL,R4
        MOV       DPH,R5
        MOV       R0,#?V4
        LCALL     ?L_MOV_X
        MOV       DPTR,#__Constant_ff
        MOV       R0,#?V4
        LCALL     ?L_AND_X
        MOV       DPH,R3
        MOV       DPL,R2
        MOV       R0,#?V4
        LCALL     ?L_IOR_X
        MOV       DPL,R2
        MOV       DPH,R3
        MOV       R0,#?V4
        LCALL     ?L_MOV_TO_X
        MOV       DPL,R4
        MOV       DPH,R5
        INC       DPTR
        MOV       R0,#?V0
        LCALL     ?L_MOV_X
        MOV       A,#0x8
        MOV       R0,#?V0
        LCALL     ?L_SHL
        MOV       DPTR,#__Constant_ff00
        MOV       R0,#?V0
        LCALL     ?L_AND_X
        MOV       R0,#?V4
        MOV       R1,#?V0
        LCALL     ?L_IOR
        MOV       DPL,R2
        MOV       DPH,R3
        MOV       R0,#?V4
        LCALL     ?L_MOV_TO_X
        MOV       DPL,R4
        MOV       DPH,R5
        INC       DPTR
        INC       DPTR
        MOV       R0,#?V0
        LCALL     ?L_MOV_X
        MOV       A,#0x10
        MOV       R0,#?V0
        LCALL     ?L_SHL
        MOV       DPTR,#__Constant_ff0000
        MOV       R0,#?V0
        LCALL     ?L_AND_X
        MOV       R0,#?V4
        MOV       R1,#?V0
        LCALL     ?L_IOR
        MOV       DPL,R2
        MOV       DPH,R3
        MOV       R0,#?V4
        LCALL     ?L_MOV_TO_X
        MOV       DPL,R4
        MOV       DPH,R5
        INC       DPTR
        INC       DPTR
        INC       DPTR
        MOV       R0,#?V0
        LCALL     ?L_MOV_X
        MOV       A,#0x18
        MOV       R0,#?V0
        LCALL     ?L_SHL
        MOV       R0,#?V4
        MOV       R1,#?V0
        LCALL     ?L_IOR
        MOV       DPL,R2
        MOV       DPH,R3
        MOV       R0,#?V4
        LCALL     ?L_MOV_TO_X
// 1220       break;
        SJMP      ??gp_PopulateField_5
// 1221     case ( Z_EXTADDR_LEN ):
// 1222       osal_memcpy( pField, *pData, Z_EXTADDR_LEN );
??gp_PopulateField_3:
        ; Setup parameters for call to function osal_memcpy
        LCALL     ?Subroutine26 & 0xFFFF
??CrossCallReturnLabel_126:
        LCALL     ?PUSH_XSTACK_I_THREE
          CFI CFA_XSP16 add(XSP16, 20)
        MOV       R4,#0x8
        SJMP      ??gp_PopulateField_7
          CFI CFA_XSP16 add(XSP16, 17)
// 1223       break;
// 1224     case ( SEC_KEY_LEN ):
// 1225       osal_memcpy( pField, *pData, SEC_KEY_LEN );
??gp_PopulateField_4:
        ; Setup parameters for call to function osal_memcpy
        LCALL     ?Subroutine26 & 0xFFFF
??CrossCallReturnLabel_127:
        LCALL     ?PUSH_XSTACK_I_THREE
          CFI CFA_XSP16 add(XSP16, 20)
        MOV       R4,#0x10
??gp_PopulateField_7:
        MOV       R5,#0x0
        LCALL     `??osal_memcpy::?relay`; Banked call to: osal_memcpy
        MOV       A,#0x3
        LCALL     ?DEALLOC_XSTACK8
          CFI CFA_XSP16 add(XSP16, 17)
// 1226       break;
// 1227   }
// 1228   *pData += size;
??gp_PopulateField_5:
        MOV       DPL,?XSP + 0
        MOV       DPH,?XSP + 1
        MOVX      A,@DPTR
        MOV       R0,A
        MOV       DPL,R6
        MOV       DPH,R7
        MOVX      A,@DPTR
        ADD       A,R0
        MOV       R0,A
        INC       DPTR
        MOVX      A,@DPTR
        ADDC      A,#0x0
        MOV       R1,A
        MOV       DPL,R6
        MOV       DPH,R7
        LCALL     ??Subroutine65_0 & 0xFFFF
// 1229 }
??CrossCallReturnLabel_142:
        MOV       A,#0x1
          CFI EndBlock cfiBlock146
        REQUIRE ?Subroutine1
        ; // Fall through to label ?Subroutine1

        RSEG BANKED_CODE:HUGECODE:NOROOT(0)
?Subroutine1:
          CFI Block cfiBlock147 Using cfiCommon0
          CFI NoFunction
          CFI CFA_SP SP+0
          CFI CFA_XSP16 add(XSP16, 18)
          CFI VB load(1, XDATA, add(CFA_XSP16, literal(-15)))
          CFI DPL0 load(1, XDATA, add(CFA_XSP16, literal(-2)))
          CFI DPH0 load(1, XDATA, add(CFA_XSP16, literal(-1)))
          CFI R6 load(1, XDATA, add(CFA_XSP16, literal(-16)))
          CFI R7 load(1, XDATA, add(CFA_XSP16, literal(-6)))
          CFI V0 load(1, XDATA, add(CFA_XSP16, literal(-14)))
          CFI V1 load(1, XDATA, add(CFA_XSP16, literal(-13)))
          CFI V2 load(1, XDATA, add(CFA_XSP16, literal(-12)))
          CFI V3 load(1, XDATA, add(CFA_XSP16, literal(-11)))
          CFI V4 load(1, XDATA, add(CFA_XSP16, literal(-10)))
          CFI V5 load(1, XDATA, add(CFA_XSP16, literal(-9)))
          CFI V6 load(1, XDATA, add(CFA_XSP16, literal(-8)))
          CFI V7 load(1, XDATA, add(CFA_XSP16, literal(-7)))
          CFI ?BRET_EXT load(1, XDATA, add(CFA_XSP16, literal(-3)))
          CFI ?RET_HIGH load(1, XDATA, add(CFA_XSP16, literal(-4)))
          CFI ?RET_LOW load(1, XDATA, add(CFA_XSP16, literal(-5)))
          CFI Invalid
        LCALL     ?DEALLOC_XSTACK8
          CFI CFA_XSP16 add(XSP16, 16)
          CFI Valid
        MOV       R7,#0x8
        LJMP      ?BANKED_LEAVE_XDATA
          CFI EndBlock cfiBlock147

        RSEG BANKED_CODE:HUGECODE:NOROOT(0)
?Subroutine26:
          CFI Block cfiCond148 Using cfiCommon0
          CFI Function gp_PopulateField
          CFI Conditional ??CrossCallReturnLabel_126
          CFI R6 load(1, XDATA, add(CFA_XSP16, literal(-16)))
          CFI VB load(1, XDATA, add(CFA_XSP16, literal(-15)))
          CFI V0 load(1, XDATA, add(CFA_XSP16, literal(-14)))
          CFI V1 load(1, XDATA, add(CFA_XSP16, literal(-13)))
          CFI V2 load(1, XDATA, add(CFA_XSP16, literal(-12)))
          CFI V3 load(1, XDATA, add(CFA_XSP16, literal(-11)))
          CFI V4 load(1, XDATA, add(CFA_XSP16, literal(-10)))
          CFI V5 load(1, XDATA, add(CFA_XSP16, literal(-9)))
          CFI V6 load(1, XDATA, add(CFA_XSP16, literal(-8)))
          CFI V7 load(1, XDATA, add(CFA_XSP16, literal(-7)))
          CFI R7 load(1, XDATA, add(CFA_XSP16, literal(-6)))
          CFI ?RET_LOW load(1, XDATA, add(CFA_XSP16, literal(-5)))
          CFI ?RET_HIGH load(1, XDATA, add(CFA_XSP16, literal(-4)))
          CFI ?BRET_EXT load(1, XDATA, add(CFA_XSP16, literal(-3)))
          CFI DPL0 load(1, XDATA, add(CFA_XSP16, literal(-2)))
          CFI DPH0 load(1, XDATA, add(CFA_XSP16, literal(-1)))
          CFI CFA_SP SP+-2
          CFI CFA_XSP16 add(XSP16, 17)
          CFI Block cfiCond149 Using cfiCommon0
          CFI (cfiCond149) Function gp_PopulateField
          CFI (cfiCond149) Conditional ??CrossCallReturnLabel_127
          CFI (cfiCond149) R6 load(1, XDATA, add(CFA_XSP16, literal(-16)))
          CFI (cfiCond149) VB load(1, XDATA, add(CFA_XSP16, literal(-15)))
          CFI (cfiCond149) V0 load(1, XDATA, add(CFA_XSP16, literal(-14)))
          CFI (cfiCond149) V1 load(1, XDATA, add(CFA_XSP16, literal(-13)))
          CFI (cfiCond149) V2 load(1, XDATA, add(CFA_XSP16, literal(-12)))
          CFI (cfiCond149) V3 load(1, XDATA, add(CFA_XSP16, literal(-11)))
          CFI (cfiCond149) V4 load(1, XDATA, add(CFA_XSP16, literal(-10)))
          CFI (cfiCond149) V5 load(1, XDATA, add(CFA_XSP16, literal(-9)))
          CFI (cfiCond149) V6 load(1, XDATA, add(CFA_XSP16, literal(-8)))
          CFI (cfiCond149) V7 load(1, XDATA, add(CFA_XSP16, literal(-7)))
          CFI (cfiCond149) R7 load(1, XDATA, add(CFA_XSP16, literal(-6)))
          CFI (cfiCond149) ?RET_LOW load(1, XDATA, add(CFA_XSP16, literal(-5)))
          CFI (cfiCond149) ?RET_HIGH load(1, XDATA, add(CFA_XSP16, literal(-4)))
          CFI (cfiCond149) ?BRET_EXT load(1, XDATA, add(CFA_XSP16, literal(-3)))
          CFI (cfiCond149) DPL0 load(1, XDATA, add(CFA_XSP16, literal(-2)))
          CFI (cfiCond149) DPH0 load(1, XDATA, add(CFA_XSP16, literal(-1)))
          CFI (cfiCond149) CFA_SP SP+-2
          CFI (cfiCond149) CFA_XSP16 add(XSP16, 17)
          CFI Block cfiPicker150 Using cfiCommon1
          CFI (cfiPicker150) NoFunction
          CFI (cfiPicker150) Picker
        MOV       DPL,R6
        MOV       DPH,R7
        MOVX      A,@DPTR
          CFI EndBlock cfiCond148
          CFI EndBlock cfiCond149
          CFI EndBlock cfiPicker150
        REQUIRE ??Subroutine62_0
        ; // Fall through to label ??Subroutine62_0

        RSEG BANKED_CODE:HUGECODE:NOROOT(0)
??Subroutine62_0:
          CFI Block cfiCond151 Using cfiCommon0
          CFI Function zclGp_GpResponseCommandCB
          CFI Conditional ??CrossCallReturnLabel_125
          CFI R6 load(1, XDATA, add(CFA_XSP16, literal(-15)))
          CFI VB load(1, XDATA, add(CFA_XSP16, literal(-14)))
          CFI V0 load(1, XDATA, add(CFA_XSP16, literal(-13)))
          CFI V1 load(1, XDATA, add(CFA_XSP16, literal(-12)))
          CFI V2 load(1, XDATA, add(CFA_XSP16, literal(-11)))
          CFI V3 load(1, XDATA, add(CFA_XSP16, literal(-10)))
          CFI V4 load(1, XDATA, add(CFA_XSP16, literal(-9)))
          CFI V5 load(1, XDATA, add(CFA_XSP16, literal(-8)))
          CFI V6 load(1, XDATA, add(CFA_XSP16, literal(-7)))
          CFI R7 load(1, XDATA, add(CFA_XSP16, literal(-6)))
          CFI ?RET_LOW load(1, XDATA, add(CFA_XSP16, literal(-5)))
          CFI ?RET_HIGH load(1, XDATA, add(CFA_XSP16, literal(-4)))
          CFI ?BRET_EXT load(1, XDATA, add(CFA_XSP16, literal(-3)))
          CFI DPL0 load(1, XDATA, add(CFA_XSP16, literal(-2)))
          CFI DPH0 load(1, XDATA, add(CFA_XSP16, literal(-1)))
          CFI CFA_SP SP+-2
          CFI CFA_XSP16 add(XSP16, 93)
          CFI Block cfiCond152 Using cfiCommon0
          CFI (cfiCond152) Function gp_PopulateField
          CFI (cfiCond152) Conditional ??CrossCallReturnLabel_126
          CFI (cfiCond152) R6 load(1, XDATA, add(CFA_XSP16, literal(-16)))
          CFI (cfiCond152) VB load(1, XDATA, add(CFA_XSP16, literal(-15)))
          CFI (cfiCond152) V0 load(1, XDATA, add(CFA_XSP16, literal(-14)))
          CFI (cfiCond152) V1 load(1, XDATA, add(CFA_XSP16, literal(-13)))
          CFI (cfiCond152) V2 load(1, XDATA, add(CFA_XSP16, literal(-12)))
          CFI (cfiCond152) V3 load(1, XDATA, add(CFA_XSP16, literal(-11)))
          CFI (cfiCond152) V4 load(1, XDATA, add(CFA_XSP16, literal(-10)))
          CFI (cfiCond152) V5 load(1, XDATA, add(CFA_XSP16, literal(-9)))
          CFI (cfiCond152) V6 load(1, XDATA, add(CFA_XSP16, literal(-8)))
          CFI (cfiCond152) V7 load(1, XDATA, add(CFA_XSP16, literal(-7)))
          CFI (cfiCond152) R7 load(1, XDATA, add(CFA_XSP16, literal(-6)))
          CFI (cfiCond152) ?RET_LOW load(1, XDATA, add(CFA_XSP16, literal(-5)))
          CFI (cfiCond152) ?RET_HIGH load(1, XDATA, add(CFA_XSP16, literal(-4)))
          CFI (cfiCond152) ?BRET_EXT load(1, XDATA, add(CFA_XSP16, literal(-3)))
          CFI (cfiCond152) DPL0 load(1, XDATA, add(CFA_XSP16, literal(-2)))
          CFI (cfiCond152) DPH0 load(1, XDATA, add(CFA_XSP16, literal(-1)))
          CFI (cfiCond152) CFA_SP SP+-2
          CFI (cfiCond152) CFA_XSP16 add(XSP16, 17)
          CFI Block cfiCond153 Using cfiCommon0
          CFI (cfiCond153) Function gp_PopulateField
          CFI (cfiCond153) Conditional ??CrossCallReturnLabel_127
          CFI (cfiCond153) R6 load(1, XDATA, add(CFA_XSP16, literal(-16)))
          CFI (cfiCond153) VB load(1, XDATA, add(CFA_XSP16, literal(-15)))
          CFI (cfiCond153) V0 load(1, XDATA, add(CFA_XSP16, literal(-14)))
          CFI (cfiCond153) V1 load(1, XDATA, add(CFA_XSP16, literal(-13)))
          CFI (cfiCond153) V2 load(1, XDATA, add(CFA_XSP16, literal(-12)))
          CFI (cfiCond153) V3 load(1, XDATA, add(CFA_XSP16, literal(-11)))
          CFI (cfiCond153) V4 load(1, XDATA, add(CFA_XSP16, literal(-10)))
          CFI (cfiCond153) V5 load(1, XDATA, add(CFA_XSP16, literal(-9)))
          CFI (cfiCond153) V6 load(1, XDATA, add(CFA_XSP16, literal(-8)))
          CFI (cfiCond153) V7 load(1, XDATA, add(CFA_XSP16, literal(-7)))
          CFI (cfiCond153) R7 load(1, XDATA, add(CFA_XSP16, literal(-6)))
          CFI (cfiCond153) ?RET_LOW load(1, XDATA, add(CFA_XSP16, literal(-5)))
          CFI (cfiCond153) ?RET_HIGH load(1, XDATA, add(CFA_XSP16, literal(-4)))
          CFI (cfiCond153) ?BRET_EXT load(1, XDATA, add(CFA_XSP16, literal(-3)))
          CFI (cfiCond153) DPL0 load(1, XDATA, add(CFA_XSP16, literal(-2)))
          CFI (cfiCond153) DPH0 load(1, XDATA, add(CFA_XSP16, literal(-1)))
          CFI (cfiCond153) CFA_SP SP+-2
          CFI (cfiCond153) CFA_XSP16 add(XSP16, 17)
          CFI Block cfiPicker154 Using cfiCommon1
          CFI (cfiPicker154) NoFunction
          CFI (cfiPicker154) Picker
        MOV       ?V0,A
        INC       DPTR
        MOVX      A,@DPTR
        MOV       ?V1,A
        MOV       ?V2,#0x0
        MOV       R0,#?V0
        RET
          CFI EndBlock cfiCond151
          CFI EndBlock cfiCond152
          CFI EndBlock cfiCond153
          CFI EndBlock cfiPicker154

        RSEG BANKED_CODE:HUGECODE:NOROOT(0)
?Subroutine25:
          CFI Block cfiCond155 Using cfiCommon0
          CFI Function gp_SecurityOperationProxy
          CFI Conditional ??CrossCallReturnLabel_136
          CFI R6 load(1, XDATA, add(CFA_XSP16, literal(-16)))
          CFI VB load(1, XDATA, add(CFA_XSP16, literal(-15)))
          CFI V0 load(1, XDATA, add(CFA_XSP16, literal(-14)))
          CFI V1 load(1, XDATA, add(CFA_XSP16, literal(-13)))
          CFI V2 load(1, XDATA, add(CFA_XSP16, literal(-12)))
          CFI V3 load(1, XDATA, add(CFA_XSP16, literal(-11)))
          CFI V4 load(1, XDATA, add(CFA_XSP16, literal(-10)))
          CFI V5 load(1, XDATA, add(CFA_XSP16, literal(-9)))
          CFI V6 load(1, XDATA, add(CFA_XSP16, literal(-8)))
          CFI V7 load(1, XDATA, add(CFA_XSP16, literal(-7)))
          CFI R7 load(1, XDATA, add(CFA_XSP16, literal(-6)))
          CFI ?RET_LOW load(1, XDATA, add(CFA_XSP16, literal(-5)))
          CFI ?RET_HIGH load(1, XDATA, add(CFA_XSP16, literal(-4)))
          CFI ?BRET_EXT load(1, XDATA, add(CFA_XSP16, literal(-3)))
          CFI DPL0 load(1, XDATA, add(CFA_XSP16, literal(-2)))
          CFI DPH0 load(1, XDATA, add(CFA_XSP16, literal(-1)))
          CFI CFA_SP SP+-2
          CFI CFA_XSP16 add(XSP16, 94)
          CFI Block cfiCond156 Using cfiCommon0
          CFI (cfiCond156) Function gp_SecurityOperationProxy
          CFI (cfiCond156) Conditional ??CrossCallReturnLabel_137
          CFI (cfiCond156) R6 load(1, XDATA, add(CFA_XSP16, literal(-16)))
          CFI (cfiCond156) VB load(1, XDATA, add(CFA_XSP16, literal(-15)))
          CFI (cfiCond156) V0 load(1, XDATA, add(CFA_XSP16, literal(-14)))
          CFI (cfiCond156) V1 load(1, XDATA, add(CFA_XSP16, literal(-13)))
          CFI (cfiCond156) V2 load(1, XDATA, add(CFA_XSP16, literal(-12)))
          CFI (cfiCond156) V3 load(1, XDATA, add(CFA_XSP16, literal(-11)))
          CFI (cfiCond156) V4 load(1, XDATA, add(CFA_XSP16, literal(-10)))
          CFI (cfiCond156) V5 load(1, XDATA, add(CFA_XSP16, literal(-9)))
          CFI (cfiCond156) V6 load(1, XDATA, add(CFA_XSP16, literal(-8)))
          CFI (cfiCond156) V7 load(1, XDATA, add(CFA_XSP16, literal(-7)))
          CFI (cfiCond156) R7 load(1, XDATA, add(CFA_XSP16, literal(-6)))
          CFI (cfiCond156) ?RET_LOW load(1, XDATA, add(CFA_XSP16, literal(-5)))
          CFI (cfiCond156) ?RET_HIGH load(1, XDATA, add(CFA_XSP16, literal(-4)))
          CFI (cfiCond156) ?BRET_EXT load(1, XDATA, add(CFA_XSP16, literal(-3)))
          CFI (cfiCond156) DPL0 load(1, XDATA, add(CFA_XSP16, literal(-2)))
          CFI (cfiCond156) DPH0 load(1, XDATA, add(CFA_XSP16, literal(-1)))
          CFI (cfiCond156) CFA_XSP16 add(XSP16, 94)
          CFI Block cfiPicker157 Using cfiCommon1
          CFI (cfiPicker157) NoFunction
          CFI (cfiPicker157) Picker
        MOV       DPL,?XSP + 0
        MOV       DPH,?XSP + 1
          CFI EndBlock cfiCond155
          CFI EndBlock cfiCond156
          CFI EndBlock cfiPicker157
        REQUIRE ??Subroutine63_0
        ; // Fall through to label ??Subroutine63_0

        RSEG BANKED_CODE:HUGECODE:NOROOT(0)
??Subroutine63_0:
          CFI Block cfiCond158 Using cfiCommon0
          CFI Function zclGp_DataIndParse
          CFI Conditional ??CrossCallReturnLabel_132
          CFI R6 load(1, XDATA, add(CFA_XSP16, literal(-15)))
          CFI VB load(1, XDATA, add(CFA_XSP16, literal(-14)))
          CFI V0 load(1, XDATA, add(CFA_XSP16, literal(-13)))
          CFI V1 load(1, XDATA, add(CFA_XSP16, literal(-12)))
          CFI V2 load(1, XDATA, add(CFA_XSP16, literal(-11)))
          CFI V3 load(1, XDATA, add(CFA_XSP16, literal(-10)))
          CFI V4 load(1, XDATA, add(CFA_XSP16, literal(-9)))
          CFI V5 load(1, XDATA, add(CFA_XSP16, literal(-8)))
          CFI V6 load(1, XDATA, add(CFA_XSP16, literal(-7)))
          CFI R7 load(1, XDATA, add(CFA_XSP16, literal(-6)))
          CFI ?RET_LOW load(1, XDATA, add(CFA_XSP16, literal(-5)))
          CFI ?RET_HIGH load(1, XDATA, add(CFA_XSP16, literal(-4)))
          CFI ?BRET_EXT load(1, XDATA, add(CFA_XSP16, literal(-3)))
          CFI DPL0 load(1, XDATA, add(CFA_XSP16, literal(-2)))
          CFI DPH0 load(1, XDATA, add(CFA_XSP16, literal(-1)))
          CFI CFA_SP SP+-2
          CFI CFA_XSP16 add(XSP16, 86)
          CFI Block cfiCond159 Using cfiCommon0
          CFI (cfiCond159) Function gp_PopulateField
          CFI (cfiCond159) Conditional ??CrossCallReturnLabel_133
          CFI (cfiCond159) R6 load(1, XDATA, add(CFA_XSP16, literal(-16)))
          CFI (cfiCond159) VB load(1, XDATA, add(CFA_XSP16, literal(-15)))
          CFI (cfiCond159) V0 load(1, XDATA, add(CFA_XSP16, literal(-14)))
          CFI (cfiCond159) V1 load(1, XDATA, add(CFA_XSP16, literal(-13)))
          CFI (cfiCond159) V2 load(1, XDATA, add(CFA_XSP16, literal(-12)))
          CFI (cfiCond159) V3 load(1, XDATA, add(CFA_XSP16, literal(-11)))
          CFI (cfiCond159) V4 load(1, XDATA, add(CFA_XSP16, literal(-10)))
          CFI (cfiCond159) V5 load(1, XDATA, add(CFA_XSP16, literal(-9)))
          CFI (cfiCond159) V6 load(1, XDATA, add(CFA_XSP16, literal(-8)))
          CFI (cfiCond159) V7 load(1, XDATA, add(CFA_XSP16, literal(-7)))
          CFI (cfiCond159) R7 load(1, XDATA, add(CFA_XSP16, literal(-6)))
          CFI (cfiCond159) ?RET_LOW load(1, XDATA, add(CFA_XSP16, literal(-5)))
          CFI (cfiCond159) ?RET_HIGH load(1, XDATA, add(CFA_XSP16, literal(-4)))
          CFI (cfiCond159) ?BRET_EXT load(1, XDATA, add(CFA_XSP16, literal(-3)))
          CFI (cfiCond159) DPL0 load(1, XDATA, add(CFA_XSP16, literal(-2)))
          CFI (cfiCond159) DPH0 load(1, XDATA, add(CFA_XSP16, literal(-1)))
          CFI (cfiCond159) CFA_SP SP+-2
          CFI (cfiCond159) CFA_XSP16 add(XSP16, 17)
          CFI Block cfiCond160 Using cfiCommon0
          CFI (cfiCond160) Function gp_getProxyTableByGpId
          CFI (cfiCond160) Conditional ??CrossCallReturnLabel_134
          CFI (cfiCond160) R6 load(1, XDATA, add(CFA_XSP16, literal(-15)))
          CFI (cfiCond160) VB load(1, XDATA, add(CFA_XSP16, literal(-14)))
          CFI (cfiCond160) V0 load(1, XDATA, add(CFA_XSP16, literal(-13)))
          CFI (cfiCond160) V1 load(1, XDATA, add(CFA_XSP16, literal(-12)))
          CFI (cfiCond160) V2 load(1, XDATA, add(CFA_XSP16, literal(-11)))
          CFI (cfiCond160) V3 load(1, XDATA, add(CFA_XSP16, literal(-10)))
          CFI (cfiCond160) V4 load(1, XDATA, add(CFA_XSP16, literal(-9)))
          CFI (cfiCond160) V5 load(1, XDATA, add(CFA_XSP16, literal(-8)))
          CFI (cfiCond160) V6 load(1, XDATA, add(CFA_XSP16, literal(-7)))
          CFI (cfiCond160) R7 load(1, XDATA, add(CFA_XSP16, literal(-6)))
          CFI (cfiCond160) ?RET_LOW load(1, XDATA, add(CFA_XSP16, literal(-5)))
          CFI (cfiCond160) ?RET_HIGH load(1, XDATA, add(CFA_XSP16, literal(-4)))
          CFI (cfiCond160) ?BRET_EXT load(1, XDATA, add(CFA_XSP16, literal(-3)))
          CFI (cfiCond160) DPL0 load(1, XDATA, add(CFA_XSP16, literal(-2)))
          CFI (cfiCond160) DPH0 load(1, XDATA, add(CFA_XSP16, literal(-1)))
          CFI (cfiCond160) CFA_SP SP+-2
          CFI (cfiCond160) CFA_XSP16 add(XSP16, 19)
          CFI Block cfiCond161 Using cfiCommon0
          CFI (cfiCond161) Function gp_expireDuplicateFiltering
          CFI (cfiCond161) Conditional ??CrossCallReturnLabel_135
          CFI (cfiCond161) R6 load(1, XDATA, add(CFA_XSP16, literal(-12)))
          CFI (cfiCond161) VB load(1, XDATA, add(CFA_XSP16, literal(-11)))
          CFI (cfiCond161) V0 load(1, XDATA, add(CFA_XSP16, literal(-10)))
          CFI (cfiCond161) V1 load(1, XDATA, add(CFA_XSP16, literal(-9)))
          CFI (cfiCond161) V2 load(1, XDATA, add(CFA_XSP16, literal(-8)))
          CFI (cfiCond161) V3 load(1, XDATA, add(CFA_XSP16, literal(-7)))
          CFI (cfiCond161) R7 load(1, XDATA, add(CFA_XSP16, literal(-6)))
          CFI (cfiCond161) ?RET_LOW load(1, XDATA, add(CFA_XSP16, literal(-5)))
          CFI (cfiCond161) ?RET_HIGH load(1, XDATA, add(CFA_XSP16, literal(-4)))
          CFI (cfiCond161) ?BRET_EXT load(1, XDATA, add(CFA_XSP16, literal(-3)))
          CFI (cfiCond161) DPL0 load(1, XDATA, add(CFA_XSP16, literal(-2)))
          CFI (cfiCond161) DPH0 load(1, XDATA, add(CFA_XSP16, literal(-1)))
          CFI (cfiCond161) CFA_SP SP+-2
          CFI (cfiCond161) CFA_XSP16 add(XSP16, 12)
          CFI Block cfiCond162 Using cfiCommon0
          CFI (cfiCond162) Function gp_SecurityOperationProxy
          CFI (cfiCond162) Conditional ??CrossCallReturnLabel_136
          CFI (cfiCond162) R6 load(1, XDATA, add(CFA_XSP16, literal(-16)))
          CFI (cfiCond162) VB load(1, XDATA, add(CFA_XSP16, literal(-15)))
          CFI (cfiCond162) V0 load(1, XDATA, add(CFA_XSP16, literal(-14)))
          CFI (cfiCond162) V1 load(1, XDATA, add(CFA_XSP16, literal(-13)))
          CFI (cfiCond162) V2 load(1, XDATA, add(CFA_XSP16, literal(-12)))
          CFI (cfiCond162) V3 load(1, XDATA, add(CFA_XSP16, literal(-11)))
          CFI (cfiCond162) V4 load(1, XDATA, add(CFA_XSP16, literal(-10)))
          CFI (cfiCond162) V5 load(1, XDATA, add(CFA_XSP16, literal(-9)))
          CFI (cfiCond162) V6 load(1, XDATA, add(CFA_XSP16, literal(-8)))
          CFI (cfiCond162) V7 load(1, XDATA, add(CFA_XSP16, literal(-7)))
          CFI (cfiCond162) R7 load(1, XDATA, add(CFA_XSP16, literal(-6)))
          CFI (cfiCond162) ?RET_LOW load(1, XDATA, add(CFA_XSP16, literal(-5)))
          CFI (cfiCond162) ?RET_HIGH load(1, XDATA, add(CFA_XSP16, literal(-4)))
          CFI (cfiCond162) ?BRET_EXT load(1, XDATA, add(CFA_XSP16, literal(-3)))
          CFI (cfiCond162) DPL0 load(1, XDATA, add(CFA_XSP16, literal(-2)))
          CFI (cfiCond162) DPH0 load(1, XDATA, add(CFA_XSP16, literal(-1)))
          CFI (cfiCond162) CFA_SP SP+-2
          CFI (cfiCond162) CFA_XSP16 add(XSP16, 94)
          CFI Block cfiCond163 Using cfiCommon0
          CFI (cfiCond163) Function gp_SecurityOperationProxy
          CFI (cfiCond163) Conditional ??CrossCallReturnLabel_137
          CFI (cfiCond163) R6 load(1, XDATA, add(CFA_XSP16, literal(-16)))
          CFI (cfiCond163) VB load(1, XDATA, add(CFA_XSP16, literal(-15)))
          CFI (cfiCond163) V0 load(1, XDATA, add(CFA_XSP16, literal(-14)))
          CFI (cfiCond163) V1 load(1, XDATA, add(CFA_XSP16, literal(-13)))
          CFI (cfiCond163) V2 load(1, XDATA, add(CFA_XSP16, literal(-12)))
          CFI (cfiCond163) V3 load(1, XDATA, add(CFA_XSP16, literal(-11)))
          CFI (cfiCond163) V4 load(1, XDATA, add(CFA_XSP16, literal(-10)))
          CFI (cfiCond163) V5 load(1, XDATA, add(CFA_XSP16, literal(-9)))
          CFI (cfiCond163) V6 load(1, XDATA, add(CFA_XSP16, literal(-8)))
          CFI (cfiCond163) V7 load(1, XDATA, add(CFA_XSP16, literal(-7)))
          CFI (cfiCond163) R7 load(1, XDATA, add(CFA_XSP16, literal(-6)))
          CFI (cfiCond163) ?RET_LOW load(1, XDATA, add(CFA_XSP16, literal(-5)))
          CFI (cfiCond163) ?RET_HIGH load(1, XDATA, add(CFA_XSP16, literal(-4)))
          CFI (cfiCond163) ?BRET_EXT load(1, XDATA, add(CFA_XSP16, literal(-3)))
          CFI (cfiCond163) DPL0 load(1, XDATA, add(CFA_XSP16, literal(-2)))
          CFI (cfiCond163) DPH0 load(1, XDATA, add(CFA_XSP16, literal(-1)))
          CFI (cfiCond163) CFA_XSP16 add(XSP16, 94)
          CFI Block cfiPicker164 Using cfiCommon1
          CFI (cfiPicker164) NoFunction
          CFI (cfiPicker164) Picker
        MOVX      A,@DPTR
        MOV       R0,A
        INC       DPTR
          CFI EndBlock cfiCond158
          CFI EndBlock cfiCond159
          CFI EndBlock cfiCond160
          CFI EndBlock cfiCond161
          CFI EndBlock cfiCond162
          CFI EndBlock cfiCond163
          CFI EndBlock cfiPicker164
        REQUIRE ??Subroutine64_0
        ; // Fall through to label ??Subroutine64_0

        RSEG BANKED_CODE:HUGECODE:NOROOT(0)
??Subroutine64_0:
          CFI Block cfiCond165 Using cfiCommon0
          CFI Function gp_stopCommissioningMode
          CFI Conditional ??CrossCallReturnLabel_128
          CFI DPL0 Frame(CFA_SP, 4)
          CFI DPH0 Frame(CFA_SP, 5)
          CFI CFA_SP SP+-7
          CFI Block cfiCond166 Using cfiCommon0
          CFI (cfiCond166) Function zclGp_GpProxyCommissioningModeCB
          CFI (cfiCond166) Conditional ??CrossCallReturnLabel_129
          CFI (cfiCond166) R6 load(1, XDATA, add(CFA_XSP16, literal(-10)))
          CFI (cfiCond166) VB load(1, XDATA, add(CFA_XSP16, literal(-9)))
          CFI (cfiCond166) V0 load(1, XDATA, add(CFA_XSP16, literal(-8)))
          CFI (cfiCond166) V1 load(1, XDATA, add(CFA_XSP16, literal(-7)))
          CFI (cfiCond166) R7 load(1, XDATA, add(CFA_XSP16, literal(-6)))
          CFI (cfiCond166) ?RET_LOW load(1, XDATA, add(CFA_XSP16, literal(-5)))
          CFI (cfiCond166) ?RET_HIGH load(1, XDATA, add(CFA_XSP16, literal(-4)))
          CFI (cfiCond166) ?BRET_EXT load(1, XDATA, add(CFA_XSP16, literal(-3)))
          CFI (cfiCond166) DPL0 load(1, XDATA, add(CFA_XSP16, literal(-2)))
          CFI (cfiCond166) DPH0 load(1, XDATA, add(CFA_XSP16, literal(-1)))
          CFI (cfiCond166) CFA_SP SP+-2
          CFI (cfiCond166) CFA_XSP16 add(XSP16, 10)
          CFI Block cfiCond167 Using cfiCommon0
          CFI (cfiCond167) Function GP_DataInd
          CFI (cfiCond167) Conditional ??CrossCallReturnLabel_130
          CFI (cfiCond167) R6 load(1, XDATA, add(CFA_XSP16, literal(-14)))
          CFI (cfiCond167) VB load(1, XDATA, add(CFA_XSP16, literal(-13)))
          CFI (cfiCond167) V0 load(1, XDATA, add(CFA_XSP16, literal(-12)))
          CFI (cfiCond167) V1 load(1, XDATA, add(CFA_XSP16, literal(-11)))
          CFI (cfiCond167) V2 load(1, XDATA, add(CFA_XSP16, literal(-10)))
          CFI (cfiCond167) V3 load(1, XDATA, add(CFA_XSP16, literal(-9)))
          CFI (cfiCond167) V4 load(1, XDATA, add(CFA_XSP16, literal(-8)))
          CFI (cfiCond167) V5 load(1, XDATA, add(CFA_XSP16, literal(-7)))
          CFI (cfiCond167) R7 load(1, XDATA, add(CFA_XSP16, literal(-6)))
          CFI (cfiCond167) ?RET_LOW load(1, XDATA, add(CFA_XSP16, literal(-5)))
          CFI (cfiCond167) ?RET_HIGH load(1, XDATA, add(CFA_XSP16, literal(-4)))
          CFI (cfiCond167) ?BRET_EXT load(1, XDATA, add(CFA_XSP16, literal(-3)))
          CFI (cfiCond167) DPL0 load(1, XDATA, add(CFA_XSP16, literal(-2)))
          CFI (cfiCond167) DPH0 load(1, XDATA, add(CFA_XSP16, literal(-1)))
          CFI (cfiCond167) CFA_SP SP+-2
          CFI (cfiCond167) CFA_XSP16 add(XSP16, 146)
          CFI Block cfiCond168 Using cfiCommon0
          CFI (cfiCond168) Function GP_DataInd
          CFI (cfiCond168) Conditional ??CrossCallReturnLabel_131
          CFI (cfiCond168) R6 load(1, XDATA, add(CFA_XSP16, literal(-14)))
          CFI (cfiCond168) VB load(1, XDATA, add(CFA_XSP16, literal(-13)))
          CFI (cfiCond168) V0 load(1, XDATA, add(CFA_XSP16, literal(-12)))
          CFI (cfiCond168) V1 load(1, XDATA, add(CFA_XSP16, literal(-11)))
          CFI (cfiCond168) V2 load(1, XDATA, add(CFA_XSP16, literal(-10)))
          CFI (cfiCond168) V3 load(1, XDATA, add(CFA_XSP16, literal(-9)))
          CFI (cfiCond168) V4 load(1, XDATA, add(CFA_XSP16, literal(-8)))
          CFI (cfiCond168) V5 load(1, XDATA, add(CFA_XSP16, literal(-7)))
          CFI (cfiCond168) R7 load(1, XDATA, add(CFA_XSP16, literal(-6)))
          CFI (cfiCond168) ?RET_LOW load(1, XDATA, add(CFA_XSP16, literal(-5)))
          CFI (cfiCond168) ?RET_HIGH load(1, XDATA, add(CFA_XSP16, literal(-4)))
          CFI (cfiCond168) ?BRET_EXT load(1, XDATA, add(CFA_XSP16, literal(-3)))
          CFI (cfiCond168) DPL0 load(1, XDATA, add(CFA_XSP16, literal(-2)))
          CFI (cfiCond168) DPH0 load(1, XDATA, add(CFA_XSP16, literal(-1)))
          CFI (cfiCond168) CFA_SP SP+-2
          CFI (cfiCond168) CFA_XSP16 add(XSP16, 146)
          CFI Block cfiCond169 Using cfiCommon0
          CFI (cfiCond169) Function zclGp_DataIndParse
          CFI (cfiCond169) Conditional ??CrossCallReturnLabel_132
          CFI (cfiCond169) R6 load(1, XDATA, add(CFA_XSP16, literal(-15)))
          CFI (cfiCond169) VB load(1, XDATA, add(CFA_XSP16, literal(-14)))
          CFI (cfiCond169) V0 load(1, XDATA, add(CFA_XSP16, literal(-13)))
          CFI (cfiCond169) V1 load(1, XDATA, add(CFA_XSP16, literal(-12)))
          CFI (cfiCond169) V2 load(1, XDATA, add(CFA_XSP16, literal(-11)))
          CFI (cfiCond169) V3 load(1, XDATA, add(CFA_XSP16, literal(-10)))
          CFI (cfiCond169) V4 load(1, XDATA, add(CFA_XSP16, literal(-9)))
          CFI (cfiCond169) V5 load(1, XDATA, add(CFA_XSP16, literal(-8)))
          CFI (cfiCond169) V6 load(1, XDATA, add(CFA_XSP16, literal(-7)))
          CFI (cfiCond169) R7 load(1, XDATA, add(CFA_XSP16, literal(-6)))
          CFI (cfiCond169) ?RET_LOW load(1, XDATA, add(CFA_XSP16, literal(-5)))
          CFI (cfiCond169) ?RET_HIGH load(1, XDATA, add(CFA_XSP16, literal(-4)))
          CFI (cfiCond169) ?BRET_EXT load(1, XDATA, add(CFA_XSP16, literal(-3)))
          CFI (cfiCond169) DPL0 load(1, XDATA, add(CFA_XSP16, literal(-2)))
          CFI (cfiCond169) DPH0 load(1, XDATA, add(CFA_XSP16, literal(-1)))
          CFI (cfiCond169) CFA_SP SP+-2
          CFI (cfiCond169) CFA_XSP16 add(XSP16, 86)
          CFI Block cfiCond170 Using cfiCommon0
          CFI (cfiCond170) Function gp_PopulateField
          CFI (cfiCond170) Conditional ??CrossCallReturnLabel_133
          CFI (cfiCond170) R6 load(1, XDATA, add(CFA_XSP16, literal(-16)))
          CFI (cfiCond170) VB load(1, XDATA, add(CFA_XSP16, literal(-15)))
          CFI (cfiCond170) V0 load(1, XDATA, add(CFA_XSP16, literal(-14)))
          CFI (cfiCond170) V1 load(1, XDATA, add(CFA_XSP16, literal(-13)))
          CFI (cfiCond170) V2 load(1, XDATA, add(CFA_XSP16, literal(-12)))
          CFI (cfiCond170) V3 load(1, XDATA, add(CFA_XSP16, literal(-11)))
          CFI (cfiCond170) V4 load(1, XDATA, add(CFA_XSP16, literal(-10)))
          CFI (cfiCond170) V5 load(1, XDATA, add(CFA_XSP16, literal(-9)))
          CFI (cfiCond170) V6 load(1, XDATA, add(CFA_XSP16, literal(-8)))
          CFI (cfiCond170) V7 load(1, XDATA, add(CFA_XSP16, literal(-7)))
          CFI (cfiCond170) R7 load(1, XDATA, add(CFA_XSP16, literal(-6)))
          CFI (cfiCond170) ?RET_LOW load(1, XDATA, add(CFA_XSP16, literal(-5)))
          CFI (cfiCond170) ?RET_HIGH load(1, XDATA, add(CFA_XSP16, literal(-4)))
          CFI (cfiCond170) ?BRET_EXT load(1, XDATA, add(CFA_XSP16, literal(-3)))
          CFI (cfiCond170) DPL0 load(1, XDATA, add(CFA_XSP16, literal(-2)))
          CFI (cfiCond170) DPH0 load(1, XDATA, add(CFA_XSP16, literal(-1)))
          CFI (cfiCond170) CFA_SP SP+-2
          CFI (cfiCond170) CFA_XSP16 add(XSP16, 17)
          CFI Block cfiCond171 Using cfiCommon0
          CFI (cfiCond171) Function gp_getProxyTableByGpId
          CFI (cfiCond171) Conditional ??CrossCallReturnLabel_134
          CFI (cfiCond171) R6 load(1, XDATA, add(CFA_XSP16, literal(-15)))
          CFI (cfiCond171) VB load(1, XDATA, add(CFA_XSP16, literal(-14)))
          CFI (cfiCond171) V0 load(1, XDATA, add(CFA_XSP16, literal(-13)))
          CFI (cfiCond171) V1 load(1, XDATA, add(CFA_XSP16, literal(-12)))
          CFI (cfiCond171) V2 load(1, XDATA, add(CFA_XSP16, literal(-11)))
          CFI (cfiCond171) V3 load(1, XDATA, add(CFA_XSP16, literal(-10)))
          CFI (cfiCond171) V4 load(1, XDATA, add(CFA_XSP16, literal(-9)))
          CFI (cfiCond171) V5 load(1, XDATA, add(CFA_XSP16, literal(-8)))
          CFI (cfiCond171) V6 load(1, XDATA, add(CFA_XSP16, literal(-7)))
          CFI (cfiCond171) R7 load(1, XDATA, add(CFA_XSP16, literal(-6)))
          CFI (cfiCond171) ?RET_LOW load(1, XDATA, add(CFA_XSP16, literal(-5)))
          CFI (cfiCond171) ?RET_HIGH load(1, XDATA, add(CFA_XSP16, literal(-4)))
          CFI (cfiCond171) ?BRET_EXT load(1, XDATA, add(CFA_XSP16, literal(-3)))
          CFI (cfiCond171) DPL0 load(1, XDATA, add(CFA_XSP16, literal(-2)))
          CFI (cfiCond171) DPH0 load(1, XDATA, add(CFA_XSP16, literal(-1)))
          CFI (cfiCond171) CFA_SP SP+-2
          CFI (cfiCond171) CFA_XSP16 add(XSP16, 19)
          CFI Block cfiCond172 Using cfiCommon0
          CFI (cfiCond172) Function gp_expireDuplicateFiltering
          CFI (cfiCond172) Conditional ??CrossCallReturnLabel_135
          CFI (cfiCond172) R6 load(1, XDATA, add(CFA_XSP16, literal(-12)))
          CFI (cfiCond172) VB load(1, XDATA, add(CFA_XSP16, literal(-11)))
          CFI (cfiCond172) V0 load(1, XDATA, add(CFA_XSP16, literal(-10)))
          CFI (cfiCond172) V1 load(1, XDATA, add(CFA_XSP16, literal(-9)))
          CFI (cfiCond172) V2 load(1, XDATA, add(CFA_XSP16, literal(-8)))
          CFI (cfiCond172) V3 load(1, XDATA, add(CFA_XSP16, literal(-7)))
          CFI (cfiCond172) R7 load(1, XDATA, add(CFA_XSP16, literal(-6)))
          CFI (cfiCond172) ?RET_LOW load(1, XDATA, add(CFA_XSP16, literal(-5)))
          CFI (cfiCond172) ?RET_HIGH load(1, XDATA, add(CFA_XSP16, literal(-4)))
          CFI (cfiCond172) ?BRET_EXT load(1, XDATA, add(CFA_XSP16, literal(-3)))
          CFI (cfiCond172) DPL0 load(1, XDATA, add(CFA_XSP16, literal(-2)))
          CFI (cfiCond172) DPH0 load(1, XDATA, add(CFA_XSP16, literal(-1)))
          CFI (cfiCond172) CFA_SP SP+-2
          CFI (cfiCond172) CFA_XSP16 add(XSP16, 12)
          CFI Block cfiCond173 Using cfiCommon0
          CFI (cfiCond173) Function gp_SecurityOperationProxy
          CFI (cfiCond173) Conditional ??CrossCallReturnLabel_136
          CFI (cfiCond173) R6 load(1, XDATA, add(CFA_XSP16, literal(-16)))
          CFI (cfiCond173) VB load(1, XDATA, add(CFA_XSP16, literal(-15)))
          CFI (cfiCond173) V0 load(1, XDATA, add(CFA_XSP16, literal(-14)))
          CFI (cfiCond173) V1 load(1, XDATA, add(CFA_XSP16, literal(-13)))
          CFI (cfiCond173) V2 load(1, XDATA, add(CFA_XSP16, literal(-12)))
          CFI (cfiCond173) V3 load(1, XDATA, add(CFA_XSP16, literal(-11)))
          CFI (cfiCond173) V4 load(1, XDATA, add(CFA_XSP16, literal(-10)))
          CFI (cfiCond173) V5 load(1, XDATA, add(CFA_XSP16, literal(-9)))
          CFI (cfiCond173) V6 load(1, XDATA, add(CFA_XSP16, literal(-8)))
          CFI (cfiCond173) V7 load(1, XDATA, add(CFA_XSP16, literal(-7)))
          CFI (cfiCond173) R7 load(1, XDATA, add(CFA_XSP16, literal(-6)))
          CFI (cfiCond173) ?RET_LOW load(1, XDATA, add(CFA_XSP16, literal(-5)))
          CFI (cfiCond173) ?RET_HIGH load(1, XDATA, add(CFA_XSP16, literal(-4)))
          CFI (cfiCond173) ?BRET_EXT load(1, XDATA, add(CFA_XSP16, literal(-3)))
          CFI (cfiCond173) DPL0 load(1, XDATA, add(CFA_XSP16, literal(-2)))
          CFI (cfiCond173) DPH0 load(1, XDATA, add(CFA_XSP16, literal(-1)))
          CFI (cfiCond173) CFA_SP SP+-2
          CFI (cfiCond173) CFA_XSP16 add(XSP16, 94)
          CFI Block cfiCond174 Using cfiCommon0
          CFI (cfiCond174) Function gp_SecurityOperationProxy
          CFI (cfiCond174) Conditional ??CrossCallReturnLabel_137
          CFI (cfiCond174) R6 load(1, XDATA, add(CFA_XSP16, literal(-16)))
          CFI (cfiCond174) VB load(1, XDATA, add(CFA_XSP16, literal(-15)))
          CFI (cfiCond174) V0 load(1, XDATA, add(CFA_XSP16, literal(-14)))
          CFI (cfiCond174) V1 load(1, XDATA, add(CFA_XSP16, literal(-13)))
          CFI (cfiCond174) V2 load(1, XDATA, add(CFA_XSP16, literal(-12)))
          CFI (cfiCond174) V3 load(1, XDATA, add(CFA_XSP16, literal(-11)))
          CFI (cfiCond174) V4 load(1, XDATA, add(CFA_XSP16, literal(-10)))
          CFI (cfiCond174) V5 load(1, XDATA, add(CFA_XSP16, literal(-9)))
          CFI (cfiCond174) V6 load(1, XDATA, add(CFA_XSP16, literal(-8)))
          CFI (cfiCond174) V7 load(1, XDATA, add(CFA_XSP16, literal(-7)))
          CFI (cfiCond174) R7 load(1, XDATA, add(CFA_XSP16, literal(-6)))
          CFI (cfiCond174) ?RET_LOW load(1, XDATA, add(CFA_XSP16, literal(-5)))
          CFI (cfiCond174) ?RET_HIGH load(1, XDATA, add(CFA_XSP16, literal(-4)))
          CFI (cfiCond174) ?BRET_EXT load(1, XDATA, add(CFA_XSP16, literal(-3)))
          CFI (cfiCond174) DPL0 load(1, XDATA, add(CFA_XSP16, literal(-2)))
          CFI (cfiCond174) DPH0 load(1, XDATA, add(CFA_XSP16, literal(-1)))
          CFI (cfiCond174) CFA_XSP16 add(XSP16, 94)
          CFI Block cfiPicker175 Using cfiCommon1
          CFI (cfiPicker175) NoFunction
          CFI (cfiPicker175) Picker
        MOVX      A,@DPTR
        MOV       DPH,A
        MOV       DPL,R0
        RET
          CFI EndBlock cfiCond165
          CFI EndBlock cfiCond166
          CFI EndBlock cfiCond167
          CFI EndBlock cfiCond168
          CFI EndBlock cfiCond169
          CFI EndBlock cfiCond170
          CFI EndBlock cfiCond171
          CFI EndBlock cfiCond172
          CFI EndBlock cfiCond173
          CFI EndBlock cfiCond174
          CFI EndBlock cfiPicker175
// 1230 
// 1231  /*********************************************************************
// 1232  * @fn          gp_ProxyTblInit
// 1233  *
// 1234  * @brief       General function to init the NV items for proxy table
// 1235  *
// 1236  * @param       
// 1237  *
// 1238  * @return      
// 1239  */
// 1240 

        RSEG BANKED_CODE:HUGECODE:NOROOT(0)
// 1241 uint8 gp_ProxyTblInit( uint8 resetTable )
gp_ProxyTblInit:
          CFI Block cfiBlock176 Using cfiCommon0
          CFI Function gp_ProxyTblInit
        CODE
// 1242 {
        FUNCALL gp_ProxyTblInit, gp_ResetProxyBasicTblEntry
        LOCFRAME ISTACK, 0, STACK
        LOCFRAME PSTACK, 0, STACK
        LOCFRAME XSTACK, 77, STACK
        LOCFRAME IOVERLAY, 0, STATIC
        LOCFRAME DOVERLAY, 0, STATIC
        ARGFRAME ISTACK, 0, STACK
        ARGFRAME PSTACK, 0, STACK
        ARGFRAME XSTACK, 77, STACK
        ARGFRAME IOVERLAY, 0, STATIC
        ARGFRAME DOVERLAY, 0, STATIC
        FUNCALL gp_ProxyTblInit, osal_nv_item_init
        LOCFRAME ISTACK, 0, STACK
        LOCFRAME PSTACK, 0, STACK
        LOCFRAME XSTACK, 79, STACK
        LOCFRAME IOVERLAY, 0, STATIC
        LOCFRAME DOVERLAY, 0, STATIC
        ARGFRAME ISTACK, 0, STACK
        ARGFRAME PSTACK, 0, STACK
        ARGFRAME XSTACK, 79, STACK
        ARGFRAME IOVERLAY, 0, STATIC
        ARGFRAME DOVERLAY, 0, STATIC
        FUNCALL gp_ProxyTblInit, osal_nv_write
        LOCFRAME ISTACK, 0, STACK
        LOCFRAME PSTACK, 0, STACK
        LOCFRAME XSTACK, 81, STACK
        LOCFRAME IOVERLAY, 0, STATIC
        LOCFRAME DOVERLAY, 0, STATIC
        ARGFRAME ISTACK, 0, STACK
        ARGFRAME PSTACK, 0, STACK
        ARGFRAME XSTACK, 81, STACK
        ARGFRAME IOVERLAY, 0, STATIC
        ARGFRAME DOVERLAY, 0, STATIC
        REQUIRE ?V0
        REQUIRE ?V1
        REQUIRE ?V2
        REQUIRE ?V3
        MOV       A,#-0xc
        LCALL     ?BANKED_ENTER_XDATA
          CFI DPH0 load(1, XDATA, add(CFA_XSP16, literal(-1)))
          CFI DPL0 load(1, XDATA, add(CFA_XSP16, literal(-2)))
          CFI ?BRET_EXT load(1, XDATA, add(CFA_XSP16, literal(-3)))
          CFI ?RET_HIGH load(1, XDATA, add(CFA_XSP16, literal(-4)))
          CFI ?RET_LOW load(1, XDATA, add(CFA_XSP16, literal(-5)))
          CFI R7 load(1, XDATA, add(CFA_XSP16, literal(-6)))
          CFI V3 load(1, XDATA, add(CFA_XSP16, literal(-7)))
          CFI V2 load(1, XDATA, add(CFA_XSP16, literal(-8)))
          CFI V1 load(1, XDATA, add(CFA_XSP16, literal(-9)))
          CFI V0 load(1, XDATA, add(CFA_XSP16, literal(-10)))
          CFI VB load(1, XDATA, add(CFA_XSP16, literal(-11)))
          CFI R6 load(1, XDATA, add(CFA_XSP16, literal(-12)))
          CFI CFA_SP SP+0
          CFI CFA_XSP16 add(XSP16, 12)
        ; Saved register size: 12
        ; Auto size: 65
        MOV       A,#-0x41
        LCALL     ?ALLOC_XSTACK8
          CFI CFA_XSP16 add(XSP16, 77)
        MOV       ?V1,R1
// 1243   uint8 i;
// 1244   uint8 status;
// 1245   uint8 emptyEntry[PROXY_TBL_ENTRY_LEN];
// 1246   
// 1247   gp_ResetProxyBasicTblEntry( emptyEntry );
        ; Setup parameters for call to function gp_ResetProxyBasicTblEntry
        MOV       R2,?XSP + 0
        MOV       R3,?XSP + 1
        LCALL     `??gp_ResetProxyBasicTblEntry::?relay`; Banked call to: gp_ResetProxyBasicTblEntry
// 1248   
// 1249   for ( i = 0; i <= GPP_MAX_PROXY_TABLE_ENTRIES ; i++ )
        MOV       ?V0,#0x0
// 1250   {
// 1251     status = osal_nv_item_init( ( ZCD_NV_PROXY_TABLE_START + i ),
// 1252                                        PROXY_TBL_ENTRY_LEN, &emptyEntry );
??gp_ProxyTblInit_0:
        MOV       A,?V0
        ADD       A,#0x10
        MOV       R6,A
        CLR       A
        ADDC      A,#0x3
        MOV       R7,A
        ; Setup parameters for call to function osal_nv_item_init
        MOV       R0,?XSP + 0
        MOV       R1,?XSP + 1
        MOV       ?V2,R0
        MOV       ?V3,R1
        MOV       R0,#?V2
        LCALL     ?PUSH_XSTACK_I_TWO
          CFI CFA_XSP16 add(XSP16, 79)
        MOV       R4,#0x41
        MOV       R5,#0x0
        MOV       A,R6
        MOV       R2,A
        MOV       A,R7
        MOV       R3,A
        LCALL     `??osal_nv_item_init::?relay`; Banked call to: osal_nv_item_init
        MOV       A,#0x2
        LCALL     ?DEALLOC_XSTACK8
          CFI CFA_XSP16 add(XSP16, 77)
        MOV       A,R1
        MOV       R1,A
// 1253     
// 1254     if ( ( status != SUCCESS ) && ( status != NV_ITEM_UNINIT ) )
        JZ        ??gp_ProxyTblInit_1
        MOV       A,#0x9
        XRL       A,R1
        JNZ       ??gp_ProxyTblInit_2
        SJMP      ??gp_ProxyTblInit_3
??gp_ProxyTblInit_1:
        MOV       A,#0x1
        XRL       A,?V1
        JNZ       ??gp_ProxyTblInit_3
// 1255     {
// 1256       return status;
// 1257     }
// 1258     if ( ( status == SUCCESS ) && ( resetTable == TRUE ) )
// 1259     {
// 1260       status = osal_nv_write( ( ZCD_NV_PROXY_TABLE_START + i ), 0,
// 1261                                     PROXY_TBL_ENTRY_LEN, &emptyEntry );
        ; Setup parameters for call to function osal_nv_write
        MOV       R0,#?V2
        LCALL     ?PUSH_XSTACK_I_TWO
          CFI CFA_XSP16 add(XSP16, 79)
        MOV       ?V2,#0x41
        MOV       ?V3,#0x0
        MOV       R0,#?V2
        LCALL     ?PUSH_XSTACK_I_TWO
          CFI CFA_XSP16 add(XSP16, 81)
        MOV       R4,#0x0
        MOV       R5,#0x0
        MOV       A,R6
        MOV       R2,A
        MOV       A,R7
        MOV       R3,A
        LCALL     `??osal_nv_write::?relay`; Banked call to: osal_nv_write
        MOV       A,#0x4
        LCALL     ?DEALLOC_XSTACK8
          CFI CFA_XSP16 add(XSP16, 77)
        MOV       A,R1
        MOV       R1,A
// 1262     }
// 1263   }
??gp_ProxyTblInit_3:
        INC       ?V0
        MOV       A,?V0
        CLR       C
        SUBB      A,#0x6
        JC        ??gp_ProxyTblInit_0
// 1264   return status;
??gp_ProxyTblInit_2:
        MOV       A,#0x41
        LCALL     ?DEALLOC_XSTACK8
          CFI EndBlock cfiBlock176
        REQUIRE ?Subroutine4
        ; // Fall through to label ?Subroutine4
// 1265 }

        RSEG BANKED_CODE:HUGECODE:NOROOT(0)
?Subroutine4:
          CFI Block cfiBlock177 Using cfiCommon0
          CFI NoFunction
          CFI CFA_SP SP+0
          CFI CFA_XSP16 add(XSP16, 12)
          CFI VB load(1, XDATA, add(CFA_XSP16, literal(-11)))
          CFI DPL0 load(1, XDATA, add(CFA_XSP16, literal(-2)))
          CFI DPH0 load(1, XDATA, add(CFA_XSP16, literal(-1)))
          CFI R6 load(1, XDATA, add(CFA_XSP16, literal(-12)))
          CFI R7 load(1, XDATA, add(CFA_XSP16, literal(-6)))
          CFI V0 load(1, XDATA, add(CFA_XSP16, literal(-10)))
          CFI V1 load(1, XDATA, add(CFA_XSP16, literal(-9)))
          CFI V2 load(1, XDATA, add(CFA_XSP16, literal(-8)))
          CFI V3 load(1, XDATA, add(CFA_XSP16, literal(-7)))
          CFI ?BRET_EXT load(1, XDATA, add(CFA_XSP16, literal(-3)))
          CFI ?RET_HIGH load(1, XDATA, add(CFA_XSP16, literal(-4)))
          CFI ?RET_LOW load(1, XDATA, add(CFA_XSP16, literal(-5)))
        MOV       R7,#0x4
        LJMP      ?BANKED_LEAVE_XDATA
          CFI EndBlock cfiBlock177
// 1266 
// 1267 
// 1268  /*********************************************************************
// 1269  * @fn          gp_getProxyTableByGpId
// 1270  *
// 1271  * @brief       General function to get proxy table entry by gpd_ID (GP Src ID or Extended Adddress)
// 1272  *
// 1273  * @param       gpd_ID  - address to look for in the table
// 1274  *              pEntry  - buffer in which the entry of the table will be copied
// 1275  *
// 1276  * @return      
// 1277  */
// 1278 

        RSEG BANKED_CODE:HUGECODE:NOROOT(0)
// 1279 uint8 gp_getProxyTableByGpId(gpd_ID_t *gpd_ID, uint8 *pEntry,uint16 *NvProxyTableIndex)
gp_getProxyTableByGpId:
          CFI Block cfiBlock178 Using cfiCommon0
          CFI Function gp_getProxyTableByGpId
        CODE
// 1280 {
        FUNCALL gp_getProxyTableByGpId, gp_getProxyTableByIndex
        LOCFRAME ISTACK, 0, STACK
        LOCFRAME PSTACK, 0, STACK
        LOCFRAME XSTACK, 19, STACK
        LOCFRAME IOVERLAY, 0, STATIC
        LOCFRAME DOVERLAY, 0, STATIC
        ARGFRAME ISTACK, 0, STACK
        ARGFRAME PSTACK, 0, STACK
        ARGFRAME XSTACK, 19, STACK
        ARGFRAME IOVERLAY, 0, STATIC
        ARGFRAME DOVERLAY, 0, STATIC
        FUNCALL gp_getProxyTableByGpId, osal_memcmp
        LOCFRAME ISTACK, 0, STACK
        LOCFRAME PSTACK, 0, STACK
        LOCFRAME XSTACK, 22, STACK
        LOCFRAME IOVERLAY, 0, STATIC
        LOCFRAME DOVERLAY, 0, STATIC
        ARGFRAME ISTACK, 0, STACK
        ARGFRAME PSTACK, 0, STACK
        ARGFRAME XSTACK, 22, STACK
        ARGFRAME IOVERLAY, 0, STATIC
        ARGFRAME DOVERLAY, 0, STATIC
        FUNCALL gp_getProxyTableByGpId, osal_memcmp
        LOCFRAME ISTACK, 0, STACK
        LOCFRAME PSTACK, 0, STACK
        LOCFRAME XSTACK, 22, STACK
        LOCFRAME IOVERLAY, 0, STATIC
        LOCFRAME DOVERLAY, 0, STATIC
        ARGFRAME ISTACK, 0, STACK
        ARGFRAME PSTACK, 0, STACK
        ARGFRAME XSTACK, 22, STACK
        ARGFRAME IOVERLAY, 0, STATIC
        ARGFRAME DOVERLAY, 0, STATIC
        REQUIRE ?V0
        REQUIRE ?V1
        REQUIRE ?V2
        REQUIRE ?V4
        REQUIRE ?V5
        REQUIRE ?V6
        MOV       A,#-0xf
        LCALL     ?BANKED_ENTER_XDATA
          CFI DPH0 load(1, XDATA, add(CFA_XSP16, literal(-1)))
          CFI DPL0 load(1, XDATA, add(CFA_XSP16, literal(-2)))
          CFI ?BRET_EXT load(1, XDATA, add(CFA_XSP16, literal(-3)))
          CFI ?RET_HIGH load(1, XDATA, add(CFA_XSP16, literal(-4)))
          CFI ?RET_LOW load(1, XDATA, add(CFA_XSP16, literal(-5)))
          CFI R7 load(1, XDATA, add(CFA_XSP16, literal(-6)))
          CFI V6 load(1, XDATA, add(CFA_XSP16, literal(-7)))
          CFI V5 load(1, XDATA, add(CFA_XSP16, literal(-8)))
          CFI V4 load(1, XDATA, add(CFA_XSP16, literal(-9)))
          CFI V3 load(1, XDATA, add(CFA_XSP16, literal(-10)))
          CFI V2 load(1, XDATA, add(CFA_XSP16, literal(-11)))
          CFI V1 load(1, XDATA, add(CFA_XSP16, literal(-12)))
          CFI V0 load(1, XDATA, add(CFA_XSP16, literal(-13)))
          CFI VB load(1, XDATA, add(CFA_XSP16, literal(-14)))
          CFI R6 load(1, XDATA, add(CFA_XSP16, literal(-15)))
          CFI CFA_SP SP+0
          CFI CFA_XSP16 add(XSP16, 15)
        ; Saved register size: 15
        ; Auto size: 4
        MOV       A,#-0x4
        LCALL     ?ALLOC_XSTACK8
          CFI CFA_XSP16 add(XSP16, 19)
        MOV       A,#0x2
        LCALL     ?XSTACK_DISP0_8
        MOV       A,R2
        MOVX      @DPTR,A
        INC       DPTR
        MOV       A,R3
        LCALL     ?Subroutine10 & 0xFFFF
??CrossCallReturnLabel_14:
        MOV       A,R4
        MOVX      @DPTR,A
        INC       DPTR
        MOV       A,R5
        LCALL     ?Subroutine7 & 0xFFFF
// 1281   uint8 i;
// 1282   uint8 status;
// 1283 
// 1284   if((pEntry == NULL) ||  (gpd_ID == NULL))
??CrossCallReturnLabel_5:
        JNZ       $+5
        LJMP      ??gp_getProxyTableByGpId_0 & 0xFFFF
        MOV       A,#0x2
        LCALL     ?XSTACK_DISP0_8
        LCALL     ??Subroutine70_0 & 0xFFFF
??CrossCallReturnLabel_173:
        JNZ       $+5
        LJMP      ??gp_getProxyTableByGpId_0 & 0xFFFF
// 1285   {
// 1286     return ZInvalidParameter;
// 1287   }     
// 1288   
// 1289 
// 1290   for ( i = 0; i <= GPP_MAX_PROXY_TABLE_ENTRIES ; i++ )
        MOV       R6,#0x0
        MOV       A,#0x2
        LCALL     ?XSTACK_DISP0_8
        MOVX      A,@DPTR
        ADD       A,#0x1
        LCALL     ?Subroutine32 & 0xFFFF
??CrossCallReturnLabel_48:
        MOV       ?V2,R6
// 1291   {
// 1292     status = gp_getProxyTableByIndex( ( ZCD_NV_PROXY_TABLE_START + i ), pEntry );
??gp_getProxyTableByGpId_1:
        ; Setup parameters for call to function gp_getProxyTableByIndex
        MOV       DPL,?XSP + 0
        MOV       DPH,?XSP + 1
        LCALL     ?Subroutine33 & 0xFFFF
??CrossCallReturnLabel_50:
        LCALL     ?Subroutine48 & 0xFFFF
??CrossCallReturnLabel_121:
        LCALL     `??gp_getProxyTableByIndex::?relay`; Banked call to: gp_getProxyTableByIndex
        MOV       A,R1
        MOV       R0,A
// 1293 
// 1294     if ( status == NV_OPER_FAILED )
        MOV       A,#0xa
        XRL       A,R0
        JNZ       ??gp_getProxyTableByGpId_2
// 1295     {
// 1296       // FAIL
// 1297       return ZFailure;
        MOV       R1,#0x1
        LJMP      ??gp_getProxyTableByGpId_3 & 0xFFFF
// 1298     }
// 1299     
// 1300     // if the entry is empty
// 1301     if ( status == NV_INVALID_DATA )
??gp_getProxyTableByGpId_2:
        MOV       A,#0xd
        XRL       A,R0
        JZ        ??gp_getProxyTableByGpId_4
// 1302     {
// 1303       continue;
// 1304     }
// 1305 
// 1306     //Check that App ID is the same
// 1307 
// 1308     if ( PROXY_TBL_COMP_APPLICTION_ID( gpd_ID->AppID, pEntry[PROXY_TBL_ENTRY_OPT] ) )
        MOV       A,#0x2
        LCALL     ?XSTACK_DISP0_8
        LCALL     ??Subroutine63_0 & 0xFFFF
??CrossCallReturnLabel_134:
        MOVX      A,@DPTR
        MOV       R0,A
        MOV       A,#0x7
        ANL       A,R0
        MOV       R1,A
        MOV       DPL,?XSP + 0
        MOV       DPH,?XSP + 1
        LCALL     ?Subroutine34 & 0xFFFF
??CrossCallReturnLabel_103:
        ANL       A,#0x7
        XRL       A,R1
        JNZ       ??gp_getProxyTableByGpId_4
// 1309     {
// 1310       if ( gpd_ID->AppID == GP_OPT_APP_ID_GPD )
        MOV       A,R0
        JNZ       ??gp_getProxyTableByGpId_5
// 1311       {
// 1312         if ( osal_memcmp( &gpd_ID->GPDId.SrcID, &pEntry[PROXY_TBL_ENTRY_GPD_ID + 4], sizeof ( uint32 ) ) )
        ; Setup parameters for call to function osal_memcmp
        MOV       DPL,?XSP + 0
        MOV       DPH,?XSP + 1
        MOVX      A,@DPTR
        ADD       A,#0x6
        LCALL     ?Subroutine29 & 0xFFFF
// 1313         {
// 1314           // Entry found
// 1315           break;
// 1316         }
// 1317       }
??CrossCallReturnLabel_41:
        LCALL     ?PUSH_XSTACK_I_THREE
          CFI CFA_XSP16 add(XSP16, 22)
        MOV       R4,#0x4
        MOV       R5,#0x0
        MOV       R1,?V0
        MOV       R2,?V1
        MOV       R3,?V2
        LCALL     `??osal_memcmp::?relay`; Banked call to: osal_memcmp
        MOV       A,#0x3
        LCALL     ?DEALLOC_XSTACK8
          CFI CFA_XSP16 add(XSP16, 19)
        MOV       A,R1
        JNZ       ??gp_getProxyTableByGpId_6
        SJMP      ??gp_getProxyTableByGpId_4
// 1318 
// 1319       else if ( gpd_ID->AppID == GP_OPT_APP_ID_IEEE )
??gp_getProxyTableByGpId_5:
        MOV       A,#0x2
        XRL       A,R0
        JNZ       ??gp_getProxyTableByGpId_4
// 1320       {
// 1321         if ( osal_memcmp( &gpd_ID->GPDId.GPDExtAddr, &pEntry[PROXY_TBL_ENTRY_GPD_ID], Z_EXTADDR_LEN ) )
        ; Setup parameters for call to function osal_memcmp
        MOV       DPL,?XSP + 0
        MOV       DPH,?XSP + 1
        MOVX      A,@DPTR
        ADD       A,#0x2
        LCALL     ?Subroutine29 & 0xFFFF
// 1322         {
// 1323           // Entry found
// 1324           break;
// 1325         }
// 1326       }
// 1327     }
// 1328     else
// 1329     {
// 1330       continue;
// 1331     }
// 1332   }
??CrossCallReturnLabel_42:
        LCALL     ?PUSH_XSTACK_I_THREE
          CFI CFA_XSP16 add(XSP16, 22)
        MOV       R4,#0x8
        MOV       R5,#0x0
        MOV       R1,?V0
        MOV       R2,?V1
        MOV       R3,?V2
        LCALL     `??osal_memcmp::?relay`; Banked call to: osal_memcmp
        MOV       A,#0x3
        LCALL     ?DEALLOC_XSTACK8
          CFI CFA_XSP16 add(XSP16, 19)
        MOV       A,R1
        JNZ       ??gp_getProxyTableByGpId_6
??gp_getProxyTableByGpId_4:
        INC       R6
        MOV       A,R6
        CLR       C
        SUBB      A,#0x6
        JNC       $+5
        LJMP      ??gp_getProxyTableByGpId_1 & 0xFFFF
// 1333 
// 1334   if(i <= GPP_MAX_PROXY_TABLE_ENTRIES)
??gp_getProxyTableByGpId_6:
        MOV       A,R6
        CLR       C
        SUBB      A,#0x6
        JNC       ??gp_getProxyTableByGpId_0
        MOV       A,#0x13
        LCALL     ?XSTACK_DISP0_8
        LCALL     ?Subroutine30 & 0xFFFF
// 1335   {
// 1336     if(NvProxyTableIndex != NULL)
??CrossCallReturnLabel_44:
        MOV       A,DPL
        ORL       A,DPH
        JZ        ??CrossCallReturnLabel_143
// 1337     {
// 1338       *NvProxyTableIndex = ZCD_NV_PROXY_TABLE_START + i;
        MOV       A,R6
        ADD       A,#0x10
        MOV       R0,A
        CLR       A
        ADDC      A,#0x3
        MOV       R1,A
        LCALL     ??Subroutine65_0 & 0xFFFF
// 1339     }
// 1340     return ZSuccess;
??CrossCallReturnLabel_143:
        MOV       R1,#0x0
        SJMP      ??gp_getProxyTableByGpId_3
// 1341   }
// 1342     
// 1343   return ZInvalidParameter;
??gp_getProxyTableByGpId_0:
        MOV       R1,#0x2
??gp_getProxyTableByGpId_3:
        MOV       A,#0x4
        LJMP      ?Subroutine2 & 0xFFFF
// 1344 }
          CFI EndBlock cfiBlock178

        RSEG BANKED_CODE:HUGECODE:NOROOT(0)
?Subroutine30:
          CFI Block cfiCond179 Using cfiCommon0
          CFI Function gp_PopulateField
          CFI Conditional ??CrossCallReturnLabel_43
          CFI R6 load(1, XDATA, add(CFA_XSP16, literal(-16)))
          CFI VB load(1, XDATA, add(CFA_XSP16, literal(-15)))
          CFI V0 load(1, XDATA, add(CFA_XSP16, literal(-14)))
          CFI V1 load(1, XDATA, add(CFA_XSP16, literal(-13)))
          CFI V2 load(1, XDATA, add(CFA_XSP16, literal(-12)))
          CFI V3 load(1, XDATA, add(CFA_XSP16, literal(-11)))
          CFI V4 load(1, XDATA, add(CFA_XSP16, literal(-10)))
          CFI V5 load(1, XDATA, add(CFA_XSP16, literal(-9)))
          CFI V6 load(1, XDATA, add(CFA_XSP16, literal(-8)))
          CFI V7 load(1, XDATA, add(CFA_XSP16, literal(-7)))
          CFI R7 load(1, XDATA, add(CFA_XSP16, literal(-6)))
          CFI ?RET_LOW load(1, XDATA, add(CFA_XSP16, literal(-5)))
          CFI ?RET_HIGH load(1, XDATA, add(CFA_XSP16, literal(-4)))
          CFI ?BRET_EXT load(1, XDATA, add(CFA_XSP16, literal(-3)))
          CFI DPL0 load(1, XDATA, add(CFA_XSP16, literal(-2)))
          CFI DPH0 load(1, XDATA, add(CFA_XSP16, literal(-1)))
          CFI CFA_SP SP+-2
          CFI CFA_XSP16 add(XSP16, 17)
          CFI Block cfiCond180 Using cfiCommon0
          CFI (cfiCond180) Function gp_getProxyTableByGpId
          CFI (cfiCond180) Conditional ??CrossCallReturnLabel_44
          CFI (cfiCond180) R6 load(1, XDATA, add(CFA_XSP16, literal(-15)))
          CFI (cfiCond180) VB load(1, XDATA, add(CFA_XSP16, literal(-14)))
          CFI (cfiCond180) V0 load(1, XDATA, add(CFA_XSP16, literal(-13)))
          CFI (cfiCond180) V1 load(1, XDATA, add(CFA_XSP16, literal(-12)))
          CFI (cfiCond180) V2 load(1, XDATA, add(CFA_XSP16, literal(-11)))
          CFI (cfiCond180) V3 load(1, XDATA, add(CFA_XSP16, literal(-10)))
          CFI (cfiCond180) V4 load(1, XDATA, add(CFA_XSP16, literal(-9)))
          CFI (cfiCond180) V5 load(1, XDATA, add(CFA_XSP16, literal(-8)))
          CFI (cfiCond180) V6 load(1, XDATA, add(CFA_XSP16, literal(-7)))
          CFI (cfiCond180) R7 load(1, XDATA, add(CFA_XSP16, literal(-6)))
          CFI (cfiCond180) ?RET_LOW load(1, XDATA, add(CFA_XSP16, literal(-5)))
          CFI (cfiCond180) ?RET_HIGH load(1, XDATA, add(CFA_XSP16, literal(-4)))
          CFI (cfiCond180) ?BRET_EXT load(1, XDATA, add(CFA_XSP16, literal(-3)))
          CFI (cfiCond180) DPL0 load(1, XDATA, add(CFA_XSP16, literal(-2)))
          CFI (cfiCond180) DPH0 load(1, XDATA, add(CFA_XSP16, literal(-1)))
          CFI (cfiCond180) CFA_SP SP+-2
          CFI (cfiCond180) CFA_XSP16 add(XSP16, 19)
          CFI Block cfiPicker181 Using cfiCommon1
          CFI (cfiPicker181) NoFunction
          CFI (cfiPicker181) Picker
        MOVX      A,@DPTR
        MOV       R0,A
        INC       DPTR
        MOVX      A,@DPTR
        MOV       R1,A
        MOV       DPL,R0
        MOV       DPH,R1
        RET
          CFI EndBlock cfiCond179
          CFI EndBlock cfiCond180
          CFI EndBlock cfiPicker181

        RSEG BANKED_CODE:HUGECODE:NOROOT(0)
?Subroutine29:
          CFI Block cfiCond182 Using cfiCommon0
          CFI Function gp_getProxyTableByGpId
          CFI Conditional ??CrossCallReturnLabel_41
          CFI R6 load(1, XDATA, add(CFA_XSP16, literal(-15)))
          CFI VB load(1, XDATA, add(CFA_XSP16, literal(-14)))
          CFI V0 load(1, XDATA, add(CFA_XSP16, literal(-13)))
          CFI V1 load(1, XDATA, add(CFA_XSP16, literal(-12)))
          CFI V2 load(1, XDATA, add(CFA_XSP16, literal(-11)))
          CFI V3 load(1, XDATA, add(CFA_XSP16, literal(-10)))
          CFI V4 load(1, XDATA, add(CFA_XSP16, literal(-9)))
          CFI V5 load(1, XDATA, add(CFA_XSP16, literal(-8)))
          CFI V6 load(1, XDATA, add(CFA_XSP16, literal(-7)))
          CFI R7 load(1, XDATA, add(CFA_XSP16, literal(-6)))
          CFI ?RET_LOW load(1, XDATA, add(CFA_XSP16, literal(-5)))
          CFI ?RET_HIGH load(1, XDATA, add(CFA_XSP16, literal(-4)))
          CFI ?BRET_EXT load(1, XDATA, add(CFA_XSP16, literal(-3)))
          CFI DPL0 load(1, XDATA, add(CFA_XSP16, literal(-2)))
          CFI DPH0 load(1, XDATA, add(CFA_XSP16, literal(-1)))
          CFI CFA_SP SP+-2
          CFI CFA_XSP16 add(XSP16, 19)
          CFI Block cfiCond183 Using cfiCommon0
          CFI (cfiCond183) Function gp_getProxyTableByGpId
          CFI (cfiCond183) Conditional ??CrossCallReturnLabel_42
          CFI (cfiCond183) R6 load(1, XDATA, add(CFA_XSP16, literal(-15)))
          CFI (cfiCond183) VB load(1, XDATA, add(CFA_XSP16, literal(-14)))
          CFI (cfiCond183) V0 load(1, XDATA, add(CFA_XSP16, literal(-13)))
          CFI (cfiCond183) V1 load(1, XDATA, add(CFA_XSP16, literal(-12)))
          CFI (cfiCond183) V2 load(1, XDATA, add(CFA_XSP16, literal(-11)))
          CFI (cfiCond183) V3 load(1, XDATA, add(CFA_XSP16, literal(-10)))
          CFI (cfiCond183) V4 load(1, XDATA, add(CFA_XSP16, literal(-9)))
          CFI (cfiCond183) V5 load(1, XDATA, add(CFA_XSP16, literal(-8)))
          CFI (cfiCond183) V6 load(1, XDATA, add(CFA_XSP16, literal(-7)))
          CFI (cfiCond183) R7 load(1, XDATA, add(CFA_XSP16, literal(-6)))
          CFI (cfiCond183) ?RET_LOW load(1, XDATA, add(CFA_XSP16, literal(-5)))
          CFI (cfiCond183) ?RET_HIGH load(1, XDATA, add(CFA_XSP16, literal(-4)))
          CFI (cfiCond183) ?BRET_EXT load(1, XDATA, add(CFA_XSP16, literal(-3)))
          CFI (cfiCond183) DPL0 load(1, XDATA, add(CFA_XSP16, literal(-2)))
          CFI (cfiCond183) DPH0 load(1, XDATA, add(CFA_XSP16, literal(-1)))
          CFI (cfiCond183) CFA_SP SP+-2
          CFI (cfiCond183) CFA_XSP16 add(XSP16, 19)
          CFI Block cfiPicker184 Using cfiCommon1
          CFI (cfiPicker184) NoFunction
          CFI (cfiPicker184) Picker
        MOV       ?V4,A
        INC       DPTR
        MOVX      A,@DPTR
        ADDC      A,#0x0
        MOV       ?V5,A
        MOV       ?V6,#0x0
        MOV       R0,#?V4
        RET
          CFI EndBlock cfiCond182
          CFI EndBlock cfiCond183
          CFI EndBlock cfiPicker184

        RSEG BANKED_CODE:HUGECODE:NOROOT(0)
?Subroutine16:
          CFI Block cfiCond185 Using cfiCommon0
          CFI Function zclGp_GpResponseCommandCB
          CFI Conditional ??CrossCallReturnLabel_144
          CFI R6 load(1, XDATA, add(CFA_XSP16, literal(-15)))
          CFI VB load(1, XDATA, add(CFA_XSP16, literal(-14)))
          CFI V0 load(1, XDATA, add(CFA_XSP16, literal(-13)))
          CFI V1 load(1, XDATA, add(CFA_XSP16, literal(-12)))
          CFI V2 load(1, XDATA, add(CFA_XSP16, literal(-11)))
          CFI V3 load(1, XDATA, add(CFA_XSP16, literal(-10)))
          CFI V4 load(1, XDATA, add(CFA_XSP16, literal(-9)))
          CFI V5 load(1, XDATA, add(CFA_XSP16, literal(-8)))
          CFI V6 load(1, XDATA, add(CFA_XSP16, literal(-7)))
          CFI R7 load(1, XDATA, add(CFA_XSP16, literal(-6)))
          CFI ?RET_LOW load(1, XDATA, add(CFA_XSP16, literal(-5)))
          CFI ?RET_HIGH load(1, XDATA, add(CFA_XSP16, literal(-4)))
          CFI ?BRET_EXT load(1, XDATA, add(CFA_XSP16, literal(-3)))
          CFI DPL0 load(1, XDATA, add(CFA_XSP16, literal(-2)))
          CFI DPH0 load(1, XDATA, add(CFA_XSP16, literal(-1)))
          CFI CFA_SP SP+-2
          CFI CFA_XSP16 add(XSP16, 93)
          CFI Block cfiCond186 Using cfiCommon0
          CFI (cfiCond186) Function zclGp_GpProxyCommissioningModeCB
          CFI (cfiCond186) Conditional ??CrossCallReturnLabel_145
          CFI (cfiCond186) R6 load(1, XDATA, add(CFA_XSP16, literal(-10)))
          CFI (cfiCond186) VB load(1, XDATA, add(CFA_XSP16, literal(-9)))
          CFI (cfiCond186) V0 load(1, XDATA, add(CFA_XSP16, literal(-8)))
          CFI (cfiCond186) V1 load(1, XDATA, add(CFA_XSP16, literal(-7)))
          CFI (cfiCond186) R7 load(1, XDATA, add(CFA_XSP16, literal(-6)))
          CFI (cfiCond186) ?RET_LOW load(1, XDATA, add(CFA_XSP16, literal(-5)))
          CFI (cfiCond186) ?RET_HIGH load(1, XDATA, add(CFA_XSP16, literal(-4)))
          CFI (cfiCond186) ?BRET_EXT load(1, XDATA, add(CFA_XSP16, literal(-3)))
          CFI (cfiCond186) DPL0 load(1, XDATA, add(CFA_XSP16, literal(-2)))
          CFI (cfiCond186) DPH0 load(1, XDATA, add(CFA_XSP16, literal(-1)))
          CFI (cfiCond186) CFA_SP SP+-2
          CFI (cfiCond186) CFA_XSP16 add(XSP16, 10)
          CFI Block cfiPicker187 Using cfiCommon1
          CFI (cfiPicker187) NoFunction
          CFI (cfiPicker187) Picker
        MOV       DPL,?V0
        MOV       DPH,?V1
          CFI EndBlock cfiCond185
          CFI EndBlock cfiCond186
          CFI EndBlock cfiPicker187
        REQUIRE ??Subroutine65_0
        ; // Fall through to label ??Subroutine65_0

        RSEG BANKED_CODE:HUGECODE:NOROOT(0)
??Subroutine65_0:
          CFI Block cfiCond188 Using cfiCommon0
          CFI Function zclGp_ManteinanceIndParse
          CFI Conditional ??CrossCallReturnLabel_138
          CFI R6 load(1, XDATA, add(CFA_XSP16, literal(-16)))
          CFI VB load(1, XDATA, add(CFA_XSP16, literal(-15)))
          CFI V0 load(1, XDATA, add(CFA_XSP16, literal(-14)))
          CFI V1 load(1, XDATA, add(CFA_XSP16, literal(-13)))
          CFI V2 load(1, XDATA, add(CFA_XSP16, literal(-12)))
          CFI V3 load(1, XDATA, add(CFA_XSP16, literal(-11)))
          CFI V4 load(1, XDATA, add(CFA_XSP16, literal(-10)))
          CFI V5 load(1, XDATA, add(CFA_XSP16, literal(-9)))
          CFI V6 load(1, XDATA, add(CFA_XSP16, literal(-8)))
          CFI V7 load(1, XDATA, add(CFA_XSP16, literal(-7)))
          CFI R7 load(1, XDATA, add(CFA_XSP16, literal(-6)))
          CFI ?RET_LOW load(1, XDATA, add(CFA_XSP16, literal(-5)))
          CFI ?RET_HIGH load(1, XDATA, add(CFA_XSP16, literal(-4)))
          CFI ?BRET_EXT load(1, XDATA, add(CFA_XSP16, literal(-3)))
          CFI DPL0 load(1, XDATA, add(CFA_XSP16, literal(-2)))
          CFI DPH0 load(1, XDATA, add(CFA_XSP16, literal(-1)))
          CFI CFA_SP SP+-2
          CFI CFA_XSP16 add(XSP16, 18)
          CFI Block cfiCond189 Using cfiCommon0
          CFI (cfiCond189) Function zclGp_ManteinanceIndParse
          CFI (cfiCond189) Conditional ??CrossCallReturnLabel_139
          CFI (cfiCond189) R6 load(1, XDATA, add(CFA_XSP16, literal(-16)))
          CFI (cfiCond189) VB load(1, XDATA, add(CFA_XSP16, literal(-15)))
          CFI (cfiCond189) V0 load(1, XDATA, add(CFA_XSP16, literal(-14)))
          CFI (cfiCond189) V1 load(1, XDATA, add(CFA_XSP16, literal(-13)))
          CFI (cfiCond189) V2 load(1, XDATA, add(CFA_XSP16, literal(-12)))
          CFI (cfiCond189) V3 load(1, XDATA, add(CFA_XSP16, literal(-11)))
          CFI (cfiCond189) V4 load(1, XDATA, add(CFA_XSP16, literal(-10)))
          CFI (cfiCond189) V5 load(1, XDATA, add(CFA_XSP16, literal(-9)))
          CFI (cfiCond189) V6 load(1, XDATA, add(CFA_XSP16, literal(-8)))
          CFI (cfiCond189) V7 load(1, XDATA, add(CFA_XSP16, literal(-7)))
          CFI (cfiCond189) R7 load(1, XDATA, add(CFA_XSP16, literal(-6)))
          CFI (cfiCond189) ?RET_LOW load(1, XDATA, add(CFA_XSP16, literal(-5)))
          CFI (cfiCond189) ?RET_HIGH load(1, XDATA, add(CFA_XSP16, literal(-4)))
          CFI (cfiCond189) ?BRET_EXT load(1, XDATA, add(CFA_XSP16, literal(-3)))
          CFI (cfiCond189) DPL0 load(1, XDATA, add(CFA_XSP16, literal(-2)))
          CFI (cfiCond189) DPH0 load(1, XDATA, add(CFA_XSP16, literal(-1)))
          CFI (cfiCond189) CFA_SP SP+-2
          CFI (cfiCond189) CFA_XSP16 add(XSP16, 18)
          CFI Block cfiCond190 Using cfiCommon0
          CFI (cfiCond190) Function zclGp_DataIndParse
          CFI (cfiCond190) Conditional ??CrossCallReturnLabel_140
          CFI (cfiCond190) R6 load(1, XDATA, add(CFA_XSP16, literal(-15)))
          CFI (cfiCond190) VB load(1, XDATA, add(CFA_XSP16, literal(-14)))
          CFI (cfiCond190) V0 load(1, XDATA, add(CFA_XSP16, literal(-13)))
          CFI (cfiCond190) V1 load(1, XDATA, add(CFA_XSP16, literal(-12)))
          CFI (cfiCond190) V2 load(1, XDATA, add(CFA_XSP16, literal(-11)))
          CFI (cfiCond190) V3 load(1, XDATA, add(CFA_XSP16, literal(-10)))
          CFI (cfiCond190) V4 load(1, XDATA, add(CFA_XSP16, literal(-9)))
          CFI (cfiCond190) V5 load(1, XDATA, add(CFA_XSP16, literal(-8)))
          CFI (cfiCond190) V6 load(1, XDATA, add(CFA_XSP16, literal(-7)))
          CFI (cfiCond190) R7 load(1, XDATA, add(CFA_XSP16, literal(-6)))
          CFI (cfiCond190) ?RET_LOW load(1, XDATA, add(CFA_XSP16, literal(-5)))
          CFI (cfiCond190) ?RET_HIGH load(1, XDATA, add(CFA_XSP16, literal(-4)))
          CFI (cfiCond190) ?BRET_EXT load(1, XDATA, add(CFA_XSP16, literal(-3)))
          CFI (cfiCond190) DPL0 load(1, XDATA, add(CFA_XSP16, literal(-2)))
          CFI (cfiCond190) DPH0 load(1, XDATA, add(CFA_XSP16, literal(-1)))
          CFI (cfiCond190) CFA_SP SP+-2
          CFI (cfiCond190) CFA_XSP16 add(XSP16, 86)
          CFI Block cfiCond191 Using cfiCommon0
          CFI (cfiCond191) Function zclGp_DataIndParse
          CFI (cfiCond191) Conditional ??CrossCallReturnLabel_141
          CFI (cfiCond191) R6 load(1, XDATA, add(CFA_XSP16, literal(-15)))
          CFI (cfiCond191) VB load(1, XDATA, add(CFA_XSP16, literal(-14)))
          CFI (cfiCond191) V0 load(1, XDATA, add(CFA_XSP16, literal(-13)))
          CFI (cfiCond191) V1 load(1, XDATA, add(CFA_XSP16, literal(-12)))
          CFI (cfiCond191) V2 load(1, XDATA, add(CFA_XSP16, literal(-11)))
          CFI (cfiCond191) V3 load(1, XDATA, add(CFA_XSP16, literal(-10)))
          CFI (cfiCond191) V4 load(1, XDATA, add(CFA_XSP16, literal(-9)))
          CFI (cfiCond191) V5 load(1, XDATA, add(CFA_XSP16, literal(-8)))
          CFI (cfiCond191) V6 load(1, XDATA, add(CFA_XSP16, literal(-7)))
          CFI (cfiCond191) R7 load(1, XDATA, add(CFA_XSP16, literal(-6)))
          CFI (cfiCond191) ?RET_LOW load(1, XDATA, add(CFA_XSP16, literal(-5)))
          CFI (cfiCond191) ?RET_HIGH load(1, XDATA, add(CFA_XSP16, literal(-4)))
          CFI (cfiCond191) ?BRET_EXT load(1, XDATA, add(CFA_XSP16, literal(-3)))
          CFI (cfiCond191) DPL0 load(1, XDATA, add(CFA_XSP16, literal(-2)))
          CFI (cfiCond191) DPH0 load(1, XDATA, add(CFA_XSP16, literal(-1)))
          CFI (cfiCond191) CFA_SP SP+-2
          CFI (cfiCond191) CFA_XSP16 add(XSP16, 86)
          CFI Block cfiCond192 Using cfiCommon0
          CFI (cfiCond192) Function gp_PopulateField
          CFI (cfiCond192) Conditional ??CrossCallReturnLabel_142
          CFI (cfiCond192) R6 load(1, XDATA, add(CFA_XSP16, literal(-16)))
          CFI (cfiCond192) VB load(1, XDATA, add(CFA_XSP16, literal(-15)))
          CFI (cfiCond192) V0 load(1, XDATA, add(CFA_XSP16, literal(-14)))
          CFI (cfiCond192) V1 load(1, XDATA, add(CFA_XSP16, literal(-13)))
          CFI (cfiCond192) V2 load(1, XDATA, add(CFA_XSP16, literal(-12)))
          CFI (cfiCond192) V3 load(1, XDATA, add(CFA_XSP16, literal(-11)))
          CFI (cfiCond192) V4 load(1, XDATA, add(CFA_XSP16, literal(-10)))
          CFI (cfiCond192) V5 load(1, XDATA, add(CFA_XSP16, literal(-9)))
          CFI (cfiCond192) V6 load(1, XDATA, add(CFA_XSP16, literal(-8)))
          CFI (cfiCond192) V7 load(1, XDATA, add(CFA_XSP16, literal(-7)))
          CFI (cfiCond192) R7 load(1, XDATA, add(CFA_XSP16, literal(-6)))
          CFI (cfiCond192) ?RET_LOW load(1, XDATA, add(CFA_XSP16, literal(-5)))
          CFI (cfiCond192) ?RET_HIGH load(1, XDATA, add(CFA_XSP16, literal(-4)))
          CFI (cfiCond192) ?BRET_EXT load(1, XDATA, add(CFA_XSP16, literal(-3)))
          CFI (cfiCond192) DPL0 load(1, XDATA, add(CFA_XSP16, literal(-2)))
          CFI (cfiCond192) DPH0 load(1, XDATA, add(CFA_XSP16, literal(-1)))
          CFI (cfiCond192) CFA_SP SP+-2
          CFI (cfiCond192) CFA_XSP16 add(XSP16, 17)
          CFI Block cfiCond193 Using cfiCommon0
          CFI (cfiCond193) Function gp_getProxyTableByGpId
          CFI (cfiCond193) Conditional ??CrossCallReturnLabel_143
          CFI (cfiCond193) R6 load(1, XDATA, add(CFA_XSP16, literal(-15)))
          CFI (cfiCond193) VB load(1, XDATA, add(CFA_XSP16, literal(-14)))
          CFI (cfiCond193) V0 load(1, XDATA, add(CFA_XSP16, literal(-13)))
          CFI (cfiCond193) V1 load(1, XDATA, add(CFA_XSP16, literal(-12)))
          CFI (cfiCond193) V2 load(1, XDATA, add(CFA_XSP16, literal(-11)))
          CFI (cfiCond193) V3 load(1, XDATA, add(CFA_XSP16, literal(-10)))
          CFI (cfiCond193) V4 load(1, XDATA, add(CFA_XSP16, literal(-9)))
          CFI (cfiCond193) V5 load(1, XDATA, add(CFA_XSP16, literal(-8)))
          CFI (cfiCond193) V6 load(1, XDATA, add(CFA_XSP16, literal(-7)))
          CFI (cfiCond193) R7 load(1, XDATA, add(CFA_XSP16, literal(-6)))
          CFI (cfiCond193) ?RET_LOW load(1, XDATA, add(CFA_XSP16, literal(-5)))
          CFI (cfiCond193) ?RET_HIGH load(1, XDATA, add(CFA_XSP16, literal(-4)))
          CFI (cfiCond193) ?BRET_EXT load(1, XDATA, add(CFA_XSP16, literal(-3)))
          CFI (cfiCond193) DPL0 load(1, XDATA, add(CFA_XSP16, literal(-2)))
          CFI (cfiCond193) DPH0 load(1, XDATA, add(CFA_XSP16, literal(-1)))
          CFI (cfiCond193) CFA_SP SP+-2
          CFI (cfiCond193) CFA_XSP16 add(XSP16, 19)
          CFI Block cfiCond194 Using cfiCommon0
          CFI (cfiCond194) Function zclGp_GpResponseCommandCB
          CFI (cfiCond194) Conditional ??CrossCallReturnLabel_144
          CFI (cfiCond194) R6 load(1, XDATA, add(CFA_XSP16, literal(-15)))
          CFI (cfiCond194) VB load(1, XDATA, add(CFA_XSP16, literal(-14)))
          CFI (cfiCond194) V0 load(1, XDATA, add(CFA_XSP16, literal(-13)))
          CFI (cfiCond194) V1 load(1, XDATA, add(CFA_XSP16, literal(-12)))
          CFI (cfiCond194) V2 load(1, XDATA, add(CFA_XSP16, literal(-11)))
          CFI (cfiCond194) V3 load(1, XDATA, add(CFA_XSP16, literal(-10)))
          CFI (cfiCond194) V4 load(1, XDATA, add(CFA_XSP16, literal(-9)))
          CFI (cfiCond194) V5 load(1, XDATA, add(CFA_XSP16, literal(-8)))
          CFI (cfiCond194) V6 load(1, XDATA, add(CFA_XSP16, literal(-7)))
          CFI (cfiCond194) R7 load(1, XDATA, add(CFA_XSP16, literal(-6)))
          CFI (cfiCond194) ?RET_LOW load(1, XDATA, add(CFA_XSP16, literal(-5)))
          CFI (cfiCond194) ?RET_HIGH load(1, XDATA, add(CFA_XSP16, literal(-4)))
          CFI (cfiCond194) ?BRET_EXT load(1, XDATA, add(CFA_XSP16, literal(-3)))
          CFI (cfiCond194) DPL0 load(1, XDATA, add(CFA_XSP16, literal(-2)))
          CFI (cfiCond194) DPH0 load(1, XDATA, add(CFA_XSP16, literal(-1)))
          CFI (cfiCond194) CFA_SP SP+-2
          CFI (cfiCond194) CFA_XSP16 add(XSP16, 93)
          CFI Block cfiCond195 Using cfiCommon0
          CFI (cfiCond195) Function zclGp_GpProxyCommissioningModeCB
          CFI (cfiCond195) Conditional ??CrossCallReturnLabel_145
          CFI (cfiCond195) R6 load(1, XDATA, add(CFA_XSP16, literal(-10)))
          CFI (cfiCond195) VB load(1, XDATA, add(CFA_XSP16, literal(-9)))
          CFI (cfiCond195) V0 load(1, XDATA, add(CFA_XSP16, literal(-8)))
          CFI (cfiCond195) V1 load(1, XDATA, add(CFA_XSP16, literal(-7)))
          CFI (cfiCond195) R7 load(1, XDATA, add(CFA_XSP16, literal(-6)))
          CFI (cfiCond195) ?RET_LOW load(1, XDATA, add(CFA_XSP16, literal(-5)))
          CFI (cfiCond195) ?RET_HIGH load(1, XDATA, add(CFA_XSP16, literal(-4)))
          CFI (cfiCond195) ?BRET_EXT load(1, XDATA, add(CFA_XSP16, literal(-3)))
          CFI (cfiCond195) DPL0 load(1, XDATA, add(CFA_XSP16, literal(-2)))
          CFI (cfiCond195) DPH0 load(1, XDATA, add(CFA_XSP16, literal(-1)))
          CFI (cfiCond195) CFA_SP SP+-2
          CFI (cfiCond195) CFA_XSP16 add(XSP16, 10)
          CFI Block cfiPicker196 Using cfiCommon1
          CFI (cfiPicker196) NoFunction
          CFI (cfiPicker196) Picker
        MOV       A,R0
        MOVX      @DPTR,A
        INC       DPTR
        MOV       A,R1
        MOVX      @DPTR,A
        RET
          CFI EndBlock cfiCond188
          CFI EndBlock cfiCond189
          CFI EndBlock cfiCond190
          CFI EndBlock cfiCond191
          CFI EndBlock cfiCond192
          CFI EndBlock cfiCond193
          CFI EndBlock cfiCond194
          CFI EndBlock cfiCond195
          CFI EndBlock cfiPicker196
// 1345 
// 1346  /*********************************************************************
// 1347  * @fn          gp_SecurityOperationProxy
// 1348  *
// 1349  * @brief       Performs Security Operations according to Proxy
// 1350  *
// 1351  * @param       ind - pointer to gp data indication
// 1352  * @param       pFrameCounter 
// 1353  * @param       pKeyType 
// 1354  * @param       pkey Key to be used to decript the packet (if applies)
// 1355  *
// 1356  * @return      GP_SEC_RSP status
// 1357  */

        RSEG BANKED_CODE:HUGECODE:NOROOT(0)
// 1358 uint8 gp_SecurityOperationProxy( gp_DataInd_t* pInd, uint8* pKeyType, uint8* pKey)
gp_SecurityOperationProxy:
          CFI Block cfiBlock197 Using cfiCommon0
          CFI Function gp_SecurityOperationProxy
        CODE
// 1359 {
        FUNCALL gp_SecurityOperationProxy, osal_memset
        LOCFRAME ISTACK, 0, STACK
        LOCFRAME PSTACK, 0, STACK
        LOCFRAME XSTACK, 94, STACK
        LOCFRAME IOVERLAY, 0, STATIC
        LOCFRAME DOVERLAY, 0, STATIC
        ARGFRAME ISTACK, 0, STACK
        ARGFRAME PSTACK, 0, STACK
        ARGFRAME XSTACK, 94, STACK
        ARGFRAME IOVERLAY, 0, STATIC
        ARGFRAME DOVERLAY, 0, STATIC
        FUNCALL gp_SecurityOperationProxy, osal_memcpy
        LOCFRAME ISTACK, 0, STACK
        LOCFRAME PSTACK, 0, STACK
        LOCFRAME XSTACK, 97, STACK
        LOCFRAME IOVERLAY, 0, STATIC
        LOCFRAME DOVERLAY, 0, STATIC
        ARGFRAME ISTACK, 0, STACK
        ARGFRAME PSTACK, 0, STACK
        ARGFRAME XSTACK, 97, STACK
        ARGFRAME IOVERLAY, 0, STATIC
        ARGFRAME DOVERLAY, 0, STATIC
        FUNCALL gp_SecurityOperationProxy, gp_getProxyTableByGpId
        LOCFRAME ISTACK, 0, STACK
        LOCFRAME PSTACK, 0, STACK
        LOCFRAME XSTACK, 96, STACK
        LOCFRAME IOVERLAY, 0, STATIC
        LOCFRAME DOVERLAY, 0, STATIC
        ARGFRAME ISTACK, 0, STACK
        ARGFRAME PSTACK, 0, STACK
        ARGFRAME XSTACK, 96, STACK
        ARGFRAME IOVERLAY, 0, STATIC
        ARGFRAME DOVERLAY, 0, STATIC
        FUNCALL gp_SecurityOperationProxy, osal_memcmp
        LOCFRAME ISTACK, 0, STACK
        LOCFRAME PSTACK, 0, STACK
        LOCFRAME XSTACK, 97, STACK
        LOCFRAME IOVERLAY, 0, STATIC
        LOCFRAME DOVERLAY, 0, STATIC
        ARGFRAME ISTACK, 0, STACK
        ARGFRAME PSTACK, 0, STACK
        ARGFRAME XSTACK, 97, STACK
        ARGFRAME IOVERLAY, 0, STATIC
        ARGFRAME DOVERLAY, 0, STATIC
        FUNCALL gp_SecurityOperationProxy, osal_memcpy
        LOCFRAME ISTACK, 0, STACK
        LOCFRAME PSTACK, 0, STACK
        LOCFRAME XSTACK, 97, STACK
        LOCFRAME IOVERLAY, 0, STATIC
        LOCFRAME DOVERLAY, 0, STATIC
        ARGFRAME ISTACK, 0, STACK
        ARGFRAME PSTACK, 0, STACK
        ARGFRAME XSTACK, 97, STACK
        ARGFRAME IOVERLAY, 0, STATIC
        ARGFRAME DOVERLAY, 0, STATIC
        FUNCALL gp_SecurityOperationProxy, osal_build_uint32
        LOCFRAME ISTACK, 0, STACK
        LOCFRAME PSTACK, 0, STACK
        LOCFRAME XSTACK, 94, STACK
        LOCFRAME IOVERLAY, 0, STATIC
        LOCFRAME DOVERLAY, 0, STATIC
        ARGFRAME ISTACK, 0, STACK
        ARGFRAME PSTACK, 0, STACK
        ARGFRAME XSTACK, 94, STACK
        ARGFRAME IOVERLAY, 0, STATIC
        ARGFRAME DOVERLAY, 0, STATIC
        FUNCALL gp_SecurityOperationProxy, osal_memcpy
        LOCFRAME ISTACK, 0, STACK
        LOCFRAME PSTACK, 0, STACK
        LOCFRAME XSTACK, 97, STACK
        LOCFRAME IOVERLAY, 0, STATIC
        LOCFRAME DOVERLAY, 0, STATIC
        ARGFRAME ISTACK, 0, STACK
        ARGFRAME PSTACK, 0, STACK
        ARGFRAME XSTACK, 97, STACK
        ARGFRAME IOVERLAY, 0, STATIC
        ARGFRAME DOVERLAY, 0, STATIC
        REQUIRE ?V0
        REQUIRE ?V1
        REQUIRE ?V2
        REQUIRE ?V3
        REQUIRE ?V4
        REQUIRE ?V5
        REQUIRE ?V6
        REQUIRE ?V7
        MOV       A,#-0x10
        LCALL     ?BANKED_ENTER_XDATA
          CFI DPH0 load(1, XDATA, add(CFA_XSP16, literal(-1)))
          CFI DPL0 load(1, XDATA, add(CFA_XSP16, literal(-2)))
          CFI ?BRET_EXT load(1, XDATA, add(CFA_XSP16, literal(-3)))
          CFI ?RET_HIGH load(1, XDATA, add(CFA_XSP16, literal(-4)))
          CFI ?RET_LOW load(1, XDATA, add(CFA_XSP16, literal(-5)))
          CFI R7 load(1, XDATA, add(CFA_XSP16, literal(-6)))
          CFI V7 load(1, XDATA, add(CFA_XSP16, literal(-7)))
          CFI V6 load(1, XDATA, add(CFA_XSP16, literal(-8)))
          CFI V5 load(1, XDATA, add(CFA_XSP16, literal(-9)))
          CFI V4 load(1, XDATA, add(CFA_XSP16, literal(-10)))
          CFI V3 load(1, XDATA, add(CFA_XSP16, literal(-11)))
          CFI V2 load(1, XDATA, add(CFA_XSP16, literal(-12)))
          CFI V1 load(1, XDATA, add(CFA_XSP16, literal(-13)))
          CFI V0 load(1, XDATA, add(CFA_XSP16, literal(-14)))
          CFI VB load(1, XDATA, add(CFA_XSP16, literal(-15)))
          CFI R6 load(1, XDATA, add(CFA_XSP16, literal(-16)))
          CFI CFA_SP SP+0
          CFI CFA_XSP16 add(XSP16, 16)
        ; Saved register size: 16
        ; Auto size: 78
        MOV       A,#-0x4e
        LCALL     ?ALLOC_XSTACK8
          CFI CFA_XSP16 add(XSP16, 94)
        MOV       DPL,?XSP + 0
        MOV       DPH,?XSP + 1
        LCALL     ?Subroutine18 & 0xFFFF
// 1360   uint8    currEntry[PROXY_TBL_ENTRY_LEN] = PROXY_BASIC_TBL_EMPTY_ENTRY;
??CrossCallReturnLabel_29:
        MOV       DPTR,#`?<Constant {255, 255, 255, 255, 255, 255, 255,_3`
        MOV       A,#0xd
        LCALL     ?XSTACK_DISP102_8
        MOV       A,#0x41
        LCALL     ?MOVE_LONG8_XDATA_XDATA
// 1361   uint8    status;
// 1362   uint32   SecFrameCounter = 0;
// 1363   uint8    securityCheckFail = FALSE;
// 1364   uint8    endpointCheckFail = FALSE;
// 1365   uint16   NvProxyTableIndex = 0;
        MOV       A,#0x2
        LCALL     ?XSTACK_DISP0_8
        CLR       A
        MOVX      @DPTR,A
        INC       DPTR
        LCALL     ?Subroutine7 & 0xFFFF
// 1366   gpd_ID_t gpd_ID;
// 1367   
// 1368   
// 1369   if((pKeyType == NULL) || (pKey == NULL) || (pInd == NULL))
??CrossCallReturnLabel_6:
        JZ        ??gp_SecurityOperationProxy_0
        MOV       A,#0x5e
        LCALL     ?XSTACK_DISP0_8
        LCALL     ??Subroutine70_0 & 0xFFFF
??CrossCallReturnLabel_174:
        JZ        ??gp_SecurityOperationProxy_0
        MOV       A,R6
        ORL       A,R7
        JNZ       ??gp_SecurityOperationProxy_1
// 1370   {
// 1371     return GP_SEC_RSP_ERROR;
??gp_SecurityOperationProxy_0:
        MOV       R1,#0x4
        LJMP      ??gp_SecurityOperationProxy_2 & 0xFFFF
// 1372   }
// 1373   *pKeyType = 0;
??gp_SecurityOperationProxy_1:
        LCALL     ?Subroutine25 & 0xFFFF
??CrossCallReturnLabel_136:
        CLR       A
        MOVX      @DPTR,A
// 1374   osal_memset(pKey,0,SEC_KEY_LEN);
        ; Setup parameters for call to function osal_memset
        MOV       R4,#0x10
        MOV       R5,A
        MOV       R1,A
        MOV       A,#0x5e
        LCALL     ?XSTACK_DISP0_8
        LCALL     ??Subroutine68_0 & 0xFFFF
??CrossCallReturnLabel_166:
        LCALL     `??osal_memset::?relay`; Banked call to: osal_memset
// 1375   
// 1376   gpd_ID.AppID = pInd->appID;
        LCALL     ?Subroutine39 & 0xFFFF
??CrossCallReturnLabel_154:
        PUSH      A
          CFI CFA_SP SP+-1
        MOV       A,#0x4
        LCALL     ?XSTACK_DISP0_8
        POP       A
          CFI CFA_SP SP+0
        MOVX      @DPTR,A
// 1377   
// 1378   if(gpd_ID.AppID == GP_APP_ID_DEFAULT)
        JNZ       ??gp_SecurityOperationProxy_3
// 1379   {
// 1380     gpd_ID.GPDId.SrcID = pInd->SrcId;
        LCALL     ?Subroutine38 & 0xFFFF
// 1381   }
??CrossCallReturnLabel_58:
        LCALL     ?XLOAD_R0123
        MOV       A,#0x5
        LCALL     ?XSTACK_DISP0_8
        LCALL     ?XSTORE_R0123
        SJMP      ??gp_SecurityOperationProxy_4
// 1382   else
// 1383   {
// 1384     osal_memcpy(gpd_ID.GPDId.GPDExtAddr,pInd->srcAddr.addr.extAddr,Z_EXTADDR_LEN);
??gp_SecurityOperationProxy_3:
        ; Setup parameters for call to function osal_memcpy
        LCALL     ?Subroutine37 & 0xFFFF
// 1385   }
??CrossCallReturnLabel_157:
        LCALL     ?PUSH_XSTACK_I_THREE
          CFI CFA_XSP16 add(XSP16, 97)
        MOV       R4,#0x8
        MOV       R5,#0x0
        MOV       A,R4
        LCALL     ?XSTACK_DISP0_8
        MOV       R2,DPL
        MOV       R3,DPH
        LCALL     `??osal_memcpy::?relay`; Banked call to: osal_memcpy
        MOV       A,#0x3
        LCALL     ?DEALLOC_XSTACK8
          CFI CFA_XSP16 add(XSP16, 94)
// 1386   
// 1387   status = gp_getProxyTableByGpId(&gpd_ID,currEntry,&NvProxyTableIndex);
??gp_SecurityOperationProxy_4:
        ; Setup parameters for call to function gp_getProxyTableByGpId
        MOV       A,#0x2
        LCALL     ?XSTACK_DISP100_8
        MOV       ?V0,R0
        MOV       ?V1,R1
        MOV       R0,#?V0
        LCALL     ?PUSH_XSTACK_I_TWO
          CFI CFA_XSP16 add(XSP16, 96)
        MOV       A,#0xf
        LCALL     ?XSTACK_DISP102_8
        MOV       A,#0x6
        LCALL     ?XSTACK_DISP101_8
        LCALL     `??gp_getProxyTableByGpId::?relay`; Banked call to: gp_getProxyTableByGpId
        MOV       A,#0x2
        LCALL     ?DEALLOC_XSTACK8
          CFI CFA_XSP16 add(XSP16, 94)
        MOV       A,R1
        MOV       R0,A
// 1388   
// 1389   //Not found
// 1390   if(status == ZInvalidParameter)
        MOV       A,R6
        ADD       A,#0x1e
        MOV       ?V4,A
        CLR       A
        ADDC      A,R7
        MOV       ?V5,A
        MOV       A,#0x2
        XRL       A,R0
        JNZ       ??gp_SecurityOperationProxy_5
// 1391   {
// 1392     //Section A.3.5.2.1 if in commissioning mode and GPDF from proxy that do not 
// 1393     //have entry, then drop frame
// 1394     if(zgGP_InCommissioningMode == FALSE)
        MOV       DPTR,#zgGP_InCommissioningMode
        MOVX      A,@DPTR
        JNZ       $+5
        LJMP      ??gp_SecurityOperationProxy_6 & 0xFFFF
// 1395     {
// 1396       return GP_SEC_RSP_DROP_FRAME;
// 1397     }
// 1398     if(pInd->GPDFKeyType == 0)
        MOV       DPL,?V4
        MOV       DPH,?V5
        MOVX      A,@DPTR
        JNZ       ??gp_SecurityOperationProxy_7
// 1399     {
// 1400       //If there is no shared key, then pass unprocess
// 1401       if(osal_memcmp(pKey,zgpSharedKey,SEC_KEY_LEN))
        MOV       ?V0,#zgpSharedKey & 0xff
        MOV       ?V1,#(zgpSharedKey >> 8) & 0xff
        MOV       ?V2,#-0x80
        ; Setup parameters for call to function osal_memcmp
        MOV       R0,#?V0
        LCALL     ?PUSH_XSTACK_I_THREE
          CFI CFA_XSP16 add(XSP16, 97)
        MOV       R4,#0x10
        MOV       R5,#0x0
        MOV       A,#0x61
        LCALL     ?XSTACK_DISP0_8
        LCALL     ?Subroutine24 & 0xFFFF
??CrossCallReturnLabel_36:
        LCALL     `??osal_memcmp::?relay`; Banked call to: osal_memcmp
        MOV       A,#0x3
        LCALL     ?DEALLOC_XSTACK8
          CFI CFA_XSP16 add(XSP16, 94)
        MOV       A,R1
        JNZ       ??gp_SecurityOperationProxy_7
// 1402       {
// 1403         return GP_SEC_RSP_PASS_UNPROCESSED;
// 1404       }
// 1405       osal_memcpy(pKey,zgpSharedKey,SEC_KEY_LEN);
        ; Setup parameters for call to function osal_memcpy
        MOV       R0,#?V0
        LCALL     ?PUSH_XSTACK_I_THREE
          CFI CFA_XSP16 add(XSP16, 97)
        MOV       R4,#0x10
        MOV       R5,#0x0
        MOV       A,#0x61
        LCALL     ?XSTACK_DISP0_8
        LCALL     ??Subroutine68_0 & 0xFFFF
// 1406     }
// 1407     else
// 1408     {
// 1409       return GP_SEC_RSP_PASS_UNPROCESSED;
// 1410     }
// 1411   }
??CrossCallReturnLabel_167:
        LCALL     `??osal_memcpy::?relay`; Banked call to: osal_memcpy
        MOV       A,#0x3
        LCALL     ?DEALLOC_XSTACK8
          CFI CFA_XSP16 add(XSP16, 94)
        LJMP      ??gp_SecurityOperationProxy_6 & 0xFFFF
// 1412   
// 1413   //error
// 1414   else if(status == ZFailure)
??gp_SecurityOperationProxy_5:
        MOV       A,#0x1
        XRL       A,R0
        JNZ       $+5
        LJMP      ??gp_SecurityOperationProxy_6 & 0xFFFF
// 1415   {
// 1416     //Not found, or error, drop the frame
// 1417     return GP_SEC_RSP_DROP_FRAME;
// 1418   }
// 1419   
// 1420   //Found
// 1421   else
// 1422   {
// 1423     
// 1424 //Active/Inactive entries in the proxy table are not supported    
// 1425 #if 1
// 1426       //If security level is zero then don't check and pass unproessed
// 1427       if( (pInd->GPDFSecLvl == PROXY_TBL_GET_SEC_OPT_SECURITY_LVL(currEntry[PROXY_TBL_ENTRY_SEC_OPT]) ) &&
// 1428           ( GP_SECURITY_LVL_NO_SEC == PROXY_TBL_GET_SEC_OPT_SECURITY_LVL(currEntry[PROXY_TBL_ENTRY_SEC_OPT]) ))
        MOV       A,#0x1a
        LCALL     ?XSTACK_DISP0_8
        MOVX      A,@DPTR
        ANL       A,#0x3
        MOV       R0,A
        MOV       A,R6
        ADD       A,#0x1d
        LCALL     ?Subroutine40 & 0xFFFF
??CrossCallReturnLabel_61:
        XRL       A,R0
        JNZ       ??gp_SecurityOperationProxy_8
        MOV       A,R0
        JNZ       ??gp_SecurityOperationProxy_8
// 1429       {
// 1430         pInd->GPDSecFrameCounter = (uint32)pInd->SeqNumber;
        MOV       A,R6
        ADD       A,#0x10
        LCALL     ??Subroutine66_0 & 0xFFFF
// 1431         return GP_SEC_RSP_PASS_UNPROCESSED;
// 1432       }
??CrossCallReturnLabel_151:
        MOV       R2,A
        LCALL     ?Subroutine45 & 0xFFFF
??CrossCallReturnLabel_71:
        MOV       A,R2
        MOVX      @DPTR,A
        INC       DPTR
        CLR       A
        MOVX      @DPTR,A
        INC       DPTR
        MOVX      @DPTR,A
        INC       DPTR
        MOVX      @DPTR,A
// 1433       //Check security Section A.3.7.3.3
// 1434       //Check framecounter freshness
// 1435       SecFrameCounter = osal_build_uint32(&currEntry[PROXY_TBL_ENTRY_SEC_FRAME],sizeof(uint32));
// 1436       if(SecFrameCounter >= pInd->GPDSecFrameCounter)
// 1437       {
// 1438         securityCheckFail = TRUE;
// 1439       }
// 1440       //Compare the security level
// 1441       else if(pInd->GPDFSecLvl != PROXY_TBL_GET_SEC_OPT_SECURITY_LVL(currEntry[PROXY_TBL_ENTRY_SEC_OPT]))
// 1442       {
// 1443         securityCheckFail = TRUE;
// 1444       }
// 1445       //Mapping of security key type (section A.1.4.1.3 Table 12)
// 1446       else if((PROXY_TBL_GET_SEC_OPT_SECURITY_KEY_TYP(currEntry[PROXY_TBL_ENTRY_SEC_OPT]) <= 0x03)
// 1447               && (pInd->GPDFKeyType == 1))
// 1448       {
// 1449         securityCheckFail = TRUE;
// 1450       }
// 1451       else if(  ((PROXY_TBL_GET_SEC_OPT_SECURITY_KEY_TYP(currEntry[PROXY_TBL_ENTRY_SEC_OPT]) == 0x07) ||
// 1452                  (PROXY_TBL_GET_SEC_OPT_SECURITY_KEY_TYP(currEntry[PROXY_TBL_ENTRY_SEC_OPT]) == 0x04)) 
// 1453                && (pInd->GPDFKeyType == 0) )
// 1454       {
// 1455         securityCheckFail = TRUE;
// 1456         
// 1457       }
// 1458       else if( (PROXY_TBL_GET_SEC_OPT_SECURITY_KEY_TYP(currEntry[PROXY_TBL_ENTRY_SEC_OPT]) == 0x05) ||
// 1459                (PROXY_TBL_GET_SEC_OPT_SECURITY_KEY_TYP(currEntry[PROXY_TBL_ENTRY_SEC_OPT]) == 0x06) )
// 1460       {
// 1461         //keytype reserved
// 1462         securityCheckFail = TRUE;
// 1463       }
// 1464       
// 1465       if(securityCheckFail == TRUE)
// 1466       {
// 1467         if(zgGP_InCommissioningMode == FALSE)
// 1468         {
// 1469           return GP_SEC_RSP_DROP_FRAME;
// 1470         }
// 1471         else
// 1472         {
// 1473           return GP_SEC_RSP_PASS_UNPROCESSED;
??gp_SecurityOperationProxy_7:
        MOV       R1,#0x2
        LJMP      ??gp_SecurityOperationProxy_2 & 0xFFFF
// 1474         }
??gp_SecurityOperationProxy_8:
        ; Setup parameters for call to function osal_build_uint32
        MOV       R1,#0x4
        MOV       A,#0x1b
        LCALL     ?XSTACK_DISP0_8
        MOV       R2,DPL
        MOV       R3,DPH
        LCALL     `??osal_build_uint32::?relay`; Banked call to: osal_build_uint32
        MOV       ?V0,R2
        MOV       ?V1,R3
        MOV       ?V2,R4
        MOV       ?V3,R5
        LCALL     ?Subroutine45 & 0xFFFF
??CrossCallReturnLabel_72:
        MOV       R0,#?V0
        LCALL     ?UL_GE_X
        JNC       $+5
        LJMP      ??gp_SecurityOperationProxy_9 & 0xFFFF
        MOV       A,#0x1a
        LCALL     ?XSTACK_DISP0_8
        MOVX      A,@DPTR
        MOV       R0,A
        MOV       DPL,?V6
        MOV       DPH,?V7
        MOVX      A,@DPTR
        MOV       R1,A
        MOV       A,#0x3
        ANL       A,R0
        XRL       A,R1
        JNZ       ??gp_SecurityOperationProxy_9
        MOV       A,R0
        RRC       A
        RRC       A
        ANL       A,#0x3f
        ANL       A,#0x7
        MOV       R0,A
        CLR       C
        SUBB      A,#0x4
        JNC       ??gp_SecurityOperationProxy_10
        MOV       DPL,?V4
        MOV       DPH,?V5
        MOVX      A,@DPTR
        XRL       A,#0x1
        JZ        ??gp_SecurityOperationProxy_9
// 1475       }
// 1476       else
// 1477       {
// 1478         //Securty check success
// 1479         osal_memcpy(pKey,&currEntry[PROXY_TBL_ENTRY_GPD_KEY],SEC_KEY_LEN);
??gp_SecurityOperationProxy_11:
        ; Setup parameters for call to function osal_memcpy
        MOV       A,#0x1f
        LCALL     ?XSTACK_DISP0_8
        MOV       R1,DPL
        MOV       R2,DPH
        MOV       ?V0,R1
        MOV       ?V1,R2
        MOV       ?V2,#0x0
        MOV       R0,#?V0
        LCALL     ?PUSH_XSTACK_I_THREE
          CFI CFA_XSP16 add(XSP16, 97)
        MOV       R4,#0x10
        MOV       R5,#0x0
        MOV       A,#0x61
        LCALL     ?XSTACK_DISP0_8
        LCALL     ??Subroutine68_0 & 0xFFFF
??CrossCallReturnLabel_168:
        LCALL     `??osal_memcpy::?relay`; Banked call to: osal_memcpy
        MOV       A,#0x3
        LCALL     ?DEALLOC_XSTACK8
          CFI CFA_XSP16 add(XSP16, 94)
// 1480         *pKeyType = PROXY_TBL_GET_SEC_OPT_SECURITY_KEY_TYP(currEntry[PROXY_TBL_ENTRY_SEC_OPT]);
        MOV       A,#0x1a
        LCALL     ?XSTACK_DISP0_8
        MOVX      A,@DPTR
        RRC       A
        RRC       A
        ANL       A,#0x3f
        ANL       A,#0x7
        PUSH      A
          CFI CFA_SP SP+-1
        LCALL     ?Subroutine25 & 0xFFFF
??CrossCallReturnLabel_137:
        POP       A
          CFI CFA_SP SP+0
        MOVX      @DPTR,A
// 1481       
// 1482         //compare the endpoint
// 1483         if(endpointCheckFail)
// 1484         {
// 1485           return GP_SEC_RSP_TX_THEN_DROP;
// 1486         }
// 1487         else
// 1488         {
// 1489           return GP_SEC_RSP_MATCH;
        MOV       R1,#0x1
??gp_SecurityOperationProxy_2:
        MOV       A,#0x4e
// 1490         }
// 1491       }
        LJMP      ?Subroutine1 & 0xFFFF
??gp_SecurityOperationProxy_10:
        MOV       A,#0x7
        XRL       A,R0
        JZ        ??gp_SecurityOperationProxy_12
        MOV       A,#0x4
        XRL       A,R0
        JNZ       ??gp_SecurityOperationProxy_13
??gp_SecurityOperationProxy_12:
        MOV       DPL,?V4
        MOV       DPH,?V5
        MOVX      A,@DPTR
        JZ        ??gp_SecurityOperationProxy_9
??gp_SecurityOperationProxy_13:
        MOV       A,#0x5
        XRL       A,R0
        JZ        ??gp_SecurityOperationProxy_9
        MOV       A,#0x6
        XRL       A,R0
        JNZ       ??gp_SecurityOperationProxy_11
??gp_SecurityOperationProxy_9:
        MOV       DPTR,#zgGP_InCommissioningMode
        MOVX      A,@DPTR
        JZ        $+5
        LJMP      ??gp_SecurityOperationProxy_7 & 0xFFFF
??gp_SecurityOperationProxy_6:
        MOV       R1,#0x0
        SJMP      ??gp_SecurityOperationProxy_2
// 1492       
// 1493 //Active/Inactive entries in the proxy table are not supported
// 1494 #else
// 1495     //Is active
// 1496     if(PROXY_TBL_GET_ENTRY_ACTIVE(currEntry[PROXY_TBL_ENTRY_OPT]))
// 1497     {
// 1498       //Check security Section A.3.7.3.3
// 1499       //Check framecounter freshness
// 1500       SecFrameCounter = osal_build_uint32(&currEntry[PROXY_TBL_ENTRY_SEC_FRAME],sizeof(uint32));
// 1501       if(SecFrameCounter >= pInd->GPDSecFrameCounter)
// 1502       {
// 1503         securityCheckFail = TRUE;
// 1504       }
// 1505       //Compare the security level
// 1506       else if(pInd->GPDFSecLvl != PROXY_TBL_GET_SEC_OPT_SECURITY_LVL(currEntry[PROXY_TBL_ENTRY_SEC_OPT]))
// 1507       {
// 1508         securityCheckFail = TRUE;
// 1509       }
// 1510       //Mapping of security key type (section A.1.4.1.3 Table 12)
// 1511       else if((PROXY_TBL_GET_SEC_OPT_SECURITY_KEY_TYP(currEntry[PROXY_TBL_ENTRY_SEC_OPT]) <= 0x03)
// 1512               && (pInd->GPDFKeyType == 1))
// 1513       {
// 1514         securityCheckFail = TRUE;
// 1515       }
// 1516       else if(  ((PROXY_TBL_GET_SEC_OPT_SECURITY_KEY_TYP(currEntry[PROXY_TBL_ENTRY_SEC_OPT]) == 0x07) ||
// 1517                  (PROXY_TBL_GET_SEC_OPT_SECURITY_KEY_TYP(currEntry[PROXY_TBL_ENTRY_SEC_OPT]) == 0x04)) 
// 1518                && (pInd->GPDFKeyType == 0) )
// 1519       {
// 1520         securityCheckFail = TRUE;
// 1521         
// 1522       }
// 1523       else if( (PROXY_TBL_GET_SEC_OPT_SECURITY_KEY_TYP(currEntry[PROXY_TBL_ENTRY_SEC_OPT]) == 0x05) ||
// 1524                (PROXY_TBL_GET_SEC_OPT_SECURITY_KEY_TYP(currEntry[PROXY_TBL_ENTRY_SEC_OPT]) == 0x06) )
// 1525       {
// 1526         //keytype reserved
// 1527         securityCheckFail = TRUE;
// 1528       }
// 1529       
// 1530       if(securityCheckFail == TRUE)
// 1531       {
// 1532         if(zgGP_InCommissioningMode == FALSE)
// 1533         {
// 1534           return GP_SEC_RSP_DROP_FRAME;
// 1535         }
// 1536         else
// 1537         {
// 1538           return GP_SEC_RSP_PASS_UNPROCESSED;
// 1539         }
// 1540       }
// 1541       else
// 1542       {
// 1543         //Securty check success
// 1544         osal_memcpy(pKey,&currEntry[PROXY_TBL_ENTRY_GPD_KEY],SEC_KEY_LEN);
// 1545         *pKeyType = GP_GET_SEC_KEY_TYPE(currEntry[PROXY_TBL_ENTRY_SEC_OPT]);
// 1546       
// 1547         //compare the endpoint
// 1548         if(endpointCheckFail)
// 1549         {
// 1550           return GP_SEC_RSP_TX_THEN_DROP;
// 1551         }
// 1552         else
// 1553         {
// 1554           return GP_SEC_RSP_MATCH;
// 1555         }
// 1556       }
// 1557     }
// 1558 
// 1559     //Inactive
// 1560     else
// 1561     {
// 1562       //Found, inactive and in operational mode
// 1563       if(zgGP_InCommissioningMode == FALSE)
// 1564       {
// 1565         //Check framecounter freshness
// 1566         SecFrameCounter = osal_build_uint32(&currEntry[PROXY_TBL_ENTRY_SEC_FRAME],sizeof(uint32));
// 1567         if(SecFrameCounter < pInd->GPDSecFrameCounter)
// 1568         {
// 1569           //Update framecounter
// 1570            osal_memcpy(&currEntry[PROXY_TBL_ENTRY_SEC_FRAME],(uint8*)&pInd->GPDSecFrameCounter,sizeof(uint32));
// 1571 
// 1572            status = osal_nv_write( NvProxyTableIndex, 0,
// 1573                                PROXY_TBL_ENTRY_LEN, currEntry );
// 1574            
// 1575            if ( status != SUCCESS )
// 1576            {
// 1577              // FAIL
// 1578              return GP_SEC_RSP_ERROR;
// 1579            }
// 1580         }
// 1581         return GP_SEC_RSP_DROP_FRAME;
// 1582       }
// 1583       //Found,inactive, and in commissioning mode
// 1584       else
// 1585       {
// 1586         //If key type = 0, its the same as not found
// 1587         if(pInd->GPDFKeyType == 0)
// 1588         {
// 1589           Found = FALSE;
// 1590         }
// 1591         else
// 1592         {
// 1593           return GP_SEC_RSP_PASS_UNPROCESSED;
// 1594         }
// 1595       }
// 1596     }
// 1597 #endif
// 1598     
// 1599   }
// 1600 
// 1601 
// 1602   //Should not reach this point
// 1603   return GP_SEC_RSP_DROP_FRAME;
// 1604 }
          CFI EndBlock cfiBlock197

        RSEG BANKED_CODE:HUGECODE:NOROOT(0)
?Subroutine45:
          CFI Block cfiCond198 Using cfiCommon0
          CFI Function zclGp_ManteinanceIndParse
          CFI Conditional ??CrossCallReturnLabel_70
          CFI R6 load(1, XDATA, add(CFA_XSP16, literal(-16)))
          CFI VB load(1, XDATA, add(CFA_XSP16, literal(-15)))
          CFI V0 load(1, XDATA, add(CFA_XSP16, literal(-14)))
          CFI V1 load(1, XDATA, add(CFA_XSP16, literal(-13)))
          CFI V2 load(1, XDATA, add(CFA_XSP16, literal(-12)))
          CFI V3 load(1, XDATA, add(CFA_XSP16, literal(-11)))
          CFI V4 load(1, XDATA, add(CFA_XSP16, literal(-10)))
          CFI V5 load(1, XDATA, add(CFA_XSP16, literal(-9)))
          CFI V6 load(1, XDATA, add(CFA_XSP16, literal(-8)))
          CFI V7 load(1, XDATA, add(CFA_XSP16, literal(-7)))
          CFI R7 load(1, XDATA, add(CFA_XSP16, literal(-6)))
          CFI ?RET_LOW load(1, XDATA, add(CFA_XSP16, literal(-5)))
          CFI ?RET_HIGH load(1, XDATA, add(CFA_XSP16, literal(-4)))
          CFI ?BRET_EXT load(1, XDATA, add(CFA_XSP16, literal(-3)))
          CFI DPL0 load(1, XDATA, add(CFA_XSP16, literal(-2)))
          CFI DPH0 load(1, XDATA, add(CFA_XSP16, literal(-1)))
          CFI CFA_SP SP+-2
          CFI CFA_XSP16 add(XSP16, 18)
          CFI Block cfiCond199 Using cfiCommon0
          CFI (cfiCond199) Function gp_SecurityOperationProxy
          CFI (cfiCond199) Conditional ??CrossCallReturnLabel_71
          CFI (cfiCond199) R6 load(1, XDATA, add(CFA_XSP16, literal(-16)))
          CFI (cfiCond199) VB load(1, XDATA, add(CFA_XSP16, literal(-15)))
          CFI (cfiCond199) V0 load(1, XDATA, add(CFA_XSP16, literal(-14)))
          CFI (cfiCond199) V1 load(1, XDATA, add(CFA_XSP16, literal(-13)))
          CFI (cfiCond199) V2 load(1, XDATA, add(CFA_XSP16, literal(-12)))
          CFI (cfiCond199) V3 load(1, XDATA, add(CFA_XSP16, literal(-11)))
          CFI (cfiCond199) V4 load(1, XDATA, add(CFA_XSP16, literal(-10)))
          CFI (cfiCond199) V5 load(1, XDATA, add(CFA_XSP16, literal(-9)))
          CFI (cfiCond199) V6 load(1, XDATA, add(CFA_XSP16, literal(-8)))
          CFI (cfiCond199) V7 load(1, XDATA, add(CFA_XSP16, literal(-7)))
          CFI (cfiCond199) R7 load(1, XDATA, add(CFA_XSP16, literal(-6)))
          CFI (cfiCond199) ?RET_LOW load(1, XDATA, add(CFA_XSP16, literal(-5)))
          CFI (cfiCond199) ?RET_HIGH load(1, XDATA, add(CFA_XSP16, literal(-4)))
          CFI (cfiCond199) ?BRET_EXT load(1, XDATA, add(CFA_XSP16, literal(-3)))
          CFI (cfiCond199) DPL0 load(1, XDATA, add(CFA_XSP16, literal(-2)))
          CFI (cfiCond199) DPH0 load(1, XDATA, add(CFA_XSP16, literal(-1)))
          CFI (cfiCond199) CFA_SP SP+-2
          CFI (cfiCond199) CFA_XSP16 add(XSP16, 94)
          CFI Block cfiCond200 Using cfiCommon0
          CFI (cfiCond200) Function gp_SecurityOperationProxy
          CFI (cfiCond200) Conditional ??CrossCallReturnLabel_72
          CFI (cfiCond200) R6 load(1, XDATA, add(CFA_XSP16, literal(-16)))
          CFI (cfiCond200) VB load(1, XDATA, add(CFA_XSP16, literal(-15)))
          CFI (cfiCond200) V0 load(1, XDATA, add(CFA_XSP16, literal(-14)))
          CFI (cfiCond200) V1 load(1, XDATA, add(CFA_XSP16, literal(-13)))
          CFI (cfiCond200) V2 load(1, XDATA, add(CFA_XSP16, literal(-12)))
          CFI (cfiCond200) V3 load(1, XDATA, add(CFA_XSP16, literal(-11)))
          CFI (cfiCond200) V4 load(1, XDATA, add(CFA_XSP16, literal(-10)))
          CFI (cfiCond200) V5 load(1, XDATA, add(CFA_XSP16, literal(-9)))
          CFI (cfiCond200) V6 load(1, XDATA, add(CFA_XSP16, literal(-8)))
          CFI (cfiCond200) V7 load(1, XDATA, add(CFA_XSP16, literal(-7)))
          CFI (cfiCond200) R7 load(1, XDATA, add(CFA_XSP16, literal(-6)))
          CFI (cfiCond200) ?RET_LOW load(1, XDATA, add(CFA_XSP16, literal(-5)))
          CFI (cfiCond200) ?RET_HIGH load(1, XDATA, add(CFA_XSP16, literal(-4)))
          CFI (cfiCond200) ?BRET_EXT load(1, XDATA, add(CFA_XSP16, literal(-3)))
          CFI (cfiCond200) DPL0 load(1, XDATA, add(CFA_XSP16, literal(-2)))
          CFI (cfiCond200) DPH0 load(1, XDATA, add(CFA_XSP16, literal(-1)))
          CFI (cfiCond200) CFA_SP SP+-2
          CFI (cfiCond200) CFA_XSP16 add(XSP16, 94)
          CFI Block cfiPicker201 Using cfiCommon1
          CFI (cfiPicker201) NoFunction
          CFI (cfiPicker201) Picker
        MOV       A,R6
        ADD       A,#0x26
        MOV       DPL,A
        CLR       A
        ADDC      A,R7
        MOV       DPH,A
        RET
          CFI EndBlock cfiCond198
          CFI EndBlock cfiCond199
          CFI EndBlock cfiCond200
          CFI EndBlock cfiPicker201

        RSEG BANKED_CODE:HUGECODE:NOROOT(0)
?Subroutine40:
          CFI Block cfiCond202 Using cfiCommon0
          CFI Function zclGp_ManteinanceIndParse
          CFI Conditional ??CrossCallReturnLabel_60
          CFI R6 load(1, XDATA, add(CFA_XSP16, literal(-16)))
          CFI VB load(1, XDATA, add(CFA_XSP16, literal(-15)))
          CFI V0 load(1, XDATA, add(CFA_XSP16, literal(-14)))
          CFI V1 load(1, XDATA, add(CFA_XSP16, literal(-13)))
          CFI V2 load(1, XDATA, add(CFA_XSP16, literal(-12)))
          CFI V3 load(1, XDATA, add(CFA_XSP16, literal(-11)))
          CFI V4 load(1, XDATA, add(CFA_XSP16, literal(-10)))
          CFI V5 load(1, XDATA, add(CFA_XSP16, literal(-9)))
          CFI V6 load(1, XDATA, add(CFA_XSP16, literal(-8)))
          CFI V7 load(1, XDATA, add(CFA_XSP16, literal(-7)))
          CFI R7 load(1, XDATA, add(CFA_XSP16, literal(-6)))
          CFI ?RET_LOW load(1, XDATA, add(CFA_XSP16, literal(-5)))
          CFI ?RET_HIGH load(1, XDATA, add(CFA_XSP16, literal(-4)))
          CFI ?BRET_EXT load(1, XDATA, add(CFA_XSP16, literal(-3)))
          CFI DPL0 load(1, XDATA, add(CFA_XSP16, literal(-2)))
          CFI DPH0 load(1, XDATA, add(CFA_XSP16, literal(-1)))
          CFI CFA_SP SP+-2
          CFI CFA_XSP16 add(XSP16, 18)
          CFI Block cfiCond203 Using cfiCommon0
          CFI (cfiCond203) Function gp_SecurityOperationProxy
          CFI (cfiCond203) Conditional ??CrossCallReturnLabel_61
          CFI (cfiCond203) R6 load(1, XDATA, add(CFA_XSP16, literal(-16)))
          CFI (cfiCond203) VB load(1, XDATA, add(CFA_XSP16, literal(-15)))
          CFI (cfiCond203) V0 load(1, XDATA, add(CFA_XSP16, literal(-14)))
          CFI (cfiCond203) V1 load(1, XDATA, add(CFA_XSP16, literal(-13)))
          CFI (cfiCond203) V2 load(1, XDATA, add(CFA_XSP16, literal(-12)))
          CFI (cfiCond203) V3 load(1, XDATA, add(CFA_XSP16, literal(-11)))
          CFI (cfiCond203) V4 load(1, XDATA, add(CFA_XSP16, literal(-10)))
          CFI (cfiCond203) V5 load(1, XDATA, add(CFA_XSP16, literal(-9)))
          CFI (cfiCond203) V6 load(1, XDATA, add(CFA_XSP16, literal(-8)))
          CFI (cfiCond203) V7 load(1, XDATA, add(CFA_XSP16, literal(-7)))
          CFI (cfiCond203) R7 load(1, XDATA, add(CFA_XSP16, literal(-6)))
          CFI (cfiCond203) ?RET_LOW load(1, XDATA, add(CFA_XSP16, literal(-5)))
          CFI (cfiCond203) ?RET_HIGH load(1, XDATA, add(CFA_XSP16, literal(-4)))
          CFI (cfiCond203) ?BRET_EXT load(1, XDATA, add(CFA_XSP16, literal(-3)))
          CFI (cfiCond203) DPL0 load(1, XDATA, add(CFA_XSP16, literal(-2)))
          CFI (cfiCond203) DPH0 load(1, XDATA, add(CFA_XSP16, literal(-1)))
          CFI (cfiCond203) CFA_SP SP+-2
          CFI (cfiCond203) CFA_XSP16 add(XSP16, 94)
          CFI Block cfiPicker204 Using cfiCommon1
          CFI (cfiPicker204) NoFunction
          CFI (cfiPicker204) Picker
        MOV       ?V6,A
        CLR       A
        ADDC      A,R7
        MOV       ?V7,A
        MOV       DPL,?V6
        MOV       DPH,A
        MOVX      A,@DPTR
        RET
          CFI EndBlock cfiCond202
          CFI EndBlock cfiCond203
          CFI EndBlock cfiPicker204

        RSEG BANKED_CODE:HUGECODE:NOROOT(0)
?Subroutine39:
          CFI Block cfiCond205 Using cfiCommon0
          CFI Function zclGp_ManteinanceIndParse
          CFI Conditional ??CrossCallReturnLabel_153
          CFI R6 load(1, XDATA, add(CFA_XSP16, literal(-16)))
          CFI VB load(1, XDATA, add(CFA_XSP16, literal(-15)))
          CFI V0 load(1, XDATA, add(CFA_XSP16, literal(-14)))
          CFI V1 load(1, XDATA, add(CFA_XSP16, literal(-13)))
          CFI V2 load(1, XDATA, add(CFA_XSP16, literal(-12)))
          CFI V3 load(1, XDATA, add(CFA_XSP16, literal(-11)))
          CFI V4 load(1, XDATA, add(CFA_XSP16, literal(-10)))
          CFI V5 load(1, XDATA, add(CFA_XSP16, literal(-9)))
          CFI V6 load(1, XDATA, add(CFA_XSP16, literal(-8)))
          CFI V7 load(1, XDATA, add(CFA_XSP16, literal(-7)))
          CFI R7 load(1, XDATA, add(CFA_XSP16, literal(-6)))
          CFI ?RET_LOW load(1, XDATA, add(CFA_XSP16, literal(-5)))
          CFI ?RET_HIGH load(1, XDATA, add(CFA_XSP16, literal(-4)))
          CFI ?BRET_EXT load(1, XDATA, add(CFA_XSP16, literal(-3)))
          CFI DPL0 load(1, XDATA, add(CFA_XSP16, literal(-2)))
          CFI DPH0 load(1, XDATA, add(CFA_XSP16, literal(-1)))
          CFI CFA_SP SP+-2
          CFI CFA_XSP16 add(XSP16, 18)
          CFI Block cfiCond206 Using cfiCommon0
          CFI (cfiCond206) Function gp_SecurityOperationProxy
          CFI (cfiCond206) Conditional ??CrossCallReturnLabel_154
          CFI (cfiCond206) R6 load(1, XDATA, add(CFA_XSP16, literal(-16)))
          CFI (cfiCond206) VB load(1, XDATA, add(CFA_XSP16, literal(-15)))
          CFI (cfiCond206) V0 load(1, XDATA, add(CFA_XSP16, literal(-14)))
          CFI (cfiCond206) V1 load(1, XDATA, add(CFA_XSP16, literal(-13)))
          CFI (cfiCond206) V2 load(1, XDATA, add(CFA_XSP16, literal(-12)))
          CFI (cfiCond206) V3 load(1, XDATA, add(CFA_XSP16, literal(-11)))
          CFI (cfiCond206) V4 load(1, XDATA, add(CFA_XSP16, literal(-10)))
          CFI (cfiCond206) V5 load(1, XDATA, add(CFA_XSP16, literal(-9)))
          CFI (cfiCond206) V6 load(1, XDATA, add(CFA_XSP16, literal(-8)))
          CFI (cfiCond206) V7 load(1, XDATA, add(CFA_XSP16, literal(-7)))
          CFI (cfiCond206) R7 load(1, XDATA, add(CFA_XSP16, literal(-6)))
          CFI (cfiCond206) ?RET_LOW load(1, XDATA, add(CFA_XSP16, literal(-5)))
          CFI (cfiCond206) ?RET_HIGH load(1, XDATA, add(CFA_XSP16, literal(-4)))
          CFI (cfiCond206) ?BRET_EXT load(1, XDATA, add(CFA_XSP16, literal(-3)))
          CFI (cfiCond206) DPL0 load(1, XDATA, add(CFA_XSP16, literal(-2)))
          CFI (cfiCond206) DPH0 load(1, XDATA, add(CFA_XSP16, literal(-1)))
          CFI (cfiCond206) CFA_SP SP+-2
          CFI (cfiCond206) CFA_XSP16 add(XSP16, 94)
          CFI Block cfiPicker207 Using cfiCommon1
          CFI (cfiPicker207) NoFunction
          CFI (cfiPicker207) Picker
        MOV       A,R6
        ADD       A,#0x1c
          CFI EndBlock cfiCond205
          CFI EndBlock cfiCond206
          CFI EndBlock cfiPicker207
        REQUIRE ??Subroutine66_0
        ; // Fall through to label ??Subroutine66_0

        RSEG BANKED_CODE:HUGECODE:NOROOT(0)
??Subroutine66_0:
          CFI Block cfiCond208 Using cfiCommon0
          CFI Function zclGp_ManteinanceIndParse
          CFI Conditional ??CrossCallReturnLabel_146
          CFI R6 load(1, XDATA, add(CFA_XSP16, literal(-16)))
          CFI VB load(1, XDATA, add(CFA_XSP16, literal(-15)))
          CFI V0 load(1, XDATA, add(CFA_XSP16, literal(-14)))
          CFI V1 load(1, XDATA, add(CFA_XSP16, literal(-13)))
          CFI V2 load(1, XDATA, add(CFA_XSP16, literal(-12)))
          CFI V3 load(1, XDATA, add(CFA_XSP16, literal(-11)))
          CFI V4 load(1, XDATA, add(CFA_XSP16, literal(-10)))
          CFI V5 load(1, XDATA, add(CFA_XSP16, literal(-9)))
          CFI V6 load(1, XDATA, add(CFA_XSP16, literal(-8)))
          CFI V7 load(1, XDATA, add(CFA_XSP16, literal(-7)))
          CFI R7 load(1, XDATA, add(CFA_XSP16, literal(-6)))
          CFI ?RET_LOW load(1, XDATA, add(CFA_XSP16, literal(-5)))
          CFI ?RET_HIGH load(1, XDATA, add(CFA_XSP16, literal(-4)))
          CFI ?BRET_EXT load(1, XDATA, add(CFA_XSP16, literal(-3)))
          CFI DPL0 load(1, XDATA, add(CFA_XSP16, literal(-2)))
          CFI DPH0 load(1, XDATA, add(CFA_XSP16, literal(-1)))
          CFI CFA_SP SP+-2
          CFI CFA_XSP16 add(XSP16, 18)
          CFI Block cfiCond209 Using cfiCommon0
          CFI (cfiCond209) Function zclGp_ManteinanceIndParse
          CFI (cfiCond209) Conditional ??CrossCallReturnLabel_147
          CFI (cfiCond209) R6 load(1, XDATA, add(CFA_XSP16, literal(-16)))
          CFI (cfiCond209) VB load(1, XDATA, add(CFA_XSP16, literal(-15)))
          CFI (cfiCond209) V0 load(1, XDATA, add(CFA_XSP16, literal(-14)))
          CFI (cfiCond209) V1 load(1, XDATA, add(CFA_XSP16, literal(-13)))
          CFI (cfiCond209) V2 load(1, XDATA, add(CFA_XSP16, literal(-12)))
          CFI (cfiCond209) V3 load(1, XDATA, add(CFA_XSP16, literal(-11)))
          CFI (cfiCond209) V4 load(1, XDATA, add(CFA_XSP16, literal(-10)))
          CFI (cfiCond209) V5 load(1, XDATA, add(CFA_XSP16, literal(-9)))
          CFI (cfiCond209) V6 load(1, XDATA, add(CFA_XSP16, literal(-8)))
          CFI (cfiCond209) V7 load(1, XDATA, add(CFA_XSP16, literal(-7)))
          CFI (cfiCond209) R7 load(1, XDATA, add(CFA_XSP16, literal(-6)))
          CFI (cfiCond209) ?RET_LOW load(1, XDATA, add(CFA_XSP16, literal(-5)))
          CFI (cfiCond209) ?RET_HIGH load(1, XDATA, add(CFA_XSP16, literal(-4)))
          CFI (cfiCond209) ?BRET_EXT load(1, XDATA, add(CFA_XSP16, literal(-3)))
          CFI (cfiCond209) DPL0 load(1, XDATA, add(CFA_XSP16, literal(-2)))
          CFI (cfiCond209) DPH0 load(1, XDATA, add(CFA_XSP16, literal(-1)))
          CFI (cfiCond209) CFA_SP SP+-2
          CFI (cfiCond209) CFA_XSP16 add(XSP16, 18)
          CFI Block cfiCond210 Using cfiCommon0
          CFI (cfiCond210) Function zclGp_ManteinanceIndParse
          CFI (cfiCond210) Conditional ??CrossCallReturnLabel_148
          CFI (cfiCond210) R6 load(1, XDATA, add(CFA_XSP16, literal(-16)))
          CFI (cfiCond210) VB load(1, XDATA, add(CFA_XSP16, literal(-15)))
          CFI (cfiCond210) V0 load(1, XDATA, add(CFA_XSP16, literal(-14)))
          CFI (cfiCond210) V1 load(1, XDATA, add(CFA_XSP16, literal(-13)))
          CFI (cfiCond210) V2 load(1, XDATA, add(CFA_XSP16, literal(-12)))
          CFI (cfiCond210) V3 load(1, XDATA, add(CFA_XSP16, literal(-11)))
          CFI (cfiCond210) V4 load(1, XDATA, add(CFA_XSP16, literal(-10)))
          CFI (cfiCond210) V5 load(1, XDATA, add(CFA_XSP16, literal(-9)))
          CFI (cfiCond210) V6 load(1, XDATA, add(CFA_XSP16, literal(-8)))
          CFI (cfiCond210) V7 load(1, XDATA, add(CFA_XSP16, literal(-7)))
          CFI (cfiCond210) R7 load(1, XDATA, add(CFA_XSP16, literal(-6)))
          CFI (cfiCond210) ?RET_LOW load(1, XDATA, add(CFA_XSP16, literal(-5)))
          CFI (cfiCond210) ?RET_HIGH load(1, XDATA, add(CFA_XSP16, literal(-4)))
          CFI (cfiCond210) ?BRET_EXT load(1, XDATA, add(CFA_XSP16, literal(-3)))
          CFI (cfiCond210) DPL0 load(1, XDATA, add(CFA_XSP16, literal(-2)))
          CFI (cfiCond210) DPH0 load(1, XDATA, add(CFA_XSP16, literal(-1)))
          CFI (cfiCond210) CFA_SP SP+-2
          CFI (cfiCond210) CFA_XSP16 add(XSP16, 18)
          CFI Block cfiCond211 Using cfiCommon0
          CFI (cfiCond211) Function zclGp_ManteinanceIndParse
          CFI (cfiCond211) Conditional ??CrossCallReturnLabel_149
          CFI (cfiCond211) R6 load(1, XDATA, add(CFA_XSP16, literal(-16)))
          CFI (cfiCond211) VB load(1, XDATA, add(CFA_XSP16, literal(-15)))
          CFI (cfiCond211) V0 load(1, XDATA, add(CFA_XSP16, literal(-14)))
          CFI (cfiCond211) V1 load(1, XDATA, add(CFA_XSP16, literal(-13)))
          CFI (cfiCond211) V2 load(1, XDATA, add(CFA_XSP16, literal(-12)))
          CFI (cfiCond211) V3 load(1, XDATA, add(CFA_XSP16, literal(-11)))
          CFI (cfiCond211) V4 load(1, XDATA, add(CFA_XSP16, literal(-10)))
          CFI (cfiCond211) V5 load(1, XDATA, add(CFA_XSP16, literal(-9)))
          CFI (cfiCond211) V6 load(1, XDATA, add(CFA_XSP16, literal(-8)))
          CFI (cfiCond211) V7 load(1, XDATA, add(CFA_XSP16, literal(-7)))
          CFI (cfiCond211) R7 load(1, XDATA, add(CFA_XSP16, literal(-6)))
          CFI (cfiCond211) ?RET_LOW load(1, XDATA, add(CFA_XSP16, literal(-5)))
          CFI (cfiCond211) ?RET_HIGH load(1, XDATA, add(CFA_XSP16, literal(-4)))
          CFI (cfiCond211) ?BRET_EXT load(1, XDATA, add(CFA_XSP16, literal(-3)))
          CFI (cfiCond211) DPL0 load(1, XDATA, add(CFA_XSP16, literal(-2)))
          CFI (cfiCond211) DPH0 load(1, XDATA, add(CFA_XSP16, literal(-1)))
          CFI (cfiCond211) CFA_SP SP+-2
          CFI (cfiCond211) CFA_XSP16 add(XSP16, 18)
          CFI Block cfiCond212 Using cfiCommon0
          CFI (cfiCond212) Function zclGp_ManteinanceIndParse
          CFI (cfiCond212) Conditional ??CrossCallReturnLabel_150
          CFI (cfiCond212) R6 load(1, XDATA, add(CFA_XSP16, literal(-16)))
          CFI (cfiCond212) VB load(1, XDATA, add(CFA_XSP16, literal(-15)))
          CFI (cfiCond212) V0 load(1, XDATA, add(CFA_XSP16, literal(-14)))
          CFI (cfiCond212) V1 load(1, XDATA, add(CFA_XSP16, literal(-13)))
          CFI (cfiCond212) V2 load(1, XDATA, add(CFA_XSP16, literal(-12)))
          CFI (cfiCond212) V3 load(1, XDATA, add(CFA_XSP16, literal(-11)))
          CFI (cfiCond212) V4 load(1, XDATA, add(CFA_XSP16, literal(-10)))
          CFI (cfiCond212) V5 load(1, XDATA, add(CFA_XSP16, literal(-9)))
          CFI (cfiCond212) V6 load(1, XDATA, add(CFA_XSP16, literal(-8)))
          CFI (cfiCond212) V7 load(1, XDATA, add(CFA_XSP16, literal(-7)))
          CFI (cfiCond212) R7 load(1, XDATA, add(CFA_XSP16, literal(-6)))
          CFI (cfiCond212) ?RET_LOW load(1, XDATA, add(CFA_XSP16, literal(-5)))
          CFI (cfiCond212) ?RET_HIGH load(1, XDATA, add(CFA_XSP16, literal(-4)))
          CFI (cfiCond212) ?BRET_EXT load(1, XDATA, add(CFA_XSP16, literal(-3)))
          CFI (cfiCond212) DPL0 load(1, XDATA, add(CFA_XSP16, literal(-2)))
          CFI (cfiCond212) DPH0 load(1, XDATA, add(CFA_XSP16, literal(-1)))
          CFI (cfiCond212) CFA_SP SP+-2
          CFI (cfiCond212) CFA_XSP16 add(XSP16, 18)
          CFI Block cfiCond213 Using cfiCommon0
          CFI (cfiCond213) Function gp_SecurityOperationProxy
          CFI (cfiCond213) Conditional ??CrossCallReturnLabel_151
          CFI (cfiCond213) R6 load(1, XDATA, add(CFA_XSP16, literal(-16)))
          CFI (cfiCond213) VB load(1, XDATA, add(CFA_XSP16, literal(-15)))
          CFI (cfiCond213) V0 load(1, XDATA, add(CFA_XSP16, literal(-14)))
          CFI (cfiCond213) V1 load(1, XDATA, add(CFA_XSP16, literal(-13)))
          CFI (cfiCond213) V2 load(1, XDATA, add(CFA_XSP16, literal(-12)))
          CFI (cfiCond213) V3 load(1, XDATA, add(CFA_XSP16, literal(-11)))
          CFI (cfiCond213) V4 load(1, XDATA, add(CFA_XSP16, literal(-10)))
          CFI (cfiCond213) V5 load(1, XDATA, add(CFA_XSP16, literal(-9)))
          CFI (cfiCond213) V6 load(1, XDATA, add(CFA_XSP16, literal(-8)))
          CFI (cfiCond213) V7 load(1, XDATA, add(CFA_XSP16, literal(-7)))
          CFI (cfiCond213) R7 load(1, XDATA, add(CFA_XSP16, literal(-6)))
          CFI (cfiCond213) ?RET_LOW load(1, XDATA, add(CFA_XSP16, literal(-5)))
          CFI (cfiCond213) ?RET_HIGH load(1, XDATA, add(CFA_XSP16, literal(-4)))
          CFI (cfiCond213) ?BRET_EXT load(1, XDATA, add(CFA_XSP16, literal(-3)))
          CFI (cfiCond213) DPL0 load(1, XDATA, add(CFA_XSP16, literal(-2)))
          CFI (cfiCond213) DPH0 load(1, XDATA, add(CFA_XSP16, literal(-1)))
          CFI (cfiCond213) CFA_SP SP+-2
          CFI (cfiCond213) CFA_XSP16 add(XSP16, 94)
          CFI Block cfiCond214 Using cfiCommon0
          CFI (cfiCond214) Function GP_DataInd
          CFI (cfiCond214) Conditional ??CrossCallReturnLabel_152
          CFI (cfiCond214) R6 load(1, XDATA, add(CFA_XSP16, literal(-14)))
          CFI (cfiCond214) VB load(1, XDATA, add(CFA_XSP16, literal(-13)))
          CFI (cfiCond214) V0 load(1, XDATA, add(CFA_XSP16, literal(-12)))
          CFI (cfiCond214) V1 load(1, XDATA, add(CFA_XSP16, literal(-11)))
          CFI (cfiCond214) V2 load(1, XDATA, add(CFA_XSP16, literal(-10)))
          CFI (cfiCond214) V3 load(1, XDATA, add(CFA_XSP16, literal(-9)))
          CFI (cfiCond214) V4 load(1, XDATA, add(CFA_XSP16, literal(-8)))
          CFI (cfiCond214) V5 load(1, XDATA, add(CFA_XSP16, literal(-7)))
          CFI (cfiCond214) R7 load(1, XDATA, add(CFA_XSP16, literal(-6)))
          CFI (cfiCond214) ?RET_LOW load(1, XDATA, add(CFA_XSP16, literal(-5)))
          CFI (cfiCond214) ?RET_HIGH load(1, XDATA, add(CFA_XSP16, literal(-4)))
          CFI (cfiCond214) ?BRET_EXT load(1, XDATA, add(CFA_XSP16, literal(-3)))
          CFI (cfiCond214) DPL0 load(1, XDATA, add(CFA_XSP16, literal(-2)))
          CFI (cfiCond214) DPH0 load(1, XDATA, add(CFA_XSP16, literal(-1)))
          CFI (cfiCond214) CFA_SP SP+-2
          CFI (cfiCond214) CFA_XSP16 add(XSP16, 146)
          CFI Block cfiCond215 Using cfiCommon0
          CFI (cfiCond215) Function zclGp_ManteinanceIndParse
          CFI (cfiCond215) Conditional ??CrossCallReturnLabel_153
          CFI (cfiCond215) R6 load(1, XDATA, add(CFA_XSP16, literal(-16)))
          CFI (cfiCond215) VB load(1, XDATA, add(CFA_XSP16, literal(-15)))
          CFI (cfiCond215) V0 load(1, XDATA, add(CFA_XSP16, literal(-14)))
          CFI (cfiCond215) V1 load(1, XDATA, add(CFA_XSP16, literal(-13)))
          CFI (cfiCond215) V2 load(1, XDATA, add(CFA_XSP16, literal(-12)))
          CFI (cfiCond215) V3 load(1, XDATA, add(CFA_XSP16, literal(-11)))
          CFI (cfiCond215) V4 load(1, XDATA, add(CFA_XSP16, literal(-10)))
          CFI (cfiCond215) V5 load(1, XDATA, add(CFA_XSP16, literal(-9)))
          CFI (cfiCond215) V6 load(1, XDATA, add(CFA_XSP16, literal(-8)))
          CFI (cfiCond215) V7 load(1, XDATA, add(CFA_XSP16, literal(-7)))
          CFI (cfiCond215) R7 load(1, XDATA, add(CFA_XSP16, literal(-6)))
          CFI (cfiCond215) ?RET_LOW load(1, XDATA, add(CFA_XSP16, literal(-5)))
          CFI (cfiCond215) ?RET_HIGH load(1, XDATA, add(CFA_XSP16, literal(-4)))
          CFI (cfiCond215) ?BRET_EXT load(1, XDATA, add(CFA_XSP16, literal(-3)))
          CFI (cfiCond215) DPL0 load(1, XDATA, add(CFA_XSP16, literal(-2)))
          CFI (cfiCond215) DPH0 load(1, XDATA, add(CFA_XSP16, literal(-1)))
          CFI (cfiCond215) CFA_SP SP+-2
          CFI (cfiCond215) CFA_XSP16 add(XSP16, 18)
          CFI Block cfiCond216 Using cfiCommon0
          CFI (cfiCond216) Function gp_SecurityOperationProxy
          CFI (cfiCond216) Conditional ??CrossCallReturnLabel_154
          CFI (cfiCond216) R6 load(1, XDATA, add(CFA_XSP16, literal(-16)))
          CFI (cfiCond216) VB load(1, XDATA, add(CFA_XSP16, literal(-15)))
          CFI (cfiCond216) V0 load(1, XDATA, add(CFA_XSP16, literal(-14)))
          CFI (cfiCond216) V1 load(1, XDATA, add(CFA_XSP16, literal(-13)))
          CFI (cfiCond216) V2 load(1, XDATA, add(CFA_XSP16, literal(-12)))
          CFI (cfiCond216) V3 load(1, XDATA, add(CFA_XSP16, literal(-11)))
          CFI (cfiCond216) V4 load(1, XDATA, add(CFA_XSP16, literal(-10)))
          CFI (cfiCond216) V5 load(1, XDATA, add(CFA_XSP16, literal(-9)))
          CFI (cfiCond216) V6 load(1, XDATA, add(CFA_XSP16, literal(-8)))
          CFI (cfiCond216) V7 load(1, XDATA, add(CFA_XSP16, literal(-7)))
          CFI (cfiCond216) R7 load(1, XDATA, add(CFA_XSP16, literal(-6)))
          CFI (cfiCond216) ?RET_LOW load(1, XDATA, add(CFA_XSP16, literal(-5)))
          CFI (cfiCond216) ?RET_HIGH load(1, XDATA, add(CFA_XSP16, literal(-4)))
          CFI (cfiCond216) ?BRET_EXT load(1, XDATA, add(CFA_XSP16, literal(-3)))
          CFI (cfiCond216) DPL0 load(1, XDATA, add(CFA_XSP16, literal(-2)))
          CFI (cfiCond216) DPH0 load(1, XDATA, add(CFA_XSP16, literal(-1)))
          CFI (cfiCond216) CFA_SP SP+-2
          CFI (cfiCond216) CFA_XSP16 add(XSP16, 94)
          CFI Block cfiPicker217 Using cfiCommon1
          CFI (cfiPicker217) NoFunction
          CFI (cfiPicker217) Picker
        MOV       DPL,A
        CLR       A
        ADDC      A,R7
        MOV       DPH,A
        MOVX      A,@DPTR
        RET
          CFI EndBlock cfiCond208
          CFI EndBlock cfiCond209
          CFI EndBlock cfiCond210
          CFI EndBlock cfiCond211
          CFI EndBlock cfiCond212
          CFI EndBlock cfiCond213
          CFI EndBlock cfiCond214
          CFI EndBlock cfiCond215
          CFI EndBlock cfiCond216
          CFI EndBlock cfiPicker217

        RSEG BANKED_CODE:HUGECODE:NOROOT(0)
?Subroutine38:
          CFI Block cfiCond218 Using cfiCommon0
          CFI Function zclGp_ManteinanceIndParse
          CFI Conditional ??CrossCallReturnLabel_57
          CFI R6 load(1, XDATA, add(CFA_XSP16, literal(-16)))
          CFI VB load(1, XDATA, add(CFA_XSP16, literal(-15)))
          CFI V0 load(1, XDATA, add(CFA_XSP16, literal(-14)))
          CFI V1 load(1, XDATA, add(CFA_XSP16, literal(-13)))
          CFI V2 load(1, XDATA, add(CFA_XSP16, literal(-12)))
          CFI V3 load(1, XDATA, add(CFA_XSP16, literal(-11)))
          CFI V4 load(1, XDATA, add(CFA_XSP16, literal(-10)))
          CFI V5 load(1, XDATA, add(CFA_XSP16, literal(-9)))
          CFI V6 load(1, XDATA, add(CFA_XSP16, literal(-8)))
          CFI V7 load(1, XDATA, add(CFA_XSP16, literal(-7)))
          CFI R7 load(1, XDATA, add(CFA_XSP16, literal(-6)))
          CFI ?RET_LOW load(1, XDATA, add(CFA_XSP16, literal(-5)))
          CFI ?RET_HIGH load(1, XDATA, add(CFA_XSP16, literal(-4)))
          CFI ?BRET_EXT load(1, XDATA, add(CFA_XSP16, literal(-3)))
          CFI DPL0 load(1, XDATA, add(CFA_XSP16, literal(-2)))
          CFI DPH0 load(1, XDATA, add(CFA_XSP16, literal(-1)))
          CFI CFA_SP SP+-2
          CFI CFA_XSP16 add(XSP16, 18)
          CFI Block cfiCond219 Using cfiCommon0
          CFI (cfiCond219) Function gp_SecurityOperationProxy
          CFI (cfiCond219) Conditional ??CrossCallReturnLabel_58
          CFI (cfiCond219) R6 load(1, XDATA, add(CFA_XSP16, literal(-16)))
          CFI (cfiCond219) VB load(1, XDATA, add(CFA_XSP16, literal(-15)))
          CFI (cfiCond219) V0 load(1, XDATA, add(CFA_XSP16, literal(-14)))
          CFI (cfiCond219) V1 load(1, XDATA, add(CFA_XSP16, literal(-13)))
          CFI (cfiCond219) V2 load(1, XDATA, add(CFA_XSP16, literal(-12)))
          CFI (cfiCond219) V3 load(1, XDATA, add(CFA_XSP16, literal(-11)))
          CFI (cfiCond219) V4 load(1, XDATA, add(CFA_XSP16, literal(-10)))
          CFI (cfiCond219) V5 load(1, XDATA, add(CFA_XSP16, literal(-9)))
          CFI (cfiCond219) V6 load(1, XDATA, add(CFA_XSP16, literal(-8)))
          CFI (cfiCond219) V7 load(1, XDATA, add(CFA_XSP16, literal(-7)))
          CFI (cfiCond219) R7 load(1, XDATA, add(CFA_XSP16, literal(-6)))
          CFI (cfiCond219) ?RET_LOW load(1, XDATA, add(CFA_XSP16, literal(-5)))
          CFI (cfiCond219) ?RET_HIGH load(1, XDATA, add(CFA_XSP16, literal(-4)))
          CFI (cfiCond219) ?BRET_EXT load(1, XDATA, add(CFA_XSP16, literal(-3)))
          CFI (cfiCond219) DPL0 load(1, XDATA, add(CFA_XSP16, literal(-2)))
          CFI (cfiCond219) DPH0 load(1, XDATA, add(CFA_XSP16, literal(-1)))
          CFI (cfiCond219) CFA_SP SP+-2
          CFI (cfiCond219) CFA_XSP16 add(XSP16, 94)
          CFI Block cfiCond220 Using cfiCommon0
          CFI (cfiCond220) Function GP_DataInd
          CFI (cfiCond220) Conditional ??CrossCallReturnLabel_59
          CFI (cfiCond220) R6 load(1, XDATA, add(CFA_XSP16, literal(-14)))
          CFI (cfiCond220) VB load(1, XDATA, add(CFA_XSP16, literal(-13)))
          CFI (cfiCond220) V0 load(1, XDATA, add(CFA_XSP16, literal(-12)))
          CFI (cfiCond220) V1 load(1, XDATA, add(CFA_XSP16, literal(-11)))
          CFI (cfiCond220) V2 load(1, XDATA, add(CFA_XSP16, literal(-10)))
          CFI (cfiCond220) V3 load(1, XDATA, add(CFA_XSP16, literal(-9)))
          CFI (cfiCond220) V4 load(1, XDATA, add(CFA_XSP16, literal(-8)))
          CFI (cfiCond220) V5 load(1, XDATA, add(CFA_XSP16, literal(-7)))
          CFI (cfiCond220) R7 load(1, XDATA, add(CFA_XSP16, literal(-6)))
          CFI (cfiCond220) ?RET_LOW load(1, XDATA, add(CFA_XSP16, literal(-5)))
          CFI (cfiCond220) ?RET_HIGH load(1, XDATA, add(CFA_XSP16, literal(-4)))
          CFI (cfiCond220) ?BRET_EXT load(1, XDATA, add(CFA_XSP16, literal(-3)))
          CFI (cfiCond220) DPL0 load(1, XDATA, add(CFA_XSP16, literal(-2)))
          CFI (cfiCond220) DPH0 load(1, XDATA, add(CFA_XSP16, literal(-1)))
          CFI (cfiCond220) CFA_SP SP+-2
          CFI (cfiCond220) CFA_XSP16 add(XSP16, 146)
          CFI Block cfiPicker221 Using cfiCommon1
          CFI (cfiPicker221) NoFunction
          CFI (cfiPicker221) Picker
        MOV       A,R6
        ADD       A,#0x21
        MOV       DPL,A
        CLR       A
        ADDC      A,R7
        MOV       DPH,A
        RET
          CFI EndBlock cfiCond218
          CFI EndBlock cfiCond219
          CFI EndBlock cfiCond220
          CFI EndBlock cfiPicker221

        RSEG BANKED_CODE:HUGECODE:NOROOT(0)
?Subroutine37:
          CFI Block cfiCond222 Using cfiCommon0
          CFI Function zclGp_ManteinanceIndParse
          CFI Conditional ??CrossCallReturnLabel_156
          CFI R6 load(1, XDATA, add(CFA_XSP16, literal(-16)))
          CFI VB load(1, XDATA, add(CFA_XSP16, literal(-15)))
          CFI V0 load(1, XDATA, add(CFA_XSP16, literal(-14)))
          CFI V1 load(1, XDATA, add(CFA_XSP16, literal(-13)))
          CFI V2 load(1, XDATA, add(CFA_XSP16, literal(-12)))
          CFI V3 load(1, XDATA, add(CFA_XSP16, literal(-11)))
          CFI V4 load(1, XDATA, add(CFA_XSP16, literal(-10)))
          CFI V5 load(1, XDATA, add(CFA_XSP16, literal(-9)))
          CFI V6 load(1, XDATA, add(CFA_XSP16, literal(-8)))
          CFI V7 load(1, XDATA, add(CFA_XSP16, literal(-7)))
          CFI R7 load(1, XDATA, add(CFA_XSP16, literal(-6)))
          CFI ?RET_LOW load(1, XDATA, add(CFA_XSP16, literal(-5)))
          CFI ?RET_HIGH load(1, XDATA, add(CFA_XSP16, literal(-4)))
          CFI ?BRET_EXT load(1, XDATA, add(CFA_XSP16, literal(-3)))
          CFI DPL0 load(1, XDATA, add(CFA_XSP16, literal(-2)))
          CFI DPH0 load(1, XDATA, add(CFA_XSP16, literal(-1)))
          CFI CFA_SP SP+-2
          CFI CFA_XSP16 add(XSP16, 18)
          CFI Block cfiCond223 Using cfiCommon0
          CFI (cfiCond223) Function gp_SecurityOperationProxy
          CFI (cfiCond223) Conditional ??CrossCallReturnLabel_157
          CFI (cfiCond223) R6 load(1, XDATA, add(CFA_XSP16, literal(-16)))
          CFI (cfiCond223) VB load(1, XDATA, add(CFA_XSP16, literal(-15)))
          CFI (cfiCond223) V0 load(1, XDATA, add(CFA_XSP16, literal(-14)))
          CFI (cfiCond223) V1 load(1, XDATA, add(CFA_XSP16, literal(-13)))
          CFI (cfiCond223) V2 load(1, XDATA, add(CFA_XSP16, literal(-12)))
          CFI (cfiCond223) V3 load(1, XDATA, add(CFA_XSP16, literal(-11)))
          CFI (cfiCond223) V4 load(1, XDATA, add(CFA_XSP16, literal(-10)))
          CFI (cfiCond223) V5 load(1, XDATA, add(CFA_XSP16, literal(-9)))
          CFI (cfiCond223) V6 load(1, XDATA, add(CFA_XSP16, literal(-8)))
          CFI (cfiCond223) V7 load(1, XDATA, add(CFA_XSP16, literal(-7)))
          CFI (cfiCond223) R7 load(1, XDATA, add(CFA_XSP16, literal(-6)))
          CFI (cfiCond223) ?RET_LOW load(1, XDATA, add(CFA_XSP16, literal(-5)))
          CFI (cfiCond223) ?RET_HIGH load(1, XDATA, add(CFA_XSP16, literal(-4)))
          CFI (cfiCond223) ?BRET_EXT load(1, XDATA, add(CFA_XSP16, literal(-3)))
          CFI (cfiCond223) DPL0 load(1, XDATA, add(CFA_XSP16, literal(-2)))
          CFI (cfiCond223) DPH0 load(1, XDATA, add(CFA_XSP16, literal(-1)))
          CFI (cfiCond223) CFA_SP SP+-2
          CFI (cfiCond223) CFA_XSP16 add(XSP16, 94)
          CFI Block cfiCond224 Using cfiCommon0
          CFI (cfiCond224) Function GP_DataInd
          CFI (cfiCond224) Conditional ??CrossCallReturnLabel_158
          CFI (cfiCond224) R6 load(1, XDATA, add(CFA_XSP16, literal(-14)))
          CFI (cfiCond224) VB load(1, XDATA, add(CFA_XSP16, literal(-13)))
          CFI (cfiCond224) V0 load(1, XDATA, add(CFA_XSP16, literal(-12)))
          CFI (cfiCond224) V1 load(1, XDATA, add(CFA_XSP16, literal(-11)))
          CFI (cfiCond224) V2 load(1, XDATA, add(CFA_XSP16, literal(-10)))
          CFI (cfiCond224) V3 load(1, XDATA, add(CFA_XSP16, literal(-9)))
          CFI (cfiCond224) V4 load(1, XDATA, add(CFA_XSP16, literal(-8)))
          CFI (cfiCond224) V5 load(1, XDATA, add(CFA_XSP16, literal(-7)))
          CFI (cfiCond224) R7 load(1, XDATA, add(CFA_XSP16, literal(-6)))
          CFI (cfiCond224) ?RET_LOW load(1, XDATA, add(CFA_XSP16, literal(-5)))
          CFI (cfiCond224) ?RET_HIGH load(1, XDATA, add(CFA_XSP16, literal(-4)))
          CFI (cfiCond224) ?BRET_EXT load(1, XDATA, add(CFA_XSP16, literal(-3)))
          CFI (cfiCond224) DPL0 load(1, XDATA, add(CFA_XSP16, literal(-2)))
          CFI (cfiCond224) DPH0 load(1, XDATA, add(CFA_XSP16, literal(-1)))
          CFI (cfiCond224) CFA_SP SP+-2
          CFI (cfiCond224) CFA_XSP16 add(XSP16, 146)
          CFI Block cfiPicker225 Using cfiCommon1
          CFI (cfiPicker225) NoFunction
          CFI (cfiPicker225) Picker
        MOV       A,R6
        ADD       A,#0x11
          CFI EndBlock cfiCond222
          CFI EndBlock cfiCond223
          CFI EndBlock cfiCond224
          CFI EndBlock cfiPicker225
        REQUIRE ??Subroutine67_0
        ; // Fall through to label ??Subroutine67_0

        RSEG BANKED_CODE:HUGECODE:NOROOT(0)
??Subroutine67_0:
          CFI Block cfiCond226 Using cfiCommon0
          CFI Function gp_ZclPairingParse
          CFI Conditional ??CrossCallReturnLabel_155
          CFI R6 load(1, XDATA, add(CFA_XSP16, literal(-16)))
          CFI VB load(1, XDATA, add(CFA_XSP16, literal(-15)))
          CFI V0 load(1, XDATA, add(CFA_XSP16, literal(-14)))
          CFI V1 load(1, XDATA, add(CFA_XSP16, literal(-13)))
          CFI V2 load(1, XDATA, add(CFA_XSP16, literal(-12)))
          CFI V3 load(1, XDATA, add(CFA_XSP16, literal(-11)))
          CFI V4 load(1, XDATA, add(CFA_XSP16, literal(-10)))
          CFI V5 load(1, XDATA, add(CFA_XSP16, literal(-9)))
          CFI V6 load(1, XDATA, add(CFA_XSP16, literal(-8)))
          CFI V7 load(1, XDATA, add(CFA_XSP16, literal(-7)))
          CFI R7 load(1, XDATA, add(CFA_XSP16, literal(-6)))
          CFI ?RET_LOW load(1, XDATA, add(CFA_XSP16, literal(-5)))
          CFI ?RET_HIGH load(1, XDATA, add(CFA_XSP16, literal(-4)))
          CFI ?BRET_EXT load(1, XDATA, add(CFA_XSP16, literal(-3)))
          CFI DPL0 load(1, XDATA, add(CFA_XSP16, literal(-2)))
          CFI DPH0 load(1, XDATA, add(CFA_XSP16, literal(-1)))
          CFI CFA_SP SP+-2
          CFI CFA_XSP16 add(XSP16, 81)
          CFI Block cfiCond227 Using cfiCommon0
          CFI (cfiCond227) Function zclGp_ManteinanceIndParse
          CFI (cfiCond227) Conditional ??CrossCallReturnLabel_156
          CFI (cfiCond227) R6 load(1, XDATA, add(CFA_XSP16, literal(-16)))
          CFI (cfiCond227) VB load(1, XDATA, add(CFA_XSP16, literal(-15)))
          CFI (cfiCond227) V0 load(1, XDATA, add(CFA_XSP16, literal(-14)))
          CFI (cfiCond227) V1 load(1, XDATA, add(CFA_XSP16, literal(-13)))
          CFI (cfiCond227) V2 load(1, XDATA, add(CFA_XSP16, literal(-12)))
          CFI (cfiCond227) V3 load(1, XDATA, add(CFA_XSP16, literal(-11)))
          CFI (cfiCond227) V4 load(1, XDATA, add(CFA_XSP16, literal(-10)))
          CFI (cfiCond227) V5 load(1, XDATA, add(CFA_XSP16, literal(-9)))
          CFI (cfiCond227) V6 load(1, XDATA, add(CFA_XSP16, literal(-8)))
          CFI (cfiCond227) V7 load(1, XDATA, add(CFA_XSP16, literal(-7)))
          CFI (cfiCond227) R7 load(1, XDATA, add(CFA_XSP16, literal(-6)))
          CFI (cfiCond227) ?RET_LOW load(1, XDATA, add(CFA_XSP16, literal(-5)))
          CFI (cfiCond227) ?RET_HIGH load(1, XDATA, add(CFA_XSP16, literal(-4)))
          CFI (cfiCond227) ?BRET_EXT load(1, XDATA, add(CFA_XSP16, literal(-3)))
          CFI (cfiCond227) DPL0 load(1, XDATA, add(CFA_XSP16, literal(-2)))
          CFI (cfiCond227) DPH0 load(1, XDATA, add(CFA_XSP16, literal(-1)))
          CFI (cfiCond227) CFA_SP SP+-2
          CFI (cfiCond227) CFA_XSP16 add(XSP16, 18)
          CFI Block cfiCond228 Using cfiCommon0
          CFI (cfiCond228) Function gp_SecurityOperationProxy
          CFI (cfiCond228) Conditional ??CrossCallReturnLabel_157
          CFI (cfiCond228) R6 load(1, XDATA, add(CFA_XSP16, literal(-16)))
          CFI (cfiCond228) VB load(1, XDATA, add(CFA_XSP16, literal(-15)))
          CFI (cfiCond228) V0 load(1, XDATA, add(CFA_XSP16, literal(-14)))
          CFI (cfiCond228) V1 load(1, XDATA, add(CFA_XSP16, literal(-13)))
          CFI (cfiCond228) V2 load(1, XDATA, add(CFA_XSP16, literal(-12)))
          CFI (cfiCond228) V3 load(1, XDATA, add(CFA_XSP16, literal(-11)))
          CFI (cfiCond228) V4 load(1, XDATA, add(CFA_XSP16, literal(-10)))
          CFI (cfiCond228) V5 load(1, XDATA, add(CFA_XSP16, literal(-9)))
          CFI (cfiCond228) V6 load(1, XDATA, add(CFA_XSP16, literal(-8)))
          CFI (cfiCond228) V7 load(1, XDATA, add(CFA_XSP16, literal(-7)))
          CFI (cfiCond228) R7 load(1, XDATA, add(CFA_XSP16, literal(-6)))
          CFI (cfiCond228) ?RET_LOW load(1, XDATA, add(CFA_XSP16, literal(-5)))
          CFI (cfiCond228) ?RET_HIGH load(1, XDATA, add(CFA_XSP16, literal(-4)))
          CFI (cfiCond228) ?BRET_EXT load(1, XDATA, add(CFA_XSP16, literal(-3)))
          CFI (cfiCond228) DPL0 load(1, XDATA, add(CFA_XSP16, literal(-2)))
          CFI (cfiCond228) DPH0 load(1, XDATA, add(CFA_XSP16, literal(-1)))
          CFI (cfiCond228) CFA_SP SP+-2
          CFI (cfiCond228) CFA_XSP16 add(XSP16, 94)
          CFI Block cfiCond229 Using cfiCommon0
          CFI (cfiCond229) Function GP_DataInd
          CFI (cfiCond229) Conditional ??CrossCallReturnLabel_158
          CFI (cfiCond229) R6 load(1, XDATA, add(CFA_XSP16, literal(-14)))
          CFI (cfiCond229) VB load(1, XDATA, add(CFA_XSP16, literal(-13)))
          CFI (cfiCond229) V0 load(1, XDATA, add(CFA_XSP16, literal(-12)))
          CFI (cfiCond229) V1 load(1, XDATA, add(CFA_XSP16, literal(-11)))
          CFI (cfiCond229) V2 load(1, XDATA, add(CFA_XSP16, literal(-10)))
          CFI (cfiCond229) V3 load(1, XDATA, add(CFA_XSP16, literal(-9)))
          CFI (cfiCond229) V4 load(1, XDATA, add(CFA_XSP16, literal(-8)))
          CFI (cfiCond229) V5 load(1, XDATA, add(CFA_XSP16, literal(-7)))
          CFI (cfiCond229) R7 load(1, XDATA, add(CFA_XSP16, literal(-6)))
          CFI (cfiCond229) ?RET_LOW load(1, XDATA, add(CFA_XSP16, literal(-5)))
          CFI (cfiCond229) ?RET_HIGH load(1, XDATA, add(CFA_XSP16, literal(-4)))
          CFI (cfiCond229) ?BRET_EXT load(1, XDATA, add(CFA_XSP16, literal(-3)))
          CFI (cfiCond229) DPL0 load(1, XDATA, add(CFA_XSP16, literal(-2)))
          CFI (cfiCond229) DPH0 load(1, XDATA, add(CFA_XSP16, literal(-1)))
          CFI (cfiCond229) CFA_SP SP+-2
          CFI (cfiCond229) CFA_XSP16 add(XSP16, 146)
          CFI Block cfiPicker230 Using cfiCommon1
          CFI (cfiPicker230) NoFunction
          CFI (cfiPicker230) Picker
        MOV       ?V0,A
        CLR       A
        ADDC      A,R7
        MOV       ?V1,A
        MOV       ?V2,#0x0
        MOV       R0,#?V0
        RET
          CFI EndBlock cfiCond226
          CFI EndBlock cfiCond227
          CFI EndBlock cfiCond228
          CFI EndBlock cfiCond229
          CFI EndBlock cfiPicker230

        RSEG BANKED_CODE:HUGECODE:NOROOT(0)
?Subroutine24:
          CFI Block cfiCond231 Using cfiCommon0
          CFI Function zclGp_DataIndParse
          CFI Conditional ??CrossCallReturnLabel_35
          CFI R6 load(1, XDATA, add(CFA_XSP16, literal(-15)))
          CFI VB load(1, XDATA, add(CFA_XSP16, literal(-14)))
          CFI V0 load(1, XDATA, add(CFA_XSP16, literal(-13)))
          CFI V1 load(1, XDATA, add(CFA_XSP16, literal(-12)))
          CFI V2 load(1, XDATA, add(CFA_XSP16, literal(-11)))
          CFI V3 load(1, XDATA, add(CFA_XSP16, literal(-10)))
          CFI V4 load(1, XDATA, add(CFA_XSP16, literal(-9)))
          CFI V5 load(1, XDATA, add(CFA_XSP16, literal(-8)))
          CFI V6 load(1, XDATA, add(CFA_XSP16, literal(-7)))
          CFI R7 load(1, XDATA, add(CFA_XSP16, literal(-6)))
          CFI ?RET_LOW load(1, XDATA, add(CFA_XSP16, literal(-5)))
          CFI ?RET_HIGH load(1, XDATA, add(CFA_XSP16, literal(-4)))
          CFI ?BRET_EXT load(1, XDATA, add(CFA_XSP16, literal(-3)))
          CFI DPL0 load(1, XDATA, add(CFA_XSP16, literal(-2)))
          CFI DPH0 load(1, XDATA, add(CFA_XSP16, literal(-1)))
          CFI CFA_SP SP+-2
          CFI CFA_XSP16 add(XSP16, 89)
          CFI Block cfiCond232 Using cfiCommon0
          CFI (cfiCond232) Function gp_SecurityOperationProxy
          CFI (cfiCond232) Conditional ??CrossCallReturnLabel_36
          CFI (cfiCond232) R6 load(1, XDATA, add(CFA_XSP16, literal(-16)))
          CFI (cfiCond232) VB load(1, XDATA, add(CFA_XSP16, literal(-15)))
          CFI (cfiCond232) V0 load(1, XDATA, add(CFA_XSP16, literal(-14)))
          CFI (cfiCond232) V1 load(1, XDATA, add(CFA_XSP16, literal(-13)))
          CFI (cfiCond232) V2 load(1, XDATA, add(CFA_XSP16, literal(-12)))
          CFI (cfiCond232) V3 load(1, XDATA, add(CFA_XSP16, literal(-11)))
          CFI (cfiCond232) V4 load(1, XDATA, add(CFA_XSP16, literal(-10)))
          CFI (cfiCond232) V5 load(1, XDATA, add(CFA_XSP16, literal(-9)))
          CFI (cfiCond232) V6 load(1, XDATA, add(CFA_XSP16, literal(-8)))
          CFI (cfiCond232) V7 load(1, XDATA, add(CFA_XSP16, literal(-7)))
          CFI (cfiCond232) R7 load(1, XDATA, add(CFA_XSP16, literal(-6)))
          CFI (cfiCond232) ?RET_LOW load(1, XDATA, add(CFA_XSP16, literal(-5)))
          CFI (cfiCond232) ?RET_HIGH load(1, XDATA, add(CFA_XSP16, literal(-4)))
          CFI (cfiCond232) ?BRET_EXT load(1, XDATA, add(CFA_XSP16, literal(-3)))
          CFI (cfiCond232) DPL0 load(1, XDATA, add(CFA_XSP16, literal(-2)))
          CFI (cfiCond232) DPH0 load(1, XDATA, add(CFA_XSP16, literal(-1)))
          CFI (cfiCond232) CFA_SP SP+-2
          CFI (cfiCond232) CFA_XSP16 add(XSP16, 97)
          CFI Block cfiPicker233 Using cfiCommon1
          CFI (cfiPicker233) NoFunction
          CFI (cfiPicker233) Picker
        LCALL     ?Subroutine51 & 0xFFFF
??CrossCallReturnLabel_89:
        MOV       R1,DPL
        MOV       R2,DPH
        MOV       R3,#0x0
        RET
          CFI EndBlock cfiCond231
          CFI EndBlock cfiCond232
          CFI EndBlock cfiPicker233

        RSEG BANKED_CODE:HUGECODE:NOROOT(0)
?Subroutine21:
          CFI Block cfiCond234 Using cfiCommon0
          CFI Function zclGp_GpProxyTableReqCB
          CFI Conditional ??CrossCallReturnLabel_171
          CFI R6 load(1, XDATA, add(CFA_XSP16, literal(-15)))
          CFI VB load(1, XDATA, add(CFA_XSP16, literal(-14)))
          CFI V0 load(1, XDATA, add(CFA_XSP16, literal(-13)))
          CFI V1 load(1, XDATA, add(CFA_XSP16, literal(-12)))
          CFI V2 load(1, XDATA, add(CFA_XSP16, literal(-11)))
          CFI V3 load(1, XDATA, add(CFA_XSP16, literal(-10)))
          CFI V4 load(1, XDATA, add(CFA_XSP16, literal(-9)))
          CFI V5 load(1, XDATA, add(CFA_XSP16, literal(-8)))
          CFI V6 load(1, XDATA, add(CFA_XSP16, literal(-7)))
          CFI R7 load(1, XDATA, add(CFA_XSP16, literal(-6)))
          CFI ?RET_LOW load(1, XDATA, add(CFA_XSP16, literal(-5)))
          CFI ?RET_HIGH load(1, XDATA, add(CFA_XSP16, literal(-4)))
          CFI ?BRET_EXT load(1, XDATA, add(CFA_XSP16, literal(-3)))
          CFI DPL0 load(1, XDATA, add(CFA_XSP16, literal(-2)))
          CFI DPH0 load(1, XDATA, add(CFA_XSP16, literal(-1)))
          CFI CFA_SP SP+-2
          CFI CFA_XSP16 add(XSP16, 181)
          CFI Block cfiCond235 Using cfiCommon0
          CFI (cfiCond235) Function zclGp_GpProxyTableReqCB
          CFI (cfiCond235) Conditional ??CrossCallReturnLabel_172
          CFI (cfiCond235) R6 load(1, XDATA, add(CFA_XSP16, literal(-15)))
          CFI (cfiCond235) VB load(1, XDATA, add(CFA_XSP16, literal(-14)))
          CFI (cfiCond235) V0 load(1, XDATA, add(CFA_XSP16, literal(-13)))
          CFI (cfiCond235) V1 load(1, XDATA, add(CFA_XSP16, literal(-12)))
          CFI (cfiCond235) V2 load(1, XDATA, add(CFA_XSP16, literal(-11)))
          CFI (cfiCond235) V3 load(1, XDATA, add(CFA_XSP16, literal(-10)))
          CFI (cfiCond235) V4 load(1, XDATA, add(CFA_XSP16, literal(-9)))
          CFI (cfiCond235) V5 load(1, XDATA, add(CFA_XSP16, literal(-8)))
          CFI (cfiCond235) V6 load(1, XDATA, add(CFA_XSP16, literal(-7)))
          CFI (cfiCond235) R7 load(1, XDATA, add(CFA_XSP16, literal(-6)))
          CFI (cfiCond235) ?RET_LOW load(1, XDATA, add(CFA_XSP16, literal(-5)))
          CFI (cfiCond235) ?RET_HIGH load(1, XDATA, add(CFA_XSP16, literal(-4)))
          CFI (cfiCond235) ?BRET_EXT load(1, XDATA, add(CFA_XSP16, literal(-3)))
          CFI (cfiCond235) DPL0 load(1, XDATA, add(CFA_XSP16, literal(-2)))
          CFI (cfiCond235) DPH0 load(1, XDATA, add(CFA_XSP16, literal(-1)))
          CFI (cfiCond235) CFA_SP SP+-2
          CFI (cfiCond235) CFA_XSP16 add(XSP16, 181)
          CFI Block cfiPicker236 Using cfiCommon1
          CFI (cfiPicker236) NoFunction
          CFI (cfiPicker236) Picker
        LCALL     ?Subroutine51 & 0xFFFF
??CrossCallReturnLabel_88:
          CFI EndBlock cfiCond234
          CFI EndBlock cfiCond235
          CFI EndBlock cfiPicker236
        REQUIRE ??Subroutine68_0
        ; // Fall through to label ??Subroutine68_0

        RSEG BANKED_CODE:HUGECODE:NOROOT(0)
??Subroutine68_0:
          CFI Block cfiCond237 Using cfiCommon0
          CFI Function zclGp_GpProxyTableReqCB
          CFI Conditional ??CrossCallReturnLabel_159
          CFI R6 load(1, XDATA, add(CFA_XSP16, literal(-15)))
          CFI VB load(1, XDATA, add(CFA_XSP16, literal(-14)))
          CFI V0 load(1, XDATA, add(CFA_XSP16, literal(-13)))
          CFI V1 load(1, XDATA, add(CFA_XSP16, literal(-12)))
          CFI V2 load(1, XDATA, add(CFA_XSP16, literal(-11)))
          CFI V3 load(1, XDATA, add(CFA_XSP16, literal(-10)))
          CFI V4 load(1, XDATA, add(CFA_XSP16, literal(-9)))
          CFI V5 load(1, XDATA, add(CFA_XSP16, literal(-8)))
          CFI V6 load(1, XDATA, add(CFA_XSP16, literal(-7)))
          CFI R7 load(1, XDATA, add(CFA_XSP16, literal(-6)))
          CFI ?RET_LOW load(1, XDATA, add(CFA_XSP16, literal(-5)))
          CFI ?RET_HIGH load(1, XDATA, add(CFA_XSP16, literal(-4)))
          CFI ?BRET_EXT load(1, XDATA, add(CFA_XSP16, literal(-3)))
          CFI DPL0 load(1, XDATA, add(CFA_XSP16, literal(-2)))
          CFI DPH0 load(1, XDATA, add(CFA_XSP16, literal(-1)))
          CFI CFA_SP SP+-2
          CFI CFA_XSP16 add(XSP16, 181)
          CFI Block cfiCond238 Using cfiCommon0
          CFI (cfiCond238) Function zclGp_GpProxyTableReqCB
          CFI (cfiCond238) Conditional ??CrossCallReturnLabel_160
          CFI (cfiCond238) R6 load(1, XDATA, add(CFA_XSP16, literal(-15)))
          CFI (cfiCond238) VB load(1, XDATA, add(CFA_XSP16, literal(-14)))
          CFI (cfiCond238) V0 load(1, XDATA, add(CFA_XSP16, literal(-13)))
          CFI (cfiCond238) V1 load(1, XDATA, add(CFA_XSP16, literal(-12)))
          CFI (cfiCond238) V2 load(1, XDATA, add(CFA_XSP16, literal(-11)))
          CFI (cfiCond238) V3 load(1, XDATA, add(CFA_XSP16, literal(-10)))
          CFI (cfiCond238) V4 load(1, XDATA, add(CFA_XSP16, literal(-9)))
          CFI (cfiCond238) V5 load(1, XDATA, add(CFA_XSP16, literal(-8)))
          CFI (cfiCond238) V6 load(1, XDATA, add(CFA_XSP16, literal(-7)))
          CFI (cfiCond238) R7 load(1, XDATA, add(CFA_XSP16, literal(-6)))
          CFI (cfiCond238) ?RET_LOW load(1, XDATA, add(CFA_XSP16, literal(-5)))
          CFI (cfiCond238) ?RET_HIGH load(1, XDATA, add(CFA_XSP16, literal(-4)))
          CFI (cfiCond238) ?BRET_EXT load(1, XDATA, add(CFA_XSP16, literal(-3)))
          CFI (cfiCond238) DPL0 load(1, XDATA, add(CFA_XSP16, literal(-2)))
          CFI (cfiCond238) DPH0 load(1, XDATA, add(CFA_XSP16, literal(-1)))
          CFI (cfiCond238) CFA_SP SP+-2
          CFI (cfiCond238) CFA_XSP16 add(XSP16, 183)
          CFI Block cfiCond239 Using cfiCommon0
          CFI (cfiCond239) Function zclGp_GpProxyTableReqCB
          CFI (cfiCond239) Conditional ??CrossCallReturnLabel_161
          CFI (cfiCond239) R6 load(1, XDATA, add(CFA_XSP16, literal(-15)))
          CFI (cfiCond239) VB load(1, XDATA, add(CFA_XSP16, literal(-14)))
          CFI (cfiCond239) V0 load(1, XDATA, add(CFA_XSP16, literal(-13)))
          CFI (cfiCond239) V1 load(1, XDATA, add(CFA_XSP16, literal(-12)))
          CFI (cfiCond239) V2 load(1, XDATA, add(CFA_XSP16, literal(-11)))
          CFI (cfiCond239) V3 load(1, XDATA, add(CFA_XSP16, literal(-10)))
          CFI (cfiCond239) V4 load(1, XDATA, add(CFA_XSP16, literal(-9)))
          CFI (cfiCond239) V5 load(1, XDATA, add(CFA_XSP16, literal(-8)))
          CFI (cfiCond239) V6 load(1, XDATA, add(CFA_XSP16, literal(-7)))
          CFI (cfiCond239) R7 load(1, XDATA, add(CFA_XSP16, literal(-6)))
          CFI (cfiCond239) ?RET_LOW load(1, XDATA, add(CFA_XSP16, literal(-5)))
          CFI (cfiCond239) ?RET_HIGH load(1, XDATA, add(CFA_XSP16, literal(-4)))
          CFI (cfiCond239) ?BRET_EXT load(1, XDATA, add(CFA_XSP16, literal(-3)))
          CFI (cfiCond239) DPL0 load(1, XDATA, add(CFA_XSP16, literal(-2)))
          CFI (cfiCond239) DPH0 load(1, XDATA, add(CFA_XSP16, literal(-1)))
          CFI (cfiCond239) CFA_SP SP+-2
          CFI (cfiCond239) CFA_XSP16 add(XSP16, 183)
          CFI Block cfiCond240 Using cfiCommon0
          CFI (cfiCond240) Function zclGp_GpResponseCommandCB
          CFI (cfiCond240) Conditional ??CrossCallReturnLabel_162
          CFI (cfiCond240) R6 load(1, XDATA, add(CFA_XSP16, literal(-15)))
          CFI (cfiCond240) VB load(1, XDATA, add(CFA_XSP16, literal(-14)))
          CFI (cfiCond240) V0 load(1, XDATA, add(CFA_XSP16, literal(-13)))
          CFI (cfiCond240) V1 load(1, XDATA, add(CFA_XSP16, literal(-12)))
          CFI (cfiCond240) V2 load(1, XDATA, add(CFA_XSP16, literal(-11)))
          CFI (cfiCond240) V3 load(1, XDATA, add(CFA_XSP16, literal(-10)))
          CFI (cfiCond240) V4 load(1, XDATA, add(CFA_XSP16, literal(-9)))
          CFI (cfiCond240) V5 load(1, XDATA, add(CFA_XSP16, literal(-8)))
          CFI (cfiCond240) V6 load(1, XDATA, add(CFA_XSP16, literal(-7)))
          CFI (cfiCond240) R7 load(1, XDATA, add(CFA_XSP16, literal(-6)))
          CFI (cfiCond240) ?RET_LOW load(1, XDATA, add(CFA_XSP16, literal(-5)))
          CFI (cfiCond240) ?RET_HIGH load(1, XDATA, add(CFA_XSP16, literal(-4)))
          CFI (cfiCond240) ?BRET_EXT load(1, XDATA, add(CFA_XSP16, literal(-3)))
          CFI (cfiCond240) DPL0 load(1, XDATA, add(CFA_XSP16, literal(-2)))
          CFI (cfiCond240) DPH0 load(1, XDATA, add(CFA_XSP16, literal(-1)))
          CFI (cfiCond240) CFA_SP SP+-2
          CFI (cfiCond240) CFA_XSP16 add(XSP16, 93)
          CFI Block cfiCond241 Using cfiCommon0
          CFI (cfiCond241) Function zclGp_GpResponseCommandCB
          CFI (cfiCond241) Conditional ??CrossCallReturnLabel_163
          CFI (cfiCond241) R6 load(1, XDATA, add(CFA_XSP16, literal(-15)))
          CFI (cfiCond241) VB load(1, XDATA, add(CFA_XSP16, literal(-14)))
          CFI (cfiCond241) V0 load(1, XDATA, add(CFA_XSP16, literal(-13)))
          CFI (cfiCond241) V1 load(1, XDATA, add(CFA_XSP16, literal(-12)))
          CFI (cfiCond241) V2 load(1, XDATA, add(CFA_XSP16, literal(-11)))
          CFI (cfiCond241) V3 load(1, XDATA, add(CFA_XSP16, literal(-10)))
          CFI (cfiCond241) V4 load(1, XDATA, add(CFA_XSP16, literal(-9)))
          CFI (cfiCond241) V5 load(1, XDATA, add(CFA_XSP16, literal(-8)))
          CFI (cfiCond241) V6 load(1, XDATA, add(CFA_XSP16, literal(-7)))
          CFI (cfiCond241) R7 load(1, XDATA, add(CFA_XSP16, literal(-6)))
          CFI (cfiCond241) ?RET_LOW load(1, XDATA, add(CFA_XSP16, literal(-5)))
          CFI (cfiCond241) ?RET_HIGH load(1, XDATA, add(CFA_XSP16, literal(-4)))
          CFI (cfiCond241) ?BRET_EXT load(1, XDATA, add(CFA_XSP16, literal(-3)))
          CFI (cfiCond241) DPL0 load(1, XDATA, add(CFA_XSP16, literal(-2)))
          CFI (cfiCond241) DPH0 load(1, XDATA, add(CFA_XSP16, literal(-1)))
          CFI (cfiCond241) CFA_SP SP+-2
          CFI (cfiCond241) CFA_XSP16 add(XSP16, 97)
          CFI Block cfiCond242 Using cfiCommon0
          CFI (cfiCond242) Function zclGp_GpResponseCommandCB
          CFI (cfiCond242) Conditional ??CrossCallReturnLabel_164
          CFI (cfiCond242) R6 load(1, XDATA, add(CFA_XSP16, literal(-15)))
          CFI (cfiCond242) VB load(1, XDATA, add(CFA_XSP16, literal(-14)))
          CFI (cfiCond242) V0 load(1, XDATA, add(CFA_XSP16, literal(-13)))
          CFI (cfiCond242) V1 load(1, XDATA, add(CFA_XSP16, literal(-12)))
          CFI (cfiCond242) V2 load(1, XDATA, add(CFA_XSP16, literal(-11)))
          CFI (cfiCond242) V3 load(1, XDATA, add(CFA_XSP16, literal(-10)))
          CFI (cfiCond242) V4 load(1, XDATA, add(CFA_XSP16, literal(-9)))
          CFI (cfiCond242) V5 load(1, XDATA, add(CFA_XSP16, literal(-8)))
          CFI (cfiCond242) V6 load(1, XDATA, add(CFA_XSP16, literal(-7)))
          CFI (cfiCond242) R7 load(1, XDATA, add(CFA_XSP16, literal(-6)))
          CFI (cfiCond242) ?RET_LOW load(1, XDATA, add(CFA_XSP16, literal(-5)))
          CFI (cfiCond242) ?RET_HIGH load(1, XDATA, add(CFA_XSP16, literal(-4)))
          CFI (cfiCond242) ?BRET_EXT load(1, XDATA, add(CFA_XSP16, literal(-3)))
          CFI (cfiCond242) DPL0 load(1, XDATA, add(CFA_XSP16, literal(-2)))
          CFI (cfiCond242) DPH0 load(1, XDATA, add(CFA_XSP16, literal(-1)))
          CFI (cfiCond242) CFA_SP SP+-2
          CFI (cfiCond242) CFA_XSP16 add(XSP16, 97)
          CFI Block cfiCond243 Using cfiCommon0
          CFI (cfiCond243) Function zclGp_GpProxyCommissioningModeCB
          CFI (cfiCond243) Conditional ??CrossCallReturnLabel_165
          CFI (cfiCond243) R6 load(1, XDATA, add(CFA_XSP16, literal(-10)))
          CFI (cfiCond243) VB load(1, XDATA, add(CFA_XSP16, literal(-9)))
          CFI (cfiCond243) V0 load(1, XDATA, add(CFA_XSP16, literal(-8)))
          CFI (cfiCond243) V1 load(1, XDATA, add(CFA_XSP16, literal(-7)))
          CFI (cfiCond243) R7 load(1, XDATA, add(CFA_XSP16, literal(-6)))
          CFI (cfiCond243) ?RET_LOW load(1, XDATA, add(CFA_XSP16, literal(-5)))
          CFI (cfiCond243) ?RET_HIGH load(1, XDATA, add(CFA_XSP16, literal(-4)))
          CFI (cfiCond243) ?BRET_EXT load(1, XDATA, add(CFA_XSP16, literal(-3)))
          CFI (cfiCond243) DPL0 load(1, XDATA, add(CFA_XSP16, literal(-2)))
          CFI (cfiCond243) DPH0 load(1, XDATA, add(CFA_XSP16, literal(-1)))
          CFI (cfiCond243) CFA_SP SP+-2
          CFI (cfiCond243) CFA_XSP16 add(XSP16, 10)
          CFI Block cfiCond244 Using cfiCommon0
          CFI (cfiCond244) Function gp_SecurityOperationProxy
          CFI (cfiCond244) Conditional ??CrossCallReturnLabel_166
          CFI (cfiCond244) R6 load(1, XDATA, add(CFA_XSP16, literal(-16)))
          CFI (cfiCond244) VB load(1, XDATA, add(CFA_XSP16, literal(-15)))
          CFI (cfiCond244) V0 load(1, XDATA, add(CFA_XSP16, literal(-14)))
          CFI (cfiCond244) V1 load(1, XDATA, add(CFA_XSP16, literal(-13)))
          CFI (cfiCond244) V2 load(1, XDATA, add(CFA_XSP16, literal(-12)))
          CFI (cfiCond244) V3 load(1, XDATA, add(CFA_XSP16, literal(-11)))
          CFI (cfiCond244) V4 load(1, XDATA, add(CFA_XSP16, literal(-10)))
          CFI (cfiCond244) V5 load(1, XDATA, add(CFA_XSP16, literal(-9)))
          CFI (cfiCond244) V6 load(1, XDATA, add(CFA_XSP16, literal(-8)))
          CFI (cfiCond244) V7 load(1, XDATA, add(CFA_XSP16, literal(-7)))
          CFI (cfiCond244) R7 load(1, XDATA, add(CFA_XSP16, literal(-6)))
          CFI (cfiCond244) ?RET_LOW load(1, XDATA, add(CFA_XSP16, literal(-5)))
          CFI (cfiCond244) ?RET_HIGH load(1, XDATA, add(CFA_XSP16, literal(-4)))
          CFI (cfiCond244) ?BRET_EXT load(1, XDATA, add(CFA_XSP16, literal(-3)))
          CFI (cfiCond244) DPL0 load(1, XDATA, add(CFA_XSP16, literal(-2)))
          CFI (cfiCond244) DPH0 load(1, XDATA, add(CFA_XSP16, literal(-1)))
          CFI (cfiCond244) CFA_SP SP+-2
          CFI (cfiCond244) CFA_XSP16 add(XSP16, 94)
          CFI Block cfiCond245 Using cfiCommon0
          CFI (cfiCond245) Function gp_SecurityOperationProxy
          CFI (cfiCond245) Conditional ??CrossCallReturnLabel_167
          CFI (cfiCond245) R6 load(1, XDATA, add(CFA_XSP16, literal(-16)))
          CFI (cfiCond245) VB load(1, XDATA, add(CFA_XSP16, literal(-15)))
          CFI (cfiCond245) V0 load(1, XDATA, add(CFA_XSP16, literal(-14)))
          CFI (cfiCond245) V1 load(1, XDATA, add(CFA_XSP16, literal(-13)))
          CFI (cfiCond245) V2 load(1, XDATA, add(CFA_XSP16, literal(-12)))
          CFI (cfiCond245) V3 load(1, XDATA, add(CFA_XSP16, literal(-11)))
          CFI (cfiCond245) V4 load(1, XDATA, add(CFA_XSP16, literal(-10)))
          CFI (cfiCond245) V5 load(1, XDATA, add(CFA_XSP16, literal(-9)))
          CFI (cfiCond245) V6 load(1, XDATA, add(CFA_XSP16, literal(-8)))
          CFI (cfiCond245) V7 load(1, XDATA, add(CFA_XSP16, literal(-7)))
          CFI (cfiCond245) R7 load(1, XDATA, add(CFA_XSP16, literal(-6)))
          CFI (cfiCond245) ?RET_LOW load(1, XDATA, add(CFA_XSP16, literal(-5)))
          CFI (cfiCond245) ?RET_HIGH load(1, XDATA, add(CFA_XSP16, literal(-4)))
          CFI (cfiCond245) ?BRET_EXT load(1, XDATA, add(CFA_XSP16, literal(-3)))
          CFI (cfiCond245) DPL0 load(1, XDATA, add(CFA_XSP16, literal(-2)))
          CFI (cfiCond245) DPH0 load(1, XDATA, add(CFA_XSP16, literal(-1)))
          CFI (cfiCond245) CFA_SP SP+-2
          CFI (cfiCond245) CFA_XSP16 add(XSP16, 97)
          CFI Block cfiCond246 Using cfiCommon0
          CFI (cfiCond246) Function gp_SecurityOperationProxy
          CFI (cfiCond246) Conditional ??CrossCallReturnLabel_168
          CFI (cfiCond246) R6 load(1, XDATA, add(CFA_XSP16, literal(-16)))
          CFI (cfiCond246) VB load(1, XDATA, add(CFA_XSP16, literal(-15)))
          CFI (cfiCond246) V0 load(1, XDATA, add(CFA_XSP16, literal(-14)))
          CFI (cfiCond246) V1 load(1, XDATA, add(CFA_XSP16, literal(-13)))
          CFI (cfiCond246) V2 load(1, XDATA, add(CFA_XSP16, literal(-12)))
          CFI (cfiCond246) V3 load(1, XDATA, add(CFA_XSP16, literal(-11)))
          CFI (cfiCond246) V4 load(1, XDATA, add(CFA_XSP16, literal(-10)))
          CFI (cfiCond246) V5 load(1, XDATA, add(CFA_XSP16, literal(-9)))
          CFI (cfiCond246) V6 load(1, XDATA, add(CFA_XSP16, literal(-8)))
          CFI (cfiCond246) V7 load(1, XDATA, add(CFA_XSP16, literal(-7)))
          CFI (cfiCond246) R7 load(1, XDATA, add(CFA_XSP16, literal(-6)))
          CFI (cfiCond246) ?RET_LOW load(1, XDATA, add(CFA_XSP16, literal(-5)))
          CFI (cfiCond246) ?RET_HIGH load(1, XDATA, add(CFA_XSP16, literal(-4)))
          CFI (cfiCond246) ?BRET_EXT load(1, XDATA, add(CFA_XSP16, literal(-3)))
          CFI (cfiCond246) DPL0 load(1, XDATA, add(CFA_XSP16, literal(-2)))
          CFI (cfiCond246) DPH0 load(1, XDATA, add(CFA_XSP16, literal(-1)))
          CFI (cfiCond246) CFA_SP SP+-2
          CFI (cfiCond246) CFA_XSP16 add(XSP16, 97)
          CFI Block cfiCond247 Using cfiCommon0
          CFI (cfiCond247) Function GP_DataInd
          CFI (cfiCond247) Conditional ??CrossCallReturnLabel_169
          CFI (cfiCond247) R6 load(1, XDATA, add(CFA_XSP16, literal(-14)))
          CFI (cfiCond247) VB load(1, XDATA, add(CFA_XSP16, literal(-13)))
          CFI (cfiCond247) V0 load(1, XDATA, add(CFA_XSP16, literal(-12)))
          CFI (cfiCond247) V1 load(1, XDATA, add(CFA_XSP16, literal(-11)))
          CFI (cfiCond247) V2 load(1, XDATA, add(CFA_XSP16, literal(-10)))
          CFI (cfiCond247) V3 load(1, XDATA, add(CFA_XSP16, literal(-9)))
          CFI (cfiCond247) V4 load(1, XDATA, add(CFA_XSP16, literal(-8)))
          CFI (cfiCond247) V5 load(1, XDATA, add(CFA_XSP16, literal(-7)))
          CFI (cfiCond247) R7 load(1, XDATA, add(CFA_XSP16, literal(-6)))
          CFI (cfiCond247) ?RET_LOW load(1, XDATA, add(CFA_XSP16, literal(-5)))
          CFI (cfiCond247) ?RET_HIGH load(1, XDATA, add(CFA_XSP16, literal(-4)))
          CFI (cfiCond247) ?BRET_EXT load(1, XDATA, add(CFA_XSP16, literal(-3)))
          CFI (cfiCond247) DPL0 load(1, XDATA, add(CFA_XSP16, literal(-2)))
          CFI (cfiCond247) DPH0 load(1, XDATA, add(CFA_XSP16, literal(-1)))
          CFI (cfiCond247) CFA_SP SP+-2
          CFI (cfiCond247) CFA_XSP16 add(XSP16, 150)
          CFI Block cfiCond248 Using cfiCommon0
          CFI (cfiCond248) Function GP_RecoveryKey
          CFI (cfiCond248) Conditional ??CrossCallReturnLabel_170
          CFI (cfiCond248) R6 load(1, XDATA, add(CFA_XSP16, literal(-15)))
          CFI (cfiCond248) VB load(1, XDATA, add(CFA_XSP16, literal(-14)))
          CFI (cfiCond248) V0 load(1, XDATA, add(CFA_XSP16, literal(-13)))
          CFI (cfiCond248) V1 load(1, XDATA, add(CFA_XSP16, literal(-12)))
          CFI (cfiCond248) V2 load(1, XDATA, add(CFA_XSP16, literal(-11)))
          CFI (cfiCond248) V3 load(1, XDATA, add(CFA_XSP16, literal(-10)))
          CFI (cfiCond248) V4 load(1, XDATA, add(CFA_XSP16, literal(-9)))
          CFI (cfiCond248) V5 load(1, XDATA, add(CFA_XSP16, literal(-8)))
          CFI (cfiCond248) V6 load(1, XDATA, add(CFA_XSP16, literal(-7)))
          CFI (cfiCond248) R7 load(1, XDATA, add(CFA_XSP16, literal(-6)))
          CFI (cfiCond248) ?RET_LOW load(1, XDATA, add(CFA_XSP16, literal(-5)))
          CFI (cfiCond248) ?RET_HIGH load(1, XDATA, add(CFA_XSP16, literal(-4)))
          CFI (cfiCond248) ?BRET_EXT load(1, XDATA, add(CFA_XSP16, literal(-3)))
          CFI (cfiCond248) DPL0 load(1, XDATA, add(CFA_XSP16, literal(-2)))
          CFI (cfiCond248) DPH0 load(1, XDATA, add(CFA_XSP16, literal(-1)))
          CFI (cfiCond248) CFA_SP SP+-2
          CFI (cfiCond248) CFA_XSP16 add(XSP16, 39)
          CFI Block cfiCond249 Using cfiCommon0
          CFI (cfiCond249) Function zclGp_GpProxyTableReqCB
          CFI (cfiCond249) Conditional ??CrossCallReturnLabel_171
          CFI (cfiCond249) R6 load(1, XDATA, add(CFA_XSP16, literal(-15)))
          CFI (cfiCond249) VB load(1, XDATA, add(CFA_XSP16, literal(-14)))
          CFI (cfiCond249) V0 load(1, XDATA, add(CFA_XSP16, literal(-13)))
          CFI (cfiCond249) V1 load(1, XDATA, add(CFA_XSP16, literal(-12)))
          CFI (cfiCond249) V2 load(1, XDATA, add(CFA_XSP16, literal(-11)))
          CFI (cfiCond249) V3 load(1, XDATA, add(CFA_XSP16, literal(-10)))
          CFI (cfiCond249) V4 load(1, XDATA, add(CFA_XSP16, literal(-9)))
          CFI (cfiCond249) V5 load(1, XDATA, add(CFA_XSP16, literal(-8)))
          CFI (cfiCond249) V6 load(1, XDATA, add(CFA_XSP16, literal(-7)))
          CFI (cfiCond249) R7 load(1, XDATA, add(CFA_XSP16, literal(-6)))
          CFI (cfiCond249) ?RET_LOW load(1, XDATA, add(CFA_XSP16, literal(-5)))
          CFI (cfiCond249) ?RET_HIGH load(1, XDATA, add(CFA_XSP16, literal(-4)))
          CFI (cfiCond249) ?BRET_EXT load(1, XDATA, add(CFA_XSP16, literal(-3)))
          CFI (cfiCond249) DPL0 load(1, XDATA, add(CFA_XSP16, literal(-2)))
          CFI (cfiCond249) DPH0 load(1, XDATA, add(CFA_XSP16, literal(-1)))
          CFI (cfiCond249) CFA_SP SP+-2
          CFI (cfiCond249) CFA_XSP16 add(XSP16, 181)
          CFI Block cfiCond250 Using cfiCommon0
          CFI (cfiCond250) Function zclGp_GpProxyTableReqCB
          CFI (cfiCond250) Conditional ??CrossCallReturnLabel_172
          CFI (cfiCond250) R6 load(1, XDATA, add(CFA_XSP16, literal(-15)))
          CFI (cfiCond250) VB load(1, XDATA, add(CFA_XSP16, literal(-14)))
          CFI (cfiCond250) V0 load(1, XDATA, add(CFA_XSP16, literal(-13)))
          CFI (cfiCond250) V1 load(1, XDATA, add(CFA_XSP16, literal(-12)))
          CFI (cfiCond250) V2 load(1, XDATA, add(CFA_XSP16, literal(-11)))
          CFI (cfiCond250) V3 load(1, XDATA, add(CFA_XSP16, literal(-10)))
          CFI (cfiCond250) V4 load(1, XDATA, add(CFA_XSP16, literal(-9)))
          CFI (cfiCond250) V5 load(1, XDATA, add(CFA_XSP16, literal(-8)))
          CFI (cfiCond250) V6 load(1, XDATA, add(CFA_XSP16, literal(-7)))
          CFI (cfiCond250) R7 load(1, XDATA, add(CFA_XSP16, literal(-6)))
          CFI (cfiCond250) ?RET_LOW load(1, XDATA, add(CFA_XSP16, literal(-5)))
          CFI (cfiCond250) ?RET_HIGH load(1, XDATA, add(CFA_XSP16, literal(-4)))
          CFI (cfiCond250) ?BRET_EXT load(1, XDATA, add(CFA_XSP16, literal(-3)))
          CFI (cfiCond250) DPL0 load(1, XDATA, add(CFA_XSP16, literal(-2)))
          CFI (cfiCond250) DPH0 load(1, XDATA, add(CFA_XSP16, literal(-1)))
          CFI (cfiCond250) CFA_SP SP+-2
          CFI (cfiCond250) CFA_XSP16 add(XSP16, 181)
          CFI Block cfiPicker251 Using cfiCommon1
          CFI (cfiPicker251) NoFunction
          CFI (cfiPicker251) Picker
        MOVX      A,@DPTR
        MOV       R2,A
        INC       DPTR
        MOVX      A,@DPTR
        MOV       R3,A
        RET
          CFI EndBlock cfiCond237
          CFI EndBlock cfiCond238
          CFI EndBlock cfiCond239
          CFI EndBlock cfiCond240
          CFI EndBlock cfiCond241
          CFI EndBlock cfiCond242
          CFI EndBlock cfiCond243
          CFI EndBlock cfiCond244
          CFI EndBlock cfiCond245
          CFI EndBlock cfiCond246
          CFI EndBlock cfiCond247
          CFI EndBlock cfiCond248
          CFI EndBlock cfiCond249
          CFI EndBlock cfiCond250
          CFI EndBlock cfiPicker251

        RSEG BANKED_CODE:HUGECODE:NOROOT(0)
?Subroutine51:
          CFI Block cfiCond252 Using cfiCommon0
          CFI Function zclGp_DataIndParse
          CFI Conditional ??CrossCallReturnLabel_89, ??CrossCallReturnLabel_35
          CFI R6 load(1, XDATA, add(CFA_XSP16, literal(-15)))
          CFI VB load(1, XDATA, add(CFA_XSP16, literal(-14)))
          CFI V0 load(1, XDATA, add(CFA_XSP16, literal(-13)))
          CFI V1 load(1, XDATA, add(CFA_XSP16, literal(-12)))
          CFI V2 load(1, XDATA, add(CFA_XSP16, literal(-11)))
          CFI V3 load(1, XDATA, add(CFA_XSP16, literal(-10)))
          CFI V4 load(1, XDATA, add(CFA_XSP16, literal(-9)))
          CFI V5 load(1, XDATA, add(CFA_XSP16, literal(-8)))
          CFI V6 load(1, XDATA, add(CFA_XSP16, literal(-7)))
          CFI R7 load(1, XDATA, add(CFA_XSP16, literal(-6)))
          CFI ?RET_LOW load(1, XDATA, add(CFA_XSP16, literal(-5)))
          CFI ?RET_HIGH load(1, XDATA, add(CFA_XSP16, literal(-4)))
          CFI ?BRET_EXT load(1, XDATA, add(CFA_XSP16, literal(-3)))
          CFI DPL0 load(1, XDATA, add(CFA_XSP16, literal(-2)))
          CFI DPH0 load(1, XDATA, add(CFA_XSP16, literal(-1)))
          CFI CFA_SP SP+-4
          CFI CFA_XSP16 add(XSP16, 89)
          CFI Block cfiCond253 Using cfiCommon0
          CFI (cfiCond253) Function gp_SecurityOperationProxy
          CFI (cfiCond253) Conditional ??CrossCallReturnLabel_89, ??CrossCallReturnLabel_36
          CFI (cfiCond253) R6 load(1, XDATA, add(CFA_XSP16, literal(-16)))
          CFI (cfiCond253) VB load(1, XDATA, add(CFA_XSP16, literal(-15)))
          CFI (cfiCond253) V0 load(1, XDATA, add(CFA_XSP16, literal(-14)))
          CFI (cfiCond253) V1 load(1, XDATA, add(CFA_XSP16, literal(-13)))
          CFI (cfiCond253) V2 load(1, XDATA, add(CFA_XSP16, literal(-12)))
          CFI (cfiCond253) V3 load(1, XDATA, add(CFA_XSP16, literal(-11)))
          CFI (cfiCond253) V4 load(1, XDATA, add(CFA_XSP16, literal(-10)))
          CFI (cfiCond253) V5 load(1, XDATA, add(CFA_XSP16, literal(-9)))
          CFI (cfiCond253) V6 load(1, XDATA, add(CFA_XSP16, literal(-8)))
          CFI (cfiCond253) V7 load(1, XDATA, add(CFA_XSP16, literal(-7)))
          CFI (cfiCond253) R7 load(1, XDATA, add(CFA_XSP16, literal(-6)))
          CFI (cfiCond253) ?RET_LOW load(1, XDATA, add(CFA_XSP16, literal(-5)))
          CFI (cfiCond253) ?RET_HIGH load(1, XDATA, add(CFA_XSP16, literal(-4)))
          CFI (cfiCond253) ?BRET_EXT load(1, XDATA, add(CFA_XSP16, literal(-3)))
          CFI (cfiCond253) DPL0 load(1, XDATA, add(CFA_XSP16, literal(-2)))
          CFI (cfiCond253) DPH0 load(1, XDATA, add(CFA_XSP16, literal(-1)))
          CFI (cfiCond253) CFA_SP SP+-4
          CFI (cfiCond253) CFA_XSP16 add(XSP16, 97)
          CFI Block cfiCond254 Using cfiCommon0
          CFI (cfiCond254) Function zclGp_GpProxyTableReqCB
          CFI (cfiCond254) Conditional ??CrossCallReturnLabel_88, ??CrossCallReturnLabel_171
          CFI (cfiCond254) R6 load(1, XDATA, add(CFA_XSP16, literal(-15)))
          CFI (cfiCond254) VB load(1, XDATA, add(CFA_XSP16, literal(-14)))
          CFI (cfiCond254) V0 load(1, XDATA, add(CFA_XSP16, literal(-13)))
          CFI (cfiCond254) V1 load(1, XDATA, add(CFA_XSP16, literal(-12)))
          CFI (cfiCond254) V2 load(1, XDATA, add(CFA_XSP16, literal(-11)))
          CFI (cfiCond254) V3 load(1, XDATA, add(CFA_XSP16, literal(-10)))
          CFI (cfiCond254) V4 load(1, XDATA, add(CFA_XSP16, literal(-9)))
          CFI (cfiCond254) V5 load(1, XDATA, add(CFA_XSP16, literal(-8)))
          CFI (cfiCond254) V6 load(1, XDATA, add(CFA_XSP16, literal(-7)))
          CFI (cfiCond254) R7 load(1, XDATA, add(CFA_XSP16, literal(-6)))
          CFI (cfiCond254) ?RET_LOW load(1, XDATA, add(CFA_XSP16, literal(-5)))
          CFI (cfiCond254) ?RET_HIGH load(1, XDATA, add(CFA_XSP16, literal(-4)))
          CFI (cfiCond254) ?BRET_EXT load(1, XDATA, add(CFA_XSP16, literal(-3)))
          CFI (cfiCond254) DPL0 load(1, XDATA, add(CFA_XSP16, literal(-2)))
          CFI (cfiCond254) DPH0 load(1, XDATA, add(CFA_XSP16, literal(-1)))
          CFI (cfiCond254) CFA_SP SP+-4
          CFI (cfiCond254) CFA_XSP16 add(XSP16, 181)
          CFI Block cfiCond255 Using cfiCommon0
          CFI (cfiCond255) Function zclGp_GpProxyTableReqCB
          CFI (cfiCond255) Conditional ??CrossCallReturnLabel_88, ??CrossCallReturnLabel_172
          CFI (cfiCond255) R6 load(1, XDATA, add(CFA_XSP16, literal(-15)))
          CFI (cfiCond255) VB load(1, XDATA, add(CFA_XSP16, literal(-14)))
          CFI (cfiCond255) V0 load(1, XDATA, add(CFA_XSP16, literal(-13)))
          CFI (cfiCond255) V1 load(1, XDATA, add(CFA_XSP16, literal(-12)))
          CFI (cfiCond255) V2 load(1, XDATA, add(CFA_XSP16, literal(-11)))
          CFI (cfiCond255) V3 load(1, XDATA, add(CFA_XSP16, literal(-10)))
          CFI (cfiCond255) V4 load(1, XDATA, add(CFA_XSP16, literal(-9)))
          CFI (cfiCond255) V5 load(1, XDATA, add(CFA_XSP16, literal(-8)))
          CFI (cfiCond255) V6 load(1, XDATA, add(CFA_XSP16, literal(-7)))
          CFI (cfiCond255) R7 load(1, XDATA, add(CFA_XSP16, literal(-6)))
          CFI (cfiCond255) ?RET_LOW load(1, XDATA, add(CFA_XSP16, literal(-5)))
          CFI (cfiCond255) ?RET_HIGH load(1, XDATA, add(CFA_XSP16, literal(-4)))
          CFI (cfiCond255) ?BRET_EXT load(1, XDATA, add(CFA_XSP16, literal(-3)))
          CFI (cfiCond255) DPL0 load(1, XDATA, add(CFA_XSP16, literal(-2)))
          CFI (cfiCond255) DPH0 load(1, XDATA, add(CFA_XSP16, literal(-1)))
          CFI (cfiCond255) CFA_SP SP+-4
          CFI (cfiCond255) CFA_XSP16 add(XSP16, 181)
          CFI Block cfiPicker256 Using cfiCommon1
          CFI (cfiPicker256) NoFunction
          CFI (cfiPicker256) Picker
        MOVX      A,@DPTR
        MOV       R0,A
        INC       DPTR
        MOVX      A,@DPTR
        MOV       DPH,A
        MOV       DPL,R0
        RET
          CFI EndBlock cfiCond252
          CFI EndBlock cfiCond253
          CFI EndBlock cfiCond254
          CFI EndBlock cfiCond255
          CFI EndBlock cfiPicker256

        RSEG BANKED_CODE:HUGECODE:NOROOT(0)
?Subroutine7:
          CFI Block cfiCond257 Using cfiCommon0
          CFI Function gp_getProxyTableByGpId
          CFI Conditional ??CrossCallReturnLabel_5
          CFI R6 load(1, XDATA, add(CFA_XSP16, literal(-15)))
          CFI VB load(1, XDATA, add(CFA_XSP16, literal(-14)))
          CFI V0 load(1, XDATA, add(CFA_XSP16, literal(-13)))
          CFI V1 load(1, XDATA, add(CFA_XSP16, literal(-12)))
          CFI V2 load(1, XDATA, add(CFA_XSP16, literal(-11)))
          CFI V3 load(1, XDATA, add(CFA_XSP16, literal(-10)))
          CFI V4 load(1, XDATA, add(CFA_XSP16, literal(-9)))
          CFI V5 load(1, XDATA, add(CFA_XSP16, literal(-8)))
          CFI V6 load(1, XDATA, add(CFA_XSP16, literal(-7)))
          CFI R7 load(1, XDATA, add(CFA_XSP16, literal(-6)))
          CFI ?RET_LOW load(1, XDATA, add(CFA_XSP16, literal(-5)))
          CFI ?RET_HIGH load(1, XDATA, add(CFA_XSP16, literal(-4)))
          CFI ?BRET_EXT load(1, XDATA, add(CFA_XSP16, literal(-3)))
          CFI DPL0 load(1, XDATA, add(CFA_XSP16, literal(-2)))
          CFI DPH0 load(1, XDATA, add(CFA_XSP16, literal(-1)))
          CFI CFA_SP SP+-2
          CFI CFA_XSP16 add(XSP16, 19)
          CFI Block cfiCond258 Using cfiCommon0
          CFI (cfiCond258) Function gp_SecurityOperationProxy
          CFI (cfiCond258) Conditional ??CrossCallReturnLabel_6
          CFI (cfiCond258) R6 load(1, XDATA, add(CFA_XSP16, literal(-16)))
          CFI (cfiCond258) VB load(1, XDATA, add(CFA_XSP16, literal(-15)))
          CFI (cfiCond258) V0 load(1, XDATA, add(CFA_XSP16, literal(-14)))
          CFI (cfiCond258) V1 load(1, XDATA, add(CFA_XSP16, literal(-13)))
          CFI (cfiCond258) V2 load(1, XDATA, add(CFA_XSP16, literal(-12)))
          CFI (cfiCond258) V3 load(1, XDATA, add(CFA_XSP16, literal(-11)))
          CFI (cfiCond258) V4 load(1, XDATA, add(CFA_XSP16, literal(-10)))
          CFI (cfiCond258) V5 load(1, XDATA, add(CFA_XSP16, literal(-9)))
          CFI (cfiCond258) V6 load(1, XDATA, add(CFA_XSP16, literal(-8)))
          CFI (cfiCond258) V7 load(1, XDATA, add(CFA_XSP16, literal(-7)))
          CFI (cfiCond258) R7 load(1, XDATA, add(CFA_XSP16, literal(-6)))
          CFI (cfiCond258) ?RET_LOW load(1, XDATA, add(CFA_XSP16, literal(-5)))
          CFI (cfiCond258) ?RET_HIGH load(1, XDATA, add(CFA_XSP16, literal(-4)))
          CFI (cfiCond258) ?BRET_EXT load(1, XDATA, add(CFA_XSP16, literal(-3)))
          CFI (cfiCond258) DPL0 load(1, XDATA, add(CFA_XSP16, literal(-2)))
          CFI (cfiCond258) DPH0 load(1, XDATA, add(CFA_XSP16, literal(-1)))
          CFI (cfiCond258) CFA_SP SP+-2
          CFI (cfiCond258) CFA_XSP16 add(XSP16, 94)
          CFI Block cfiPicker259 Using cfiCommon1
          CFI (cfiPicker259) NoFunction
          CFI (cfiPicker259) Picker
        LCALL     ?Subroutine50 & 0xFFFF
??CrossCallReturnLabel_87:
        MOV       R1,A
        MOV       A,R0
        ORL       A,R1
        RET
          CFI EndBlock cfiCond257
          CFI EndBlock cfiCond258
          CFI EndBlock cfiPicker259
// 1605 
// 1606  /*********************************************************************
// 1607  * @fn          gp_u32CastPointer
// 1608  *
// 1609  * @brief       General function fill uint32 from pionter.
// 1610  *
// 1611  * @param       pBitField - pointer to the bit field.
// 1612  *              bit       - position of the bit to set in the given bitfield.
// 1613  *
// 1614  * @return      
// 1615  */
// 1616 static void gp_u32CastPointer( uint8 *data, uint8 *p )
// 1617 {
// 1618     *( uint32* )data |= ( ( *( uint32* ) p++ )       & 0x000000FF );
// 1619     *( uint32* )data |= ( ( *( uint32* ) p++ <<  8 ) & 0x0000FF00 );
// 1620     *( uint32* )data |= ( ( *( uint32* ) p++ << 16 ) & 0x00FF0000 );
// 1621     *( uint32* )data |= ( ( *( uint32* ) p++ << 24 ) & 0xFF000000 );
// 1622 }
// 1623 
// 1624  /*********************************************************************
// 1625  * @fn          gp_u16CastPointer
// 1626  *
// 1627  * @brief       General function fill uint16 from pionter.
// 1628  *
// 1629  * @param       pBitField - pointer to the bit field.
// 1630  *              bit       - position of the bit to set in the given bitfield.
// 1631  *
// 1632  * @return      
// 1633  */
// 1634 static void gp_u16CastPointer( uint8 *data, uint8 *p )
// 1635 {
// 1636     *( uint16* )data |= ( ( *( uint16* ) p++ )       & 0x00FF );
// 1637     *( uint16* )data |= ( ( *( uint16* ) p++ <<  8 ) & 0xFF00 );
// 1638 }
// 1639 
// 1640  /*********************************************************************
// 1641  * @fn          gp_u8CastPointer
// 1642  *
// 1643  * @brief       General function fill uint16 from pionter.
// 1644  *
// 1645  * @param       pBitField - pointer to the bit field.
// 1646  *              bit       - position of the bit to set in the given bitfield.
// 1647  *
// 1648  * @return      
// 1649  */
// 1650 static void gp_u8CastPointer( uint8 *data, uint8 *p )
// 1651 {
// 1652     *( uint8* )data |= ( ( *( uint8* ) p ) );
// 1653 }
// 1654 
// 1655  /*********************************************************************
// 1656  * @fn          gp_getProxyTableByIndex
// 1657  *
// 1658  * @brief       General function to get proxy table entry by NV index
// 1659  *
// 1660  * @param       nvIndex - NV Id of proxy table
// 1661  *              pEntry  - pointer to PROXY_TBL_ENTRY_LEN array
// 1662  *
// 1663  * @return      
// 1664  */

        RSEG BANKED_CODE:HUGECODE:NOROOT(0)
// 1665 uint8 gp_getProxyTableByIndex( uint16 nvIndex, uint8 *pEntry )
gp_getProxyTableByIndex:
          CFI Block cfiBlock260 Using cfiCommon0
          CFI Function gp_getProxyTableByIndex
        CODE
// 1666 {
        FUNCALL gp_getProxyTableByIndex, osal_nv_read
        LOCFRAME ISTACK, 0, STACK
        LOCFRAME PSTACK, 0, STACK
        LOCFRAME XSTACK, 20, STACK
        LOCFRAME IOVERLAY, 0, STATIC
        LOCFRAME DOVERLAY, 0, STATIC
        ARGFRAME ISTACK, 0, STACK
        ARGFRAME PSTACK, 0, STACK
        ARGFRAME XSTACK, 20, STACK
        ARGFRAME IOVERLAY, 0, STATIC
        ARGFRAME DOVERLAY, 0, STATIC
        FUNCALL gp_getProxyTableByIndex, osal_memcmp
        LOCFRAME ISTACK, 0, STACK
        LOCFRAME PSTACK, 0, STACK
        LOCFRAME XSTACK, 19, STACK
        LOCFRAME IOVERLAY, 0, STATIC
        LOCFRAME DOVERLAY, 0, STATIC
        ARGFRAME ISTACK, 0, STACK
        ARGFRAME PSTACK, 0, STACK
        ARGFRAME XSTACK, 19, STACK
        ARGFRAME IOVERLAY, 0, STATIC
        ARGFRAME DOVERLAY, 0, STATIC
        REQUIRE ?V0
        REQUIRE ?V1
        REQUIRE ?V2
        REQUIRE ?V4
        REQUIRE ?V5
        MOV       A,#-0xe
        LCALL     ?BANKED_ENTER_XDATA
          CFI DPH0 load(1, XDATA, add(CFA_XSP16, literal(-1)))
          CFI DPL0 load(1, XDATA, add(CFA_XSP16, literal(-2)))
          CFI ?BRET_EXT load(1, XDATA, add(CFA_XSP16, literal(-3)))
          CFI ?RET_HIGH load(1, XDATA, add(CFA_XSP16, literal(-4)))
          CFI ?RET_LOW load(1, XDATA, add(CFA_XSP16, literal(-5)))
          CFI R7 load(1, XDATA, add(CFA_XSP16, literal(-6)))
          CFI V5 load(1, XDATA, add(CFA_XSP16, literal(-7)))
          CFI V4 load(1, XDATA, add(CFA_XSP16, literal(-8)))
          CFI V3 load(1, XDATA, add(CFA_XSP16, literal(-9)))
          CFI V2 load(1, XDATA, add(CFA_XSP16, literal(-10)))
          CFI V1 load(1, XDATA, add(CFA_XSP16, literal(-11)))
          CFI V0 load(1, XDATA, add(CFA_XSP16, literal(-12)))
          CFI VB load(1, XDATA, add(CFA_XSP16, literal(-13)))
          CFI R6 load(1, XDATA, add(CFA_XSP16, literal(-14)))
          CFI CFA_SP SP+0
          CFI CFA_XSP16 add(XSP16, 14)
        ; Saved register size: 14
        ; Auto size: 2
        MOV       A,#-0x2
        LCALL     ?ALLOC_XSTACK8
          CFI CFA_XSP16 add(XSP16, 16)
        MOV       ?V4,R4
        MOV       ?V5,R5
// 1667   uint8 status;
// 1668   uint16 emptyEntry = 0xFFFF;
        MOV       DPL,?XSP + 0
        MOV       DPH,?XSP + 1
        MOV       A,#-0x1
        MOVX      @DPTR,A
        INC       DPTR
        MOVX      @DPTR,A
// 1669   
// 1670   
// 1671   if ( ( nvIndex < ZCD_NV_PROXY_TABLE_START ) || ( nvIndex > ZCD_NV_PROXY_TABLE_END ) )
        MOV       A,R2
        ADD       A,#-0x10
        MOV       R0,A
        MOV       A,R3
        ADDC      A,#-0x4
        MOV       R1,A
        CLR       C
        MOV       A,R0
        SUBB      A,#0x30
        MOV       A,R1
        SUBB      A,#0x0
        JC        ??gp_getProxyTableByIndex_0
// 1672   {
// 1673     return NV_OPER_FAILED;
        MOV       R1,#0xa
        SJMP      ??gp_getProxyTableByIndex_1
// 1674   }
// 1675   
// 1676   status = osal_nv_read( nvIndex, 0,
// 1677                           PROXY_TBL_ENTRY_LEN, pEntry );
??gp_getProxyTableByIndex_0:
        ; Setup parameters for call to function osal_nv_read
        MOV       R0,#?V4
        LCALL     ?PUSH_XSTACK_I_TWO
          CFI CFA_XSP16 add(XSP16, 18)
        MOV       ?V0,#0x41
        MOV       ?V1,#0x0
        MOV       R0,#?V0
        LCALL     ?PUSH_XSTACK_I_TWO
          CFI CFA_XSP16 add(XSP16, 20)
        MOV       R4,#0x0
        MOV       R5,#0x0
        LCALL     `??osal_nv_read::?relay`; Banked call to: osal_nv_read
        MOV       A,#0x4
        LCALL     ?DEALLOC_XSTACK8
          CFI CFA_XSP16 add(XSP16, 16)
        MOV       A,R1
        MOV       R6,A
// 1678   
// 1679   if ( status != SUCCESS )
        JNZ       ??gp_getProxyTableByIndex_2
// 1680   {
// 1681     // Return the failure status of NV read procedure
// 1682     return status;
// 1683   }
// 1684     
// 1685       
// 1686   // if the entry is empty
// 1687   if ( osal_memcmp( pEntry, &emptyEntry, sizeof ( uint16 ) ) )
        ; Setup parameters for call to function osal_memcmp
        MOV       R0,?XSP + 0
        MOV       R1,?XSP + 1
        MOV       ?V0,R0
        MOV       ?V1,R1
        MOV       ?V2,#0x0
        MOV       R0,#?V0
        LCALL     ?PUSH_XSTACK_I_THREE
          CFI CFA_XSP16 add(XSP16, 19)
        MOV       R4,#0x2
        MOV       R5,#0x0
        MOV       DPL,?V4
        MOV       DPH,?V5
        MOV       R1,DPL
        MOV       R2,DPH
        MOV       R3,#0x0
        LCALL     `??osal_memcmp::?relay`; Banked call to: osal_memcmp
        MOV       A,#0x3
        LCALL     ?DEALLOC_XSTACK8
          CFI CFA_XSP16 add(XSP16, 16)
        MOV       A,R1
        JZ        ??gp_getProxyTableByIndex_2
// 1688   {
// 1689     return NV_INVALID_DATA;
        MOV       R1,#0xd
        SJMP      ??gp_getProxyTableByIndex_1
// 1690   }
// 1691   
// 1692   return status;
??gp_getProxyTableByIndex_2:
        MOV       A,R6
        MOV       R1,A
??gp_getProxyTableByIndex_1:
        MOV       A,#0x2
          CFI EndBlock cfiBlock260
        REQUIRE ?Subroutine3
        ; // Fall through to label ?Subroutine3
// 1693 }

        RSEG BANKED_CODE:HUGECODE:NOROOT(0)
?Subroutine3:
          CFI Block cfiBlock261 Using cfiCommon0
          CFI NoFunction
          CFI CFA_SP SP+0
          CFI CFA_XSP16 add(XSP16, 16)
          CFI VB load(1, XDATA, add(CFA_XSP16, literal(-13)))
          CFI DPL0 load(1, XDATA, add(CFA_XSP16, literal(-2)))
          CFI DPH0 load(1, XDATA, add(CFA_XSP16, literal(-1)))
          CFI R6 load(1, XDATA, add(CFA_XSP16, literal(-14)))
          CFI R7 load(1, XDATA, add(CFA_XSP16, literal(-6)))
          CFI V0 load(1, XDATA, add(CFA_XSP16, literal(-12)))
          CFI V1 load(1, XDATA, add(CFA_XSP16, literal(-11)))
          CFI V2 load(1, XDATA, add(CFA_XSP16, literal(-10)))
          CFI V3 load(1, XDATA, add(CFA_XSP16, literal(-9)))
          CFI V4 load(1, XDATA, add(CFA_XSP16, literal(-8)))
          CFI V5 load(1, XDATA, add(CFA_XSP16, literal(-7)))
          CFI ?BRET_EXT load(1, XDATA, add(CFA_XSP16, literal(-3)))
          CFI ?RET_HIGH load(1, XDATA, add(CFA_XSP16, literal(-4)))
          CFI ?RET_LOW load(1, XDATA, add(CFA_XSP16, literal(-5)))
          CFI Invalid
        LCALL     ?DEALLOC_XSTACK8
          CFI EndBlock cfiBlock261
        REQUIRE ??Subroutine69_0
        ; // Fall through to label ??Subroutine69_0

        RSEG BANKED_CODE:HUGECODE:NOROOT(0)
??Subroutine69_0:
          CFI Block cfiBlock262 Using cfiCommon0
          CFI NoFunction
          CFI CFA_SP SP+0
          CFI CFA_XSP16 add(XSP16, 14)
          CFI VB load(1, XDATA, add(CFA_XSP16, literal(-13)))
          CFI DPL0 load(1, XDATA, add(CFA_XSP16, literal(-2)))
          CFI DPH0 load(1, XDATA, add(CFA_XSP16, literal(-1)))
          CFI R6 load(1, XDATA, add(CFA_XSP16, literal(-14)))
          CFI R7 load(1, XDATA, add(CFA_XSP16, literal(-6)))
          CFI V0 load(1, XDATA, add(CFA_XSP16, literal(-12)))
          CFI V1 load(1, XDATA, add(CFA_XSP16, literal(-11)))
          CFI V2 load(1, XDATA, add(CFA_XSP16, literal(-10)))
          CFI V3 load(1, XDATA, add(CFA_XSP16, literal(-9)))
          CFI V4 load(1, XDATA, add(CFA_XSP16, literal(-8)))
          CFI V5 load(1, XDATA, add(CFA_XSP16, literal(-7)))
          CFI ?BRET_EXT load(1, XDATA, add(CFA_XSP16, literal(-3)))
          CFI ?RET_HIGH load(1, XDATA, add(CFA_XSP16, literal(-4)))
          CFI ?RET_LOW load(1, XDATA, add(CFA_XSP16, literal(-5)))
        MOV       R7,#0x6
        LJMP      ?BANKED_LEAVE_XDATA
          CFI EndBlock cfiBlock262
// 1694 
// 1695 /*********************************************************************
// 1696  * @fn          GP_DataInd
// 1697  *
// 1698  * @brief       This passes the MCPS data indications received in MAC to the application
// 1699  *
// 1700  * @param       gp_DataInd
// 1701  *
// 1702  * @return      FreeMsg - TRUE if the message will be released, False if it will 
// 1703  *                        be keeped for duplicate filtering
// 1704  */

        RSEG BANKED_CODE:HUGECODE:NOROOT(0)
// 1705 uint8 GP_DataInd(gp_DataInd_t *gp_DataInd)
GP_DataInd:
          CFI Block cfiBlock263 Using cfiCommon0
          CFI Function GP_DataInd
        CODE
// 1706 {
        FUNCALL GP_DataInd, gp_DataIndAppendToList
        LOCFRAME ISTACK, 0, STACK
        LOCFRAME PSTACK, 0, STACK
        LOCFRAME XSTACK, 146, STACK
        LOCFRAME IOVERLAY, 0, STATIC
        LOCFRAME DOVERLAY, 0, STATIC
        ARGFRAME ISTACK, 0, STACK
        ARGFRAME PSTACK, 0, STACK
        ARGFRAME XSTACK, 146, STACK
        ARGFRAME IOVERLAY, 0, STATIC
        ARGFRAME DOVERLAY, 0, STATIC
        FUNCALL GP_DataInd, osal_get_timeoutEx
        LOCFRAME ISTACK, 0, STACK
        LOCFRAME PSTACK, 0, STACK
        LOCFRAME XSTACK, 146, STACK
        LOCFRAME IOVERLAY, 0, STATIC
        LOCFRAME DOVERLAY, 0, STATIC
        ARGFRAME ISTACK, 0, STACK
        ARGFRAME PSTACK, 0, STACK
        ARGFRAME XSTACK, 146, STACK
        ARGFRAME IOVERLAY, 0, STATIC
        ARGFRAME DOVERLAY, 0, STATIC
        FUNCALL GP_DataInd, osal_start_timerEx
        LOCFRAME ISTACK, 0, STACK
        LOCFRAME PSTACK, 0, STACK
        LOCFRAME XSTACK, 150, STACK
        LOCFRAME IOVERLAY, 0, STATIC
        LOCFRAME DOVERLAY, 0, STATIC
        ARGFRAME ISTACK, 0, STACK
        ARGFRAME PSTACK, 0, STACK
        ARGFRAME XSTACK, 150, STACK
        ARGFRAME IOVERLAY, 0, STATIC
        ARGFRAME DOVERLAY, 0, STATIC
        FUNCALL GP_DataInd, osal_memcpy
        LOCFRAME ISTACK, 0, STACK
        LOCFRAME PSTACK, 0, STACK
        LOCFRAME XSTACK, 149, STACK
        LOCFRAME IOVERLAY, 0, STATIC
        LOCFRAME DOVERLAY, 0, STATIC
        ARGFRAME ISTACK, 0, STACK
        ARGFRAME PSTACK, 0, STACK
        ARGFRAME XSTACK, 149, STACK
        ARGFRAME IOVERLAY, 0, STATIC
        ARGFRAME DOVERLAY, 0, STATIC
        FUNCALL GP_DataInd, gp_getProxyTableByGpId
        LOCFRAME ISTACK, 0, STACK
        LOCFRAME PSTACK, 0, STACK
        LOCFRAME XSTACK, 148, STACK
        LOCFRAME IOVERLAY, 0, STATIC
        LOCFRAME DOVERLAY, 0, STATIC
        ARGFRAME ISTACK, 0, STACK
        ARGFRAME PSTACK, 0, STACK
        ARGFRAME XSTACK, 148, STACK
        ARGFRAME IOVERLAY, 0, STATIC
        ARGFRAME DOVERLAY, 0, STATIC
        FUNCALL GP_DataInd, osal_nv_write
        LOCFRAME ISTACK, 0, STACK
        LOCFRAME PSTACK, 0, STACK
        LOCFRAME XSTACK, 150, STACK
        LOCFRAME IOVERLAY, 0, STATIC
        LOCFRAME DOVERLAY, 0, STATIC
        ARGFRAME ISTACK, 0, STACK
        ARGFRAME PSTACK, 0, STACK
        ARGFRAME XSTACK, 150, STACK
        ARGFRAME IOVERLAY, 0, STATIC
        ARGFRAME DOVERLAY, 0, STATIC
        FUNCALL GP_DataInd, osal_start_timerEx
        LOCFRAME ISTACK, 0, STACK
        LOCFRAME PSTACK, 0, STACK
        LOCFRAME XSTACK, 150, STACK
        LOCFRAME IOVERLAY, 0, STATIC
        LOCFRAME DOVERLAY, 0, STATIC
        ARGFRAME ISTACK, 0, STACK
        ARGFRAME PSTACK, 0, STACK
        ARGFRAME XSTACK, 150, STACK
        ARGFRAME IOVERLAY, 0, STATIC
        ARGFRAME DOVERLAY, 0, STATIC
        FUNCALL GP_DataInd, osal_memset
        LOCFRAME ISTACK, 0, STACK
        LOCFRAME PSTACK, 0, STACK
        LOCFRAME XSTACK, 146, STACK
        LOCFRAME IOVERLAY, 0, STATIC
        LOCFRAME DOVERLAY, 0, STATIC
        ARGFRAME ISTACK, 0, STACK
        ARGFRAME PSTACK, 0, STACK
        ARGFRAME XSTACK, 146, STACK
        ARGFRAME IOVERLAY, 0, STATIC
        ARGFRAME DOVERLAY, 0, STATIC
        FUNCALL GP_DataInd, zclGp_ManteinanceIndParse
        LOCFRAME ISTACK, 0, STACK
        LOCFRAME PSTACK, 0, STACK
        LOCFRAME XSTACK, 146, STACK
        LOCFRAME IOVERLAY, 0, STATIC
        LOCFRAME DOVERLAY, 0, STATIC
        ARGFRAME ISTACK, 0, STACK
        ARGFRAME PSTACK, 0, STACK
        ARGFRAME XSTACK, 146, STACK
        ARGFRAME IOVERLAY, 0, STATIC
        ARGFRAME DOVERLAY, 0, STATIC
        FUNCALL GP_DataInd, zclGp_SendGpCommissioningNotificationCommand
        LOCFRAME ISTACK, 0, STACK
        LOCFRAME PSTACK, 0, STACK
        LOCFRAME XSTACK, 146, STACK
        LOCFRAME IOVERLAY, 0, STATIC
        LOCFRAME DOVERLAY, 0, STATIC
        ARGFRAME ISTACK, 0, STACK
        ARGFRAME PSTACK, 0, STACK
        ARGFRAME XSTACK, 146, STACK
        ARGFRAME IOVERLAY, 0, STATIC
        ARGFRAME DOVERLAY, 0, STATIC
        FUNCALL GP_DataInd, osal_memset
        LOCFRAME ISTACK, 0, STACK
        LOCFRAME PSTACK, 0, STACK
        LOCFRAME XSTACK, 146, STACK
        LOCFRAME IOVERLAY, 0, STATIC
        LOCFRAME DOVERLAY, 0, STATIC
        ARGFRAME ISTACK, 0, STACK
        ARGFRAME PSTACK, 0, STACK
        ARGFRAME XSTACK, 146, STACK
        ARGFRAME IOVERLAY, 0, STATIC
        ARGFRAME DOVERLAY, 0, STATIC
        FUNCALL GP_DataInd, zclGp_DataIndParse
        LOCFRAME ISTACK, 0, STACK
        LOCFRAME PSTACK, 0, STACK
        LOCFRAME XSTACK, 146, STACK
        LOCFRAME IOVERLAY, 0, STATIC
        LOCFRAME DOVERLAY, 0, STATIC
        ARGFRAME ISTACK, 0, STACK
        ARGFRAME PSTACK, 0, STACK
        ARGFRAME XSTACK, 146, STACK
        ARGFRAME IOVERLAY, 0, STATIC
        ARGFRAME DOVERLAY, 0, STATIC
        FUNCALL GP_DataInd, zclGp_SendGpNotificationCommand
        LOCFRAME ISTACK, 0, STACK
        LOCFRAME PSTACK, 0, STACK
        LOCFRAME XSTACK, 146, STACK
        LOCFRAME IOVERLAY, 0, STATIC
        LOCFRAME DOVERLAY, 0, STATIC
        ARGFRAME ISTACK, 0, STACK
        ARGFRAME PSTACK, 0, STACK
        ARGFRAME XSTACK, 146, STACK
        ARGFRAME IOVERLAY, 0, STATIC
        ARGFRAME DOVERLAY, 0, STATIC
        REQUIRE ?V0
        REQUIRE ?V1
        REQUIRE ?V2
        REQUIRE ?V3
        REQUIRE ?V4
        REQUIRE ?V5
        MOV       A,#-0xe
        LCALL     ?BANKED_ENTER_XDATA
          CFI DPH0 load(1, XDATA, add(CFA_XSP16, literal(-1)))
          CFI DPL0 load(1, XDATA, add(CFA_XSP16, literal(-2)))
          CFI ?BRET_EXT load(1, XDATA, add(CFA_XSP16, literal(-3)))
          CFI ?RET_HIGH load(1, XDATA, add(CFA_XSP16, literal(-4)))
          CFI ?RET_LOW load(1, XDATA, add(CFA_XSP16, literal(-5)))
          CFI R7 load(1, XDATA, add(CFA_XSP16, literal(-6)))
          CFI V5 load(1, XDATA, add(CFA_XSP16, literal(-7)))
          CFI V4 load(1, XDATA, add(CFA_XSP16, literal(-8)))
          CFI V3 load(1, XDATA, add(CFA_XSP16, literal(-9)))
          CFI V2 load(1, XDATA, add(CFA_XSP16, literal(-10)))
          CFI V1 load(1, XDATA, add(CFA_XSP16, literal(-11)))
          CFI V0 load(1, XDATA, add(CFA_XSP16, literal(-12)))
          CFI VB load(1, XDATA, add(CFA_XSP16, literal(-13)))
          CFI R6 load(1, XDATA, add(CFA_XSP16, literal(-14)))
          CFI CFA_SP SP+0
          CFI CFA_XSP16 add(XSP16, 14)
        ; Saved register size: 14
        ; Auto size: 132
        MOV       A,#0x7c
        LCALL     ?ALLOC_XSTACK8
          CFI CFA_XSP16 add(XSP16, 146)
        MOV       A,R2
        MOV       R6,A
        MOV       A,R3
        MOV       R7,A
// 1707   uint32   timeout;
// 1708   uint8    freeMsg = FALSE;
// 1709   gpd_ID_t gpd_ID;
// 1710   uint8    ProxyTableEntryTemp[PROXY_TBL_ENTRY_LEN];
// 1711   uint16   ProxyTableEntryIndex = 0;
        MOV       DPL,?XSP + 0
        MOV       DPH,?XSP + 1
        CLR       A
        MOVX      @DPTR,A
        INC       DPTR
        LCALL     ?Subroutine12 & 0xFFFF
// 1712   
// 1713   //If authentication/decryption fail, then drop the frame and stop processing
// 1714   //GP Basic proxy A.3.5.2.3
// 1715   if(gp_DataInd->status == GP_DATA_IND_STATUS_COUNTER_FAILURE ||
// 1716       gp_DataInd->status == GP_DATA_IND_STATUS_AUTH_FAILURE )
??CrossCallReturnLabel_18:
        MOVX      A,@DPTR
        MOV       R0,A
        MOV       A,#0x2
        XRL       A,R0
        JNZ       $+5
        LJMP      ??GP_DataInd_0 & 0xFFFF
        MOV       A,#0x3
        XRL       A,R0
        JNZ       $+5
        LJMP      ??GP_DataInd_0 & 0xFFFF
// 1717   {
// 1718     return freeMsg;
// 1719   }
// 1720 
// 1721   gp_DataIndAppendToList(gp_DataInd, &gp_DataIndList);
        ; Setup parameters for call to function gp_DataIndAppendToList
        MOV       R4,#gp_DataIndList & 0xff
        MOV       R5,#(gp_DataIndList >> 8) & 0xff
        LCALL     `??gp_DataIndAppendToList::?relay`; Banked call to: gp_DataIndAppendToList
// 1722   
// 1723   gp_DataInd->SecReqHandling.timeout = gpDuplicateTimeout;
        MOV       A,R6
        ADD       A,#0x5
        LCALL     ?Subroutine42 & 0xFFFF
??CrossCallReturnLabel_65:
        MOV       A,#-0x30
        MOVX      @DPTR,A
        INC       DPTR
        MOV       A,#0x7
        MOVX      @DPTR,A
        INC       DPTR
        CLR       A
        MOVX      @DPTR,A
        INC       DPTR
        MOVX      @DPTR,A
// 1724   //Consider the current time elepsed to the next timeout
// 1725   timeout = osal_get_timeoutEx(gp_TaskID,GP_DUPLICATE_FILTERING_TIMEOUT_EVENT);
        ; Setup parameters for call to function osal_get_timeoutEx
        MOV       R2,#0x2
        MOV       R3,A
        MOV       DPTR,#gp_TaskID
        MOVX      A,@DPTR
        MOV       R1,A
        LCALL     `??osal_get_timeoutEx::?relay`; Banked call to: osal_get_timeoutEx
        MOV       ?V0,R2
        MOV       ?V1,R3
        MOV       ?V2,R4
        MOV       ?V3,R5
// 1726   
// 1727   if(timeout)
        MOV       A,R2
        LCALL     ??Subroutine61_0 & 0xFFFF
??CrossCallReturnLabel_122:
        MOV       DPL,?V4
        MOV       DPH,?V5
        JZ        ??GP_DataInd_1
// 1728   {
// 1729     gp_DataInd->SecReqHandling.timeout += timeout;
        MOV       R0,#?V0
        LCALL     ?L_ADD_TO_X
        SJMP      ??GP_DataInd_2
// 1730   }  
// 1731   else
// 1732   {
// 1733     osal_start_timerEx(gp_TaskID,GP_DUPLICATE_FILTERING_TIMEOUT_EVENT,gp_DataInd->SecReqHandling.timeout);
??GP_DataInd_1:
        ; Setup parameters for call to function osal_start_timerEx
        LCALL     ?PUSH_XSTACK8_X_FOUR
          CFI CFA_XSP16 add(XSP16, 150)
        MOV       R2,#0x2
        MOV       R3,#0x0
        MOV       DPTR,#gp_TaskID
        MOVX      A,@DPTR
        MOV       R1,A
        LCALL     `??osal_start_timerEx::?relay`; Banked call to: osal_start_timerEx
        MOV       A,#0x4
        LCALL     ?DEALLOC_XSTACK8
          CFI CFA_XSP16 add(XSP16, 146)
// 1734   }  
// 1735 
// 1736   gpd_ID.AppID = gp_DataInd->appID;
??GP_DataInd_2:
        MOV       A,R6
        ADD       A,#0x1c
        MOV       R0,A
        CLR       A
        ADDC      A,R7
        MOV       R1,A
        MOV       DPL,R0
        MOV       DPH,R1
        MOVX      A,@DPTR
        PUSH      A
          CFI CFA_SP SP+-1
        MOV       A,#0x2
        LCALL     ?XSTACK_DISP0_8
        POP       A
          CFI CFA_SP SP+0
        MOVX      @DPTR,A
// 1737   if(gp_DataInd->appID == GP_OPT_APP_ID_IEEE)
        MOV       DPL,R0
        MOV       DPH,R1
        MOVX      A,@DPTR
        XRL       A,#0x2
        JNZ       ??GP_DataInd_3
// 1738   {
// 1739     osal_memcpy(gpd_ID.GPDId.GPDExtAddr, gp_DataInd->srcAddr.addr.extAddr, Z_EXTADDR_LEN);
        ; Setup parameters for call to function osal_memcpy
        LCALL     ?Subroutine37 & 0xFFFF
// 1740   }
??CrossCallReturnLabel_158:
        LCALL     ?PUSH_XSTACK_I_THREE
          CFI CFA_XSP16 add(XSP16, 149)
        MOV       R4,#0x8
        MOV       R5,#0x0
        MOV       A,#0x6
        LCALL     ?XSTACK_DISP0_8
        MOV       R2,DPL
        MOV       R3,DPH
        LCALL     `??osal_memcpy::?relay`; Banked call to: osal_memcpy
        MOV       A,#0x3
        LCALL     ?DEALLOC_XSTACK8
          CFI CFA_XSP16 add(XSP16, 146)
        SJMP      ??GP_DataInd_4
// 1741   else
// 1742   {
// 1743     gpd_ID.GPDId.SrcID = gp_DataInd->SrcId;
??GP_DataInd_3:
        LCALL     ?Subroutine38 & 0xFFFF
// 1744   }
??CrossCallReturnLabel_59:
        LCALL     ?XLOAD_R0123
        MOV       A,#0x3
        LCALL     ?XSTACK_DISP0_8
        LCALL     ?XSTORE_R0123
// 1745 
// 1746   if(gp_getProxyTableByGpId(&gpd_ID,ProxyTableEntryTemp,&ProxyTableEntryIndex) == ZSuccess)
??GP_DataInd_4:
        ; Setup parameters for call to function gp_getProxyTableByGpId
        MOV       R0,?XSP + 0
        MOV       R1,?XSP + 1
        MOV       ?V0,R0
        MOV       ?V1,R1
        MOV       R0,#?V0
        LCALL     ?PUSH_XSTACK_I_TWO
          CFI CFA_XSP16 add(XSP16, 148)
        MOV       A,#0x45
        LCALL     ?XSTACK_DISP102_8
        MOV       A,#0x4
        LCALL     ?XSTACK_DISP101_8
        LCALL     `??gp_getProxyTableByGpId::?relay`; Banked call to: gp_getProxyTableByGpId
        MOV       A,#0x2
        LCALL     ?DEALLOC_XSTACK8
          CFI CFA_XSP16 add(XSP16, 146)
        MOV       A,R1
        JNZ       ??GP_DataInd_5
// 1747   {
// 1748 
// 1749     //Update Sec Frame counter to proxy table  A.3.6.1.3
// 1750     osal_nv_write( ProxyTableEntryIndex, PROXY_TBL_ENTRY_SEC_FRAME,
// 1751                        sizeof(uint32), (uint8*) &gp_DataInd->GPDSecFrameCounter );
        ; Setup parameters for call to function osal_nv_write
        MOV       A,R6
        ADD       A,#0x26
        MOV       ?V0,A
        CLR       A
        ADDC      A,R7
        MOV       ?V1,A
        MOV       R0,#?V0
        LCALL     ?PUSH_XSTACK_I_TWO
          CFI CFA_XSP16 add(XSP16, 148)
        MOV       ?V0,#0x4
        MOV       ?V1,#0x0
        MOV       R0,#?V0
        LCALL     ?PUSH_XSTACK_I_TWO
          CFI CFA_XSP16 add(XSP16, 150)
        MOV       R4,#0xe
        MOV       R5,#0x0
        MOV       A,#0x4
        LCALL     ?XSTACK_DISP0_8
        LCALL     ??Subroutine68_0 & 0xFFFF
// 1752   }  
??CrossCallReturnLabel_169:
        LCALL     `??osal_nv_write::?relay`; Banked call to: osal_nv_write
        MOV       A,#0x4
        LCALL     ?DEALLOC_XSTACK8
          CFI CFA_XSP16 add(XSP16, 146)
// 1753 
// 1754   if ( zgGP_InCommissioningMode == TRUE )
??GP_DataInd_5:
        MOV       DPTR,#zgGP_InCommissioningMode
        MOVX      A,@DPTR
        XRL       A,#0x1
        JZ        $+5
        LJMP      ??GP_DataInd_6 & 0xFFFF
// 1755   {
// 1756     if(gp_DataInd->GPDCmmdID == GP_CHANNEL_REQ_COMMAND_ID)
        MOV       A,R6
        ADD       A,#0x2a
        LCALL     ?Subroutine44 & 0xFFFF
??CrossCallReturnLabel_69:
        MOVX      A,@DPTR
        XRL       A,#0xe3
        JNZ       ??GP_DataInd_7
// 1757     {
// 1758       if(pfnChangeChannelReqForBDB)
        MOV       DPTR,#pfnChangeChannelReqForBDB
        LCALL     ??Subroutine70_0 & 0xFFFF
??CrossCallReturnLabel_175:
        JZ        ??GP_DataInd_8
// 1759       {
// 1760         //Check if we got permission from BDB
// 1761         if(!pfnChangeChannelReqForBDB())
        ; Setup parameters for indirect call
        LCALL     ??Subroutine64_0 & 0xFFFF
// 1762         {
// 1763           //No permisssion
// 1764           return freeMsg;
// 1765         }
// 1766       }
??CrossCallReturnLabel_130:
        LCALL     ?CALL_IND
        MOV       A,R1
        JNZ       $+5
        LJMP      ??GP_DataInd_0 & 0xFFFF
// 1767       if(pfnChangeChannelReq)
??GP_DataInd_8:
        MOV       DPTR,#pfnChangeChannelReq
        LCALL     ??Subroutine70_0 & 0xFFFF
??CrossCallReturnLabel_176:
        JZ        ??GP_DataInd_9
// 1768       {
// 1769         //Check if we got permission from BDB
// 1770         if(!pfnChangeChannelReq())
        ; Setup parameters for indirect call
        LCALL     ??Subroutine64_0 & 0xFFFF
// 1771         {
// 1772           //No permisssion
// 1773           return freeMsg;
// 1774         }
// 1775       }
??CrossCallReturnLabel_131:
        LCALL     ?CALL_IND
        MOV       A,R1
        JZ        ??GP_DataInd_0
// 1776       
// 1777       osal_start_timerEx(gp_TaskID,GP_CHANNEL_CONFIGURATION_TIMEOUT,gpBirectionalCommissioningChangeChannelTimeout);
??GP_DataInd_9:
        ; Setup parameters for call to function osal_start_timerEx
        MOV       DPTR,#__Constant_1388
        LCALL     ?PUSH_XSTACK8_X_FOUR
          CFI CFA_XSP16 add(XSP16, 150)
        MOV       R2,#0x8
        MOV       R3,#0x0
        MOV       DPTR,#gp_TaskID
        MOVX      A,@DPTR
        MOV       R1,A
        LCALL     `??osal_start_timerEx::?relay`; Banked call to: osal_start_timerEx
        MOV       A,#0x4
        LCALL     ?DEALLOC_XSTACK8
          CFI CFA_XSP16 add(XSP16, 146)
// 1778     }
// 1779     GP_ProccessCommissioningNotification( gp_DataInd );
??GP_DataInd_7:
        MOV       DPL,?V0
        MOV       DPH,?V1
        MOVX      A,@DPTR
        MOV       R0,A
        MOV       A,#-0x20
        XRL       A,R0
        JZ        ??GP_DataInd_10
        MOV       A,#-0x1e
        XRL       A,R0
        JZ        ??GP_DataInd_10
        MOV       A,#-0x1d
        XRL       A,R0
        JNZ       ??GP_DataInd_0
??GP_DataInd_10:
        ; Setup parameters for call to function osal_memset
        MOV       R4,#0x1e
        MOV       R5,#0x0
        MOV       R1,#0x0
        MOV       A,#0x25
        LCALL     ?XSTACK_DISP101_8
        LCALL     `??osal_memset::?relay`; Banked call to: osal_memset
        ; Setup parameters for call to function zclGp_ManteinanceIndParse
        MOV       A,#0x25
        LCALL     ?XSTACK_DISP102_8
        MOV       A,R6
        MOV       R2,A
        MOV       A,R7
        MOV       R3,A
        LCALL     `??zclGp_ManteinanceIndParse::?relay`; Banked call to: zclGp_ManteinanceIndParse
        ; Setup parameters for call to function zclGp_SendGpCommissioningNotificationCommand
        MOV       A,#0x25
        LCALL     ?XSTACK_DISP101_8
        LCALL     `??zclGp_SendGpCommissioningNotificationCommand:`; Banked call to: zclGp_SendGpCommissioningNotificationCommand
        SJMP      ??GP_DataInd_0
// 1780   }
// 1781   else if ( ( zgGP_InCommissioningMode == FALSE ) )
??GP_DataInd_6:
        MOVX      A,@DPTR
        JNZ       ??GP_DataInd_0
// 1782   {
// 1783     GP_ProccessNotification( gp_DataInd );
        ; Setup parameters for call to function osal_memset
        MOV       R4,#0x1a
        MOV       R5,#0x0
        MOV       R1,#0x0
        MOV       A,#0xb
        LCALL     ?XSTACK_DISP101_8
        LCALL     `??osal_memset::?relay`; Banked call to: osal_memset
        ; Setup parameters for call to function zclGp_DataIndParse
        MOV       A,#0xb
        LCALL     ?XSTACK_DISP102_8
        MOV       A,R6
        MOV       R2,A
        MOV       A,R7
        MOV       R3,A
        LCALL     `??zclGp_DataIndParse::?relay`; Banked call to: zclGp_DataIndParse
        ; Setup parameters for call to function zclGp_SendGpNotificationCommand
        MOV       A,R6
        ADD       A,#0x10
        LCALL     ??Subroutine66_0 & 0xFFFF
??CrossCallReturnLabel_152:
        MOV       R1,A
        MOV       A,#0xb
        LCALL     ?XSTACK_DISP101_8
        LCALL     `??zclGp_SendGpNotificationCommand::?relay`; Banked call to: zclGp_SendGpNotificationCommand
// 1784   }
// 1785   
// 1786   return freeMsg;
??GP_DataInd_0:
        MOV       R1,#0x0
        MOV       A,#-0x7c
        LJMP      ?Subroutine3 & 0xFFFF
// 1787 }
          CFI EndBlock cfiBlock263

        RSEG BANKED_CODE:HUGECODE:NOROOT(0)
?Subroutine44:
          CFI Block cfiCond264 Using cfiCommon0
          CFI Function zclGp_GpProxyCommissioningModeCB
          CFI Conditional ??CrossCallReturnLabel_68
          CFI R6 load(1, XDATA, add(CFA_XSP16, literal(-10)))
          CFI VB load(1, XDATA, add(CFA_XSP16, literal(-9)))
          CFI V0 load(1, XDATA, add(CFA_XSP16, literal(-8)))
          CFI V1 load(1, XDATA, add(CFA_XSP16, literal(-7)))
          CFI R7 load(1, XDATA, add(CFA_XSP16, literal(-6)))
          CFI ?RET_LOW load(1, XDATA, add(CFA_XSP16, literal(-5)))
          CFI ?RET_HIGH load(1, XDATA, add(CFA_XSP16, literal(-4)))
          CFI ?BRET_EXT load(1, XDATA, add(CFA_XSP16, literal(-3)))
          CFI DPL0 load(1, XDATA, add(CFA_XSP16, literal(-2)))
          CFI DPH0 load(1, XDATA, add(CFA_XSP16, literal(-1)))
          CFI CFA_SP SP+-2
          CFI CFA_XSP16 add(XSP16, 10)
          CFI Block cfiCond265 Using cfiCommon0
          CFI (cfiCond265) Function GP_DataInd
          CFI (cfiCond265) Conditional ??CrossCallReturnLabel_69
          CFI (cfiCond265) R6 load(1, XDATA, add(CFA_XSP16, literal(-14)))
          CFI (cfiCond265) VB load(1, XDATA, add(CFA_XSP16, literal(-13)))
          CFI (cfiCond265) V0 load(1, XDATA, add(CFA_XSP16, literal(-12)))
          CFI (cfiCond265) V1 load(1, XDATA, add(CFA_XSP16, literal(-11)))
          CFI (cfiCond265) V2 load(1, XDATA, add(CFA_XSP16, literal(-10)))
          CFI (cfiCond265) V3 load(1, XDATA, add(CFA_XSP16, literal(-9)))
          CFI (cfiCond265) V4 load(1, XDATA, add(CFA_XSP16, literal(-8)))
          CFI (cfiCond265) V5 load(1, XDATA, add(CFA_XSP16, literal(-7)))
          CFI (cfiCond265) R7 load(1, XDATA, add(CFA_XSP16, literal(-6)))
          CFI (cfiCond265) ?RET_LOW load(1, XDATA, add(CFA_XSP16, literal(-5)))
          CFI (cfiCond265) ?RET_HIGH load(1, XDATA, add(CFA_XSP16, literal(-4)))
          CFI (cfiCond265) ?BRET_EXT load(1, XDATA, add(CFA_XSP16, literal(-3)))
          CFI (cfiCond265) DPL0 load(1, XDATA, add(CFA_XSP16, literal(-2)))
          CFI (cfiCond265) DPH0 load(1, XDATA, add(CFA_XSP16, literal(-1)))
          CFI (cfiCond265) CFA_SP SP+-2
          CFI (cfiCond265) CFA_XSP16 add(XSP16, 146)
          CFI Block cfiPicker266 Using cfiCommon1
          CFI (cfiPicker266) NoFunction
          CFI (cfiPicker266) Picker
        MOV       ?V0,A
        CLR       A
        ADDC      A,R7
        MOV       ?V1,A
        ; Setup parameters for call to function osal_build_uint16
        MOV       DPL,?V0
        MOV       DPH,A
        RET
          CFI EndBlock cfiCond264
          CFI EndBlock cfiCond265
          CFI EndBlock cfiPicker266

        RSEG BANKED_CODE:HUGECODE:NOROOT(0)
?Subroutine42:
          CFI Block cfiCond267 Using cfiCommon0
          CFI Function zclGp_GpResponseCommandCB
          CFI Conditional ??CrossCallReturnLabel_64
          CFI R6 load(1, XDATA, add(CFA_XSP16, literal(-15)))
          CFI VB load(1, XDATA, add(CFA_XSP16, literal(-14)))
          CFI V0 load(1, XDATA, add(CFA_XSP16, literal(-13)))
          CFI V1 load(1, XDATA, add(CFA_XSP16, literal(-12)))
          CFI V2 load(1, XDATA, add(CFA_XSP16, literal(-11)))
          CFI V3 load(1, XDATA, add(CFA_XSP16, literal(-10)))
          CFI V4 load(1, XDATA, add(CFA_XSP16, literal(-9)))
          CFI V5 load(1, XDATA, add(CFA_XSP16, literal(-8)))
          CFI V6 load(1, XDATA, add(CFA_XSP16, literal(-7)))
          CFI R7 load(1, XDATA, add(CFA_XSP16, literal(-6)))
          CFI ?RET_LOW load(1, XDATA, add(CFA_XSP16, literal(-5)))
          CFI ?RET_HIGH load(1, XDATA, add(CFA_XSP16, literal(-4)))
          CFI ?BRET_EXT load(1, XDATA, add(CFA_XSP16, literal(-3)))
          CFI DPL0 load(1, XDATA, add(CFA_XSP16, literal(-2)))
          CFI DPH0 load(1, XDATA, add(CFA_XSP16, literal(-1)))
          CFI CFA_SP SP+-2
          CFI CFA_XSP16 add(XSP16, 93)
          CFI Block cfiCond268 Using cfiCommon0
          CFI (cfiCond268) Function GP_DataInd
          CFI (cfiCond268) Conditional ??CrossCallReturnLabel_65
          CFI (cfiCond268) R6 load(1, XDATA, add(CFA_XSP16, literal(-14)))
          CFI (cfiCond268) VB load(1, XDATA, add(CFA_XSP16, literal(-13)))
          CFI (cfiCond268) V0 load(1, XDATA, add(CFA_XSP16, literal(-12)))
          CFI (cfiCond268) V1 load(1, XDATA, add(CFA_XSP16, literal(-11)))
          CFI (cfiCond268) V2 load(1, XDATA, add(CFA_XSP16, literal(-10)))
          CFI (cfiCond268) V3 load(1, XDATA, add(CFA_XSP16, literal(-9)))
          CFI (cfiCond268) V4 load(1, XDATA, add(CFA_XSP16, literal(-8)))
          CFI (cfiCond268) V5 load(1, XDATA, add(CFA_XSP16, literal(-7)))
          CFI (cfiCond268) R7 load(1, XDATA, add(CFA_XSP16, literal(-6)))
          CFI (cfiCond268) ?RET_LOW load(1, XDATA, add(CFA_XSP16, literal(-5)))
          CFI (cfiCond268) ?RET_HIGH load(1, XDATA, add(CFA_XSP16, literal(-4)))
          CFI (cfiCond268) ?BRET_EXT load(1, XDATA, add(CFA_XSP16, literal(-3)))
          CFI (cfiCond268) DPL0 load(1, XDATA, add(CFA_XSP16, literal(-2)))
          CFI (cfiCond268) DPH0 load(1, XDATA, add(CFA_XSP16, literal(-1)))
          CFI (cfiCond268) CFA_SP SP+-2
          CFI (cfiCond268) CFA_XSP16 add(XSP16, 146)
          CFI Block cfiPicker269 Using cfiCommon1
          CFI (cfiPicker269) NoFunction
          CFI (cfiPicker269) Picker
        MOV       ?V4,A
        CLR       A
        ADDC      A,R7
        MOV       ?V5,A
        MOV       DPL,?V4
        MOV       DPH,A
        RET
          CFI EndBlock cfiCond267
          CFI EndBlock cfiCond268
          CFI EndBlock cfiPicker269

        RSEG BANKED_CODE:HUGECODE:NOROOT(0)
?Subroutine22:
          CFI Block cfiCond270 Using cfiCommon0
          CFI Function gp_stopCommissioningMode
          CFI Conditional ??CrossCallReturnLabel_177
          CFI DPL0 Frame(CFA_SP, 4)
          CFI DPH0 Frame(CFA_SP, 5)
          CFI CFA_SP SP+-7
          CFI Block cfiCond271 Using cfiCommon0
          CFI (cfiCond271) Function zclGp_GpProxyCommissioningModeCB
          CFI (cfiCond271) Conditional ??CrossCallReturnLabel_178
          CFI (cfiCond271) R6 load(1, XDATA, add(CFA_XSP16, literal(-10)))
          CFI (cfiCond271) VB load(1, XDATA, add(CFA_XSP16, literal(-9)))
          CFI (cfiCond271) V0 load(1, XDATA, add(CFA_XSP16, literal(-8)))
          CFI (cfiCond271) V1 load(1, XDATA, add(CFA_XSP16, literal(-7)))
          CFI (cfiCond271) R7 load(1, XDATA, add(CFA_XSP16, literal(-6)))
          CFI (cfiCond271) ?RET_LOW load(1, XDATA, add(CFA_XSP16, literal(-5)))
          CFI (cfiCond271) ?RET_HIGH load(1, XDATA, add(CFA_XSP16, literal(-4)))
          CFI (cfiCond271) ?BRET_EXT load(1, XDATA, add(CFA_XSP16, literal(-3)))
          CFI (cfiCond271) DPL0 load(1, XDATA, add(CFA_XSP16, literal(-2)))
          CFI (cfiCond271) DPH0 load(1, XDATA, add(CFA_XSP16, literal(-1)))
          CFI (cfiCond271) CFA_SP SP+-2
          CFI (cfiCond271) CFA_XSP16 add(XSP16, 10)
          CFI Block cfiPicker272 Using cfiCommon1
          CFI (cfiPicker272) NoFunction
          CFI (cfiPicker272) Picker
        MOV       DPTR,#pfnCommissioningMode
          CFI EndBlock cfiCond270
          CFI EndBlock cfiCond271
          CFI EndBlock cfiPicker272
        REQUIRE ??Subroutine70_0
        ; // Fall through to label ??Subroutine70_0

        RSEG BANKED_CODE:HUGECODE:NOROOT(0)
??Subroutine70_0:
          CFI Block cfiCond273 Using cfiCommon0
          CFI Function gp_getProxyTableByGpId
          CFI Conditional ??CrossCallReturnLabel_173
          CFI R6 load(1, XDATA, add(CFA_XSP16, literal(-15)))
          CFI VB load(1, XDATA, add(CFA_XSP16, literal(-14)))
          CFI V0 load(1, XDATA, add(CFA_XSP16, literal(-13)))
          CFI V1 load(1, XDATA, add(CFA_XSP16, literal(-12)))
          CFI V2 load(1, XDATA, add(CFA_XSP16, literal(-11)))
          CFI V3 load(1, XDATA, add(CFA_XSP16, literal(-10)))
          CFI V4 load(1, XDATA, add(CFA_XSP16, literal(-9)))
          CFI V5 load(1, XDATA, add(CFA_XSP16, literal(-8)))
          CFI V6 load(1, XDATA, add(CFA_XSP16, literal(-7)))
          CFI R7 load(1, XDATA, add(CFA_XSP16, literal(-6)))
          CFI ?RET_LOW load(1, XDATA, add(CFA_XSP16, literal(-5)))
          CFI ?RET_HIGH load(1, XDATA, add(CFA_XSP16, literal(-4)))
          CFI ?BRET_EXT load(1, XDATA, add(CFA_XSP16, literal(-3)))
          CFI DPL0 load(1, XDATA, add(CFA_XSP16, literal(-2)))
          CFI DPH0 load(1, XDATA, add(CFA_XSP16, literal(-1)))
          CFI CFA_SP SP+-2
          CFI CFA_XSP16 add(XSP16, 19)
          CFI Block cfiCond274 Using cfiCommon0
          CFI (cfiCond274) Function gp_SecurityOperationProxy
          CFI (cfiCond274) Conditional ??CrossCallReturnLabel_174
          CFI (cfiCond274) R6 load(1, XDATA, add(CFA_XSP16, literal(-16)))
          CFI (cfiCond274) VB load(1, XDATA, add(CFA_XSP16, literal(-15)))
          CFI (cfiCond274) V0 load(1, XDATA, add(CFA_XSP16, literal(-14)))
          CFI (cfiCond274) V1 load(1, XDATA, add(CFA_XSP16, literal(-13)))
          CFI (cfiCond274) V2 load(1, XDATA, add(CFA_XSP16, literal(-12)))
          CFI (cfiCond274) V3 load(1, XDATA, add(CFA_XSP16, literal(-11)))
          CFI (cfiCond274) V4 load(1, XDATA, add(CFA_XSP16, literal(-10)))
          CFI (cfiCond274) V5 load(1, XDATA, add(CFA_XSP16, literal(-9)))
          CFI (cfiCond274) V6 load(1, XDATA, add(CFA_XSP16, literal(-8)))
          CFI (cfiCond274) V7 load(1, XDATA, add(CFA_XSP16, literal(-7)))
          CFI (cfiCond274) R7 load(1, XDATA, add(CFA_XSP16, literal(-6)))
          CFI (cfiCond274) ?RET_LOW load(1, XDATA, add(CFA_XSP16, literal(-5)))
          CFI (cfiCond274) ?RET_HIGH load(1, XDATA, add(CFA_XSP16, literal(-4)))
          CFI (cfiCond274) ?BRET_EXT load(1, XDATA, add(CFA_XSP16, literal(-3)))
          CFI (cfiCond274) DPL0 load(1, XDATA, add(CFA_XSP16, literal(-2)))
          CFI (cfiCond274) DPH0 load(1, XDATA, add(CFA_XSP16, literal(-1)))
          CFI (cfiCond274) CFA_SP SP+-2
          CFI (cfiCond274) CFA_XSP16 add(XSP16, 94)
          CFI Block cfiCond275 Using cfiCommon0
          CFI (cfiCond275) Function GP_DataInd
          CFI (cfiCond275) Conditional ??CrossCallReturnLabel_175
          CFI (cfiCond275) R6 load(1, XDATA, add(CFA_XSP16, literal(-14)))
          CFI (cfiCond275) VB load(1, XDATA, add(CFA_XSP16, literal(-13)))
          CFI (cfiCond275) V0 load(1, XDATA, add(CFA_XSP16, literal(-12)))
          CFI (cfiCond275) V1 load(1, XDATA, add(CFA_XSP16, literal(-11)))
          CFI (cfiCond275) V2 load(1, XDATA, add(CFA_XSP16, literal(-10)))
          CFI (cfiCond275) V3 load(1, XDATA, add(CFA_XSP16, literal(-9)))
          CFI (cfiCond275) V4 load(1, XDATA, add(CFA_XSP16, literal(-8)))
          CFI (cfiCond275) V5 load(1, XDATA, add(CFA_XSP16, literal(-7)))
          CFI (cfiCond275) R7 load(1, XDATA, add(CFA_XSP16, literal(-6)))
          CFI (cfiCond275) ?RET_LOW load(1, XDATA, add(CFA_XSP16, literal(-5)))
          CFI (cfiCond275) ?RET_HIGH load(1, XDATA, add(CFA_XSP16, literal(-4)))
          CFI (cfiCond275) ?BRET_EXT load(1, XDATA, add(CFA_XSP16, literal(-3)))
          CFI (cfiCond275) DPL0 load(1, XDATA, add(CFA_XSP16, literal(-2)))
          CFI (cfiCond275) DPH0 load(1, XDATA, add(CFA_XSP16, literal(-1)))
          CFI (cfiCond275) CFA_SP SP+-2
          CFI (cfiCond275) CFA_XSP16 add(XSP16, 146)
          CFI Block cfiCond276 Using cfiCommon0
          CFI (cfiCond276) Function GP_DataInd
          CFI (cfiCond276) Conditional ??CrossCallReturnLabel_176
          CFI (cfiCond276) R6 load(1, XDATA, add(CFA_XSP16, literal(-14)))
          CFI (cfiCond276) VB load(1, XDATA, add(CFA_XSP16, literal(-13)))
          CFI (cfiCond276) V0 load(1, XDATA, add(CFA_XSP16, literal(-12)))
          CFI (cfiCond276) V1 load(1, XDATA, add(CFA_XSP16, literal(-11)))
          CFI (cfiCond276) V2 load(1, XDATA, add(CFA_XSP16, literal(-10)))
          CFI (cfiCond276) V3 load(1, XDATA, add(CFA_XSP16, literal(-9)))
          CFI (cfiCond276) V4 load(1, XDATA, add(CFA_XSP16, literal(-8)))
          CFI (cfiCond276) V5 load(1, XDATA, add(CFA_XSP16, literal(-7)))
          CFI (cfiCond276) R7 load(1, XDATA, add(CFA_XSP16, literal(-6)))
          CFI (cfiCond276) ?RET_LOW load(1, XDATA, add(CFA_XSP16, literal(-5)))
          CFI (cfiCond276) ?RET_HIGH load(1, XDATA, add(CFA_XSP16, literal(-4)))
          CFI (cfiCond276) ?BRET_EXT load(1, XDATA, add(CFA_XSP16, literal(-3)))
          CFI (cfiCond276) DPL0 load(1, XDATA, add(CFA_XSP16, literal(-2)))
          CFI (cfiCond276) DPH0 load(1, XDATA, add(CFA_XSP16, literal(-1)))
          CFI (cfiCond276) CFA_SP SP+-2
          CFI (cfiCond276) CFA_XSP16 add(XSP16, 146)
          CFI Block cfiCond277 Using cfiCommon0
          CFI (cfiCond277) Function gp_stopCommissioningMode
          CFI (cfiCond277) Conditional ??CrossCallReturnLabel_177
          CFI (cfiCond277) DPL0 Frame(CFA_SP, 4)
          CFI (cfiCond277) DPH0 Frame(CFA_SP, 5)
          CFI (cfiCond277) CFA_SP SP+-7
          CFI Block cfiCond278 Using cfiCommon0
          CFI (cfiCond278) Function zclGp_GpProxyCommissioningModeCB
          CFI (cfiCond278) Conditional ??CrossCallReturnLabel_178
          CFI (cfiCond278) R6 load(1, XDATA, add(CFA_XSP16, literal(-10)))
          CFI (cfiCond278) VB load(1, XDATA, add(CFA_XSP16, literal(-9)))
          CFI (cfiCond278) V0 load(1, XDATA, add(CFA_XSP16, literal(-8)))
          CFI (cfiCond278) V1 load(1, XDATA, add(CFA_XSP16, literal(-7)))
          CFI (cfiCond278) R7 load(1, XDATA, add(CFA_XSP16, literal(-6)))
          CFI (cfiCond278) ?RET_LOW load(1, XDATA, add(CFA_XSP16, literal(-5)))
          CFI (cfiCond278) ?RET_HIGH load(1, XDATA, add(CFA_XSP16, literal(-4)))
          CFI (cfiCond278) ?BRET_EXT load(1, XDATA, add(CFA_XSP16, literal(-3)))
          CFI (cfiCond278) DPL0 load(1, XDATA, add(CFA_XSP16, literal(-2)))
          CFI (cfiCond278) DPH0 load(1, XDATA, add(CFA_XSP16, literal(-1)))
          CFI (cfiCond278) CFA_SP SP+-2
          CFI (cfiCond278) CFA_XSP16 add(XSP16, 10)
          CFI Block cfiPicker279 Using cfiCommon1
          CFI (cfiPicker279) NoFunction
          CFI (cfiPicker279) Picker
        MOVX      A,@DPTR
        MOV       R0,A
        INC       DPTR
        MOVX      A,@DPTR
        MOV       R1,A
        MOV       A,R0
        ORL       A,R1
        RET
          CFI EndBlock cfiCond273
          CFI EndBlock cfiCond274
          CFI EndBlock cfiCond275
          CFI EndBlock cfiCond276
          CFI EndBlock cfiCond277
          CFI EndBlock cfiCond278
          CFI EndBlock cfiPicker279

        RSEG BANKED_CODE:HUGECODE:NOROOT(0)
?Subroutine12:
          CFI Block cfiCond280 Using cfiCommon0
          CFI Function zclGp_GpResponseCommandCB
          CFI Conditional ??CrossCallReturnLabel_17
          CFI R6 load(1, XDATA, add(CFA_XSP16, literal(-15)))
          CFI VB load(1, XDATA, add(CFA_XSP16, literal(-14)))
          CFI V0 load(1, XDATA, add(CFA_XSP16, literal(-13)))
          CFI V1 load(1, XDATA, add(CFA_XSP16, literal(-12)))
          CFI V2 load(1, XDATA, add(CFA_XSP16, literal(-11)))
          CFI V3 load(1, XDATA, add(CFA_XSP16, literal(-10)))
          CFI V4 load(1, XDATA, add(CFA_XSP16, literal(-9)))
          CFI V5 load(1, XDATA, add(CFA_XSP16, literal(-8)))
          CFI V6 load(1, XDATA, add(CFA_XSP16, literal(-7)))
          CFI R7 load(1, XDATA, add(CFA_XSP16, literal(-6)))
          CFI ?RET_LOW load(1, XDATA, add(CFA_XSP16, literal(-5)))
          CFI ?RET_HIGH load(1, XDATA, add(CFA_XSP16, literal(-4)))
          CFI ?BRET_EXT load(1, XDATA, add(CFA_XSP16, literal(-3)))
          CFI DPL0 load(1, XDATA, add(CFA_XSP16, literal(-2)))
          CFI DPH0 load(1, XDATA, add(CFA_XSP16, literal(-1)))
          CFI CFA_SP SP+-2
          CFI CFA_XSP16 add(XSP16, 93)
          CFI Block cfiCond281 Using cfiCommon0
          CFI (cfiCond281) Function GP_DataInd
          CFI (cfiCond281) Conditional ??CrossCallReturnLabel_18
          CFI (cfiCond281) R6 load(1, XDATA, add(CFA_XSP16, literal(-14)))
          CFI (cfiCond281) VB load(1, XDATA, add(CFA_XSP16, literal(-13)))
          CFI (cfiCond281) V0 load(1, XDATA, add(CFA_XSP16, literal(-12)))
          CFI (cfiCond281) V1 load(1, XDATA, add(CFA_XSP16, literal(-11)))
          CFI (cfiCond281) V2 load(1, XDATA, add(CFA_XSP16, literal(-10)))
          CFI (cfiCond281) V3 load(1, XDATA, add(CFA_XSP16, literal(-9)))
          CFI (cfiCond281) V4 load(1, XDATA, add(CFA_XSP16, literal(-8)))
          CFI (cfiCond281) V5 load(1, XDATA, add(CFA_XSP16, literal(-7)))
          CFI (cfiCond281) R7 load(1, XDATA, add(CFA_XSP16, literal(-6)))
          CFI (cfiCond281) ?RET_LOW load(1, XDATA, add(CFA_XSP16, literal(-5)))
          CFI (cfiCond281) ?RET_HIGH load(1, XDATA, add(CFA_XSP16, literal(-4)))
          CFI (cfiCond281) ?BRET_EXT load(1, XDATA, add(CFA_XSP16, literal(-3)))
          CFI (cfiCond281) DPL0 load(1, XDATA, add(CFA_XSP16, literal(-2)))
          CFI (cfiCond281) DPH0 load(1, XDATA, add(CFA_XSP16, literal(-1)))
          CFI (cfiCond281) CFA_SP SP+-2
          CFI (cfiCond281) CFA_XSP16 add(XSP16, 146)
          CFI Block cfiPicker282 Using cfiCommon1
          CFI (cfiPicker282) NoFunction
          CFI (cfiPicker282) Picker
        MOVX      @DPTR,A
        LCALL     ?Subroutine52 & 0xFFFF
??CrossCallReturnLabel_91:
        RET
          CFI EndBlock cfiCond280
          CFI EndBlock cfiCond281
          CFI EndBlock cfiPicker282

        RSEG BANKED_CODE:HUGECODE:NOROOT(0)
?Subroutine52:
          CFI Block cfiCond283 Using cfiCommon0
          CFI Function zclGp_GpResponseCommandCB
          CFI Conditional ??CrossCallReturnLabel_91, ??CrossCallReturnLabel_17
          CFI R6 load(1, XDATA, add(CFA_XSP16, literal(-15)))
          CFI VB load(1, XDATA, add(CFA_XSP16, literal(-14)))
          CFI V0 load(1, XDATA, add(CFA_XSP16, literal(-13)))
          CFI V1 load(1, XDATA, add(CFA_XSP16, literal(-12)))
          CFI V2 load(1, XDATA, add(CFA_XSP16, literal(-11)))
          CFI V3 load(1, XDATA, add(CFA_XSP16, literal(-10)))
          CFI V4 load(1, XDATA, add(CFA_XSP16, literal(-9)))
          CFI V5 load(1, XDATA, add(CFA_XSP16, literal(-8)))
          CFI V6 load(1, XDATA, add(CFA_XSP16, literal(-7)))
          CFI R7 load(1, XDATA, add(CFA_XSP16, literal(-6)))
          CFI ?RET_LOW load(1, XDATA, add(CFA_XSP16, literal(-5)))
          CFI ?RET_HIGH load(1, XDATA, add(CFA_XSP16, literal(-4)))
          CFI ?BRET_EXT load(1, XDATA, add(CFA_XSP16, literal(-3)))
          CFI DPL0 load(1, XDATA, add(CFA_XSP16, literal(-2)))
          CFI DPH0 load(1, XDATA, add(CFA_XSP16, literal(-1)))
          CFI CFA_SP SP+-4
          CFI CFA_XSP16 add(XSP16, 93)
          CFI Block cfiCond284 Using cfiCommon0
          CFI (cfiCond284) Function GP_DataInd
          CFI (cfiCond284) Conditional ??CrossCallReturnLabel_91, ??CrossCallReturnLabel_18
          CFI (cfiCond284) R6 load(1, XDATA, add(CFA_XSP16, literal(-14)))
          CFI (cfiCond284) VB load(1, XDATA, add(CFA_XSP16, literal(-13)))
          CFI (cfiCond284) V0 load(1, XDATA, add(CFA_XSP16, literal(-12)))
          CFI (cfiCond284) V1 load(1, XDATA, add(CFA_XSP16, literal(-11)))
          CFI (cfiCond284) V2 load(1, XDATA, add(CFA_XSP16, literal(-10)))
          CFI (cfiCond284) V3 load(1, XDATA, add(CFA_XSP16, literal(-9)))
          CFI (cfiCond284) V4 load(1, XDATA, add(CFA_XSP16, literal(-8)))
          CFI (cfiCond284) V5 load(1, XDATA, add(CFA_XSP16, literal(-7)))
          CFI (cfiCond284) R7 load(1, XDATA, add(CFA_XSP16, literal(-6)))
          CFI (cfiCond284) ?RET_LOW load(1, XDATA, add(CFA_XSP16, literal(-5)))
          CFI (cfiCond284) ?RET_HIGH load(1, XDATA, add(CFA_XSP16, literal(-4)))
          CFI (cfiCond284) ?BRET_EXT load(1, XDATA, add(CFA_XSP16, literal(-3)))
          CFI (cfiCond284) DPL0 load(1, XDATA, add(CFA_XSP16, literal(-2)))
          CFI (cfiCond284) DPH0 load(1, XDATA, add(CFA_XSP16, literal(-1)))
          CFI (cfiCond284) CFA_SP SP+-4
          CFI (cfiCond284) CFA_XSP16 add(XSP16, 146)
          CFI Block cfiCond285 Using cfiCommon0
          CFI (cfiCond285) Function GP_SecReq
          CFI (cfiCond285) Conditional ??CrossCallReturnLabel_90
          CFI (cfiCond285) R6 load(1, XDATA, add(CFA_XSP16, literal(-16)))
          CFI (cfiCond285) VB load(1, XDATA, add(CFA_XSP16, literal(-15)))
          CFI (cfiCond285) V0 load(1, XDATA, add(CFA_XSP16, literal(-14)))
          CFI (cfiCond285) V1 load(1, XDATA, add(CFA_XSP16, literal(-13)))
          CFI (cfiCond285) V2 load(1, XDATA, add(CFA_XSP16, literal(-12)))
          CFI (cfiCond285) V3 load(1, XDATA, add(CFA_XSP16, literal(-11)))
          CFI (cfiCond285) V4 load(1, XDATA, add(CFA_XSP16, literal(-10)))
          CFI (cfiCond285) V5 load(1, XDATA, add(CFA_XSP16, literal(-9)))
          CFI (cfiCond285) V6 load(1, XDATA, add(CFA_XSP16, literal(-8)))
          CFI (cfiCond285) V7 load(1, XDATA, add(CFA_XSP16, literal(-7)))
          CFI (cfiCond285) R7 load(1, XDATA, add(CFA_XSP16, literal(-6)))
          CFI (cfiCond285) ?RET_LOW load(1, XDATA, add(CFA_XSP16, literal(-5)))
          CFI (cfiCond285) ?RET_HIGH load(1, XDATA, add(CFA_XSP16, literal(-4)))
          CFI (cfiCond285) ?BRET_EXT load(1, XDATA, add(CFA_XSP16, literal(-3)))
          CFI (cfiCond285) DPL0 load(1, XDATA, add(CFA_XSP16, literal(-2)))
          CFI (cfiCond285) DPH0 load(1, XDATA, add(CFA_XSP16, literal(-1)))
          CFI (cfiCond285) CFA_XSP16 add(XSP16, 99)
          CFI Block cfiPicker286 Using cfiCommon1
          CFI (cfiPicker286) NoFunction
          CFI (cfiPicker286) Picker
        MOV       A,R6
        ADD       A,#0xd
        MOV       DPL,A
        CLR       A
        ADDC      A,R7
        MOV       DPH,A
        RET
          CFI EndBlock cfiCond283
          CFI EndBlock cfiCond284
          CFI EndBlock cfiCond285
          CFI EndBlock cfiPicker286
// 1788 
// 1789 /*********************************************************************
// 1790  * @fn          GP_ProccessCommissioningNotification
// 1791  *
// 1792  * @brief       General function to process the GP Manteinance Indication in operational mode
// 1793  *
// 1794  * @param       gp_DataInd
// 1795  *
// 1796  * @return      none
// 1797  */
// 1798 static void GP_ProccessCommissioningNotification(gp_DataInd_t *gp_DataInd)
// 1799 {
// 1800   gpCommissioningNotificationCmd_t gpNotification;
// 1801   
// 1802   if ( ( gp_DataInd->GPDCmmdID == GP_COMMISSIONING_COMMAND_ID ) || ( gp_DataInd->GPDCmmdID == GP_SUCCESS_COMMAND_ID ) ||
// 1803        ( gp_DataInd->GPDCmmdID == GP_CHANNEL_REQ_COMMAND_ID ) )
// 1804   {
// 1805   
// 1806     osal_memset( &gpNotification, 0, sizeof ( gpCommissioningNotificationCmd_t ) );
// 1807     zclGp_ManteinanceIndParse( gp_DataInd, &gpNotification );
// 1808   
// 1809     zclGp_SendGpCommissioningNotificationCommand ( &gpNotification );
// 1810   }
// 1811 }
// 1812 
// 1813 /*********************************************************************
// 1814  * @fn          GP_ProccessNotification
// 1815  *
// 1816  * @brief       General function to process the GP Data Indication in operational mode
// 1817  *
// 1818  * @param       gp_DataInd
// 1819  *
// 1820  * @return      none
// 1821  */
// 1822 static void GP_ProccessNotification(gp_DataInd_t *gp_DataInd)
// 1823 {
// 1824   gpNotificationCmd_t gpNotification;
// 1825   
// 1826   osal_memset( &gpNotification, 0, sizeof ( gpNotificationCmd_t ) );
// 1827   zclGp_DataIndParse( gp_DataInd, &gpNotification );
// 1828   
// 1829   zclGp_SendGpNotificationCommand ( &gpNotification, gp_DataInd->SeqNumber );
// 1830 }
// 1831 
// 1832 /*********************************************************************
// 1833  * @fn          GP_SecReq
// 1834  *
// 1835  * @brief       Primitive from dGP stub to GP EndPoint asking how to process a GPDF.
// 1836  *
// 1837  * @param       gp_SecReq 
// 1838  *
// 1839  * @return      none
// 1840  */

        RSEG BANKED_CODE:HUGECODE:NOROOT(0)
// 1841 uint8 GP_SecReq(gp_SecReq_t *gp_SecReq)
GP_SecReq:
          CFI Block cfiBlock287 Using cfiCommon0
          CFI Function GP_SecReq
        CODE
// 1842 {
        FUNCALL GP_SecReq, osal_msg_allocate
        LOCFRAME ISTACK, 0, STACK
        LOCFRAME PSTACK, 0, STACK
        LOCFRAME XSTACK, 99, STACK
        LOCFRAME IOVERLAY, 0, STATIC
        LOCFRAME DOVERLAY, 0, STATIC
        ARGFRAME ISTACK, 0, STACK
        ARGFRAME PSTACK, 0, STACK
        ARGFRAME XSTACK, 99, STACK
        ARGFRAME IOVERLAY, 0, STATIC
        ARGFRAME DOVERLAY, 0, STATIC
        FUNCALL GP_SecReq, osal_memcpy
        LOCFRAME ISTACK, 0, STACK
        LOCFRAME PSTACK, 0, STACK
        LOCFRAME XSTACK, 102, STACK
        LOCFRAME IOVERLAY, 0, STATIC
        LOCFRAME DOVERLAY, 0, STATIC
        ARGFRAME ISTACK, 0, STACK
        ARGFRAME PSTACK, 0, STACK
        ARGFRAME XSTACK, 102, STACK
        ARGFRAME IOVERLAY, 0, STATIC
        ARGFRAME DOVERLAY, 0, STATIC
        FUNCALL GP_SecReq, osal_memcpy
        LOCFRAME ISTACK, 0, STACK
        LOCFRAME PSTACK, 0, STACK
        LOCFRAME XSTACK, 102, STACK
        LOCFRAME IOVERLAY, 0, STATIC
        LOCFRAME DOVERLAY, 0, STATIC
        ARGFRAME ISTACK, 0, STACK
        ARGFRAME PSTACK, 0, STACK
        ARGFRAME XSTACK, 102, STACK
        ARGFRAME IOVERLAY, 0, STATIC
        ARGFRAME DOVERLAY, 0, STATIC
        FUNCALL GP_SecReq, gp_DataIndGet
        LOCFRAME ISTACK, 0, STACK
        LOCFRAME PSTACK, 0, STACK
        LOCFRAME XSTACK, 99, STACK
        LOCFRAME IOVERLAY, 0, STATIC
        LOCFRAME DOVERLAY, 0, STATIC
        ARGFRAME ISTACK, 0, STACK
        ARGFRAME PSTACK, 0, STACK
        ARGFRAME XSTACK, 99, STACK
        ARGFRAME IOVERLAY, 0, STATIC
        ARGFRAME DOVERLAY, 0, STATIC
        FUNCALL GP_SecReq, gp_getProxyTableByGpId
        LOCFRAME ISTACK, 0, STACK
        LOCFRAME PSTACK, 0, STACK
        LOCFRAME XSTACK, 101, STACK
        LOCFRAME IOVERLAY, 0, STATIC
        LOCFRAME DOVERLAY, 0, STATIC
        ARGFRAME ISTACK, 0, STACK
        ARGFRAME PSTACK, 0, STACK
        ARGFRAME XSTACK, 101, STACK
        ARGFRAME IOVERLAY, 0, STATIC
        ARGFRAME DOVERLAY, 0, STATIC
        FUNCALL GP_SecReq, osal_msg_send
        LOCFRAME ISTACK, 0, STACK
        LOCFRAME PSTACK, 0, STACK
        LOCFRAME XSTACK, 99, STACK
        LOCFRAME IOVERLAY, 0, STATIC
        LOCFRAME DOVERLAY, 0, STATIC
        ARGFRAME ISTACK, 0, STACK
        ARGFRAME PSTACK, 0, STACK
        ARGFRAME XSTACK, 99, STACK
        ARGFRAME IOVERLAY, 0, STATIC
        ARGFRAME DOVERLAY, 0, STATIC
        FUNCALL GP_SecReq, gp_DataIndGet
        LOCFRAME ISTACK, 0, STACK
        LOCFRAME PSTACK, 0, STACK
        LOCFRAME XSTACK, 99, STACK
        LOCFRAME IOVERLAY, 0, STATIC
        LOCFRAME DOVERLAY, 0, STATIC
        ARGFRAME ISTACK, 0, STACK
        ARGFRAME PSTACK, 0, STACK
        ARGFRAME XSTACK, 99, STACK
        ARGFRAME IOVERLAY, 0, STATIC
        ARGFRAME DOVERLAY, 0, STATIC
        FUNCALL GP_SecReq, gp_SecurityOperationProxy
        LOCFRAME ISTACK, 0, STACK
        LOCFRAME PSTACK, 0, STACK
        LOCFRAME XSTACK, 101, STACK
        LOCFRAME IOVERLAY, 0, STATIC
        LOCFRAME DOVERLAY, 0, STATIC
        ARGFRAME ISTACK, 0, STACK
        ARGFRAME PSTACK, 0, STACK
        ARGFRAME XSTACK, 101, STACK
        ARGFRAME IOVERLAY, 0, STATIC
        ARGFRAME DOVERLAY, 0, STATIC
        FUNCALL GP_SecReq, GP_RecoveryKey
        LOCFRAME ISTACK, 0, STACK
        LOCFRAME PSTACK, 0, STACK
        LOCFRAME XSTACK, 99, STACK
        LOCFRAME IOVERLAY, 0, STATIC
        LOCFRAME DOVERLAY, 0, STATIC
        ARGFRAME ISTACK, 0, STACK
        ARGFRAME PSTACK, 0, STACK
        ARGFRAME XSTACK, 99, STACK
        ARGFRAME IOVERLAY, 0, STATIC
        ARGFRAME DOVERLAY, 0, STATIC
        FUNCALL GP_SecReq, osal_memcpy
        LOCFRAME ISTACK, 0, STACK
        LOCFRAME PSTACK, 0, STACK
        LOCFRAME XSTACK, 102, STACK
        LOCFRAME IOVERLAY, 0, STATIC
        LOCFRAME DOVERLAY, 0, STATIC
        ARGFRAME ISTACK, 0, STACK
        ARGFRAME PSTACK, 0, STACK
        ARGFRAME XSTACK, 102, STACK
        ARGFRAME IOVERLAY, 0, STATIC
        ARGFRAME DOVERLAY, 0, STATIC
        FUNCALL GP_SecReq, osal_msg_send
        LOCFRAME ISTACK, 0, STACK
        LOCFRAME PSTACK, 0, STACK
        LOCFRAME XSTACK, 99, STACK
        LOCFRAME IOVERLAY, 0, STATIC
        LOCFRAME DOVERLAY, 0, STATIC
        ARGFRAME ISTACK, 0, STACK
        ARGFRAME PSTACK, 0, STACK
        ARGFRAME XSTACK, 99, STACK
        ARGFRAME IOVERLAY, 0, STATIC
        ARGFRAME DOVERLAY, 0, STATIC
        REQUIRE ?V0
        REQUIRE ?V1
        REQUIRE ?V2
        REQUIRE ?V3
        REQUIRE ?V4
        REQUIRE ?V5
        REQUIRE ?V6
        REQUIRE ?V7
        MOV       A,#-0x10
        LCALL     ?BANKED_ENTER_XDATA
          CFI DPH0 load(1, XDATA, add(CFA_XSP16, literal(-1)))
          CFI DPL0 load(1, XDATA, add(CFA_XSP16, literal(-2)))
          CFI ?BRET_EXT load(1, XDATA, add(CFA_XSP16, literal(-3)))
          CFI ?RET_HIGH load(1, XDATA, add(CFA_XSP16, literal(-4)))
          CFI ?RET_LOW load(1, XDATA, add(CFA_XSP16, literal(-5)))
          CFI R7 load(1, XDATA, add(CFA_XSP16, literal(-6)))
          CFI V7 load(1, XDATA, add(CFA_XSP16, literal(-7)))
          CFI V6 load(1, XDATA, add(CFA_XSP16, literal(-8)))
          CFI V5 load(1, XDATA, add(CFA_XSP16, literal(-9)))
          CFI V4 load(1, XDATA, add(CFA_XSP16, literal(-10)))
          CFI V3 load(1, XDATA, add(CFA_XSP16, literal(-11)))
          CFI V2 load(1, XDATA, add(CFA_XSP16, literal(-12)))
          CFI V1 load(1, XDATA, add(CFA_XSP16, literal(-13)))
          CFI V0 load(1, XDATA, add(CFA_XSP16, literal(-14)))
          CFI VB load(1, XDATA, add(CFA_XSP16, literal(-15)))
          CFI R6 load(1, XDATA, add(CFA_XSP16, literal(-16)))
          CFI CFA_SP SP+0
          CFI CFA_XSP16 add(XSP16, 16)
        ; Saved register size: 16
        ; Auto size: 83
        MOV       A,#-0x53
        LCALL     ?ALLOC_XSTACK8
          CFI CFA_XSP16 add(XSP16, 99)
        MOV       ?V6,R2
        MOV       ?V7,R3
// 1843   gp_SecRsp_t *gp_SecRsp = NULL;
// 1844   uint8 status;
// 1845   uint8  ProxyTableEntryTemp[PROXY_TBL_ENTRY_LEN];
// 1846   gp_DataInd_t* temp;
// 1847   uint8   KeyType;
// 1848   uint8   Key[SEC_KEY_LEN];
// 1849 
// 1850 
// 1851   gp_SecRsp = (gp_SecRsp_t*)osal_msg_allocate(sizeof(gp_SecRsp_t));
        ; Setup parameters for call to function osal_msg_allocate
        MOV       R2,#0x24
        MOV       R3,#0x0
        LCALL     `??osal_msg_allocate::?relay`; Banked call to: osal_msg_allocate
        MOV       ?V0,R2
        MOV       ?V1,R3
        MOV       R6,?V0
        MOV       R7,?V1
// 1852 
// 1853   //No mem, then do not release the msg, process later
// 1854   if(gp_SecRsp == NULL)
        MOV       A,R6
        ORL       A,R7
        JNZ       ??GP_SecReq_0
// 1855   {
// 1856     return FALSE;
        MOV       R1,#0x0
        LJMP      ??GP_SecReq_1 & 0xFFFF
// 1857   }
// 1858   
// 1859   gp_SecRsp->hdr.event = GP_SEC_RSP;
??GP_SecReq_0:
        MOV       DPL,R6
        MOV       DPH,R7
        MOV       A,#0x8
        MOVX      @DPTR,A
// 1860   gp_SecRsp->hdr.status = ZSuccess;
        INC       DPTR
        CLR       A
        LCALL     ?Subroutine9 & 0xFFFF
??CrossCallReturnLabel_11:
        MOV       DPL,R6
        MOV       DPH,R7
        INC       DPTR
        INC       DPTR
        INC       DPTR
        MOVX      @DPTR,A
// 1861 
// 1862   gp_SecRsp->dGPStubHandle = gp_SecReq->dGPStubHandle;
// 1863   gp_SecRsp->EndPoint = gp_SecReq->EndPoint;
        MOV       A,?V6
        ADD       A,#0xb
        MOV       DPL,A
        CLR       A
        ADDC      A,?V7
        MOV       DPH,A
        MOVX      A,@DPTR
        PUSH      A
          CFI CFA_SP SP+-1
        LCALL     ?Subroutine52 & 0xFFFF
??CrossCallReturnLabel_90:
        POP       A
          CFI CFA_SP SP+0
        MOVX      @DPTR,A
// 1864 
// 1865   osal_memcpy(&gp_SecRsp->gp_SecData,&gp_SecReq->gp_SecData, sizeof(gp_SecData_t));
        MOV       A,?V6
        ADD       A,#0xc
        MOV       ?V4,A
        CLR       A
        ADDC      A,?V7
        MOV       ?V5,A
        ; Setup parameters for call to function osal_memcpy
        MOV       ?V0,?V4
        MOV       ?V1,A
        MOV       ?V2,#0x0
        MOV       R0,#?V0
        LCALL     ?PUSH_XSTACK_I_THREE
          CFI CFA_XSP16 add(XSP16, 102)
        MOV       R4,#0x6
        MOV       R5,#0x0
        MOV       A,R6
        ADD       A,#0xe
        MOV       R2,A
        CLR       A
        ADDC      A,R7
        MOV       R3,A
        LCALL     `??osal_memcpy::?relay`; Banked call to: osal_memcpy
        MOV       A,#0x3
        LCALL     ?DEALLOC_XSTACK8
          CFI CFA_XSP16 add(XSP16, 99)
        ; Setup parameters for call to function osal_memcpy
        MOV       DPL,?V6
        MOV       DPH,?V7
        INC       DPTR
        INC       DPTR
        MOV       R1,DPL
        MOV       R2,DPH
        MOV       ?V0,R1
        MOV       ?V1,R2
        MOV       R0,#?V0
        LCALL     ?PUSH_XSTACK_I_THREE
          CFI CFA_XSP16 add(XSP16, 102)
        MOV       R4,#0x9
        MOV       R5,#0x0
        MOV       A,R6
        ADD       A,#0x4
        MOV       R2,A
        CLR       A
        ADDC      A,R7
        MOV       R3,A
// 1866   osal_memcpy(&gp_SecRsp->gpd_ID,&gp_SecReq->gpd_ID, sizeof(gpd_ID_t));
        LCALL     `??osal_memcpy::?relay`; Banked call to: osal_memcpy
        MOV       A,#0x3
        LCALL     ?DEALLOC_XSTACK8
          CFI CFA_XSP16 add(XSP16, 99)
        MOV       DPL,R6
        MOV       DPH,R7
        INC       DPTR
        INC       DPTR
        CLR       A
        MOVX      @DPTR,A
// 1867 
// 1868   gp_SecRsp->Status = GP_SEC_RSP_DROP_FRAME;
// 1869  
// 1870   //Find duplicates A.3.6.1.2 Duplicate filtering
// 1871   if( gp_DataIndFindDuplicate(gp_SecReq->dGPStubHandle, gp_SecReq->gp_SecData.GPDFSecLvl) )
        MOV       DPL,?V4
        MOV       DPH,?V5
        MOVX      A,@DPTR
        PUSH      A
          CFI CFA_SP SP+-1
        MOV       A,#0x1
        LCALL     ?XSTACK_DISP0_8
        POP       A
          CFI CFA_SP SP+0
        LCALL     ?Subroutine9 & 0xFFFF
??CrossCallReturnLabel_10:
        MOV       R1,A
        LCALL     `??gp_DataIndGet::?relay`; Banked call to: gp_DataIndGet
        MOV       A,R2
        ORL       A,R3
        JNZ       $+5
        LJMP      ??GP_SecReq_2 & 0xFFFF
        MOV       DPTR,#gp_DataIndList
        SJMP      ??GP_SecReq_3
??GP_SecReq_4:
        MOV       A,?V4
        ADD       A,#0x26
        LCALL     ?Subroutine46 & 0xFFFF
??CrossCallReturnLabel_80:
        MOV       R0,#?V0
        LCALL     ?L_MOV_X
        MOV       A,R2
        ADD       A,#0x26
        MOV       DPL,A
        CLR       A
        ADDC      A,R3
        MOV       DPH,A
        MOV       R0,#?V0
        LCALL     ?L_EQ_X
        JNZ       ??GP_SecReq_5
??GP_SecReq_6:
        MOV       DPL,R2
        MOV       DPH,R3
        INC       DPTR
        INC       DPTR
        MOVX      A,@DPTR
        MOV       R0,A
        MOV       DPL,?V4
        MOV       DPH,?V5
        INC       DPTR
        INC       DPTR
        MOVX      A,@DPTR
        XRL       A,R0
        JNZ       ??GP_SecReq_7
??GP_SecReq_5:
        MOV       DPL,?V4
        MOV       DPH,?V5
        INC       DPTR
        INC       DPTR
        INC       DPTR
??GP_SecReq_3:
        MOVX      A,@DPTR
        MOV       ?V4,A
        INC       DPTR
        MOVX      A,@DPTR
        MOV       ?V5,A
        MOV       A,?V4
        ORL       A,?V5
        JZ        ??GP_SecReq_8
        MOV       A,#0x1
        LCALL     ?XSTACK_DISP0_8
        MOVX      A,@DPTR
        JNZ       ??GP_SecReq_4
        MOV       A,R2
        ADD       A,#0x10
        MOV       DPL,A
        CLR       A
        ADDC      A,R3
        MOV       DPH,A
        MOVX      A,@DPTR
        MOV       R0,A
        MOV       A,?V4
        ADD       A,#0x10
        LCALL     ?Subroutine46 & 0xFFFF
??CrossCallReturnLabel_81:
        MOVX      A,@DPTR
        XRL       A,R0
        JNZ       ??GP_SecReq_5
        MOV       A,R2
        ADD       A,#0x1c
        MOV       DPL,A
        CLR       A
        ADDC      A,R3
        MOV       DPH,A
        MOVX      A,@DPTR
        MOV       R0,A
        MOV       A,?V4
        ADD       A,#0x1c
        LCALL     ?Subroutine46 & 0xFFFF
??CrossCallReturnLabel_82:
        MOVX      A,@DPTR
        XRL       A,R0
        JNZ       ??GP_SecReq_5
        SJMP      ??GP_SecReq_6
??GP_SecReq_2:
        MOV       A,?V4
        ORL       A,?V5
        JZ        ??GP_SecReq_8
// 1872   {  //Check if the entry exist
// 1873     if ( gp_getProxyTableByGpId(&gp_SecReq->gpd_ID, ProxyTableEntryTemp, NULL) == ZSuccess )
??GP_SecReq_7:
        ; Setup parameters for call to function gp_getProxyTableByGpId
        CLR       A
        MOV       ?V0,A
        MOV       ?V1,A
        MOV       R0,#?V0
        LCALL     ?PUSH_XSTACK_I_TWO
          CFI CFA_XSP16 add(XSP16, 101)
        MOV       A,#0x14
        LCALL     ?XSTACK_DISP102_8
        MOV       A,?V6
        ADD       A,#0x2
        MOV       R2,A
        CLR       A
        ADDC      A,?V7
        MOV       R3,A
        LCALL     `??gp_getProxyTableByGpId::?relay`; Banked call to: gp_getProxyTableByGpId
        MOV       A,#0x2
        LCALL     ?DEALLOC_XSTACK8
          CFI CFA_XSP16 add(XSP16, 99)
        MOV       A,R1
        JZ        ??GP_SecReq_9
// 1874     {
// 1875       gp_SecRsp->Status = GP_SEC_RSP_DROP_FRAME;
// 1876       osal_msg_send(gp_TaskID,(uint8*)gp_SecRsp);
// 1877 
// 1878       return TRUE;
// 1879     }
// 1880   }
// 1881   
// 1882   temp = gp_DataIndGet(gp_SecReq->dGPStubHandle);
??GP_SecReq_8:
        ; Setup parameters for call to function gp_DataIndGet
        LCALL     ?Subroutine53 & 0xFFFF
??CrossCallReturnLabel_92:
        MOV       R1,A
        LCALL     `??gp_DataIndGet::?relay`; Banked call to: gp_DataIndGet
// 1883     
// 1884   //Section A.3.7.3.3
// 1885   status = gp_SecurityOperationProxy(temp,&KeyType,Key);
        ; Setup parameters for call to function gp_SecurityOperationProxy
        MOV       A,#0x2
        LCALL     ?XSTACK_DISP100_8
        MOV       ?V0,R0
        MOV       ?V1,R1
        MOV       R0,#?V0
        LCALL     ?PUSH_XSTACK_I_TWO
          CFI CFA_XSP16 add(XSP16, 101)
        MOV       A,#0x2
        LCALL     ?XSTACK_DISP102_8
        LCALL     `??gp_SecurityOperationProxy::?relay`; Banked call to: gp_SecurityOperationProxy
        MOV       A,#0x2
        LCALL     ?DEALLOC_XSTACK8
          CFI CFA_XSP16 add(XSP16, 99)
        MOV       A,R1
        MOV       ?V0,A
// 1886 
// 1887   switch(status)
        JZ        ??GP_SecReq_9
        DEC       A
        JZ        ??GP_SecReq_10
        DEC       A
        JZ        ??GP_SecReq_11
        DEC       A
        JZ        ??GP_SecReq_10
        DEC       A
        JZ        ??GP_SecReq_9
        SJMP      ??GP_SecReq_12
// 1888   {
// 1889     case GP_SEC_RSP_ERROR:  //This should not happen
// 1890     case GP_SEC_RSP_DROP_FRAME:
// 1891       gp_SecRsp->Status = GP_SEC_RSP_DROP_FRAME;
// 1892     break;
// 1893     
// 1894     case GP_SEC_RSP_PASS_UNPROCESSED:  
// 1895       gp_SecRsp->Status = GP_SEC_RSP_PASS_UNPROCESSED;
??GP_SecReq_11:
        MOV       DPL,R6
        MOV       DPH,R7
        INC       DPTR
        INC       DPTR
        MOV       A,#0x2
        SJMP      ??GP_SecReq_13
// 1896     break;
// 1897     
// 1898     case GP_SEC_RSP_MATCH:
// 1899     case GP_SEC_RSP_TX_THEN_DROP:
// 1900       if(GP_RecoveryKey(gp_SecReq->gp_SecData.GPDFKeyType,KeyType,status,Key) == GP_SEC_RSP_DROP_FRAME)
??GP_SecReq_10:
        ; Setup parameters for call to function GP_RecoveryKey
        MOV       A,#0x2
        LCALL     ?XSTACK_DISP102_8
        MOV       R3,?V0
        MOV       DPL,?XSP + 0
        MOV       DPH,?XSP + 1
        MOVX      A,@DPTR
        MOV       R2,A
        MOV       A,?V6
        ADD       A,#0xd
        MOV       DPL,A
        CLR       A
        ADDC      A,?V7
        MOV       DPH,A
        MOVX      A,@DPTR
        MOV       R1,A
        LCALL     `??GP_RecoveryKey::?relay`; Banked call to: GP_RecoveryKey
        MOV       A,R1
        JNZ       ??GP_SecReq_14
// 1901       {
// 1902         gp_SecRsp->Status = GP_SEC_RSP_DROP_FRAME;
??GP_SecReq_9:
        MOV       DPL,R6
        MOV       DPH,R7
        INC       DPTR
        INC       DPTR
        CLR       A
??GP_SecReq_13:
        MOVX      @DPTR,A
        SJMP      ??GP_SecReq_12
// 1903       }
// 1904       else
// 1905       {
// 1906         gp_SecRsp->Status = status;
??GP_SecReq_14:
        MOV       DPL,R6
        MOV       DPH,R7
        INC       DPTR
        INC       DPTR
        MOV       A,?V0
        MOVX      @DPTR,A
// 1907         osal_memcpy(gp_SecRsp->GPDKey,Key,SEC_KEY_LEN);
        ; Setup parameters for call to function osal_memcpy
        MOV       A,#0x2
        LCALL     ?XSTACK_DISP100_8
        MOV       ?V0,R0
        MOV       ?V2,#0x0
        MOV       R0,#?V0
        LCALL     ?PUSH_XSTACK_I_THREE
          CFI CFA_XSP16 add(XSP16, 102)
        MOV       R4,#0x10
        MOV       R5,#0x0
        MOV       A,R6
        ADD       A,#0x14
        MOV       R2,A
        CLR       A
        ADDC      A,R7
        MOV       R3,A
        LCALL     `??osal_memcpy::?relay`; Banked call to: osal_memcpy
        MOV       A,#0x3
        LCALL     ?DEALLOC_XSTACK8
          CFI CFA_XSP16 add(XSP16, 99)
// 1908       }
// 1909     break;
// 1910   }
// 1911 
// 1912 
// 1913   osal_msg_send(gp_TaskID,(uint8*)gp_SecRsp);
??GP_SecReq_12:
        ; Setup parameters for call to function osal_msg_send
        MOV       A,R6
        MOV       R2,A
        MOV       A,R7
        MOV       R3,A
        MOV       DPTR,#gp_TaskID
        MOVX      A,@DPTR
        MOV       R1,A
        LCALL     `??osal_msg_send::?relay`; Banked call to: osal_msg_send
// 1914   return TRUE;
        MOV       R1,#0x1
??GP_SecReq_1:
        MOV       A,#0x53
        LJMP      ?Subroutine1 & 0xFFFF
// 1915 }
          CFI EndBlock cfiBlock287

        RSEG BANKED_CODE:HUGECODE:NOROOT(0)
?Subroutine46:
          CFI Block cfiCond288 Using cfiCommon0
          CFI Function zclGp_ManteinanceIndParse
          CFI Conditional ??CrossCallReturnLabel_73
          CFI R6 load(1, XDATA, add(CFA_XSP16, literal(-16)))
          CFI VB load(1, XDATA, add(CFA_XSP16, literal(-15)))
          CFI V0 load(1, XDATA, add(CFA_XSP16, literal(-14)))
          CFI V1 load(1, XDATA, add(CFA_XSP16, literal(-13)))
          CFI V2 load(1, XDATA, add(CFA_XSP16, literal(-12)))
          CFI V3 load(1, XDATA, add(CFA_XSP16, literal(-11)))
          CFI V4 load(1, XDATA, add(CFA_XSP16, literal(-10)))
          CFI V5 load(1, XDATA, add(CFA_XSP16, literal(-9)))
          CFI V6 load(1, XDATA, add(CFA_XSP16, literal(-8)))
          CFI V7 load(1, XDATA, add(CFA_XSP16, literal(-7)))
          CFI R7 load(1, XDATA, add(CFA_XSP16, literal(-6)))
          CFI ?RET_LOW load(1, XDATA, add(CFA_XSP16, literal(-5)))
          CFI ?RET_HIGH load(1, XDATA, add(CFA_XSP16, literal(-4)))
          CFI ?BRET_EXT load(1, XDATA, add(CFA_XSP16, literal(-3)))
          CFI DPL0 load(1, XDATA, add(CFA_XSP16, literal(-2)))
          CFI DPH0 load(1, XDATA, add(CFA_XSP16, literal(-1)))
          CFI CFA_XSP16 add(XSP16, 18)
          CFI Block cfiCond289 Using cfiCommon0
          CFI (cfiCond289) Function zclGp_ManteinanceIndParse
          CFI (cfiCond289) Conditional ??CrossCallReturnLabel_74
          CFI (cfiCond289) R6 load(1, XDATA, add(CFA_XSP16, literal(-16)))
          CFI (cfiCond289) VB load(1, XDATA, add(CFA_XSP16, literal(-15)))
          CFI (cfiCond289) V0 load(1, XDATA, add(CFA_XSP16, literal(-14)))
          CFI (cfiCond289) V1 load(1, XDATA, add(CFA_XSP16, literal(-13)))
          CFI (cfiCond289) V2 load(1, XDATA, add(CFA_XSP16, literal(-12)))
          CFI (cfiCond289) V3 load(1, XDATA, add(CFA_XSP16, literal(-11)))
          CFI (cfiCond289) V4 load(1, XDATA, add(CFA_XSP16, literal(-10)))
          CFI (cfiCond289) V5 load(1, XDATA, add(CFA_XSP16, literal(-9)))
          CFI (cfiCond289) V6 load(1, XDATA, add(CFA_XSP16, literal(-8)))
          CFI (cfiCond289) V7 load(1, XDATA, add(CFA_XSP16, literal(-7)))
          CFI (cfiCond289) R7 load(1, XDATA, add(CFA_XSP16, literal(-6)))
          CFI (cfiCond289) ?RET_LOW load(1, XDATA, add(CFA_XSP16, literal(-5)))
          CFI (cfiCond289) ?RET_HIGH load(1, XDATA, add(CFA_XSP16, literal(-4)))
          CFI (cfiCond289) ?BRET_EXT load(1, XDATA, add(CFA_XSP16, literal(-3)))
          CFI (cfiCond289) DPL0 load(1, XDATA, add(CFA_XSP16, literal(-2)))
          CFI (cfiCond289) DPH0 load(1, XDATA, add(CFA_XSP16, literal(-1)))
          CFI (cfiCond289) CFA_SP SP+-2
          CFI (cfiCond289) CFA_XSP16 add(XSP16, 18)
          CFI Block cfiCond290 Using cfiCommon0
          CFI (cfiCond290) Function zclGp_ManteinanceIndParse
          CFI (cfiCond290) Conditional ??CrossCallReturnLabel_75
          CFI (cfiCond290) R6 load(1, XDATA, add(CFA_XSP16, literal(-16)))
          CFI (cfiCond290) VB load(1, XDATA, add(CFA_XSP16, literal(-15)))
          CFI (cfiCond290) V0 load(1, XDATA, add(CFA_XSP16, literal(-14)))
          CFI (cfiCond290) V1 load(1, XDATA, add(CFA_XSP16, literal(-13)))
          CFI (cfiCond290) V2 load(1, XDATA, add(CFA_XSP16, literal(-12)))
          CFI (cfiCond290) V3 load(1, XDATA, add(CFA_XSP16, literal(-11)))
          CFI (cfiCond290) V4 load(1, XDATA, add(CFA_XSP16, literal(-10)))
          CFI (cfiCond290) V5 load(1, XDATA, add(CFA_XSP16, literal(-9)))
          CFI (cfiCond290) V6 load(1, XDATA, add(CFA_XSP16, literal(-8)))
          CFI (cfiCond290) V7 load(1, XDATA, add(CFA_XSP16, literal(-7)))
          CFI (cfiCond290) R7 load(1, XDATA, add(CFA_XSP16, literal(-6)))
          CFI (cfiCond290) ?RET_LOW load(1, XDATA, add(CFA_XSP16, literal(-5)))
          CFI (cfiCond290) ?RET_HIGH load(1, XDATA, add(CFA_XSP16, literal(-4)))
          CFI (cfiCond290) ?BRET_EXT load(1, XDATA, add(CFA_XSP16, literal(-3)))
          CFI (cfiCond290) DPL0 load(1, XDATA, add(CFA_XSP16, literal(-2)))
          CFI (cfiCond290) DPH0 load(1, XDATA, add(CFA_XSP16, literal(-1)))
          CFI (cfiCond290) CFA_XSP16 add(XSP16, 18)
          CFI Block cfiCond291 Using cfiCommon0
          CFI (cfiCond291) Function zclGp_ManteinanceIndParse
          CFI (cfiCond291) Conditional ??CrossCallReturnLabel_76
          CFI (cfiCond291) R6 load(1, XDATA, add(CFA_XSP16, literal(-16)))
          CFI (cfiCond291) VB load(1, XDATA, add(CFA_XSP16, literal(-15)))
          CFI (cfiCond291) V0 load(1, XDATA, add(CFA_XSP16, literal(-14)))
          CFI (cfiCond291) V1 load(1, XDATA, add(CFA_XSP16, literal(-13)))
          CFI (cfiCond291) V2 load(1, XDATA, add(CFA_XSP16, literal(-12)))
          CFI (cfiCond291) V3 load(1, XDATA, add(CFA_XSP16, literal(-11)))
          CFI (cfiCond291) V4 load(1, XDATA, add(CFA_XSP16, literal(-10)))
          CFI (cfiCond291) V5 load(1, XDATA, add(CFA_XSP16, literal(-9)))
          CFI (cfiCond291) V6 load(1, XDATA, add(CFA_XSP16, literal(-8)))
          CFI (cfiCond291) V7 load(1, XDATA, add(CFA_XSP16, literal(-7)))
          CFI (cfiCond291) R7 load(1, XDATA, add(CFA_XSP16, literal(-6)))
          CFI (cfiCond291) ?RET_LOW load(1, XDATA, add(CFA_XSP16, literal(-5)))
          CFI (cfiCond291) ?RET_HIGH load(1, XDATA, add(CFA_XSP16, literal(-4)))
          CFI (cfiCond291) ?BRET_EXT load(1, XDATA, add(CFA_XSP16, literal(-3)))
          CFI (cfiCond291) DPL0 load(1, XDATA, add(CFA_XSP16, literal(-2)))
          CFI (cfiCond291) DPH0 load(1, XDATA, add(CFA_XSP16, literal(-1)))
          CFI (cfiCond291) CFA_XSP16 add(XSP16, 18)
          CFI Block cfiCond292 Using cfiCommon0
          CFI (cfiCond292) Function zclGp_ManteinanceIndParse
          CFI (cfiCond292) Conditional ??CrossCallReturnLabel_77
          CFI (cfiCond292) R6 load(1, XDATA, add(CFA_XSP16, literal(-16)))
          CFI (cfiCond292) VB load(1, XDATA, add(CFA_XSP16, literal(-15)))
          CFI (cfiCond292) V0 load(1, XDATA, add(CFA_XSP16, literal(-14)))
          CFI (cfiCond292) V1 load(1, XDATA, add(CFA_XSP16, literal(-13)))
          CFI (cfiCond292) V2 load(1, XDATA, add(CFA_XSP16, literal(-12)))
          CFI (cfiCond292) V3 load(1, XDATA, add(CFA_XSP16, literal(-11)))
          CFI (cfiCond292) V4 load(1, XDATA, add(CFA_XSP16, literal(-10)))
          CFI (cfiCond292) V5 load(1, XDATA, add(CFA_XSP16, literal(-9)))
          CFI (cfiCond292) V6 load(1, XDATA, add(CFA_XSP16, literal(-8)))
          CFI (cfiCond292) V7 load(1, XDATA, add(CFA_XSP16, literal(-7)))
          CFI (cfiCond292) R7 load(1, XDATA, add(CFA_XSP16, literal(-6)))
          CFI (cfiCond292) ?RET_LOW load(1, XDATA, add(CFA_XSP16, literal(-5)))
          CFI (cfiCond292) ?RET_HIGH load(1, XDATA, add(CFA_XSP16, literal(-4)))
          CFI (cfiCond292) ?BRET_EXT load(1, XDATA, add(CFA_XSP16, literal(-3)))
          CFI (cfiCond292) DPL0 load(1, XDATA, add(CFA_XSP16, literal(-2)))
          CFI (cfiCond292) DPH0 load(1, XDATA, add(CFA_XSP16, literal(-1)))
          CFI (cfiCond292) CFA_SP SP+-2
          CFI (cfiCond292) CFA_XSP16 add(XSP16, 18)
          CFI Block cfiCond293 Using cfiCommon0
          CFI (cfiCond293) Function zclGp_ManteinanceIndParse
          CFI (cfiCond293) Conditional ??CrossCallReturnLabel_78
          CFI (cfiCond293) R6 load(1, XDATA, add(CFA_XSP16, literal(-16)))
          CFI (cfiCond293) VB load(1, XDATA, add(CFA_XSP16, literal(-15)))
          CFI (cfiCond293) V0 load(1, XDATA, add(CFA_XSP16, literal(-14)))
          CFI (cfiCond293) V1 load(1, XDATA, add(CFA_XSP16, literal(-13)))
          CFI (cfiCond293) V2 load(1, XDATA, add(CFA_XSP16, literal(-12)))
          CFI (cfiCond293) V3 load(1, XDATA, add(CFA_XSP16, literal(-11)))
          CFI (cfiCond293) V4 load(1, XDATA, add(CFA_XSP16, literal(-10)))
          CFI (cfiCond293) V5 load(1, XDATA, add(CFA_XSP16, literal(-9)))
          CFI (cfiCond293) V6 load(1, XDATA, add(CFA_XSP16, literal(-8)))
          CFI (cfiCond293) V7 load(1, XDATA, add(CFA_XSP16, literal(-7)))
          CFI (cfiCond293) R7 load(1, XDATA, add(CFA_XSP16, literal(-6)))
          CFI (cfiCond293) ?RET_LOW load(1, XDATA, add(CFA_XSP16, literal(-5)))
          CFI (cfiCond293) ?RET_HIGH load(1, XDATA, add(CFA_XSP16, literal(-4)))
          CFI (cfiCond293) ?BRET_EXT load(1, XDATA, add(CFA_XSP16, literal(-3)))
          CFI (cfiCond293) DPL0 load(1, XDATA, add(CFA_XSP16, literal(-2)))
          CFI (cfiCond293) DPH0 load(1, XDATA, add(CFA_XSP16, literal(-1)))
          CFI (cfiCond293) CFA_SP SP+-2
          CFI (cfiCond293) CFA_XSP16 add(XSP16, 18)
          CFI Block cfiCond294 Using cfiCommon0
          CFI (cfiCond294) Function zclGp_ManteinanceIndParse
          CFI (cfiCond294) Conditional ??CrossCallReturnLabel_79
          CFI (cfiCond294) R6 load(1, XDATA, add(CFA_XSP16, literal(-16)))
          CFI (cfiCond294) VB load(1, XDATA, add(CFA_XSP16, literal(-15)))
          CFI (cfiCond294) V0 load(1, XDATA, add(CFA_XSP16, literal(-14)))
          CFI (cfiCond294) V1 load(1, XDATA, add(CFA_XSP16, literal(-13)))
          CFI (cfiCond294) V2 load(1, XDATA, add(CFA_XSP16, literal(-12)))
          CFI (cfiCond294) V3 load(1, XDATA, add(CFA_XSP16, literal(-11)))
          CFI (cfiCond294) V4 load(1, XDATA, add(CFA_XSP16, literal(-10)))
          CFI (cfiCond294) V5 load(1, XDATA, add(CFA_XSP16, literal(-9)))
          CFI (cfiCond294) V6 load(1, XDATA, add(CFA_XSP16, literal(-8)))
          CFI (cfiCond294) V7 load(1, XDATA, add(CFA_XSP16, literal(-7)))
          CFI (cfiCond294) R7 load(1, XDATA, add(CFA_XSP16, literal(-6)))
          CFI (cfiCond294) ?RET_LOW load(1, XDATA, add(CFA_XSP16, literal(-5)))
          CFI (cfiCond294) ?RET_HIGH load(1, XDATA, add(CFA_XSP16, literal(-4)))
          CFI (cfiCond294) ?BRET_EXT load(1, XDATA, add(CFA_XSP16, literal(-3)))
          CFI (cfiCond294) DPL0 load(1, XDATA, add(CFA_XSP16, literal(-2)))
          CFI (cfiCond294) DPH0 load(1, XDATA, add(CFA_XSP16, literal(-1)))
          CFI (cfiCond294) CFA_XSP16 add(XSP16, 18)
          CFI Block cfiCond295 Using cfiCommon0
          CFI (cfiCond295) Function GP_SecReq
          CFI (cfiCond295) Conditional ??CrossCallReturnLabel_80
          CFI (cfiCond295) R6 load(1, XDATA, add(CFA_XSP16, literal(-16)))
          CFI (cfiCond295) VB load(1, XDATA, add(CFA_XSP16, literal(-15)))
          CFI (cfiCond295) V0 load(1, XDATA, add(CFA_XSP16, literal(-14)))
          CFI (cfiCond295) V1 load(1, XDATA, add(CFA_XSP16, literal(-13)))
          CFI (cfiCond295) V2 load(1, XDATA, add(CFA_XSP16, literal(-12)))
          CFI (cfiCond295) V3 load(1, XDATA, add(CFA_XSP16, literal(-11)))
          CFI (cfiCond295) V4 load(1, XDATA, add(CFA_XSP16, literal(-10)))
          CFI (cfiCond295) V5 load(1, XDATA, add(CFA_XSP16, literal(-9)))
          CFI (cfiCond295) V6 load(1, XDATA, add(CFA_XSP16, literal(-8)))
          CFI (cfiCond295) V7 load(1, XDATA, add(CFA_XSP16, literal(-7)))
          CFI (cfiCond295) R7 load(1, XDATA, add(CFA_XSP16, literal(-6)))
          CFI (cfiCond295) ?RET_LOW load(1, XDATA, add(CFA_XSP16, literal(-5)))
          CFI (cfiCond295) ?RET_HIGH load(1, XDATA, add(CFA_XSP16, literal(-4)))
          CFI (cfiCond295) ?BRET_EXT load(1, XDATA, add(CFA_XSP16, literal(-3)))
          CFI (cfiCond295) DPL0 load(1, XDATA, add(CFA_XSP16, literal(-2)))
          CFI (cfiCond295) DPH0 load(1, XDATA, add(CFA_XSP16, literal(-1)))
          CFI (cfiCond295) CFA_SP SP+-2
          CFI (cfiCond295) CFA_XSP16 add(XSP16, 99)
          CFI Block cfiCond296 Using cfiCommon0
          CFI (cfiCond296) Function GP_SecReq
          CFI (cfiCond296) Conditional ??CrossCallReturnLabel_81
          CFI (cfiCond296) R6 load(1, XDATA, add(CFA_XSP16, literal(-16)))
          CFI (cfiCond296) VB load(1, XDATA, add(CFA_XSP16, literal(-15)))
          CFI (cfiCond296) V0 load(1, XDATA, add(CFA_XSP16, literal(-14)))
          CFI (cfiCond296) V1 load(1, XDATA, add(CFA_XSP16, literal(-13)))
          CFI (cfiCond296) V2 load(1, XDATA, add(CFA_XSP16, literal(-12)))
          CFI (cfiCond296) V3 load(1, XDATA, add(CFA_XSP16, literal(-11)))
          CFI (cfiCond296) V4 load(1, XDATA, add(CFA_XSP16, literal(-10)))
          CFI (cfiCond296) V5 load(1, XDATA, add(CFA_XSP16, literal(-9)))
          CFI (cfiCond296) V6 load(1, XDATA, add(CFA_XSP16, literal(-8)))
          CFI (cfiCond296) V7 load(1, XDATA, add(CFA_XSP16, literal(-7)))
          CFI (cfiCond296) R7 load(1, XDATA, add(CFA_XSP16, literal(-6)))
          CFI (cfiCond296) ?RET_LOW load(1, XDATA, add(CFA_XSP16, literal(-5)))
          CFI (cfiCond296) ?RET_HIGH load(1, XDATA, add(CFA_XSP16, literal(-4)))
          CFI (cfiCond296) ?BRET_EXT load(1, XDATA, add(CFA_XSP16, literal(-3)))
          CFI (cfiCond296) DPL0 load(1, XDATA, add(CFA_XSP16, literal(-2)))
          CFI (cfiCond296) DPH0 load(1, XDATA, add(CFA_XSP16, literal(-1)))
          CFI (cfiCond296) CFA_SP SP+-2
          CFI (cfiCond296) CFA_XSP16 add(XSP16, 99)
          CFI Block cfiCond297 Using cfiCommon0
          CFI (cfiCond297) Function GP_SecReq
          CFI (cfiCond297) Conditional ??CrossCallReturnLabel_82
          CFI (cfiCond297) R6 load(1, XDATA, add(CFA_XSP16, literal(-16)))
          CFI (cfiCond297) VB load(1, XDATA, add(CFA_XSP16, literal(-15)))
          CFI (cfiCond297) V0 load(1, XDATA, add(CFA_XSP16, literal(-14)))
          CFI (cfiCond297) V1 load(1, XDATA, add(CFA_XSP16, literal(-13)))
          CFI (cfiCond297) V2 load(1, XDATA, add(CFA_XSP16, literal(-12)))
          CFI (cfiCond297) V3 load(1, XDATA, add(CFA_XSP16, literal(-11)))
          CFI (cfiCond297) V4 load(1, XDATA, add(CFA_XSP16, literal(-10)))
          CFI (cfiCond297) V5 load(1, XDATA, add(CFA_XSP16, literal(-9)))
          CFI (cfiCond297) V6 load(1, XDATA, add(CFA_XSP16, literal(-8)))
          CFI (cfiCond297) V7 load(1, XDATA, add(CFA_XSP16, literal(-7)))
          CFI (cfiCond297) R7 load(1, XDATA, add(CFA_XSP16, literal(-6)))
          CFI (cfiCond297) ?RET_LOW load(1, XDATA, add(CFA_XSP16, literal(-5)))
          CFI (cfiCond297) ?RET_HIGH load(1, XDATA, add(CFA_XSP16, literal(-4)))
          CFI (cfiCond297) ?BRET_EXT load(1, XDATA, add(CFA_XSP16, literal(-3)))
          CFI (cfiCond297) DPL0 load(1, XDATA, add(CFA_XSP16, literal(-2)))
          CFI (cfiCond297) DPH0 load(1, XDATA, add(CFA_XSP16, literal(-1)))
          CFI (cfiCond297) CFA_SP SP+-2
          CFI (cfiCond297) CFA_XSP16 add(XSP16, 99)
          CFI Block cfiPicker298 Using cfiCommon1
          CFI (cfiPicker298) NoFunction
          CFI (cfiPicker298) Picker
        MOV       DPL,A
        CLR       A
        ADDC      A,?V5
        MOV       DPH,A
        RET
          CFI EndBlock cfiCond288
          CFI EndBlock cfiCond289
          CFI EndBlock cfiCond290
          CFI EndBlock cfiCond291
          CFI EndBlock cfiCond292
          CFI EndBlock cfiCond293
          CFI EndBlock cfiCond294
          CFI EndBlock cfiCond295
          CFI EndBlock cfiCond296
          CFI EndBlock cfiCond297
          CFI EndBlock cfiPicker298

        RSEG BANKED_CODE:HUGECODE:NOROOT(0)
?Subroutine9:
          CFI Block cfiCond299 Using cfiCommon0
          CFI Function GP_SecReq
          CFI Conditional ??CrossCallReturnLabel_11
          CFI R6 load(1, XDATA, add(CFA_XSP16, literal(-16)))
          CFI VB load(1, XDATA, add(CFA_XSP16, literal(-15)))
          CFI V0 load(1, XDATA, add(CFA_XSP16, literal(-14)))
          CFI V1 load(1, XDATA, add(CFA_XSP16, literal(-13)))
          CFI V2 load(1, XDATA, add(CFA_XSP16, literal(-12)))
          CFI V3 load(1, XDATA, add(CFA_XSP16, literal(-11)))
          CFI V4 load(1, XDATA, add(CFA_XSP16, literal(-10)))
          CFI V5 load(1, XDATA, add(CFA_XSP16, literal(-9)))
          CFI V6 load(1, XDATA, add(CFA_XSP16, literal(-8)))
          CFI V7 load(1, XDATA, add(CFA_XSP16, literal(-7)))
          CFI R7 load(1, XDATA, add(CFA_XSP16, literal(-6)))
          CFI ?RET_LOW load(1, XDATA, add(CFA_XSP16, literal(-5)))
          CFI ?RET_HIGH load(1, XDATA, add(CFA_XSP16, literal(-4)))
          CFI ?BRET_EXT load(1, XDATA, add(CFA_XSP16, literal(-3)))
          CFI DPL0 load(1, XDATA, add(CFA_XSP16, literal(-2)))
          CFI DPH0 load(1, XDATA, add(CFA_XSP16, literal(-1)))
          CFI CFA_SP SP+-2
          CFI CFA_XSP16 add(XSP16, 99)
          CFI Block cfiCond300 Using cfiCommon0
          CFI (cfiCond300) Function GP_SecReq
          CFI (cfiCond300) Conditional ??CrossCallReturnLabel_10
          CFI (cfiCond300) R6 load(1, XDATA, add(CFA_XSP16, literal(-16)))
          CFI (cfiCond300) VB load(1, XDATA, add(CFA_XSP16, literal(-15)))
          CFI (cfiCond300) V0 load(1, XDATA, add(CFA_XSP16, literal(-14)))
          CFI (cfiCond300) V1 load(1, XDATA, add(CFA_XSP16, literal(-13)))
          CFI (cfiCond300) V2 load(1, XDATA, add(CFA_XSP16, literal(-12)))
          CFI (cfiCond300) V3 load(1, XDATA, add(CFA_XSP16, literal(-11)))
          CFI (cfiCond300) V4 load(1, XDATA, add(CFA_XSP16, literal(-10)))
          CFI (cfiCond300) V5 load(1, XDATA, add(CFA_XSP16, literal(-9)))
          CFI (cfiCond300) V6 load(1, XDATA, add(CFA_XSP16, literal(-8)))
          CFI (cfiCond300) V7 load(1, XDATA, add(CFA_XSP16, literal(-7)))
          CFI (cfiCond300) R7 load(1, XDATA, add(CFA_XSP16, literal(-6)))
          CFI (cfiCond300) ?RET_LOW load(1, XDATA, add(CFA_XSP16, literal(-5)))
          CFI (cfiCond300) ?RET_HIGH load(1, XDATA, add(CFA_XSP16, literal(-4)))
          CFI (cfiCond300) ?BRET_EXT load(1, XDATA, add(CFA_XSP16, literal(-3)))
          CFI (cfiCond300) DPL0 load(1, XDATA, add(CFA_XSP16, literal(-2)))
          CFI (cfiCond300) DPH0 load(1, XDATA, add(CFA_XSP16, literal(-1)))
          CFI (cfiCond300) CFA_SP SP+-2
          CFI (cfiCond300) CFA_XSP16 add(XSP16, 99)
          CFI Block cfiPicker301 Using cfiCommon1
          CFI (cfiPicker301) NoFunction
          CFI (cfiPicker301) Picker
        MOVX      @DPTR,A
        ; Setup parameters for call to function gp_DataIndGet
        LCALL     ?Subroutine53 & 0xFFFF
??CrossCallReturnLabel_93:
        RET
          CFI EndBlock cfiCond299
          CFI EndBlock cfiCond300
          CFI EndBlock cfiPicker301

        RSEG BANKED_CODE:HUGECODE:NOROOT(0)
?Subroutine53:
          CFI Block cfiCond302 Using cfiCommon0
          CFI Function GP_SecReq
          CFI Conditional ??CrossCallReturnLabel_92
          CFI R6 load(1, XDATA, add(CFA_XSP16, literal(-16)))
          CFI VB load(1, XDATA, add(CFA_XSP16, literal(-15)))
          CFI V0 load(1, XDATA, add(CFA_XSP16, literal(-14)))
          CFI V1 load(1, XDATA, add(CFA_XSP16, literal(-13)))
          CFI V2 load(1, XDATA, add(CFA_XSP16, literal(-12)))
          CFI V3 load(1, XDATA, add(CFA_XSP16, literal(-11)))
          CFI V4 load(1, XDATA, add(CFA_XSP16, literal(-10)))
          CFI V5 load(1, XDATA, add(CFA_XSP16, literal(-9)))
          CFI V6 load(1, XDATA, add(CFA_XSP16, literal(-8)))
          CFI V7 load(1, XDATA, add(CFA_XSP16, literal(-7)))
          CFI R7 load(1, XDATA, add(CFA_XSP16, literal(-6)))
          CFI ?RET_LOW load(1, XDATA, add(CFA_XSP16, literal(-5)))
          CFI ?RET_HIGH load(1, XDATA, add(CFA_XSP16, literal(-4)))
          CFI ?BRET_EXT load(1, XDATA, add(CFA_XSP16, literal(-3)))
          CFI DPL0 load(1, XDATA, add(CFA_XSP16, literal(-2)))
          CFI DPH0 load(1, XDATA, add(CFA_XSP16, literal(-1)))
          CFI CFA_SP SP+-2
          CFI CFA_XSP16 add(XSP16, 99)
          CFI Block cfiCond303 Using cfiCommon0
          CFI (cfiCond303) Function GP_SecReq
          CFI (cfiCond303) Conditional ??CrossCallReturnLabel_93, ??CrossCallReturnLabel_11
          CFI (cfiCond303) R6 load(1, XDATA, add(CFA_XSP16, literal(-16)))
          CFI (cfiCond303) VB load(1, XDATA, add(CFA_XSP16, literal(-15)))
          CFI (cfiCond303) V0 load(1, XDATA, add(CFA_XSP16, literal(-14)))
          CFI (cfiCond303) V1 load(1, XDATA, add(CFA_XSP16, literal(-13)))
          CFI (cfiCond303) V2 load(1, XDATA, add(CFA_XSP16, literal(-12)))
          CFI (cfiCond303) V3 load(1, XDATA, add(CFA_XSP16, literal(-11)))
          CFI (cfiCond303) V4 load(1, XDATA, add(CFA_XSP16, literal(-10)))
          CFI (cfiCond303) V5 load(1, XDATA, add(CFA_XSP16, literal(-9)))
          CFI (cfiCond303) V6 load(1, XDATA, add(CFA_XSP16, literal(-8)))
          CFI (cfiCond303) V7 load(1, XDATA, add(CFA_XSP16, literal(-7)))
          CFI (cfiCond303) R7 load(1, XDATA, add(CFA_XSP16, literal(-6)))
          CFI (cfiCond303) ?RET_LOW load(1, XDATA, add(CFA_XSP16, literal(-5)))
          CFI (cfiCond303) ?RET_HIGH load(1, XDATA, add(CFA_XSP16, literal(-4)))
          CFI (cfiCond303) ?BRET_EXT load(1, XDATA, add(CFA_XSP16, literal(-3)))
          CFI (cfiCond303) DPL0 load(1, XDATA, add(CFA_XSP16, literal(-2)))
          CFI (cfiCond303) DPH0 load(1, XDATA, add(CFA_XSP16, literal(-1)))
          CFI (cfiCond303) CFA_SP SP+-4
          CFI (cfiCond303) CFA_XSP16 add(XSP16, 99)
          CFI Block cfiCond304 Using cfiCommon0
          CFI (cfiCond304) Function GP_SecReq
          CFI (cfiCond304) Conditional ??CrossCallReturnLabel_93, ??CrossCallReturnLabel_10
          CFI (cfiCond304) R6 load(1, XDATA, add(CFA_XSP16, literal(-16)))
          CFI (cfiCond304) VB load(1, XDATA, add(CFA_XSP16, literal(-15)))
          CFI (cfiCond304) V0 load(1, XDATA, add(CFA_XSP16, literal(-14)))
          CFI (cfiCond304) V1 load(1, XDATA, add(CFA_XSP16, literal(-13)))
          CFI (cfiCond304) V2 load(1, XDATA, add(CFA_XSP16, literal(-12)))
          CFI (cfiCond304) V3 load(1, XDATA, add(CFA_XSP16, literal(-11)))
          CFI (cfiCond304) V4 load(1, XDATA, add(CFA_XSP16, literal(-10)))
          CFI (cfiCond304) V5 load(1, XDATA, add(CFA_XSP16, literal(-9)))
          CFI (cfiCond304) V6 load(1, XDATA, add(CFA_XSP16, literal(-8)))
          CFI (cfiCond304) V7 load(1, XDATA, add(CFA_XSP16, literal(-7)))
          CFI (cfiCond304) R7 load(1, XDATA, add(CFA_XSP16, literal(-6)))
          CFI (cfiCond304) ?RET_LOW load(1, XDATA, add(CFA_XSP16, literal(-5)))
          CFI (cfiCond304) ?RET_HIGH load(1, XDATA, add(CFA_XSP16, literal(-4)))
          CFI (cfiCond304) ?BRET_EXT load(1, XDATA, add(CFA_XSP16, literal(-3)))
          CFI (cfiCond304) DPL0 load(1, XDATA, add(CFA_XSP16, literal(-2)))
          CFI (cfiCond304) DPH0 load(1, XDATA, add(CFA_XSP16, literal(-1)))
          CFI (cfiCond304) CFA_SP SP+-4
          CFI (cfiCond304) CFA_XSP16 add(XSP16, 99)
          CFI Block cfiPicker305 Using cfiCommon1
          CFI (cfiPicker305) NoFunction
          CFI (cfiPicker305) Picker
        MOV       A,?V6
        ADD       A,#0x12
        MOV       DPL,A
        CLR       A
        ADDC      A,?V7
        MOV       DPH,A
        MOVX      A,@DPTR
        RET
          CFI EndBlock cfiCond302
          CFI EndBlock cfiCond303
          CFI EndBlock cfiCond304
          CFI EndBlock cfiPicker305
// 1916 
// 1917 /*********************************************************************
// 1918  * @fn          GP_RecoveryKey
// 1919  *
// 1920  * @brief       Procedure to retrive the key to be used to decrypt the GPDF
// 1921  *
// 1922  * @param       GPDFKeyType   KeyType from the GPDF
// 1923  * @param       KeyType       Key type in the Proxy table entry for this GPD
// 1924  * @param       Status        Previous status to search key (MATCH, TX_THEN_DROP)
// 1925  * @param       Key[out]      Key to be used
// 1926  *                       
// 1927  * @return      Status
// 1928  */

        RSEG BANKED_CODE:HUGECODE:NOROOT(0)
// 1929 uint8 GP_RecoveryKey(uint8 GPDFKeyType,uint8 KeyType, uint8 status, uint8 *Key)
GP_RecoveryKey:
          CFI Block cfiBlock306 Using cfiCommon0
          CFI Function GP_RecoveryKey
        CODE
// 1930 {
        FUNCALL GP_RecoveryKey, osal_memcmp
        LOCFRAME ISTACK, 0, STACK
        LOCFRAME PSTACK, 0, STACK
        LOCFRAME XSTACK, 39, STACK
        LOCFRAME IOVERLAY, 0, STATIC
        LOCFRAME DOVERLAY, 0, STATIC
        ARGFRAME ISTACK, 0, STACK
        ARGFRAME PSTACK, 0, STACK
        ARGFRAME XSTACK, 39, STACK
        ARGFRAME IOVERLAY, 0, STATIC
        ARGFRAME DOVERLAY, 0, STATIC
        FUNCALL GP_RecoveryKey, osal_memcmp
        LOCFRAME ISTACK, 0, STACK
        LOCFRAME PSTACK, 0, STACK
        LOCFRAME XSTACK, 39, STACK
        LOCFRAME IOVERLAY, 0, STATIC
        LOCFRAME DOVERLAY, 0, STATIC
        ARGFRAME ISTACK, 0, STACK
        ARGFRAME PSTACK, 0, STACK
        ARGFRAME XSTACK, 39, STACK
        ARGFRAME IOVERLAY, 0, STATIC
        ARGFRAME DOVERLAY, 0, STATIC
        FUNCALL GP_RecoveryKey, zcl_ReadAttrData
        LOCFRAME ISTACK, 0, STACK
        LOCFRAME PSTACK, 0, STACK
        LOCFRAME XSTACK, 40, STACK
        LOCFRAME IOVERLAY, 0, STATIC
        LOCFRAME DOVERLAY, 0, STATIC
        ARGFRAME ISTACK, 0, STACK
        ARGFRAME PSTACK, 0, STACK
        ARGFRAME XSTACK, 40, STACK
        ARGFRAME IOVERLAY, 0, STATIC
        ARGFRAME DOVERLAY, 0, STATIC
        FUNCALL GP_RecoveryKey, osal_memcmp
        LOCFRAME ISTACK, 0, STACK
        LOCFRAME PSTACK, 0, STACK
        LOCFRAME XSTACK, 39, STACK
        LOCFRAME IOVERLAY, 0, STATIC
        LOCFRAME DOVERLAY, 0, STATIC
        ARGFRAME ISTACK, 0, STACK
        ARGFRAME PSTACK, 0, STACK
        ARGFRAME XSTACK, 39, STACK
        ARGFRAME IOVERLAY, 0, STATIC
        ARGFRAME DOVERLAY, 0, STATIC
        FUNCALL GP_RecoveryKey, osal_memcpy
        LOCFRAME ISTACK, 0, STACK
        LOCFRAME PSTACK, 0, STACK
        LOCFRAME XSTACK, 39, STACK
        LOCFRAME IOVERLAY, 0, STATIC
        LOCFRAME DOVERLAY, 0, STATIC
        ARGFRAME ISTACK, 0, STACK
        ARGFRAME PSTACK, 0, STACK
        ARGFRAME XSTACK, 39, STACK
        ARGFRAME IOVERLAY, 0, STATIC
        ARGFRAME DOVERLAY, 0, STATIC
        FUNCALL GP_RecoveryKey, ZDSecMgrReadKeyFromNv
        LOCFRAME ISTACK, 0, STACK
        LOCFRAME PSTACK, 0, STACK
        LOCFRAME XSTACK, 36, STACK
        LOCFRAME IOVERLAY, 0, STATIC
        LOCFRAME DOVERLAY, 0, STATIC
        ARGFRAME ISTACK, 0, STACK
        ARGFRAME PSTACK, 0, STACK
        ARGFRAME XSTACK, 36, STACK
        ARGFRAME IOVERLAY, 0, STATIC
        ARGFRAME DOVERLAY, 0, STATIC
        REQUIRE ?V0
        REQUIRE ?V1
        REQUIRE ?V2
        REQUIRE ?V3
        REQUIRE ?V4
        REQUIRE ?V5
        REQUIRE ?V6
        MOV       A,#-0xf
        LCALL     ?BANKED_ENTER_XDATA
          CFI DPH0 load(1, XDATA, add(CFA_XSP16, literal(-1)))
          CFI DPL0 load(1, XDATA, add(CFA_XSP16, literal(-2)))
          CFI ?BRET_EXT load(1, XDATA, add(CFA_XSP16, literal(-3)))
          CFI ?RET_HIGH load(1, XDATA, add(CFA_XSP16, literal(-4)))
          CFI ?RET_LOW load(1, XDATA, add(CFA_XSP16, literal(-5)))
          CFI R7 load(1, XDATA, add(CFA_XSP16, literal(-6)))
          CFI V6 load(1, XDATA, add(CFA_XSP16, literal(-7)))
          CFI V5 load(1, XDATA, add(CFA_XSP16, literal(-8)))
          CFI V4 load(1, XDATA, add(CFA_XSP16, literal(-9)))
          CFI V3 load(1, XDATA, add(CFA_XSP16, literal(-10)))
          CFI V2 load(1, XDATA, add(CFA_XSP16, literal(-11)))
          CFI V1 load(1, XDATA, add(CFA_XSP16, literal(-12)))
          CFI V0 load(1, XDATA, add(CFA_XSP16, literal(-13)))
          CFI VB load(1, XDATA, add(CFA_XSP16, literal(-14)))
          CFI R6 load(1, XDATA, add(CFA_XSP16, literal(-15)))
          CFI CFA_SP SP+0
          CFI CFA_XSP16 add(XSP16, 15)
        ; Saved register size: 15
        ; Auto size: 21
        MOV       A,#-0x15
        LCALL     ?ALLOC_XSTACK8
          CFI CFA_XSP16 add(XSP16, 36)
        MOV       A,#0x1
        LCALL     ?XSTACK_DISP0_8
        LCALL     ?Subroutine18 & 0xFFFF
// 1931   //TODO: A.3.7.3.4 Incoming frames: key recovery
// 1932   if(GPDFKeyType)
??CrossCallReturnLabel_30:
        MOV       A,R1
        JZ        ??GP_RecoveryKey_0
// 1933   {
// 1934     uint8 TempKey[SEC_KEY_LEN] = {0xFF};
        MOV       DPTR,#`?<Constant {255, 0, 0, 0, 0, 0, 0, 0, 0, 0, 0,`
        MOV       A,#0x5
        LCALL     ?XSTACK_DISP102_8
        MOV       A,#0x10
        LCALL     ?MOVE_LONG8_XDATA_XDATA
// 1935     if(KeyType == GP_SECURITY_KEY_TYPE_OUT_OF_BOX_GPD_KEY)
        MOV       A,#0x5
        LCALL     ?XSTACK_DISP100_8
        MOV       ?V4,R0
        MOV       ?V5,R1
        MOV       A,#0x1
        LCALL     ?XSTACK_DISP100_8
        MOV       ?V0,R0
        MOV       ?V1,R1
        MOV       R1,?V0
        MOV       R2,?V1
        MOV       R3,#0x0
        MOV       A,#0x4
        XRL       A,R6
        JNZ       ??GP_RecoveryKey_1
// 1936     {
// 1937       //Is the key of the Proxy table entry empty?
// 1938       if(osal_memcmp(&Key,&TempKey,SEC_KEY_LEN))
        ; Setup parameters for call to function osal_memcmp
        MOV       ?V0,?V4
        MOV       ?V1,?V5
        MOV       ?V2,R3
        MOV       R0,#?V0
        LCALL     ?PUSH_XSTACK_I_THREE
          CFI CFA_XSP16 add(XSP16, 39)
        MOV       R4,#0x10
        MOV       R5,#0x0
        LCALL     `??osal_memcmp::?relay`; Banked call to: osal_memcmp
        MOV       A,#0x3
        LCALL     ?DEALLOC_XSTACK8
          CFI CFA_XSP16 add(XSP16, 36)
        MOV       A,R1
        JZ        ??GP_RecoveryKey_2
// 1939       {
// 1940         return GP_SEC_RSP_DROP_FRAME;
// 1941       }          
// 1942       else
// 1943       {
// 1944         //There is a key, then use it
// 1945         return status;
// 1946       }
// 1947     }
// 1948     else if(KeyType == GP_SECURITY_KEY_TYPE_DERIVED_IND_GPD_KEY)
// 1949     {
// 1950       //Is the key of the Proxy table entry empty?
// 1951       if(osal_memcmp(&Key,&TempKey,SEC_KEY_LEN))
// 1952       {
// 1953         return GP_SEC_RSP_DROP_FRAME;
// 1954       }  
// 1955       //There is a key, then use it. Derived keys are provided by the Sink 
// 1956       //device at paring time according to A.3.7.1.2.2
// 1957       return status;
// 1958     }
// 1959     else
// 1960     {
// 1961       return GP_SEC_RSP_DROP_FRAME;
// 1962     }
// 1963   }
// 1964   else
// 1965   {
// 1966     uint8  gpSharedSecKeyType;
// 1967     uint16 AttLen;
// 1968     uint8 TempKey[SEC_KEY_LEN] = {0xFF};
// 1969 
// 1970     //Get the SharedKeyType Attribute
// 1971     zcl_ReadAttrData(GREEN_POWER_INTERNAL_ENDPOINT,ZCL_CLUSTER_ID_GREEN_POWER,ATTRID_GP_SHARED_SEC_KEY_TYPE,&gpSharedSecKeyType,&AttLen);
// 1972 
// 1973     if(KeyType == gpSharedSecKeyType)
// 1974     {
// 1975       if(!osal_memcmp(TempKey,zgpSharedKey,SEC_KEY_LEN))
// 1976       {
// 1977         //Use key shared key
// 1978         osal_memcpy(Key,zgpSharedKey,SEC_KEY_LEN);
// 1979         return status;
// 1980       }
// 1981     }
// 1982     if(KeyType == GP_SECURITY_KEY_TYPE_ZIGBEE_NWK_KEY)
// 1983     {
// 1984       ZDSecMgrReadKeyFromNv(ZCD_NV_PRECFGKEY,Key);
// 1985     }
// 1986     //There is a key, then use it. Derived keys are provided by the Sink 
// 1987     //device at paring time according to A.3.7.1.2.2
// 1988     else
// 1989     {
// 1990       return GP_SEC_RSP_DROP_FRAME;
??GP_RecoveryKey_3:
        MOV       R1,#0x0
??GP_RecoveryKey_4:
        MOV       A,#0x15
// 1991     }
        LJMP      ?Subroutine2 & 0xFFFF
??GP_RecoveryKey_1:
        MOV       A,#0x7
        XRL       A,R6
        JNZ       ??GP_RecoveryKey_3
        ; Setup parameters for call to function osal_memcmp
        MOV       ?V0,?V4
        MOV       ?V1,?V5
        MOV       ?V2,R3
        MOV       R0,#?V0
        LCALL     ?PUSH_XSTACK_I_THREE
          CFI CFA_XSP16 add(XSP16, 39)
        MOV       R4,#0x10
        MOV       R5,#0x0
        LCALL     `??osal_memcmp::?relay`; Banked call to: osal_memcmp
        MOV       A,#0x3
        LCALL     ?DEALLOC_XSTACK8
          CFI CFA_XSP16 add(XSP16, 36)
        MOV       A,R1
        JNZ       ??GP_RecoveryKey_3
??GP_RecoveryKey_2:
        MOV       A,R7
        MOV       R1,A
        SJMP      ??GP_RecoveryKey_4
??GP_RecoveryKey_0:
        MOV       DPTR,#`?<Constant {255, 0, 0, 0, 0, 0, 0, 0, 0, 0, 0,_1`
        MOV       A,#0x5
        LCALL     ?XSTACK_DISP102_8
        MOV       A,#0x10
        LCALL     ?MOVE_LONG8_XDATA_XDATA
        ; Setup parameters for call to function zcl_ReadAttrData
        MOV       A,#0x3
        LCALL     ?XSTACK_DISP100_8
        MOV       ?V0,R0
        MOV       ?V1,R1
        MOV       R0,#?V0
        LCALL     ?PUSH_XSTACK_I_TWO
          CFI CFA_XSP16 add(XSP16, 38)
        MOV       A,#0x2
        LCALL     ?XSTACK_DISP100_8
        MOV       ?V0,R0
        MOV       ?V1,R1
        MOV       R0,#?V0
        LCALL     ?PUSH_XSTACK_I_TWO
          CFI CFA_XSP16 add(XSP16, 40)
        MOV       R4,#0x20
        MOV       R5,#0x0
        MOV       R2,#0x21
        MOV       R3,#0x0
        MOV       R1,#-0xe
        LCALL     `??zcl_ReadAttrData::?relay`; Banked call to: zcl_ReadAttrData
        MOV       A,#0x4
        LCALL     ?DEALLOC_XSTACK8
          CFI CFA_XSP16 add(XSP16, 36)
        MOV       DPL,?XSP + 0
        MOV       DPH,?XSP + 1
        MOVX      A,@DPTR
        XRL       A,R6
        JNZ       ??GP_RecoveryKey_5
        MOV       ?V0,#zgpSharedKey & 0xff
        MOV       ?V1,#(zgpSharedKey >> 8) & 0xff
        MOV       ?V2,#-0x80
        ; Setup parameters for call to function osal_memcmp
        MOV       R0,#?V0
        LCALL     ?PUSH_XSTACK_I_THREE
          CFI CFA_XSP16 add(XSP16, 39)
        MOV       R4,#0x10
        MOV       R5,#0x0
        MOV       A,#0x8
        LCALL     ?XSTACK_DISP0_8
        MOV       R1,DPL
        MOV       R2,DPH
        MOV       R3,#0x0
        LCALL     `??osal_memcmp::?relay`; Banked call to: osal_memcmp
        MOV       A,#0x3
        LCALL     ?DEALLOC_XSTACK8
          CFI CFA_XSP16 add(XSP16, 36)
        MOV       A,R1
        JNZ       ??GP_RecoveryKey_5
        ; Setup parameters for call to function osal_memcpy
        MOV       R0,#?V0
        LCALL     ?PUSH_XSTACK_I_THREE
          CFI CFA_XSP16 add(XSP16, 39)
        MOV       R4,#0x10
        MOV       R5,#0x0
        MOV       A,#0x4
        LCALL     ?XSTACK_DISP0_8
        LCALL     ??Subroutine68_0 & 0xFFFF
??CrossCallReturnLabel_170:
        LCALL     `??osal_memcpy::?relay`; Banked call to: osal_memcpy
        MOV       A,#0x3
        LCALL     ?DEALLOC_XSTACK8
          CFI CFA_XSP16 add(XSP16, 36)
        LJMP      ??GP_RecoveryKey_2 & 0xFFFF
??GP_RecoveryKey_5:
        MOV       A,#0x1
        XRL       A,R6
        JZ        $+5
        LJMP      ??GP_RecoveryKey_3 & 0xFFFF
        ; Setup parameters for call to function ZDSecMgrReadKeyFromNv
        MOV       A,#0x1
        LCALL     ?XSTACK_DISP0_8
        LCALL     ?Subroutine33 & 0xFFFF
// 1992   }
??CrossCallReturnLabel_51:
        MOV       R2,#0x62
        MOV       R3,#0x0
        LCALL     `??ZDSecMgrReadKeyFromNv::?relay`; Banked call to: ZDSecMgrReadKeyFromNv
        LJMP      ??GP_RecoveryKey_2 & 0xFFFF
// 1993   return status;
// 1994 }
          CFI EndBlock cfiBlock306

        RSEG BANKED_CODE:HUGECODE:NOROOT(0)
?Subroutine33:
          CFI Block cfiCond307 Using cfiCommon0
          CFI Function gp_PopulateField
          CFI Conditional ??CrossCallReturnLabel_49
          CFI R6 load(1, XDATA, add(CFA_XSP16, literal(-16)))
          CFI VB load(1, XDATA, add(CFA_XSP16, literal(-15)))
          CFI V0 load(1, XDATA, add(CFA_XSP16, literal(-14)))
          CFI V1 load(1, XDATA, add(CFA_XSP16, literal(-13)))
          CFI V2 load(1, XDATA, add(CFA_XSP16, literal(-12)))
          CFI V3 load(1, XDATA, add(CFA_XSP16, literal(-11)))
          CFI V4 load(1, XDATA, add(CFA_XSP16, literal(-10)))
          CFI V5 load(1, XDATA, add(CFA_XSP16, literal(-9)))
          CFI V6 load(1, XDATA, add(CFA_XSP16, literal(-8)))
          CFI V7 load(1, XDATA, add(CFA_XSP16, literal(-7)))
          CFI R7 load(1, XDATA, add(CFA_XSP16, literal(-6)))
          CFI ?RET_LOW load(1, XDATA, add(CFA_XSP16, literal(-5)))
          CFI ?RET_HIGH load(1, XDATA, add(CFA_XSP16, literal(-4)))
          CFI ?BRET_EXT load(1, XDATA, add(CFA_XSP16, literal(-3)))
          CFI DPL0 load(1, XDATA, add(CFA_XSP16, literal(-2)))
          CFI DPH0 load(1, XDATA, add(CFA_XSP16, literal(-1)))
          CFI CFA_SP SP+-2
          CFI CFA_XSP16 add(XSP16, 17)
          CFI Block cfiCond308 Using cfiCommon0
          CFI (cfiCond308) Function gp_getProxyTableByGpId
          CFI (cfiCond308) Conditional ??CrossCallReturnLabel_50
          CFI (cfiCond308) R6 load(1, XDATA, add(CFA_XSP16, literal(-15)))
          CFI (cfiCond308) VB load(1, XDATA, add(CFA_XSP16, literal(-14)))
          CFI (cfiCond308) V0 load(1, XDATA, add(CFA_XSP16, literal(-13)))
          CFI (cfiCond308) V1 load(1, XDATA, add(CFA_XSP16, literal(-12)))
          CFI (cfiCond308) V2 load(1, XDATA, add(CFA_XSP16, literal(-11)))
          CFI (cfiCond308) V3 load(1, XDATA, add(CFA_XSP16, literal(-10)))
          CFI (cfiCond308) V4 load(1, XDATA, add(CFA_XSP16, literal(-9)))
          CFI (cfiCond308) V5 load(1, XDATA, add(CFA_XSP16, literal(-8)))
          CFI (cfiCond308) V6 load(1, XDATA, add(CFA_XSP16, literal(-7)))
          CFI (cfiCond308) R7 load(1, XDATA, add(CFA_XSP16, literal(-6)))
          CFI (cfiCond308) ?RET_LOW load(1, XDATA, add(CFA_XSP16, literal(-5)))
          CFI (cfiCond308) ?RET_HIGH load(1, XDATA, add(CFA_XSP16, literal(-4)))
          CFI (cfiCond308) ?BRET_EXT load(1, XDATA, add(CFA_XSP16, literal(-3)))
          CFI (cfiCond308) DPL0 load(1, XDATA, add(CFA_XSP16, literal(-2)))
          CFI (cfiCond308) DPH0 load(1, XDATA, add(CFA_XSP16, literal(-1)))
          CFI (cfiCond308) CFA_SP SP+-2
          CFI (cfiCond308) CFA_XSP16 add(XSP16, 19)
          CFI Block cfiCond309 Using cfiCommon0
          CFI (cfiCond309) Function GP_RecoveryKey
          CFI (cfiCond309) Conditional ??CrossCallReturnLabel_51
          CFI (cfiCond309) R6 load(1, XDATA, add(CFA_XSP16, literal(-15)))
          CFI (cfiCond309) VB load(1, XDATA, add(CFA_XSP16, literal(-14)))
          CFI (cfiCond309) V0 load(1, XDATA, add(CFA_XSP16, literal(-13)))
          CFI (cfiCond309) V1 load(1, XDATA, add(CFA_XSP16, literal(-12)))
          CFI (cfiCond309) V2 load(1, XDATA, add(CFA_XSP16, literal(-11)))
          CFI (cfiCond309) V3 load(1, XDATA, add(CFA_XSP16, literal(-10)))
          CFI (cfiCond309) V4 load(1, XDATA, add(CFA_XSP16, literal(-9)))
          CFI (cfiCond309) V5 load(1, XDATA, add(CFA_XSP16, literal(-8)))
          CFI (cfiCond309) V6 load(1, XDATA, add(CFA_XSP16, literal(-7)))
          CFI (cfiCond309) R7 load(1, XDATA, add(CFA_XSP16, literal(-6)))
          CFI (cfiCond309) ?RET_LOW load(1, XDATA, add(CFA_XSP16, literal(-5)))
          CFI (cfiCond309) ?RET_HIGH load(1, XDATA, add(CFA_XSP16, literal(-4)))
          CFI (cfiCond309) ?BRET_EXT load(1, XDATA, add(CFA_XSP16, literal(-3)))
          CFI (cfiCond309) DPL0 load(1, XDATA, add(CFA_XSP16, literal(-2)))
          CFI (cfiCond309) DPH0 load(1, XDATA, add(CFA_XSP16, literal(-1)))
          CFI (cfiCond309) CFA_SP SP+-2
          CFI (cfiCond309) CFA_XSP16 add(XSP16, 36)
          CFI Block cfiCond310 Using cfiCommon0
          CFI (cfiCond310) Function gp_expireDuplicateFiltering
          CFI (cfiCond310) Conditional ??CrossCallReturnLabel_52
          CFI (cfiCond310) R6 load(1, XDATA, add(CFA_XSP16, literal(-12)))
          CFI (cfiCond310) VB load(1, XDATA, add(CFA_XSP16, literal(-11)))
          CFI (cfiCond310) V0 load(1, XDATA, add(CFA_XSP16, literal(-10)))
          CFI (cfiCond310) V1 load(1, XDATA, add(CFA_XSP16, literal(-9)))
          CFI (cfiCond310) V2 load(1, XDATA, add(CFA_XSP16, literal(-8)))
          CFI (cfiCond310) V3 load(1, XDATA, add(CFA_XSP16, literal(-7)))
          CFI (cfiCond310) R7 load(1, XDATA, add(CFA_XSP16, literal(-6)))
          CFI (cfiCond310) ?RET_LOW load(1, XDATA, add(CFA_XSP16, literal(-5)))
          CFI (cfiCond310) ?RET_HIGH load(1, XDATA, add(CFA_XSP16, literal(-4)))
          CFI (cfiCond310) ?BRET_EXT load(1, XDATA, add(CFA_XSP16, literal(-3)))
          CFI (cfiCond310) DPL0 load(1, XDATA, add(CFA_XSP16, literal(-2)))
          CFI (cfiCond310) DPH0 load(1, XDATA, add(CFA_XSP16, literal(-1)))
          CFI (cfiCond310) CFA_SP SP+-2
          CFI (cfiCond310) CFA_XSP16 add(XSP16, 12)
          CFI Block cfiPicker311 Using cfiCommon1
          CFI (cfiPicker311) NoFunction
          CFI (cfiPicker311) Picker
        MOVX      A,@DPTR
        MOV       R4,A
        INC       DPTR
        MOVX      A,@DPTR
        MOV       R5,A
        RET
          CFI EndBlock cfiCond307
          CFI EndBlock cfiCond308
          CFI EndBlock cfiCond309
          CFI EndBlock cfiCond310
          CFI EndBlock cfiPicker311

        RSEG BANKED_CODE:HUGECODE:NOROOT(0)
?Subroutine18:
          CFI Block cfiCond312 Using cfiCommon0
          CFI Function gp_SecurityOperationProxy
          CFI Conditional ??CrossCallReturnLabel_29
          CFI R6 load(1, XDATA, add(CFA_XSP16, literal(-16)))
          CFI VB load(1, XDATA, add(CFA_XSP16, literal(-15)))
          CFI V0 load(1, XDATA, add(CFA_XSP16, literal(-14)))
          CFI V1 load(1, XDATA, add(CFA_XSP16, literal(-13)))
          CFI V2 load(1, XDATA, add(CFA_XSP16, literal(-12)))
          CFI V3 load(1, XDATA, add(CFA_XSP16, literal(-11)))
          CFI V4 load(1, XDATA, add(CFA_XSP16, literal(-10)))
          CFI V5 load(1, XDATA, add(CFA_XSP16, literal(-9)))
          CFI V6 load(1, XDATA, add(CFA_XSP16, literal(-8)))
          CFI V7 load(1, XDATA, add(CFA_XSP16, literal(-7)))
          CFI R7 load(1, XDATA, add(CFA_XSP16, literal(-6)))
          CFI ?RET_LOW load(1, XDATA, add(CFA_XSP16, literal(-5)))
          CFI ?RET_HIGH load(1, XDATA, add(CFA_XSP16, literal(-4)))
          CFI ?BRET_EXT load(1, XDATA, add(CFA_XSP16, literal(-3)))
          CFI DPL0 load(1, XDATA, add(CFA_XSP16, literal(-2)))
          CFI DPH0 load(1, XDATA, add(CFA_XSP16, literal(-1)))
          CFI CFA_SP SP+-2
          CFI CFA_XSP16 add(XSP16, 94)
          CFI Block cfiCond313 Using cfiCommon0
          CFI (cfiCond313) Function GP_RecoveryKey
          CFI (cfiCond313) Conditional ??CrossCallReturnLabel_30
          CFI (cfiCond313) R6 load(1, XDATA, add(CFA_XSP16, literal(-15)))
          CFI (cfiCond313) VB load(1, XDATA, add(CFA_XSP16, literal(-14)))
          CFI (cfiCond313) V0 load(1, XDATA, add(CFA_XSP16, literal(-13)))
          CFI (cfiCond313) V1 load(1, XDATA, add(CFA_XSP16, literal(-12)))
          CFI (cfiCond313) V2 load(1, XDATA, add(CFA_XSP16, literal(-11)))
          CFI (cfiCond313) V3 load(1, XDATA, add(CFA_XSP16, literal(-10)))
          CFI (cfiCond313) V4 load(1, XDATA, add(CFA_XSP16, literal(-9)))
          CFI (cfiCond313) V5 load(1, XDATA, add(CFA_XSP16, literal(-8)))
          CFI (cfiCond313) V6 load(1, XDATA, add(CFA_XSP16, literal(-7)))
          CFI (cfiCond313) R7 load(1, XDATA, add(CFA_XSP16, literal(-6)))
          CFI (cfiCond313) ?RET_LOW load(1, XDATA, add(CFA_XSP16, literal(-5)))
          CFI (cfiCond313) ?RET_HIGH load(1, XDATA, add(CFA_XSP16, literal(-4)))
          CFI (cfiCond313) ?BRET_EXT load(1, XDATA, add(CFA_XSP16, literal(-3)))
          CFI (cfiCond313) DPL0 load(1, XDATA, add(CFA_XSP16, literal(-2)))
          CFI (cfiCond313) DPH0 load(1, XDATA, add(CFA_XSP16, literal(-1)))
          CFI (cfiCond313) CFA_SP SP+-2
          CFI (cfiCond313) CFA_XSP16 add(XSP16, 36)
          CFI Block cfiPicker314 Using cfiCommon1
          CFI (cfiPicker314) NoFunction
          CFI (cfiPicker314) Picker
        MOV       A,R4
        MOVX      @DPTR,A
        INC       DPTR
        MOV       A,R5
        MOVX      @DPTR,A
        MOV       A,R2
        MOV       R6,A
        MOV       A,R3
        MOV       R7,A
        RET
          CFI EndBlock cfiCond312
          CFI EndBlock cfiCond313
          CFI EndBlock cfiPicker314
// 1995 
// 1996 
// 1997 gp_DataInd_t* gp_DataIndFindDuplicate(uint8 handle, uint8 secLvl)
// 1998 {
// 1999   gp_DataInd_t* temp;
// 2000   gp_DataInd_t* tempList;
// 2001   temp = gp_DataIndGet(handle);
// 2002   
// 2003   if(temp != NULL)
// 2004   {
// 2005     tempList = gp_DataIndList;
// 2006     
// 2007     while(tempList != NULL)
// 2008     {
// 2009       //search for MAC seq num
// 2010       if(secLvl == 0)
// 2011       {
// 2012         if((temp->SeqNumber == tempList->SeqNumber) && (temp->appID == tempList->appID)&&
// 2013            (temp->SecReqHandling.dGPStubHandle != tempList->SecReqHandling.dGPStubHandle))
// 2014         {
// 2015           break;
// 2016         }
// 2017       }
// 2018       //Other secLevels uses SecFrameCounter
// 2019       else
// 2020       {
// 2021         if((temp->GPDSecFrameCounter == tempList->GPDSecFrameCounter) && 
// 2022            (temp->SecReqHandling.dGPStubHandle != tempList->SecReqHandling.dGPStubHandle))
// 2023         {
// 2024           
// 2025           break;
// 2026         }
// 2027       }
// 2028       tempList = tempList->SecReqHandling.next;
// 2029     }
// 2030   }
// 2031   return tempList;
// 2032 }
// 2033  
// 2034 /*********************************************************************
// 2035  * @fn          GP_DataCnf
// 2036  *
// 2037  * @brief       Primitive to notify GP EndPoint the status of a previews DataReq
// 2038  *
// 2039  * @param       gp_DataCnf
// 2040  *
// 2041  * @return      none
// 2042  */

        RSEG BANKED_CODE:HUGECODE:NOROOT(0)
// 2043 void GP_DataCnf(gp_DataCnf_t *gp_DataCnf)
GP_DataCnf:
          CFI Block cfiBlock315 Using cfiCommon0
          CFI Function GP_DataCnf
        CODE
// 2044 {
        ; Saved register size: 0
        ; Auto size: 0
// 2045   //Current spec does not mandates to do anything with this.
// 2046   switch(gp_DataCnf->status)
// 2047   {
// 2048     case GP_DATA_CNF_TX_QUEUE_FULL:
// 2049     case GP_DATA_CNF_ENTRY_REPLACED:
// 2050     case GP_DATA_CNF_ENTRY_ADDED:
// 2051     case GP_DATA_CNF_ENTRY_EXPIRED:
// 2052     case GP_DATA_CNF_ENTRY_REMOVED:
// 2053     case GP_DATA_CNF_GPDF_SENDING_FINALIZED:
// 2054     break;
// 2055   }  
// 2056 }
        LJMP      ?BRET
          CFI EndBlock cfiBlock315
// 2057 
// 2058  /*********************************************************************
// 2059  * PRIVATE FUNCTIONS
// 2060  *********************************************************************/
// 2061 

        RSEG BANKED_CODE:HUGECODE:NOROOT(0)
// 2062 void gp_RegisterCommissioningModeCB(gpCommissioningMode_t gpCommissioningMode)
gp_RegisterCommissioningModeCB:
          CFI Block cfiBlock316 Using cfiCommon0
          CFI Function gp_RegisterCommissioningModeCB
        CODE
// 2063 {
        PUSH      DPL
          CFI DPL0 Frame(CFA_SP, 4)
          CFI CFA_SP SP+-4
        PUSH      DPH
          CFI DPH0 Frame(CFA_SP, 5)
          CFI CFA_SP SP+-5
        ; Saved register size: 2
        ; Auto size: 0
// 2064   if(gpCommissioningMode)
        MOV       A,R2
        ORL       A,R3
        JZ        ??CrossCallReturnLabel_26
// 2065   {
// 2066      pfnCommissioningMode = gpCommissioningMode;
        MOV       DPTR,#pfnCommissioningMode
        LCALL     ?Subroutine17 & 0xFFFF
// 2067   }
// 2068 }
??CrossCallReturnLabel_26:
        LJMP      ??Subroutine55_0 & 0xFFFF
          CFI EndBlock cfiBlock316

        RSEG BANKED_CODE:HUGECODE:NOROOT(0)
?Subroutine17:
          CFI Block cfiCond317 Using cfiCommon0
          CFI Function zclGp_DataIndParse
          CFI Conditional ??CrossCallReturnLabel_23
          CFI R6 load(1, XDATA, add(CFA_XSP16, literal(-15)))
          CFI VB load(1, XDATA, add(CFA_XSP16, literal(-14)))
          CFI V0 load(1, XDATA, add(CFA_XSP16, literal(-13)))
          CFI V1 load(1, XDATA, add(CFA_XSP16, literal(-12)))
          CFI V2 load(1, XDATA, add(CFA_XSP16, literal(-11)))
          CFI V3 load(1, XDATA, add(CFA_XSP16, literal(-10)))
          CFI V4 load(1, XDATA, add(CFA_XSP16, literal(-9)))
          CFI V5 load(1, XDATA, add(CFA_XSP16, literal(-8)))
          CFI V6 load(1, XDATA, add(CFA_XSP16, literal(-7)))
          CFI R7 load(1, XDATA, add(CFA_XSP16, literal(-6)))
          CFI ?RET_LOW load(1, XDATA, add(CFA_XSP16, literal(-5)))
          CFI ?RET_HIGH load(1, XDATA, add(CFA_XSP16, literal(-4)))
          CFI ?BRET_EXT load(1, XDATA, add(CFA_XSP16, literal(-3)))
          CFI DPL0 load(1, XDATA, add(CFA_XSP16, literal(-2)))
          CFI DPH0 load(1, XDATA, add(CFA_XSP16, literal(-1)))
          CFI CFA_SP SP+-2
          CFI CFA_XSP16 add(XSP16, 86)
          CFI Block cfiCond318 Using cfiCommon0
          CFI (cfiCond318) Function zclGp_GpProxyTableReqCB
          CFI (cfiCond318) Conditional ??CrossCallReturnLabel_24
          CFI (cfiCond318) R6 load(1, XDATA, add(CFA_XSP16, literal(-15)))
          CFI (cfiCond318) VB load(1, XDATA, add(CFA_XSP16, literal(-14)))
          CFI (cfiCond318) V0 load(1, XDATA, add(CFA_XSP16, literal(-13)))
          CFI (cfiCond318) V1 load(1, XDATA, add(CFA_XSP16, literal(-12)))
          CFI (cfiCond318) V2 load(1, XDATA, add(CFA_XSP16, literal(-11)))
          CFI (cfiCond318) V3 load(1, XDATA, add(CFA_XSP16, literal(-10)))
          CFI (cfiCond318) V4 load(1, XDATA, add(CFA_XSP16, literal(-9)))
          CFI (cfiCond318) V5 load(1, XDATA, add(CFA_XSP16, literal(-8)))
          CFI (cfiCond318) V6 load(1, XDATA, add(CFA_XSP16, literal(-7)))
          CFI (cfiCond318) R7 load(1, XDATA, add(CFA_XSP16, literal(-6)))
          CFI (cfiCond318) ?RET_LOW load(1, XDATA, add(CFA_XSP16, literal(-5)))
          CFI (cfiCond318) ?RET_HIGH load(1, XDATA, add(CFA_XSP16, literal(-4)))
          CFI (cfiCond318) ?BRET_EXT load(1, XDATA, add(CFA_XSP16, literal(-3)))
          CFI (cfiCond318) DPL0 load(1, XDATA, add(CFA_XSP16, literal(-2)))
          CFI (cfiCond318) DPH0 load(1, XDATA, add(CFA_XSP16, literal(-1)))
          CFI (cfiCond318) CFA_SP SP+-2
          CFI (cfiCond318) CFA_XSP16 add(XSP16, 181)
          CFI Block cfiCond319 Using cfiCommon0
          CFI (cfiCond319) Function zclGp_GpResponseCommandCB
          CFI (cfiCond319) Conditional ??CrossCallReturnLabel_25
          CFI (cfiCond319) R6 load(1, XDATA, add(CFA_XSP16, literal(-15)))
          CFI (cfiCond319) VB load(1, XDATA, add(CFA_XSP16, literal(-14)))
          CFI (cfiCond319) V0 load(1, XDATA, add(CFA_XSP16, literal(-13)))
          CFI (cfiCond319) V1 load(1, XDATA, add(CFA_XSP16, literal(-12)))
          CFI (cfiCond319) V2 load(1, XDATA, add(CFA_XSP16, literal(-11)))
          CFI (cfiCond319) V3 load(1, XDATA, add(CFA_XSP16, literal(-10)))
          CFI (cfiCond319) V4 load(1, XDATA, add(CFA_XSP16, literal(-9)))
          CFI (cfiCond319) V5 load(1, XDATA, add(CFA_XSP16, literal(-8)))
          CFI (cfiCond319) V6 load(1, XDATA, add(CFA_XSP16, literal(-7)))
          CFI (cfiCond319) R7 load(1, XDATA, add(CFA_XSP16, literal(-6)))
          CFI (cfiCond319) ?RET_LOW load(1, XDATA, add(CFA_XSP16, literal(-5)))
          CFI (cfiCond319) ?RET_HIGH load(1, XDATA, add(CFA_XSP16, literal(-4)))
          CFI (cfiCond319) ?BRET_EXT load(1, XDATA, add(CFA_XSP16, literal(-3)))
          CFI (cfiCond319) DPL0 load(1, XDATA, add(CFA_XSP16, literal(-2)))
          CFI (cfiCond319) DPH0 load(1, XDATA, add(CFA_XSP16, literal(-1)))
          CFI (cfiCond319) CFA_SP SP+-2
          CFI (cfiCond319) CFA_XSP16 add(XSP16, 93)
          CFI Block cfiCond320 Using cfiCommon0
          CFI (cfiCond320) Function gp_RegisterCommissioningModeCB
          CFI (cfiCond320) Conditional ??CrossCallReturnLabel_26
          CFI (cfiCond320) DPL0 Frame(CFA_SP, 4)
          CFI (cfiCond320) DPH0 Frame(CFA_SP, 5)
          CFI (cfiCond320) CFA_SP SP+-7
          CFI Block cfiCond321 Using cfiCommon0
          CFI (cfiCond321) Function gp_RegisterGPChangeChannelReqCB
          CFI (cfiCond321) Conditional ??CrossCallReturnLabel_27
          CFI (cfiCond321) DPL0 Frame(CFA_SP, 4)
          CFI (cfiCond321) DPH0 Frame(CFA_SP, 5)
          CFI (cfiCond321) CFA_SP SP+-7
          CFI Block cfiCond322 Using cfiCommon0
          CFI (cfiCond322) Function gp_RegisterGPChangeChannelReqForBDBCB
          CFI (cfiCond322) Conditional ??CrossCallReturnLabel_28
          CFI (cfiCond322) DPL0 Frame(CFA_SP, 4)
          CFI (cfiCond322) DPH0 Frame(CFA_SP, 5)
          CFI (cfiCond322) CFA_SP SP+-7
          CFI Block cfiPicker323 Using cfiCommon1
          CFI (cfiPicker323) NoFunction
          CFI (cfiPicker323) Picker
        MOV       A,R2
        MOVX      @DPTR,A
        INC       DPTR
        MOV       A,R3
        MOVX      @DPTR,A
        RET
          CFI EndBlock cfiCond317
          CFI EndBlock cfiCond318
          CFI EndBlock cfiCond319
          CFI EndBlock cfiCond320
          CFI EndBlock cfiCond321
          CFI EndBlock cfiCond322
          CFI EndBlock cfiPicker323
// 2069 
// 2070 /*********************************************************************
// 2071  * @fn          gp_RegisterGPChangeChannelReqCB
// 2072  *
// 2073  * @brief       Register a callback in which the application will be notified about a change
// 2074  *              of channel for at most gpBirectionalCommissioningChangeChannelTimeout ms
// 2075  *              to perform GP bidirectional commissioning in the channel parameter.
// 2076  *
// 2077  * @param       gpChangeChannelReq
// 2078  *
// 2079  * @return      none
// 2080  */

        RSEG BANKED_CODE:HUGECODE:NOROOT(0)
// 2081 void gp_RegisterGPChangeChannelReqCB(gpChangeChannelReq_t gpChangeChannelReq)
gp_RegisterGPChangeChannelReqCB:
          CFI Block cfiBlock324 Using cfiCommon0
          CFI Function gp_RegisterGPChangeChannelReqCB
        CODE
// 2082 {
        PUSH      DPL
          CFI DPL0 Frame(CFA_SP, 4)
          CFI CFA_SP SP+-4
        PUSH      DPH
          CFI DPH0 Frame(CFA_SP, 5)
          CFI CFA_SP SP+-5
        ; Saved register size: 2
        ; Auto size: 0
// 2083   if(gpChangeChannelReq)
        MOV       A,R2
        ORL       A,R3
        JZ        ??CrossCallReturnLabel_27
// 2084   {
// 2085     pfnChangeChannelReq = gpChangeChannelReq;
        MOV       DPTR,#pfnChangeChannelReq
        LCALL     ?Subroutine17 & 0xFFFF
// 2086   }
// 2087 }
??CrossCallReturnLabel_27:
        LJMP      ??Subroutine55_0 & 0xFFFF
          CFI EndBlock cfiBlock324
// 2088 
// 2089 /*********************************************************************
// 2090  * @fn          gp_RegisterGPChangeChannelReqForBDBCB
// 2091  *
// 2092  * @brief       Register a callback in which the bdb will be notified about a change
// 2093  *              of channel for at most gpBirectionalCommissioningChangeChannelTimeout ms
// 2094  *              to perform GP bidirectional commissioning in the channel parameter.
// 2095  *
// 2096  * @param       gpChangeChannelReq
// 2097  *
// 2098  * @return      none
// 2099  */

        RSEG BANKED_CODE:HUGECODE:NOROOT(0)
// 2100 void gp_RegisterGPChangeChannelReqForBDBCB(gpChangeChannelReq_t gpChangeChannelReq)
gp_RegisterGPChangeChannelReqForBDBCB:
          CFI Block cfiBlock325 Using cfiCommon0
          CFI Function gp_RegisterGPChangeChannelReqForBDBCB
        CODE
// 2101 {
        PUSH      DPL
          CFI DPL0 Frame(CFA_SP, 4)
          CFI CFA_SP SP+-4
        PUSH      DPH
          CFI DPH0 Frame(CFA_SP, 5)
          CFI CFA_SP SP+-5
        ; Saved register size: 2
        ; Auto size: 0
// 2102   if(gpChangeChannelReq)
        MOV       A,R2
        ORL       A,R3
        JZ        ??CrossCallReturnLabel_28
// 2103   {
// 2104     pfnChangeChannelReqForBDB = gpChangeChannelReq;
        MOV       DPTR,#pfnChangeChannelReqForBDB
        LCALL     ?Subroutine17 & 0xFFFF
// 2105   }
// 2106 }
??CrossCallReturnLabel_28:
        LJMP      ??Subroutine55_0 & 0xFFFF
          CFI EndBlock cfiBlock325
// 2107 
// 2108 
// 2109 
// 2110 
// 2111 /*********************************************************************
// 2112  * @fn          gp_returnOperationalChannel
// 2113  *
// 2114  * @brief       Return to the operational channel after bidirectional commissioning
// 2115  *
// 2116  * @param       none
// 2117  *
// 2118  * @return      none
// 2119  */

        RSEG BANKED_CODE:HUGECODE:NOROOT(0)
// 2120 void gp_returnOperationalChannel(void)
gp_returnOperationalChannel:
          CFI Block cfiBlock326 Using cfiCommon0
          CFI Function gp_returnOperationalChannel
        CODE
// 2121 {
        FUNCALL gp_returnOperationalChannel, ZMacSetReq
        LOCFRAME ISTACK, 2, STACK
        LOCFRAME PSTACK, 0, STACK
        LOCFRAME XSTACK, 21, STACK
        LOCFRAME IOVERLAY, 0, STATIC
        LOCFRAME DOVERLAY, 0, STATIC
        ARGFRAME ISTACK, 2, STACK
        ARGFRAME PSTACK, 0, STACK
        ARGFRAME XSTACK, 21, STACK
        ARGFRAME IOVERLAY, 0, STATIC
        ARGFRAME DOVERLAY, 0, STATIC
        FUNCALL gp_returnOperationalChannel, osal_stop_timerEx
        LOCFRAME ISTACK, 2, STACK
        LOCFRAME PSTACK, 0, STACK
        LOCFRAME XSTACK, 21, STACK
        LOCFRAME IOVERLAY, 0, STATIC
        LOCFRAME DOVERLAY, 0, STATIC
        ARGFRAME ISTACK, 2, STACK
        ARGFRAME PSTACK, 0, STACK
        ARGFRAME XSTACK, 21, STACK
        ARGFRAME IOVERLAY, 0, STATIC
        ARGFRAME DOVERLAY, 0, STATIC
        FUNCALL gp_returnOperationalChannel, GP_DataReq
        LOCFRAME ISTACK, 2, STACK
        LOCFRAME PSTACK, 0, STACK
        LOCFRAME XSTACK, 21, STACK
        LOCFRAME IOVERLAY, 0, STATIC
        LOCFRAME DOVERLAY, 0, STATIC
        ARGFRAME ISTACK, 2, STACK
        ARGFRAME PSTACK, 0, STACK
        ARGFRAME XSTACK, 21, STACK
        ARGFRAME IOVERLAY, 0, STATIC
        ARGFRAME DOVERLAY, 0, STATIC
        PUSH      DPL
          CFI DPL0 Frame(CFA_SP, 4)
          CFI CFA_SP SP+-4
        PUSH      DPH
          CFI DPH0 Frame(CFA_SP, 5)
          CFI CFA_SP SP+-5
        ; Saved register size: 2
        ; Auto size: 21
        MOV       A,#-0x15
        LCALL     ?ALLOC_XSTACK8
          CFI CFA_XSP16 add(XSP16, 21)
// 2122   gp_DataReq_t gp_DataReq;
// 2123   _NIB.nwkLogicalChannel = gp_tempLogicalChannel;
        MOV       DPTR,#gp_tempLogicalChannel
        MOVX      A,@DPTR
        MOV       DPTR,#_NIB + 22
        MOVX      @DPTR,A
// 2124   ZMacSetReq( ZMacChannel, &(_NIB.nwkLogicalChannel) );
        ; Setup parameters for call to function ZMacSetReq
        MOV       R2,#(_NIB + 22) & 0xff
        MOV       R3,#((_NIB + 22) >> 8) & 0xff
        MOV       R1,#-0x1f
        LCALL     `??ZMacSetReq::?relay`; Banked call to: ZMacSetReq
// 2125   osal_stop_timerEx(gp_TaskID,GP_CHANNEL_CONFIGURATION_TIMEOUT);
        ; Setup parameters for call to function osal_stop_timerEx
        MOV       R2,#0x8
        MOV       R3,#0x0
        MOV       DPTR,#gp_TaskID
        MOVX      A,@DPTR
        MOV       R1,A
        LCALL     `??osal_stop_timerEx::?relay`; Banked call to: osal_stop_timerEx
// 2126   
// 2127   gp_DataReq.Action = 0;
        MOV       A,#0x2
        LCALL     ?XSTACK_DISP0_8
        CLR       A
        MOVX      @DPTR,A
// 2128   gp_DataReq.gpd_ID.AppID = GP_APP_ID_DEFAULT;
        MOV       A,#0x4
        LCALL     ?XSTACK_DISP0_8
        CLR       A
        MOVX      @DPTR,A
// 2129   gp_DataReq.gpd_ID.GPDId.SrcID = 0;
        MOV       A,#0x5
        LCALL     ?XSTACK_DISP0_8
        CLR       A
        LCALL     ??Subroutine56_0 & 0xFFFF
// 2130   
// 2131   GP_DataReq(&gp_DataReq);
??CrossCallReturnLabel_97:
        ; Setup parameters for call to function GP_DataReq
        MOV       R2,?XSP + 0
        MOV       R3,?XSP + 1
        LCALL     `??GP_DataReq::?relay`; Banked call to: GP_DataReq
// 2132 }
        MOV       A,#0x15
        LJMP      ?Subroutine0 & 0xFFFF
          CFI EndBlock cfiBlock326
// 2133 
// 2134      
// 2135  /*********************************************************************
// 2136  * @fn          gp_expireDuplicateFiltering
// 2137  *
// 2138  * @brief       Process the expiration of the packets in the duplicate filtering
// 2139  *              list. Assumption is the first in the queue is the first into expire.
// 2140  *
// 2141  * @param       none
// 2142  *
// 2143  * @return      none
// 2144  */    

        RSEG BANKED_CODE:HUGECODE:NOROOT(0)
// 2145 void gp_expireDuplicateFiltering(void)
gp_expireDuplicateFiltering:
          CFI Block cfiBlock327 Using cfiCommon0
          CFI Function gp_expireDuplicateFiltering
        CODE
// 2146 {
        FUNCALL gp_expireDuplicateFiltering, gp_DataIndReleaseFromList
        LOCFRAME ISTACK, 0, STACK
        LOCFRAME PSTACK, 0, STACK
        LOCFRAME XSTACK, 12, STACK
        LOCFRAME IOVERLAY, 0, STATIC
        LOCFRAME DOVERLAY, 0, STATIC
        ARGFRAME ISTACK, 0, STACK
        ARGFRAME PSTACK, 0, STACK
        ARGFRAME XSTACK, 12, STACK
        ARGFRAME IOVERLAY, 0, STATIC
        ARGFRAME DOVERLAY, 0, STATIC
        REQUIRE ?V0
        REQUIRE ?V1
        REQUIRE ?V2
        REQUIRE ?V3
        MOV       A,#-0xc
        LCALL     ?BANKED_ENTER_XDATA
          CFI DPH0 load(1, XDATA, add(CFA_XSP16, literal(-1)))
          CFI DPL0 load(1, XDATA, add(CFA_XSP16, literal(-2)))
          CFI ?BRET_EXT load(1, XDATA, add(CFA_XSP16, literal(-3)))
          CFI ?RET_HIGH load(1, XDATA, add(CFA_XSP16, literal(-4)))
          CFI ?RET_LOW load(1, XDATA, add(CFA_XSP16, literal(-5)))
          CFI R7 load(1, XDATA, add(CFA_XSP16, literal(-6)))
          CFI V3 load(1, XDATA, add(CFA_XSP16, literal(-7)))
          CFI V2 load(1, XDATA, add(CFA_XSP16, literal(-8)))
          CFI V1 load(1, XDATA, add(CFA_XSP16, literal(-9)))
          CFI V0 load(1, XDATA, add(CFA_XSP16, literal(-10)))
          CFI VB load(1, XDATA, add(CFA_XSP16, literal(-11)))
          CFI R6 load(1, XDATA, add(CFA_XSP16, literal(-12)))
          CFI CFA_SP SP+0
          CFI CFA_XSP16 add(XSP16, 12)
        ; Saved register size: 12
        ; Auto size: 0
// 2147   gp_DataInd_t * temp;
// 2148   uint32 timeout;
// 2149   
// 2150   temp = gp_DataIndList;
        MOV       DPTR,#gp_DataIndList
        MOVX      A,@DPTR
        MOV       R6,A
        INC       DPTR
        MOVX      A,@DPTR
        MOV       R7,A
// 2151   timeout = gp_DataIndList->SecReqHandling.timeout;
        MOV       DPTR,#gp_DataIndList
        LCALL     ??Subroutine63_0 & 0xFFFF
??CrossCallReturnLabel_135:
        INC       DPTR
        INC       DPTR
        INC       DPTR
        INC       DPTR
        INC       DPTR
        MOV       R0,#?V0
        LCALL     ?L_MOV_X
        SJMP      ??gp_expireDuplicateFiltering_0
// 2152   
// 2153   while(temp != NULL)
// 2154   {
// 2155     if(timeout >= temp->SecReqHandling.timeout)
// 2156     {
// 2157       gp_DataInd_t *expired = temp;   
??gp_expireDuplicateFiltering_1:
        MOV       A,R6
        MOV       R2,A
        MOV       A,R7
        MOV       R3,A
// 2158       
// 2159       temp = temp->SecReqHandling.next;
        MOV       A,R4
        MOV       R6,A
        MOV       A,R5
        MOV       R7,A
// 2160       gp_DataIndReleaseFromList(TRUE, expired,&gp_DataIndList);
        ; Setup parameters for call to function gp_DataIndReleaseFromList
        MOV       R4,#gp_DataIndList & 0xff
        MOV       R5,#(gp_DataIndList >> 8) & 0xff
        MOV       R1,#0x1
        LCALL     `??gp_DataIndReleaseFromList::?relay`; Banked call to: gp_DataIndReleaseFromList
// 2161     }
??gp_expireDuplicateFiltering_0:
        MOV       A,R6
        ORL       A,R7
        JZ        ??gp_expireDuplicateFiltering_2
        MOV       DPL,R6
        MOV       DPH,R7
        INC       DPTR
        INC       DPTR
        INC       DPTR
        LCALL     ?Subroutine33 & 0xFFFF
??CrossCallReturnLabel_52:
        MOV       A,R6
        ADD       A,#0x5
        MOV       R0,A
        CLR       A
        ADDC      A,R7
        MOV       R1,A
        MOV       A,R0
        MOV       R2,A
        MOV       A,R1
        MOV       R3,A
        MOV       DPL,R2
        MOV       DPH,R3
        MOV       R0,#?V0
        LCALL     ?UL_GE_X
        JC        ??gp_expireDuplicateFiltering_1
// 2162     else
// 2163     {
// 2164       temp->SecReqHandling.timeout -= timeout;
        MOV       DPL,R2
        MOV       DPH,R3
        MOV       R0,#?V0
        LCALL     ?L_SUB_FROM_X
// 2165       temp = temp->SecReqHandling.next;
        MOV       A,R4
        MOV       R6,A
        MOV       A,R5
        MOV       R7,A
        SJMP      ??gp_expireDuplicateFiltering_0
// 2166     }
// 2167   }
// 2168 }
??gp_expireDuplicateFiltering_2:
        LJMP      ?Subroutine4 & 0xFFFF
          CFI EndBlock cfiBlock327

        RSEG XDATA_ID:CODE:NOROOT(0)
`?<Initializer for zclGp_gppMaxProxyTableEntrie`:
        DATA8
        DB 5

        RSEG XDATA_ID:CODE:NOROOT(0)
`?<Initializer for zclGp_gppNotificationRetryNu`:
        DATA8
        DB 2

        RSEG XDATA_ID:CODE:NOROOT(0)
`?<Initializer for zclGp_gppNotificationRetryTi`:
        DATA8
        DB 100

        RSEG XDATA_ID:CODE:NOROOT(0)
`?<Initializer for zclGp_gppMaxSearchCounter>`:
        DATA8
        DB 10

        RSEG XDATA_ID:CODE:NOROOT(0)
`?<Initializer for zclGp_gppFunctionality>`:
        DATA8
        DB 47
        DB 172
        DB 9

        RSEG XDATA_ID:CODE:NOROOT(0)
`?<Initializer for zclGp_gppActiveFunctionality`:
        DATA8
        DB 47
        DB 172
        DB 9

        RSEG XDATA_ID:CODE:NOROOT(0)
`?<Initializer for zclGp_gpSharedSecurityKey>`:
        DATA8
        DB 192
        DB 193
        DB 194
        DB 195
        DB 196
        DB 197
        DB 198
        DB 199
        DB 200
        DB 201
        DB 202
        DB 203
        DB 204
        DB 205
        DB 206
        DB 207

        RSEG XDATA_ID:CODE:NOROOT(0)
`?<Initializer for zclGp_gpLinkKey>`:
        DATA8
        DB 90
        DB 105
        DB 103
        DB 66
        DB 101
        DB 101
        DB 65
        DB 108
        DB 108
        DB 105
        DB 97
        DB 110
        DB 99
        DB 101
        DB 48
        DB 57

        RSEG XDATA_ID:CODE:NOROOT(0)
`?<Initializer for zclGp_clusterRevision>`:
        DATA16
        DW 1

        RSEG XDATA_ID:CODE:NOROOT(0)
`?<Initializer for gp_commissionerAddress>`:
        DATA16
        DW 65535

        RSEG XDATA_ID:CODE:NOROOT(0)
`?<Initializer for greenPower_EP_SimpleDesc>`:
        DATA8
        DB 242
        DATA16
        DW 41440
        DW 97
        DATA8
        DB 0
        DB 0
        DATA16
        DW 0H
        DATA8
        DB 1
        DATA16
        DW greenPower_EP_OutClusterList

        RSEG XDATA_ID:CODE:NOROOT(0)
`?<Initializer for zclGpProxy_CmdCallbacks>`:
        DATA16
        DW `??zclGp_GpPairingCommandCB::?relay`
        DW `??zclGp_GpProxyTableReqCB::?relay`
        DW `??zclGp_GpProxyCommissioningModeCB::?relay`
        DW `??zclGp_GpResponseCommandCB::?relay`

        RSEG BANK_RELAYS:CODE:REORDER:NOROOT(0)
`??gp_endpointInit::?relay`:
        CODE
        LCALL   ?BDISPATCH
        DATA24
        DC24    gp_endpointInit

        RSEG BANK_RELAYS:CODE:REORDER:NOROOT(0)
`??gp_stopCommissioningMode::?relay`:
        CODE
        LCALL   ?BDISPATCH
        DATA24
        DC24    gp_stopCommissioningMode

        RSEG BANK_RELAYS:CODE:REORDER:NOROOT(0)
`??zclGp_ManteinanceIndParse::?relay`:
        CODE
        LCALL   ?BDISPATCH
        DATA24
        DC24    zclGp_ManteinanceIndParse

        RSEG BANK_RELAYS:CODE:REORDER:NOROOT(0)
`??zclGp_DataIndParse::?relay`:
        CODE
        LCALL   ?BDISPATCH
        DATA24
        DC24    zclGp_DataIndParse

        RSEG BANK_RELAYS:CODE:REORDER:NOROOT(0)
`??zclGp_GpPairingCommandCB::?relay`:
        CODE
        LCALL   ?BDISPATCH
        DATA24
        DC24    zclGp_GpPairingCommandCB

        RSEG BANK_RELAYS:CODE:REORDER:NOROOT(0)
`??zclGp_GpProxyTableReqCB::?relay`:
        CODE
        LCALL   ?BDISPATCH
        DATA24
        DC24    zclGp_GpProxyTableReqCB

        RSEG BANK_RELAYS:CODE:REORDER:NOROOT(0)
`??zclGp_GpResponseCommandCB::?relay`:
        CODE
        LCALL   ?BDISPATCH
        DATA24
        DC24    zclGp_GpResponseCommandCB

        RSEG BANK_RELAYS:CODE:REORDER:NOROOT(0)
`??zclGp_GpProxyCommissioningModeCB::?relay`:
        CODE
        LCALL   ?BDISPATCH
        DATA24
        DC24    zclGp_GpProxyCommissioningModeCB

        RSEG BANK_RELAYS:CODE:REORDER:NOROOT(0)
`??gp_ZclPairingParse::?relay`:
        CODE
        LCALL   ?BDISPATCH
        DATA24
        DC24    gp_ZclPairingParse

        RSEG BANK_RELAYS:CODE:REORDER:NOROOT(0)
`??gp_ZclProxyTableReqParse::?relay`:
        CODE
        LCALL   ?BDISPATCH
        DATA24
        DC24    gp_ZclProxyTableReqParse

        RSEG BANK_RELAYS:CODE:REORDER:NOROOT(0)
`??gp_PopulateField::?relay`:
        CODE
        LCALL   ?BDISPATCH
        DATA24
        DC24    gp_PopulateField

        RSEG BANK_RELAYS:CODE:REORDER:NOROOT(0)
`??gp_ProxyTblInit::?relay`:
        CODE
        LCALL   ?BDISPATCH
        DATA24
        DC24    gp_ProxyTblInit

        RSEG BANK_RELAYS:CODE:REORDER:NOROOT(0)
`??gp_getProxyTableByGpId::?relay`:
        CODE
        LCALL   ?BDISPATCH
        DATA24
        DC24    gp_getProxyTableByGpId

        RSEG BANK_RELAYS:CODE:REORDER:NOROOT(0)
`??gp_SecurityOperationProxy::?relay`:
        CODE
        LCALL   ?BDISPATCH
        DATA24
        DC24    gp_SecurityOperationProxy

        RSEG BANK_RELAYS:CODE:REORDER:NOROOT(0)
`??gp_getProxyTableByIndex::?relay`:
        CODE
        LCALL   ?BDISPATCH
        DATA24
        DC24    gp_getProxyTableByIndex

        RSEG BANK_RELAYS:CODE:REORDER:NOROOT(0)
`??GP_DataInd::?relay`:
        CODE
        LCALL   ?BDISPATCH
        DATA24
        DC24    GP_DataInd

        RSEG BANK_RELAYS:CODE:REORDER:NOROOT(0)
`??GP_SecReq::?relay`:
        CODE
        LCALL   ?BDISPATCH
        DATA24
        DC24    GP_SecReq

        RSEG BANK_RELAYS:CODE:REORDER:NOROOT(0)
`??GP_RecoveryKey::?relay`:
        CODE
        LCALL   ?BDISPATCH
        DATA24
        DC24    GP_RecoveryKey

        RSEG BANK_RELAYS:CODE:REORDER:NOROOT(0)
`??GP_DataCnf::?relay`:
        CODE
        LCALL   ?BDISPATCH
        DATA24
        DC24    GP_DataCnf

        RSEG BANK_RELAYS:CODE:REORDER:NOROOT(0)
`??gp_RegisterCommissioningModeCB::?relay`:
        CODE
        LCALL   ?BDISPATCH
        DATA24
        DC24    gp_RegisterCommissioningModeCB

        RSEG BANK_RELAYS:CODE:REORDER:NOROOT(0)
`??gp_RegisterGPChangeChannelReqCB::?relay`:
        CODE
        LCALL   ?BDISPATCH
        DATA24
        DC24    gp_RegisterGPChangeChannelReqCB

        RSEG BANK_RELAYS:CODE:REORDER:NOROOT(0)
`??gp_RegisterGPChangeChannelReqForBDBCB::?relay`:
        CODE
        LCALL   ?BDISPATCH
        DATA24
        DC24    gp_RegisterGPChangeChannelReqForBDBCB

        RSEG BANK_RELAYS:CODE:REORDER:NOROOT(0)
`??gp_returnOperationalChannel::?relay`:
        CODE
        LCALL   ?BDISPATCH
        DATA24
        DC24    gp_returnOperationalChannel

        RSEG BANK_RELAYS:CODE:REORDER:NOROOT(0)
`??gp_expireDuplicateFiltering::?relay`:
        CODE
        LCALL   ?BDISPATCH
        DATA24
        DC24    gp_expireDuplicateFiltering

        RSEG XDATA_ROM_C:CONST:REORDER:NOROOT(0)
        DATA16
`?<Constant {0, 0}>`:
        DATA8
        DB 0
        DB 0

        RSEG XDATA_ROM_C:CONST:REORDER:NOROOT(0)
        DATA8
`?<Constant {255, 255, 255, 255, 255, 255, 255,`:
        DB 255
        DB 255
        DB 255
        DB 255
        DB 255
        DB 255
        DB 255
        DB 255
        DB 255
        DB 255
        DB 0
        DB 255
        DB 255
        DB 255
        DB 255
        DB 255
        DB 255
        DB 255
        DB 255
        DB 255
        DB 255
        DB 255
        DB 255
        DB 255
        DB 255
        DB 255
        DB 255
        DB 255
        DB 255
        DB 255
        DB 255
        DB 255
        DB 255
        DB 255
        DB 0
        DB 0
        DB 0
        DB 0
        DB 0
        DB 0
        DB 0
        DB 0
        DB 0
        DB 0
        DB 0
        DB 0
        DB 0
        DB 0
        DB 0
        DB 0
        DB 0
        DB 0
        DB 0
        DB 0
        DB 0
        DB 0
        DB 0
        DB 0
        DB 0
        DB 0
        DB 0
        DB 0
        DB 0
        DB 0
        DB 0

        RSEG XDATA_ROM_C:CONST:REORDER:NOROOT(0)
        DATA8
`?<Constant {0, 0, {0, 0, 0, 0, 0, 0, 0, 0}, 0,`:
        DATA32
        DD 0
        DD 0
        DATA8
        DB 0
        DB 0
        DB 0
        DB 0
        DB 0
        DB 0
        DB 0
        DB 0
        DB 0
        DB 0
        DB 0
        DB 0
        DB 0
        DB 0
        DB 0
        DB 0
        DB 0
        DATA16
        DW 0
        DW 0
        DATA8
        DB 0
        DATA32
        DD 0
        DATA8
        DB 0
        DB 0
        DB 0
        DB 0
        DB 0
        DB 0
        DB 0
        DB 0
        DB 0
        DB 0
        DB 0
        DB 0
        DB 0
        DB 0
        DB 0
        DB 0
        DATA16
        DW 0
        DATA8
        DB 0

        RSEG XDATA_ROM_C:CONST:REORDER:NOROOT(0)
        DATA8
`?<Constant {255, 255, 255, 255, 255, 255, 255,_1`:
        DB 255
        DB 255
        DB 255
        DB 255
        DB 255
        DB 255
        DB 255
        DB 255
        DB 255
        DB 255
        DB 0
        DB 255
        DB 255
        DB 255
        DB 255
        DB 255
        DB 255
        DB 255
        DB 255
        DB 255
        DB 255
        DB 255
        DB 255
        DB 255
        DB 255
        DB 255
        DB 255
        DB 255
        DB 255
        DB 255
        DB 255
        DB 255
        DB 255
        DB 255
        DB 0
        DB 0
        DB 0
        DB 0
        DB 0
        DB 0
        DB 0
        DB 0
        DB 0
        DB 0
        DB 0
        DB 0
        DB 0
        DB 0
        DB 0
        DB 0
        DB 0
        DB 0
        DB 0
        DB 0
        DB 0
        DB 0
        DB 0
        DB 0
        DB 0
        DB 0
        DB 0
        DB 0
        DB 0
        DB 0
        DB 0

        RSEG XDATA_ROM_C:CONST:REORDER:NOROOT(0)
        DATA8
`?<Constant {0, 0, {0, 0, 0, 0, 0, 0, 0, 0}, 0,_1`:
        DB 0
        DATA32
        DD 0
        DATA8
        DB 0
        DB 0
        DB 0
        DB 0
        DB 0
        DB 0
        DB 0
        DB 0
        DB 0
        DB 0

        RSEG XDATA_ROM_C:CONST:REORDER:NOROOT(0)
        DATA8
`?<Constant {255, 255, 255, 255, 255, 255, 255,_2`:
        DB 255
        DB 255
        DB 255
        DB 255
        DB 255
        DB 255
        DB 255
        DB 255
        DB 255
        DB 255
        DB 0
        DB 255
        DB 255
        DB 255
        DB 255
        DB 255
        DB 255
        DB 255
        DB 255
        DB 255
        DB 255
        DB 255
        DB 255
        DB 255
        DB 255
        DB 255
        DB 255
        DB 255
        DB 255
        DB 255
        DB 255
        DB 255
        DB 255
        DB 255
        DB 0
        DB 0
        DB 0
        DB 0
        DB 0
        DB 0
        DB 0
        DB 0
        DB 0
        DB 0
        DB 0
        DB 0
        DB 0
        DB 0
        DB 0
        DB 0
        DB 0
        DB 0
        DB 0
        DB 0
        DB 0
        DB 0
        DB 0
        DB 0
        DB 0
        DB 0
        DB 0
        DB 0
        DB 0
        DB 0
        DB 0

        RSEG XDATA_ROM_C:CONST:REORDER:NOROOT(0)
        DATA8
`?<Constant {255, 255, 255, 255, 255, 255, 255,_3`:
        DB 255
        DB 255
        DB 255
        DB 255
        DB 255
        DB 255
        DB 255
        DB 255
        DB 255
        DB 255
        DB 0
        DB 255
        DB 255
        DB 255
        DB 255
        DB 255
        DB 255
        DB 255
        DB 255
        DB 255
        DB 255
        DB 255
        DB 255
        DB 255
        DB 255
        DB 255
        DB 255
        DB 255
        DB 255
        DB 255
        DB 255
        DB 255
        DB 255
        DB 255
        DB 0
        DB 0
        DB 0
        DB 0
        DB 0
        DB 0
        DB 0
        DB 0
        DB 0
        DB 0
        DB 0
        DB 0
        DB 0
        DB 0
        DB 0
        DB 0
        DB 0
        DB 0
        DB 0
        DB 0
        DB 0
        DB 0
        DB 0
        DB 0
        DB 0
        DB 0
        DB 0
        DB 0
        DB 0
        DB 0
        DB 0

        RSEG XDATA_ROM_C:CONST:REORDER:NOROOT(0)
        DATA8
`?<Constant {255, 0, 0, 0, 0, 0, 0, 0, 0, 0, 0,`:
        DB 255
        DB 0
        DB 0
        DB 0
        DB 0
        DB 0
        DB 0
        DB 0
        DB 0
        DB 0
        DB 0
        DB 0
        DB 0
        DB 0
        DB 0
        DB 0

        RSEG XDATA_ROM_C:CONST:REORDER:NOROOT(0)
        DATA8
`?<Constant {255, 0, 0, 0, 0, 0, 0, 0, 0, 0, 0,_1`:
        DB 255
        DB 0
        DB 0
        DB 0
        DB 0
        DB 0
        DB 0
        DB 0
        DB 0
        DB 0
        DB 0
        DB 0
        DB 0
        DB 0
        DB 0
        DB 0

        RSEG XDATA_ROM_C:CONST:REORDER:NOROOT(0)
        DATA32
__Constant_10000:
        DD 65536

        RSEG XDATA_ROM_C:CONST:REORDER:NOROOT(0)
        DATA32
__Constant_20000:
        DD 131072

        RSEG XDATA_ROM_C:CONST:REORDER:NOROOT(0)
        DATA32
__Constant_ff:
        DD 255

        RSEG XDATA_ROM_C:CONST:REORDER:NOROOT(0)
        DATA32
__Constant_ff00:
        DD 65280

        RSEG XDATA_ROM_C:CONST:REORDER:NOROOT(0)
        DATA32
__Constant_ff0000:
        DD 16711680

        RSEG XDATA_ROM_C:CONST:REORDER:NOROOT(0)
        DATA32
__Constant_1388:
        DD 5000

        END
// 2169 
// 2170 #endif
// 2171 /*********************************************************************
// 2172 *********************************************************************/
// 2173 
// 
// 7 209 bytes in segment BANKED_CODE
//   144 bytes in segment BANK_RELAYS
//   113 bytes in segment CODE_C
//    66 bytes in segment XDATA_I
//    66 bytes in segment XDATA_ID
//   394 bytes in segment XDATA_ROM_C
//    18 bytes in segment XDATA_Z
// 
//   323 bytes of CODE     memory
//   370 bytes of CONST    memory (+ 24 bytes shared)
// 7 209 bytes of HUGECODE memory
//    84 bytes of XDATA    memory
//
//Errors: none
//Warnings: none
