///////////////////////////////////////////////////////////////////////////////
//
// IAR C/C++ Compiler V10.10.1.4655 for 8051              22/Nov/2023  15:42:40
// Copyright 2004-2017 IAR Systems AB.
// Standalone license - IAR Embedded Workbench for 8051
//
//    Core               =  plain
//    Code model         =  banked
//    Data model         =  large
//    Calling convention =  xdata reentrant
//    Constant location  =  data_rom
//    Dptr setup         =  1,16
//                          
//    Source file        =  
//        D:\fuzzing-coordinator-response-collection\Components\stack\GP\gp_common.c
//    Command line       =  
//        -f C:\Users\ADMINI~1\AppData\Local\Temp\EW98AF.tmp
//        (D:\fuzzing-coordinator-response-collection\Components\stack\GP\gp_common.c
//        -D SECURE=1 -D TC_LINKKEY_JOIN -D NV_INIT -D NV_RESTORE -D
//        MULTICAST_ENABLED=FALSE -D ZCL_READ -D ZCL_DISCOVER -D ZCL_WRITE -D
//        ZCL_BASIC -D ZCL_IDENTIFY -D ISR_KEYINTERRUPT -D HAL_UART=TRUE -D
//        HAL_LCD=FALSE -D ZCL_ON_OFF -D INT_HEAP_LEN=2800 -D
//        HAL_UART_DMA_RX_MAX=256 -D HAL_UART_DMA_TX_MAX=256 -lC
//        D:\fuzzing-coordinator-response-collection\Projects\zstack\HomeAutomation\SampleSwitch\CC2530DB\CoordinatorEB\List
//        -lA
//        D:\fuzzing-coordinator-response-collection\Projects\zstack\HomeAutomation\SampleSwitch\CC2530DB\CoordinatorEB\List
//        --diag_suppress Pe001,Pa010 -o
//        D:\fuzzing-coordinator-response-collection\Projects\zstack\HomeAutomation\SampleSwitch\CC2530DB\CoordinatorEB\Obj
//        -e --debug --core=plain --dptr=16,1 --data_model=large
//        --code_model=banked --calling_convention=xdata_reentrant
//        --place_constants=data_rom --nr_virtual_regs 8 -f
//        D:\fuzzing-coordinator-response-collection\Projects\zstack\HomeAutomation\SampleSwitch\CC2530DB\..\..\..\Tools\CC2530DB\f8wCoord.cfg
//        (-DCPU32MHZ -DROOT=__near_func -DMAC_CFG_APP_PENDING_QUEUE=TRUE
//        -DMAC_CFG_TX_DATA_MAX=5 -DMAC_CFG_TX_MAX=8 -DMAC_CFG_RX_MAX=5
//        -DZDO_COORDINATOR -DRTR_NWK) -f
//        D:\fuzzing-coordinator-response-collection\Projects\zstack\HomeAutomation\SampleSwitch\CC2530DB\..\..\..\Tools\CC2530DB\f8wConfig.cfg
//        (-DZIGBEEPRO -DSECURE=1 -DZG_SECURE_DYNAMIC=0 -DREFLECTOR
//        -DDEFAULT_CHANLIST=0x00000800 -DZDAPP_CONFIG_PAN_ID=0xFFFF
//        -DNWK_START_DELAY=100 -DEXTENDED_JOINING_RANDOM_MASK=0x007F
//        -DBEACON_REQUEST_DELAY=100 -DBEACON_REQ_DELAY_MASK=0x00FF
//        -DLINK_STATUS_JITTER_MASK=0x007F -DROUTE_EXPIRY_TIME=30
//        -DAPSC_ACK_WAIT_DURATION_POLLED=3000 -DNWK_INDIRECT_MSG_TIMEOUT=7
//        -DMAX_RREQ_ENTRIES=8 -DAPSC_MAX_FRAME_RETRIES=3
//        -DNWK_MAX_DATA_RETRIES=2 -DMAX_POLL_FAILURE_RETRIES=2 -DMAX_BCAST=9
//        -DAPS_MAX_GROUPS=16 -DMAX_RTG_ENTRIES=40 -DNWK_MAX_BINDING_ENTRIES=4
//        -DMAX_BINDING_CLUSTER_IDS=4 "-DDEFAULT_KEY={0x00, 0x01, 0x02, 0x03,
//        0x04, 0x05, 0x06, 0x07, 0x08, 0x09, 0x0A, 0x0B, 0x0C, 0x0D, 0x0E,
//        0x0F}" -DMAC_MAX_FRAME_SIZE=116 -DZDNWKMGR_MIN_TRANSMISSIONS=20
//        "-DCONST=const __code" -DGENERIC=__generic -DRFD_RCVC_ALWAYS_ON=FALSE
//        -DPOLL_RATE=1000 -DQUEUED_POLL_RATE=100 -DRESPONSE_POLL_RATE=100
//        -DREJOIN_POLL_RATE=440 -DREJOIN_BACKOFF=900000 -DREJOIN_SCAN=900000
//        -DENABLE_LED4_DISABLE_S1) -f
//        D:\fuzzing-coordinator-response-collection\Projects\zstack\HomeAutomation\SampleSwitch\CC2530DB\..\..\..\Tools\CC2530DB\f8wZCL.cfg
//        -I
//        D:\fuzzing-coordinator-response-collection\Projects\zstack\HomeAutomation\SampleSwitch\CC2530DB\
//        -I
//        D:\fuzzing-coordinator-response-collection\Projects\zstack\HomeAutomation\SampleSwitch\CC2530DB\..\Source\
//        -I
//        D:\fuzzing-coordinator-response-collection\Projects\zstack\HomeAutomation\SampleSwitch\CC2530DB\..\..\Source\
//        -I
//        D:\fuzzing-coordinator-response-collection\Projects\zstack\HomeAutomation\SampleSwitch\CC2530DB\..\..\..\ZMain\TI2530DB\
//        -I
//        D:\fuzzing-coordinator-response-collection\Projects\zstack\HomeAutomation\SampleSwitch\CC2530DB\..\..\..\..\..\Components\hal\include\
//        -I
//        D:\fuzzing-coordinator-response-collection\Projects\zstack\HomeAutomation\SampleSwitch\CC2530DB\..\..\..\..\..\Components\hal\target\CC2530EB\
//        -I
//        D:\fuzzing-coordinator-response-collection\Projects\zstack\HomeAutomation\SampleSwitch\CC2530DB\..\..\..\..\..\Components\mac\include\
//        -I
//        D:\fuzzing-coordinator-response-collection\Projects\zstack\HomeAutomation\SampleSwitch\CC2530DB\..\..\..\..\..\Components\mac\high_level\
//        -I
//        D:\fuzzing-coordinator-response-collection\Projects\zstack\HomeAutomation\SampleSwitch\CC2530DB\..\..\..\..\..\Components\mac\low_level\srf04\
//        -I
//        D:\fuzzing-coordinator-response-collection\Projects\zstack\HomeAutomation\SampleSwitch\CC2530DB\..\..\..\..\..\Components\mac\low_level\srf04\single_chip\
//        -I
//        D:\fuzzing-coordinator-response-collection\Projects\zstack\HomeAutomation\SampleSwitch\CC2530DB\..\..\..\..\..\Components\mt\
//        -I
//        D:\fuzzing-coordinator-response-collection\Projects\zstack\HomeAutomation\SampleSwitch\CC2530DB\..\..\..\..\..\Components\osal\include\
//        -I
//        D:\fuzzing-coordinator-response-collection\Projects\zstack\HomeAutomation\SampleSwitch\CC2530DB\..\..\..\..\..\Components\services\saddr\
//        -I
//        D:\fuzzing-coordinator-response-collection\Projects\zstack\HomeAutomation\SampleSwitch\CC2530DB\..\..\..\..\..\Components\services\sdata\
//        -I
//        D:\fuzzing-coordinator-response-collection\Projects\zstack\HomeAutomation\SampleSwitch\CC2530DB\..\..\..\..\..\Components\stack\af\
//        -I
//        D:\fuzzing-coordinator-response-collection\Projects\zstack\HomeAutomation\SampleSwitch\CC2530DB\..\..\..\..\..\Components\stack\bdb\
//        -I
//        D:\fuzzing-coordinator-response-collection\Projects\zstack\HomeAutomation\SampleSwitch\CC2530DB\..\..\..\..\..\Components\stack\gp\
//        -I
//        D:\fuzzing-coordinator-response-collection\Projects\zstack\HomeAutomation\SampleSwitch\CC2530DB\..\..\..\..\..\Components\stack\nwk\
//        -I
//        D:\fuzzing-coordinator-response-collection\Projects\zstack\HomeAutomation\SampleSwitch\CC2530DB\..\..\..\..\..\Components\stack\sapi\
//        -I
//        D:\fuzzing-coordinator-response-collection\Projects\zstack\HomeAutomation\SampleSwitch\CC2530DB\..\..\..\..\..\Components\stack\sec\
//        -I
//        D:\fuzzing-coordinator-response-collection\Projects\zstack\HomeAutomation\SampleSwitch\CC2530DB\..\..\..\..\..\Components\stack\sys\
//        -I
//        D:\fuzzing-coordinator-response-collection\Projects\zstack\HomeAutomation\SampleSwitch\CC2530DB\..\..\..\..\..\Components\stack\zcl\
//        -I
//        D:\fuzzing-coordinator-response-collection\Projects\zstack\HomeAutomation\SampleSwitch\CC2530DB\..\..\..\..\..\Components\stack\zdo\
//        -I
//        D:\fuzzing-coordinator-response-collection\Projects\zstack\HomeAutomation\SampleSwitch\CC2530DB\..\..\..\..\..\Components\zmac\
//        -I
//        D:\fuzzing-coordinator-response-collection\Projects\zstack\HomeAutomation\SampleSwitch\CC2530DB\..\..\..\..\..\Components\zmac\f8w\
//        -I
//        D:\fuzzing-coordinator-response-collection\Projects\zstack\HomeAutomation\SampleSwitch\CC2530DB\..\..\..\..\..\Components\hal\target\CC2530EB\Common\
//        -I
//        D:\fuzzing-coordinator-response-collection\Projects\zstack\HomeAutomation\SampleSwitch\CC2530DB\..\..\..\..\..\Components\hal\target\CC2530EB\SPI\
//        -I
//        D:\fuzzing-coordinator-response-collection\Projects\zstack\HomeAutomation\SampleSwitch\CC2530DB\..\..\..\..\..\Components\hal\target\CC2530EB\HW_LCD\Font\
//        -I
//        D:\fuzzing-coordinator-response-collection\Projects\zstack\HomeAutomation\SampleSwitch\CC2530DB\..\..\..\..\..\Components\hal\target\CC2530EB\HW_LCD\HAL_LCD_SPI\
//        -I
//        D:\fuzzing-coordinator-response-collection\Projects\zstack\HomeAutomation\SampleSwitch\CC2530DB\..\..\..\..\..\Components\hal\target\CC2530EB\HW_LCD\HAL_OLED\
//        -I
//        D:\fuzzing-coordinator-response-collection\Projects\zstack\HomeAutomation\SampleSwitch\CC2530DB\..\..\..\..\..\Components\hal\target\CC2530EB\HW_LCD\HAL_TFT\
//        -Ohz --require_prototypes)
//    Locale             =  Chinese (Simplified)_China.936
//    List file          =  
//        D:\fuzzing-coordinator-response-collection\Projects\zstack\HomeAutomation\SampleSwitch\CC2530DB\CoordinatorEB\List\gp_common.s51
//
///////////////////////////////////////////////////////////////////////////////

        NAME gp_common

        RTMODEL "__SystemLibrary", "CLib"
        RTMODEL "__calling_convention", "xdata_reentrant"
        RTMODEL "__code_model", "banked"
        RTMODEL "__core", "plain"
        RTMODEL "__data_model", "large"
        RTMODEL "__dptr_size", "16"
        RTMODEL "__extended_stack", "disabled"
        RTMODEL "__location_for_constants", "data"
        RTMODEL "__number_of_dptrs", "1"
        RTMODEL "__register_banks", "*"
        RTMODEL "__rt_version", "1"

        RSEG DOVERLAY:DATA:NOROOT(0)
        RSEG IOVERLAY:IDATA:NOROOT(0)
        RSEG ISTACK:IDATA:NOROOT(0)
        RSEG PSTACK:XDATA:NOROOT(0)
        RSEG XSTACK:XDATA:NOROOT(0)

        EXTERN ?V0
        EXTERN ?V1
        EXTERN ?V2
        EXTERN ?V4
        EXTERN ?V5
        EXTERN ?V6
        EXTERN ?V7
        EXTERN ?V3
        EXTERN ?ALLOC_XSTACK8
        EXTERN ?BANKED_ENTER_XDATA
        EXTERN ?BANKED_LEAVE_XDATA
        EXTERN ?BDISPATCH
        EXTERN ?BRET
        EXTERN ?CALL_IND
        EXTERN ?DEALLOC_XSTACK8
        EXTERN ?L_ADD_TO_X
        EXTERN ?L_AND_X
        EXTERN ?L_EQ_X
        EXTERN ?L_IOR
        EXTERN ?L_IOR_TO_X
        EXTERN ?L_IOR_X
        EXTERN ?L_MOV_TO_X
        EXTERN ?L_MOV_X
        EXTERN ?L_SHL
        EXTERN ?L_SUB_FROM_X
        EXTERN ?MOVE_LONG8_XDATA_XDATA
        EXTERN ?PUSH_XSTACK8_X_FOUR
        EXTERN ?PUSH_XSTACK_I_THREE
        EXTERN ?PUSH_XSTACK_I_TWO
        EXTERN ?SC_DIV_MOD
        EXTERN ?UL_GE_X
        EXTERN ?XLOAD_R0123
        EXTERN ?XSP
        EXTERN ?XSTACK_DISP0_8
        EXTERN ?XSTACK_DISP100_8
        EXTERN ?XSTACK_DISP101_8
        EXTERN ?XSTACK_DISP102_8
        EXTERN ?XSTORE_R0123
        EXTERN ?XSTORE_R2345
        EXTERN __INIT_XDATA_I
        EXTERN __INIT_XDATA_Z

        PUBLIC `??GP_DataCnf::?relay`
        FUNCTION `??GP_DataCnf::?relay`,0203H
        PUBLIC `??GP_DataInd::?relay`
        FUNCTION `??GP_DataInd::?relay`,0203H
        FUNCTION `??GP_RecoveryKey::?relay`,0203H
        PUBLIC `??GP_SecReq::?relay`
        FUNCTION `??GP_SecReq::?relay`,0203H
        PUBLIC `??gp_PopulateField::?relay`
        FUNCTION `??gp_PopulateField::?relay`,0203H
        PUBLIC `??gp_ProxyTblInit::?relay`
        FUNCTION `??gp_ProxyTblInit::?relay`,0203H
        PUBLIC `??gp_RegisterCommissioningModeCB::?relay`
        FUNCTION `??gp_RegisterCommissioningModeCB::?relay`,0203H
        PUBLIC `??gp_RegisterGPChangeChannelReqCB::?relay`
        FUNCTION `??gp_RegisterGPChangeChannelReqCB::?relay`,0203H
        PUBLIC `??gp_RegisterGPChangeChannelReqForBDBCB::?relay`
        FUNCTION `??gp_RegisterGPChangeChannelReqForBDBCB::?relay`,0203H
        FUNCTION `??gp_SecurityOperationProxy::?relay`,0203H
        FUNCTION `??gp_ZclPairingParse::?relay`,0203H
        FUNCTION `??gp_ZclProxyTableReqParse::?relay`,0203H
        PUBLIC `??gp_endpointInit::?relay`
        FUNCTION `??gp_endpointInit::?relay`,0203H
        PUBLIC `??gp_expireDuplicateFiltering::?relay`
        FUNCTION `??gp_expireDuplicateFiltering::?relay`,0203H
        PUBLIC `??gp_getProxyTableByGpId::?relay`
        FUNCTION `??gp_getProxyTableByGpId::?relay`,0203H
        PUBLIC `??gp_getProxyTableByIndex::?relay`
        FUNCTION `??gp_getProxyTableByIndex::?relay`,0203H
        PUBLIC `??gp_returnOperationalChannel::?relay`
        FUNCTION `??gp_returnOperationalChannel::?relay`,0203H
        PUBLIC `??gp_stopCommissioningMode::?relay`
        FUNCTION `??gp_stopCommissioningMode::?relay`,0203H
        PUBLIC `??zclGp_DataIndParse::?relay`
        FUNCTION `??zclGp_DataIndParse::?relay`,0203H
        FUNCTION `??zclGp_GpPairingCommandCB::?relay`,0203H
        FUNCTION `??zclGp_GpProxyCommissioningModeCB::?relay`,0203H
        FUNCTION `??zclGp_GpProxyTableReqCB::?relay`,0203H
        FUNCTION `??zclGp_GpResponseCommandCB::?relay`,0203H
        PUBLIC `??zclGp_ManteinanceIndParse::?relay`
        FUNCTION `??zclGp_ManteinanceIndParse::?relay`,0203H
        PUBLIC GP_DataCnf
        FUNCTION GP_DataCnf,0203H
        ARGFRAME XSTACK, 0, STACK
        PUBLIC GP_DataInd
        FUNCTION GP_DataInd,0a1203H
        ARGFRAME XSTACK, 0, STACK
        LOCFRAME ISTACK, 1, STACK
        LOCFRAME XSTACK, 150, STACK
        FUNCTION GP_RecoveryKey,0a1203H
        ARGFRAME XSTACK, 99, STACK
        ARGFRAME IOVERLAY, 0, STATIC
        ARGFRAME DOVERLAY, 0, STATIC
        LOCFRAME XSTACK, 40, STACK
        PUBLIC GP_SecReq
        FUNCTION GP_SecReq,0a1203H
        ARGFRAME XSTACK, 0, STACK
        LOCFRAME ISTACK, 1, STACK
        LOCFRAME XSTACK, 102, STACK
        PUBWEAK __Constant_10000
        PUBWEAK __Constant_1388
        PUBWEAK __Constant_20000
        PUBWEAK __Constant_ff
        PUBWEAK __Constant_ff00
        PUBWEAK __Constant_ff0000
        PUBLIC gp_DataIndList
        PUBLIC gp_PopulateField
        FUNCTION gp_PopulateField,0a1203H
        ARGFRAME XSTACK, 81, STACK
        ARGFRAME IOVERLAY, 0, STATIC
        ARGFRAME DOVERLAY, 0, STATIC
        LOCFRAME ISTACK, 2, STACK
        LOCFRAME XSTACK, 20, STACK
        PUBLIC gp_ProxyTblInit
        FUNCTION gp_ProxyTblInit,0a1203H
        ARGFRAME XSTACK, 0, STACK
        ARGFRAME IOVERLAY, 0, STATIC
        ARGFRAME DOVERLAY, 0, STATIC
        LOCFRAME XSTACK, 81, STACK
        PUBLIC gp_RegisterCommissioningModeCB
        FUNCTION gp_RegisterCommissioningModeCB,0203H
        ARGFRAME XSTACK, 0, STACK
        LOCFRAME ISTACK, 2, STACK
        PUBLIC gp_RegisterGPChangeChannelReqCB
        FUNCTION gp_RegisterGPChangeChannelReqCB,0203H
        ARGFRAME XSTACK, 0, STACK
        LOCFRAME ISTACK, 2, STACK
        PUBLIC gp_RegisterGPChangeChannelReqForBDBCB
        FUNCTION gp_RegisterGPChangeChannelReqForBDBCB,0203H
        ARGFRAME XSTACK, 0, STACK
        LOCFRAME ISTACK, 2, STACK
        FUNCTION gp_SecurityOperationProxy,0a1203H
        ARGFRAME XSTACK, 101, STACK
        ARGFRAME IOVERLAY, 0, STATIC
        ARGFRAME DOVERLAY, 0, STATIC
        LOCFRAME ISTACK, 1, STACK
        LOCFRAME XSTACK, 97, STACK
        FUNCTION gp_ZclPairingParse,0a1203H
        ARGFRAME XSTACK, 53, STACK
        ARGFRAME IOVERLAY, 0, STATIC
        ARGFRAME DOVERLAY, 0, STATIC
        LOCFRAME XSTACK, 84, STACK
        FUNCTION gp_ZclProxyTableReqParse,0a1203H
        ARGFRAME XSTACK, 181, STACK
        ARGFRAME IOVERLAY, 0, STATIC
        ARGFRAME DOVERLAY, 0, STATIC
        LOCFRAME ISTACK, 1, STACK
        LOCFRAME XSTACK, 14, STACK
        PUBLIC gp_commissionerAddress
        PUBLIC gp_commissioningOptions
        PUBLIC gp_commissioningUnicastAddress
        PUBLIC gp_endpointInit
        FUNCTION gp_endpointInit,021203H
        ARGFRAME XSTACK, 0, STACK
        LOCFRAME ISTACK, 2, STACK
        PUBLIC gp_expireDuplicateFiltering
        FUNCTION gp_expireDuplicateFiltering,0a1203H
        ARGFRAME XSTACK, 0, STACK
        LOCFRAME XSTACK, 12, STACK
        PUBLIC gp_getProxyTableByGpId
        FUNCTION gp_getProxyTableByGpId,0a1203H
        ARGFRAME XSTACK, 183, STACK
        ARGFRAME IOVERLAY, 0, STATIC
        ARGFRAME DOVERLAY, 0, STATIC
        LOCFRAME XSTACK, 22, STACK
        PUBLIC gp_getProxyTableByIndex
        FUNCTION gp_getProxyTableByIndex,0a1203H
        ARGFRAME XSTACK, 181, STACK
        ARGFRAME IOVERLAY, 0, STATIC
        ARGFRAME DOVERLAY, 0, STATIC
        LOCFRAME XSTACK, 20, STACK
        PUBLIC gp_returnOperationalChannel
        FUNCTION gp_returnOperationalChannel,021203H
        ARGFRAME XSTACK, 0, STACK
        LOCFRAME ISTACK, 2, STACK
        LOCFRAME XSTACK, 21, STACK
        PUBLIC gp_stopCommissioningMode
        FUNCTION gp_stopCommissioningMode,021203H
        ARGFRAME XSTACK, 53, STACK
        ARGFRAME IOVERLAY, 0, STATIC
        ARGFRAME DOVERLAY, 0, STATIC
        LOCFRAME ISTACK, 2, STACK
        PUBLIC gp_tempLogicalChannel
        PUBLIC pZclGp_ProxyTableEntries
        PUBLIC pZclGp_gppBlockedGPDID
        PUBLIC zclGp_Attrs
        PUBLIC zclGp_DataIndParse
        FUNCTION zclGp_DataIndParse,0a1203H
        ARGFRAME XSTACK, 146, STACK
        ARGFRAME IOVERLAY, 0, STATIC
        ARGFRAME DOVERLAY, 0, STATIC
        LOCFRAME ISTACK, 1, STACK
        LOCFRAME XSTACK, 89, STACK
        FUNCTION zclGp_GpPairingCommandCB,021603H
        ARGFRAME XSTACK, 0, STACK
        LOCFRAME ISTACK, 2, STACK
        LOCFRAME XSTACK, 53, STACK
        FUNCTION zclGp_GpProxyCommissioningModeCB,0a1603H
        ARGFRAME XSTACK, 0, STACK
        LOCFRAME XSTACK, 10, STACK
        FUNCTION zclGp_GpProxyTableReqCB,0a1603H
        ARGFRAME XSTACK, 0, STACK
        LOCFRAME ISTACK, 1, STACK
        LOCFRAME XSTACK, 184, STACK
        FUNCTION zclGp_GpResponseCommandCB,0a1603H
        ARGFRAME XSTACK, 0, STACK
        LOCFRAME ISTACK, 1, STACK
        LOCFRAME XSTACK, 97, STACK
        PUBLIC zclGp_ManteinanceIndParse
        FUNCTION zclGp_ManteinanceIndParse,0a1203H
        ARGFRAME XSTACK, 146, STACK
        ARGFRAME IOVERLAY, 0, STATIC
        ARGFRAME DOVERLAY, 0, STATIC
        LOCFRAME ISTACK, 1, STACK
        LOCFRAME XSTACK, 21, STACK
        PUBLIC zclGp_NumAttributes
        PUBLIC zclGp_clusterRevision
        PUBLIC zclGp_gpLinkKey
        PUBLIC zclGp_gpSharedSecurityKey
        PUBLIC zclGp_gpSharedSecurityKeyType
        PUBLIC zclGp_gppActiveFunctionality
        PUBLIC zclGp_gppFunctionality
        PUBLIC zclGp_gppMaxProxyTableEntries
        PUBLIC zclGp_gppMaxSearchCounter
        PUBLIC zclGp_gppNotificationRetryNumber
        PUBLIC zclGp_gppNotificationRetryTimer
        PUBLIC zgGP_InCommissioningMode
        PUBLIC zgpSharedKey
        
          CFI Names cfiNames0
          CFI StackFrame CFA_SP SP IDATA
          CFI StackFrame CFA_PSP16 PSP16 XDATA
          CFI StackFrame CFA_XSP16 XSP16 XDATA
          CFI StaticOverlayFrame CFA_IOVERLAY IOVERLAY
          CFI StaticOverlayFrame CFA_DOVERLAY DOVERLAY
          CFI Resource `PSW.CY`:1, `B.BR0`:1, `B.BR1`:1, `B.BR2`:1, `B.BR3`:1
          CFI Resource `B.BR4`:1, `B.BR5`:1, `B.BR6`:1, `B.BR7`:1, `VB.BR8`:1
          CFI Resource `VB.BR9`:1, `VB.BR10`:1, `VB.BR11`:1, `VB.BR12`:1
          CFI Resource `VB.BR13`:1, `VB.BR14`:1, `VB.BR15`:1, VB:8, B:8, A:8
          CFI Resource PSW:8, DPL0:8, DPH0:8, R0:8, R1:8, R2:8, R3:8, R4:8, R5:8
          CFI Resource R6:8, R7:8, V0:8, V1:8, V2:8, V3:8, V4:8, V5:8, V6:8, V7:8
          CFI Resource SP:8, PSPH:8, PSPL:8, PSP16:16, XSPH:8, XSPL:8, XSP16:16
          CFI VirtualResource ?RET:24
          CFI Resource ?BRET_EXT:8
          CFI VirtualResource ?RET_HIGH:8, ?RET_LOW:8
          CFI ResourceParts PSP16 PSPH, PSPL
          CFI ResourceParts XSP16 XSPH, XSPL
          CFI ResourceParts ?RET ?BRET_EXT, ?RET_HIGH, ?RET_LOW
          CFI EndNames cfiNames0
        
          CFI Common cfiCommon0 Using cfiNames0
          CFI CodeAlign 1
          CFI DataAlign -1
          CFI ReturnAddress ?RET CODE
          CFI CFA_DOVERLAY Used
          CFI CFA_IOVERLAY Used
          CFI CFA_SP SP+-3
          CFI CFA_PSP16 PSP16+0
          CFI CFA_XSP16 XSP16+0
          CFI `PSW.CY` SameValue
          CFI `B.BR0` SameValue
          CFI `B.BR1` SameValue
          CFI `B.BR2` SameValue
          CFI `B.BR3` SameValue
          CFI `B.BR4` SameValue
          CFI `B.BR5` SameValue
          CFI `B.BR6` SameValue
          CFI `B.BR7` SameValue
          CFI `VB.BR8` SameValue
          CFI `VB.BR9` SameValue
          CFI `VB.BR10` SameValue
          CFI `VB.BR11` SameValue
          CFI `VB.BR12` SameValue
          CFI `VB.BR13` SameValue
          CFI `VB.BR14` SameValue
          CFI `VB.BR15` SameValue
          CFI VB SameValue
          CFI B Undefined
          CFI A Undefined
          CFI PSW SameValue
          CFI DPL0 SameValue
          CFI DPH0 SameValue
          CFI R0 Undefined
          CFI R1 Undefined
          CFI R2 Undefined
          CFI R3 Undefined
          CFI R4 Undefined
          CFI R5 Undefined
          CFI R6 SameValue
          CFI R7 SameValue
          CFI V0 SameValue
          CFI V1 SameValue
          CFI V2 SameValue
          CFI V3 SameValue
          CFI V4 SameValue
          CFI V5 SameValue
          CFI V6 SameValue
          CFI V7 SameValue
          CFI PSPH Undefined
          CFI PSPL Undefined
          CFI XSPH Undefined
          CFI XSPL Undefined
          CFI ?RET Concat
          CFI ?BRET_EXT Frame(CFA_SP, 3)
          CFI ?RET_HIGH Frame(CFA_SP, 2)
          CFI ?RET_LOW Frame(CFA_SP, 1)
          CFI EndCommon cfiCommon0
        
        
          CFI Common cfiCommon1 Using cfiNames0
          CFI CodeAlign 1
          CFI DataAlign -1
          CFI ReturnAddress ?RET CODE
          CFI CFA_DOVERLAY Used
          CFI CFA_IOVERLAY Used
          CFI CFA_SP SP+-2
          CFI CFA_PSP16 PSP16+0
          CFI CFA_XSP16 XSP16+0
          CFI `PSW.CY` SameValue
          CFI `B.BR0` SameValue
          CFI `B.BR1` SameValue
          CFI `B.BR2` SameValue
          CFI `B.BR3` SameValue
          CFI `B.BR4` SameValue
          CFI `B.BR5` SameValue
          CFI `B.BR6` SameValue
          CFI `B.BR7` SameValue
          CFI `VB.BR8` SameValue
          CFI `VB.BR9` SameValue
          CFI `VB.BR10` SameValue
          CFI `VB.BR11` SameValue
          CFI `VB.BR12` SameValue
          CFI `VB.BR13` SameValue
          CFI `VB.BR14` SameValue
          CFI `VB.BR15` SameValue
          CFI VB SameValue
          CFI B SameValue
          CFI A SameValue
          CFI PSW SameValue
          CFI DPL0 SameValue
          CFI DPH0 SameValue
          CFI R0 SameValue
          CFI R1 SameValue
          CFI R2 SameValue
          CFI R3 SameValue
          CFI R4 SameValue
          CFI R5 SameValue
          CFI R6 SameValue
          CFI R7 SameValue
          CFI V0 SameValue
          CFI V1 SameValue
          CFI V2 SameValue
          CFI V3 SameValue
          CFI V4 SameValue
          CFI V5 SameValue
          CFI V6 SameValue
          CFI V7 SameValue
          CFI PSPH Undefined
          CFI PSPL Undefined
          CFI XSPH Undefined
          CFI XSPL Undefined
          CFI ?RET Concat
          CFI ?BRET_EXT SameValue
          CFI ?RET_HIGH Frame(CFA_SP, 2)
          CFI ?RET_LOW Frame(CFA_SP, 1)
          CFI EndCommon cfiCommon1
        
GP_DataReq          SYMBOL "GP_DataReq"
`??GP_DataReq::?relay` SYMBOL "?relay", GP_DataReq
ZDSecMgrReadKeyFromNv SYMBOL "ZDSecMgrReadKeyFromNv"
`??ZDSecMgrReadKeyFromNv::?relay` SYMBOL "?relay", ZDSecMgrReadKeyFromNv
ZMacSetReq          SYMBOL "ZMacSetReq"
`??ZMacSetReq::?relay` SYMBOL "?relay", ZMacSetReq
bdb_RegisterSimpleDescriptor SYMBOL "bdb_RegisterSimpleDescriptor"
`??bdb_RegisterSimpleDescriptor::?relay` SYMBOL "?relay", bdb_RegisterSimpleDescriptor
gp_DataIndAppendToList SYMBOL "gp_DataIndAppendToList"
`??gp_DataIndAppendToList::?relay` SYMBOL "?relay", gp_DataIndAppendToList
gp_DataIndGet       SYMBOL "gp_DataIndGet"
`??gp_DataIndGet::?relay` SYMBOL "?relay", gp_DataIndGet
gp_DataIndReleaseFromList SYMBOL "gp_DataIndReleaseFromList"
`??gp_DataIndReleaseFromList::?relay` SYMBOL "?relay", gp_DataIndReleaseFromList
gp_FreeGpTxQueue    SYMBOL "gp_FreeGpTxQueue"
`??gp_FreeGpTxQueue::?relay` SYMBOL "?relay", gp_FreeGpTxQueue
gp_GetHandle        SYMBOL "gp_GetHandle"
`??gp_GetHandle::?relay` SYMBOL "?relay", gp_GetHandle
gp_PairingUpdateProxyTlb SYMBOL "gp_PairingUpdateProxyTlb"
`??gp_PairingUpdateProxyTlb::?relay` SYMBOL "?relay", gp_PairingUpdateProxyTlb
gp_ResetProxyBasicTblEntry SYMBOL "gp_ResetProxyBasicTblEntry"
`??gp_ResetProxyBasicTblEntry::?relay` SYMBOL "?relay", gp_ResetProxyBasicTblEntry
osal_build_uint16   SYMBOL "osal_build_uint16"
`??osal_build_uint16::?relay` SYMBOL "?relay", osal_build_uint16
osal_build_uint32   SYMBOL "osal_build_uint32"
`??osal_build_uint32::?relay` SYMBOL "?relay", osal_build_uint32
osal_get_timeoutEx  SYMBOL "osal_get_timeoutEx"
`??osal_get_timeoutEx::?relay` SYMBOL "?relay", osal_get_timeoutEx
osal_mem_alloc      SYMBOL "osal_mem_alloc"
`??osal_mem_alloc::?relay` SYMBOL "?relay", osal_mem_alloc
osal_mem_free       SYMBOL "osal_mem_free"
`??osal_mem_free::?relay` SYMBOL "?relay", osal_mem_free
osal_memcmp         SYMBOL "osal_memcmp"
`??osal_memcmp::?relay` SYMBOL "?relay", osal_memcmp
osal_memcpy         SYMBOL "osal_memcpy"
`??osal_memcpy::?relay` SYMBOL "?relay", osal_memcpy
osal_memset         SYMBOL "osal_memset"
`??osal_memset::?relay` SYMBOL "?relay", osal_memset
osal_msg_allocate   SYMBOL "osal_msg_allocate"
`??osal_msg_allocate::?relay` SYMBOL "?relay", osal_msg_allocate
osal_msg_send       SYMBOL "osal_msg_send"
`??osal_msg_send::?relay` SYMBOL "?relay", osal_msg_send
osal_nv_item_init   SYMBOL "osal_nv_item_init"
`??osal_nv_item_init::?relay` SYMBOL "?relay", osal_nv_item_init
osal_nv_read        SYMBOL "osal_nv_read"
`??osal_nv_read::?relay` SYMBOL "?relay", osal_nv_read
osal_nv_write       SYMBOL "osal_nv_write"
`??osal_nv_write::?relay` SYMBOL "?relay", osal_nv_write
osal_start_timerEx  SYMBOL "osal_start_timerEx"
`??osal_start_timerEx::?relay` SYMBOL "?relay", osal_start_timerEx
osal_stop_timerEx   SYMBOL "osal_stop_timerEx"
`??osal_stop_timerEx::?relay` SYMBOL "?relay", osal_stop_timerEx
pt_ZclReadGetProxyEntry SYMBOL "pt_ZclReadGetProxyEntry"
`??pt_ZclReadGetProxyEntry::?relay` SYMBOL "?relay", pt_ZclReadGetProxyEntry
zclGp_RegisterCmdCallbacks SYMBOL "zclGp_RegisterCmdCallbacks"
`??zclGp_RegisterCmdCallbacks::?relay` SYMBOL "?relay", zclGp_RegisterCmdCallbacks
zclGp_SendGpCommissioningNotificationCommand SYMBOL "zclGp_SendGpCommissioningNotificationCommand"
`??zclGp_SendGpCommissioningNotificationCommand:` SYMBOL "?relay", zclGp_SendGpCommissioningNotificationCommand
zclGp_SendGpNotificationCommand SYMBOL "zclGp_SendGpNotificationCommand"
`??zclGp_SendGpNotificationCommand::?relay` SYMBOL "?relay", zclGp_SendGpNotificationCommand
zclGp_SendGpProxyTableResponse SYMBOL "zclGp_SendGpProxyTableResponse"
`??zclGp_SendGpProxyTableResponse::?relay` SYMBOL "?relay", zclGp_SendGpProxyTableResponse
`?<Name zclGpp_ReadWriteAttr 62>` SYMBOL "zclGpp_ReadWriteAttrCB"
`??zclGpp_ReadWriteAttrCB::?relay` SYMBOL "?relay", `?<Name zclGpp_ReadWriteAttr 62>`
zcl_ReadAttrData    SYMBOL "zcl_ReadAttrData"
`??zcl_ReadAttrData::?relay` SYMBOL "?relay", zcl_ReadAttrData
zcl_registerAttrList SYMBOL "zcl_registerAttrList"
`??zcl_registerAttrList::?relay` SYMBOL "?relay", zcl_registerAttrList
zcl_registerReadWriteCB SYMBOL "zcl_registerReadWriteCB"
`??zcl_registerReadWriteCB::?relay` SYMBOL "?relay", zcl_registerReadWriteCB
GP_DataCnf          SYMBOL "GP_DataCnf"
`??GP_DataCnf::?relay` SYMBOL "?relay", GP_DataCnf
GP_DataInd          SYMBOL "GP_DataInd"
`??GP_DataInd::?relay` SYMBOL "?relay", GP_DataInd
GP_SecReq           SYMBOL "GP_SecReq"
`??GP_SecReq::?relay` SYMBOL "?relay", GP_SecReq
gp_PopulateField    SYMBOL "gp_PopulateField"
`??gp_PopulateField::?relay` SYMBOL "?relay", gp_PopulateField
gp_ProxyTblInit     SYMBOL "gp_ProxyTblInit"
`??gp_ProxyTblInit::?relay` SYMBOL "?relay", gp_ProxyTblInit
gp_RegisterCommissioningModeCB SYMBOL "gp_RegisterCommissioningModeCB"
`??gp_RegisterCommissioningModeCB::?relay` SYMBOL "?relay", gp_RegisterCommissioningModeCB
gp_RegisterGPChangeChannelReqCB SYMBOL "gp_RegisterGPChangeChannelReqCB"
`??gp_RegisterGPChangeChannelReqCB::?relay` SYMBOL "?relay", gp_RegisterGPChangeChannelReqCB
gp_RegisterGPChangeChannelReqForBDBCB SYMBOL "gp_RegisterGPChangeChannelReqForBDBCB"
`??gp_RegisterGPChangeChannelReqForBDBCB::?relay` SYMBOL "?relay", gp_RegisterGPChangeChannelReqForBDBCB
gp_endpointInit     SYMBOL "gp_endpointInit"
`??gp_endpointInit::?relay` SYMBOL "?relay", gp_endpointInit
gp_expireDuplicateFiltering SYMBOL "gp_expireDuplicateFiltering"
`??gp_expireDuplicateFiltering::?relay` SYMBOL "?relay", gp_expireDuplicateFiltering
gp_getProxyTableByGpId SYMBOL "gp_getProxyTableByGpId"
`??gp_getProxyTableByGpId::?relay` SYMBOL "?relay", gp_getProxyTableByGpId
gp_getProxyTableByIndex SYMBOL "gp_getProxyTableByIndex"
`??gp_getProxyTableByIndex::?relay` SYMBOL "?relay", gp_getProxyTableByIndex
gp_returnOperationalChannel SYMBOL "gp_returnOperationalChannel"
`??gp_returnOperationalChannel::?relay` SYMBOL "?relay", gp_returnOperationalChannel
gp_stopCommissioningMode SYMBOL "gp_stopCommissioningMode"
`??gp_stopCommissioningMode::?relay` SYMBOL "?relay", gp_stopCommissioningMode
zclGp_DataIndParse  SYMBOL "zclGp_DataIndParse"
`??zclGp_DataIndParse::?relay` SYMBOL "?relay", zclGp_DataIndParse
zclGp_ManteinanceIndParse SYMBOL "zclGp_ManteinanceIndParse"
`??zclGp_ManteinanceIndParse::?relay` SYMBOL "?relay", zclGp_ManteinanceIndParse

        EXTERN `??GP_DataReq::?relay`
        FUNCTION `??GP_DataReq::?relay`,00H
        EXTERN `??ZDSecMgrReadKeyFromNv::?relay`
        FUNCTION `??ZDSecMgrReadKeyFromNv::?relay`,00H
        EXTERN `??ZMacSetReq::?relay`
        FUNCTION `??ZMacSetReq::?relay`,00H
        EXTERN `??bdb_RegisterSimpleDescriptor::?relay`
        FUNCTION `??bdb_RegisterSimpleDescriptor::?relay`,00H
        EXTERN `??gp_DataIndAppendToList::?relay`
        FUNCTION `??gp_DataIndAppendToList::?relay`,00H
        EXTERN `??gp_DataIndGet::?relay`
        FUNCTION `??gp_DataIndGet::?relay`,00H
        EXTERN `??gp_DataIndReleaseFromList::?relay`
        FUNCTION `??gp_DataIndReleaseFromList::?relay`,00H
        EXTERN `??gp_FreeGpTxQueue::?relay`
        FUNCTION `??gp_FreeGpTxQueue::?relay`,00H
        EXTERN `??gp_GetHandle::?relay`
        FUNCTION `??gp_GetHandle::?relay`,00H
        EXTERN `??gp_PairingUpdateProxyTlb::?relay`
        FUNCTION `??gp_PairingUpdateProxyTlb::?relay`,00H
        EXTERN `??gp_ResetProxyBasicTblEntry::?relay`
        FUNCTION `??gp_ResetProxyBasicTblEntry::?relay`,00H
        EXTERN `??osal_build_uint16::?relay`
        FUNCTION `??osal_build_uint16::?relay`,00H
        EXTERN `??osal_build_uint32::?relay`
        FUNCTION `??osal_build_uint32::?relay`,00H
        EXTERN `??osal_get_timeoutEx::?relay`
        FUNCTION `??osal_get_timeoutEx::?relay`,00H
        EXTERN `??osal_mem_alloc::?relay`
        FUNCTION `??osal_mem_alloc::?relay`,00H
        EXTERN `??osal_mem_free::?relay`
        FUNCTION `??osal_mem_free::?relay`,00H
        EXTERN `??osal_memcmp::?relay`
        FUNCTION `??osal_memcmp::?relay`,00H
        EXTERN `??osal_memcpy::?relay`
        FUNCTION `??osal_memcpy::?relay`,00H
        EXTERN `??osal_memset::?relay`
        FUNCTION `??osal_memset::?relay`,00H
        EXTERN `??osal_msg_allocate::?relay`
        FUNCTION `??osal_msg_allocate::?relay`,00H
        EXTERN `??osal_msg_send::?relay`
        FUNCTION `??osal_msg_send::?relay`,00H
        EXTERN `??osal_nv_item_init::?relay`
        FUNCTION `??osal_nv_item_init::?relay`,00H
        EXTERN `??osal_nv_read::?relay`
        FUNCTION `??osal_nv_read::?relay`,00H
        EXTERN `??osal_nv_write::?relay`
        FUNCTION `??osal_nv_write::?relay`,00H
        EXTERN `??osal_start_timerEx::?relay`
        FUNCTION `??osal_start_timerEx::?relay`,00H
        EXTERN `??osal_stop_timerEx::?relay`
        FUNCTION `??osal_stop_timerEx::?relay`,00H
        EXTERN `??pt_ZclReadGetProxyEntry::?relay`
        FUNCTION `??pt_ZclReadGetProxyEntry::?relay`,00H
        EXTERN `??zclGp_RegisterCmdCallbacks::?relay`
        FUNCTION `??zclGp_RegisterCmdCallbacks::?relay`,00H
        EXTERN `??zclGp_SendGpCommissioningNotificationCommand:`
        FUNCTION `??zclGp_SendGpCommissioningNotificationCommand:`,00H
        EXTERN `??zclGp_SendGpNotificationCommand::?relay`
        FUNCTION `??zclGp_SendGpNotificationCommand::?relay`,00H
        EXTERN `??zclGp_SendGpProxyTableResponse::?relay`
        FUNCTION `??zclGp_SendGpProxyTableResponse::?relay`,00H
        EXTERN `??zclGpp_ReadWriteAttrCB::?relay`
        FUNCTION `??zclGpp_ReadWriteAttrCB::?relay`,00H
        EXTERN `??zcl_ReadAttrData::?relay`
        FUNCTION `??zcl_ReadAttrData::?relay`,00H
        EXTERN `??zcl_registerAttrList::?relay`
        FUNCTION `??zcl_registerAttrList::?relay`,00H
        EXTERN `??zcl_registerReadWriteCB::?relay`
        FUNCTION `??zcl_registerReadWriteCB::?relay`,00H
        EXTERN GP_DataReq
        FUNCTION GP_DataReq,0202H
        ARGFRAME ISTACK, 2, STACK
        ARGFRAME PSTACK, 0, STACK
        ARGFRAME XSTACK, 21, STACK
        ARGFRAME IOVERLAY, 0, STATIC
        ARGFRAME DOVERLAY, 0, STATIC
        EXTERN ZDSecMgrReadKeyFromNv
        FUNCTION ZDSecMgrReadKeyFromNv,0202H
        ARGFRAME ISTACK, 0, STACK
        ARGFRAME PSTACK, 0, STACK
        ARGFRAME XSTACK, 36, STACK
        ARGFRAME IOVERLAY, 0, STATIC
        ARGFRAME DOVERLAY, 0, STATIC
        EXTERN ZMacSetReq
        FUNCTION ZMacSetReq,0202H
        ARGFRAME ISTACK, 2, STACK
        ARGFRAME PSTACK, 0, STACK
        ARGFRAME XSTACK, 93, STACK
        ARGFRAME IOVERLAY, 0, STATIC
        ARGFRAME DOVERLAY, 0, STATIC
        EXTERN _NIB
        EXTERN bdb_RegisterSimpleDescriptor
        FUNCTION bdb_RegisterSimpleDescriptor,0202H
        ARGFRAME ISTACK, 2, STACK
        ARGFRAME PSTACK, 0, STACK
        ARGFRAME XSTACK, 0, STACK
        ARGFRAME IOVERLAY, 0, STATIC
        ARGFRAME DOVERLAY, 0, STATIC
        EXTERN gp_DataIndAppendToList
        FUNCTION gp_DataIndAppendToList,0202H
        ARGFRAME ISTACK, 0, STACK
        ARGFRAME PSTACK, 0, STACK
        ARGFRAME XSTACK, 146, STACK
        ARGFRAME IOVERLAY, 0, STATIC
        ARGFRAME DOVERLAY, 0, STATIC
        EXTERN gp_DataIndGet
        FUNCTION gp_DataIndGet,0202H
        ARGFRAME ISTACK, 0, STACK
        ARGFRAME PSTACK, 0, STACK
        ARGFRAME XSTACK, 99, STACK
        ARGFRAME IOVERLAY, 0, STATIC
        ARGFRAME DOVERLAY, 0, STATIC
        EXTERN gp_DataIndReleaseFromList
        FUNCTION gp_DataIndReleaseFromList,0202H
        ARGFRAME ISTACK, 0, STACK
        ARGFRAME PSTACK, 0, STACK
        ARGFRAME XSTACK, 12, STACK
        ARGFRAME IOVERLAY, 0, STATIC
        ARGFRAME DOVERLAY, 0, STATIC
        EXTERN gp_FreeGpTxQueue
        FUNCTION gp_FreeGpTxQueue,0202H
        ARGFRAME ISTACK, 2, STACK
        ARGFRAME PSTACK, 0, STACK
        ARGFRAME XSTACK, 0, STACK
        ARGFRAME IOVERLAY, 0, STATIC
        ARGFRAME DOVERLAY, 0, STATIC
        EXTERN gp_GetHandle
        FUNCTION gp_GetHandle,0202H
        ARGFRAME ISTACK, 0, STACK
        ARGFRAME PSTACK, 0, STACK
        ARGFRAME XSTACK, 93, STACK
        ARGFRAME IOVERLAY, 0, STATIC
        ARGFRAME DOVERLAY, 0, STATIC
        EXTERN gp_PairingUpdateProxyTlb
        FUNCTION gp_PairingUpdateProxyTlb,0202H
        ARGFRAME ISTACK, 2, STACK
        ARGFRAME PSTACK, 0, STACK
        ARGFRAME XSTACK, 53, STACK
        ARGFRAME IOVERLAY, 0, STATIC
        ARGFRAME DOVERLAY, 0, STATIC
        EXTERN gp_ResetProxyBasicTblEntry
        FUNCTION gp_ResetProxyBasicTblEntry,0202H
        ARGFRAME ISTACK, 0, STACK
        ARGFRAME PSTACK, 0, STACK
        ARGFRAME XSTACK, 81, STACK
        ARGFRAME IOVERLAY, 0, STATIC
        ARGFRAME DOVERLAY, 0, STATIC
        EXTERN gp_TaskID
        EXTERN osal_build_uint16
        FUNCTION osal_build_uint16,0202H
        ARGFRAME ISTACK, 0, STACK
        ARGFRAME PSTACK, 0, STACK
        ARGFRAME XSTACK, 10, STACK
        ARGFRAME IOVERLAY, 0, STATIC
        ARGFRAME DOVERLAY, 0, STATIC
        EXTERN osal_build_uint32
        FUNCTION osal_build_uint32,0202H
        ARGFRAME ISTACK, 0, STACK
        ARGFRAME PSTACK, 0, STACK
        ARGFRAME XSTACK, 94, STACK
        ARGFRAME IOVERLAY, 0, STATIC
        ARGFRAME DOVERLAY, 0, STATIC
        EXTERN osal_get_timeoutEx
        FUNCTION osal_get_timeoutEx,0202H
        ARGFRAME ISTACK, 0, STACK
        ARGFRAME PSTACK, 0, STACK
        ARGFRAME XSTACK, 146, STACK
        ARGFRAME IOVERLAY, 0, STATIC
        ARGFRAME DOVERLAY, 0, STATIC
        EXTERN osal_mem_alloc
        FUNCTION osal_mem_alloc,0202H
        ARGFRAME ISTACK, 0, STACK
        ARGFRAME PSTACK, 0, STACK
        ARGFRAME XSTACK, 181, STACK
        ARGFRAME IOVERLAY, 0, STATIC
        ARGFRAME DOVERLAY, 0, STATIC
        EXTERN osal_mem_free
        FUNCTION osal_mem_free,0202H
        ARGFRAME ISTACK, 0, STACK
        ARGFRAME PSTACK, 0, STACK
        ARGFRAME XSTACK, 181, STACK
        ARGFRAME IOVERLAY, 0, STATIC
        ARGFRAME DOVERLAY, 0, STATIC
        EXTERN osal_memcmp
        FUNCTION osal_memcmp,0202H
        ARGFRAME ISTACK, 0, STACK
        ARGFRAME PSTACK, 0, STACK
        ARGFRAME XSTACK, 97, STACK
        ARGFRAME IOVERLAY, 0, STATIC
        ARGFRAME DOVERLAY, 0, STATIC
        EXTERN osal_memcpy
        FUNCTION osal_memcpy,0202H
        ARGFRAME ISTACK, 0, STACK
        ARGFRAME PSTACK, 0, STACK
        ARGFRAME XSTACK, 184, STACK
        ARGFRAME IOVERLAY, 0, STATIC
        ARGFRAME DOVERLAY, 0, STATIC
        EXTERN osal_memset
        FUNCTION osal_memset,0202H
        ARGFRAME ISTACK, 0, STACK
        ARGFRAME PSTACK, 0, STACK
        ARGFRAME XSTACK, 146, STACK
        ARGFRAME IOVERLAY, 0, STATIC
        ARGFRAME DOVERLAY, 0, STATIC
        EXTERN osal_msg_allocate
        FUNCTION osal_msg_allocate,0202H
        ARGFRAME ISTACK, 0, STACK
        ARGFRAME PSTACK, 0, STACK
        ARGFRAME XSTACK, 99, STACK
        ARGFRAME IOVERLAY, 0, STATIC
        ARGFRAME DOVERLAY, 0, STATIC
        EXTERN osal_msg_send
        FUNCTION osal_msg_send,0202H
        ARGFRAME ISTACK, 0, STACK
        ARGFRAME PSTACK, 0, STACK
        ARGFRAME XSTACK, 99, STACK
        ARGFRAME IOVERLAY, 0, STATIC
        ARGFRAME DOVERLAY, 0, STATIC
        EXTERN osal_nv_item_init
        FUNCTION osal_nv_item_init,0202H
        ARGFRAME ISTACK, 0, STACK
        ARGFRAME PSTACK, 0, STACK
        ARGFRAME XSTACK, 79, STACK
        ARGFRAME IOVERLAY, 0, STATIC
        ARGFRAME DOVERLAY, 0, STATIC
        EXTERN osal_nv_read
        FUNCTION osal_nv_read,0202H
        ARGFRAME ISTACK, 0, STACK
        ARGFRAME PSTACK, 0, STACK
        ARGFRAME XSTACK, 20, STACK
        ARGFRAME IOVERLAY, 0, STATIC
        ARGFRAME DOVERLAY, 0, STATIC
        EXTERN osal_nv_write
        FUNCTION osal_nv_write,0202H
        ARGFRAME ISTACK, 0, STACK
        ARGFRAME PSTACK, 0, STACK
        ARGFRAME XSTACK, 150, STACK
        ARGFRAME IOVERLAY, 0, STATIC
        ARGFRAME DOVERLAY, 0, STATIC
        EXTERN osal_start_timerEx
        FUNCTION osal_start_timerEx,0202H
        ARGFRAME ISTACK, 0, STACK
        ARGFRAME PSTACK, 0, STACK
        ARGFRAME XSTACK, 150, STACK
        ARGFRAME IOVERLAY, 0, STATIC
        ARGFRAME DOVERLAY, 0, STATIC
        EXTERN osal_stop_timerEx
        FUNCTION osal_stop_timerEx,0202H
        ARGFRAME ISTACK, 2, STACK
        ARGFRAME PSTACK, 0, STACK
        ARGFRAME XSTACK, 21, STACK
        ARGFRAME IOVERLAY, 0, STATIC
        ARGFRAME DOVERLAY, 0, STATIC
        EXTERN pt_ZclReadGetProxyEntry
        FUNCTION pt_ZclReadGetProxyEntry,0202H
        ARGFRAME ISTACK, 0, STACK
        ARGFRAME PSTACK, 0, STACK
        ARGFRAME XSTACK, 183, STACK
        ARGFRAME IOVERLAY, 0, STATIC
        ARGFRAME DOVERLAY, 0, STATIC
        EXTERN zclGp_RegisterCmdCallbacks
        FUNCTION zclGp_RegisterCmdCallbacks,0202H
        ARGFRAME ISTACK, 2, STACK
        ARGFRAME PSTACK, 0, STACK
        ARGFRAME XSTACK, 0, STACK
        ARGFRAME IOVERLAY, 0, STATIC
        ARGFRAME DOVERLAY, 0, STATIC
        EXTERN zclGp_SendGpCommissioningNotificationCommand
        FUNCTION zclGp_SendGpCommissioningNotificationCommand,0202H
        ARGFRAME ISTACK, 0, STACK
        ARGFRAME PSTACK, 0, STACK
        ARGFRAME XSTACK, 146, STACK
        ARGFRAME IOVERLAY, 0, STATIC
        ARGFRAME DOVERLAY, 0, STATIC
        EXTERN zclGp_SendGpNotificationCommand
        FUNCTION zclGp_SendGpNotificationCommand,0202H
        ARGFRAME ISTACK, 0, STACK
        ARGFRAME PSTACK, 0, STACK
        ARGFRAME XSTACK, 146, STACK
        ARGFRAME IOVERLAY, 0, STATIC
        ARGFRAME DOVERLAY, 0, STATIC
        EXTERN zclGp_SendGpProxyTableResponse
        FUNCTION zclGp_SendGpProxyTableResponse,0202H
        ARGFRAME ISTACK, 0, STACK
        ARGFRAME PSTACK, 0, STACK
        ARGFRAME XSTACK, 181, STACK
        ARGFRAME IOVERLAY, 0, STATIC
        ARGFRAME DOVERLAY, 0, STATIC
        EXTERN zcl_InSeqNum
        EXTERN zcl_ReadAttrData
        FUNCTION zcl_ReadAttrData,0202H
        ARGFRAME ISTACK, 0, STACK
        ARGFRAME PSTACK, 0, STACK
        ARGFRAME XSTACK, 40, STACK
        ARGFRAME IOVERLAY, 0, STATIC
        ARGFRAME DOVERLAY, 0, STATIC
        EXTERN zcl_registerAttrList
        FUNCTION zcl_registerAttrList,0202H
        ARGFRAME ISTACK, 2, STACK
        ARGFRAME PSTACK, 0, STACK
        ARGFRAME XSTACK, 0, STACK
        ARGFRAME IOVERLAY, 0, STATIC
        ARGFRAME DOVERLAY, 0, STATIC
        EXTERN zcl_registerReadWriteCB
        FUNCTION zcl_registerReadWriteCB,0202H
        ARGFRAME ISTACK, 2, STACK
        ARGFRAME PSTACK, 0, STACK
        ARGFRAME XSTACK, 0, STACK
        ARGFRAME IOVERLAY, 0, STATIC
        ARGFRAME DOVERLAY, 0, STATIC

// D:\fuzzing-coordinator-response-collection\Components\stack\GP\gp_common.c
//    1 /**************************************************************************************************
//    2   Filename:       gp_common.c
//    3   Revised:        $Date: 2016-02-25 11:51:49 -0700 (Thu, 25 Feb 2016) $
//    4   Revision:       $Revision: - $
//    5 
//    6   Description:    This file contains the implementation of the cGP stub.
//    7 
//    8 
//    9   Copyright 2006-2015 Texas Instruments Incorporated. All rights reserved.
//   10 
//   11   IMPORTANT: Your use of this Software is limited to those specific rights
//   12   granted under the terms of a software license agreement between the user
//   13   who downloaded the software, his/her employer (which must be your employer)
//   14   and Texas Instruments Incorporated (the "License").  You may not use this
//   15   Software unless you agree to abide by the terms of the License. The License
//   16   limits your use, and you acknowledge, that the Software may not be modified,
//   17   copied or distributed unless embedded on a Texas Instruments microcontroller
//   18   or used solely and exclusively in conjunction with a Texas Instruments radio
//   19   frequency transceiver, which is integrated into your product.  Other than for
//   20   the foregoing purpose, you may not use, reproduce, copy, prepare derivative
//   21   works of, modify, distribute, perform, display or sell this Software and/or
//   22   its documentation for any purpose.
//   23 
//   24   YOU FURTHER ACKNOWLEDGE AND AGREE THAT THE SOFTWARE AND DOCUMENTATION ARE
//   25   PROVIDED "AS IS" WITHOUT WARRANTY OF ANY KIND, EITHER EXPRESS OR IMPLIED,
//   26   INCLUDING WITHOUT LIMITATION, ANY WARRANTY OF MERCHANTABILITY, TITLE,
//   27   NON-INFRINGEMENT AND FITNESS FOR A PARTICULAR PURPOSE. IN NO EVENT SHALL
//   28   TEXAS INSTRUMENTS OR ITS LICENSORS BE LIABLE OR OBLIGATED UNDER CONTRACT,
//   29   NEGLIGENCE, STRICT LIABILITY, CONTRIBUTION, BREACH OF WARRANTY, OR OTHER
//   30   LEGAL EQUITABLE THEORY ANY DIRECT OR INDIRECT DAMAGES OR EXPENSES
//   31   INCLUDING BUT NOT LIMITED TO ANY INCIDENTAL, SPECIAL, INDIRECT, PUNITIVE
//   32   OR CONSEQUENTIAL DAMAGES, LOST PROFITS OR LOST DATA, COST OF PROCUREMENT
//   33   OF SUBSTITUTE GOODS, TECHNOLOGY, SERVICES, OR ANY CLAIMS BY THIRD PARTIES
//   34   (INCLUDING BUT NOT LIMITED TO ANY DEFENSE THEREOF), OR OTHER SIMILAR COSTS.
//   35 
//   36   Should you have any questions regarding your right to use this Software,
//   37   contact Texas Instruments Incorporated at www.TI.com.
//   38 **************************************************************************************************/
//   39 
//   40 /*********************************************************************
//   41  * INCLUDES
//   42  */
//   43 
//   44 #include "ZGlobals.h"
//   45 #include "ZComDef.h"
//   46 #include "zcl_general.h"
//   47 #include "AF.h"
//   48 #include "gp_common.h"
//   49 #include "gp_interface.h"
//   50 #include "zcl_green_power.h"
//   51 #include "OSAL.h"
//   52 #include "dGP_stub.h"
//   53 #include "mac_api.h"
//   54 #include "ZDSecMgr.h"
//   55 #include "bdb.h"
//   56 
//   57 #if !defined (DISABLE_GREENPOWER_BASIC_PROXY) && (ZG_BUILD_RTR_TYPE)
//   58 
//   59  /*********************************************************************
//   60  * MACROS
//   61  */ 
//   62 
//   63    
//   64  /*********************************************************************
//   65  * CONSTANTS
//   66  */
//   67 
//   68 #define PGG_COMMISSIONING_WINDOW   180  //180 seconds by defaut
//   69 
//   70 
//   71 #ifdef GP_SHARED_KEY

        RSEG CODE_C:CODE:REORDER:NOROOT(0)
        DATA8
//   72   CONFIG_ITEM uint8 zgpSharedKey[SEC_KEY_LEN] = GP_SHARED_KEY;
zgpSharedKey:
        DB 192
        DB 193
        DB 194
        DB 195
        DB 196
        DB 197
        DB 198
        DB 199
        DB 200
        DB 201
        DB 202
        DB 203
        DB 204
        DB 205
        DB 206
        DB 207
//   73 #else
//   74   CONFIG_ITEM uint8 zgpSharedKey[SEC_KEY_LEN] = {0xFF};
//   75 #endif
//   76 
//   77 /*********************************************************************
//   78  * TYPEDEFS
//   79  */
//   80    
//   81  /*********************************************************************
//   82  * GLOBAL VARIABLES
//   83  */
//   84 
//   85 

        RSEG XDATA_I:XDATA:NOROOT(0)
//   86 uint8  zclGp_gppMaxProxyTableEntries = GPP_MAX_PROXY_TABLE_ENTRIES;
zclGp_gppMaxProxyTableEntries:
        DATA8
        DS 1
        REQUIRE `?<Initializer for zclGp_gppMaxProxyTableEntrie`
        REQUIRE __INIT_XDATA_I

        RSEG XDATA_Z:XDATA:NOROOT(0)
        DATA16
//   87 uint8 *pZclGp_ProxyTableEntries = NULL;
pZclGp_ProxyTableEntries:
        DS 2
        REQUIRE __INIT_XDATA_Z

        RSEG XDATA_I:XDATA:NOROOT(0)
//   88 uint8  zclGp_gppNotificationRetryNumber = GPP_NOTIFICATION_RETRY_NUMBER;
zclGp_gppNotificationRetryNumber:
        DATA8
        DS 1
        REQUIRE `?<Initializer for zclGp_gppNotificationRetryNu`
        REQUIRE __INIT_XDATA_I

        RSEG XDATA_I:XDATA:NOROOT(0)
//   89 uint8  zclGp_gppNotificationRetryTimer = GPP_NOTIFICATION_RETRY_TIMER;
zclGp_gppNotificationRetryTimer:
        DATA8
        DS 1
        REQUIRE `?<Initializer for zclGp_gppNotificationRetryTi`
        REQUIRE __INIT_XDATA_I

        RSEG XDATA_I:XDATA:NOROOT(0)
//   90 uint8  zclGp_gppMaxSearchCounter = GPP_MAX_SEARCH_COUNTER;
zclGp_gppMaxSearchCounter:
        DATA8
        DS 1
        REQUIRE `?<Initializer for zclGp_gppMaxSearchCounter>`
        REQUIRE __INIT_XDATA_I

        RSEG XDATA_Z:XDATA:NOROOT(0)
        DATA16
//   91 uint8 *pZclGp_gppBlockedGPDID = NULL;
pZclGp_gppBlockedGPDID:
        DS 2
        REQUIRE __INIT_XDATA_Z
//   92 
//   93 /**********************************************************************************
//   94 ZigBee PRO Green Power feature specification
//   95 Basic functionality set
//   96 Version 1.0
//   97 
//   98 Table 42 – Format of the gppFunctionality attribute
//   99 ----------------------------------------------------------------------------------
//  100 Indication   | Functionality                                        | Basic Proxy
//  101 -------------|------------------------------------------------------|-------------
//  102 b0           | GP feature                                           | 0b1
//  103 b1           | Direct communication (reception of GPDF via GP stub) | 0b1
//  104 b2           | Derived groupcast communication                      | 0b1
//  105 b3           | Pre-commissioned groupcast communication             | 0b1
//  106 b4           | Full unicast communication                           | 0b0
//  107 b5           | Lightweight unicast communication                    | 0b1
//  108 b6           | Reserved                                             | 0b0
//  109 b7           | Bidirectional operation                              | 0b0
//  110 b8           | Proxy Table maintenance (active and passive,         | 0b0
//  111              | for GPD mobility and GPP robustness)                 |
//  112 b9           | Reserved                                             | 0b0
//  113 b10          | GP commissioning                                     | 0b1
//  114 b11          | CT-based commissioning                               | 0b1
//  115 b12          | Maintenance of GPD (deliver channel/key              | 0b0
//  116              | during operation)                                    | 
//  117 b13          | gpdSecurityLevel  = 0b00                             | 0b1
//  118 b14          | Deprecated: gpdSe curityLevel = 0b01                 | 0b0
//  119 b15          | gpdSecurityLevel  = 0b10                             | 0b1
//  120 b16          | gpdSecurityLevel  = 0b11                             | 0b1
//  121 b17          | Reserved                                             | 0b0
//  122 b18          | Reserved                                             | 0b0
//  123 b19          | GPD IEEE address                                     | 0b1
//  124 b20 – b23    | Reserved                                             | 0b0
//  125 ----------------------------------------------------------------------------------
//  126 ***********************************************************************************/
//  127 
//  128 //                                          b0-b7       b8-b15      b16-23
//  129 //                                        0b00101111  0b10101100  0b00001001

        RSEG XDATA_I:XDATA:NOROOT(0)
//  130 uint8  zclGp_gppFunctionality[3] =       {   0x2F,      0xAC,        0x09};
zclGp_gppFunctionality:
        DATA8
        DS 3
        REQUIRE `?<Initializer for zclGp_gppFunctionality>`
        REQUIRE __INIT_XDATA_I

        RSEG XDATA_I:XDATA:NOROOT(0)
//  131 uint8  zclGp_gppActiveFunctionality[3] = {   0x2F,      0xAC,        0x09};
zclGp_gppActiveFunctionality:
        DATA8
        DS 3
        REQUIRE `?<Initializer for zclGp_gppActiveFunctionality`
        REQUIRE __INIT_XDATA_I
//  132 

        RSEG XDATA_Z:XDATA:NOROOT(0)
        DATA8
//  133 uint8  zclGp_gpSharedSecurityKeyType = GP_SHARED_SEC_KEY_TYPE;
zclGp_gpSharedSecurityKeyType:
        DS 1
        REQUIRE __INIT_XDATA_Z

        RSEG XDATA_I:XDATA:NOROOT(0)
//  134 uint8  zclGp_gpSharedSecurityKey[SEC_KEY_LEN] = GP_SHARED_KEY;
zclGp_gpSharedSecurityKey:
        DATA8
        DS 16
        REQUIRE `?<Initializer for zclGp_gpSharedSecurityKey>`
        REQUIRE __INIT_XDATA_I

        RSEG XDATA_I:XDATA:NOROOT(0)
//  135 uint8  zclGp_gpLinkKey[SEC_KEY_LEN] = GP_LINK_LEY;
zclGp_gpLinkKey:
        DATA8
        DS 16
        REQUIRE `?<Initializer for zclGp_gpLinkKey>`
        REQUIRE __INIT_XDATA_I

        RSEG XDATA_I:XDATA:NOROOT(0)
//  136 uint16 zclGp_clusterRevision = GP_CLUSTER_REVISION;
zclGp_clusterRevision:
        DATA16
        DS 2
        REQUIRE `?<Initializer for zclGp_clusterRevision>`
        REQUIRE __INIT_XDATA_I
//  137 

        RSEG XDATA_Z:XDATA:NOROOT(0)
        DATA16
//  138 static gpCommissioningMode_t  pfnCommissioningMode = NULL;
pfnCommissioningMode:
        DS 2
        REQUIRE __INIT_XDATA_Z

        RSEG XDATA_Z:XDATA:NOROOT(0)
        DATA16
//  139 static gpChangeChannelReq_t   pfnChangeChannelReq = NULL;
pfnChangeChannelReq:
        DS 2
        REQUIRE __INIT_XDATA_Z

        RSEG XDATA_Z:XDATA:NOROOT(0)
        DATA16
//  140 static gpChangeChannelReq_t   pfnChangeChannelReqForBDB = NULL;
pfnChangeChannelReqForBDB:
        DS 2
        REQUIRE __INIT_XDATA_Z
//  141 
//  142 

        RSEG XDATA_Z:XDATA:NOROOT(0)
        DATA8
//  143 uint8 gp_commissioningOptions = 0;           //Commissioning Options from the ommissioningMode command
gp_commissioningOptions:
        DS 1
        REQUIRE __INIT_XDATA_Z

        RSEG XDATA_Z:XDATA:NOROOT(0)
        DATA16
//  144 uint16 gp_commissioningUnicastAddress = 0;   //address of the device to which send the notifications
gp_commissioningUnicastAddress:
        DS 2
        REQUIRE __INIT_XDATA_Z
//  145 

        RSEG XDATA_Z:XDATA:NOROOT(0)
        DATA8
//  146 uint8  zgGP_InCommissioningMode = FALSE;     // Global flag that states if in commissioning mode or in operational mode.
zgGP_InCommissioningMode:
        DS 1
        REQUIRE __INIT_XDATA_Z

        RSEG XDATA_I:XDATA:NOROOT(0)
//  147 uint16 gp_commissionerAddress = 0xFFFF;      //Address to which send the notifications during commissioning mode
gp_commissionerAddress:
        DATA16
        DS 2
        REQUIRE `?<Initializer for gp_commissionerAddress>`
        REQUIRE __INIT_XDATA_I

        RSEG XDATA_Z:XDATA:NOROOT(0)
        DATA8
//  148 byte   gp_tempLogicalChannel = 0;            //Holder of the operational nwk channel
gp_tempLogicalChannel:
        DS 1
        REQUIRE __INIT_XDATA_Z
//  149 
//  150 
//  151 
//  152   
//  153 
//  154 /*********************************************************************
//  155  * ATTRIBUTE DEFINITIONS - Uses REAL cluster IDs
//  156  */

        RSEG CODE_C:CODE:REORDER:NOROOT(0)
        DATA8
//  157 CONST zclAttrRec_t zclGp_Attrs[] =
zclGp_Attrs:
        DATA16
        DW 33
        DW 16
        DATA8
        DB 32
        DB 129
        DATA16
        DW zclGp_gppMaxProxyTableEntries
        DW 33
        DW 17
        DATA8
        DB 67
        DB 129
        DATA16
        DW 0H
        DW 33
        DW 18
        DATA8
        DB 32
        DB 131
        DATA16
        DW zclGp_gppNotificationRetryNumber
        DW 33
        DW 19
        DATA8
        DB 32
        DB 131
        DATA16
        DW zclGp_gppNotificationRetryTimer
        DW 33
        DW 20
        DATA8
        DB 32
        DB 131
        DATA16
        DW zclGp_gppMaxSearchCounter
        DW 33
        DW 21
        DATA8
        DB 67
        DB 129
        DATA16
        DW pZclGp_gppBlockedGPDID
        DW 33
        DW 22
        DATA8
        DB 26
        DB 129
        DATA16
        DW zclGp_gppFunctionality
        DW 33
        DW 23
        DATA8
        DB 26
        DB 129
        DATA16
        DW zclGp_gppActiveFunctionality
        DW 33
        DW 32
        DATA8
        DB 24
        DB 131
        DATA16
        DW zclGp_gpSharedSecurityKeyType
        DW 33
        DW 33
        DATA8
        DB 241
        DB 131
        DATA16
        DW zclGp_gpSharedSecurityKey
        DW 33
        DW 34
        DATA8
        DB 241
        DB 131
        DATA16
        DW zclGp_gpLinkKey
        DW 33
        DW 65533
        DATA8
        DB 33
        DB 129
        DATA16
        DW zclGp_clusterRevision
//  158 {
//  159   // *** Green Power Proxy Cluster Attributes ***
//  160   {
//  161     ZCL_CLUSTER_ID_GREEN_POWER,
//  162     {  // Attribute record
//  163       ATTRID_GP_GPP_MAX_PROXY_TABLE_ENTRIES,
//  164       ZCL_DATATYPE_UINT8,
//  165       ACCESS_CONTROL_READ | ACCESS_CLIENT,
//  166       (void *)&zclGp_gppMaxProxyTableEntries
//  167     }
//  168   },
//  169   {
//  170     ZCL_CLUSTER_ID_GREEN_POWER,
//  171     {  // Attribute record
//  172       ATTRID_GP_PROXY_TABLE,
//  173       ZCL_DATATYPE_LONG_OCTET_STR,
//  174       ACCESS_CONTROL_READ | ACCESS_CLIENT,
//  175       NULL // Use application's callback to Read this attribute
//  176     }
//  177   },
//  178   {
//  179     ZCL_CLUSTER_ID_GREEN_POWER,
//  180     {  // Attribute record
//  181       ATTRID_GP_GPP_NOTIFICATION_RETRY_NUMBER,
//  182       ZCL_DATATYPE_UINT8,
//  183       ACCESS_CONTROL_READ | ACCESS_CONTROL_WRITE | ACCESS_CLIENT,
//  184       (void *)&zclGp_gppNotificationRetryNumber
//  185     }
//  186   },
//  187   {
//  188     ZCL_CLUSTER_ID_GREEN_POWER,
//  189     {  // Attribute record
//  190       ATTRID_GP_GPP_NOTIFICATION_RETRY_TIMER,
//  191       ZCL_DATATYPE_UINT8,
//  192       ACCESS_CONTROL_READ | ACCESS_CONTROL_WRITE | ACCESS_CLIENT,
//  193       (void *)&zclGp_gppNotificationRetryTimer
//  194     }
//  195   },
//  196   {
//  197     ZCL_CLUSTER_ID_GREEN_POWER,
//  198     {  // Attribute record
//  199       ATTRID_GP_GPP_MAX_SEARCH_COUNTER,
//  200       ZCL_DATATYPE_UINT8,
//  201       ACCESS_CONTROL_READ | ACCESS_CONTROL_WRITE | ACCESS_CLIENT,
//  202       (void *)&zclGp_gppMaxSearchCounter
//  203     }
//  204   },
//  205   {
//  206     ZCL_CLUSTER_ID_GREEN_POWER,
//  207     {  // Attribute record
//  208       ATTRID_GP_GPP_BLOCKED_GPD_ID,
//  209       ZCL_DATATYPE_LONG_OCTET_STR,
//  210       ACCESS_CONTROL_READ | ACCESS_CLIENT,
//  211       (void *)&pZclGp_gppBlockedGPDID
//  212     }
//  213   },
//  214   {
//  215     ZCL_CLUSTER_ID_GREEN_POWER,
//  216     {  // Attribute record
//  217       ATTRID_GP_GPP_FUNCTIONALITY,
//  218       ZCL_DATATYPE_BITMAP24,
//  219       ACCESS_CONTROL_READ | ACCESS_CLIENT,
//  220       (void *)&zclGp_gppFunctionality
//  221     }
//  222   },
//  223   {
//  224     ZCL_CLUSTER_ID_GREEN_POWER,
//  225     {  // Attribute record
//  226       ATTRID_GP_GPP_ACTIVE_FUNCTIONALITY,
//  227       ZCL_DATATYPE_BITMAP24,
//  228       ACCESS_CONTROL_READ | ACCESS_CLIENT,
//  229       (void *)&zclGp_gppActiveFunctionality
//  230     }
//  231   },
//  232   {
//  233     ZCL_CLUSTER_ID_GREEN_POWER,
//  234     {  // Attribute record
//  235       ATTRID_GP_SHARED_SEC_KEY_TYPE,
//  236       ZCL_DATATYPE_BITMAP8,
//  237       ACCESS_CONTROL_READ | ACCESS_CONTROL_WRITE | ACCESS_CLIENT,
//  238       (void *)&zclGp_gpSharedSecurityKeyType
//  239     }
//  240   },
//  241   {
//  242     ZCL_CLUSTER_ID_GREEN_POWER,
//  243     {  // Attribute record
//  244       ATTRID_GP_SHARED_SEC_KEY,
//  245       ZCL_DATATYPE_128_BIT_SEC_KEY,
//  246       ACCESS_CONTROL_READ | ACCESS_CONTROL_WRITE | ACCESS_CLIENT,
//  247       (void *)&zclGp_gpSharedSecurityKey
//  248     }
//  249   },
//  250   {
//  251     ZCL_CLUSTER_ID_GREEN_POWER,
//  252     {  // Attribute record
//  253       ATTRID_GP_LINK_KEY,
//  254       ZCL_DATATYPE_128_BIT_SEC_KEY,
//  255       ACCESS_CONTROL_READ | ACCESS_CONTROL_WRITE | ACCESS_CLIENT,
//  256       (void *)&zclGp_gpLinkKey
//  257     }
//  258   },
//  259   {
//  260     ZCL_CLUSTER_ID_GREEN_POWER,
//  261     {  // Attribute record
//  262       ATTRID_CLUSTER_REVISION,
//  263       ZCL_DATATYPE_UINT16,
//  264       ACCESS_CONTROL_READ | ACCESS_CLIENT,
//  265       (void *)&zclGp_clusterRevision
//  266     }
//  267   }
//  268 };
//  269 
//  270 

        RSEG CODE_C:CODE:REORDER:NOROOT(0)
        DATA8
//  271 uint8 CONST zclGp_NumAttributes = ( sizeof(zclGp_Attrs) / sizeof(zclGp_Attrs[0]) );
zclGp_NumAttributes:
        DB 12
//  272 
//  273  /*********************************************************************
//  274  * EXTERNAL VARIABLES
//  275  */
//  276 
//  277 //List to filter duplicated packets

        RSEG XDATA_Z:XDATA:NOROOT(0)
        DATA16
//  278 gp_DataInd_t        *gp_DataIndList;
gp_DataIndList:
        DS 2
        REQUIRE __INIT_XDATA_Z
//  279 
//  280 
//  281 /*********************************************************************
//  282  * EXTERNAL FUNCTIONS
//  283  */
//  284 
//  285 
//  286 /*********************************************************************
//  287  * LOCAL VARIABLES
//  288  */
//  289 // This is the Cluster ID List and should be filled with Application
//  290 // specific cluster IDs.
//  291 #define GREEN_POWER_EP_MAX_INCLUSTERS       1
//  292 
//  293 #define GREEN_POWER_EP_MAX_OUTCLUSTERS       1

        RSEG XDATA_ROM_C:CONST:REORDER:NOROOT(0)
        DATA16
//  294 static const cId_t greenPower_EP_OutClusterList[GREEN_POWER_EP_MAX_OUTCLUSTERS] =
greenPower_EP_OutClusterList:
        DW 33
//  295 {
//  296   ZCL_CLUSTER_ID_GREEN_POWER
//  297 };
//  298 

        RSEG XDATA_I:XDATA:NOROOT(0)
//  299 static SimpleDescriptionFormat_t greenPower_EP_SimpleDesc =
greenPower_EP_SimpleDesc:
        DATA8
        DS 12
        REQUIRE `?<Initializer for greenPower_EP_SimpleDesc>`
        REQUIRE __INIT_XDATA_I
//  300 {
//  301   GREEN_POWER_INTERNAL_ENDPOINT,         //  int Endpoint;
//  302   ZCL_GP_PROFILE_ID,                     //  uint16 AppProfId;
//  303   ZCL_GP_DEVICEID_PROXY_BASIC,           //  uint16 AppDeviceId;
//  304   0,                                     //  int   AppDevVer:4;
//  305   0,                                     //  int   AppFlags:4;
//  306   0,                                     //  byte  AppNumInClusters;
//  307   NULL,                                  //  byte *pAppInClusterList;
//  308   GREEN_POWER_EP_MAX_OUTCLUSTERS,        //  byte  AppNumInClusters;
//  309   (cId_t *)greenPower_EP_OutClusterList  //  byte *pAppInClusterList;
//  310 };
//  311 
//  312 
//  313 
//  314 
//  315  /*********************************************************************
//  316  * LOCAL FUNCTIONS
//  317  */
//  318 static void GP_ProccessCommissioningNotification(gp_DataInd_t *gp_DataInd);
//  319 static void GP_ProccessNotification(gp_DataInd_t *gp_DataInd);
//  320 
//  321 static void zclGp_GpPairingCommandCB( zclGpPairing_t *pCmd );
//  322 static void zclGp_GpProxyTableReqCB( zclGpProxyTableRequest_t *pCmd );
//  323 static void zclGp_GpProxyCommissioningModeCB(zclGpProxyCommissioningMode_t* pCmd);
//  324 static void zclGp_GpResponseCommandCB(zclGpResponse_t* pCmd);
//  325 static void gp_u32CastPointer( uint8 *data, uint8 *p );
//  326 static void gp_u16CastPointer( uint8 *data, uint8 *p );
//  327 static void gp_u8CastPointer( uint8 *data, uint8 *p );
//  328 static void gp_ZclPairingParse( zclGpPairing_t* pCmd, gpPairingCmd_t* payload );
//  329 static void gp_ZclProxyTableReqParse( zclGpProxyTableRequest_t* pCmd, gpProxyTableReqCmd_t* payload );
//  330 static uint8 gp_SecurityOperationProxy( gp_DataInd_t* pInd, uint8* pKeyType, uint8* pKey);
//  331 static gp_DataInd_t* gp_DataIndFindDuplicate(uint8 handle, uint8 secLvl);
//  332 static uint8 GP_RecoveryKey(uint8 GPDFKeyType,uint8 KeyType, uint8 status, uint8 *Key);
//  333  
//  334 
//  335 
//  336 
//  337 /*********************************************************************
//  338  * ZCL General Profile Callback table
//  339  */

        RSEG XDATA_I:XDATA:NOROOT(0)
//  340 static zclGp_AppCallbacks_t zclGpProxy_CmdCallbacks =
zclGpProxy_CmdCallbacks:
        DATA8
        DS 8
        REQUIRE `?<Initializer for zclGpProxy_CmdCallbacks>`
        REQUIRE __INIT_XDATA_I
//  341 {
//  342   zclGp_GpPairingCommandCB,            //
//  343   zclGp_GpProxyTableReqCB,
//  344   zclGp_GpProxyCommissioningModeCB,    //
//  345   zclGp_GpResponseCommandCB  
//  346 };
//  347 
//  348 /*********************************************************************
//  349  * PUBLIC FUNCTIONS
//  350  *********************************************************************/
//  351 
//  352 
//  353  

        RSEG BANKED_CODE:HUGECODE:NOROOT(0)
//  354 void gp_endpointInit(void)
gp_endpointInit:
          CFI Block cfiBlock0 Using cfiCommon0
          CFI Function gp_endpointInit
        CODE
//  355 {
        FUNCALL gp_endpointInit, bdb_RegisterSimpleDescriptor
        LOCFRAME ISTACK, 2, STACK
        LOCFRAME PSTACK, 0, STACK
        LOCFRAME XSTACK, 0, STACK
        LOCFRAME IOVERLAY, 0, STATIC
        LOCFRAME DOVERLAY, 0, STATIC
        ARGFRAME ISTACK, 2, STACK
        ARGFRAME PSTACK, 0, STACK
        ARGFRAME XSTACK, 0, STACK
        ARGFRAME IOVERLAY, 0, STATIC
        ARGFRAME DOVERLAY, 0, STATIC
        FUNCALL gp_endpointInit, zclGp_RegisterCmdCallbacks
        LOCFRAME ISTACK, 2, STACK
        LOCFRAME PSTACK, 0, STACK
        LOCFRAME XSTACK, 0, STACK
        LOCFRAME IOVERLAY, 0, STATIC
        LOCFRAME DOVERLAY, 0, STATIC
        ARGFRAME ISTACK, 2, STACK
        ARGFRAME PSTACK, 0, STACK
        ARGFRAME XSTACK, 0, STACK
        ARGFRAME IOVERLAY, 0, STATIC
        ARGFRAME DOVERLAY, 0, STATIC
        FUNCALL gp_endpointInit, zcl_registerAttrList
        LOCFRAME ISTACK, 2, STACK
        LOCFRAME PSTACK, 0, STACK
        LOCFRAME XSTACK, 0, STACK
        LOCFRAME IOVERLAY, 0, STATIC
        LOCFRAME DOVERLAY, 0, STATIC
        ARGFRAME ISTACK, 2, STACK
        ARGFRAME PSTACK, 0, STACK
        ARGFRAME XSTACK, 0, STACK
        ARGFRAME IOVERLAY, 0, STATIC
        ARGFRAME DOVERLAY, 0, STATIC
        FUNCALL gp_endpointInit, zcl_registerReadWriteCB
        LOCFRAME ISTACK, 2, STACK
        LOCFRAME PSTACK, 0, STACK
        LOCFRAME XSTACK, 0, STACK
        LOCFRAME IOVERLAY, 0, STATIC
        LOCFRAME DOVERLAY, 0, STATIC
        ARGFRAME ISTACK, 2, STACK
        ARGFRAME PSTACK, 0, STACK
        ARGFRAME XSTACK, 0, STACK
        ARGFRAME IOVERLAY, 0, STATIC
        ARGFRAME DOVERLAY, 0, STATIC
        FUNCALL gp_endpointInit, gp_ProxyTblInit
        LOCFRAME ISTACK, 2, STACK
        LOCFRAME PSTACK, 0, STACK
        LOCFRAME XSTACK, 0, STACK
        LOCFRAME IOVERLAY, 0, STATIC
        LOCFRAME DOVERLAY, 0, STATIC
        ARGFRAME ISTACK, 2, STACK
        ARGFRAME PSTACK, 0, STACK
        ARGFRAME XSTACK, 0, STACK
        ARGFRAME IOVERLAY, 0, STATIC
        ARGFRAME DOVERLAY, 0, STATIC
        PUSH      DPL
          CFI DPL0 Frame(CFA_SP, 4)
          CFI CFA_SP SP+-4
        PUSH      DPH
          CFI DPH0 Frame(CFA_SP, 5)
          CFI CFA_SP SP+-5
        ; Saved register size: 2
        ; Auto size: 0
//  356 
//  357   bdb_RegisterSimpleDescriptor( &greenPower_EP_SimpleDesc );
        ; Setup parameters for call to function bdb_RegisterSimpleDescriptor
        MOV       R2,#greenPower_EP_SimpleDesc & 0xff
        MOV       R3,#(greenPower_EP_SimpleDesc >> 8) & 0xff
        LCALL     `??bdb_RegisterSimpleDescriptor::?relay`; Banked call to: bdb_RegisterSimpleDescriptor
//  358   
//  359   zclGp_RegisterCmdCallbacks( GREEN_POWER_INTERNAL_ENDPOINT, &zclGpProxy_CmdCallbacks );
        ; Setup parameters for call to function zclGp_RegisterCmdCallbacks
        MOV       R2,#zclGpProxy_CmdCallbacks & 0xff
        MOV       R3,#(zclGpProxy_CmdCallbacks >> 8) & 0xff
        MOV       R1,#-0xe
        LCALL     `??zclGp_RegisterCmdCallbacks::?relay`; Banked call to: zclGp_RegisterCmdCallbacks
//  360   
//  361   // Register the application's attribute list
//  362   zcl_registerAttrList( GREEN_POWER_INTERNAL_ENDPOINT, zclGp_NumAttributes, zclGp_Attrs );
        ; Setup parameters for call to function zcl_registerAttrList
        MOV       R4,#zclGp_Attrs & 0xff
        MOV       R5,#(zclGp_Attrs >> 8) & 0xff
        MOV       R2,#0xc
        MOV       R1,#-0xe
        LCALL     `??zcl_registerAttrList::?relay`; Banked call to: zcl_registerAttrList
//  363   
//  364   zcl_registerReadWriteCB( GREEN_POWER_INTERNAL_ENDPOINT, zclGpp_ReadWriteAttrCB, NULL );
        ; Setup parameters for call to function zcl_registerReadWriteCB
        MOV       R4,#0x0
        MOV       R5,#0x0
        MOV       R2,#`??zclGpp_ReadWriteAttrCB::?relay` & 0xff
        MOV       R3,#(`??zclGpp_ReadWriteAttrCB::?relay` >> 8) & 0xff
        MOV       R1,#-0xe
        LCALL     `??zcl_registerReadWriteCB::?relay`; Banked call to: zcl_registerReadWriteCB
//  365   
//  366   gp_ProxyTblInit( FALSE );
        ; Setup parameters for call to function gp_ProxyTblInit
        MOV       R1,#0x0
        LCALL     `??gp_ProxyTblInit::?relay`; Banked call to: gp_ProxyTblInit
//  367 
//  368 }
        SJMP      ??Subroutine55_0
          CFI EndBlock cfiBlock0
//  369 
//  370 /*********************************************************************
//  371  * @fn      gp_stopCommissioningMode
//  372  *
//  373  * @brief   Stops the commissioning mode
//  374  *
//  375  * @param   none
//  376  *
//  377  * @return  none
//  378  */

        RSEG BANKED_CODE:HUGECODE:NOROOT(0)
//  379 void gp_stopCommissioningMode(void)
gp_stopCommissioningMode:
          CFI Block cfiBlock1 Using cfiCommon0
          CFI Function gp_stopCommissioningMode
        CODE
//  380 {
        FUNCALL gp_stopCommissioningMode, osal_stop_timerEx
        LOCFRAME ISTACK, 2, STACK
        LOCFRAME PSTACK, 0, STACK
        LOCFRAME XSTACK, 0, STACK
        LOCFRAME IOVERLAY, 0, STATIC
        LOCFRAME DOVERLAY, 0, STATIC
        ARGFRAME ISTACK, 2, STACK
        ARGFRAME PSTACK, 0, STACK
        ARGFRAME XSTACK, 0, STACK
        ARGFRAME IOVERLAY, 0, STATIC
        ARGFRAME DOVERLAY, 0, STATIC
        FUNCALL gp_stopCommissioningMode, gp_FreeGpTxQueue
        LOCFRAME ISTACK, 2, STACK
        LOCFRAME PSTACK, 0, STACK
        LOCFRAME XSTACK, 0, STACK
        LOCFRAME IOVERLAY, 0, STATIC
        LOCFRAME DOVERLAY, 0, STATIC
        ARGFRAME ISTACK, 2, STACK
        ARGFRAME PSTACK, 0, STACK
        ARGFRAME XSTACK, 0, STACK
        ARGFRAME IOVERLAY, 0, STATIC
        ARGFRAME DOVERLAY, 0, STATIC
        PUSH      DPL
          CFI DPL0 Frame(CFA_SP, 4)
          CFI CFA_SP SP+-4
        PUSH      DPH
          CFI DPH0 Frame(CFA_SP, 5)
          CFI CFA_SP SP+-5
        ; Saved register size: 2
        ; Auto size: 0
//  381   //Callback to notify about the end of the commissioning mode
//  382   gp_commissioningOptions = 0;
        MOV       DPTR,#gp_commissioningOptions
        CLR       A
        MOVX      @DPTR,A
//  383   zgGP_InCommissioningMode = FALSE;
        MOV       DPTR,#zgGP_InCommissioningMode
        MOVX      @DPTR,A
//  384   gp_commissionerAddress = 0xFFFF;
        MOV       DPTR,#gp_commissionerAddress
        MOV       A,#-0x1
        MOVX      @DPTR,A
        INC       DPTR
        MOVX      @DPTR,A
//  385   osal_stop_timerEx(gp_TaskID,GP_COMMISSIONING_WINDOW_TIMEOUT);
        ; Setup parameters for call to function osal_stop_timerEx
        MOV       R2,#0x4
        MOV       R3,#0x0
        MOV       DPTR,#gp_TaskID
        MOVX      A,@DPTR
        MOV       R1,A
        LCALL     `??osal_stop_timerEx::?relay`; Banked call to: osal_stop_timerEx
//  386   
//  387   //Release the gpTxQueue, proxy does not support bidirectional communication on operational mode
//  388   //A.3.2.8
//  389   gp_FreeGpTxQueue();
        ; Setup parameters for call to function gp_FreeGpTxQueue
        LCALL     `??gp_FreeGpTxQueue::?relay`; Banked call to: gp_FreeGpTxQueue
//  390   
//  391   //Notify the user that we have exited the commissioning mode
//  392   if(pfnCommissioningMode)
        LCALL     ?Subroutine22 & 0xFFFF
??CrossCallReturnLabel_177:
        JZ        ??gp_stopCommissioningMode_0
//  393   {
//  394     pfnCommissioningMode(FALSE);
        ; Setup parameters for indirect call
        MOV       R1,#0x0
        LCALL     ??Subroutine64_0 & 0xFFFF
//  395   }
??CrossCallReturnLabel_128:
        LCALL     ?CALL_IND
//  396 }
??gp_stopCommissioningMode_0:
        SJMP      ??Subroutine55_0
          CFI EndBlock cfiBlock1

        RSEG BANKED_CODE:HUGECODE:NOROOT(0)
?Subroutine0:
          CFI Block cfiBlock2 Using cfiCommon0
          CFI NoFunction
          CFI CFA_SP SP+-5
          CFI CFA_XSP16 add(XSP16, 53)
          CFI DPL0 Frame(CFA_SP, 4)
          CFI DPH0 Frame(CFA_SP, 5)
          CFI Invalid
        LCALL     ?DEALLOC_XSTACK8
          CFI EndBlock cfiBlock2
        REQUIRE ??Subroutine55_0
        ; // Fall through to label ??Subroutine55_0

        RSEG BANKED_CODE:HUGECODE:NOROOT(0)
??Subroutine55_0:
          CFI Block cfiBlock3 Using cfiCommon0
          CFI NoFunction
          CFI CFA_SP SP+-5
          CFI DPL0 Frame(CFA_SP, 4)
          CFI DPH0 Frame(CFA_SP, 5)
        POP       DPH
          CFI CFA_SP SP+-4
          CFI DPH0 SameValue
        POP       DPL
          CFI CFA_SP SP+-3
          CFI DPL0 SameValue
        LJMP      ?BRET
          CFI EndBlock cfiBlock3
//  397 
//  398 /*********************************************************************
//  399  * @fn      zclGp_ManteinanceIndParse
//  400  *
//  401  * @brief   Parse the Gp Manteinance indication to Gp Notification command
//  402  *
//  403  * @param   pInd - Pointer to the incoming data
//  404  *
//  405  * @return  ZStatus_t
//  406  */

        RSEG BANKED_CODE:HUGECODE:NOROOT(0)
//  407 ZStatus_t zclGp_ManteinanceIndParse( gp_DataInd_t *pInd, gpCommissioningNotificationCmd_t *pGpNotification )
zclGp_ManteinanceIndParse:
          CFI Block cfiBlock4 Using cfiCommon0
          CFI Function zclGp_ManteinanceIndParse
        CODE
//  408 {
        FUNCALL zclGp_ManteinanceIndParse, osal_memcpy
        LOCFRAME ISTACK, 0, STACK
        LOCFRAME PSTACK, 0, STACK
        LOCFRAME XSTACK, 21, STACK
        LOCFRAME IOVERLAY, 0, STATIC
        LOCFRAME DOVERLAY, 0, STATIC
        ARGFRAME ISTACK, 0, STACK
        ARGFRAME PSTACK, 0, STACK
        ARGFRAME XSTACK, 21, STACK
        ARGFRAME IOVERLAY, 0, STATIC
        ARGFRAME DOVERLAY, 0, STATIC
        REQUIRE ?V0
        REQUIRE ?V1
        REQUIRE ?V2
        REQUIRE ?V4
        REQUIRE ?V5
        REQUIRE ?V6
        REQUIRE ?V7
        MOV       A,#-0x10
        LCALL     ?BANKED_ENTER_XDATA
          CFI DPH0 load(1, XDATA, add(CFA_XSP16, literal(-1)))
          CFI DPL0 load(1, XDATA, add(CFA_XSP16, literal(-2)))
          CFI ?BRET_EXT load(1, XDATA, add(CFA_XSP16, literal(-3)))
          CFI ?RET_HIGH load(1, XDATA, add(CFA_XSP16, literal(-4)))
          CFI ?RET_LOW load(1, XDATA, add(CFA_XSP16, literal(-5)))
          CFI R7 load(1, XDATA, add(CFA_XSP16, literal(-6)))
          CFI V7 load(1, XDATA, add(CFA_XSP16, literal(-7)))
          CFI V6 load(1, XDATA, add(CFA_XSP16, literal(-8)))
          CFI V5 load(1, XDATA, add(CFA_XSP16, literal(-9)))
          CFI V4 load(1, XDATA, add(CFA_XSP16, literal(-10)))
          CFI V3 load(1, XDATA, add(CFA_XSP16, literal(-11)))
          CFI V2 load(1, XDATA, add(CFA_XSP16, literal(-12)))
          CFI V1 load(1, XDATA, add(CFA_XSP16, literal(-13)))
          CFI V0 load(1, XDATA, add(CFA_XSP16, literal(-14)))
          CFI VB load(1, XDATA, add(CFA_XSP16, literal(-15)))
          CFI R6 load(1, XDATA, add(CFA_XSP16, literal(-16)))
          CFI CFA_SP SP+0
          CFI CFA_XSP16 add(XSP16, 16)
        ; Saved register size: 16
        ; Auto size: 2
        MOV       A,#-0x2
        LCALL     ?ALLOC_XSTACK8
          CFI CFA_XSP16 add(XSP16, 18)
        MOV       A,R2
        MOV       R6,A
        MOV       A,R3
        MOV       R7,A
        MOV       ?V4,R4
        MOV       ?V5,R5
//  409   uint8 currEntry[PROXY_TBL_ENTRY_LEN] = PROXY_BASIC_TBL_EMPTY_ENTRY;
//  410   uint8  ntfOpt[2] = {0x00, 0x00};
        MOV       DPTR,#`?<Constant {0, 0}>`
        MOV       R4,?XSP + 0
        MOV       R5,?XSP + 1
        MOV       A,#0x2
        LCALL     ?MOVE_LONG8_XDATA_XDATA
//  411   int8 RSSI;
//  412   uint8 LQI;
//  413   
//  414   if ( pInd->GPDCmmdID != GP_CHANNEL_REQ_COMMAND_ID )
        MOV       A,R6
        ADD       A,#0x2a
        LCALL     ?Subroutine40 & 0xFFFF
??CrossCallReturnLabel_60:
        XRL       A,#0xe3
        JZ        ??zclGp_ManteinanceIndParse_0
//  415   {
//  416     if ( PROXY_TBL_COMP_APPLICTION_ID( pInd->appID, GP_OPT_APP_ID_GPD ) )
        LCALL     ?Subroutine39 & 0xFFFF
??CrossCallReturnLabel_153:
        ANL       A,#0x7
        MOV       R0,A
        JNZ       ??zclGp_ManteinanceIndParse_1
//  417     {
//  418       pGpNotification->gpdId = pInd->SrcId;
        LCALL     ?Subroutine38 & 0xFFFF
??CrossCallReturnLabel_57:
        LCALL     ?XLOAD_R0123
        MOV       DPL,?V4
        MOV       DPH,?V5
        INC       DPTR
        INC       DPTR
        LCALL     ?XSTORE_R0123
//  419       ntfOpt[0] = GP_OPT_APP_ID_GPD;
        MOV       DPL,?XSP + 0
        MOV       DPH,?XSP + 1
        CLR       A
        SJMP      ??zclGp_ManteinanceIndParse_2
//  420     }
//  421     else if ( PROXY_TBL_COMP_APPLICTION_ID( pInd->appID, GP_OPT_APP_ID_IEEE ) )
??zclGp_ManteinanceIndParse_1:
        MOV       A,#0x2
        XRL       A,R0
        JNZ       ??zclGp_ManteinanceIndParse_0
//  422     {
//  423       osal_memcpy( pGpNotification->gpdIEEE, &(pInd->srcAddr.addr.extAddr), Z_EXTADDR_LEN );
        ; Setup parameters for call to function osal_memcpy
        LCALL     ?Subroutine37 & 0xFFFF
??CrossCallReturnLabel_156:
        LCALL     ?PUSH_XSTACK_I_THREE
          CFI CFA_XSP16 add(XSP16, 21)
        MOV       R4,#0x8
        MOV       R5,#0x0
        MOV       A,?V4
        ADD       A,#0x6
        MOV       R2,A
        CLR       A
        ADDC      A,?V5
        MOV       R3,A
        LCALL     `??osal_memcpy::?relay`; Banked call to: osal_memcpy
        MOV       A,#0x3
        LCALL     ?DEALLOC_XSTACK8
          CFI CFA_XSP16 add(XSP16, 18)
//  424       pGpNotification->ep = pInd->EndPoint;
        MOV       A,R6
        ADD       A,#0x25
        LCALL     ??Subroutine66_0 & 0xFFFF
//  425       ntfOpt[0] = GP_OPT_APP_ID_IEEE;
//  426     }
//  427   }
??CrossCallReturnLabel_146:
        PUSH      A
          CFI CFA_SP SP+-1
        MOV       A,?V4
        ADD       A,#0xe
        LCALL     ?Subroutine46 & 0xFFFF
??CrossCallReturnLabel_73:
        POP       A
          CFI CFA_SP SP+0
        LCALL     ?Subroutine10 & 0xFFFF
??CrossCallReturnLabel_12:
        MOV       A,#0x2
??zclGp_ManteinanceIndParse_2:
        MOVX      @DPTR,A
//  428   
//  429   // Set the options bit field
//  430   ( pInd->RxAfterTx == TRUE ) ?PROXY_TBL_SET_RX_AFTER_TX( ( uint8* )&ntfOpt[0] ) : PROXY_TBL_CLR_RX_AFTER_TX( ( uint8* )&ntfOpt[0] );
??zclGp_ManteinanceIndParse_0:
        MOV       A,R6
        ADD       A,#0x20
        LCALL     ??Subroutine66_0 & 0xFFFF
??CrossCallReturnLabel_147:
        XRL       A,#0x1
        MOV       DPL,?XSP + 0
        MOV       DPH,?XSP + 1
        JNZ       ??zclGp_ManteinanceIndParse_3
        MOVX      A,@DPTR
        SETB      0xE0 /* A   */.3
        SJMP      ??zclGp_ManteinanceIndParse_4
??zclGp_ManteinanceIndParse_3:
        MOVX      A,@DPTR
        CLR       0xE0 /* A   */.3
??zclGp_ManteinanceIndParse_4:
        MOVX      @DPTR,A
//  431   GP_CNTF_SET_SEC_LEVEL( ( uint8* )&ntfOpt[0], currEntry[PROXY_TBL_ENTRY_SEC_OPT] );
        MOVX      A,@DPTR
        ORL       A,#0x30
        MOVX      @DPTR,A
//  432   GP_CNTF_SET_SEC_KEY_TYPE( ( uint16* )ntfOpt, currEntry[PROXY_TBL_ENTRY_SEC_OPT] );
        ORL       A,#0xc0
        MOV       R0,A
        INC       DPTR
        MOVX      A,@DPTR
        ORL       A,#0x1
        MOV       R1,A
        MOV       DPL,?XSP + 0
        MOV       DPH,?XSP + 1
        LCALL     ??Subroutine65_0 & 0xFFFF
//  433   if( pInd->status == GP_DATA_IND_STATUS_AUTH_FAILURE )
??CrossCallReturnLabel_138:
        MOV       A,?V4
        ADD       A,#0x1a
        MOV       R0,A
        CLR       A
        ADDC      A,?V5
        MOV       R1,A
        MOV       A,R0
        MOV       R4,A
        MOV       A,R1
        MOV       R5,A
        MOV       A,R6
        ADD       A,#0xd
        LCALL     ??Subroutine66_0 & 0xFFFF
??CrossCallReturnLabel_148:
        XRL       A,#0x3
        JNZ       ??zclGp_ManteinanceIndParse_5
//  434   {
//  435     GP_CNTF_SET_SEC_FAIL( ( uint8* )&ntfOpt[1] );
        MOV       A,#0x1
        LCALL     ?XSTACK_DISP0_8
        MOVX      A,@DPTR
        SETB      0xE0 /* A   */.1
        MOVX      @DPTR,A
//  436     pGpNotification->mic = pInd->MIC;
        MOV       A,R6
        ADD       A,#0x2b
        MOV       DPL,A
        CLR       A
        ADDC      A,R7
        MOV       DPH,A
        LCALL     ?XLOAD_R0123
        MOV       DPL,R4
        MOV       DPH,R5
        LCALL     ?XSTORE_R0123
        SJMP      ??CrossCallReturnLabel_98
//  437   }
//  438   else
//  439   {
//  440     GP_CNTF_CLR_SEC_FAIL( ( uint8* )&ntfOpt[1] );
??zclGp_ManteinanceIndParse_5:
        MOV       A,#0x1
        LCALL     ?XSTACK_DISP0_8
        MOVX      A,@DPTR
        CLR       0xE0 /* A   */.1
        MOVX      @DPTR,A
//  441     pGpNotification->mic = 0xFFFFFFFF;
        MOV       DPL,R4
        MOV       DPH,R5
        LCALL     ?Subroutine14 & 0xFFFF
//  442   }
//  443   GP_CNTF_SET_BIDIRECTIONAL_CAP( ( uint8* )&ntfOpt[1] );
//  444 
//  445   GP_CNTF_SET_PROXY_INFO( ( uint8* )&ntfOpt[1] );
??CrossCallReturnLabel_98:
        MOV       A,#0x1
        LCALL     ?XSTACK_DISP0_8
        MOVX      A,@DPTR
        ORL       A,#0xc
        LCALL     ?Subroutine8 & 0xFFFF
//  446   
//  447   pGpNotification->options |= ( ( ntfOpt[0] ) & 0x00FF );
//  448   pGpNotification->options |= ( ( ( ntfOpt[1] ) <<  8 ) & 0xFF00 );
??CrossCallReturnLabel_7:
        MOV       R2,A
        MOV       A,#0x1
        LCALL     ?XSTACK_DISP0_8
        MOVX      A,@DPTR
        MOV       R1,A
        MOV       A,R2
        MOV       R0,A
        MOV       DPL,?V4
        MOV       DPH,?V5
        MOVX      A,@DPTR
        ORL       A,R0
        MOVX      @DPTR,A
        INC       DPTR
        MOVX      A,@DPTR
        ORL       A,R1
        MOVX      @DPTR,A
//  449   
//  450   pGpNotification->gpdSecCounter = pInd->GPDSecFrameCounter;
        LCALL     ?Subroutine45 & 0xFFFF
??CrossCallReturnLabel_70:
        LCALL     ?XLOAD_R0123
        MOV       A,?V4
        ADD       A,#0xf
        LCALL     ?Subroutine46 & 0xFFFF
??CrossCallReturnLabel_74:
        LCALL     ?XSTORE_R0123
//  451   pGpNotification->cmdId = pInd->GPDCmmdID;
        MOV       DPL,?V6
        MOV       DPH,?V7
        MOVX      A,@DPTR
        PUSH      A
          CFI CFA_SP SP+-1
        MOV       A,?V4
        ADD       A,#0x13
        LCALL     ?Subroutine46 & 0xFFFF
??CrossCallReturnLabel_75:
        POP       A
          CFI CFA_SP SP+0
        MOVX      @DPTR,A
//  452 
//  453   if ( pInd->GPDasduLength > 0 )
        MOV       A,R6
        ADD       A,#0x2f
        LCALL     ??Subroutine66_0 & 0xFFFF
??CrossCallReturnLabel_149:
        JZ        ??CrossCallReturnLabel_139
//  454   {
//  455     pGpNotification->payloadLen = pInd->GPDasduLength;
        PUSH      A
          CFI CFA_SP SP+-1
        MOV       A,?V4
        ADD       A,#0x14
        LCALL     ?Subroutine46 & 0xFFFF
??CrossCallReturnLabel_76:
        POP       A
          CFI CFA_SP SP+0
        MOVX      @DPTR,A
//  456     pGpNotification->cmdPayload = pInd->GPDasdu;
        MOV       A,R6
        ADD       A,#0x30
        MOV       R0,A
        CLR       A
        ADDC      A,R7
        MOV       R1,A
        MOV       A,?V4
        ADD       A,#0x15
        LCALL     ?Subroutine46 & 0xFFFF
//  457   }
??CrossCallReturnLabel_77:
        LCALL     ??Subroutine65_0 & 0xFFFF
//  458   
//  459   pGpNotification->gppShortAddr = _NIB.nwkDevAddress;
??CrossCallReturnLabel_139:
        LCALL     ?Subroutine31 & 0xFFFF
??CrossCallReturnLabel_106:
        MOV       A,?V4
        ADD       A,#0x17
        LCALL     ?Subroutine46 & 0xFFFF
??CrossCallReturnLabel_78:
        MOV       A,R0
        MOVX      @DPTR,A
        INC       DPTR
        MOV       A,R1
        LCALL     ?Subroutine11 & 0xFFFF
//  460   
//  461   RSSI = pInd->Rssi;
??CrossCallReturnLabel_15:
        LCALL     ?Subroutine28 & 0xFFFF
//  462   ( RSSI > 8 ) ?RSSI = 8 : ( RSSI < -109 ) ?RSSI = -109 : NULL;
??CrossCallReturnLabel_39:
        JC        ??zclGp_ManteinanceIndParse_6
        MOV       R0,#0x3b
        SJMP      ??zclGp_ManteinanceIndParse_7
??zclGp_ManteinanceIndParse_6:
        MOV       A,R0
        CLR       C
        SUBB      A,#-0x6d
        MOV       C,0xD0 /* PSW */.2
        XRL       A,PSW
        RLC       A
        JNC       ??zclGp_ManteinanceIndParse_8
        MOV       R0,#0x0
        SJMP      ??zclGp_ManteinanceIndParse_7
??zclGp_ManteinanceIndParse_8:
        MOV       A,#0x6e
        ADD       A,R0
        MOV       B,#0x2
        LCALL     ?SC_DIV_MOD
        MOV       R0,A
//  463   RSSI += 110;
//  464   RSSI /= 2;
//  465   
//  466   ( pInd->LinkQuality == 0 ) ?LQI = 0 : ( pInd->LinkQuality > 0 ) ?LQI = 2 : NULL;
??zclGp_ManteinanceIndParse_7:
        MOV       A,R6
        ADD       A,#0xf
        LCALL     ??Subroutine66_0 & 0xFFFF
??CrossCallReturnLabel_150:
        JNZ       ??zclGp_ManteinanceIndParse_9
        MOV       R1,#0x0
        SJMP      ??zclGp_ManteinanceIndParse_10
??zclGp_ManteinanceIndParse_9:
        MOV       R1,#0x2
//  467   
//  468   pGpNotification->gppGpdLink = RSSI;
//  469   pGpNotification->gppGpdLink |= ( LQI << 6 );
??zclGp_ManteinanceIndParse_10:
        MOV       A,R1
        SWAP      A
        RLC       A
        RLC       A
        ANL       A,#0xc0
        ORL       A,R0
        PUSH      A
          CFI CFA_SP SP+-1
        MOV       A,?V4
        ADD       A,#0x19
        LCALL     ?Subroutine46 & 0xFFFF
??CrossCallReturnLabel_79:
        POP       A
          CFI CFA_SP SP+0
        MOVX      @DPTR,A
//  470     
//  471   return SUCCESS;
        MOV       R1,#0x0
        MOV       A,#0x2
        LJMP      ?Subroutine1 & 0xFFFF
//  472 }
          CFI EndBlock cfiBlock4

        RSEG BANKED_CODE:HUGECODE:NOROOT(0)
?Subroutine14:
          CFI Block cfiCond5 Using cfiCommon0
          CFI Function zclGp_ManteinanceIndParse
          CFI Conditional ??CrossCallReturnLabel_98
          CFI R6 load(1, XDATA, add(CFA_XSP16, literal(-16)))
          CFI VB load(1, XDATA, add(CFA_XSP16, literal(-15)))
          CFI V0 load(1, XDATA, add(CFA_XSP16, literal(-14)))
          CFI V1 load(1, XDATA, add(CFA_XSP16, literal(-13)))
          CFI V2 load(1, XDATA, add(CFA_XSP16, literal(-12)))
          CFI V3 load(1, XDATA, add(CFA_XSP16, literal(-11)))
          CFI V4 load(1, XDATA, add(CFA_XSP16, literal(-10)))
          CFI V5 load(1, XDATA, add(CFA_XSP16, literal(-9)))
          CFI V6 load(1, XDATA, add(CFA_XSP16, literal(-8)))
          CFI V7 load(1, XDATA, add(CFA_XSP16, literal(-7)))
          CFI R7 load(1, XDATA, add(CFA_XSP16, literal(-6)))
          CFI ?RET_LOW load(1, XDATA, add(CFA_XSP16, literal(-5)))
          CFI ?RET_HIGH load(1, XDATA, add(CFA_XSP16, literal(-4)))
          CFI ?BRET_EXT load(1, XDATA, add(CFA_XSP16, literal(-3)))
          CFI DPL0 load(1, XDATA, add(CFA_XSP16, literal(-2)))
          CFI DPH0 load(1, XDATA, add(CFA_XSP16, literal(-1)))
          CFI CFA_SP SP+-2
          CFI CFA_XSP16 add(XSP16, 18)
          CFI Block cfiCond6 Using cfiCommon0
          CFI (cfiCond6) Function gp_ZclPairingParse
          CFI (cfiCond6) Conditional ??CrossCallReturnLabel_99
          CFI (cfiCond6) R6 load(1, XDATA, add(CFA_XSP16, literal(-16)))
          CFI (cfiCond6) VB load(1, XDATA, add(CFA_XSP16, literal(-15)))
          CFI (cfiCond6) V0 load(1, XDATA, add(CFA_XSP16, literal(-14)))
          CFI (cfiCond6) V1 load(1, XDATA, add(CFA_XSP16, literal(-13)))
          CFI (cfiCond6) V2 load(1, XDATA, add(CFA_XSP16, literal(-12)))
          CFI (cfiCond6) V3 load(1, XDATA, add(CFA_XSP16, literal(-11)))
          CFI (cfiCond6) V4 load(1, XDATA, add(CFA_XSP16, literal(-10)))
          CFI (cfiCond6) V5 load(1, XDATA, add(CFA_XSP16, literal(-9)))
          CFI (cfiCond6) V6 load(1, XDATA, add(CFA_XSP16, literal(-8)))
          CFI (cfiCond6) V7 load(1, XDATA, add(CFA_XSP16, literal(-7)))
          CFI (cfiCond6) R7 load(1, XDATA, add(CFA_XSP16, literal(-6)))
          CFI (cfiCond6) ?RET_LOW load(1, XDATA, add(CFA_XSP16, literal(-5)))
          CFI (cfiCond6) ?RET_HIGH load(1, XDATA, add(CFA_XSP16, literal(-4)))
          CFI (cfiCond6) ?BRET_EXT load(1, XDATA, add(CFA_XSP16, literal(-3)))
          CFI (cfiCond6) DPL0 load(1, XDATA, add(CFA_XSP16, literal(-2)))
          CFI (cfiCond6) DPH0 load(1, XDATA, add(CFA_XSP16, literal(-1)))
          CFI (cfiCond6) CFA_SP SP+-2
          CFI (cfiCond6) CFA_XSP16 add(XSP16, 81)
          CFI Block cfiCond7 Using cfiCommon0
          CFI (cfiCond7) Function gp_ZclProxyTableReqParse
          CFI (cfiCond7) Conditional ??CrossCallReturnLabel_100
          CFI (cfiCond7) R6 load(1, XDATA, add(CFA_XSP16, literal(-14)))
          CFI (cfiCond7) VB load(1, XDATA, add(CFA_XSP16, literal(-13)))
          CFI (cfiCond7) V0 load(1, XDATA, add(CFA_XSP16, literal(-12)))
          CFI (cfiCond7) V1 load(1, XDATA, add(CFA_XSP16, literal(-11)))
          CFI (cfiCond7) V2 load(1, XDATA, add(CFA_XSP16, literal(-10)))
          CFI (cfiCond7) V3 load(1, XDATA, add(CFA_XSP16, literal(-9)))
          CFI (cfiCond7) V4 load(1, XDATA, add(CFA_XSP16, literal(-8)))
          CFI (cfiCond7) V5 load(1, XDATA, add(CFA_XSP16, literal(-7)))
          CFI (cfiCond7) R7 load(1, XDATA, add(CFA_XSP16, literal(-6)))
          CFI (cfiCond7) ?RET_LOW load(1, XDATA, add(CFA_XSP16, literal(-5)))
          CFI (cfiCond7) ?RET_HIGH load(1, XDATA, add(CFA_XSP16, literal(-4)))
          CFI (cfiCond7) ?BRET_EXT load(1, XDATA, add(CFA_XSP16, literal(-3)))
          CFI (cfiCond7) DPL0 load(1, XDATA, add(CFA_XSP16, literal(-2)))
          CFI (cfiCond7) DPH0 load(1, XDATA, add(CFA_XSP16, literal(-1)))
          CFI (cfiCond7) CFA_SP SP+-2
          CFI (cfiCond7) CFA_XSP16 add(XSP16, 14)
          CFI Block cfiPicker8 Using cfiCommon1
          CFI (cfiPicker8) NoFunction
          CFI (cfiPicker8) Picker
        MOV       A,#-0x1
          CFI EndBlock cfiCond5
          CFI EndBlock cfiCond6
          CFI EndBlock cfiCond7
          CFI EndBlock cfiPicker8
        REQUIRE ??Subroutine56_0
        ; // Fall through to label ??Subroutine56_0

        RSEG BANKED_CODE:HUGECODE:NOROOT(0)
??Subroutine56_0:
          CFI Block cfiCond9 Using cfiCommon0
          CFI Function gp_ZclPairingParse
          CFI Conditional ??CrossCallReturnLabel_96
          CFI R6 load(1, XDATA, add(CFA_XSP16, literal(-16)))
          CFI VB load(1, XDATA, add(CFA_XSP16, literal(-15)))
          CFI V0 load(1, XDATA, add(CFA_XSP16, literal(-14)))
          CFI V1 load(1, XDATA, add(CFA_XSP16, literal(-13)))
          CFI V2 load(1, XDATA, add(CFA_XSP16, literal(-12)))
          CFI V3 load(1, XDATA, add(CFA_XSP16, literal(-11)))
          CFI V4 load(1, XDATA, add(CFA_XSP16, literal(-10)))
          CFI V5 load(1, XDATA, add(CFA_XSP16, literal(-9)))
          CFI V6 load(1, XDATA, add(CFA_XSP16, literal(-8)))
          CFI V7 load(1, XDATA, add(CFA_XSP16, literal(-7)))
          CFI R7 load(1, XDATA, add(CFA_XSP16, literal(-6)))
          CFI ?RET_LOW load(1, XDATA, add(CFA_XSP16, literal(-5)))
          CFI ?RET_HIGH load(1, XDATA, add(CFA_XSP16, literal(-4)))
          CFI ?BRET_EXT load(1, XDATA, add(CFA_XSP16, literal(-3)))
          CFI DPL0 load(1, XDATA, add(CFA_XSP16, literal(-2)))
          CFI DPH0 load(1, XDATA, add(CFA_XSP16, literal(-1)))
          CFI CFA_SP SP+-2
          CFI CFA_XSP16 add(XSP16, 81)
          CFI Block cfiCond10 Using cfiCommon0
          CFI (cfiCond10) Function gp_returnOperationalChannel
          CFI (cfiCond10) Conditional ??CrossCallReturnLabel_97
          CFI (cfiCond10) DPL0 Frame(CFA_SP, 4)
          CFI (cfiCond10) DPH0 Frame(CFA_SP, 5)
          CFI (cfiCond10) CFA_SP SP+-7
          CFI (cfiCond10) CFA_XSP16 add(XSP16, 21)
          CFI Block cfiCond11 Using cfiCommon0
          CFI (cfiCond11) Function zclGp_ManteinanceIndParse
          CFI (cfiCond11) Conditional ??CrossCallReturnLabel_98
          CFI (cfiCond11) R6 load(1, XDATA, add(CFA_XSP16, literal(-16)))
          CFI (cfiCond11) VB load(1, XDATA, add(CFA_XSP16, literal(-15)))
          CFI (cfiCond11) V0 load(1, XDATA, add(CFA_XSP16, literal(-14)))
          CFI (cfiCond11) V1 load(1, XDATA, add(CFA_XSP16, literal(-13)))
          CFI (cfiCond11) V2 load(1, XDATA, add(CFA_XSP16, literal(-12)))
          CFI (cfiCond11) V3 load(1, XDATA, add(CFA_XSP16, literal(-11)))
          CFI (cfiCond11) V4 load(1, XDATA, add(CFA_XSP16, literal(-10)))
          CFI (cfiCond11) V5 load(1, XDATA, add(CFA_XSP16, literal(-9)))
          CFI (cfiCond11) V6 load(1, XDATA, add(CFA_XSP16, literal(-8)))
          CFI (cfiCond11) V7 load(1, XDATA, add(CFA_XSP16, literal(-7)))
          CFI (cfiCond11) R7 load(1, XDATA, add(CFA_XSP16, literal(-6)))
          CFI (cfiCond11) ?RET_LOW load(1, XDATA, add(CFA_XSP16, literal(-5)))
          CFI (cfiCond11) ?RET_HIGH load(1, XDATA, add(CFA_XSP16, literal(-4)))
          CFI (cfiCond11) ?BRET_EXT load(1, XDATA, add(CFA_XSP16, literal(-3)))
          CFI (cfiCond11) DPL0 load(1, XDATA, add(CFA_XSP16, literal(-2)))
          CFI (cfiCond11) DPH0 load(1, XDATA, add(CFA_XSP16, literal(-1)))
          CFI (cfiCond11) CFA_SP SP+-2
          CFI (cfiCond11) CFA_XSP16 add(XSP16, 18)
          CFI Block cfiCond12 Using cfiCommon0
          CFI (cfiCond12) Function gp_ZclPairingParse
          CFI (cfiCond12) Conditional ??CrossCallReturnLabel_99
          CFI (cfiCond12) R6 load(1, XDATA, add(CFA_XSP16, literal(-16)))
          CFI (cfiCond12) VB load(1, XDATA, add(CFA_XSP16, literal(-15)))
          CFI (cfiCond12) V0 load(1, XDATA, add(CFA_XSP16, literal(-14)))
          CFI (cfiCond12) V1 load(1, XDATA, add(CFA_XSP16, literal(-13)))
          CFI (cfiCond12) V2 load(1, XDATA, add(CFA_XSP16, literal(-12)))
          CFI (cfiCond12) V3 load(1, XDATA, add(CFA_XSP16, literal(-11)))
          CFI (cfiCond12) V4 load(1, XDATA, add(CFA_XSP16, literal(-10)))
          CFI (cfiCond12) V5 load(1, XDATA, add(CFA_XSP16, literal(-9)))
          CFI (cfiCond12) V6 load(1, XDATA, add(CFA_XSP16, literal(-8)))
          CFI (cfiCond12) V7 load(1, XDATA, add(CFA_XSP16, literal(-7)))
          CFI (cfiCond12) R7 load(1, XDATA, add(CFA_XSP16, literal(-6)))
          CFI (cfiCond12) ?RET_LOW load(1, XDATA, add(CFA_XSP16, literal(-5)))
          CFI (cfiCond12) ?RET_HIGH load(1, XDATA, add(CFA_XSP16, literal(-4)))
          CFI (cfiCond12) ?BRET_EXT load(1, XDATA, add(CFA_XSP16, literal(-3)))
          CFI (cfiCond12) DPL0 load(1, XDATA, add(CFA_XSP16, literal(-2)))
          CFI (cfiCond12) DPH0 load(1, XDATA, add(CFA_XSP16, literal(-1)))
          CFI (cfiCond12) CFA_SP SP+-2
          CFI (cfiCond12) CFA_XSP16 add(XSP16, 81)
          CFI Block cfiCond13 Using cfiCommon0
          CFI (cfiCond13) Function gp_ZclProxyTableReqParse
          CFI (cfiCond13) Conditional ??CrossCallReturnLabel_100
          CFI (cfiCond13) R6 load(1, XDATA, add(CFA_XSP16, literal(-14)))
          CFI (cfiCond13) VB load(1, XDATA, add(CFA_XSP16, literal(-13)))
          CFI (cfiCond13) V0 load(1, XDATA, add(CFA_XSP16, literal(-12)))
          CFI (cfiCond13) V1 load(1, XDATA, add(CFA_XSP16, literal(-11)))
          CFI (cfiCond13) V2 load(1, XDATA, add(CFA_XSP16, literal(-10)))
          CFI (cfiCond13) V3 load(1, XDATA, add(CFA_XSP16, literal(-9)))
          CFI (cfiCond13) V4 load(1, XDATA, add(CFA_XSP16, literal(-8)))
          CFI (cfiCond13) V5 load(1, XDATA, add(CFA_XSP16, literal(-7)))
          CFI (cfiCond13) R7 load(1, XDATA, add(CFA_XSP16, literal(-6)))
          CFI (cfiCond13) ?RET_LOW load(1, XDATA, add(CFA_XSP16, literal(-5)))
          CFI (cfiCond13) ?RET_HIGH load(1, XDATA, add(CFA_XSP16, literal(-4)))
          CFI (cfiCond13) ?BRET_EXT load(1, XDATA, add(CFA_XSP16, literal(-3)))
          CFI (cfiCond13) DPL0 load(1, XDATA, add(CFA_XSP16, literal(-2)))
          CFI (cfiCond13) DPH0 load(1, XDATA, add(CFA_XSP16, literal(-1)))
          CFI (cfiCond13) CFA_SP SP+-2
          CFI (cfiCond13) CFA_XSP16 add(XSP16, 14)
          CFI Block cfiPicker14 Using cfiCommon1
          CFI (cfiPicker14) NoFunction
          CFI (cfiPicker14) Picker
        MOVX      @DPTR,A
        INC       DPTR
        MOVX      @DPTR,A
        INC       DPTR
        MOVX      @DPTR,A
        INC       DPTR
        MOVX      @DPTR,A
        RET
          CFI EndBlock cfiCond9
          CFI EndBlock cfiCond10
          CFI EndBlock cfiCond11
          CFI EndBlock cfiCond12
          CFI EndBlock cfiCond13
          CFI EndBlock cfiPicker14
//  473 
//  474 /*********************************************************************
//  475  * @fn      zclGp_DataIndParse
//  476  *
//  477 
//  478  * @brief   Parse the Gp Data indication to Gp Notification command
//  479  *
//  480  * @param   pInd - Pointer to the incoming data
//  481  *
//  482  * @return  ZStatus_t
//  483  */

        RSEG BANKED_CODE:HUGECODE:NOROOT(0)
//  484 ZStatus_t zclGp_DataIndParse( gp_DataInd_t *pInd, gpNotificationCmd_t *pGpNotification )
zclGp_DataIndParse:
          CFI Block cfiBlock15 Using cfiCommon0
          CFI Function zclGp_DataIndParse
        CODE
//  485 {
        FUNCALL zclGp_DataIndParse, gp_getProxyTableByIndex
        LOCFRAME ISTACK, 0, STACK
        LOCFRAME PSTACK, 0, STACK
        LOCFRAME XSTACK, 86, STACK
        LOCFRAME IOVERLAY, 0, STATIC
        LOCFRAME DOVERLAY, 0, STATIC
        ARGFRAME ISTACK, 0, STACK
        ARGFRAME PSTACK, 0, STACK
        ARGFRAME XSTACK, 86, STACK
        ARGFRAME IOVERLAY, 0, STATIC
        ARGFRAME DOVERLAY, 0, STATIC
        FUNCALL zclGp_DataIndParse, osal_memcmp
        LOCFRAME ISTACK, 0, STACK
        LOCFRAME PSTACK, 0, STACK
        LOCFRAME XSTACK, 89, STACK
        LOCFRAME IOVERLAY, 0, STATIC
        LOCFRAME DOVERLAY, 0, STATIC
        ARGFRAME ISTACK, 0, STACK
        ARGFRAME PSTACK, 0, STACK
        ARGFRAME XSTACK, 89, STACK
        ARGFRAME IOVERLAY, 0, STATIC
        ARGFRAME DOVERLAY, 0, STATIC
        FUNCALL zclGp_DataIndParse, osal_memcmp
        LOCFRAME ISTACK, 0, STACK
        LOCFRAME PSTACK, 0, STACK
        LOCFRAME XSTACK, 89, STACK
        LOCFRAME IOVERLAY, 0, STATIC
        LOCFRAME DOVERLAY, 0, STATIC
        ARGFRAME ISTACK, 0, STACK
        ARGFRAME PSTACK, 0, STACK
        ARGFRAME XSTACK, 89, STACK
        ARGFRAME IOVERLAY, 0, STATIC
        ARGFRAME DOVERLAY, 0, STATIC
        FUNCALL zclGp_DataIndParse, osal_memcpy
        LOCFRAME ISTACK, 0, STACK
        LOCFRAME PSTACK, 0, STACK
        LOCFRAME XSTACK, 89, STACK
        LOCFRAME IOVERLAY, 0, STATIC
        LOCFRAME DOVERLAY, 0, STATIC
        ARGFRAME ISTACK, 0, STACK
        ARGFRAME PSTACK, 0, STACK
        ARGFRAME XSTACK, 89, STACK
        ARGFRAME IOVERLAY, 0, STATIC
        ARGFRAME DOVERLAY, 0, STATIC
        REQUIRE ?V0
        REQUIRE ?V1
        REQUIRE ?V2
        REQUIRE ?V4
        REQUIRE ?V5
        REQUIRE ?V6
        MOV       A,#-0xf
        LCALL     ?BANKED_ENTER_XDATA
          CFI DPH0 load(1, XDATA, add(CFA_XSP16, literal(-1)))
          CFI DPL0 load(1, XDATA, add(CFA_XSP16, literal(-2)))
          CFI ?BRET_EXT load(1, XDATA, add(CFA_XSP16, literal(-3)))
          CFI ?RET_HIGH load(1, XDATA, add(CFA_XSP16, literal(-4)))
          CFI ?RET_LOW load(1, XDATA, add(CFA_XSP16, literal(-5)))
          CFI R7 load(1, XDATA, add(CFA_XSP16, literal(-6)))
          CFI V6 load(1, XDATA, add(CFA_XSP16, literal(-7)))
          CFI V5 load(1, XDATA, add(CFA_XSP16, literal(-8)))
          CFI V4 load(1, XDATA, add(CFA_XSP16, literal(-9)))
          CFI V3 load(1, XDATA, add(CFA_XSP16, literal(-10)))
          CFI V2 load(1, XDATA, add(CFA_XSP16, literal(-11)))
          CFI V1 load(1, XDATA, add(CFA_XSP16, literal(-12)))
          CFI V0 load(1, XDATA, add(CFA_XSP16, literal(-13)))
          CFI VB load(1, XDATA, add(CFA_XSP16, literal(-14)))
          CFI R6 load(1, XDATA, add(CFA_XSP16, literal(-15)))
          CFI CFA_SP SP+0
          CFI CFA_XSP16 add(XSP16, 15)
        ; Saved register size: 15
        ; Auto size: 71
        MOV       A,#-0x47
        LCALL     ?ALLOC_XSTACK8
          CFI CFA_XSP16 add(XSP16, 86)
        MOV       DPL,?XSP + 0
        MOV       DPH,?XSP + 1
        LCALL     ?Subroutine17 & 0xFFFF
??CrossCallReturnLabel_23:
        MOV       A,#0x2
        LCALL     ?XSTACK_DISP0_8
        MOV       A,R4
        MOVX      @DPTR,A
        INC       DPTR
        MOV       A,R5
        MOVX      @DPTR,A
//  486   uint8 currEntry[PROXY_TBL_ENTRY_LEN] = PROXY_BASIC_TBL_EMPTY_ENTRY;
        MOV       DPTR,#`?<Constant {255, 255, 255, 255, 255, 255, 255,`
        MOV       A,#0x6
        LCALL     ?XSTACK_DISP102_8
        MOV       A,#0x41
        LCALL     ?MOVE_LONG8_XDATA_XDATA
//  487   uint8  ntfOpt[2] = {0x00, 0x00};
        MOV       R6,#0x0
//  488   uint8 i;
//  489   int8 RSSI;
//  490   uint8 LQI;
//  491   uint8 status;
//  492   
//  493   for ( i = 0; i <= GPP_MAX_PROXY_TABLE_ENTRIES ; i++ )
        MOV       R7,#0x0
        MOV       DPL,?XSP + 0
        MOV       DPH,?XSP + 1
        MOVX      A,@DPTR
        ADD       A,#0x11
        LCALL     ?Subroutine32 & 0xFFFF
??CrossCallReturnLabel_45:
        MOV       ?V2,R6
        MOV       DPL,?XSP + 0
        MOV       DPH,?XSP + 1
        MOVX      A,@DPTR
        ADD       A,#0x21
        MOV       R0,A
        INC       DPTR
        MOVX      A,@DPTR
        ADDC      A,#0x0
        MOV       R1,A
        MOV       A,#0x4
        LCALL     ?XSTACK_DISP0_8
        LCALL     ??Subroutine65_0 & 0xFFFF
//  494   {
//  495     status = gp_getProxyTableByIndex( ( ZCD_NV_PROXY_TABLE_START + i ), currEntry );
??CrossCallReturnLabel_140:
        ; Setup parameters for call to function gp_getProxyTableByIndex
        MOV       A,#0x6
        LCALL     ?XSTACK_DISP102_8
        MOV       A,R7
        LCALL     ??Subroutine60_0 & 0xFFFF
??CrossCallReturnLabel_116:
        LCALL     `??gp_getProxyTableByIndex::?relay`; Banked call to: gp_getProxyTableByIndex
        MOV       A,R1
        MOV       R0,A
//  496 
//  497     if ( status == NV_OPER_FAILED )
        MOV       A,#0xa
        XRL       A,R0
        JNZ       ??zclGp_DataIndParse_0
//  498     {
//  499       return status;
        MOV       R1,#0xa
        LJMP      ??zclGp_DataIndParse_1 & 0xFFFF
//  500     }
//  501     
//  502     // if the entry is empty
//  503     if ( status == NV_INVALID_DATA )
??zclGp_DataIndParse_0:
        MOV       A,#0xd
        XRL       A,R0
        JNZ       $+5
        LJMP      ??zclGp_DataIndParse_2 & 0xFFFF
//  504     {
//  505       continue;
//  506     }
//  507   
//  508     if ( PROXY_TBL_COMP_APPLICTION_ID( pInd->appID, currEntry[PROXY_TBL_ENTRY_OPT] ) )
        LCALL     ?Subroutine23 & 0xFFFF
??CrossCallReturnLabel_113:
        ADD       A,#0x1c
        MOV       DPL,A
        CLR       A
        ADDC      A,R0
        MOV       DPH,A
        MOVX      A,@DPTR
        MOV       R0,A
        MOV       A,#0x7
        ANL       A,R0
        MOV       R1,A
        MOV       A,#0x6
        LCALL     ?XSTACK_DISP0_8
        MOVX      A,@DPTR
        ANL       A,#0x7
        XRL       A,R1
        JZ        $+5
        LJMP      ??zclGp_DataIndParse_2 & 0xFFFF
//  509     {
//  510       if ( pInd->appID == GP_OPT_APP_ID_GPD )
        MOV       A,R0
        JNZ       ??zclGp_DataIndParse_3
//  511       {
//  512         if ( osal_memcmp( &pInd->SrcId, &currEntry[PROXY_TBL_ENTRY_GPD_ID + 4], sizeof ( uint32 ) ) )
        ; Setup parameters for call to function osal_memcmp
        MOV       A,#0xc
        LCALL     ?XSTACK_DISP0_8
        MOV       R1,DPL
        MOV       R2,DPH
        MOV       ?V4,R1
        MOV       ?V5,R2
        MOV       ?V6,R6
        MOV       R0,#?V4
        LCALL     ?PUSH_XSTACK_I_THREE
          CFI CFA_XSP16 add(XSP16, 89)
        MOV       R4,#0x4
        MOV       R5,#0x0
        MOV       A,#0x7
        LCALL     ?XSTACK_DISP0_8
        LCALL     ?Subroutine24 & 0xFFFF
??CrossCallReturnLabel_35:
        LCALL     `??osal_memcmp::?relay`; Banked call to: osal_memcmp
        MOV       A,#0x3
        LCALL     ?DEALLOC_XSTACK8
          CFI CFA_XSP16 add(XSP16, 86)
        MOV       A,R1
        JNZ       $+5
        LJMP      ??zclGp_DataIndParse_2 & 0xFFFF
//  513         {
//  514           // Entry found
//  515           pGpNotification->gpdId = pInd->SrcId;
        MOV       A,#0x4
        LCALL     ?XSTACK_DISP0_8
        LCALL     ??Subroutine63_0 & 0xFFFF
??CrossCallReturnLabel_132:
        LCALL     ?XLOAD_R0123
        MOV       A,#0x2
        LCALL     ?XSTACK_DISP0_8
        MOVX      A,@DPTR
        MOV       R4,A
        INC       DPTR
        MOVX      A,@DPTR
        MOV       DPH,A
        MOV       DPL,R4
        INC       DPTR
        INC       DPTR
        LCALL     ?XSTORE_R0123
//  516           ntfOpt[0] = GP_OPT_APP_ID_GPD;
//  517           break;
        SJMP      ??zclGp_DataIndParse_4
//  518         }
//  519       }
//  520       else if ( pInd->appID == GP_OPT_APP_ID_IEEE )
??zclGp_DataIndParse_3:
        MOV       A,#0x2
        XRL       A,R0
        JNZ       ??zclGp_DataIndParse_2
//  521       {
//  522         if ( osal_memcmp( &pInd->srcAddr, &currEntry[PROXY_TBL_ENTRY_GPD_ID], Z_EXTADDR_LEN ) )
        ; Setup parameters for call to function osal_memcmp
        MOV       A,#0x8
        LCALL     ?XSTACK_DISP0_8
        MOV       R1,DPL
        MOV       R2,DPH
        MOV       ?V4,R1
        MOV       ?V5,R2
        MOV       ?V6,R6
        MOV       R0,#?V4
        LCALL     ?PUSH_XSTACK_I_THREE
          CFI CFA_XSP16 add(XSP16, 89)
        MOV       R4,#0x8
        MOV       R5,#0x0
        MOV       R1,?V0
        MOV       R2,?V1
        MOV       R3,?V2
        LCALL     `??osal_memcmp::?relay`; Banked call to: osal_memcmp
        MOV       A,#0x3
        LCALL     ?DEALLOC_XSTACK8
          CFI CFA_XSP16 add(XSP16, 86)
        MOV       A,R1
        JZ        ??zclGp_DataIndParse_2
//  523         {
//  524           // Entry found
//  525           osal_memcpy( pGpNotification->gpdIEEE, &(pInd->srcAddr.addr.extAddr), Z_EXTADDR_LEN );
        ; Setup parameters for call to function osal_memcpy
        MOV       R0,#?V0
        LCALL     ?PUSH_XSTACK_I_THREE
          CFI CFA_XSP16 add(XSP16, 89)
        MOV       R4,#0x8
        MOV       R5,#0x0
        MOV       A,#0x5
        LCALL     ?XSTACK_DISP0_8
        MOVX      A,@DPTR
        ADD       A,#0x6
        MOV       R2,A
        INC       DPTR
        MOVX      A,@DPTR
        ADDC      A,#0x0
        MOV       R3,A
        LCALL     `??osal_memcpy::?relay`; Banked call to: osal_memcpy
        MOV       A,#0x3
        LCALL     ?DEALLOC_XSTACK8
          CFI CFA_XSP16 add(XSP16, 86)
//  526           pGpNotification->ep = pInd->EndPoint;
        LCALL     ?Subroutine23 & 0xFFFF
??CrossCallReturnLabel_114:
        ADD       A,#0x25
        MOV       DPL,A
        CLR       A
        ADDC      A,R0
        MOV       DPH,A
        MOVX      A,@DPTR
        PUSH      A
          CFI CFA_SP SP+-1
        MOV       A,#0x2
        LCALL     ?XSTACK_DISP0_8
        LCALL     ??Subroutine59_0 & 0xFFFF
??CrossCallReturnLabel_109:
        LCALL     ?Subroutine47 & 0xFFFF
??CrossCallReturnLabel_83:
        POP       A
          CFI CFA_SP SP+0
        MOVX      @DPTR,A
//  527           ntfOpt[0] = GP_OPT_APP_ID_IEEE;
        MOV       R6,#0x2
//  528           break;
        SJMP      ??zclGp_DataIndParse_4
//  529         }
//  530       }
//  531     }
//  532     else
//  533     {
//  534       continue;
//  535     }
//  536   }
??zclGp_DataIndParse_2:
        INC       R7
        MOV       A,R7
        CLR       C
        SUBB      A,#0x6
        JNC       $+5
        LJMP      ??CrossCallReturnLabel_140 & 0xFFFF
//  537   
//  538   // Set the options bit field
//  539   GP_NTF_SET_ALSO_UNICAST( ( uint8* )&ntfOpt[0], currEntry[PROXY_TBL_ENTRY_OPT] );
//  540   GP_NTF_SET_ALSO_DGROUP( ( uint8* )&ntfOpt[0], currEntry[PROXY_TBL_ENTRY_OPT] );
//  541   GP_NTF_SET_ALSO_CGROUP( ( uint8* )&ntfOpt[0], currEntry[PROXY_TBL_ENTRY_OPT] );
//  542   GP_NTF_SET_SEC_LEVEL( ( uint8* )&ntfOpt[0], currEntry[PROXY_TBL_ENTRY_SEC_OPT] );
??zclGp_DataIndParse_4:
        MOV       A,#0x13
        LCALL     ?XSTACK_DISP0_8
        MOVX      A,@DPTR
        MOV       R0,A
        SWAP      A
        RLC       A
        RLC       A
        ANL       A,#0xc0
        MOV       R2,A
        MOV       A,#0x6
        LCALL     ?XSTACK_DISP0_8
        MOVX      A,@DPTR
        MOV       C,0xE0 /* A   */.0
        CLR       A
        RLC       A
        SWAP      A
        RLC       A
        MOV       R1,A
        MOV       A,#0x6
        LCALL     ?XSTACK_DISP0_8
        MOVX      A,@DPTR
        RRC       A
        RRC       A
        RRC       A
        ANL       A,#0x1f
        ANL       A,#0x18
        ORL       A,R6
        ORL       A,R1
        ANL       A,#0x3f
        ORL       A,R2
        MOV       R6,A
//  543   GP_NTF_SET_SEC_KEY_TYPE( ( uint8* )&ntfOpt[1], currEntry[PROXY_TBL_ENTRY_SEC_OPT] );
        MOV       A,R0
        RRC       A
        RRC       A
        ANL       A,#0x3f
        ANL       A,#0x7
        MOV       R0,A
//  544   pInd->RxAfterTx ?PROXY_TBL_SET_RX_AFTER_TX( ( uint8* )&ntfOpt[1] ) : PROXY_TBL_CLR_RX_AFTER_TX( ( uint8* )&ntfOpt[1] );
        MOV       DPL,?XSP + 0
        MOV       DPH,?XSP + 1
        MOVX      A,@DPTR
        MOV       R1,A
        INC       DPTR
        MOVX      A,@DPTR
        XCH       A,R1
        ADD       A,#0x20
        MOV       DPL,A
        CLR       A
        ADDC      A,R1
        MOV       DPH,A
        MOVX      A,@DPTR
        JZ        ??zclGp_DataIndParse_5
        MOV       A,R0
        SETB      0xE0 /* A   */.3
        MOV       R0,A
//  545   
//  546   // Mandatory to set this sub fields to 0b1 by the Green Power Proxy Basic Spec in A.3.3.4.1
//  547   PROXY_TBL_CLR_TX_QUEUE_FULL( ( uint8* )&ntfOpt[1] );
//  548   PROXY_TBL_SET_BIDIRECTIONAL_CAP( ( uint8* )&ntfOpt[1] );
//  549   PROXY_TBL_SET_PROXY_INFO( ( uint8* )&ntfOpt[1] );
//  550   
//  551   pGpNotification->options |= ( ( ntfOpt[0] ) & 0x00FF );
//  552   pGpNotification->options |= ( ( ( ntfOpt[1] ) <<  8 ) & 0xFF00 );
??zclGp_DataIndParse_5:
        MOV       A,R6
        MOV       R2,A
        MOV       A,#0x60
        ORL       A,R0
        MOV       R1,A
        MOV       A,R2
        MOV       R0,A
        MOV       A,#0x2
        LCALL     ?XSTACK_DISP0_8
        LCALL     ?Subroutine34 & 0xFFFF
??CrossCallReturnLabel_102:
        ORL       A,R0
        MOVX      @DPTR,A
        INC       DPTR
        MOVX      A,@DPTR
        ORL       A,R1
        LCALL     ?Subroutine5 & 0xFFFF
//  553   
//  554   pGpNotification->gpdSecCounter = pInd->GPDSecFrameCounter;
??CrossCallReturnLabel_0:
        ADD       A,#0x26
        MOV       DPL,A
        CLR       A
        ADDC      A,R0
        MOV       DPH,A
        LCALL     ?XLOAD_R0123
        MOV       A,#0x2
        LCALL     ?XSTACK_DISP0_8
        MOVX      A,@DPTR
        MOV       R4,A
        INC       DPTR
        MOVX      A,@DPTR
        XCH       A,R4
        ADD       A,#0xf
        MOV       DPL,A
        CLR       A
        ADDC      A,R4
        MOV       DPH,A
        LCALL     ?XSTORE_R0123
//  555   pGpNotification->cmdId = pInd->GPDCmmdID;
        LCALL     ?Subroutine23 & 0xFFFF
??CrossCallReturnLabel_115:
        ADD       A,#0x2a
        MOV       DPL,A
        CLR       A
        ADDC      A,R0
        MOV       DPH,A
        MOVX      A,@DPTR
        PUSH      A
          CFI CFA_SP SP+-1
        MOV       A,#0x2
        LCALL     ?XSTACK_DISP0_8
        LCALL     ??Subroutine59_0 & 0xFFFF
??CrossCallReturnLabel_110:
        ADD       A,#0x13
        MOV       DPL,A
        CLR       A
        ADDC      A,R0
        MOV       DPH,A
        POP       A
          CFI CFA_SP SP+0
        LCALL     ?Subroutine5 & 0xFFFF
//  556 
//  557   if ( pInd->GPDasduLength > 0 )
??CrossCallReturnLabel_1:
        ADD       A,#0x2f
        MOV       DPL,A
        CLR       A
        ADDC      A,R0
        MOV       DPH,A
        MOVX      A,@DPTR
        JZ        ??CrossCallReturnLabel_141
//  558   {
//  559     pGpNotification->payloadLen = pInd->GPDasduLength;
        PUSH      A
          CFI CFA_SP SP+-1
        MOV       A,#0x2
        LCALL     ?XSTACK_DISP0_8
        LCALL     ??Subroutine59_0 & 0xFFFF
//  560     pGpNotification->cmdPayload = pInd->GPDasdu;
//  561   }
??CrossCallReturnLabel_111:
        ADD       A,#0x14
        MOV       DPL,A
        CLR       A
        ADDC      A,R0
        MOV       DPH,A
        POP       A
          CFI CFA_SP SP+0
        LCALL     ?Subroutine8 & 0xFFFF
??CrossCallReturnLabel_8:
        ADD       A,#0x30
        MOV       R0,A
        INC       DPTR
        MOVX      A,@DPTR
        ADDC      A,#0x0
        MOV       R1,A
        MOV       A,#0x2
        LCALL     ?XSTACK_DISP0_8
        MOVX      A,@DPTR
        MOV       R2,A
        INC       DPTR
        MOVX      A,@DPTR
        XCH       A,R2
        ADD       A,#0x15
        MOV       DPL,A
        CLR       A
        ADDC      A,R2
        MOV       DPH,A
        LCALL     ??Subroutine65_0 & 0xFFFF
//  562   
//  563   pGpNotification->gppShortAddr = _NIB.nwkDevAddress;
??CrossCallReturnLabel_141:
        LCALL     ?Subroutine31 & 0xFFFF
??CrossCallReturnLabel_107:
        MOV       A,#0x2
        LCALL     ?XSTACK_DISP0_8
        MOVX      A,@DPTR
        MOV       R2,A
        INC       DPTR
        MOVX      A,@DPTR
        XCH       A,R2
        ADD       A,#0x17
        MOV       DPL,A
        CLR       A
        ADDC      A,R2
        MOV       DPH,A
        MOV       A,R0
        MOVX      @DPTR,A
        INC       DPTR
        MOV       A,R1
        LCALL     ?Subroutine5 & 0xFFFF
//  564   
//  565   RSSI = pInd->Rssi;
??CrossCallReturnLabel_2:
        LCALL     ?Subroutine47 & 0xFFFF
??CrossCallReturnLabel_84:
        LCALL     ?Subroutine28 & 0xFFFF
//  566   ( RSSI > 8 ) ?RSSI = 8 : ( RSSI < -109 ) ?RSSI = -109 : NULL;
??CrossCallReturnLabel_40:
        JC        ??zclGp_DataIndParse_6
        MOV       R0,#0x8
        SJMP      ??zclGp_DataIndParse_7
??zclGp_DataIndParse_6:
        MOV       A,R0
        CLR       C
        SUBB      A,#-0x6d
        MOV       C,0xD0 /* PSW */.2
        XRL       A,PSW
        RLC       A
        JNC       ??zclGp_DataIndParse_7
        MOV       R0,#-0x6d
//  567   RSSI += 110;
//  568   RSSI /= 2;
??zclGp_DataIndParse_7:
        MOV       A,#0x6e
        ADD       A,R0
        MOV       B,#0x2
        LCALL     ?SC_DIV_MOD
        MOV       R0,A
//  569   
//  570   ( pInd->LinkQuality == 0 ) ?LQI = 0 : ( pInd->LinkQuality > 0 ) ?LQI = 2 : NULL;
        MOV       DPL,?XSP + 0
        MOV       DPH,?XSP + 1
        MOVX      A,@DPTR
        MOV       R1,A
        INC       DPTR
        MOVX      A,@DPTR
        XCH       A,R1
        ADD       A,#0xf
        MOV       DPL,A
        CLR       A
        ADDC      A,R1
        MOV       DPH,A
        MOVX      A,@DPTR
        JNZ       ??zclGp_DataIndParse_8
        MOV       R1,#0x0
        SJMP      ??zclGp_DataIndParse_9
??zclGp_DataIndParse_8:
        MOV       R1,#0x2
//  571   
//  572   pGpNotification->gppGpdLink = RSSI;
//  573   pGpNotification->gppGpdLink |= ( LQI << 6 );
??zclGp_DataIndParse_9:
        MOV       A,R1
        SWAP      A
        RLC       A
        RLC       A
        ANL       A,#0xc0
        ORL       A,R0
        PUSH      A
          CFI CFA_SP SP+-1
        MOV       A,#0x2
        LCALL     ?XSTACK_DISP0_8
        LCALL     ??Subroutine59_0 & 0xFFFF
??CrossCallReturnLabel_112:
        ADD       A,#0x19
        MOV       DPL,A
        CLR       A
        ADDC      A,R0
        MOV       DPH,A
        POP       A
          CFI CFA_SP SP+0
        MOVX      @DPTR,A
//  574     
//  575   return SUCCESS;
        MOV       R1,#0x0
??zclGp_DataIndParse_1:
        MOV       A,#0x47
        LJMP      ?Subroutine2 & 0xFFFF
//  576 }
          CFI EndBlock cfiBlock15

        RSEG BANKED_CODE:HUGECODE:NOROOT(0)
?Subroutine47:
          CFI Block cfiCond16 Using cfiCommon0
          CFI Function zclGp_DataIndParse
          CFI Conditional ??CrossCallReturnLabel_83
          CFI R6 load(1, XDATA, add(CFA_XSP16, literal(-15)))
          CFI VB load(1, XDATA, add(CFA_XSP16, literal(-14)))
          CFI V0 load(1, XDATA, add(CFA_XSP16, literal(-13)))
          CFI V1 load(1, XDATA, add(CFA_XSP16, literal(-12)))
          CFI V2 load(1, XDATA, add(CFA_XSP16, literal(-11)))
          CFI V3 load(1, XDATA, add(CFA_XSP16, literal(-10)))
          CFI V4 load(1, XDATA, add(CFA_XSP16, literal(-9)))
          CFI V5 load(1, XDATA, add(CFA_XSP16, literal(-8)))
          CFI V6 load(1, XDATA, add(CFA_XSP16, literal(-7)))
          CFI R7 load(1, XDATA, add(CFA_XSP16, literal(-6)))
          CFI ?RET_LOW load(1, XDATA, add(CFA_XSP16, literal(-5)))
          CFI ?RET_HIGH load(1, XDATA, add(CFA_XSP16, literal(-4)))
          CFI ?BRET_EXT load(1, XDATA, add(CFA_XSP16, literal(-3)))
          CFI DPL0 load(1, XDATA, add(CFA_XSP16, literal(-2)))
          CFI DPH0 load(1, XDATA, add(CFA_XSP16, literal(-1)))
          CFI CFA_XSP16 add(XSP16, 86)
          CFI Block cfiCond17 Using cfiCommon0
          CFI (cfiCond17) Function zclGp_DataIndParse
          CFI (cfiCond17) Conditional ??CrossCallReturnLabel_84
          CFI (cfiCond17) R6 load(1, XDATA, add(CFA_XSP16, literal(-15)))
          CFI (cfiCond17) VB load(1, XDATA, add(CFA_XSP16, literal(-14)))
          CFI (cfiCond17) V0 load(1, XDATA, add(CFA_XSP16, literal(-13)))
          CFI (cfiCond17) V1 load(1, XDATA, add(CFA_XSP16, literal(-12)))
          CFI (cfiCond17) V2 load(1, XDATA, add(CFA_XSP16, literal(-11)))
          CFI (cfiCond17) V3 load(1, XDATA, add(CFA_XSP16, literal(-10)))
          CFI (cfiCond17) V4 load(1, XDATA, add(CFA_XSP16, literal(-9)))
          CFI (cfiCond17) V5 load(1, XDATA, add(CFA_XSP16, literal(-8)))
          CFI (cfiCond17) V6 load(1, XDATA, add(CFA_XSP16, literal(-7)))
          CFI (cfiCond17) R7 load(1, XDATA, add(CFA_XSP16, literal(-6)))
          CFI (cfiCond17) ?RET_LOW load(1, XDATA, add(CFA_XSP16, literal(-5)))
          CFI (cfiCond17) ?RET_HIGH load(1, XDATA, add(CFA_XSP16, literal(-4)))
          CFI (cfiCond17) ?BRET_EXT load(1, XDATA, add(CFA_XSP16, literal(-3)))
          CFI (cfiCond17) DPL0 load(1, XDATA, add(CFA_XSP16, literal(-2)))
          CFI (cfiCond17) DPH0 load(1, XDATA, add(CFA_XSP16, literal(-1)))
          CFI (cfiCond17) CFA_SP SP+-2
          CFI (cfiCond17) CFA_XSP16 add(XSP16, 86)
          CFI Block cfiPicker18 Using cfiCommon1
          CFI (cfiPicker18) NoFunction
          CFI (cfiPicker18) Picker
        ADD       A,#0xe
        MOV       DPL,A
        CLR       A
        ADDC      A,R0
        MOV       DPH,A
        RET
          CFI EndBlock cfiCond16
          CFI EndBlock cfiCond17
          CFI EndBlock cfiPicker18

        RSEG BANKED_CODE:HUGECODE:NOROOT(0)
?Subroutine34:
          CFI Block cfiCond19 Using cfiCommon0
          CFI Function zclGp_DataIndParse
          CFI Conditional ??CrossCallReturnLabel_102
          CFI R6 load(1, XDATA, add(CFA_XSP16, literal(-15)))
          CFI VB load(1, XDATA, add(CFA_XSP16, literal(-14)))
          CFI V0 load(1, XDATA, add(CFA_XSP16, literal(-13)))
          CFI V1 load(1, XDATA, add(CFA_XSP16, literal(-12)))
          CFI V2 load(1, XDATA, add(CFA_XSP16, literal(-11)))
          CFI V3 load(1, XDATA, add(CFA_XSP16, literal(-10)))
          CFI V4 load(1, XDATA, add(CFA_XSP16, literal(-9)))
          CFI V5 load(1, XDATA, add(CFA_XSP16, literal(-8)))
          CFI V6 load(1, XDATA, add(CFA_XSP16, literal(-7)))
          CFI R7 load(1, XDATA, add(CFA_XSP16, literal(-6)))
          CFI ?RET_LOW load(1, XDATA, add(CFA_XSP16, literal(-5)))
          CFI ?RET_HIGH load(1, XDATA, add(CFA_XSP16, literal(-4)))
          CFI ?BRET_EXT load(1, XDATA, add(CFA_XSP16, literal(-3)))
          CFI DPL0 load(1, XDATA, add(CFA_XSP16, literal(-2)))
          CFI DPH0 load(1, XDATA, add(CFA_XSP16, literal(-1)))
          CFI CFA_SP SP+-2
          CFI CFA_XSP16 add(XSP16, 86)
          CFI Block cfiCond20 Using cfiCommon0
          CFI (cfiCond20) Function gp_getProxyTableByGpId
          CFI (cfiCond20) Conditional ??CrossCallReturnLabel_103
          CFI (cfiCond20) R6 load(1, XDATA, add(CFA_XSP16, literal(-15)))
          CFI (cfiCond20) VB load(1, XDATA, add(CFA_XSP16, literal(-14)))
          CFI (cfiCond20) V0 load(1, XDATA, add(CFA_XSP16, literal(-13)))
          CFI (cfiCond20) V1 load(1, XDATA, add(CFA_XSP16, literal(-12)))
          CFI (cfiCond20) V2 load(1, XDATA, add(CFA_XSP16, literal(-11)))
          CFI (cfiCond20) V3 load(1, XDATA, add(CFA_XSP16, literal(-10)))
          CFI (cfiCond20) V4 load(1, XDATA, add(CFA_XSP16, literal(-9)))
          CFI (cfiCond20) V5 load(1, XDATA, add(CFA_XSP16, literal(-8)))
          CFI (cfiCond20) V6 load(1, XDATA, add(CFA_XSP16, literal(-7)))
          CFI (cfiCond20) R7 load(1, XDATA, add(CFA_XSP16, literal(-6)))
          CFI (cfiCond20) ?RET_LOW load(1, XDATA, add(CFA_XSP16, literal(-5)))
          CFI (cfiCond20) ?RET_HIGH load(1, XDATA, add(CFA_XSP16, literal(-4)))
          CFI (cfiCond20) ?BRET_EXT load(1, XDATA, add(CFA_XSP16, literal(-3)))
          CFI (cfiCond20) DPL0 load(1, XDATA, add(CFA_XSP16, literal(-2)))
          CFI (cfiCond20) DPH0 load(1, XDATA, add(CFA_XSP16, literal(-1)))
          CFI (cfiCond20) CFA_SP SP+-2
          CFI (cfiCond20) CFA_XSP16 add(XSP16, 19)
          CFI Block cfiPicker21 Using cfiCommon1
          CFI (cfiPicker21) NoFunction
          CFI (cfiPicker21) Picker
        MOVX      A,@DPTR
        MOV       R2,A
          CFI EndBlock cfiCond19
          CFI EndBlock cfiCond20
          CFI EndBlock cfiPicker21
        REQUIRE ??Subroutine57_0
        ; // Fall through to label ??Subroutine57_0

        RSEG BANKED_CODE:HUGECODE:NOROOT(0)
??Subroutine57_0:
          CFI Block cfiCond22 Using cfiCommon0
          CFI Function zclGp_GpResponseCommandCB
          CFI Conditional ??CrossCallReturnLabel_101
          CFI R6 load(1, XDATA, add(CFA_XSP16, literal(-15)))
          CFI VB load(1, XDATA, add(CFA_XSP16, literal(-14)))
          CFI V0 load(1, XDATA, add(CFA_XSP16, literal(-13)))
          CFI V1 load(1, XDATA, add(CFA_XSP16, literal(-12)))
          CFI V2 load(1, XDATA, add(CFA_XSP16, literal(-11)))
          CFI V3 load(1, XDATA, add(CFA_XSP16, literal(-10)))
          CFI V4 load(1, XDATA, add(CFA_XSP16, literal(-9)))
          CFI V5 load(1, XDATA, add(CFA_XSP16, literal(-8)))
          CFI V6 load(1, XDATA, add(CFA_XSP16, literal(-7)))
          CFI R7 load(1, XDATA, add(CFA_XSP16, literal(-6)))
          CFI ?RET_LOW load(1, XDATA, add(CFA_XSP16, literal(-5)))
          CFI ?RET_HIGH load(1, XDATA, add(CFA_XSP16, literal(-4)))
          CFI ?BRET_EXT load(1, XDATA, add(CFA_XSP16, literal(-3)))
          CFI DPL0 load(1, XDATA, add(CFA_XSP16, literal(-2)))
          CFI DPH0 load(1, XDATA, add(CFA_XSP16, literal(-1)))
          CFI CFA_SP SP+-2
          CFI CFA_XSP16 add(XSP16, 93)
          CFI Block cfiCond23 Using cfiCommon0
          CFI (cfiCond23) Function zclGp_DataIndParse
          CFI (cfiCond23) Conditional ??CrossCallReturnLabel_102
          CFI (cfiCond23) R6 load(1, XDATA, add(CFA_XSP16, literal(-15)))
          CFI (cfiCond23) VB load(1, XDATA, add(CFA_XSP16, literal(-14)))
          CFI (cfiCond23) V0 load(1, XDATA, add(CFA_XSP16, literal(-13)))
          CFI (cfiCond23) V1 load(1, XDATA, add(CFA_XSP16, literal(-12)))
          CFI (cfiCond23) V2 load(1, XDATA, add(CFA_XSP16, literal(-11)))
          CFI (cfiCond23) V3 load(1, XDATA, add(CFA_XSP16, literal(-10)))
          CFI (cfiCond23) V4 load(1, XDATA, add(CFA_XSP16, literal(-9)))
          CFI (cfiCond23) V5 load(1, XDATA, add(CFA_XSP16, literal(-8)))
          CFI (cfiCond23) V6 load(1, XDATA, add(CFA_XSP16, literal(-7)))
          CFI (cfiCond23) R7 load(1, XDATA, add(CFA_XSP16, literal(-6)))
          CFI (cfiCond23) ?RET_LOW load(1, XDATA, add(CFA_XSP16, literal(-5)))
          CFI (cfiCond23) ?RET_HIGH load(1, XDATA, add(CFA_XSP16, literal(-4)))
          CFI (cfiCond23) ?BRET_EXT load(1, XDATA, add(CFA_XSP16, literal(-3)))
          CFI (cfiCond23) DPL0 load(1, XDATA, add(CFA_XSP16, literal(-2)))
          CFI (cfiCond23) DPH0 load(1, XDATA, add(CFA_XSP16, literal(-1)))
          CFI (cfiCond23) CFA_SP SP+-2
          CFI (cfiCond23) CFA_XSP16 add(XSP16, 86)
          CFI Block cfiCond24 Using cfiCommon0
          CFI (cfiCond24) Function gp_getProxyTableByGpId
          CFI (cfiCond24) Conditional ??CrossCallReturnLabel_103
          CFI (cfiCond24) R6 load(1, XDATA, add(CFA_XSP16, literal(-15)))
          CFI (cfiCond24) VB load(1, XDATA, add(CFA_XSP16, literal(-14)))
          CFI (cfiCond24) V0 load(1, XDATA, add(CFA_XSP16, literal(-13)))
          CFI (cfiCond24) V1 load(1, XDATA, add(CFA_XSP16, literal(-12)))
          CFI (cfiCond24) V2 load(1, XDATA, add(CFA_XSP16, literal(-11)))
          CFI (cfiCond24) V3 load(1, XDATA, add(CFA_XSP16, literal(-10)))
          CFI (cfiCond24) V4 load(1, XDATA, add(CFA_XSP16, literal(-9)))
          CFI (cfiCond24) V5 load(1, XDATA, add(CFA_XSP16, literal(-8)))
          CFI (cfiCond24) V6 load(1, XDATA, add(CFA_XSP16, literal(-7)))
          CFI (cfiCond24) R7 load(1, XDATA, add(CFA_XSP16, literal(-6)))
          CFI (cfiCond24) ?RET_LOW load(1, XDATA, add(CFA_XSP16, literal(-5)))
          CFI (cfiCond24) ?RET_HIGH load(1, XDATA, add(CFA_XSP16, literal(-4)))
          CFI (cfiCond24) ?BRET_EXT load(1, XDATA, add(CFA_XSP16, literal(-3)))
          CFI (cfiCond24) DPL0 load(1, XDATA, add(CFA_XSP16, literal(-2)))
          CFI (cfiCond24) DPH0 load(1, XDATA, add(CFA_XSP16, literal(-1)))
          CFI (cfiCond24) CFA_SP SP+-2
          CFI (cfiCond24) CFA_XSP16 add(XSP16, 19)
          CFI Block cfiPicker25 Using cfiCommon1
          CFI (cfiPicker25) NoFunction
          CFI (cfiPicker25) Picker
        INC       DPTR
        MOVX      A,@DPTR
        MOV       DPH,A
        MOV       DPL,R2
        MOVX      A,@DPTR
        RET
          CFI EndBlock cfiCond22
          CFI EndBlock cfiCond23
          CFI EndBlock cfiCond24
          CFI EndBlock cfiPicker25

        RSEG BANKED_CODE:HUGECODE:NOROOT(0)
?Subroutine31:
          CFI Block cfiCond26 Using cfiCommon0
          CFI Function zclGp_ManteinanceIndParse
          CFI Conditional ??CrossCallReturnLabel_106
          CFI R6 load(1, XDATA, add(CFA_XSP16, literal(-16)))
          CFI VB load(1, XDATA, add(CFA_XSP16, literal(-15)))
          CFI V0 load(1, XDATA, add(CFA_XSP16, literal(-14)))
          CFI V1 load(1, XDATA, add(CFA_XSP16, literal(-13)))
          CFI V2 load(1, XDATA, add(CFA_XSP16, literal(-12)))
          CFI V3 load(1, XDATA, add(CFA_XSP16, literal(-11)))
          CFI V4 load(1, XDATA, add(CFA_XSP16, literal(-10)))
          CFI V5 load(1, XDATA, add(CFA_XSP16, literal(-9)))
          CFI V6 load(1, XDATA, add(CFA_XSP16, literal(-8)))
          CFI V7 load(1, XDATA, add(CFA_XSP16, literal(-7)))
          CFI R7 load(1, XDATA, add(CFA_XSP16, literal(-6)))
          CFI ?RET_LOW load(1, XDATA, add(CFA_XSP16, literal(-5)))
          CFI ?RET_HIGH load(1, XDATA, add(CFA_XSP16, literal(-4)))
          CFI ?BRET_EXT load(1, XDATA, add(CFA_XSP16, literal(-3)))
          CFI DPL0 load(1, XDATA, add(CFA_XSP16, literal(-2)))
          CFI DPH0 load(1, XDATA, add(CFA_XSP16, literal(-1)))
          CFI CFA_SP SP+-2
          CFI CFA_XSP16 add(XSP16, 18)
          CFI Block cfiCond27 Using cfiCommon0
          CFI (cfiCond27) Function zclGp_DataIndParse
          CFI (cfiCond27) Conditional ??CrossCallReturnLabel_107
          CFI (cfiCond27) R6 load(1, XDATA, add(CFA_XSP16, literal(-15)))
          CFI (cfiCond27) VB load(1, XDATA, add(CFA_XSP16, literal(-14)))
          CFI (cfiCond27) V0 load(1, XDATA, add(CFA_XSP16, literal(-13)))
          CFI (cfiCond27) V1 load(1, XDATA, add(CFA_XSP16, literal(-12)))
          CFI (cfiCond27) V2 load(1, XDATA, add(CFA_XSP16, literal(-11)))
          CFI (cfiCond27) V3 load(1, XDATA, add(CFA_XSP16, literal(-10)))
          CFI (cfiCond27) V4 load(1, XDATA, add(CFA_XSP16, literal(-9)))
          CFI (cfiCond27) V5 load(1, XDATA, add(CFA_XSP16, literal(-8)))
          CFI (cfiCond27) V6 load(1, XDATA, add(CFA_XSP16, literal(-7)))
          CFI (cfiCond27) R7 load(1, XDATA, add(CFA_XSP16, literal(-6)))
          CFI (cfiCond27) ?RET_LOW load(1, XDATA, add(CFA_XSP16, literal(-5)))
          CFI (cfiCond27) ?RET_HIGH load(1, XDATA, add(CFA_XSP16, literal(-4)))
          CFI (cfiCond27) ?BRET_EXT load(1, XDATA, add(CFA_XSP16, literal(-3)))
          CFI (cfiCond27) DPL0 load(1, XDATA, add(CFA_XSP16, literal(-2)))
          CFI (cfiCond27) DPH0 load(1, XDATA, add(CFA_XSP16, literal(-1)))
          CFI (cfiCond27) CFA_SP SP+-2
          CFI (cfiCond27) CFA_XSP16 add(XSP16, 86)
          CFI Block cfiCond28 Using cfiCommon0
          CFI (cfiCond28) Function zclGp_GpResponseCommandCB
          CFI (cfiCond28) Conditional ??CrossCallReturnLabel_108
          CFI (cfiCond28) R6 load(1, XDATA, add(CFA_XSP16, literal(-15)))
          CFI (cfiCond28) VB load(1, XDATA, add(CFA_XSP16, literal(-14)))
          CFI (cfiCond28) V0 load(1, XDATA, add(CFA_XSP16, literal(-13)))
          CFI (cfiCond28) V1 load(1, XDATA, add(CFA_XSP16, literal(-12)))
          CFI (cfiCond28) V2 load(1, XDATA, add(CFA_XSP16, literal(-11)))
          CFI (cfiCond28) V3 load(1, XDATA, add(CFA_XSP16, literal(-10)))
          CFI (cfiCond28) V4 load(1, XDATA, add(CFA_XSP16, literal(-9)))
          CFI (cfiCond28) V5 load(1, XDATA, add(CFA_XSP16, literal(-8)))
          CFI (cfiCond28) V6 load(1, XDATA, add(CFA_XSP16, literal(-7)))
          CFI (cfiCond28) R7 load(1, XDATA, add(CFA_XSP16, literal(-6)))
          CFI (cfiCond28) ?RET_LOW load(1, XDATA, add(CFA_XSP16, literal(-5)))
          CFI (cfiCond28) ?RET_HIGH load(1, XDATA, add(CFA_XSP16, literal(-4)))
          CFI (cfiCond28) ?BRET_EXT load(1, XDATA, add(CFA_XSP16, literal(-3)))
          CFI (cfiCond28) DPL0 load(1, XDATA, add(CFA_XSP16, literal(-2)))
          CFI (cfiCond28) DPH0 load(1, XDATA, add(CFA_XSP16, literal(-1)))
          CFI (cfiCond28) CFA_SP SP+-2
          CFI (cfiCond28) CFA_XSP16 add(XSP16, 93)
          CFI Block cfiPicker29 Using cfiCommon1
          CFI (cfiPicker29) NoFunction
          CFI (cfiPicker29) Picker
        MOV       DPTR,#_NIB + 20
          CFI EndBlock cfiCond26
          CFI EndBlock cfiCond27
          CFI EndBlock cfiCond28
          CFI EndBlock cfiPicker29
        REQUIRE ??Subroutine58_0
        ; // Fall through to label ??Subroutine58_0

        RSEG BANKED_CODE:HUGECODE:NOROOT(0)
??Subroutine58_0:
          CFI Block cfiCond30 Using cfiCommon0
          CFI Function zclGp_GpProxyCommissioningModeCB
          CFI Conditional ??CrossCallReturnLabel_104
          CFI R6 load(1, XDATA, add(CFA_XSP16, literal(-10)))
          CFI VB load(1, XDATA, add(CFA_XSP16, literal(-9)))
          CFI V0 load(1, XDATA, add(CFA_XSP16, literal(-8)))
          CFI V1 load(1, XDATA, add(CFA_XSP16, literal(-7)))
          CFI R7 load(1, XDATA, add(CFA_XSP16, literal(-6)))
          CFI ?RET_LOW load(1, XDATA, add(CFA_XSP16, literal(-5)))
          CFI ?RET_HIGH load(1, XDATA, add(CFA_XSP16, literal(-4)))
          CFI ?BRET_EXT load(1, XDATA, add(CFA_XSP16, literal(-3)))
          CFI DPL0 load(1, XDATA, add(CFA_XSP16, literal(-2)))
          CFI DPH0 load(1, XDATA, add(CFA_XSP16, literal(-1)))
          CFI CFA_SP SP+-2
          CFI CFA_XSP16 add(XSP16, 10)
          CFI Block cfiCond31 Using cfiCommon0
          CFI (cfiCond31) Function zclGp_GpProxyCommissioningModeCB
          CFI (cfiCond31) Conditional ??CrossCallReturnLabel_105
          CFI (cfiCond31) R6 load(1, XDATA, add(CFA_XSP16, literal(-10)))
          CFI (cfiCond31) VB load(1, XDATA, add(CFA_XSP16, literal(-9)))
          CFI (cfiCond31) V0 load(1, XDATA, add(CFA_XSP16, literal(-8)))
          CFI (cfiCond31) V1 load(1, XDATA, add(CFA_XSP16, literal(-7)))
          CFI (cfiCond31) R7 load(1, XDATA, add(CFA_XSP16, literal(-6)))
          CFI (cfiCond31) ?RET_LOW load(1, XDATA, add(CFA_XSP16, literal(-5)))
          CFI (cfiCond31) ?RET_HIGH load(1, XDATA, add(CFA_XSP16, literal(-4)))
          CFI (cfiCond31) ?BRET_EXT load(1, XDATA, add(CFA_XSP16, literal(-3)))
          CFI (cfiCond31) DPL0 load(1, XDATA, add(CFA_XSP16, literal(-2)))
          CFI (cfiCond31) DPH0 load(1, XDATA, add(CFA_XSP16, literal(-1)))
          CFI (cfiCond31) CFA_SP SP+-2
          CFI (cfiCond31) CFA_XSP16 add(XSP16, 10)
          CFI Block cfiCond32 Using cfiCommon0
          CFI (cfiCond32) Function zclGp_ManteinanceIndParse
          CFI (cfiCond32) Conditional ??CrossCallReturnLabel_106
          CFI (cfiCond32) R6 load(1, XDATA, add(CFA_XSP16, literal(-16)))
          CFI (cfiCond32) VB load(1, XDATA, add(CFA_XSP16, literal(-15)))
          CFI (cfiCond32) V0 load(1, XDATA, add(CFA_XSP16, literal(-14)))
          CFI (cfiCond32) V1 load(1, XDATA, add(CFA_XSP16, literal(-13)))
          CFI (cfiCond32) V2 load(1, XDATA, add(CFA_XSP16, literal(-12)))
          CFI (cfiCond32) V3 load(1, XDATA, add(CFA_XSP16, literal(-11)))
          CFI (cfiCond32) V4 load(1, XDATA, add(CFA_XSP16, literal(-10)))
          CFI (cfiCond32) V5 load(1, XDATA, add(CFA_XSP16, literal(-9)))
          CFI (cfiCond32) V6 load(1, XDATA, add(CFA_XSP16, literal(-8)))
          CFI (cfiCond32) V7 load(1, XDATA, add(CFA_XSP16, literal(-7)))
          CFI (cfiCond32) R7 load(1, XDATA, add(CFA_XSP16, literal(-6)))
          CFI (cfiCond32) ?RET_LOW load(1, XDATA, add(CFA_XSP16, literal(-5)))
          CFI (cfiCond32) ?RET_HIGH load(1, XDATA, add(CFA_XSP16, literal(-4)))
          CFI (cfiCond32) ?BRET_EXT load(1, XDATA, add(CFA_XSP16, literal(-3)))
          CFI (cfiCond32) DPL0 load(1, XDATA, add(CFA_XSP16, literal(-2)))
          CFI (cfiCond32) DPH0 load(1, XDATA, add(CFA_XSP16, literal(-1)))
          CFI (cfiCond32) CFA_SP SP+-2
          CFI (cfiCond32) CFA_XSP16 add(XSP16, 18)
          CFI Block cfiCond33 Using cfiCommon0
          CFI (cfiCond33) Function zclGp_DataIndParse
          CFI (cfiCond33) Conditional ??CrossCallReturnLabel_107
          CFI (cfiCond33) R6 load(1, XDATA, add(CFA_XSP16, literal(-15)))
          CFI (cfiCond33) VB load(1, XDATA, add(CFA_XSP16, literal(-14)))
          CFI (cfiCond33) V0 load(1, XDATA, add(CFA_XSP16, literal(-13)))
          CFI (cfiCond33) V1 load(1, XDATA, add(CFA_XSP16, literal(-12)))
          CFI (cfiCond33) V2 load(1, XDATA, add(CFA_XSP16, literal(-11)))
          CFI (cfiCond33) V3 load(1, XDATA, add(CFA_XSP16, literal(-10)))
          CFI (cfiCond33) V4 load(1, XDATA, add(CFA_XSP16, literal(-9)))
          CFI (cfiCond33) V5 load(1, XDATA, add(CFA_XSP16, literal(-8)))
          CFI (cfiCond33) V6 load(1, XDATA, add(CFA_XSP16, literal(-7)))
          CFI (cfiCond33) R7 load(1, XDATA, add(CFA_XSP16, literal(-6)))
          CFI (cfiCond33) ?RET_LOW load(1, XDATA, add(CFA_XSP16, literal(-5)))
          CFI (cfiCond33) ?RET_HIGH load(1, XDATA, add(CFA_XSP16, literal(-4)))
          CFI (cfiCond33) ?BRET_EXT load(1, XDATA, add(CFA_XSP16, literal(-3)))
          CFI (cfiCond33) DPL0 load(1, XDATA, add(CFA_XSP16, literal(-2)))
          CFI (cfiCond33) DPH0 load(1, XDATA, add(CFA_XSP16, literal(-1)))
          CFI (cfiCond33) CFA_SP SP+-2
          CFI (cfiCond33) CFA_XSP16 add(XSP16, 86)
          CFI Block cfiCond34 Using cfiCommon0
          CFI (cfiCond34) Function zclGp_GpResponseCommandCB
          CFI (cfiCond34) Conditional ??CrossCallReturnLabel_108
          CFI (cfiCond34) R6 load(1, XDATA, add(CFA_XSP16, literal(-15)))
          CFI (cfiCond34) VB load(1, XDATA, add(CFA_XSP16, literal(-14)))
          CFI (cfiCond34) V0 load(1, XDATA, add(CFA_XSP16, literal(-13)))
          CFI (cfiCond34) V1 load(1, XDATA, add(CFA_XSP16, literal(-12)))
          CFI (cfiCond34) V2 load(1, XDATA, add(CFA_XSP16, literal(-11)))
          CFI (cfiCond34) V3 load(1, XDATA, add(CFA_XSP16, literal(-10)))
          CFI (cfiCond34) V4 load(1, XDATA, add(CFA_XSP16, literal(-9)))
          CFI (cfiCond34) V5 load(1, XDATA, add(CFA_XSP16, literal(-8)))
          CFI (cfiCond34) V6 load(1, XDATA, add(CFA_XSP16, literal(-7)))
          CFI (cfiCond34) R7 load(1, XDATA, add(CFA_XSP16, literal(-6)))
          CFI (cfiCond34) ?RET_LOW load(1, XDATA, add(CFA_XSP16, literal(-5)))
          CFI (cfiCond34) ?RET_HIGH load(1, XDATA, add(CFA_XSP16, literal(-4)))
          CFI (cfiCond34) ?BRET_EXT load(1, XDATA, add(CFA_XSP16, literal(-3)))
          CFI (cfiCond34) DPL0 load(1, XDATA, add(CFA_XSP16, literal(-2)))
          CFI (cfiCond34) DPH0 load(1, XDATA, add(CFA_XSP16, literal(-1)))
          CFI (cfiCond34) CFA_SP SP+-2
          CFI (cfiCond34) CFA_XSP16 add(XSP16, 93)
          CFI Block cfiPicker35 Using cfiCommon1
          CFI (cfiPicker35) NoFunction
          CFI (cfiPicker35) Picker
        MOVX      A,@DPTR
        MOV       R0,A
        INC       DPTR
        MOVX      A,@DPTR
        MOV       R1,A
        RET
          CFI EndBlock cfiCond30
          CFI EndBlock cfiCond31
          CFI EndBlock cfiCond32
          CFI EndBlock cfiCond33
          CFI EndBlock cfiCond34
          CFI EndBlock cfiPicker35

        RSEG BANKED_CODE:HUGECODE:NOROOT(0)
?Subroutine28:
          CFI Block cfiCond36 Using cfiCommon0
          CFI Function zclGp_ManteinanceIndParse
          CFI Conditional ??CrossCallReturnLabel_39
          CFI R6 load(1, XDATA, add(CFA_XSP16, literal(-16)))
          CFI VB load(1, XDATA, add(CFA_XSP16, literal(-15)))
          CFI V0 load(1, XDATA, add(CFA_XSP16, literal(-14)))
          CFI V1 load(1, XDATA, add(CFA_XSP16, literal(-13)))
          CFI V2 load(1, XDATA, add(CFA_XSP16, literal(-12)))
          CFI V3 load(1, XDATA, add(CFA_XSP16, literal(-11)))
          CFI V4 load(1, XDATA, add(CFA_XSP16, literal(-10)))
          CFI V5 load(1, XDATA, add(CFA_XSP16, literal(-9)))
          CFI V6 load(1, XDATA, add(CFA_XSP16, literal(-8)))
          CFI V7 load(1, XDATA, add(CFA_XSP16, literal(-7)))
          CFI R7 load(1, XDATA, add(CFA_XSP16, literal(-6)))
          CFI ?RET_LOW load(1, XDATA, add(CFA_XSP16, literal(-5)))
          CFI ?RET_HIGH load(1, XDATA, add(CFA_XSP16, literal(-4)))
          CFI ?BRET_EXT load(1, XDATA, add(CFA_XSP16, literal(-3)))
          CFI DPL0 load(1, XDATA, add(CFA_XSP16, literal(-2)))
          CFI DPH0 load(1, XDATA, add(CFA_XSP16, literal(-1)))
          CFI CFA_SP SP+-2
          CFI CFA_XSP16 add(XSP16, 18)
          CFI Block cfiCond37 Using cfiCommon0
          CFI (cfiCond37) Function zclGp_DataIndParse
          CFI (cfiCond37) Conditional ??CrossCallReturnLabel_40
          CFI (cfiCond37) R6 load(1, XDATA, add(CFA_XSP16, literal(-15)))
          CFI (cfiCond37) VB load(1, XDATA, add(CFA_XSP16, literal(-14)))
          CFI (cfiCond37) V0 load(1, XDATA, add(CFA_XSP16, literal(-13)))
          CFI (cfiCond37) V1 load(1, XDATA, add(CFA_XSP16, literal(-12)))
          CFI (cfiCond37) V2 load(1, XDATA, add(CFA_XSP16, literal(-11)))
          CFI (cfiCond37) V3 load(1, XDATA, add(CFA_XSP16, literal(-10)))
          CFI (cfiCond37) V4 load(1, XDATA, add(CFA_XSP16, literal(-9)))
          CFI (cfiCond37) V5 load(1, XDATA, add(CFA_XSP16, literal(-8)))
          CFI (cfiCond37) V6 load(1, XDATA, add(CFA_XSP16, literal(-7)))
          CFI (cfiCond37) R7 load(1, XDATA, add(CFA_XSP16, literal(-6)))
          CFI (cfiCond37) ?RET_LOW load(1, XDATA, add(CFA_XSP16, literal(-5)))
          CFI (cfiCond37) ?RET_HIGH load(1, XDATA, add(CFA_XSP16, literal(-4)))
          CFI (cfiCond37) ?BRET_EXT load(1, XDATA, add(CFA_XSP16, literal(-3)))
          CFI (cfiCond37) DPL0 load(1, XDATA, add(CFA_XSP16, literal(-2)))
          CFI (cfiCond37) DPH0 load(1, XDATA, add(CFA_XSP16, literal(-1)))
          CFI (cfiCond37) CFA_SP SP+-2
          CFI (cfiCond37) CFA_XSP16 add(XSP16, 86)
          CFI Block cfiPicker38 Using cfiCommon1
          CFI (cfiPicker38) NoFunction
          CFI (cfiPicker38) Picker
        MOVX      A,@DPTR
        MOV       R0,A
        CLR       C
        SUBB      A,#0x9
        MOV       C,0xD0 /* PSW */.2
        XRL       A,PSW
        RLC       A
        RET
          CFI EndBlock cfiCond36
          CFI EndBlock cfiCond37
          CFI EndBlock cfiPicker38

        RSEG BANKED_CODE:HUGECODE:NOROOT(0)
?Subroutine23:
          CFI Block cfiCond39 Using cfiCommon0
          CFI Function zclGp_DataIndParse
          CFI Conditional ??CrossCallReturnLabel_113
          CFI R6 load(1, XDATA, add(CFA_XSP16, literal(-15)))
          CFI VB load(1, XDATA, add(CFA_XSP16, literal(-14)))
          CFI V0 load(1, XDATA, add(CFA_XSP16, literal(-13)))
          CFI V1 load(1, XDATA, add(CFA_XSP16, literal(-12)))
          CFI V2 load(1, XDATA, add(CFA_XSP16, literal(-11)))
          CFI V3 load(1, XDATA, add(CFA_XSP16, literal(-10)))
          CFI V4 load(1, XDATA, add(CFA_XSP16, literal(-9)))
          CFI V5 load(1, XDATA, add(CFA_XSP16, literal(-8)))
          CFI V6 load(1, XDATA, add(CFA_XSP16, literal(-7)))
          CFI R7 load(1, XDATA, add(CFA_XSP16, literal(-6)))
          CFI ?RET_LOW load(1, XDATA, add(CFA_XSP16, literal(-5)))
          CFI ?RET_HIGH load(1, XDATA, add(CFA_XSP16, literal(-4)))
          CFI ?BRET_EXT load(1, XDATA, add(CFA_XSP16, literal(-3)))
          CFI DPL0 load(1, XDATA, add(CFA_XSP16, literal(-2)))
          CFI DPH0 load(1, XDATA, add(CFA_XSP16, literal(-1)))
          CFI CFA_SP SP+-2
          CFI CFA_XSP16 add(XSP16, 86)
          CFI Block cfiCond40 Using cfiCommon0
          CFI (cfiCond40) Function zclGp_DataIndParse
          CFI (cfiCond40) Conditional ??CrossCallReturnLabel_114
          CFI (cfiCond40) R6 load(1, XDATA, add(CFA_XSP16, literal(-15)))
          CFI (cfiCond40) VB load(1, XDATA, add(CFA_XSP16, literal(-14)))
          CFI (cfiCond40) V0 load(1, XDATA, add(CFA_XSP16, literal(-13)))
          CFI (cfiCond40) V1 load(1, XDATA, add(CFA_XSP16, literal(-12)))
          CFI (cfiCond40) V2 load(1, XDATA, add(CFA_XSP16, literal(-11)))
          CFI (cfiCond40) V3 load(1, XDATA, add(CFA_XSP16, literal(-10)))
          CFI (cfiCond40) V4 load(1, XDATA, add(CFA_XSP16, literal(-9)))
          CFI (cfiCond40) V5 load(1, XDATA, add(CFA_XSP16, literal(-8)))
          CFI (cfiCond40) V6 load(1, XDATA, add(CFA_XSP16, literal(-7)))
          CFI (cfiCond40) R7 load(1, XDATA, add(CFA_XSP16, literal(-6)))
          CFI (cfiCond40) ?RET_LOW load(1, XDATA, add(CFA_XSP16, literal(-5)))
          CFI (cfiCond40) ?RET_HIGH load(1, XDATA, add(CFA_XSP16, literal(-4)))
          CFI (cfiCond40) ?BRET_EXT load(1, XDATA, add(CFA_XSP16, literal(-3)))
          CFI (cfiCond40) DPL0 load(1, XDATA, add(CFA_XSP16, literal(-2)))
          CFI (cfiCond40) DPH0 load(1, XDATA, add(CFA_XSP16, literal(-1)))
          CFI (cfiCond40) CFA_SP SP+-2
          CFI (cfiCond40) CFA_XSP16 add(XSP16, 86)
          CFI Block cfiCond41 Using cfiCommon0
          CFI (cfiCond41) Function zclGp_DataIndParse
          CFI (cfiCond41) Conditional ??CrossCallReturnLabel_115
          CFI (cfiCond41) R6 load(1, XDATA, add(CFA_XSP16, literal(-15)))
          CFI (cfiCond41) VB load(1, XDATA, add(CFA_XSP16, literal(-14)))
          CFI (cfiCond41) V0 load(1, XDATA, add(CFA_XSP16, literal(-13)))
          CFI (cfiCond41) V1 load(1, XDATA, add(CFA_XSP16, literal(-12)))
          CFI (cfiCond41) V2 load(1, XDATA, add(CFA_XSP16, literal(-11)))
          CFI (cfiCond41) V3 load(1, XDATA, add(CFA_XSP16, literal(-10)))
          CFI (cfiCond41) V4 load(1, XDATA, add(CFA_XSP16, literal(-9)))
          CFI (cfiCond41) V5 load(1, XDATA, add(CFA_XSP16, literal(-8)))
          CFI (cfiCond41) V6 load(1, XDATA, add(CFA_XSP16, literal(-7)))
          CFI (cfiCond41) R7 load(1, XDATA, add(CFA_XSP16, literal(-6)))
          CFI (cfiCond41) ?RET_LOW load(1, XDATA, add(CFA_XSP16, literal(-5)))
          CFI (cfiCond41) ?RET_HIGH load(1, XDATA, add(CFA_XSP16, literal(-4)))
          CFI (cfiCond41) ?BRET_EXT load(1, XDATA, add(CFA_XSP16, literal(-3)))
          CFI (cfiCond41) DPL0 load(1, XDATA, add(CFA_XSP16, literal(-2)))
          CFI (cfiCond41) DPH0 load(1, XDATA, add(CFA_XSP16, literal(-1)))
          CFI (cfiCond41) CFA_SP SP+-2
          CFI (cfiCond41) CFA_XSP16 add(XSP16, 86)
          CFI Block cfiPicker42 Using cfiCommon1
          CFI (cfiPicker42) NoFunction
          CFI (cfiPicker42) Picker
        MOV       DPL,?XSP + 0
        MOV       DPH,?XSP + 1
          CFI EndBlock cfiCond39
          CFI EndBlock cfiCond40
          CFI EndBlock cfiCond41
          CFI EndBlock cfiPicker42
        REQUIRE ??Subroutine59_0
        ; // Fall through to label ??Subroutine59_0

        RSEG BANKED_CODE:HUGECODE:NOROOT(0)
??Subroutine59_0:
          CFI Block cfiCond43 Using cfiCommon0
          CFI Function zclGp_DataIndParse
          CFI Conditional ??CrossCallReturnLabel_109
          CFI R6 load(1, XDATA, add(CFA_XSP16, literal(-15)))
          CFI VB load(1, XDATA, add(CFA_XSP16, literal(-14)))
          CFI V0 load(1, XDATA, add(CFA_XSP16, literal(-13)))
          CFI V1 load(1, XDATA, add(CFA_XSP16, literal(-12)))
          CFI V2 load(1, XDATA, add(CFA_XSP16, literal(-11)))
          CFI V3 load(1, XDATA, add(CFA_XSP16, literal(-10)))
          CFI V4 load(1, XDATA, add(CFA_XSP16, literal(-9)))
          CFI V5 load(1, XDATA, add(CFA_XSP16, literal(-8)))
          CFI V6 load(1, XDATA, add(CFA_XSP16, literal(-7)))
          CFI R7 load(1, XDATA, add(CFA_XSP16, literal(-6)))
          CFI ?RET_LOW load(1, XDATA, add(CFA_XSP16, literal(-5)))
          CFI ?RET_HIGH load(1, XDATA, add(CFA_XSP16, literal(-4)))
          CFI ?BRET_EXT load(1, XDATA, add(CFA_XSP16, literal(-3)))
          CFI DPL0 load(1, XDATA, add(CFA_XSP16, literal(-2)))
          CFI DPH0 load(1, XDATA, add(CFA_XSP16, literal(-1)))
          CFI CFA_XSP16 add(XSP16, 86)
          CFI Block cfiCond44 Using cfiCommon0
          CFI (cfiCond44) Function zclGp_DataIndParse
          CFI (cfiCond44) Conditional ??CrossCallReturnLabel_110
          CFI (cfiCond44) R6 load(1, XDATA, add(CFA_XSP16, literal(-15)))
          CFI (cfiCond44) VB load(1, XDATA, add(CFA_XSP16, literal(-14)))
          CFI (cfiCond44) V0 load(1, XDATA, add(CFA_XSP16, literal(-13)))
          CFI (cfiCond44) V1 load(1, XDATA, add(CFA_XSP16, literal(-12)))
          CFI (cfiCond44) V2 load(1, XDATA, add(CFA_XSP16, literal(-11)))
          CFI (cfiCond44) V3 load(1, XDATA, add(CFA_XSP16, literal(-10)))
          CFI (cfiCond44) V4 load(1, XDATA, add(CFA_XSP16, literal(-9)))
          CFI (cfiCond44) V5 load(1, XDATA, add(CFA_XSP16, literal(-8)))
          CFI (cfiCond44) V6 load(1, XDATA, add(CFA_XSP16, literal(-7)))
          CFI (cfiCond44) R7 load(1, XDATA, add(CFA_XSP16, literal(-6)))
          CFI (cfiCond44) ?RET_LOW load(1, XDATA, add(CFA_XSP16, literal(-5)))
          CFI (cfiCond44) ?RET_HIGH load(1, XDATA, add(CFA_XSP16, literal(-4)))
          CFI (cfiCond44) ?BRET_EXT load(1, XDATA, add(CFA_XSP16, literal(-3)))
          CFI (cfiCond44) DPL0 load(1, XDATA, add(CFA_XSP16, literal(-2)))
          CFI (cfiCond44) DPH0 load(1, XDATA, add(CFA_XSP16, literal(-1)))
          CFI (cfiCond44) CFA_XSP16 add(XSP16, 86)
          CFI Block cfiCond45 Using cfiCommon0
          CFI (cfiCond45) Function zclGp_DataIndParse
          CFI (cfiCond45) Conditional ??CrossCallReturnLabel_111
          CFI (cfiCond45) R6 load(1, XDATA, add(CFA_XSP16, literal(-15)))
          CFI (cfiCond45) VB load(1, XDATA, add(CFA_XSP16, literal(-14)))
          CFI (cfiCond45) V0 load(1, XDATA, add(CFA_XSP16, literal(-13)))
          CFI (cfiCond45) V1 load(1, XDATA, add(CFA_XSP16, literal(-12)))
          CFI (cfiCond45) V2 load(1, XDATA, add(CFA_XSP16, literal(-11)))
          CFI (cfiCond45) V3 load(1, XDATA, add(CFA_XSP16, literal(-10)))
          CFI (cfiCond45) V4 load(1, XDATA, add(CFA_XSP16, literal(-9)))
          CFI (cfiCond45) V5 load(1, XDATA, add(CFA_XSP16, literal(-8)))
          CFI (cfiCond45) V6 load(1, XDATA, add(CFA_XSP16, literal(-7)))
          CFI (cfiCond45) R7 load(1, XDATA, add(CFA_XSP16, literal(-6)))
          CFI (cfiCond45) ?RET_LOW load(1, XDATA, add(CFA_XSP16, literal(-5)))
          CFI (cfiCond45) ?RET_HIGH load(1, XDATA, add(CFA_XSP16, literal(-4)))
          CFI (cfiCond45) ?BRET_EXT load(1, XDATA, add(CFA_XSP16, literal(-3)))
          CFI (cfiCond45) DPL0 load(1, XDATA, add(CFA_XSP16, literal(-2)))
          CFI (cfiCond45) DPH0 load(1, XDATA, add(CFA_XSP16, literal(-1)))
          CFI (cfiCond45) CFA_XSP16 add(XSP16, 86)
          CFI Block cfiCond46 Using cfiCommon0
          CFI (cfiCond46) Function zclGp_DataIndParse
          CFI (cfiCond46) Conditional ??CrossCallReturnLabel_112
          CFI (cfiCond46) R6 load(1, XDATA, add(CFA_XSP16, literal(-15)))
          CFI (cfiCond46) VB load(1, XDATA, add(CFA_XSP16, literal(-14)))
          CFI (cfiCond46) V0 load(1, XDATA, add(CFA_XSP16, literal(-13)))
          CFI (cfiCond46) V1 load(1, XDATA, add(CFA_XSP16, literal(-12)))
          CFI (cfiCond46) V2 load(1, XDATA, add(CFA_XSP16, literal(-11)))
          CFI (cfiCond46) V3 load(1, XDATA, add(CFA_XSP16, literal(-10)))
          CFI (cfiCond46) V4 load(1, XDATA, add(CFA_XSP16, literal(-9)))
          CFI (cfiCond46) V5 load(1, XDATA, add(CFA_XSP16, literal(-8)))
          CFI (cfiCond46) V6 load(1, XDATA, add(CFA_XSP16, literal(-7)))
          CFI (cfiCond46) R7 load(1, XDATA, add(CFA_XSP16, literal(-6)))
          CFI (cfiCond46) ?RET_LOW load(1, XDATA, add(CFA_XSP16, literal(-5)))
          CFI (cfiCond46) ?RET_HIGH load(1, XDATA, add(CFA_XSP16, literal(-4)))
          CFI (cfiCond46) ?BRET_EXT load(1, XDATA, add(CFA_XSP16, literal(-3)))
          CFI (cfiCond46) DPL0 load(1, XDATA, add(CFA_XSP16, literal(-2)))
          CFI (cfiCond46) DPH0 load(1, XDATA, add(CFA_XSP16, literal(-1)))
          CFI (cfiCond46) CFA_XSP16 add(XSP16, 86)
          CFI Block cfiCond47 Using cfiCommon0
          CFI (cfiCond47) Function zclGp_DataIndParse
          CFI (cfiCond47) Conditional ??CrossCallReturnLabel_113
          CFI (cfiCond47) R6 load(1, XDATA, add(CFA_XSP16, literal(-15)))
          CFI (cfiCond47) VB load(1, XDATA, add(CFA_XSP16, literal(-14)))
          CFI (cfiCond47) V0 load(1, XDATA, add(CFA_XSP16, literal(-13)))
          CFI (cfiCond47) V1 load(1, XDATA, add(CFA_XSP16, literal(-12)))
          CFI (cfiCond47) V2 load(1, XDATA, add(CFA_XSP16, literal(-11)))
          CFI (cfiCond47) V3 load(1, XDATA, add(CFA_XSP16, literal(-10)))
          CFI (cfiCond47) V4 load(1, XDATA, add(CFA_XSP16, literal(-9)))
          CFI (cfiCond47) V5 load(1, XDATA, add(CFA_XSP16, literal(-8)))
          CFI (cfiCond47) V6 load(1, XDATA, add(CFA_XSP16, literal(-7)))
          CFI (cfiCond47) R7 load(1, XDATA, add(CFA_XSP16, literal(-6)))
          CFI (cfiCond47) ?RET_LOW load(1, XDATA, add(CFA_XSP16, literal(-5)))
          CFI (cfiCond47) ?RET_HIGH load(1, XDATA, add(CFA_XSP16, literal(-4)))
          CFI (cfiCond47) ?BRET_EXT load(1, XDATA, add(CFA_XSP16, literal(-3)))
          CFI (cfiCond47) DPL0 load(1, XDATA, add(CFA_XSP16, literal(-2)))
          CFI (cfiCond47) DPH0 load(1, XDATA, add(CFA_XSP16, literal(-1)))
          CFI (cfiCond47) CFA_SP SP+-2
          CFI (cfiCond47) CFA_XSP16 add(XSP16, 86)
          CFI Block cfiCond48 Using cfiCommon0
          CFI (cfiCond48) Function zclGp_DataIndParse
          CFI (cfiCond48) Conditional ??CrossCallReturnLabel_114
          CFI (cfiCond48) R6 load(1, XDATA, add(CFA_XSP16, literal(-15)))
          CFI (cfiCond48) VB load(1, XDATA, add(CFA_XSP16, literal(-14)))
          CFI (cfiCond48) V0 load(1, XDATA, add(CFA_XSP16, literal(-13)))
          CFI (cfiCond48) V1 load(1, XDATA, add(CFA_XSP16, literal(-12)))
          CFI (cfiCond48) V2 load(1, XDATA, add(CFA_XSP16, literal(-11)))
          CFI (cfiCond48) V3 load(1, XDATA, add(CFA_XSP16, literal(-10)))
          CFI (cfiCond48) V4 load(1, XDATA, add(CFA_XSP16, literal(-9)))
          CFI (cfiCond48) V5 load(1, XDATA, add(CFA_XSP16, literal(-8)))
          CFI (cfiCond48) V6 load(1, XDATA, add(CFA_XSP16, literal(-7)))
          CFI (cfiCond48) R7 load(1, XDATA, add(CFA_XSP16, literal(-6)))
          CFI (cfiCond48) ?RET_LOW load(1, XDATA, add(CFA_XSP16, literal(-5)))
          CFI (cfiCond48) ?RET_HIGH load(1, XDATA, add(CFA_XSP16, literal(-4)))
          CFI (cfiCond48) ?BRET_EXT load(1, XDATA, add(CFA_XSP16, literal(-3)))
          CFI (cfiCond48) DPL0 load(1, XDATA, add(CFA_XSP16, literal(-2)))
          CFI (cfiCond48) DPH0 load(1, XDATA, add(CFA_XSP16, literal(-1)))
          CFI (cfiCond48) CFA_SP SP+-2
          CFI (cfiCond48) CFA_XSP16 add(XSP16, 86)
          CFI Block cfiCond49 Using cfiCommon0
          CFI (cfiCond49) Function zclGp_DataIndParse
          CFI (cfiCond49) Conditional ??CrossCallReturnLabel_115
          CFI (cfiCond49) R6 load(1, XDATA, add(CFA_XSP16, literal(-15)))
          CFI (cfiCond49) VB load(1, XDATA, add(CFA_XSP16, literal(-14)))
          CFI (cfiCond49) V0 load(1, XDATA, add(CFA_XSP16, literal(-13)))
          CFI (cfiCond49) V1 load(1, XDATA, add(CFA_XSP16, literal(-12)))
          CFI (cfiCond49) V2 load(1, XDATA, add(CFA_XSP16, literal(-11)))
          CFI (cfiCond49) V3 load(1, XDATA, add(CFA_XSP16, literal(-10)))
          CFI (cfiCond49) V4 load(1, XDATA, add(CFA_XSP16, literal(-9)))
          CFI (cfiCond49) V5 load(1, XDATA, add(CFA_XSP16, literal(-8)))
          CFI (cfiCond49) V6 load(1, XDATA, add(CFA_XSP16, literal(-7)))
          CFI (cfiCond49) R7 load(1, XDATA, add(CFA_XSP16, literal(-6)))
          CFI (cfiCond49) ?RET_LOW load(1, XDATA, add(CFA_XSP16, literal(-5)))
          CFI (cfiCond49) ?RET_HIGH load(1, XDATA, add(CFA_XSP16, literal(-4)))
          CFI (cfiCond49) ?BRET_EXT load(1, XDATA, add(CFA_XSP16, literal(-3)))
          CFI (cfiCond49) DPL0 load(1, XDATA, add(CFA_XSP16, literal(-2)))
          CFI (cfiCond49) DPH0 load(1, XDATA, add(CFA_XSP16, literal(-1)))
          CFI (cfiCond49) CFA_SP SP+-2
          CFI (cfiCond49) CFA_XSP16 add(XSP16, 86)
          CFI Block cfiPicker50 Using cfiCommon1
          CFI (cfiPicker50) NoFunction
          CFI (cfiPicker50) Picker
        MOVX      A,@DPTR
        MOV       R0,A
        INC       DPTR
        MOVX      A,@DPTR
        XCH       A,R0
        RET
          CFI EndBlock cfiCond43
          CFI EndBlock cfiCond44
          CFI EndBlock cfiCond45
          CFI EndBlock cfiCond46
          CFI EndBlock cfiCond47
          CFI EndBlock cfiCond48
          CFI EndBlock cfiCond49
          CFI EndBlock cfiPicker50

        RSEG BANKED_CODE:HUGECODE:NOROOT(0)
?Subroutine8:
          CFI Block cfiCond51 Using cfiCommon0
          CFI Function zclGp_ManteinanceIndParse
          CFI Conditional ??CrossCallReturnLabel_7
          CFI R6 load(1, XDATA, add(CFA_XSP16, literal(-16)))
          CFI VB load(1, XDATA, add(CFA_XSP16, literal(-15)))
          CFI V0 load(1, XDATA, add(CFA_XSP16, literal(-14)))
          CFI V1 load(1, XDATA, add(CFA_XSP16, literal(-13)))
          CFI V2 load(1, XDATA, add(CFA_XSP16, literal(-12)))
          CFI V3 load(1, XDATA, add(CFA_XSP16, literal(-11)))
          CFI V4 load(1, XDATA, add(CFA_XSP16, literal(-10)))
          CFI V5 load(1, XDATA, add(CFA_XSP16, literal(-9)))
          CFI V6 load(1, XDATA, add(CFA_XSP16, literal(-8)))
          CFI V7 load(1, XDATA, add(CFA_XSP16, literal(-7)))
          CFI R7 load(1, XDATA, add(CFA_XSP16, literal(-6)))
          CFI ?RET_LOW load(1, XDATA, add(CFA_XSP16, literal(-5)))
          CFI ?RET_HIGH load(1, XDATA, add(CFA_XSP16, literal(-4)))
          CFI ?BRET_EXT load(1, XDATA, add(CFA_XSP16, literal(-3)))
          CFI DPL0 load(1, XDATA, add(CFA_XSP16, literal(-2)))
          CFI DPH0 load(1, XDATA, add(CFA_XSP16, literal(-1)))
          CFI CFA_SP SP+-2
          CFI CFA_XSP16 add(XSP16, 18)
          CFI Block cfiCond52 Using cfiCommon0
          CFI (cfiCond52) Function zclGp_DataIndParse
          CFI (cfiCond52) Conditional ??CrossCallReturnLabel_8
          CFI (cfiCond52) R6 load(1, XDATA, add(CFA_XSP16, literal(-15)))
          CFI (cfiCond52) VB load(1, XDATA, add(CFA_XSP16, literal(-14)))
          CFI (cfiCond52) V0 load(1, XDATA, add(CFA_XSP16, literal(-13)))
          CFI (cfiCond52) V1 load(1, XDATA, add(CFA_XSP16, literal(-12)))
          CFI (cfiCond52) V2 load(1, XDATA, add(CFA_XSP16, literal(-11)))
          CFI (cfiCond52) V3 load(1, XDATA, add(CFA_XSP16, literal(-10)))
          CFI (cfiCond52) V4 load(1, XDATA, add(CFA_XSP16, literal(-9)))
          CFI (cfiCond52) V5 load(1, XDATA, add(CFA_XSP16, literal(-8)))
          CFI (cfiCond52) V6 load(1, XDATA, add(CFA_XSP16, literal(-7)))
          CFI (cfiCond52) R7 load(1, XDATA, add(CFA_XSP16, literal(-6)))
          CFI (cfiCond52) ?RET_LOW load(1, XDATA, add(CFA_XSP16, literal(-5)))
          CFI (cfiCond52) ?RET_HIGH load(1, XDATA, add(CFA_XSP16, literal(-4)))
          CFI (cfiCond52) ?BRET_EXT load(1, XDATA, add(CFA_XSP16, literal(-3)))
          CFI (cfiCond52) DPL0 load(1, XDATA, add(CFA_XSP16, literal(-2)))
          CFI (cfiCond52) DPH0 load(1, XDATA, add(CFA_XSP16, literal(-1)))
          CFI (cfiCond52) CFA_SP SP+-2
          CFI (cfiCond52) CFA_XSP16 add(XSP16, 86)
          CFI Block cfiCond53 Using cfiCommon0
          CFI (cfiCond53) Function zclGp_GpProxyTableReqCB
          CFI (cfiCond53) Conditional ??CrossCallReturnLabel_9
          CFI (cfiCond53) R6 load(1, XDATA, add(CFA_XSP16, literal(-15)))
          CFI (cfiCond53) VB load(1, XDATA, add(CFA_XSP16, literal(-14)))
          CFI (cfiCond53) V0 load(1, XDATA, add(CFA_XSP16, literal(-13)))
          CFI (cfiCond53) V1 load(1, XDATA, add(CFA_XSP16, literal(-12)))
          CFI (cfiCond53) V2 load(1, XDATA, add(CFA_XSP16, literal(-11)))
          CFI (cfiCond53) V3 load(1, XDATA, add(CFA_XSP16, literal(-10)))
          CFI (cfiCond53) V4 load(1, XDATA, add(CFA_XSP16, literal(-9)))
          CFI (cfiCond53) V5 load(1, XDATA, add(CFA_XSP16, literal(-8)))
          CFI (cfiCond53) V6 load(1, XDATA, add(CFA_XSP16, literal(-7)))
          CFI (cfiCond53) R7 load(1, XDATA, add(CFA_XSP16, literal(-6)))
          CFI (cfiCond53) ?RET_LOW load(1, XDATA, add(CFA_XSP16, literal(-5)))
          CFI (cfiCond53) ?RET_HIGH load(1, XDATA, add(CFA_XSP16, literal(-4)))
          CFI (cfiCond53) ?BRET_EXT load(1, XDATA, add(CFA_XSP16, literal(-3)))
          CFI (cfiCond53) DPL0 load(1, XDATA, add(CFA_XSP16, literal(-2)))
          CFI (cfiCond53) DPH0 load(1, XDATA, add(CFA_XSP16, literal(-1)))
          CFI (cfiCond53) CFA_SP SP+-2
          CFI (cfiCond53) CFA_XSP16 add(XSP16, 181)
          CFI Block cfiPicker54 Using cfiCommon1
          CFI (cfiPicker54) NoFunction
          CFI (cfiPicker54) Picker
        LCALL     ?Subroutine54 & 0xFFFF
??CrossCallReturnLabel_94:
        RET
          CFI EndBlock cfiCond51
          CFI EndBlock cfiCond52
          CFI EndBlock cfiCond53
          CFI EndBlock cfiPicker54

        RSEG BANKED_CODE:HUGECODE:NOROOT(0)
?Subroutine54:
          CFI Block cfiCond55 Using cfiCommon0
          CFI Function zclGp_ManteinanceIndParse
          CFI Conditional ??CrossCallReturnLabel_94, ??CrossCallReturnLabel_7
          CFI R6 load(1, XDATA, add(CFA_XSP16, literal(-16)))
          CFI VB load(1, XDATA, add(CFA_XSP16, literal(-15)))
          CFI V0 load(1, XDATA, add(CFA_XSP16, literal(-14)))
          CFI V1 load(1, XDATA, add(CFA_XSP16, literal(-13)))
          CFI V2 load(1, XDATA, add(CFA_XSP16, literal(-12)))
          CFI V3 load(1, XDATA, add(CFA_XSP16, literal(-11)))
          CFI V4 load(1, XDATA, add(CFA_XSP16, literal(-10)))
          CFI V5 load(1, XDATA, add(CFA_XSP16, literal(-9)))
          CFI V6 load(1, XDATA, add(CFA_XSP16, literal(-8)))
          CFI V7 load(1, XDATA, add(CFA_XSP16, literal(-7)))
          CFI R7 load(1, XDATA, add(CFA_XSP16, literal(-6)))
          CFI ?RET_LOW load(1, XDATA, add(CFA_XSP16, literal(-5)))
          CFI ?RET_HIGH load(1, XDATA, add(CFA_XSP16, literal(-4)))
          CFI ?BRET_EXT load(1, XDATA, add(CFA_XSP16, literal(-3)))
          CFI DPL0 load(1, XDATA, add(CFA_XSP16, literal(-2)))
          CFI DPH0 load(1, XDATA, add(CFA_XSP16, literal(-1)))
          CFI CFA_SP SP+-4
          CFI CFA_XSP16 add(XSP16, 18)
          CFI Block cfiCond56 Using cfiCommon0
          CFI (cfiCond56) Function zclGp_DataIndParse
          CFI (cfiCond56) Conditional ??CrossCallReturnLabel_94, ??CrossCallReturnLabel_8
          CFI (cfiCond56) R6 load(1, XDATA, add(CFA_XSP16, literal(-15)))
          CFI (cfiCond56) VB load(1, XDATA, add(CFA_XSP16, literal(-14)))
          CFI (cfiCond56) V0 load(1, XDATA, add(CFA_XSP16, literal(-13)))
          CFI (cfiCond56) V1 load(1, XDATA, add(CFA_XSP16, literal(-12)))
          CFI (cfiCond56) V2 load(1, XDATA, add(CFA_XSP16, literal(-11)))
          CFI (cfiCond56) V3 load(1, XDATA, add(CFA_XSP16, literal(-10)))
          CFI (cfiCond56) V4 load(1, XDATA, add(CFA_XSP16, literal(-9)))
          CFI (cfiCond56) V5 load(1, XDATA, add(CFA_XSP16, literal(-8)))
          CFI (cfiCond56) V6 load(1, XDATA, add(CFA_XSP16, literal(-7)))
          CFI (cfiCond56) R7 load(1, XDATA, add(CFA_XSP16, literal(-6)))
          CFI (cfiCond56) ?RET_LOW load(1, XDATA, add(CFA_XSP16, literal(-5)))
          CFI (cfiCond56) ?RET_HIGH load(1, XDATA, add(CFA_XSP16, literal(-4)))
          CFI (cfiCond56) ?BRET_EXT load(1, XDATA, add(CFA_XSP16, literal(-3)))
          CFI (cfiCond56) DPL0 load(1, XDATA, add(CFA_XSP16, literal(-2)))
          CFI (cfiCond56) DPH0 load(1, XDATA, add(CFA_XSP16, literal(-1)))
          CFI (cfiCond56) CFA_SP SP+-4
          CFI (cfiCond56) CFA_XSP16 add(XSP16, 86)
          CFI Block cfiCond57 Using cfiCommon0
          CFI (cfiCond57) Function zclGp_GpProxyTableReqCB
          CFI (cfiCond57) Conditional ??CrossCallReturnLabel_94, ??CrossCallReturnLabel_9
          CFI (cfiCond57) R6 load(1, XDATA, add(CFA_XSP16, literal(-15)))
          CFI (cfiCond57) VB load(1, XDATA, add(CFA_XSP16, literal(-14)))
          CFI (cfiCond57) V0 load(1, XDATA, add(CFA_XSP16, literal(-13)))
          CFI (cfiCond57) V1 load(1, XDATA, add(CFA_XSP16, literal(-12)))
          CFI (cfiCond57) V2 load(1, XDATA, add(CFA_XSP16, literal(-11)))
          CFI (cfiCond57) V3 load(1, XDATA, add(CFA_XSP16, literal(-10)))
          CFI (cfiCond57) V4 load(1, XDATA, add(CFA_XSP16, literal(-9)))
          CFI (cfiCond57) V5 load(1, XDATA, add(CFA_XSP16, literal(-8)))
          CFI (cfiCond57) V6 load(1, XDATA, add(CFA_XSP16, literal(-7)))
          CFI (cfiCond57) R7 load(1, XDATA, add(CFA_XSP16, literal(-6)))
          CFI (cfiCond57) ?RET_LOW load(1, XDATA, add(CFA_XSP16, literal(-5)))
          CFI (cfiCond57) ?RET_HIGH load(1, XDATA, add(CFA_XSP16, literal(-4)))
          CFI (cfiCond57) ?BRET_EXT load(1, XDATA, add(CFA_XSP16, literal(-3)))
          CFI (cfiCond57) DPL0 load(1, XDATA, add(CFA_XSP16, literal(-2)))
          CFI (cfiCond57) DPH0 load(1, XDATA, add(CFA_XSP16, literal(-1)))
          CFI (cfiCond57) CFA_SP SP+-4
          CFI (cfiCond57) CFA_XSP16 add(XSP16, 181)
          CFI Block cfiCond58 Using cfiCommon0
          CFI (cfiCond58) Function zclGp_DataIndParse
          CFI (cfiCond58) Conditional ??CrossCallReturnLabel_95, ??CrossCallReturnLabel_85, ??CrossCallReturnLabel_0
          CFI (cfiCond58) R6 load(1, XDATA, add(CFA_XSP16, literal(-15)))
          CFI (cfiCond58) VB load(1, XDATA, add(CFA_XSP16, literal(-14)))
          CFI (cfiCond58) V0 load(1, XDATA, add(CFA_XSP16, literal(-13)))
          CFI (cfiCond58) V1 load(1, XDATA, add(CFA_XSP16, literal(-12)))
          CFI (cfiCond58) V2 load(1, XDATA, add(CFA_XSP16, literal(-11)))
          CFI (cfiCond58) V3 load(1, XDATA, add(CFA_XSP16, literal(-10)))
          CFI (cfiCond58) V4 load(1, XDATA, add(CFA_XSP16, literal(-9)))
          CFI (cfiCond58) V5 load(1, XDATA, add(CFA_XSP16, literal(-8)))
          CFI (cfiCond58) V6 load(1, XDATA, add(CFA_XSP16, literal(-7)))
          CFI (cfiCond58) R7 load(1, XDATA, add(CFA_XSP16, literal(-6)))
          CFI (cfiCond58) ?RET_LOW load(1, XDATA, add(CFA_XSP16, literal(-5)))
          CFI (cfiCond58) ?RET_HIGH load(1, XDATA, add(CFA_XSP16, literal(-4)))
          CFI (cfiCond58) ?BRET_EXT load(1, XDATA, add(CFA_XSP16, literal(-3)))
          CFI (cfiCond58) DPL0 load(1, XDATA, add(CFA_XSP16, literal(-2)))
          CFI (cfiCond58) DPH0 load(1, XDATA, add(CFA_XSP16, literal(-1)))
          CFI (cfiCond58) CFA_SP SP+-6
          CFI (cfiCond58) CFA_XSP16 add(XSP16, 86)
          CFI Block cfiCond59 Using cfiCommon0
          CFI (cfiCond59) Function zclGp_DataIndParse
          CFI (cfiCond59) Conditional ??CrossCallReturnLabel_95, ??CrossCallReturnLabel_85, ??CrossCallReturnLabel_1
          CFI (cfiCond59) R6 load(1, XDATA, add(CFA_XSP16, literal(-15)))
          CFI (cfiCond59) VB load(1, XDATA, add(CFA_XSP16, literal(-14)))
          CFI (cfiCond59) V0 load(1, XDATA, add(CFA_XSP16, literal(-13)))
          CFI (cfiCond59) V1 load(1, XDATA, add(CFA_XSP16, literal(-12)))
          CFI (cfiCond59) V2 load(1, XDATA, add(CFA_XSP16, literal(-11)))
          CFI (cfiCond59) V3 load(1, XDATA, add(CFA_XSP16, literal(-10)))
          CFI (cfiCond59) V4 load(1, XDATA, add(CFA_XSP16, literal(-9)))
          CFI (cfiCond59) V5 load(1, XDATA, add(CFA_XSP16, literal(-8)))
          CFI (cfiCond59) V6 load(1, XDATA, add(CFA_XSP16, literal(-7)))
          CFI (cfiCond59) R7 load(1, XDATA, add(CFA_XSP16, literal(-6)))
          CFI (cfiCond59) ?RET_LOW load(1, XDATA, add(CFA_XSP16, literal(-5)))
          CFI (cfiCond59) ?RET_HIGH load(1, XDATA, add(CFA_XSP16, literal(-4)))
          CFI (cfiCond59) ?BRET_EXT load(1, XDATA, add(CFA_XSP16, literal(-3)))
          CFI (cfiCond59) DPL0 load(1, XDATA, add(CFA_XSP16, literal(-2)))
          CFI (cfiCond59) DPH0 load(1, XDATA, add(CFA_XSP16, literal(-1)))
          CFI (cfiCond59) CFA_SP SP+-6
          CFI (cfiCond59) CFA_XSP16 add(XSP16, 86)
          CFI Block cfiCond60 Using cfiCommon0
          CFI (cfiCond60) Function zclGp_DataIndParse
          CFI (cfiCond60) Conditional ??CrossCallReturnLabel_95, ??CrossCallReturnLabel_85, ??CrossCallReturnLabel_2
          CFI (cfiCond60) R6 load(1, XDATA, add(CFA_XSP16, literal(-15)))
          CFI (cfiCond60) VB load(1, XDATA, add(CFA_XSP16, literal(-14)))
          CFI (cfiCond60) V0 load(1, XDATA, add(CFA_XSP16, literal(-13)))
          CFI (cfiCond60) V1 load(1, XDATA, add(CFA_XSP16, literal(-12)))
          CFI (cfiCond60) V2 load(1, XDATA, add(CFA_XSP16, literal(-11)))
          CFI (cfiCond60) V3 load(1, XDATA, add(CFA_XSP16, literal(-10)))
          CFI (cfiCond60) V4 load(1, XDATA, add(CFA_XSP16, literal(-9)))
          CFI (cfiCond60) V5 load(1, XDATA, add(CFA_XSP16, literal(-8)))
          CFI (cfiCond60) V6 load(1, XDATA, add(CFA_XSP16, literal(-7)))
          CFI (cfiCond60) R7 load(1, XDATA, add(CFA_XSP16, literal(-6)))
          CFI (cfiCond60) ?RET_LOW load(1, XDATA, add(CFA_XSP16, literal(-5)))
          CFI (cfiCond60) ?RET_HIGH load(1, XDATA, add(CFA_XSP16, literal(-4)))
          CFI (cfiCond60) ?BRET_EXT load(1, XDATA, add(CFA_XSP16, literal(-3)))
          CFI (cfiCond60) DPL0 load(1, XDATA, add(CFA_XSP16, literal(-2)))
          CFI (cfiCond60) DPH0 load(1, XDATA, add(CFA_XSP16, literal(-1)))
          CFI (cfiCond60) CFA_SP SP+-6
          CFI (cfiCond60) CFA_XSP16 add(XSP16, 86)
          CFI Block cfiCond61 Using cfiCommon0
          CFI (cfiCond61) Function zclGp_GpResponseCommandCB
          CFI (cfiCond61) Conditional ??CrossCallReturnLabel_95, ??CrossCallReturnLabel_86, ??CrossCallReturnLabel_4
          CFI (cfiCond61) R6 load(1, XDATA, add(CFA_XSP16, literal(-15)))
          CFI (cfiCond61) VB load(1, XDATA, add(CFA_XSP16, literal(-14)))
          CFI (cfiCond61) V0 load(1, XDATA, add(CFA_XSP16, literal(-13)))
          CFI (cfiCond61) V1 load(1, XDATA, add(CFA_XSP16, literal(-12)))
          CFI (cfiCond61) V2 load(1, XDATA, add(CFA_XSP16, literal(-11)))
          CFI (cfiCond61) V3 load(1, XDATA, add(CFA_XSP16, literal(-10)))
          CFI (cfiCond61) V4 load(1, XDATA, add(CFA_XSP16, literal(-9)))
          CFI (cfiCond61) V5 load(1, XDATA, add(CFA_XSP16, literal(-8)))
          CFI (cfiCond61) V6 load(1, XDATA, add(CFA_XSP16, literal(-7)))
          CFI (cfiCond61) R7 load(1, XDATA, add(CFA_XSP16, literal(-6)))
          CFI (cfiCond61) ?RET_LOW load(1, XDATA, add(CFA_XSP16, literal(-5)))
          CFI (cfiCond61) ?RET_HIGH load(1, XDATA, add(CFA_XSP16, literal(-4)))
          CFI (cfiCond61) ?BRET_EXT load(1, XDATA, add(CFA_XSP16, literal(-3)))
          CFI (cfiCond61) DPL0 load(1, XDATA, add(CFA_XSP16, literal(-2)))
          CFI (cfiCond61) DPH0 load(1, XDATA, add(CFA_XSP16, literal(-1)))
          CFI (cfiCond61) CFA_SP SP+-6
          CFI (cfiCond61) CFA_XSP16 add(XSP16, 93)
          CFI Block cfiCond62 Using cfiCommon0
          CFI (cfiCond62) Function zclGp_GpResponseCommandCB
          CFI (cfiCond62) Conditional ??CrossCallReturnLabel_95, ??CrossCallReturnLabel_86, ??CrossCallReturnLabel_3
          CFI (cfiCond62) R6 load(1, XDATA, add(CFA_XSP16, literal(-15)))
          CFI (cfiCond62) VB load(1, XDATA, add(CFA_XSP16, literal(-14)))
          CFI (cfiCond62) V0 load(1, XDATA, add(CFA_XSP16, literal(-13)))
          CFI (cfiCond62) V1 load(1, XDATA, add(CFA_XSP16, literal(-12)))
          CFI (cfiCond62) V2 load(1, XDATA, add(CFA_XSP16, literal(-11)))
          CFI (cfiCond62) V3 load(1, XDATA, add(CFA_XSP16, literal(-10)))
          CFI (cfiCond62) V4 load(1, XDATA, add(CFA_XSP16, literal(-9)))
          CFI (cfiCond62) V5 load(1, XDATA, add(CFA_XSP16, literal(-8)))
          CFI (cfiCond62) V6 load(1, XDATA, add(CFA_XSP16, literal(-7)))
          CFI (cfiCond62) R7 load(1, XDATA, add(CFA_XSP16, literal(-6)))
          CFI (cfiCond62) ?RET_LOW load(1, XDATA, add(CFA_XSP16, literal(-5)))
          CFI (cfiCond62) ?RET_HIGH load(1, XDATA, add(CFA_XSP16, literal(-4)))
          CFI (cfiCond62) ?BRET_EXT load(1, XDATA, add(CFA_XSP16, literal(-3)))
          CFI (cfiCond62) DPL0 load(1, XDATA, add(CFA_XSP16, literal(-2)))
          CFI (cfiCond62) DPH0 load(1, XDATA, add(CFA_XSP16, literal(-1)))
          CFI (cfiCond62) CFA_SP SP+-6
          CFI (cfiCond62) CFA_XSP16 add(XSP16, 93)
          CFI Block cfiCond63 Using cfiCommon0
          CFI (cfiCond63) Function gp_getProxyTableByGpId
          CFI (cfiCond63) Conditional ??CrossCallReturnLabel_95, ??CrossCallReturnLabel_87, ??CrossCallReturnLabel_5
          CFI (cfiCond63) R6 load(1, XDATA, add(CFA_XSP16, literal(-15)))
          CFI (cfiCond63) VB load(1, XDATA, add(CFA_XSP16, literal(-14)))
          CFI (cfiCond63) V0 load(1, XDATA, add(CFA_XSP16, literal(-13)))
          CFI (cfiCond63) V1 load(1, XDATA, add(CFA_XSP16, literal(-12)))
          CFI (cfiCond63) V2 load(1, XDATA, add(CFA_XSP16, literal(-11)))
          CFI (cfiCond63) V3 load(1, XDATA, add(CFA_XSP16, literal(-10)))
          CFI (cfiCond63) V4 load(1, XDATA, add(CFA_XSP16, literal(-9)))
          CFI (cfiCond63) V5 load(1, XDATA, add(CFA_XSP16, literal(-8)))
          CFI (cfiCond63) V6 load(1, XDATA, add(CFA_XSP16, literal(-7)))
          CFI (cfiCond63) R7 load(1, XDATA, add(CFA_XSP16, literal(-6)))
          CFI (cfiCond63) ?RET_LOW load(1, XDATA, add(CFA_XSP16, literal(-5)))
          CFI (cfiCond63) ?RET_HIGH load(1, XDATA, add(CFA_XSP16, literal(-4)))
          CFI (cfiCond63) ?BRET_EXT load(1, XDATA, add(CFA_XSP16, literal(-3)))
          CFI (cfiCond63) DPL0 load(1, XDATA, add(CFA_XSP16, literal(-2)))
          CFI (cfiCond63) DPH0 load(1, XDATA, add(CFA_XSP16, literal(-1)))
          CFI (cfiCond63) CFA_SP SP+-6
          CFI (cfiCond63) CFA_XSP16 add(XSP16, 19)
          CFI Block cfiCond64 Using cfiCommon0
          CFI (cfiCond64) Function gp_SecurityOperationProxy
          CFI (cfiCond64) Conditional ??CrossCallReturnLabel_95, ??CrossCallReturnLabel_87, ??CrossCallReturnLabel_6
          CFI (cfiCond64) R6 load(1, XDATA, add(CFA_XSP16, literal(-16)))
          CFI (cfiCond64) VB load(1, XDATA, add(CFA_XSP16, literal(-15)))
          CFI (cfiCond64) V0 load(1, XDATA, add(CFA_XSP16, literal(-14)))
          CFI (cfiCond64) V1 load(1, XDATA, add(CFA_XSP16, literal(-13)))
          CFI (cfiCond64) V2 load(1, XDATA, add(CFA_XSP16, literal(-12)))
          CFI (cfiCond64) V3 load(1, XDATA, add(CFA_XSP16, literal(-11)))
          CFI (cfiCond64) V4 load(1, XDATA, add(CFA_XSP16, literal(-10)))
          CFI (cfiCond64) V5 load(1, XDATA, add(CFA_XSP16, literal(-9)))
          CFI (cfiCond64) V6 load(1, XDATA, add(CFA_XSP16, literal(-8)))
          CFI (cfiCond64) V7 load(1, XDATA, add(CFA_XSP16, literal(-7)))
          CFI (cfiCond64) R7 load(1, XDATA, add(CFA_XSP16, literal(-6)))
          CFI (cfiCond64) ?RET_LOW load(1, XDATA, add(CFA_XSP16, literal(-5)))
          CFI (cfiCond64) ?RET_HIGH load(1, XDATA, add(CFA_XSP16, literal(-4)))
          CFI (cfiCond64) ?BRET_EXT load(1, XDATA, add(CFA_XSP16, literal(-3)))
          CFI (cfiCond64) DPL0 load(1, XDATA, add(CFA_XSP16, literal(-2)))
          CFI (cfiCond64) DPH0 load(1, XDATA, add(CFA_XSP16, literal(-1)))
          CFI (cfiCond64) CFA_SP SP+-6
          CFI (cfiCond64) CFA_XSP16 add(XSP16, 94)
          CFI Block cfiPicker65 Using cfiCommon1
          CFI (cfiPicker65) NoFunction
          CFI (cfiPicker65) Picker
        MOVX      @DPTR,A
        MOV       DPL,?XSP + 0
        MOV       DPH,?XSP + 1
        MOVX      A,@DPTR
        RET
          CFI EndBlock cfiCond55
          CFI EndBlock cfiCond56
          CFI EndBlock cfiCond57
          CFI EndBlock cfiCond58
          CFI EndBlock cfiCond59
          CFI EndBlock cfiCond60
          CFI EndBlock cfiCond61
          CFI EndBlock cfiCond62
          CFI EndBlock cfiCond63
          CFI EndBlock cfiCond64
          CFI EndBlock cfiPicker65

        RSEG BANKED_CODE:HUGECODE:NOROOT(0)
?Subroutine5:
          CFI Block cfiCond66 Using cfiCommon0
          CFI Function zclGp_DataIndParse
          CFI Conditional ??CrossCallReturnLabel_0
          CFI R6 load(1, XDATA, add(CFA_XSP16, literal(-15)))
          CFI VB load(1, XDATA, add(CFA_XSP16, literal(-14)))
          CFI V0 load(1, XDATA, add(CFA_XSP16, literal(-13)))
          CFI V1 load(1, XDATA, add(CFA_XSP16, literal(-12)))
          CFI V2 load(1, XDATA, add(CFA_XSP16, literal(-11)))
          CFI V3 load(1, XDATA, add(CFA_XSP16, literal(-10)))
          CFI V4 load(1, XDATA, add(CFA_XSP16, literal(-9)))
          CFI V5 load(1, XDATA, add(CFA_XSP16, literal(-8)))
          CFI V6 load(1, XDATA, add(CFA_XSP16, literal(-7)))
          CFI R7 load(1, XDATA, add(CFA_XSP16, literal(-6)))
          CFI ?RET_LOW load(1, XDATA, add(CFA_XSP16, literal(-5)))
          CFI ?RET_HIGH load(1, XDATA, add(CFA_XSP16, literal(-4)))
          CFI ?BRET_EXT load(1, XDATA, add(CFA_XSP16, literal(-3)))
          CFI DPL0 load(1, XDATA, add(CFA_XSP16, literal(-2)))
          CFI DPH0 load(1, XDATA, add(CFA_XSP16, literal(-1)))
          CFI CFA_SP SP+-2
          CFI CFA_XSP16 add(XSP16, 86)
          CFI Block cfiCond67 Using cfiCommon0
          CFI (cfiCond67) Function zclGp_DataIndParse
          CFI (cfiCond67) Conditional ??CrossCallReturnLabel_1
          CFI (cfiCond67) R6 load(1, XDATA, add(CFA_XSP16, literal(-15)))
          CFI (cfiCond67) VB load(1, XDATA, add(CFA_XSP16, literal(-14)))
          CFI (cfiCond67) V0 load(1, XDATA, add(CFA_XSP16, literal(-13)))
          CFI (cfiCond67) V1 load(1, XDATA, add(CFA_XSP16, literal(-12)))
          CFI (cfiCond67) V2 load(1, XDATA, add(CFA_XSP16, literal(-11)))
          CFI (cfiCond67) V3 load(1, XDATA, add(CFA_XSP16, literal(-10)))
          CFI (cfiCond67) V4 load(1, XDATA, add(CFA_XSP16, literal(-9)))
          CFI (cfiCond67) V5 load(1, XDATA, add(CFA_XSP16, literal(-8)))
          CFI (cfiCond67) V6 load(1, XDATA, add(CFA_XSP16, literal(-7)))
          CFI (cfiCond67) R7 load(1, XDATA, add(CFA_XSP16, literal(-6)))
          CFI (cfiCond67) ?RET_LOW load(1, XDATA, add(CFA_XSP16, literal(-5)))
          CFI (cfiCond67) ?RET_HIGH load(1, XDATA, add(CFA_XSP16, literal(-4)))
          CFI (cfiCond67) ?BRET_EXT load(1, XDATA, add(CFA_XSP16, literal(-3)))
          CFI (cfiCond67) DPL0 load(1, XDATA, add(CFA_XSP16, literal(-2)))
          CFI (cfiCond67) DPH0 load(1, XDATA, add(CFA_XSP16, literal(-1)))
          CFI (cfiCond67) CFA_SP SP+-2
          CFI (cfiCond67) CFA_XSP16 add(XSP16, 86)
          CFI Block cfiCond68 Using cfiCommon0
          CFI (cfiCond68) Function zclGp_DataIndParse
          CFI (cfiCond68) Conditional ??CrossCallReturnLabel_2
          CFI (cfiCond68) R6 load(1, XDATA, add(CFA_XSP16, literal(-15)))
          CFI (cfiCond68) VB load(1, XDATA, add(CFA_XSP16, literal(-14)))
          CFI (cfiCond68) V0 load(1, XDATA, add(CFA_XSP16, literal(-13)))
          CFI (cfiCond68) V1 load(1, XDATA, add(CFA_XSP16, literal(-12)))
          CFI (cfiCond68) V2 load(1, XDATA, add(CFA_XSP16, literal(-11)))
          CFI (cfiCond68) V3 load(1, XDATA, add(CFA_XSP16, literal(-10)))
          CFI (cfiCond68) V4 load(1, XDATA, add(CFA_XSP16, literal(-9)))
          CFI (cfiCond68) V5 load(1, XDATA, add(CFA_XSP16, literal(-8)))
          CFI (cfiCond68) V6 load(1, XDATA, add(CFA_XSP16, literal(-7)))
          CFI (cfiCond68) R7 load(1, XDATA, add(CFA_XSP16, literal(-6)))
          CFI (cfiCond68) ?RET_LOW load(1, XDATA, add(CFA_XSP16, literal(-5)))
          CFI (cfiCond68) ?RET_HIGH load(1, XDATA, add(CFA_XSP16, literal(-4)))
          CFI (cfiCond68) ?BRET_EXT load(1, XDATA, add(CFA_XSP16, literal(-3)))
          CFI (cfiCond68) DPL0 load(1, XDATA, add(CFA_XSP16, literal(-2)))
          CFI (cfiCond68) DPH0 load(1, XDATA, add(CFA_XSP16, literal(-1)))
          CFI (cfiCond68) CFA_SP SP+-2
          CFI (cfiCond68) CFA_XSP16 add(XSP16, 86)
          CFI Block cfiPicker69 Using cfiCommon1
          CFI (cfiPicker69) NoFunction
          CFI (cfiPicker69) Picker
        LCALL     ?Subroutine50 & 0xFFFF
??CrossCallReturnLabel_85:
        XCH       A,R0
        RET
          CFI EndBlock cfiCond66
          CFI EndBlock cfiCond67
          CFI EndBlock cfiCond68
          CFI EndBlock cfiPicker69
//  577 
//  578 /*********************************************************************
//  579  * @fn      zclGp_GpPairingCommandCB
//  580  *
//  581  * @brief   Callback from the ZCL GreenPower Cluster Library when
//  582  *          it received an Gp Notification Command for this application.
//  583  *
//  584  * @param   pCmd - command payload
//  585  *
//  586  * @return  none
//  587  */

        RSEG BANKED_CODE:HUGECODE:NOROOT(0)
//  588 static void zclGp_GpPairingCommandCB( zclGpPairing_t *pCmd )
zclGp_GpPairingCommandCB:
          CFI Block cfiBlock70 Using cfiCommon0
          CFI Function zclGp_GpPairingCommandCB
        CODE
//  589 {
        FUNCALL zclGp_GpPairingCommandCB, gp_ZclPairingParse
        LOCFRAME ISTACK, 2, STACK
        LOCFRAME PSTACK, 0, STACK
        LOCFRAME XSTACK, 53, STACK
        LOCFRAME IOVERLAY, 0, STATIC
        LOCFRAME DOVERLAY, 0, STATIC
        ARGFRAME ISTACK, 2, STACK
        ARGFRAME PSTACK, 0, STACK
        ARGFRAME XSTACK, 53, STACK
        ARGFRAME IOVERLAY, 0, STATIC
        ARGFRAME DOVERLAY, 0, STATIC
        FUNCALL zclGp_GpPairingCommandCB, gp_PairingUpdateProxyTlb
        LOCFRAME ISTACK, 2, STACK
        LOCFRAME PSTACK, 0, STACK
        LOCFRAME XSTACK, 53, STACK
        LOCFRAME IOVERLAY, 0, STATIC
        LOCFRAME DOVERLAY, 0, STATIC
        ARGFRAME ISTACK, 2, STACK
        ARGFRAME PSTACK, 0, STACK
        ARGFRAME XSTACK, 53, STACK
        ARGFRAME IOVERLAY, 0, STATIC
        ARGFRAME DOVERLAY, 0, STATIC
        FUNCALL zclGp_GpPairingCommandCB, gp_stopCommissioningMode
        LOCFRAME ISTACK, 2, STACK
        LOCFRAME PSTACK, 0, STACK
        LOCFRAME XSTACK, 53, STACK
        LOCFRAME IOVERLAY, 0, STATIC
        LOCFRAME DOVERLAY, 0, STATIC
        ARGFRAME ISTACK, 2, STACK
        ARGFRAME PSTACK, 0, STACK
        ARGFRAME XSTACK, 53, STACK
        ARGFRAME IOVERLAY, 0, STATIC
        ARGFRAME DOVERLAY, 0, STATIC
        PUSH      DPL
          CFI DPL0 Frame(CFA_SP, 4)
          CFI CFA_SP SP+-4
        PUSH      DPH
          CFI DPH0 Frame(CFA_SP, 5)
          CFI CFA_SP SP+-5
        ; Saved register size: 2
        ; Auto size: 53
        MOV       A,#-0x35
        LCALL     ?ALLOC_XSTACK8
          CFI CFA_XSP16 add(XSP16, 53)
//  590   gpPairingCmd_t pairingPayload = {0x00};
        MOV       DPTR,#`?<Constant {0, 0, {0, 0, 0, 0, 0, 0, 0, 0}, 0,`
        MOV       R4,?XSP + 0
        MOV       R5,?XSP + 1
        MOV       A,#0x35
        LCALL     ?MOVE_LONG8_XDATA_XDATA
//  591 
//  592   gp_ZclPairingParse( pCmd, &pairingPayload );
        ; Setup parameters for call to function gp_ZclPairingParse
        MOV       R4,?XSP + 0
        MOV       R5,?XSP + 1
        LCALL     `??gp_ZclPairingParse::?relay`; Banked call to: gp_ZclPairingParse
//  593   gp_PairingUpdateProxyTlb( &pairingPayload );
        ; Setup parameters for call to function gp_PairingUpdateProxyTlb
        MOV       R2,?XSP + 0
        MOV       R3,?XSP + 1
        LCALL     `??gp_PairingUpdateProxyTlb::?relay`; Banked call to: gp_PairingUpdateProxyTlb
//  594   
//  595   
//  596   if(gp_commissioningOptions & GP_COMM_OPT_EXIT_ON_PAIRING_SUCCESS_MASK)
        MOV       DPTR,#gp_commissioningOptions
        MOVX      A,@DPTR
        MOV       C,0xE0 /* A   */.2
        JNC       ??zclGp_GpPairingCommandCB_0
//  597   {
//  598     gp_stopCommissioningMode();
        ; Setup parameters for call to function gp_stopCommissioningMode
        LCALL     `??gp_stopCommissioningMode::?relay`; Banked call to: gp_stopCommissioningMode
//  599   }
//  600 }
??zclGp_GpPairingCommandCB_0:
        MOV       A,#0x35
        LJMP      ?Subroutine0 & 0xFFFF
          CFI EndBlock cfiBlock70
//  601 
//  602 /*********************************************************************
//  603  * @fn      zclGp_GpProxyTableReqCB
//  604  *
//  605  * @brief   Callback from the ZCL GreenPower Cluster Library when
//  606  *          it received a Gp proxy table req.
//  607  *
//  608  * @param   pCmd - command payload
//  609  *
//  610  * @return  none
//  611  */

        RSEG BANKED_CODE:HUGECODE:NOROOT(0)
//  612 static void zclGp_GpProxyTableReqCB( zclGpProxyTableRequest_t *pCmd )
zclGp_GpProxyTableReqCB:
          CFI Block cfiBlock71 Using cfiCommon0
          CFI Function zclGp_GpProxyTableReqCB
        CODE
//  613 {
        FUNCALL zclGp_GpProxyTableReqCB, gp_ZclProxyTableReqParse
        LOCFRAME ISTACK, 0, STACK
        LOCFRAME PSTACK, 0, STACK
        LOCFRAME XSTACK, 181, STACK
        LOCFRAME IOVERLAY, 0, STATIC
        LOCFRAME DOVERLAY, 0, STATIC
        ARGFRAME ISTACK, 0, STACK
        ARGFRAME PSTACK, 0, STACK
        ARGFRAME XSTACK, 181, STACK
        ARGFRAME IOVERLAY, 0, STATIC
        ARGFRAME DOVERLAY, 0, STATIC
        FUNCALL zclGp_GpProxyTableReqCB, gp_getProxyTableByIndex
        LOCFRAME ISTACK, 0, STACK
        LOCFRAME PSTACK, 0, STACK
        LOCFRAME XSTACK, 181, STACK
        LOCFRAME IOVERLAY, 0, STATIC
        LOCFRAME DOVERLAY, 0, STATIC
        ARGFRAME ISTACK, 0, STACK
        ARGFRAME PSTACK, 0, STACK
        ARGFRAME XSTACK, 181, STACK
        ARGFRAME IOVERLAY, 0, STATIC
        ARGFRAME DOVERLAY, 0, STATIC
        FUNCALL zclGp_GpProxyTableReqCB, zclGp_SendGpProxyTableResponse
        LOCFRAME ISTACK, 0, STACK
        LOCFRAME PSTACK, 0, STACK
        LOCFRAME XSTACK, 181, STACK
        LOCFRAME IOVERLAY, 0, STATIC
        LOCFRAME DOVERLAY, 0, STATIC
        ARGFRAME ISTACK, 0, STACK
        ARGFRAME PSTACK, 0, STACK
        ARGFRAME XSTACK, 181, STACK
        ARGFRAME IOVERLAY, 0, STATIC
        ARGFRAME DOVERLAY, 0, STATIC
        FUNCALL zclGp_GpProxyTableReqCB, pt_ZclReadGetProxyEntry
        LOCFRAME ISTACK, 0, STACK
        LOCFRAME PSTACK, 0, STACK
        LOCFRAME XSTACK, 183, STACK
        LOCFRAME IOVERLAY, 0, STATIC
        LOCFRAME DOVERLAY, 0, STATIC
        ARGFRAME ISTACK, 0, STACK
        ARGFRAME PSTACK, 0, STACK
        ARGFRAME XSTACK, 183, STACK
        ARGFRAME IOVERLAY, 0, STATIC
        ARGFRAME DOVERLAY, 0, STATIC
        FUNCALL zclGp_GpProxyTableReqCB, osal_mem_alloc
        LOCFRAME ISTACK, 0, STACK
        LOCFRAME PSTACK, 0, STACK
        LOCFRAME XSTACK, 181, STACK
        LOCFRAME IOVERLAY, 0, STATIC
        LOCFRAME DOVERLAY, 0, STATIC
        ARGFRAME ISTACK, 0, STACK
        ARGFRAME PSTACK, 0, STACK
        ARGFRAME XSTACK, 181, STACK
        ARGFRAME IOVERLAY, 0, STATIC
        ARGFRAME DOVERLAY, 0, STATIC
        FUNCALL zclGp_GpProxyTableReqCB, pt_ZclReadGetProxyEntry
        LOCFRAME ISTACK, 0, STACK
        LOCFRAME PSTACK, 0, STACK
        LOCFRAME XSTACK, 183, STACK
        LOCFRAME IOVERLAY, 0, STATIC
        LOCFRAME DOVERLAY, 0, STATIC
        ARGFRAME ISTACK, 0, STACK
        ARGFRAME PSTACK, 0, STACK
        ARGFRAME XSTACK, 183, STACK
        ARGFRAME IOVERLAY, 0, STATIC
        ARGFRAME DOVERLAY, 0, STATIC
        FUNCALL zclGp_GpProxyTableReqCB, osal_memcpy
        LOCFRAME ISTACK, 0, STACK
        LOCFRAME PSTACK, 0, STACK
        LOCFRAME XSTACK, 184, STACK
        LOCFRAME IOVERLAY, 0, STATIC
        LOCFRAME DOVERLAY, 0, STATIC
        ARGFRAME ISTACK, 0, STACK
        ARGFRAME PSTACK, 0, STACK
        ARGFRAME XSTACK, 184, STACK
        ARGFRAME IOVERLAY, 0, STATIC
        ARGFRAME DOVERLAY, 0, STATIC
        FUNCALL zclGp_GpProxyTableReqCB, gp_getProxyTableByGpId
        LOCFRAME ISTACK, 0, STACK
        LOCFRAME PSTACK, 0, STACK
        LOCFRAME XSTACK, 183, STACK
        LOCFRAME IOVERLAY, 0, STATIC
        LOCFRAME DOVERLAY, 0, STATIC
        ARGFRAME ISTACK, 0, STACK
        ARGFRAME PSTACK, 0, STACK
        ARGFRAME XSTACK, 183, STACK
        ARGFRAME IOVERLAY, 0, STATIC
        ARGFRAME DOVERLAY, 0, STATIC
        FUNCALL zclGp_GpProxyTableReqCB, pt_ZclReadGetProxyEntry
        LOCFRAME ISTACK, 0, STACK
        LOCFRAME PSTACK, 0, STACK
        LOCFRAME XSTACK, 183, STACK
        LOCFRAME IOVERLAY, 0, STATIC
        LOCFRAME DOVERLAY, 0, STATIC
        ARGFRAME ISTACK, 0, STACK
        ARGFRAME PSTACK, 0, STACK
        ARGFRAME XSTACK, 183, STACK
        ARGFRAME IOVERLAY, 0, STATIC
        ARGFRAME DOVERLAY, 0, STATIC
        FUNCALL zclGp_GpProxyTableReqCB, zclGp_SendGpProxyTableResponse
        LOCFRAME ISTACK, 0, STACK
        LOCFRAME PSTACK, 0, STACK
        LOCFRAME XSTACK, 181, STACK
        LOCFRAME IOVERLAY, 0, STATIC
        LOCFRAME DOVERLAY, 0, STATIC
        ARGFRAME ISTACK, 0, STACK
        ARGFRAME PSTACK, 0, STACK
        ARGFRAME XSTACK, 181, STACK
        ARGFRAME IOVERLAY, 0, STATIC
        ARGFRAME DOVERLAY, 0, STATIC
        FUNCALL zclGp_GpProxyTableReqCB, osal_mem_free
        LOCFRAME ISTACK, 0, STACK
        LOCFRAME PSTACK, 0, STACK
        LOCFRAME XSTACK, 181, STACK
        LOCFRAME IOVERLAY, 0, STATIC
        LOCFRAME DOVERLAY, 0, STATIC
        ARGFRAME ISTACK, 0, STACK
        ARGFRAME PSTACK, 0, STACK
        ARGFRAME XSTACK, 181, STACK
        ARGFRAME IOVERLAY, 0, STATIC
        ARGFRAME DOVERLAY, 0, STATIC
        FUNCALL zclGp_GpProxyTableReqCB, osal_mem_alloc
        LOCFRAME ISTACK, 0, STACK
        LOCFRAME PSTACK, 0, STACK
        LOCFRAME XSTACK, 181, STACK
        LOCFRAME IOVERLAY, 0, STATIC
        LOCFRAME DOVERLAY, 0, STATIC
        ARGFRAME ISTACK, 0, STACK
        ARGFRAME PSTACK, 0, STACK
        ARGFRAME XSTACK, 181, STACK
        ARGFRAME IOVERLAY, 0, STATIC
        ARGFRAME DOVERLAY, 0, STATIC
        FUNCALL zclGp_GpProxyTableReqCB, pt_ZclReadGetProxyEntry
        LOCFRAME ISTACK, 0, STACK
        LOCFRAME PSTACK, 0, STACK
        LOCFRAME XSTACK, 183, STACK
        LOCFRAME IOVERLAY, 0, STATIC
        LOCFRAME DOVERLAY, 0, STATIC
        ARGFRAME ISTACK, 0, STACK
        ARGFRAME PSTACK, 0, STACK
        ARGFRAME XSTACK, 183, STACK
        ARGFRAME IOVERLAY, 0, STATIC
        ARGFRAME DOVERLAY, 0, STATIC
        REQUIRE ?V0
        REQUIRE ?V1
        REQUIRE ?V2
        REQUIRE ?V3
        REQUIRE ?V4
        REQUIRE ?V5
        REQUIRE ?V6
        MOV       A,#-0xf
        LCALL     ?BANKED_ENTER_XDATA
          CFI DPH0 load(1, XDATA, add(CFA_XSP16, literal(-1)))
          CFI DPL0 load(1, XDATA, add(CFA_XSP16, literal(-2)))
          CFI ?BRET_EXT load(1, XDATA, add(CFA_XSP16, literal(-3)))
          CFI ?RET_HIGH load(1, XDATA, add(CFA_XSP16, literal(-4)))
          CFI ?RET_LOW load(1, XDATA, add(CFA_XSP16, literal(-5)))
          CFI R7 load(1, XDATA, add(CFA_XSP16, literal(-6)))
          CFI V6 load(1, XDATA, add(CFA_XSP16, literal(-7)))
          CFI V5 load(1, XDATA, add(CFA_XSP16, literal(-8)))
          CFI V4 load(1, XDATA, add(CFA_XSP16, literal(-9)))
          CFI V3 load(1, XDATA, add(CFA_XSP16, literal(-10)))
          CFI V2 load(1, XDATA, add(CFA_XSP16, literal(-11)))
          CFI V1 load(1, XDATA, add(CFA_XSP16, literal(-12)))
          CFI V0 load(1, XDATA, add(CFA_XSP16, literal(-13)))
          CFI VB load(1, XDATA, add(CFA_XSP16, literal(-14)))
          CFI R6 load(1, XDATA, add(CFA_XSP16, literal(-15)))
          CFI CFA_SP SP+0
          CFI CFA_XSP16 add(XSP16, 15)
        ; Saved register size: 15
        ; Auto size: 166
        MOV       A,#0x5a
        LCALL     ?ALLOC_XSTACK8
          CFI CFA_XSP16 add(XSP16, 181)
        MOV       A,#0xa
        LCALL     ?XSTACK_DISP0_8
        LCALL     ?Subroutine17 & 0xFFFF
//  614   uint8 i;
//  615   uint8 emptyEntry = 0;
??CrossCallReturnLabel_24:
        MOV       A,#0x9
        LCALL     ?XSTACK_DISP0_8
        CLR       A
        LCALL     ?Subroutine10 & 0xFFFF
//  616   uint8 entryLen = 0;
??CrossCallReturnLabel_13:
        MOVX      @DPTR,A
//  617   uint8 maxEntryLen = 0;
        MOV       R7,#0x0
//  618   uint8* buf = NULL;
        MOV       ?V0,A
        MOV       ?V1,A
//  619   uint8 currEntry[PROXY_TBL_ENTRY_LEN] = PROXY_BASIC_TBL_EMPTY_ENTRY;
        MOV       DPTR,#`?<Constant {255, 255, 255, 255, 255, 255, 255,_1`
        MOV       A,#0x65
        LCALL     ?XSTACK_DISP102_8
        MOV       A,#0x41
        LCALL     ?MOVE_LONG8_XDATA_XDATA
//  620   
//  621   zclGpProxyTableResponse_t proxyTblRsp = {0};
        MOV       DPTR,#`?<Constant {0}>`
        INC       A
        LCALL     ?XSTACK_DISP102_8
        MOV       A,#0x6
        LCALL     ?MOVE_LONG8_XDATA_XDATA
//  622   gpProxyTableReqCmd_t proxyTblReqPayload = {0};
        MOV       DPTR,#`?<Constant {0, 0, {0, 0, 0, 0, 0, 0, 0, 0}, 0,_1`
        MOV       A,#0x15
        LCALL     ?XSTACK_DISP102_8
        MOV       A,#0xf
        LCALL     ?MOVE_LONG8_XDATA_XDATA
//  623   
//  624   proxyTblRsp.proxyTableEntry = NULL;
        MOV       A,#0x5
        LCALL     ?XSTACK_DISP0_8
        CLR       A
        MOVX      @DPTR,A
        INC       DPTR
        MOVX      @DPTR,A
//  625   
//  626 
//  627   gp_ZclProxyTableReqParse( pCmd, &proxyTblReqPayload );
        ; Setup parameters for call to function gp_ZclProxyTableReqParse
        MOV       A,#0x15
        LCALL     ?XSTACK_DISP102_8
        MOV       A,#0xa
        LCALL     ?XSTACK_DISP0_8
        LCALL     ??Subroutine68_0 & 0xFFFF
??CrossCallReturnLabel_159:
        LCALL     `??gp_ZclProxyTableReqParse::?relay`; Banked call to: gp_ZclProxyTableReqParse
//  628   
//  629   // To get total entries for "Total number of non-empty Proxy Table entries" field
//  630   for ( i = 0; i <= GPP_MAX_PROXY_TABLE_ENTRIES; i++ )
        MOV       R6,#0x0
//  631   {
//  632     if ( gp_getProxyTableByIndex( ( ZCD_NV_PROXY_TABLE_START + i ), currEntry ) == SUCCESS )
??zclGp_GpProxyTableReqCB_0:
        ; Setup parameters for call to function gp_getProxyTableByIndex
        MOV       A,#0x65
        LCALL     ?XSTACK_DISP102_8
        LCALL     ?Subroutine48 & 0xFFFF
??CrossCallReturnLabel_118:
        LCALL     `??gp_getProxyTableByIndex::?relay`; Banked call to: gp_getProxyTableByIndex
        MOV       A,R1
        JNZ       ??zclGp_GpProxyTableReqCB_1
//  633     {
//  634       proxyTblRsp.tableEntriesTotal += 1;
        MOV       A,#0x2
        LCALL     ?XSTACK_DISP0_8
        MOVX      A,@DPTR
        INC       A
        MOVX      @DPTR,A
//  635     }
//  636   }
??zclGp_GpProxyTableReqCB_1:
        INC       R6
        MOV       A,R6
        CLR       C
        SUBB      A,#0x6
        JC        ??zclGp_GpProxyTableReqCB_0
//  637   
//  638   if ( proxyTblRsp.tableEntriesTotal == 0x00 )
        MOV       A,#0x2
        LCALL     ?XSTACK_DISP0_8
        MOVX      A,@DPTR
        JNZ       ??zclGp_GpProxyTableReqCB_2
//  639   {
//  640     proxyTblRsp.status = SUCCESS;
        MOV       A,#0x1
        LCALL     ?XSTACK_DISP0_8
        CLR       A
        MOVX      @DPTR,A
//  641     proxyTblRsp.startIndex = 0x00;
        MOV       A,#0x3
        LCALL     ?XSTACK_DISP0_8
        CLR       A
        MOVX      @DPTR,A
//  642     proxyTblRsp.entriesCount = 0x00;
        MOV       A,#0x4
        LCALL     ?XSTACK_DISP0_8
        CLR       A
        LCALL     ?Subroutine19 & 0xFFFF
//  643     // Send response and exit
//  644     zclGp_SendGpProxyTableResponse( pCmd->srcAddr, &proxyTblRsp, zcl_InSeqNum );
??CrossCallReturnLabel_31:
        LCALL     ?XSTACK_DISP102_8
        MOV       A,#0xa
        LCALL     ?XSTACK_DISP0_8
        LCALL     ?Subroutine21 & 0xFFFF
??CrossCallReturnLabel_171:
        LCALL     `??zclGp_SendGpProxyTableResponse::?relay`; Banked call to: zclGp_SendGpProxyTableResponse
//  645     return;
        LJMP      ??zclGp_GpProxyTableReqCB_3 & 0xFFFF
//  646   }
//  647   
//  648   // for Request Table Entries by Index
//  649   if ( GP_IS_REQ_TPY_INDEX ( proxyTblReqPayload.options ) )
??zclGp_GpProxyTableReqCB_2:
        MOV       A,#0x15
        LCALL     ?XSTACK_DISP0_8
        LCALL     ?Subroutine36 & 0xFFFF
??CrossCallReturnLabel_55:
        XRL       A,#0x1
        JZ        $+5
        LJMP      ??zclGp_GpProxyTableReqCB_4 & 0xFFFF
//  650   {
//  651     
//  652     for ( i = proxyTblReqPayload.index; i <= GPP_MAX_PROXY_TABLE_ENTRIES; i++ )
        MOV       A,#0x23
        LCALL     ?XSTACK_DISP0_8
        MOVX      A,@DPTR
        MOV       R6,A
        SJMP      ??zclGp_GpProxyTableReqCB_5
??zclGp_GpProxyTableReqCB_6:
        INC       R6
??zclGp_GpProxyTableReqCB_5:
        MOV       A,R6
        CLR       C
        SUBB      A,#0x6
        JNC       ??zclGp_GpProxyTableReqCB_7
//  653     {    
//  654       maxEntryLen = entryLen;    // Save the last iteration Lenght
        LCALL     ?Subroutine27 & 0xFFFF
//  655       
//  656       // Get the length of the payload
//  657       if ( pt_ZclReadGetProxyEntry ( ( ZCD_NV_PROXY_TABLE_START + i ), NULL, &entryLen ) != SUCCESS )
??CrossCallReturnLabel_37:
        LCALL     ?PUSH_XSTACK_I_TWO
          CFI CFA_XSP16 add(XSP16, 183)
        MOV       R4,#0x0
        MOV       R5,#0x0
        LCALL     ?Subroutine48 & 0xFFFF
??CrossCallReturnLabel_119:
        LCALL     `??pt_ZclReadGetProxyEntry::?relay`; Banked call to: pt_ZclReadGetProxyEntry
        MOV       A,#0x2
        LCALL     ?DEALLOC_XSTACK8
          CFI CFA_XSP16 add(XSP16, 181)
        MOV       A,R1
        JNZ       ??zclGp_GpProxyTableReqCB_7
//  658       {
//  659         break;
//  660       }
//  661       
//  662       if ( entryLen >= 75 )   // max payload for entries
        MOV       DPL,?XSP + 0
        MOV       DPH,?XSP + 1
        MOVX      A,@DPTR
        CLR       C
        SUBB      A,#0x4b
        JC        ??zclGp_GpProxyTableReqCB_6
//  663       {
//  664         entryLen = maxEntryLen;   // The last valid lenght is the MAX for this packet
        MOV       A,R7
        MOVX      @DPTR,A
//  665         break;
//  666       }
//  667     }
//  668 
//  669     if ( entryLen )
??zclGp_GpProxyTableReqCB_7:
        MOV       DPL,?XSP + 0
        MOV       DPH,?XSP + 1
        MOVX      A,@DPTR
        JZ        ??zclGp_GpProxyTableReqCB_4
//  670     {
//  671       buf = zcl_mem_alloc( entryLen );
        ; Setup parameters for call to function osal_mem_alloc
        MOV       R2,A
        MOV       R3,#0x0
        LCALL     `??osal_mem_alloc::?relay`; Banked call to: osal_mem_alloc
        MOV       ?V0,R2
        MOV       ?V1,R3
//  672       if ( buf != NULL )
        MOV       A,R2
        ORL       A,?V1
        JZ        ??zclGp_GpProxyTableReqCB_4
//  673       {
//  674         // Load the buffer - serially
//  675         uint8 *pBuf = buf;
//  676       
//  677         entryLen = 0;
        MOV       DPL,?XSP + 0
        MOV       DPH,?XSP + 1
        CLR       A
        MOVX      @DPTR,A
//  678         proxyTblRsp.entriesCount = 0;
        MOV       A,#0x4
        LCALL     ?XSTACK_DISP0_8
        CLR       A
        MOVX      @DPTR,A
//  679         for ( i = proxyTblReqPayload.index; i <= GPP_MAX_PROXY_TABLE_ENTRIES ; i++ )
        MOV       A,#0x23
        LCALL     ?XSTACK_DISP0_8
        MOVX      A,@DPTR
        MOV       R6,A
        SJMP      ??zclGp_GpProxyTableReqCB_8
??zclGp_GpProxyTableReqCB_9:
        INC       R6
??zclGp_GpProxyTableReqCB_8:
        MOV       A,R6
        CLR       C
        SUBB      A,#0x6
        JNC       ??zclGp_GpProxyTableReqCB_4
//  680         {  
//  681           if( pt_ZclReadGetProxyEntry ( ( ZCD_NV_PROXY_TABLE_START + i ), pBuf, &entryLen ) != SUCCESS )
        ; Setup parameters for call to function pt_ZclReadGetProxyEntry
        MOV       R0,?XSP + 0
        MOV       R1,?XSP + 1
        MOV       ?V2,R0
        MOV       ?V3,R1
        MOV       R0,#?V2
        LCALL     ?PUSH_XSTACK_I_TWO
          CFI CFA_XSP16 add(XSP16, 183)
        MOV       R4,?V0
        MOV       R5,?V1
        LCALL     ?Subroutine48 & 0xFFFF
??CrossCallReturnLabel_120:
        LCALL     `??pt_ZclReadGetProxyEntry::?relay`; Banked call to: pt_ZclReadGetProxyEntry
        MOV       A,#0x2
        LCALL     ?DEALLOC_XSTACK8
          CFI CFA_XSP16 add(XSP16, 181)
        MOV       A,R1
        JNZ       ??zclGp_GpProxyTableReqCB_4
//  682           {
//  683             break;
//  684           }
//  685           
//  686           proxyTblRsp.entriesCount += 1;
        MOV       A,#0x4
        LCALL     ?XSTACK_DISP0_8
        MOVX      A,@DPTR
        INC       A
        LCALL     ?Subroutine8 & 0xFFFF
//  687           if ( entryLen >= maxEntryLen )   // to see if we reched the MAX calculated payload
//  688           {
//  689             break;
//  690           }
//  691         }
//  692       }
//  693     }
//  694   }
??CrossCallReturnLabel_9:
        CLR       C
        SUBB      A,R7
        JC        ??zclGp_GpProxyTableReqCB_9
//  695   
//  696   // for Request Table Entries by GPD ID
//  697   if ( GP_IS_REQ_TYP_GPD ( proxyTblReqPayload.options ) )
??zclGp_GpProxyTableReqCB_4:
        MOV       A,#0x15
        LCALL     ?XSTACK_DISP0_8
        LCALL     ?Subroutine36 & 0xFFFF
??CrossCallReturnLabel_56:
        JZ        $+5
        LJMP      ??zclGp_GpProxyTableReqCB_10 & 0xFFFF
//  698   {
//  699     uint8 lookForEntry = 0;
//  700     gpd_ID_t gpd_ID;
//  701     uint16 NvProxyTableIndex;
//  702     uint8  ProxyTableEntryTemp[PROXY_TBL_ENTRY_LEN];
//  703     
//  704     if ( GP_IS_APPLICATION_ID_GPD( proxyTblReqPayload.options ) )
        MOVX      A,@DPTR
        ANL       A,#0x7
        MOV       R0,A
        JNZ       ??zclGp_GpProxyTableReqCB_11
//  705     {
//  706       gpd_ID.AppID = GP_OPT_APP_ID_GPD;
        MOV       A,#0xc
        LCALL     ?XSTACK_DISP0_8
        CLR       A
        MOVX      @DPTR,A
//  707       gpd_ID.GPDId.SrcID = proxyTblReqPayload.gpdId;
        MOV       A,#0x16
        LCALL     ?XSTACK_DISP0_8
        LCALL     ?XLOAD_R0123
        MOV       A,#0xd
        LCALL     ?XSTACK_DISP0_8
        LCALL     ?XSTORE_R0123
//  708       lookForEntry = 1;
//  709       proxyTblRsp.startIndex = 0xFF;
        SJMP      ??zclGp_GpProxyTableReqCB_12
//  710     }
//  711     else if ( GP_IS_APPLICATION_ID_IEEE( proxyTblReqPayload.options ) )
??zclGp_GpProxyTableReqCB_11:
        MOV       A,#0x2
        XRL       A,R0
        JZ        $+5
        LJMP      ??zclGp_GpProxyTableReqCB_10 & 0xFFFF
//  712     {
//  713       gpd_ID.AppID = GP_OPT_APP_ID_IEEE;
        MOV       A,#0xc
        LCALL     ?XSTACK_DISP0_8
        MOV       A,#0x2
        MOVX      @DPTR,A
//  714       osal_memcpy( gpd_ID.GPDId.GPDExtAddr, proxyTblReqPayload.gpdIEEE, Z_EXTADDR_LEN );
        ; Setup parameters for call to function osal_memcpy
        MOV       A,#0x1a
        LCALL     ?XSTACK_DISP0_8
        MOV       R1,DPL
        MOV       R2,DPH
        MOV       ?V4,R1
        MOV       ?V5,R2
        MOV       ?V6,#0x0
        MOV       R0,#?V4
        LCALL     ?PUSH_XSTACK_I_THREE
          CFI CFA_XSP16 add(XSP16, 184)
        MOV       R4,#0x8
        MOV       R5,#0x0
        MOV       A,#0x10
        LCALL     ?XSTACK_DISP0_8
        MOV       R2,DPL
        MOV       R3,DPH
        LCALL     `??osal_memcpy::?relay`; Banked call to: osal_memcpy
        MOV       A,#0x3
        LCALL     ?DEALLOC_XSTACK8
          CFI CFA_XSP16 add(XSP16, 181)
//  715       lookForEntry = 1;
//  716       proxyTblRsp.startIndex = 0xFF;
??zclGp_GpProxyTableReqCB_12:
        MOV       A,#0x3
        LCALL     ?XSTACK_DISP0_8
        MOV       A,#-0x1
        MOVX      @DPTR,A
//  717     }
//  718     
//  719     if ( lookForEntry )
//  720     {
//  721       if ( gp_getProxyTableByGpId(&gpd_ID, ProxyTableEntryTemp, &NvProxyTableIndex) == ZSuccess )
        ; Setup parameters for call to function gp_getProxyTableByGpId
        MOV       A,#0x7
        LCALL     ?XSTACK_DISP100_8
        MOV       ?V2,R0
        MOV       ?V3,R1
        MOV       R0,#?V2
        LCALL     ?PUSH_XSTACK_I_TWO
          CFI CFA_XSP16 add(XSP16, 183)
        MOV       A,#0x26
        LCALL     ?XSTACK_DISP102_8
        MOV       A,#0xe
        LCALL     ?XSTACK_DISP101_8
        LCALL     `??gp_getProxyTableByGpId::?relay`; Banked call to: gp_getProxyTableByGpId
        MOV       A,#0x2
        LCALL     ?DEALLOC_XSTACK8
          CFI CFA_XSP16 add(XSP16, 181)
        MOV       A,R1
        JNZ       ??zclGp_GpProxyTableReqCB_13
//  722       {    
//  723         maxEntryLen = entryLen;    // Save the last iteration Lenght
        LCALL     ?Subroutine27 & 0xFFFF
//  724         
//  725         // Get the length of the payload
//  726         if ( pt_ZclReadGetProxyEntry ( NvProxyTableIndex, NULL, &entryLen ) != ZSuccess )
??CrossCallReturnLabel_38:
        LCALL     ?PUSH_XSTACK_I_TWO
          CFI CFA_XSP16 add(XSP16, 183)
        MOV       R4,#0x0
        MOV       R5,#0x0
        MOV       A,#0x9
        LCALL     ?XSTACK_DISP0_8
        LCALL     ??Subroutine68_0 & 0xFFFF
??CrossCallReturnLabel_160:
        LCALL     `??pt_ZclReadGetProxyEntry::?relay`; Banked call to: pt_ZclReadGetProxyEntry
        MOV       A,#0x2
        LCALL     ?DEALLOC_XSTACK8
          CFI CFA_XSP16 add(XSP16, 181)
        MOV       A,R1
        MOV       DPL,?XSP + 0
        MOV       DPH,?XSP + 1
        JZ        ??zclGp_GpProxyTableReqCB_14
//  727         {
//  728           entryLen = 0;
        CLR       A
        MOVX      @DPTR,A
//  729         }
//  730       
//  731         if ( entryLen >= 75 )   // max payload for entries
//  732         {
//  733           entryLen = maxEntryLen;   // The last valid lenght is the MAX for this packet
//  734         }
//  735       }
//  736       else
//  737       {
//  738         proxyTblRsp.status = ZCL_STATUS_NOT_FOUND;
//  739       }
//  740       
//  741       if ( entryLen )
//  742       {
//  743         buf = zcl_mem_alloc( entryLen );
//  744         if ( buf != NULL )
//  745         {
//  746           // Load the buffer - serially
//  747           uint8 *pBuf = buf;
//  748         
//  749           entryLen = 0;
//  750           proxyTblRsp.entriesCount = 0;
//  751         
//  752           if ( pt_ZclReadGetProxyEntry ( NvProxyTableIndex, pBuf, &entryLen ) == SUCCESS )
//  753           {
//  754             proxyTblRsp.entriesCount = 1;
//  755           }
//  756         }
//  757       }
//  758     }
//  759   }
//  760   
//  761   // If the entry is empty then point the buffer to an empty string
//  762   if ( buf == NULL )
??zclGp_GpProxyTableReqCB_10:
        MOV       A,?V0
        ORL       A,?V1
        JNZ       ??zclGp_GpProxyTableReqCB_15
//  763   {
//  764     buf = &emptyEntry;
??zclGp_GpProxyTableReqCB_16:
        MOV       A,#0x9
        LCALL     ?XSTACK_DISP100_8
        MOV       ?V0,R0
        MOV       ?V1,R1
//  765   }
//  766 
//  767     
//  768   // Send response and exit
//  769   proxyTblRsp.startIndex = proxyTblReqPayload.index;
??zclGp_GpProxyTableReqCB_15:
        MOV       A,#0x23
        LCALL     ?XSTACK_DISP0_8
        MOVX      A,@DPTR
        PUSH      A
          CFI CFA_SP SP+-1
        MOV       A,#0x3
        LCALL     ?XSTACK_DISP0_8
        POP       A
          CFI CFA_SP SP+0
        MOVX      @DPTR,A
//  770   proxyTblRsp.proxyTableEntry = buf;
        MOV       A,#0x5
        LCALL     ?XSTACK_DISP0_8
        MOV       A,?V0
        MOVX      @DPTR,A
        INC       DPTR
        MOV       A,?V1
        LCALL     ?Subroutine19 & 0xFFFF
//  771   zclGp_SendGpProxyTableResponse( pCmd->srcAddr, &proxyTblRsp, zcl_InSeqNum );
??CrossCallReturnLabel_32:
        LCALL     ?XSTACK_DISP102_8
        MOV       A,#0xa
        LCALL     ?XSTACK_DISP0_8
        LCALL     ?Subroutine21 & 0xFFFF
??CrossCallReturnLabel_172:
        LCALL     `??zclGp_SendGpProxyTableResponse::?relay`; Banked call to: zclGp_SendGpProxyTableResponse
//  772   zcl_mem_free( buf );
        ; Setup parameters for call to function osal_mem_free
        MOV       R2,?V0
        MOV       R3,?V1
        LCALL     `??osal_mem_free::?relay`; Banked call to: osal_mem_free
//  773 }
??zclGp_GpProxyTableReqCB_3:
        MOV       A,#-0x5a
        LJMP      ?Subroutine2 & 0xFFFF
??zclGp_GpProxyTableReqCB_14:
        MOVX      A,@DPTR
        CLR       C
        SUBB      A,#0x4b
        JC        ??zclGp_GpProxyTableReqCB_17
        MOV       A,R7
        SJMP      ??zclGp_GpProxyTableReqCB_18
??zclGp_GpProxyTableReqCB_13:
        MOV       A,#0x1
        LCALL     ?XSTACK_DISP0_8
        MOV       A,#-0x75
??zclGp_GpProxyTableReqCB_18:
        MOVX      @DPTR,A
??zclGp_GpProxyTableReqCB_17:
        MOV       DPL,?XSP + 0
        MOV       DPH,?XSP + 1
        MOVX      A,@DPTR
        JZ        ??zclGp_GpProxyTableReqCB_10
        ; Setup parameters for call to function osal_mem_alloc
        MOV       R2,A
        MOV       R3,#0x0
        LCALL     `??osal_mem_alloc::?relay`; Banked call to: osal_mem_alloc
        MOV       ?V0,R2
        MOV       ?V1,R3
        MOV       A,R2
        ORL       A,?V1
        JZ        ??zclGp_GpProxyTableReqCB_16
        MOV       DPL,?XSP + 0
        MOV       DPH,?XSP + 1
        CLR       A
        MOVX      @DPTR,A
        MOV       A,#0x4
        LCALL     ?XSTACK_DISP0_8
        CLR       A
        MOVX      @DPTR,A
        ; Setup parameters for call to function pt_ZclReadGetProxyEntry
        MOV       R0,?XSP + 0
        MOV       R1,?XSP + 1
        MOV       ?V2,R0
        MOV       ?V3,R1
        MOV       R0,#?V2
        LCALL     ?PUSH_XSTACK_I_TWO
          CFI CFA_XSP16 add(XSP16, 183)
        MOV       R4,?V0
        MOV       R5,?V1
        MOV       A,#0x9
        LCALL     ?XSTACK_DISP0_8
        LCALL     ??Subroutine68_0 & 0xFFFF
??CrossCallReturnLabel_161:
        LCALL     `??pt_ZclReadGetProxyEntry::?relay`; Banked call to: pt_ZclReadGetProxyEntry
        MOV       A,#0x2
        LCALL     ?DEALLOC_XSTACK8
          CFI CFA_XSP16 add(XSP16, 181)
        MOV       A,R1
        JZ        $+5
        LJMP      ??zclGp_GpProxyTableReqCB_15 & 0xFFFF
        MOV       A,#0x4
        LCALL     ?XSTACK_DISP0_8
        MOV       A,#0x1
        MOVX      @DPTR,A
        LJMP      ??zclGp_GpProxyTableReqCB_15 & 0xFFFF
          CFI EndBlock cfiBlock71

        RSEG BANKED_CODE:HUGECODE:NOROOT(0)
?Subroutine48:
          CFI Block cfiCond72 Using cfiCommon0
          CFI Function zclGp_GpProxyTableReqCB
          CFI Conditional ??CrossCallReturnLabel_118
          CFI R6 load(1, XDATA, add(CFA_XSP16, literal(-15)))
          CFI VB load(1, XDATA, add(CFA_XSP16, literal(-14)))
          CFI V0 load(1, XDATA, add(CFA_XSP16, literal(-13)))
          CFI V1 load(1, XDATA, add(CFA_XSP16, literal(-12)))
          CFI V2 load(1, XDATA, add(CFA_XSP16, literal(-11)))
          CFI V3 load(1, XDATA, add(CFA_XSP16, literal(-10)))
          CFI V4 load(1, XDATA, add(CFA_XSP16, literal(-9)))
          CFI V5 load(1, XDATA, add(CFA_XSP16, literal(-8)))
          CFI V6 load(1, XDATA, add(CFA_XSP16, literal(-7)))
          CFI R7 load(1, XDATA, add(CFA_XSP16, literal(-6)))
          CFI ?RET_LOW load(1, XDATA, add(CFA_XSP16, literal(-5)))
          CFI ?RET_HIGH load(1, XDATA, add(CFA_XSP16, literal(-4)))
          CFI ?BRET_EXT load(1, XDATA, add(CFA_XSP16, literal(-3)))
          CFI DPL0 load(1, XDATA, add(CFA_XSP16, literal(-2)))
          CFI DPH0 load(1, XDATA, add(CFA_XSP16, literal(-1)))
          CFI CFA_SP SP+-2
          CFI CFA_XSP16 add(XSP16, 181)
          CFI Block cfiCond73 Using cfiCommon0
          CFI (cfiCond73) Function zclGp_GpProxyTableReqCB
          CFI (cfiCond73) Conditional ??CrossCallReturnLabel_119
          CFI (cfiCond73) R6 load(1, XDATA, add(CFA_XSP16, literal(-15)))
          CFI (cfiCond73) VB load(1, XDATA, add(CFA_XSP16, literal(-14)))
          CFI (cfiCond73) V0 load(1, XDATA, add(CFA_XSP16, literal(-13)))
          CFI (cfiCond73) V1 load(1, XDATA, add(CFA_XSP16, literal(-12)))
          CFI (cfiCond73) V2 load(1, XDATA, add(CFA_XSP16, literal(-11)))
          CFI (cfiCond73) V3 load(1, XDATA, add(CFA_XSP16, literal(-10)))
          CFI (cfiCond73) V4 load(1, XDATA, add(CFA_XSP16, literal(-9)))
          CFI (cfiCond73) V5 load(1, XDATA, add(CFA_XSP16, literal(-8)))
          CFI (cfiCond73) V6 load(1, XDATA, add(CFA_XSP16, literal(-7)))
          CFI (cfiCond73) R7 load(1, XDATA, add(CFA_XSP16, literal(-6)))
          CFI (cfiCond73) ?RET_LOW load(1, XDATA, add(CFA_XSP16, literal(-5)))
          CFI (cfiCond73) ?RET_HIGH load(1, XDATA, add(CFA_XSP16, literal(-4)))
          CFI (cfiCond73) ?BRET_EXT load(1, XDATA, add(CFA_XSP16, literal(-3)))
          CFI (cfiCond73) DPL0 load(1, XDATA, add(CFA_XSP16, literal(-2)))
          CFI (cfiCond73) DPH0 load(1, XDATA, add(CFA_XSP16, literal(-1)))
          CFI (cfiCond73) CFA_SP SP+-2
          CFI (cfiCond73) CFA_XSP16 add(XSP16, 183)
          CFI Block cfiCond74 Using cfiCommon0
          CFI (cfiCond74) Function zclGp_GpProxyTableReqCB
          CFI (cfiCond74) Conditional ??CrossCallReturnLabel_120
          CFI (cfiCond74) R6 load(1, XDATA, add(CFA_XSP16, literal(-15)))
          CFI (cfiCond74) VB load(1, XDATA, add(CFA_XSP16, literal(-14)))
          CFI (cfiCond74) V0 load(1, XDATA, add(CFA_XSP16, literal(-13)))
          CFI (cfiCond74) V1 load(1, XDATA, add(CFA_XSP16, literal(-12)))
          CFI (cfiCond74) V2 load(1, XDATA, add(CFA_XSP16, literal(-11)))
          CFI (cfiCond74) V3 load(1, XDATA, add(CFA_XSP16, literal(-10)))
          CFI (cfiCond74) V4 load(1, XDATA, add(CFA_XSP16, literal(-9)))
          CFI (cfiCond74) V5 load(1, XDATA, add(CFA_XSP16, literal(-8)))
          CFI (cfiCond74) V6 load(1, XDATA, add(CFA_XSP16, literal(-7)))
          CFI (cfiCond74) R7 load(1, XDATA, add(CFA_XSP16, literal(-6)))
          CFI (cfiCond74) ?RET_LOW load(1, XDATA, add(CFA_XSP16, literal(-5)))
          CFI (cfiCond74) ?RET_HIGH load(1, XDATA, add(CFA_XSP16, literal(-4)))
          CFI (cfiCond74) ?BRET_EXT load(1, XDATA, add(CFA_XSP16, literal(-3)))
          CFI (cfiCond74) DPL0 load(1, XDATA, add(CFA_XSP16, literal(-2)))
          CFI (cfiCond74) DPH0 load(1, XDATA, add(CFA_XSP16, literal(-1)))
          CFI (cfiCond74) CFA_SP SP+-2
          CFI (cfiCond74) CFA_XSP16 add(XSP16, 183)
          CFI Block cfiCond75 Using cfiCommon0
          CFI (cfiCond75) Function gp_getProxyTableByGpId
          CFI (cfiCond75) Conditional ??CrossCallReturnLabel_121
          CFI (cfiCond75) R6 load(1, XDATA, add(CFA_XSP16, literal(-15)))
          CFI (cfiCond75) VB load(1, XDATA, add(CFA_XSP16, literal(-14)))
          CFI (cfiCond75) V0 load(1, XDATA, add(CFA_XSP16, literal(-13)))
          CFI (cfiCond75) V1 load(1, XDATA, add(CFA_XSP16, literal(-12)))
          CFI (cfiCond75) V2 load(1, XDATA, add(CFA_XSP16, literal(-11)))
          CFI (cfiCond75) V3 load(1, XDATA, add(CFA_XSP16, literal(-10)))
          CFI (cfiCond75) V4 load(1, XDATA, add(CFA_XSP16, literal(-9)))
          CFI (cfiCond75) V5 load(1, XDATA, add(CFA_XSP16, literal(-8)))
          CFI (cfiCond75) V6 load(1, XDATA, add(CFA_XSP16, literal(-7)))
          CFI (cfiCond75) R7 load(1, XDATA, add(CFA_XSP16, literal(-6)))
          CFI (cfiCond75) ?RET_LOW load(1, XDATA, add(CFA_XSP16, literal(-5)))
          CFI (cfiCond75) ?RET_HIGH load(1, XDATA, add(CFA_XSP16, literal(-4)))
          CFI (cfiCond75) ?BRET_EXT load(1, XDATA, add(CFA_XSP16, literal(-3)))
          CFI (cfiCond75) DPL0 load(1, XDATA, add(CFA_XSP16, literal(-2)))
          CFI (cfiCond75) DPH0 load(1, XDATA, add(CFA_XSP16, literal(-1)))
          CFI (cfiCond75) CFA_SP SP+-2
          CFI (cfiCond75) CFA_XSP16 add(XSP16, 19)
          CFI Block cfiPicker76 Using cfiCommon1
          CFI (cfiPicker76) NoFunction
          CFI (cfiPicker76) Picker
        MOV       A,R6
          CFI EndBlock cfiCond72
          CFI EndBlock cfiCond73
          CFI EndBlock cfiCond74
          CFI EndBlock cfiCond75
          CFI EndBlock cfiPicker76
        REQUIRE ??Subroutine60_0
        ; // Fall through to label ??Subroutine60_0

        RSEG BANKED_CODE:HUGECODE:NOROOT(0)
??Subroutine60_0:
          CFI Block cfiCond77 Using cfiCommon0
          CFI Function zclGp_DataIndParse
          CFI Conditional ??CrossCallReturnLabel_116
          CFI R6 load(1, XDATA, add(CFA_XSP16, literal(-15)))
          CFI VB load(1, XDATA, add(CFA_XSP16, literal(-14)))
          CFI V0 load(1, XDATA, add(CFA_XSP16, literal(-13)))
          CFI V1 load(1, XDATA, add(CFA_XSP16, literal(-12)))
          CFI V2 load(1, XDATA, add(CFA_XSP16, literal(-11)))
          CFI V3 load(1, XDATA, add(CFA_XSP16, literal(-10)))
          CFI V4 load(1, XDATA, add(CFA_XSP16, literal(-9)))
          CFI V5 load(1, XDATA, add(CFA_XSP16, literal(-8)))
          CFI V6 load(1, XDATA, add(CFA_XSP16, literal(-7)))
          CFI R7 load(1, XDATA, add(CFA_XSP16, literal(-6)))
          CFI ?RET_LOW load(1, XDATA, add(CFA_XSP16, literal(-5)))
          CFI ?RET_HIGH load(1, XDATA, add(CFA_XSP16, literal(-4)))
          CFI ?BRET_EXT load(1, XDATA, add(CFA_XSP16, literal(-3)))
          CFI DPL0 load(1, XDATA, add(CFA_XSP16, literal(-2)))
          CFI DPH0 load(1, XDATA, add(CFA_XSP16, literal(-1)))
          CFI CFA_SP SP+-2
          CFI CFA_XSP16 add(XSP16, 86)
          CFI Block cfiCond78 Using cfiCommon0
          CFI (cfiCond78) Function gp_ZclPairingParse
          CFI (cfiCond78) Conditional ??CrossCallReturnLabel_117
          CFI (cfiCond78) R6 load(1, XDATA, add(CFA_XSP16, literal(-16)))
          CFI (cfiCond78) VB load(1, XDATA, add(CFA_XSP16, literal(-15)))
          CFI (cfiCond78) V0 load(1, XDATA, add(CFA_XSP16, literal(-14)))
          CFI (cfiCond78) V1 load(1, XDATA, add(CFA_XSP16, literal(-13)))
          CFI (cfiCond78) V2 load(1, XDATA, add(CFA_XSP16, literal(-12)))
          CFI (cfiCond78) V3 load(1, XDATA, add(CFA_XSP16, literal(-11)))
          CFI (cfiCond78) V4 load(1, XDATA, add(CFA_XSP16, literal(-10)))
          CFI (cfiCond78) V5 load(1, XDATA, add(CFA_XSP16, literal(-9)))
          CFI (cfiCond78) V6 load(1, XDATA, add(CFA_XSP16, literal(-8)))
          CFI (cfiCond78) V7 load(1, XDATA, add(CFA_XSP16, literal(-7)))
          CFI (cfiCond78) R7 load(1, XDATA, add(CFA_XSP16, literal(-6)))
          CFI (cfiCond78) ?RET_LOW load(1, XDATA, add(CFA_XSP16, literal(-5)))
          CFI (cfiCond78) ?RET_HIGH load(1, XDATA, add(CFA_XSP16, literal(-4)))
          CFI (cfiCond78) ?BRET_EXT load(1, XDATA, add(CFA_XSP16, literal(-3)))
          CFI (cfiCond78) DPL0 load(1, XDATA, add(CFA_XSP16, literal(-2)))
          CFI (cfiCond78) DPH0 load(1, XDATA, add(CFA_XSP16, literal(-1)))
          CFI (cfiCond78) CFA_SP SP+-2
          CFI (cfiCond78) CFA_XSP16 add(XSP16, 81)
          CFI Block cfiCond79 Using cfiCommon0
          CFI (cfiCond79) Function zclGp_GpProxyTableReqCB
          CFI (cfiCond79) Conditional ??CrossCallReturnLabel_118
          CFI (cfiCond79) R6 load(1, XDATA, add(CFA_XSP16, literal(-15)))
          CFI (cfiCond79) VB load(1, XDATA, add(CFA_XSP16, literal(-14)))
          CFI (cfiCond79) V0 load(1, XDATA, add(CFA_XSP16, literal(-13)))
          CFI (cfiCond79) V1 load(1, XDATA, add(CFA_XSP16, literal(-12)))
          CFI (cfiCond79) V2 load(1, XDATA, add(CFA_XSP16, literal(-11)))
          CFI (cfiCond79) V3 load(1, XDATA, add(CFA_XSP16, literal(-10)))
          CFI (cfiCond79) V4 load(1, XDATA, add(CFA_XSP16, literal(-9)))
          CFI (cfiCond79) V5 load(1, XDATA, add(CFA_XSP16, literal(-8)))
          CFI (cfiCond79) V6 load(1, XDATA, add(CFA_XSP16, literal(-7)))
          CFI (cfiCond79) R7 load(1, XDATA, add(CFA_XSP16, literal(-6)))
          CFI (cfiCond79) ?RET_LOW load(1, XDATA, add(CFA_XSP16, literal(-5)))
          CFI (cfiCond79) ?RET_HIGH load(1, XDATA, add(CFA_XSP16, literal(-4)))
          CFI (cfiCond79) ?BRET_EXT load(1, XDATA, add(CFA_XSP16, literal(-3)))
          CFI (cfiCond79) DPL0 load(1, XDATA, add(CFA_XSP16, literal(-2)))
          CFI (cfiCond79) DPH0 load(1, XDATA, add(CFA_XSP16, literal(-1)))
          CFI (cfiCond79) CFA_SP SP+-2
          CFI (cfiCond79) CFA_XSP16 add(XSP16, 181)
          CFI Block cfiCond80 Using cfiCommon0
          CFI (cfiCond80) Function zclGp_GpProxyTableReqCB
          CFI (cfiCond80) Conditional ??CrossCallReturnLabel_119
          CFI (cfiCond80) R6 load(1, XDATA, add(CFA_XSP16, literal(-15)))
          CFI (cfiCond80) VB load(1, XDATA, add(CFA_XSP16, literal(-14)))
          CFI (cfiCond80) V0 load(1, XDATA, add(CFA_XSP16, literal(-13)))
          CFI (cfiCond80) V1 load(1, XDATA, add(CFA_XSP16, literal(-12)))
          CFI (cfiCond80) V2 load(1, XDATA, add(CFA_XSP16, literal(-11)))
          CFI (cfiCond80) V3 load(1, XDATA, add(CFA_XSP16, literal(-10)))
          CFI (cfiCond80) V4 load(1, XDATA, add(CFA_XSP16, literal(-9)))
          CFI (cfiCond80) V5 load(1, XDATA, add(CFA_XSP16, literal(-8)))
          CFI (cfiCond80) V6 load(1, XDATA, add(CFA_XSP16, literal(-7)))
          CFI (cfiCond80) R7 load(1, XDATA, add(CFA_XSP16, literal(-6)))
          CFI (cfiCond80) ?RET_LOW load(1, XDATA, add(CFA_XSP16, literal(-5)))
          CFI (cfiCond80) ?RET_HIGH load(1, XDATA, add(CFA_XSP16, literal(-4)))
          CFI (cfiCond80) ?BRET_EXT load(1, XDATA, add(CFA_XSP16, literal(-3)))
          CFI (cfiCond80) DPL0 load(1, XDATA, add(CFA_XSP16, literal(-2)))
          CFI (cfiCond80) DPH0 load(1, XDATA, add(CFA_XSP16, literal(-1)))
          CFI (cfiCond80) CFA_SP SP+-2
          CFI (cfiCond80) CFA_XSP16 add(XSP16, 183)
          CFI Block cfiCond81 Using cfiCommon0
          CFI (cfiCond81) Function zclGp_GpProxyTableReqCB
          CFI (cfiCond81) Conditional ??CrossCallReturnLabel_120
          CFI (cfiCond81) R6 load(1, XDATA, add(CFA_XSP16, literal(-15)))
          CFI (cfiCond81) VB load(1, XDATA, add(CFA_XSP16, literal(-14)))
          CFI (cfiCond81) V0 load(1, XDATA, add(CFA_XSP16, literal(-13)))
          CFI (cfiCond81) V1 load(1, XDATA, add(CFA_XSP16, literal(-12)))
          CFI (cfiCond81) V2 load(1, XDATA, add(CFA_XSP16, literal(-11)))
          CFI (cfiCond81) V3 load(1, XDATA, add(CFA_XSP16, literal(-10)))
          CFI (cfiCond81) V4 load(1, XDATA, add(CFA_XSP16, literal(-9)))
          CFI (cfiCond81) V5 load(1, XDATA, add(CFA_XSP16, literal(-8)))
          CFI (cfiCond81) V6 load(1, XDATA, add(CFA_XSP16, literal(-7)))
          CFI (cfiCond81) R7 load(1, XDATA, add(CFA_XSP16, literal(-6)))
          CFI (cfiCond81) ?RET_LOW load(1, XDATA, add(CFA_XSP16, literal(-5)))
          CFI (cfiCond81) ?RET_HIGH load(1, XDATA, add(CFA_XSP16, literal(-4)))
          CFI (cfiCond81) ?BRET_EXT load(1, XDATA, add(CFA_XSP16, literal(-3)))
          CFI (cfiCond81) DPL0 load(1, XDATA, add(CFA_XSP16, literal(-2)))
          CFI (cfiCond81) DPH0 load(1, XDATA, add(CFA_XSP16, literal(-1)))
          CFI (cfiCond81) CFA_SP SP+-2
          CFI (cfiCond81) CFA_XSP16 add(XSP16, 183)
          CFI Block cfiCond82 Using cfiCommon0
          CFI (cfiCond82) Function gp_getProxyTableByGpId
          CFI (cfiCond82) Conditional ??CrossCallReturnLabel_121
          CFI (cfiCond82) R6 load(1, XDATA, add(CFA_XSP16, literal(-15)))
          CFI (cfiCond82) VB load(1, XDATA, add(CFA_XSP16, literal(-14)))
          CFI (cfiCond82) V0 load(1, XDATA, add(CFA_XSP16, literal(-13)))
          CFI (cfiCond82) V1 load(1, XDATA, add(CFA_XSP16, literal(-12)))
          CFI (cfiCond82) V2 load(1, XDATA, add(CFA_XSP16, literal(-11)))
          CFI (cfiCond82) V3 load(1, XDATA, add(CFA_XSP16, literal(-10)))
          CFI (cfiCond82) V4 load(1, XDATA, add(CFA_XSP16, literal(-9)))
          CFI (cfiCond82) V5 load(1, XDATA, add(CFA_XSP16, literal(-8)))
          CFI (cfiCond82) V6 load(1, XDATA, add(CFA_XSP16, literal(-7)))
          CFI (cfiCond82) R7 load(1, XDATA, add(CFA_XSP16, literal(-6)))
          CFI (cfiCond82) ?RET_LOW load(1, XDATA, add(CFA_XSP16, literal(-5)))
          CFI (cfiCond82) ?RET_HIGH load(1, XDATA, add(CFA_XSP16, literal(-4)))
          CFI (cfiCond82) ?BRET_EXT load(1, XDATA, add(CFA_XSP16, literal(-3)))
          CFI (cfiCond82) DPL0 load(1, XDATA, add(CFA_XSP16, literal(-2)))
          CFI (cfiCond82) DPH0 load(1, XDATA, add(CFA_XSP16, literal(-1)))
          CFI (cfiCond82) CFA_SP SP+-2
          CFI (cfiCond82) CFA_XSP16 add(XSP16, 19)
          CFI Block cfiPicker83 Using cfiCommon1
          CFI (cfiPicker83) NoFunction
          CFI (cfiPicker83) Picker
        ADD       A,#0x10
        MOV       R2,A
        CLR       A
        ADDC      A,#0x3
        MOV       R3,A
        RET
          CFI EndBlock cfiCond77
          CFI EndBlock cfiCond78
          CFI EndBlock cfiCond79
          CFI EndBlock cfiCond80
          CFI EndBlock cfiCond81
          CFI EndBlock cfiCond82
          CFI EndBlock cfiPicker83

        RSEG BANKED_CODE:HUGECODE:NOROOT(0)
?Subroutine36:
          CFI Block cfiCond84 Using cfiCommon0
          CFI Function zclGp_GpProxyTableReqCB
          CFI Conditional ??CrossCallReturnLabel_55
          CFI R6 load(1, XDATA, add(CFA_XSP16, literal(-15)))
          CFI VB load(1, XDATA, add(CFA_XSP16, literal(-14)))
          CFI V0 load(1, XDATA, add(CFA_XSP16, literal(-13)))
          CFI V1 load(1, XDATA, add(CFA_XSP16, literal(-12)))
          CFI V2 load(1, XDATA, add(CFA_XSP16, literal(-11)))
          CFI V3 load(1, XDATA, add(CFA_XSP16, literal(-10)))
          CFI V4 load(1, XDATA, add(CFA_XSP16, literal(-9)))
          CFI V5 load(1, XDATA, add(CFA_XSP16, literal(-8)))
          CFI V6 load(1, XDATA, add(CFA_XSP16, literal(-7)))
          CFI R7 load(1, XDATA, add(CFA_XSP16, literal(-6)))
          CFI ?RET_LOW load(1, XDATA, add(CFA_XSP16, literal(-5)))
          CFI ?RET_HIGH load(1, XDATA, add(CFA_XSP16, literal(-4)))
          CFI ?BRET_EXT load(1, XDATA, add(CFA_XSP16, literal(-3)))
          CFI DPL0 load(1, XDATA, add(CFA_XSP16, literal(-2)))
          CFI DPH0 load(1, XDATA, add(CFA_XSP16, literal(-1)))
          CFI CFA_SP SP+-2
          CFI CFA_XSP16 add(XSP16, 181)
          CFI Block cfiCond85 Using cfiCommon0
          CFI (cfiCond85) Function zclGp_GpProxyTableReqCB
          CFI (cfiCond85) Conditional ??CrossCallReturnLabel_56
          CFI (cfiCond85) R6 load(1, XDATA, add(CFA_XSP16, literal(-15)))
          CFI (cfiCond85) VB load(1, XDATA, add(CFA_XSP16, literal(-14)))
          CFI (cfiCond85) V0 load(1, XDATA, add(CFA_XSP16, literal(-13)))
          CFI (cfiCond85) V1 load(1, XDATA, add(CFA_XSP16, literal(-12)))
          CFI (cfiCond85) V2 load(1, XDATA, add(CFA_XSP16, literal(-11)))
          CFI (cfiCond85) V3 load(1, XDATA, add(CFA_XSP16, literal(-10)))
          CFI (cfiCond85) V4 load(1, XDATA, add(CFA_XSP16, literal(-9)))
          CFI (cfiCond85) V5 load(1, XDATA, add(CFA_XSP16, literal(-8)))
          CFI (cfiCond85) V6 load(1, XDATA, add(CFA_XSP16, literal(-7)))
          CFI (cfiCond85) R7 load(1, XDATA, add(CFA_XSP16, literal(-6)))
          CFI (cfiCond85) ?RET_LOW load(1, XDATA, add(CFA_XSP16, literal(-5)))
          CFI (cfiCond85) ?RET_HIGH load(1, XDATA, add(CFA_XSP16, literal(-4)))
          CFI (cfiCond85) ?BRET_EXT load(1, XDATA, add(CFA_XSP16, literal(-3)))
          CFI (cfiCond85) DPL0 load(1, XDATA, add(CFA_XSP16, literal(-2)))
          CFI (cfiCond85) DPH0 load(1, XDATA, add(CFA_XSP16, literal(-1)))
          CFI (cfiCond85) CFA_SP SP+-2
          CFI (cfiCond85) CFA_XSP16 add(XSP16, 181)
          CFI Block cfiPicker86 Using cfiCommon1
          CFI (cfiPicker86) NoFunction
          CFI (cfiPicker86) Picker
        MOVX      A,@DPTR
        RRC       A
        RRC       A
        RRC       A
        ANL       A,#0x1f
        ANL       A,#0x3
        RET
          CFI EndBlock cfiCond84
          CFI EndBlock cfiCond85
          CFI EndBlock cfiPicker86

        RSEG BANKED_CODE:HUGECODE:NOROOT(0)
?Subroutine27:
          CFI Block cfiCond87 Using cfiCommon0
          CFI Function zclGp_GpProxyTableReqCB
          CFI Conditional ??CrossCallReturnLabel_37
          CFI R6 load(1, XDATA, add(CFA_XSP16, literal(-15)))
          CFI VB load(1, XDATA, add(CFA_XSP16, literal(-14)))
          CFI V0 load(1, XDATA, add(CFA_XSP16, literal(-13)))
          CFI V1 load(1, XDATA, add(CFA_XSP16, literal(-12)))
          CFI V2 load(1, XDATA, add(CFA_XSP16, literal(-11)))
          CFI V3 load(1, XDATA, add(CFA_XSP16, literal(-10)))
          CFI V4 load(1, XDATA, add(CFA_XSP16, literal(-9)))
          CFI V5 load(1, XDATA, add(CFA_XSP16, literal(-8)))
          CFI V6 load(1, XDATA, add(CFA_XSP16, literal(-7)))
          CFI R7 load(1, XDATA, add(CFA_XSP16, literal(-6)))
          CFI ?RET_LOW load(1, XDATA, add(CFA_XSP16, literal(-5)))
          CFI ?RET_HIGH load(1, XDATA, add(CFA_XSP16, literal(-4)))
          CFI ?BRET_EXT load(1, XDATA, add(CFA_XSP16, literal(-3)))
          CFI DPL0 load(1, XDATA, add(CFA_XSP16, literal(-2)))
          CFI DPH0 load(1, XDATA, add(CFA_XSP16, literal(-1)))
          CFI CFA_SP SP+-2
          CFI CFA_XSP16 add(XSP16, 181)
          CFI Block cfiCond88 Using cfiCommon0
          CFI (cfiCond88) Function zclGp_GpProxyTableReqCB
          CFI (cfiCond88) Conditional ??CrossCallReturnLabel_38
          CFI (cfiCond88) R6 load(1, XDATA, add(CFA_XSP16, literal(-15)))
          CFI (cfiCond88) VB load(1, XDATA, add(CFA_XSP16, literal(-14)))
          CFI (cfiCond88) V0 load(1, XDATA, add(CFA_XSP16, literal(-13)))
          CFI (cfiCond88) V1 load(1, XDATA, add(CFA_XSP16, literal(-12)))
          CFI (cfiCond88) V2 load(1, XDATA, add(CFA_XSP16, literal(-11)))
          CFI (cfiCond88) V3 load(1, XDATA, add(CFA_XSP16, literal(-10)))
          CFI (cfiCond88) V4 load(1, XDATA, add(CFA_XSP16, literal(-9)))
          CFI (cfiCond88) V5 load(1, XDATA, add(CFA_XSP16, literal(-8)))
          CFI (cfiCond88) V6 load(1, XDATA, add(CFA_XSP16, literal(-7)))
          CFI (cfiCond88) R7 load(1, XDATA, add(CFA_XSP16, literal(-6)))
          CFI (cfiCond88) ?RET_LOW load(1, XDATA, add(CFA_XSP16, literal(-5)))
          CFI (cfiCond88) ?RET_HIGH load(1, XDATA, add(CFA_XSP16, literal(-4)))
          CFI (cfiCond88) ?BRET_EXT load(1, XDATA, add(CFA_XSP16, literal(-3)))
          CFI (cfiCond88) DPL0 load(1, XDATA, add(CFA_XSP16, literal(-2)))
          CFI (cfiCond88) DPH0 load(1, XDATA, add(CFA_XSP16, literal(-1)))
          CFI (cfiCond88) CFA_SP SP+-2
          CFI (cfiCond88) CFA_XSP16 add(XSP16, 181)
          CFI Block cfiPicker89 Using cfiCommon1
          CFI (cfiPicker89) NoFunction
          CFI (cfiPicker89) Picker
        MOV       DPL,?XSP + 0
        MOV       DPH,?XSP + 1
        MOVX      A,@DPTR
        MOV       R7,A
        ; Setup parameters for call to function pt_ZclReadGetProxyEntry
        ; Setup parameters for call to function pt_ZclReadGetProxyEntry
        MOV       R0,?XSP + 0
        MOV       R1,?XSP + 1
        MOV       ?V2,R0
        MOV       ?V3,R1
        MOV       R0,#?V2
        RET
          CFI EndBlock cfiCond87
          CFI EndBlock cfiCond88
          CFI EndBlock cfiPicker89

        RSEG BANKED_CODE:HUGECODE:NOROOT(0)
?Subroutine19:
          CFI Block cfiCond90 Using cfiCommon0
          CFI Function zclGp_GpProxyTableReqCB
          CFI Conditional ??CrossCallReturnLabel_31
          CFI R6 load(1, XDATA, add(CFA_XSP16, literal(-15)))
          CFI VB load(1, XDATA, add(CFA_XSP16, literal(-14)))
          CFI V0 load(1, XDATA, add(CFA_XSP16, literal(-13)))
          CFI V1 load(1, XDATA, add(CFA_XSP16, literal(-12)))
          CFI V2 load(1, XDATA, add(CFA_XSP16, literal(-11)))
          CFI V3 load(1, XDATA, add(CFA_XSP16, literal(-10)))
          CFI V4 load(1, XDATA, add(CFA_XSP16, literal(-9)))
          CFI V5 load(1, XDATA, add(CFA_XSP16, literal(-8)))
          CFI V6 load(1, XDATA, add(CFA_XSP16, literal(-7)))
          CFI R7 load(1, XDATA, add(CFA_XSP16, literal(-6)))
          CFI ?RET_LOW load(1, XDATA, add(CFA_XSP16, literal(-5)))
          CFI ?RET_HIGH load(1, XDATA, add(CFA_XSP16, literal(-4)))
          CFI ?BRET_EXT load(1, XDATA, add(CFA_XSP16, literal(-3)))
          CFI DPL0 load(1, XDATA, add(CFA_XSP16, literal(-2)))
          CFI DPH0 load(1, XDATA, add(CFA_XSP16, literal(-1)))
          CFI CFA_SP SP+-2
          CFI CFA_XSP16 add(XSP16, 181)
          CFI Block cfiCond91 Using cfiCommon0
          CFI (cfiCond91) Function zclGp_GpProxyTableReqCB
          CFI (cfiCond91) Conditional ??CrossCallReturnLabel_32
          CFI (cfiCond91) R6 load(1, XDATA, add(CFA_XSP16, literal(-15)))
          CFI (cfiCond91) VB load(1, XDATA, add(CFA_XSP16, literal(-14)))
          CFI (cfiCond91) V0 load(1, XDATA, add(CFA_XSP16, literal(-13)))
          CFI (cfiCond91) V1 load(1, XDATA, add(CFA_XSP16, literal(-12)))
          CFI (cfiCond91) V2 load(1, XDATA, add(CFA_XSP16, literal(-11)))
          CFI (cfiCond91) V3 load(1, XDATA, add(CFA_XSP16, literal(-10)))
          CFI (cfiCond91) V4 load(1, XDATA, add(CFA_XSP16, literal(-9)))
          CFI (cfiCond91) V5 load(1, XDATA, add(CFA_XSP16, literal(-8)))
          CFI (cfiCond91) V6 load(1, XDATA, add(CFA_XSP16, literal(-7)))
          CFI (cfiCond91) R7 load(1, XDATA, add(CFA_XSP16, literal(-6)))
          CFI (cfiCond91) ?RET_LOW load(1, XDATA, add(CFA_XSP16, literal(-5)))
          CFI (cfiCond91) ?RET_HIGH load(1, XDATA, add(CFA_XSP16, literal(-4)))
          CFI (cfiCond91) ?BRET_EXT load(1, XDATA, add(CFA_XSP16, literal(-3)))
          CFI (cfiCond91) DPL0 load(1, XDATA, add(CFA_XSP16, literal(-2)))
          CFI (cfiCond91) DPH0 load(1, XDATA, add(CFA_XSP16, literal(-1)))
          CFI (cfiCond91) CFA_SP SP+-2
          CFI (cfiCond91) CFA_XSP16 add(XSP16, 181)
          CFI Block cfiPicker92 Using cfiCommon1
          CFI (cfiPicker92) NoFunction
          CFI (cfiPicker92) Picker
        MOVX      @DPTR,A
        ; Setup parameters for call to function zclGp_SendGpProxyTableResponse
        ; Setup parameters for call to function zclGp_SendGpProxyTableResponse
        MOV       DPTR,#zcl_InSeqNum
        MOVX      A,@DPTR
        MOV       R1,A
        MOV       A,#0x1
        RET
          CFI EndBlock cfiCond90
          CFI EndBlock cfiCond91
          CFI EndBlock cfiPicker92

        RSEG BANKED_CODE:HUGECODE:NOROOT(0)
?Subroutine10:
          CFI Block cfiCond93 Using cfiCommon0
          CFI Function zclGp_ManteinanceIndParse
          CFI Conditional ??CrossCallReturnLabel_12
          CFI R6 load(1, XDATA, add(CFA_XSP16, literal(-16)))
          CFI VB load(1, XDATA, add(CFA_XSP16, literal(-15)))
          CFI V0 load(1, XDATA, add(CFA_XSP16, literal(-14)))
          CFI V1 load(1, XDATA, add(CFA_XSP16, literal(-13)))
          CFI V2 load(1, XDATA, add(CFA_XSP16, literal(-12)))
          CFI V3 load(1, XDATA, add(CFA_XSP16, literal(-11)))
          CFI V4 load(1, XDATA, add(CFA_XSP16, literal(-10)))
          CFI V5 load(1, XDATA, add(CFA_XSP16, literal(-9)))
          CFI V6 load(1, XDATA, add(CFA_XSP16, literal(-8)))
          CFI V7 load(1, XDATA, add(CFA_XSP16, literal(-7)))
          CFI R7 load(1, XDATA, add(CFA_XSP16, literal(-6)))
          CFI ?RET_LOW load(1, XDATA, add(CFA_XSP16, literal(-5)))
          CFI ?RET_HIGH load(1, XDATA, add(CFA_XSP16, literal(-4)))
          CFI ?BRET_EXT load(1, XDATA, add(CFA_XSP16, literal(-3)))
          CFI DPL0 load(1, XDATA, add(CFA_XSP16, literal(-2)))
          CFI DPH0 load(1, XDATA, add(CFA_XSP16, literal(-1)))
          CFI CFA_SP SP+-2
          CFI CFA_XSP16 add(XSP16, 18)
          CFI Block cfiCond94 Using cfiCommon0
          CFI (cfiCond94) Function zclGp_GpProxyTableReqCB
          CFI (cfiCond94) Conditional ??CrossCallReturnLabel_13
          CFI (cfiCond94) R6 load(1, XDATA, add(CFA_XSP16, literal(-15)))
          CFI (cfiCond94) VB load(1, XDATA, add(CFA_XSP16, literal(-14)))
          CFI (cfiCond94) V0 load(1, XDATA, add(CFA_XSP16, literal(-13)))
          CFI (cfiCond94) V1 load(1, XDATA, add(CFA_XSP16, literal(-12)))
          CFI (cfiCond94) V2 load(1, XDATA, add(CFA_XSP16, literal(-11)))
          CFI (cfiCond94) V3 load(1, XDATA, add(CFA_XSP16, literal(-10)))
          CFI (cfiCond94) V4 load(1, XDATA, add(CFA_XSP16, literal(-9)))
          CFI (cfiCond94) V5 load(1, XDATA, add(CFA_XSP16, literal(-8)))
          CFI (cfiCond94) V6 load(1, XDATA, add(CFA_XSP16, literal(-7)))
          CFI (cfiCond94) R7 load(1, XDATA, add(CFA_XSP16, literal(-6)))
          CFI (cfiCond94) ?RET_LOW load(1, XDATA, add(CFA_XSP16, literal(-5)))
          CFI (cfiCond94) ?RET_HIGH load(1, XDATA, add(CFA_XSP16, literal(-4)))
          CFI (cfiCond94) ?BRET_EXT load(1, XDATA, add(CFA_XSP16, literal(-3)))
          CFI (cfiCond94) DPL0 load(1, XDATA, add(CFA_XSP16, literal(-2)))
          CFI (cfiCond94) DPH0 load(1, XDATA, add(CFA_XSP16, literal(-1)))
          CFI (cfiCond94) CFA_SP SP+-2
          CFI (cfiCond94) CFA_XSP16 add(XSP16, 181)
          CFI Block cfiCond95 Using cfiCommon0
          CFI (cfiCond95) Function gp_getProxyTableByGpId
          CFI (cfiCond95) Conditional ??CrossCallReturnLabel_14
          CFI (cfiCond95) R6 load(1, XDATA, add(CFA_XSP16, literal(-15)))
          CFI (cfiCond95) VB load(1, XDATA, add(CFA_XSP16, literal(-14)))
          CFI (cfiCond95) V0 load(1, XDATA, add(CFA_XSP16, literal(-13)))
          CFI (cfiCond95) V1 load(1, XDATA, add(CFA_XSP16, literal(-12)))
          CFI (cfiCond95) V2 load(1, XDATA, add(CFA_XSP16, literal(-11)))
          CFI (cfiCond95) V3 load(1, XDATA, add(CFA_XSP16, literal(-10)))
          CFI (cfiCond95) V4 load(1, XDATA, add(CFA_XSP16, literal(-9)))
          CFI (cfiCond95) V5 load(1, XDATA, add(CFA_XSP16, literal(-8)))
          CFI (cfiCond95) V6 load(1, XDATA, add(CFA_XSP16, literal(-7)))
          CFI (cfiCond95) R7 load(1, XDATA, add(CFA_XSP16, literal(-6)))
          CFI (cfiCond95) ?RET_LOW load(1, XDATA, add(CFA_XSP16, literal(-5)))
          CFI (cfiCond95) ?RET_HIGH load(1, XDATA, add(CFA_XSP16, literal(-4)))
          CFI (cfiCond95) ?BRET_EXT load(1, XDATA, add(CFA_XSP16, literal(-3)))
          CFI (cfiCond95) DPL0 load(1, XDATA, add(CFA_XSP16, literal(-2)))
          CFI (cfiCond95) DPH0 load(1, XDATA, add(CFA_XSP16, literal(-1)))
          CFI (cfiCond95) CFA_SP SP+-2
          CFI (cfiCond95) CFA_XSP16 add(XSP16, 19)
          CFI Block cfiPicker96 Using cfiCommon1
          CFI (cfiPicker96) NoFunction
          CFI (cfiPicker96) Picker
        MOVX      @DPTR,A
        MOV       DPL,?XSP + 0
        MOV       DPH,?XSP + 1
        RET
          CFI EndBlock cfiCond93
          CFI EndBlock cfiCond94
          CFI EndBlock cfiCond95
          CFI EndBlock cfiPicker96

        RSEG XDATA_ROM_C:CONST:REORDER:NOROOT(0)
        DATA8
`?<Constant {0}>`:
        DB 0
        DB 0, 0, 0, 0, 0
//  774 
//  775 
//  776 /*********************************************************************
//  777  * @fn      zclGp_GpResponseCommandCB
//  778  *
//  779  * @brief   Callback from the ZCL GreenPower Cluster Library when
//  780  *          it received a Gp Response command. (Ref A.3.5.2.1)
//  781  *
//  782  * @param   pCmd - command payload
//  783  *
//  784  * @return  none
//  785  */

        RSEG BANKED_CODE:HUGECODE:NOROOT(0)
//  786 static void zclGp_GpResponseCommandCB(zclGpResponse_t *pCmd)
zclGp_GpResponseCommandCB:
          CFI Block cfiBlock97 Using cfiCommon0
          CFI Function zclGp_GpResponseCommandCB
        CODE
//  787 {
        FUNCALL zclGp_GpResponseCommandCB, osal_build_uint32
        LOCFRAME ISTACK, 0, STACK
        LOCFRAME PSTACK, 0, STACK
        LOCFRAME XSTACK, 93, STACK
        LOCFRAME IOVERLAY, 0, STATIC
        LOCFRAME DOVERLAY, 0, STATIC
        ARGFRAME ISTACK, 0, STACK
        ARGFRAME PSTACK, 0, STACK
        ARGFRAME XSTACK, 93, STACK
        ARGFRAME IOVERLAY, 0, STATIC
        ARGFRAME DOVERLAY, 0, STATIC
        FUNCALL zclGp_GpResponseCommandCB, osal_msg_allocate
        LOCFRAME ISTACK, 0, STACK
        LOCFRAME PSTACK, 0, STACK
        LOCFRAME XSTACK, 93, STACK
        LOCFRAME IOVERLAY, 0, STATIC
        LOCFRAME DOVERLAY, 0, STATIC
        ARGFRAME ISTACK, 0, STACK
        ARGFRAME PSTACK, 0, STACK
        ARGFRAME XSTACK, 93, STACK
        ARGFRAME IOVERLAY, 0, STATIC
        ARGFRAME DOVERLAY, 0, STATIC
        FUNCALL zclGp_GpResponseCommandCB, osal_memcpy
        LOCFRAME ISTACK, 0, STACK
        LOCFRAME PSTACK, 0, STACK
        LOCFRAME XSTACK, 96, STACK
        LOCFRAME IOVERLAY, 0, STATIC
        LOCFRAME DOVERLAY, 0, STATIC
        ARGFRAME ISTACK, 0, STACK
        ARGFRAME PSTACK, 0, STACK
        ARGFRAME XSTACK, 96, STACK
        ARGFRAME IOVERLAY, 0, STATIC
        ARGFRAME DOVERLAY, 0, STATIC
        FUNCALL zclGp_GpResponseCommandCB, osal_memcpy
        LOCFRAME ISTACK, 0, STACK
        LOCFRAME PSTACK, 0, STACK
        LOCFRAME XSTACK, 96, STACK
        LOCFRAME IOVERLAY, 0, STATIC
        LOCFRAME DOVERLAY, 0, STATIC
        ARGFRAME ISTACK, 0, STACK
        ARGFRAME PSTACK, 0, STACK
        ARGFRAME XSTACK, 96, STACK
        ARGFRAME IOVERLAY, 0, STATIC
        ARGFRAME DOVERLAY, 0, STATIC
        FUNCALL zclGp_GpResponseCommandCB, gp_GetHandle
        LOCFRAME ISTACK, 0, STACK
        LOCFRAME PSTACK, 0, STACK
        LOCFRAME XSTACK, 93, STACK
        LOCFRAME IOVERLAY, 0, STATIC
        LOCFRAME DOVERLAY, 0, STATIC
        ARGFRAME ISTACK, 0, STACK
        ARGFRAME PSTACK, 0, STACK
        ARGFRAME XSTACK, 93, STACK
        ARGFRAME IOVERLAY, 0, STATIC
        ARGFRAME DOVERLAY, 0, STATIC
        FUNCALL zclGp_GpResponseCommandCB, gp_getProxyTableByGpId
        LOCFRAME ISTACK, 0, STACK
        LOCFRAME PSTACK, 0, STACK
        LOCFRAME XSTACK, 95, STACK
        LOCFRAME IOVERLAY, 0, STATIC
        LOCFRAME DOVERLAY, 0, STATIC
        ARGFRAME ISTACK, 0, STACK
        ARGFRAME PSTACK, 0, STACK
        ARGFRAME XSTACK, 95, STACK
        ARGFRAME IOVERLAY, 0, STATIC
        ARGFRAME DOVERLAY, 0, STATIC
        FUNCALL zclGp_GpResponseCommandCB, osal_nv_write
        LOCFRAME ISTACK, 0, STACK
        LOCFRAME PSTACK, 0, STACK
        LOCFRAME XSTACK, 97, STACK
        LOCFRAME IOVERLAY, 0, STATIC
        LOCFRAME DOVERLAY, 0, STATIC
        ARGFRAME ISTACK, 0, STACK
        ARGFRAME PSTACK, 0, STACK
        ARGFRAME XSTACK, 97, STACK
        ARGFRAME IOVERLAY, 0, STATIC
        ARGFRAME DOVERLAY, 0, STATIC
        FUNCALL zclGp_GpResponseCommandCB, osal_get_timeoutEx
        LOCFRAME ISTACK, 0, STACK
        LOCFRAME PSTACK, 0, STACK
        LOCFRAME XSTACK, 93, STACK
        LOCFRAME IOVERLAY, 0, STATIC
        LOCFRAME DOVERLAY, 0, STATIC
        ARGFRAME ISTACK, 0, STACK
        ARGFRAME PSTACK, 0, STACK
        ARGFRAME XSTACK, 93, STACK
        ARGFRAME IOVERLAY, 0, STATIC
        ARGFRAME DOVERLAY, 0, STATIC
        FUNCALL zclGp_GpResponseCommandCB, ZMacSetReq
        LOCFRAME ISTACK, 0, STACK
        LOCFRAME PSTACK, 0, STACK
        LOCFRAME XSTACK, 93, STACK
        LOCFRAME IOVERLAY, 0, STATIC
        LOCFRAME DOVERLAY, 0, STATIC
        ARGFRAME ISTACK, 0, STACK
        ARGFRAME PSTACK, 0, STACK
        ARGFRAME XSTACK, 93, STACK
        ARGFRAME IOVERLAY, 0, STATIC
        ARGFRAME DOVERLAY, 0, STATIC
        FUNCALL zclGp_GpResponseCommandCB, gp_getProxyTableByGpId
        LOCFRAME ISTACK, 0, STACK
        LOCFRAME PSTACK, 0, STACK
        LOCFRAME XSTACK, 95, STACK
        LOCFRAME IOVERLAY, 0, STATIC
        LOCFRAME DOVERLAY, 0, STATIC
        ARGFRAME ISTACK, 0, STACK
        ARGFRAME PSTACK, 0, STACK
        ARGFRAME XSTACK, 95, STACK
        ARGFRAME IOVERLAY, 0, STATIC
        ARGFRAME DOVERLAY, 0, STATIC
        FUNCALL zclGp_GpResponseCommandCB, osal_nv_write
        LOCFRAME ISTACK, 0, STACK
        LOCFRAME PSTACK, 0, STACK
        LOCFRAME XSTACK, 97, STACK
        LOCFRAME IOVERLAY, 0, STATIC
        LOCFRAME DOVERLAY, 0, STATIC
        ARGFRAME ISTACK, 0, STACK
        ARGFRAME PSTACK, 0, STACK
        ARGFRAME XSTACK, 97, STACK
        ARGFRAME IOVERLAY, 0, STATIC
        ARGFRAME DOVERLAY, 0, STATIC
        FUNCALL zclGp_GpResponseCommandCB, osal_msg_send
        LOCFRAME ISTACK, 0, STACK
        LOCFRAME PSTACK, 0, STACK
        LOCFRAME XSTACK, 93, STACK
        LOCFRAME IOVERLAY, 0, STATIC
        LOCFRAME DOVERLAY, 0, STATIC
        ARGFRAME ISTACK, 0, STACK
        ARGFRAME PSTACK, 0, STACK
        ARGFRAME XSTACK, 93, STACK
        ARGFRAME IOVERLAY, 0, STATIC
        ARGFRAME DOVERLAY, 0, STATIC
        REQUIRE ?V0
        REQUIRE ?V1
        REQUIRE ?V2
        REQUIRE ?V3
        REQUIRE ?V4
        REQUIRE ?V5
        REQUIRE ?V6
        MOV       A,#-0xf
        LCALL     ?BANKED_ENTER_XDATA
          CFI DPH0 load(1, XDATA, add(CFA_XSP16, literal(-1)))
          CFI DPL0 load(1, XDATA, add(CFA_XSP16, literal(-2)))
          CFI ?BRET_EXT load(1, XDATA, add(CFA_XSP16, literal(-3)))
          CFI ?RET_HIGH load(1, XDATA, add(CFA_XSP16, literal(-4)))
          CFI ?RET_LOW load(1, XDATA, add(CFA_XSP16, literal(-5)))
          CFI R7 load(1, XDATA, add(CFA_XSP16, literal(-6)))
          CFI V6 load(1, XDATA, add(CFA_XSP16, literal(-7)))
          CFI V5 load(1, XDATA, add(CFA_XSP16, literal(-8)))
          CFI V4 load(1, XDATA, add(CFA_XSP16, literal(-9)))
          CFI V3 load(1, XDATA, add(CFA_XSP16, literal(-10)))
          CFI V2 load(1, XDATA, add(CFA_XSP16, literal(-11)))
          CFI V1 load(1, XDATA, add(CFA_XSP16, literal(-12)))
          CFI V0 load(1, XDATA, add(CFA_XSP16, literal(-13)))
          CFI VB load(1, XDATA, add(CFA_XSP16, literal(-14)))
          CFI R6 load(1, XDATA, add(CFA_XSP16, literal(-15)))
          CFI CFA_SP SP+0
          CFI CFA_XSP16 add(XSP16, 15)
        ; Saved register size: 15
        ; Auto size: 78
        MOV       A,#-0x4e
        LCALL     ?ALLOC_XSTACK8
          CFI CFA_XSP16 add(XSP16, 93)
        MOV       A,#0x2
        LCALL     ?XSTACK_DISP0_8
        LCALL     ?Subroutine17 & 0xFFFF
//  788   gp_DataReq_t  *gp_DataReq;
//  789   gpd_ID_t      gpd_ID;
//  790   uint8         endpoint = 0;
//  791   uint8         command;
//  792   uint8         payloadLen = 0;
//  793   
//  794   //No bidirectional communication in operational mode
//  795   //A.3.2.8
//  796   if(!zgGP_InCommissioningMode)
??CrossCallReturnLabel_25:
        MOV       DPTR,#zgGP_InCommissioningMode
        MOVX      A,@DPTR
        JNZ       $+5
        LJMP      ??zclGp_GpResponseCommandCB_0 & 0xFFFF
//  797   {
//  798     return;
//  799   }
//  800   
//  801   gpd_ID.AppID = pCmd->options & GP_RSP_CMD_OPT_APP_ID_MASK;
        MOV       A,#0x2
        LCALL     ?XSTACK_DISP0_8
        LCALL     ?Subroutine35 & 0xFFFF
??CrossCallReturnLabel_53:
        MOV       DPL,?XSP + 0
        MOV       DPH,?XSP + 1
        MOV       A,R0
        MOVX      @DPTR,A
        INC       DPTR
        MOV       A,R1
        LCALL     ?Subroutine6 & 0xFFFF
??CrossCallReturnLabel_4:
        ANL       A,#0x7
        PUSH      A
          CFI CFA_SP SP+-1
        MOV       A,#0x4
        LCALL     ?XSTACK_DISP0_8
        POP       A
          CFI CFA_SP SP+0
        MOVX      @DPTR,A
//  802   if(gpd_ID.AppID == GP_APP_ID_DEFAULT)
        JZ        $+5
        LJMP      ??zclGp_GpResponseCommandCB_0 & 0xFFFF
//  803   {
//  804     gpd_ID.GPDId.SrcID = osal_build_uint32(pCmd->pData,sizeof(uint32));
        MOV       A,#0x2
        LCALL     ?XSTACK_DISP0_8
        MOVX      A,@DPTR
        ADD       A,#0x6
        LCALL     ?Subroutine32 & 0xFFFF
??CrossCallReturnLabel_46:
        ; Setup parameters for call to function osal_build_uint32
        MOV       R1,#0x4
        MOV       DPL,?V0
        MOV       DPH,A
        LCALL     ??Subroutine68_0 & 0xFFFF
??CrossCallReturnLabel_162:
        LCALL     `??osal_build_uint32::?relay`; Banked call to: osal_build_uint32
        MOV       A,#0x5
        LCALL     ?XSTACK_DISP0_8
        LCALL     ?XSTORE_R2345
//  805     pCmd->pData += sizeof(uint32);
        MOV       DPL,?V0
        MOV       DPH,?V1
        MOVX      A,@DPTR
        ADD       A,#0x4
        MOV       R0,A
        INC       DPTR
        MOVX      A,@DPTR
        ADDC      A,#0x0
        MOV       R1,A
        LCALL     ?Subroutine15 & 0xFFFF
//  806   }
//  807   else if(gpd_ID.AppID == GP_APP_ID_DEFAULT)
//  808   {
//  809     gpd_ID.GPDId.SrcID = osal_build_uint32(pCmd->pData,sizeof(uint32));
//  810     pCmd->pData += sizeof(uint32);
//  811     
//  812     endpoint = *pCmd->pData;
//  813     pCmd->pData++;
//  814   }
//  815   else
//  816   {
//  817     //Invalid app ID
//  818     return;
//  819   }
//  820   
//  821   command  = *pCmd->pData;
??CrossCallReturnLabel_21:
        MOV       ?V6,A
//  822   pCmd->pData++;
        INC       DPTR
        MOV       R0,DPL
        MOV       R1,DPH
        LCALL     ?Subroutine15 & 0xFFFF
//  823   payloadLen = *pCmd->pData;
??CrossCallReturnLabel_22:
        MOV       ?V3,A
//  824   pCmd->pData++;
        INC       DPTR
        INC       R0
        MOV       R1,DPH
        LCALL     ?Subroutine16 & 0xFFFF
//  825    
//  826   gp_DataReq = (gp_DataReq_t*)osal_msg_allocate(sizeof(gp_DataReq_t) + payloadLen);  
??CrossCallReturnLabel_144:
        ; Setup parameters for call to function osal_msg_allocate
        MOV       A,?V3
        ADD       A,#0x15
        MOV       R2,A
        CLR       A
        ADDC      A,#0x0
        MOV       R3,A
        LCALL     `??osal_msg_allocate::?relay`; Banked call to: osal_msg_allocate
        MOV       ?V4,R2
        MOV       ?V5,R3
        MOV       R6,?V4
        MOV       R7,?V5
//  827   
//  828   if(gp_DataReq == NULL)
        MOV       A,R6
        ORL       A,R7
        JNZ       $+5
        LJMP      ??zclGp_GpResponseCommandCB_0 & 0xFFFF
//  829   {
//  830     //FAIL no memory
//  831     return;
//  832   }
//  833   if(payloadLen == 0xFF)
        MOV       A,#-0x1
        XRL       A,?V3
        JNZ       ??zclGp_GpResponseCommandCB_1
//  834   {
//  835     payloadLen = 0;
        MOV       ?V3,#0x0
//  836   }
//  837   gp_DataReq->TxOptions = GP_OPT_USE_TX_QUEUE_MASK;
??zclGp_GpResponseCommandCB_1:
        MOV       A,R6
        ADD       A,#0x3
        LCALL     ?Subroutine42 & 0xFFFF
??CrossCallReturnLabel_64:
        MOV       A,#0x1
        LCALL     ?Subroutine12 & 0xFFFF
//  838   gp_DataReq->EndPoint = endpoint;
??CrossCallReturnLabel_17:
        CLR       A
        LCALL     ?Subroutine20 & 0xFFFF
//  839   osal_memcpy(gp_DataReq->GPDasdu,pCmd->pData,payloadLen);
??CrossCallReturnLabel_33:
        LCALL     ??Subroutine62_0 & 0xFFFF
??CrossCallReturnLabel_125:
        LCALL     ?PUSH_XSTACK_I_THREE
          CFI CFA_XSP16 add(XSP16, 96)
        MOV       R4,?V3
        MOV       R5,#0x0
        MOV       A,R6
        ADD       A,#0x14
        MOV       R2,A
        CLR       A
        ADDC      A,R7
        MOV       R3,A
        LCALL     `??osal_memcpy::?relay`; Banked call to: osal_memcpy
        MOV       A,#0x3
        LCALL     ?DEALLOC_XSTACK8
          CFI CFA_XSP16 add(XSP16, 93)
//  840   gp_DataReq->GPDasduLength = payloadLen;
        MOV       A,R6
        ADD       A,#0x13
        MOV       DPL,A
        CLR       A
        ADDC      A,R7
        MOV       DPH,A
        MOV       A,?V3
        LCALL     ?Subroutine11 & 0xFFFF
//  841   gp_DataReq->GPDCmmdId = command;
??CrossCallReturnLabel_16:
        MOV       A,?V6
        MOVX      @DPTR,A
//  842   osal_memcpy(&gp_DataReq->gpd_ID,&gpd_ID,sizeof(gpd_ID_t));
        ; Setup parameters for call to function osal_memcpy
        MOV       A,#0x4
        LCALL     ?XSTACK_DISP100_8
        MOV       ?V0,R0
        MOV       ?V1,R1
        MOV       R0,#?V0
        LCALL     ?PUSH_XSTACK_I_THREE
          CFI CFA_XSP16 add(XSP16, 96)
        MOV       R4,#0x9
        MOV       R5,#0x0
        MOV       A,R6
        ADD       A,#0x4
        MOV       R2,A
        CLR       A
        ADDC      A,R7
        MOV       R3,A
        LCALL     `??osal_memcpy::?relay`; Banked call to: osal_memcpy
        MOV       A,#0x3
        LCALL     ?DEALLOC_XSTACK8
          CFI CFA_XSP16 add(XSP16, 93)
//  843 
//  844   gp_DataReq->GPEPhandle = gp_GetHandle(GPEP_HANDLE_TYPE);
        ; Setup parameters for call to function gp_GetHandle
        MOV       R1,#0x1
        LCALL     `??gp_GetHandle::?relay`; Banked call to: gp_GetHandle
        MOV       A,R6
        ADD       A,#0xf
        MOV       DPL,A
        CLR       A
        ADDC      A,R7
        MOV       DPH,A
        MOV       A,R1
        MOVX      @DPTR,A
//  845       
//  846   gp_DataReq->hdr.event = GP_DATA_REQ;
        MOV       DPL,R6
        MOV       DPH,R7
        MOV       A,#0x5
        MOVX      @DPTR,A
//  847   gp_DataReq->hdr.status = 0;  
        INC       DPTR
        CLR       A
        LCALL     ?Subroutine6 & 0xFFFF
//  848   
//  849   if(pCmd->options & GP_RSP_CMD_OPT_TRANSMIT_ON_ENDPOINT_MATCH_MASK)
??CrossCallReturnLabel_3:
