###############################################################################
#
# IAR C/C++ Compiler V10.10.1.4655 for 8051               22/Nov/2023  15:42:40
# Copyright 2004-2017 IAR Systems AB.
# Standalone license - IAR Embedded Workbench for 8051
#
#    Core               =  plain
#    Code model         =  banked
#    Data model         =  large
#    Calling convention =  xdata reentrant
#    Constant location  =  data_rom
#    Dptr setup         =  1,16
#                          
#    Source file        =  
#        D:\fuzzing-coordinator-response-collection\Components\stack\GP\gp_common.c
#    Command line       =  
#        -f C:\Users\ADMINI~1\AppData\Local\Temp\EW98AF.tmp
#        (D:\fuzzing-coordinator-response-collection\Components\stack\GP\gp_common.c
#        -D SECURE=1 -D TC_LINKKEY_JOIN -D NV_INIT -D NV_RESTORE -D
#        MULTICAST_ENABLED=FALSE -D ZCL_READ -D ZCL_DISCOVER -D ZCL_WRITE -D
#        ZCL_BASIC -D ZCL_IDENTIFY -D ISR_KEYINTERRUPT -D HAL_UART=TRUE -D
#        HAL_LCD=FALSE -D ZCL_ON_OFF -D INT_HEAP_LEN=2800 -D
#        HAL_UART_DMA_RX_MAX=256 -D HAL_UART_DMA_TX_MAX=256 -lC
#        D:\fuzzing-coordinator-response-collection\Projects\zstack\HomeAutomation\SampleSwitch\CC2530DB\CoordinatorEB\List
#        -lA
#        D:\fuzzing-coordinator-response-collection\Projects\zstack\HomeAutomation\SampleSwitch\CC2530DB\CoordinatorEB\List
#        --diag_suppress Pe001,Pa010 -o
#        D:\fuzzing-coordinator-response-collection\Projects\zstack\HomeAutomation\SampleSwitch\CC2530DB\CoordinatorEB\Obj
#        -e --debug --core=plain --dptr=16,1 --data_model=large
#        --code_model=banked --calling_convention=xdata_reentrant
#        --place_constants=data_rom --nr_virtual_regs 8 -f
#        D:\fuzzing-coordinator-response-collection\Projects\zstack\HomeAutomation\SampleSwitch\CC2530DB\..\..\..\Tools\CC2530DB\f8wCoord.cfg
#        (-DCPU32MHZ -DROOT=__near_func -DMAC_CFG_APP_PENDING_QUEUE=TRUE
#        -DMAC_CFG_TX_DATA_MAX=5 -DMAC_CFG_TX_MAX=8 -DMAC_CFG_RX_MAX=5
#        -DZDO_COORDINATOR -DRTR_NWK) -f
#        D:\fuzzing-coordinator-response-collection\Projects\zstack\HomeAutomation\SampleSwitch\CC2530DB\..\..\..\Tools\CC2530DB\f8wConfig.cfg
#        (-DZIGBEEPRO -DSECURE=1 -DZG_SECURE_DYNAMIC=0 -DREFLECTOR
#        -DDEFAULT_CHANLIST=0x00000800 -DZDAPP_CONFIG_PAN_ID=0xFFFF
#        -DNWK_START_DELAY=100 -DEXTENDED_JOINING_RANDOM_MASK=0x007F
#        -DBEACON_REQUEST_DELAY=100 -DBEACON_REQ_DELAY_MASK=0x00FF
#        -DLINK_STATUS_JITTER_MASK=0x007F -DROUTE_EXPIRY_TIME=30
#        -DAPSC_ACK_WAIT_DURATION_POLLED=3000 -DNWK_INDIRECT_MSG_TIMEOUT=7
#        -DMAX_RREQ_ENTRIES=8 -DAPSC_MAX_FRAME_RETRIES=3
#        -DNWK_MAX_DATA_RETRIES=2 -DMAX_POLL_FAILURE_RETRIES=2 -DMAX_BCAST=9
#        -DAPS_MAX_GROUPS=16 -DMAX_RTG_ENTRIES=40 -DNWK_MAX_BINDING_ENTRIES=4
#        -DMAX_BINDING_CLUSTER_IDS=4 "-DDEFAULT_KEY={0x00, 0x01, 0x02, 0x03,
#        0x04, 0x05, 0x06, 0x07, 0x08, 0x09, 0x0A, 0x0B, 0x0C, 0x0D, 0x0E,
#        0x0F}" -DMAC_MAX_FRAME_SIZE=116 -DZDNWKMGR_MIN_TRANSMISSIONS=20
#        "-DCONST=const __code" -DGENERIC=__generic -DRFD_RCVC_ALWAYS_ON=FALSE
#        -DPOLL_RATE=1000 -DQUEUED_POLL_RATE=100 -DRESPONSE_POLL_RATE=100
#        -DREJOIN_POLL_RATE=440 -DREJOIN_BACKOFF=900000 -DREJOIN_SCAN=900000
#        -DENABLE_LED4_DISABLE_S1) -f
#        D:\fuzzing-coordinator-response-collection\Projects\zstack\HomeAutomation\SampleSwitch\CC2530DB\..\..\..\Tools\CC2530DB\f8wZCL.cfg
#        -I
#        D:\fuzzing-coordinator-response-collection\Projects\zstack\HomeAutomation\SampleSwitch\CC2530DB\
#        -I
#        D:\fuzzing-coordinator-response-collection\Projects\zstack\HomeAutomation\SampleSwitch\CC2530DB\..\Source\
#        -I
#        D:\fuzzing-coordinator-response-collection\Projects\zstack\HomeAutomation\SampleSwitch\CC2530DB\..\..\Source\
#        -I
#        D:\fuzzing-coordinator-response-collection\Projects\zstack\HomeAutomation\SampleSwitch\CC2530DB\..\..\..\ZMain\TI2530DB\
#        -I
#        D:\fuzzing-coordinator-response-collection\Projects\zstack\HomeAutomation\SampleSwitch\CC2530DB\..\..\..\..\..\Components\hal\include\
#        -I
#        D:\fuzzing-coordinator-response-collection\Projects\zstack\HomeAutomation\SampleSwitch\CC2530DB\..\..\..\..\..\Components\hal\target\CC2530EB\
#        -I
#        D:\fuzzing-coordinator-response-collection\Projects\zstack\HomeAutomation\SampleSwitch\CC2530DB\..\..\..\..\..\Components\mac\include\
#        -I
#        D:\fuzzing-coordinator-response-collection\Projects\zstack\HomeAutomation\SampleSwitch\CC2530DB\..\..\..\..\..\Components\mac\high_level\
#        -I
#        D:\fuzzing-coordinator-response-collection\Projects\zstack\HomeAutomation\SampleSwitch\CC2530DB\..\..\..\..\..\Components\mac\low_level\srf04\
#        -I
#        D:\fuzzing-coordinator-response-collection\Projects\zstack\HomeAutomation\SampleSwitch\CC2530DB\..\..\..\..\..\Components\mac\low_level\srf04\single_chip\
#        -I
#        D:\fuzzing-coordinator-response-collection\Projects\zstack\HomeAutomation\SampleSwitch\CC2530DB\..\..\..\..\..\Components\mt\
#        -I
#        D:\fuzzing-coordinator-response-collection\Projects\zstack\HomeAutomation\SampleSwitch\CC2530DB\..\..\..\..\..\Components\osal\include\
#        -I
#        D:\fuzzing-coordinator-response-collection\Projects\zstack\HomeAutomation\SampleSwitch\CC2530DB\..\..\..\..\..\Components\services\saddr\
#        -I
#        D:\fuzzing-coordinator-response-collection\Projects\zstack\HomeAutomation\SampleSwitch\CC2530DB\..\..\..\..\..\Components\services\sdata\
#        -I
#        D:\fuzzing-coordinator-response-collection\Projects\zstack\HomeAutomation\SampleSwitch\CC2530DB\..\..\..\..\..\Components\stack\af\
#        -I
#        D:\fuzzing-coordinator-response-collection\Projects\zstack\HomeAutomation\SampleSwitch\CC2530DB\..\..\..\..\..\Components\stack\bdb\
#        -I
#        D:\fuzzing-coordinator-response-collection\Projects\zstack\HomeAutomation\SampleSwitch\CC2530DB\..\..\..\..\..\Components\stack\gp\
#        -I
#        D:\fuzzing-coordinator-response-collection\Projects\zstack\HomeAutomation\SampleSwitch\CC2530DB\..\..\..\..\..\Components\stack\nwk\
#        -I
#        D:\fuzzing-coordinator-response-collection\Projects\zstack\HomeAutomation\SampleSwitch\CC2530DB\..\..\..\..\..\Components\stack\sapi\
#        -I
#        D:\fuzzing-coordinator-response-collection\Projects\zstack\HomeAutomation\SampleSwitch\CC2530DB\..\..\..\..\..\Components\stack\sec\
#        -I
#        D:\fuzzing-coordinator-response-collection\Projects\zstack\HomeAutomation\SampleSwitch\CC2530DB\..\..\..\..\..\Components\stack\sys\
#        -I
#        D:\fuzzing-coordinator-response-collection\Projects\zstack\HomeAutomation\SampleSwitch\CC2530DB\..\..\..\..\..\Components\stack\zcl\
#        -I
#        D:\fuzzing-coordinator-response-collection\Projects\zstack\HomeAutomation\SampleSwitch\CC2530DB\..\..\..\..\..\Components\stack\zdo\
#        -I
#        D:\fuzzing-coordinator-response-collection\Projects\zstack\HomeAutomation\SampleSwitch\CC2530DB\..\..\..\..\..\Components\zmac\
#        -I
#        D:\fuzzing-coordinator-response-collection\Projects\zstack\HomeAutomation\SampleSwitch\CC2530DB\..\..\..\..\..\Components\zmac\f8w\
#        -I
#        D:\fuzzing-coordinator-response-collection\Projects\zstack\HomeAutomation\SampleSwitch\CC2530DB\..\..\..\..\..\Components\hal\target\CC2530EB\Common\
#        -I
#        D:\fuzzing-coordinator-response-collection\Projects\zstack\HomeAutomation\SampleSwitch\CC2530DB\..\..\..\..\..\Components\hal\target\CC2530EB\SPI\
#        -I
#        D:\fuzzing-coordinator-response-collection\Projects\zstack\HomeAutomation\SampleSwitch\CC2530DB\..\..\..\..\..\Components\hal\target\CC2530EB\HW_LCD\Font\
#        -I
#        D:\fuzzing-coordinator-response-collection\Projects\zstack\HomeAutomation\SampleSwitch\CC2530DB\..\..\..\..\..\Components\hal\target\CC2530EB\HW_LCD\HAL_LCD_SPI\
#        -I
#        D:\fuzzing-coordinator-response-collection\Projects\zstack\HomeAutomation\SampleSwitch\CC2530DB\..\..\..\..\..\Components\hal\target\CC2530EB\HW_LCD\HAL_OLED\
#        -I
#        D:\fuzzing-coordinator-response-collection\Projects\zstack\HomeAutomation\SampleSwitch\CC2530DB\..\..\..\..\..\Components\hal\target\CC2530EB\HW_LCD\HAL_TFT\
#        -Ohz --require_prototypes)
#    Locale             =  Chinese (Simplified)_China.936
#    List file          =  
#        D:\fuzzing-coordinator-response-collection\Projects\zstack\HomeAutomation\SampleSwitch\CC2530DB\CoordinatorEB\List\gp_common.lst
#    Object file        =  
#        D:\fuzzing-coordinator-response-collection\Projects\zstack\HomeAutomation\SampleSwitch\CC2530DB\CoordinatorEB\Obj\gp_common.r51
#
###############################################################################

D:\fuzzing-coordinator-response-collection\Components\stack\GP\gp_common.c
      1          /**************************************************************************************************
      2            Filename:       gp_common.c
      3            Revised:        $Date: 2016-02-25 11:51:49 -0700 (Thu, 25 Feb 2016) $
      4            Revision:       $Revision: - $
      5          
      6            Description:    This file contains the implementation of the cGP stub.
      7          
      8          
      9            Copyright 2006-2015 Texas Instruments Incorporated. All rights reserved.
     10          
     11            IMPORTANT: Your use of this Software is limited to those specific rights
     12            granted under the terms of a software license agreement between the user
     13            who downloaded the software, his/her employer (which must be your employer)
     14            and Texas Instruments Incorporated (the "License").  You may not use this
     15            Software unless you agree to abide by the terms of the License. The License
     16            limits your use, and you acknowledge, that the Software may not be modified,
     17            copied or distributed unless embedded on a Texas Instruments microcontroller
     18            or used solely and exclusively in conjunction with a Texas Instruments radio
     19            frequency transceiver, which is integrated into your product.  Other than for
     20            the foregoing purpose, you may not use, reproduce, copy, prepare derivative
     21            works of, modify, distribute, perform, display or sell this Software and/or
     22            its documentation for any purpose.
     23          
     24            YOU FURTHER ACKNOWLEDGE AND AGREE THAT THE SOFTWARE AND DOCUMENTATION ARE
     25            PROVIDED "AS IS" WITHOUT WARRANTY OF ANY KIND, EITHER EXPRESS OR IMPLIED,
     26            INCLUDING WITHOUT LIMITATION, ANY WARRANTY OF MERCHANTABILITY, TITLE,
     27            NON-INFRINGEMENT AND FITNESS FOR A PARTICULAR PURPOSE. IN NO EVENT SHALL
     28            TEXAS INSTRUMENTS OR ITS LICENSORS BE LIABLE OR OBLIGATED UNDER CONTRACT,
     29            NEGLIGENCE, STRICT LIABILITY, CONTRIBUTION, BREACH OF WARRANTY, OR OTHER
     30            LEGAL EQUITABLE THEORY ANY DIRECT OR INDIRECT DAMAGES OR EXPENSES
     31            INCLUDING BUT NOT LIMITED TO ANY INCIDENTAL, SPECIAL, INDIRECT, PUNITIVE
     32            OR CONSEQUENTIAL DAMAGES, LOST PROFITS OR LOST DATA, COST OF PROCUREMENT
     33            OF SUBSTITUTE GOODS, TECHNOLOGY, SERVICES, OR ANY CLAIMS BY THIRD PARTIES
     34            (INCLUDING BUT NOT LIMITED TO ANY DEFENSE THEREOF), OR OTHER SIMILAR COSTS.
     35          
     36            Should you have any questions regarding your right to use this Software,
     37            contact Texas Instruments Incorporated at www.TI.com.
     38          **************************************************************************************************/
     39          
     40          /*********************************************************************
     41           * INCLUDES
     42           */
     43          
     44          #include "ZGlobals.h"
     45          #include "ZComDef.h"
     46          #include "zcl_general.h"
     47          #include "AF.h"
     48          #include "gp_common.h"
     49          #include "gp_interface.h"
     50          #include "zcl_green_power.h"
     51          #include "OSAL.h"
     52          #include "dGP_stub.h"
     53          #include "mac_api.h"
     54          #include "ZDSecMgr.h"
     55          #include "bdb.h"
     56          
     57          #if !defined (DISABLE_GREENPOWER_BASIC_PROXY) && (ZG_BUILD_RTR_TYPE)
     58          
     59           /*********************************************************************
     60           * MACROS
     61           */ 
     62          
     63             
     64           /*********************************************************************
     65           * CONSTANTS
     66           */
     67          
     68          #define PGG_COMMISSIONING_WINDOW   180  //180 seconds by defaut
     69          
     70          
     71          #ifdef GP_SHARED_KEY

   \                                 In  segment CODE_C, align 1
     72            CONFIG_ITEM uint8 zgpSharedKey[SEC_KEY_LEN] = GP_SHARED_KEY;
   \                     zgpSharedKey:
   \   000000   C0           DB 192
   \   000001   C1           DB 193
   \   000002   C2           DB 194
   \   000003   C3           DB 195
   \   000004   C4           DB 196
   \   000005   C5           DB 197
   \   000006   C6           DB 198
   \   000007   C7           DB 199
   \   000008   C8           DB 200
   \   000009   C9           DB 201
   \   00000A   CA           DB 202
   \   00000B   CB           DB 203
   \   00000C   CC           DB 204
   \   00000D   CD           DB 205
   \   00000E   CE           DB 206
   \   00000F   CF           DB 207
     73          #else
     74            CONFIG_ITEM uint8 zgpSharedKey[SEC_KEY_LEN] = {0xFF};
     75          #endif
     76          
     77          /*********************************************************************
     78           * TYPEDEFS
     79           */
     80             
     81           /*********************************************************************
     82           * GLOBAL VARIABLES
     83           */
     84          
     85          

   \                                 In  segment XDATA_I, align 1, keep-with-next
     86          uint8  zclGp_gppMaxProxyTableEntries = GPP_MAX_PROXY_TABLE_ENTRIES;
   \                     zclGp_gppMaxProxyTableEntries:
   \   000000                DS 1
   \   000001                REQUIRE `?<Initializer for zclGp_gppMaxProxyTableEntrie`
   \   000001                REQUIRE __INIT_XDATA_I

   \                                 In  segment XDATA_Z, align 1, keep-with-next
     87          uint8 *pZclGp_ProxyTableEntries = NULL;
   \                     pZclGp_ProxyTableEntries:
   \   000000                DS 2
   \   000002                REQUIRE __INIT_XDATA_Z

   \                                 In  segment XDATA_I, align 1, keep-with-next
     88          uint8  zclGp_gppNotificationRetryNumber = GPP_NOTIFICATION_RETRY_NUMBER;
   \                     zclGp_gppNotificationRetryNumber:
   \   000000                DS 1
   \   000001                REQUIRE `?<Initializer for zclGp_gppNotificationRetryNu`
   \   000001                REQUIRE __INIT_XDATA_I

   \                                 In  segment XDATA_I, align 1, keep-with-next
     89          uint8  zclGp_gppNotificationRetryTimer = GPP_NOTIFICATION_RETRY_TIMER;
   \                     zclGp_gppNotificationRetryTimer:
   \   000000                DS 1
   \   000001                REQUIRE `?<Initializer for zclGp_gppNotificationRetryTi`
   \   000001                REQUIRE __INIT_XDATA_I

   \                                 In  segment XDATA_I, align 1, keep-with-next
     90          uint8  zclGp_gppMaxSearchCounter = GPP_MAX_SEARCH_COUNTER;
   \                     zclGp_gppMaxSearchCounter:
   \   000000                DS 1
   \   000001                REQUIRE `?<Initializer for zclGp_gppMaxSearchCounter>`
   \   000001                REQUIRE __INIT_XDATA_I

   \                                 In  segment XDATA_Z, align 1, keep-with-next
     91          uint8 *pZclGp_gppBlockedGPDID = NULL;
   \                     pZclGp_gppBlockedGPDID:
   \   000000                DS 2
   \   000002                REQUIRE __INIT_XDATA_Z
     92          
     93          /**********************************************************************************
     94          ZigBee PRO Green Power feature specification
     95          Basic functionality set
     96          Version 1.0
     97          
     98          Table 42 – Format of the gppFunctionality attribute
     99          ----------------------------------------------------------------------------------
    100          Indication   | Functionality                                        | Basic Proxy
    101          -------------|------------------------------------------------------|-------------
    102          b0           | GP feature                                           | 0b1
    103          b1           | Direct communication (reception of GPDF via GP stub) | 0b1
    104          b2           | Derived groupcast communication                      | 0b1
    105          b3           | Pre-commissioned groupcast communication             | 0b1
    106          b4           | Full unicast communication                           | 0b0
    107          b5           | Lightweight unicast communication                    | 0b1
    108          b6           | Reserved                                             | 0b0
    109          b7           | Bidirectional operation                              | 0b0
    110          b8           | Proxy Table maintenance (active and passive,         | 0b0
    111                       | for GPD mobility and GPP robustness)                 |
    112          b9           | Reserved                                             | 0b0
    113          b10          | GP commissioning                                     | 0b1
    114          b11          | CT-based commissioning                               | 0b1
    115          b12          | Maintenance of GPD (deliver channel/key              | 0b0
    116                       | during operation)                                    | 
    117          b13          | gpdSecurityLevel  = 0b00                             | 0b1
    118          b14          | Deprecated: gpdSe curityLevel = 0b01                 | 0b0
    119          b15          | gpdSecurityLevel  = 0b10                             | 0b1
    120          b16          | gpdSecurityLevel  = 0b11                             | 0b1
    121          b17          | Reserved                                             | 0b0
    122          b18          | Reserved                                             | 0b0
    123          b19          | GPD IEEE address                                     | 0b1
    124          b20 – b23    | Reserved                                             | 0b0
    125          ----------------------------------------------------------------------------------
    126          ***********************************************************************************/
    127          
    128          //                                          b0-b7       b8-b15      b16-23
    129          //                                        0b00101111  0b10101100  0b00001001

   \                                 In  segment XDATA_I, align 1, keep-with-next
    130          uint8  zclGp_gppFunctionality[3] =       {   0x2F,      0xAC,        0x09};
   \                     zclGp_gppFunctionality:
   \   000000                DS 3
   \   000003                REQUIRE `?<Initializer for zclGp_gppFunctionality>`
   \   000003                REQUIRE __INIT_XDATA_I

   \                                 In  segment XDATA_I, align 1, keep-with-next
    131          uint8  zclGp_gppActiveFunctionality[3] = {   0x2F,      0xAC,        0x09};
   \                     zclGp_gppActiveFunctionality:
   \   000000                DS 3
   \   000003                REQUIRE `?<Initializer for zclGp_gppActiveFunctionality`
   \   000003                REQUIRE __INIT_XDATA_I
    132          

   \                                 In  segment XDATA_Z, align 1, keep-with-next
    133          uint8  zclGp_gpSharedSecurityKeyType = GP_SHARED_SEC_KEY_TYPE;
   \                     zclGp_gpSharedSecurityKeyType:
   \   000000                DS 1
   \   000001                REQUIRE __INIT_XDATA_Z

   \                                 In  segment XDATA_I, align 1, keep-with-next
    134          uint8  zclGp_gpSharedSecurityKey[SEC_KEY_LEN] = GP_SHARED_KEY;
   \                     zclGp_gpSharedSecurityKey:
   \   000000                DS 16
   \   000010                REQUIRE `?<Initializer for zclGp_gpSharedSecurityKey>`
   \   000010                REQUIRE __INIT_XDATA_I

   \                                 In  segment XDATA_I, align 1, keep-with-next
    135          uint8  zclGp_gpLinkKey[SEC_KEY_LEN] = GP_LINK_LEY;
   \                     zclGp_gpLinkKey:
   \   000000                DS 16
   \   000010                REQUIRE `?<Initializer for zclGp_gpLinkKey>`
   \   000010                REQUIRE __INIT_XDATA_I

   \                                 In  segment XDATA_I, align 1, keep-with-next
    136          uint16 zclGp_clusterRevision = GP_CLUSTER_REVISION;
   \                     zclGp_clusterRevision:
   \   000000                DS 2
   \   000002                REQUIRE `?<Initializer for zclGp_clusterRevision>`
   \   000002                REQUIRE __INIT_XDATA_I
    137          

   \                                 In  segment XDATA_Z, align 1, keep-with-next
    138          static gpCommissioningMode_t  pfnCommissioningMode = NULL;
   \                     pfnCommissioningMode:
   \   000000                DS 2
   \   000002                REQUIRE __INIT_XDATA_Z

   \                                 In  segment XDATA_Z, align 1, keep-with-next
    139          static gpChangeChannelReq_t   pfnChangeChannelReq = NULL;
   \                     pfnChangeChannelReq:
   \   000000                DS 2
   \   000002                REQUIRE __INIT_XDATA_Z

   \                                 In  segment XDATA_Z, align 1, keep-with-next
    140          static gpChangeChannelReq_t   pfnChangeChannelReqForBDB = NULL;
   \                     pfnChangeChannelReqForBDB:
   \   000000                DS 2
   \   000002                REQUIRE __INIT_XDATA_Z
    141          
    142          

   \                                 In  segment XDATA_Z, align 1, keep-with-next
    143          uint8 gp_commissioningOptions = 0;           //Commissioning Options from the ommissioningMode command
   \                     gp_commissioningOptions:
   \   000000                DS 1
   \   000001                REQUIRE __INIT_XDATA_Z

   \                                 In  segment XDATA_Z, align 1, keep-with-next
    144          uint16 gp_commissioningUnicastAddress = 0;   //address of the device to which send the notifications
   \                     gp_commissioningUnicastAddress:
   \   000000                DS 2
   \   000002                REQUIRE __INIT_XDATA_Z
    145          

   \                                 In  segment XDATA_Z, align 1, keep-with-next
    146          uint8  zgGP_InCommissioningMode = FALSE;     // Global flag that states if in commissioning mode or in operational mode.
   \                     zgGP_InCommissioningMode:
   \   000000                DS 1
   \   000001                REQUIRE __INIT_XDATA_Z

   \                                 In  segment XDATA_I, align 1, keep-with-next
    147          uint16 gp_commissionerAddress = 0xFFFF;      //Address to which send the notifications during commissioning mode
   \                     gp_commissionerAddress:
   \   000000                DS 2
   \   000002                REQUIRE `?<Initializer for gp_commissionerAddress>`
   \   000002                REQUIRE __INIT_XDATA_I

   \                                 In  segment XDATA_Z, align 1, keep-with-next
    148          byte   gp_tempLogicalChannel = 0;            //Holder of the operational nwk channel
   \                     gp_tempLogicalChannel:
   \   000000                DS 1
   \   000001                REQUIRE __INIT_XDATA_Z
    149          
    150          
    151          
    152            
    153          
    154          /*********************************************************************
    155           * ATTRIBUTE DEFINITIONS - Uses REAL cluster IDs
    156           */

   \                                 In  segment CODE_C, align 1
    157          CONST zclAttrRec_t zclGp_Attrs[] =
   \                     zclGp_Attrs:
   \   000000   2100         DW 33
   \   000002   1000         DW 16
   \   000004   20           DB 32
   \   000005   81           DB 129
   \   000006   ....         DW zclGp_gppMaxProxyTableEntries
   \   000008   2100         DW 33
   \   00000A   1100         DW 17
   \   00000C   43           DB 67
   \   00000D   81           DB 129
   \   00000E   0000         DW 0H
   \   000010   2100         DW 33
   \   000012   1200         DW 18
   \   000014   20           DB 32
   \   000015   83           DB 131
   \   000016   ....         DW zclGp_gppNotificationRetryNumber
   \   000018   2100         DW 33
   \   00001A   1300         DW 19
   \   00001C   20           DB 32
   \   00001D   83           DB 131
   \   00001E   ....         DW zclGp_gppNotificationRetryTimer
   \   000020   2100         DW 33
   \   000022   1400         DW 20
   \   000024   20           DB 32
   \   000025   83           DB 131
   \   000026   ....         DW zclGp_gppMaxSearchCounter
   \   000028   2100         DW 33
   \   00002A   1500         DW 21
   \   00002C   43           DB 67
   \   00002D   81           DB 129
   \   00002E   ....         DW pZclGp_gppBlockedGPDID
   \   000030   2100         DW 33
   \   000032   1600         DW 22
   \   000034   1A           DB 26
   \   000035   81           DB 129
   \   000036   ....         DW zclGp_gppFunctionality
   \   000038   2100         DW 33
   \   00003A   1700         DW 23
   \   00003C   1A           DB 26
   \   00003D   81           DB 129
   \   00003E   ....         DW zclGp_gppActiveFunctionality
   \   000040   2100         DW 33
   \   000042   2000         DW 32
   \   000044   18           DB 24
   \   000045   83           DB 131
   \   000046   ....         DW zclGp_gpSharedSecurityKeyType
   \   000048   2100         DW 33
   \   00004A   2100         DW 33
   \   00004C   F1           DB 241
   \   00004D   83           DB 131
   \   00004E   ....         DW zclGp_gpSharedSecurityKey
   \   000050   2100         DW 33
   \   000052   2200         DW 34
   \   000054   F1           DB 241
   \   000055   83           DB 131
   \   000056   ....         DW zclGp_gpLinkKey
   \   000058   2100         DW 33
   \   00005A   FDFF         DW 65533
   \   00005C   21           DB 33
   \   00005D   81           DB 129
   \   00005E   ....         DW zclGp_clusterRevision
    158          {
    159            // *** Green Power Proxy Cluster Attributes ***
    160            {
    161              ZCL_CLUSTER_ID_GREEN_POWER,
    162              {  // Attribute record
    163                ATTRID_GP_GPP_MAX_PROXY_TABLE_ENTRIES,
    164                ZCL_DATATYPE_UINT8,
    165                ACCESS_CONTROL_READ | ACCESS_CLIENT,
    166                (void *)&zclGp_gppMaxProxyTableEntries
    167              }
    168            },
    169            {
    170              ZCL_CLUSTER_ID_GREEN_POWER,
    171              {  // Attribute record
    172                ATTRID_GP_PROXY_TABLE,
    173                ZCL_DATATYPE_LONG_OCTET_STR,
    174                ACCESS_CONTROL_READ | ACCESS_CLIENT,
    175                NULL // Use application's callback to Read this attribute
    176              }
    177            },
    178            {
    179              ZCL_CLUSTER_ID_GREEN_POWER,
    180              {  // Attribute record
    181                ATTRID_GP_GPP_NOTIFICATION_RETRY_NUMBER,
    182                ZCL_DATATYPE_UINT8,
    183                ACCESS_CONTROL_READ | ACCESS_CONTROL_WRITE | ACCESS_CLIENT,
    184                (void *)&zclGp_gppNotificationRetryNumber
    185              }
    186            },
    187            {
    188              ZCL_CLUSTER_ID_GREEN_POWER,
    189              {  // Attribute record
    190                ATTRID_GP_GPP_NOTIFICATION_RETRY_TIMER,
    191                ZCL_DATATYPE_UINT8,
    192                ACCESS_CONTROL_READ | ACCESS_CONTROL_WRITE | ACCESS_CLIENT,
    193                (void *)&zclGp_gppNotificationRetryTimer
    194              }
    195            },
    196            {
    197              ZCL_CLUSTER_ID_GREEN_POWER,
    198              {  // Attribute record
    199                ATTRID_GP_GPP_MAX_SEARCH_COUNTER,
    200                ZCL_DATATYPE_UINT8,
    201                ACCESS_CONTROL_READ | ACCESS_CONTROL_WRITE | ACCESS_CLIENT,
    202                (void *)&zclGp_gppMaxSearchCounter
    203              }
    204            },
    205            {
    206              ZCL_CLUSTER_ID_GREEN_POWER,
    207              {  // Attribute record
    208                ATTRID_GP_GPP_BLOCKED_GPD_ID,
    209                ZCL_DATATYPE_LONG_OCTET_STR,
    210                ACCESS_CONTROL_READ | ACCESS_CLIENT,
    211                (void *)&pZclGp_gppBlockedGPDID
    212              }
    213            },
    214            {
    215              ZCL_CLUSTER_ID_GREEN_POWER,
    216              {  // Attribute record
    217                ATTRID_GP_GPP_FUNCTIONALITY,
    218                ZCL_DATATYPE_BITMAP24,
    219                ACCESS_CONTROL_READ | ACCESS_CLIENT,
    220                (void *)&zclGp_gppFunctionality
    221              }
    222            },
    223            {
    224              ZCL_CLUSTER_ID_GREEN_POWER,
    225              {  // Attribute record
    226                ATTRID_GP_GPP_ACTIVE_FUNCTIONALITY,
    227                ZCL_DATATYPE_BITMAP24,
    228                ACCESS_CONTROL_READ | ACCESS_CLIENT,
    229                (void *)&zclGp_gppActiveFunctionality
    230              }
    231            },
    232            {
    233              ZCL_CLUSTER_ID_GREEN_POWER,
    234              {  // Attribute record
    235                ATTRID_GP_SHARED_SEC_KEY_TYPE,
    236                ZCL_DATATYPE_BITMAP8,
    237                ACCESS_CONTROL_READ | ACCESS_CONTROL_WRITE | ACCESS_CLIENT,
    238                (void *)&zclGp_gpSharedSecurityKeyType
    239              }
    240            },
    241            {
    242              ZCL_CLUSTER_ID_GREEN_POWER,
    243              {  // Attribute record
    244                ATTRID_GP_SHARED_SEC_KEY,
    245                ZCL_DATATYPE_128_BIT_SEC_KEY,
    246                ACCESS_CONTROL_READ | ACCESS_CONTROL_WRITE | ACCESS_CLIENT,
    247                (void *)&zclGp_gpSharedSecurityKey
    248              }
    249            },
    250            {
    251              ZCL_CLUSTER_ID_GREEN_POWER,
    252              {  // Attribute record
    253                ATTRID_GP_LINK_KEY,
    254                ZCL_DATATYPE_128_BIT_SEC_KEY,
    255                ACCESS_CONTROL_READ | ACCESS_CONTROL_WRITE | ACCESS_CLIENT,
    256                (void *)&zclGp_gpLinkKey
    257              }
    258            },
    259            {
    260              ZCL_CLUSTER_ID_GREEN_POWER,
    261              {  // Attribute record
    262                ATTRID_CLUSTER_REVISION,
    263                ZCL_DATATYPE_UINT16,
    264                ACCESS_CONTROL_READ | ACCESS_CLIENT,
    265                (void *)&zclGp_clusterRevision
    266              }
    267            }
    268          };
    269          
    270          

   \                                 In  segment CODE_C, align 1
    271          uint8 CONST zclGp_NumAttributes = ( sizeof(zclGp_Attrs) / sizeof(zclGp_Attrs[0]) );
   \                     zclGp_NumAttributes:
   \   000000   0C           DB 12
    272          
    273           /*********************************************************************
    274           * EXTERNAL VARIABLES
    275           */
    276          
    277          //List to filter duplicated packets

   \                                 In  segment XDATA_Z, align 1, keep-with-next
    278          gp_DataInd_t        *gp_DataIndList;
   \                     gp_DataIndList:
   \   000000                DS 2
   \   000002                REQUIRE __INIT_XDATA_Z
    279          
    280          
    281          /*********************************************************************
    282           * EXTERNAL FUNCTIONS
    283           */
    284          
    285          
    286          /*********************************************************************
    287           * LOCAL VARIABLES
    288           */
    289          // This is the Cluster ID List and should be filled with Application
    290          // specific cluster IDs.
    291          #define GREEN_POWER_EP_MAX_INCLUSTERS       1
    292          
    293          #define GREEN_POWER_EP_MAX_OUTCLUSTERS       1

   \                                 In  segment XDATA_ROM_C, align 1
    294          static const cId_t greenPower_EP_OutClusterList[GREEN_POWER_EP_MAX_OUTCLUSTERS] =
   \                     greenPower_EP_OutClusterList:
   \   000000   2100         DW 33
    295          {
    296            ZCL_CLUSTER_ID_GREEN_POWER
    297          };
    298          

   \                                 In  segment XDATA_I, align 1, keep-with-next
    299          static SimpleDescriptionFormat_t greenPower_EP_SimpleDesc =
   \                     greenPower_EP_SimpleDesc:
   \   000000                DS 12
   \   00000C                REQUIRE `?<Initializer for greenPower_EP_SimpleDesc>`
   \   00000C                REQUIRE __INIT_XDATA_I
    300          {
    301            GREEN_POWER_INTERNAL_ENDPOINT,         //  int Endpoint;
    302            ZCL_GP_PROFILE_ID,                     //  uint16 AppProfId;
    303            ZCL_GP_DEVICEID_PROXY_BASIC,           //  uint16 AppDeviceId;
    304            0,                                     //  int   AppDevVer:4;
    305            0,                                     //  int   AppFlags:4;
    306            0,                                     //  byte  AppNumInClusters;
    307            NULL,                                  //  byte *pAppInClusterList;
    308            GREEN_POWER_EP_MAX_OUTCLUSTERS,        //  byte  AppNumInClusters;
    309            (cId_t *)greenPower_EP_OutClusterList  //  byte *pAppInClusterList;
    310          };
    311          
    312          
    313          
    314          
    315           /*********************************************************************
    316           * LOCAL FUNCTIONS
    317           */
    318          static void GP_ProccessCommissioningNotification(gp_DataInd_t *gp_DataInd);
    319          static void GP_ProccessNotification(gp_DataInd_t *gp_DataInd);
    320          
    321          static void zclGp_GpPairingCommandCB( zclGpPairing_t *pCmd );
    322          static void zclGp_GpProxyTableReqCB( zclGpProxyTableRequest_t *pCmd );
    323          static void zclGp_GpProxyCommissioningModeCB(zclGpProxyCommissioningMode_t* pCmd);
    324          static void zclGp_GpResponseCommandCB(zclGpResponse_t* pCmd);
    325          static void gp_u32CastPointer( uint8 *data, uint8 *p );
    326          static void gp_u16CastPointer( uint8 *data, uint8 *p );
    327          static void gp_u8CastPointer( uint8 *data, uint8 *p );
    328          static void gp_ZclPairingParse( zclGpPairing_t* pCmd, gpPairingCmd_t* payload );
    329          static void gp_ZclProxyTableReqParse( zclGpProxyTableRequest_t* pCmd, gpProxyTableReqCmd_t* payload );
    330          static uint8 gp_SecurityOperationProxy( gp_DataInd_t* pInd, uint8* pKeyType, uint8* pKey);
    331          static gp_DataInd_t* gp_DataIndFindDuplicate(uint8 handle, uint8 secLvl);
    332          static uint8 GP_RecoveryKey(uint8 GPDFKeyType,uint8 KeyType, uint8 status, uint8 *Key);
    333           
    334          
    335          
    336          
    337          /*********************************************************************
    338           * ZCL General Profile Callback table
    339           */

   \                                 In  segment XDATA_I, align 1, keep-with-next
    340          static zclGp_AppCallbacks_t zclGpProxy_CmdCallbacks =
   \                     zclGpProxy_CmdCallbacks:
   \   000000                DS 8
   \   000008                REQUIRE `?<Initializer for zclGpProxy_CmdCallbacks>`
   \   000008                REQUIRE __INIT_XDATA_I
    341          {
    342            zclGp_GpPairingCommandCB,            //
    343            zclGp_GpProxyTableReqCB,
    344            zclGp_GpProxyCommissioningModeCB,    //
    345            zclGp_GpResponseCommandCB  
    346          };
    347          
    348          /*********************************************************************
    349           * PUBLIC FUNCTIONS
    350           *********************************************************************/
    351          
    352          
    353           

   \                                 In  segment BANKED_CODE, align 1, keep-with-next
    354          void gp_endpointInit(void)
   \                     gp_endpointInit:
    355          {
   \   000000   C082         PUSH      DPL
   \   000002   C083         PUSH      DPH
   \   000004                ; Saved register size: 2
   \   000004                ; Auto size: 0
    356          
    357            bdb_RegisterSimpleDescriptor( &greenPower_EP_SimpleDesc );
   \   000004                ; Setup parameters for call to function bdb_RegisterSimpleDescriptor
   \   000004   7A..         MOV       R2,#greenPower_EP_SimpleDesc & 0xff
   \   000006   7B..         MOV       R3,#(greenPower_EP_SimpleDesc >> 8) & 0xff
   \   000008   12....       LCALL     `??bdb_RegisterSimpleDescriptor::?relay`; Banked call to: bdb_RegisterSimpleDescriptor
    358            
    359            zclGp_RegisterCmdCallbacks( GREEN_POWER_INTERNAL_ENDPOINT, &zclGpProxy_CmdCallbacks );
   \   00000B                ; Setup parameters for call to function zclGp_RegisterCmdCallbacks
   \   00000B   7A..         MOV       R2,#zclGpProxy_CmdCallbacks & 0xff
   \   00000D   7B..         MOV       R3,#(zclGpProxy_CmdCallbacks >> 8) & 0xff
   \   00000F   79F2         MOV       R1,#-0xe
   \   000011   12....       LCALL     `??zclGp_RegisterCmdCallbacks::?relay`; Banked call to: zclGp_RegisterCmdCallbacks
    360            
    361            // Register the application's attribute list
    362            zcl_registerAttrList( GREEN_POWER_INTERNAL_ENDPOINT, zclGp_NumAttributes, zclGp_Attrs );
   \   000014                ; Setup parameters for call to function zcl_registerAttrList
   \   000014   7C..         MOV       R4,#zclGp_Attrs & 0xff
   \   000016   7D..         MOV       R5,#(zclGp_Attrs >> 8) & 0xff
   \   000018   7A0C         MOV       R2,#0xc
   \   00001A   79F2         MOV       R1,#-0xe
   \   00001C   12....       LCALL     `??zcl_registerAttrList::?relay`; Banked call to: zcl_registerAttrList
    363            
    364            zcl_registerReadWriteCB( GREEN_POWER_INTERNAL_ENDPOINT, zclGpp_ReadWriteAttrCB, NULL );
   \   00001F                ; Setup parameters for call to function zcl_registerReadWriteCB
   \   00001F   7C00         MOV       R4,#0x0
   \   000021   7D00         MOV       R5,#0x0
   \   000023   7A..         MOV       R2,#`??zclGpp_ReadWriteAttrCB::?relay` & 0xff
   \   000025   7B..         MOV       R3,#(`??zclGpp_ReadWriteAttrCB::?relay` >> 8) & 0xff
   \   000027   79F2         MOV       R1,#-0xe
   \   000029   12....       LCALL     `??zcl_registerReadWriteCB::?relay`; Banked call to: zcl_registerReadWriteCB
    365            
    366            gp_ProxyTblInit( FALSE );
   \   00002C                ; Setup parameters for call to function gp_ProxyTblInit
   \   00002C   7900         MOV       R1,#0x0
   \   00002E   12....       LCALL     `??gp_ProxyTblInit::?relay`; Banked call to: gp_ProxyTblInit
    367          
    368          }
   \   000031   80..         SJMP      ??Subroutine55_0

   \                                 In  segment BANKED_CODE, align 1, keep-with-next
   \                     ??Subroutine55_0:
   \   000000   D083         POP       DPH
   \   000002   D082         POP       DPL
   \   000004   02....       LJMP      ?BRET
    369          
    370          /*********************************************************************
    371           * @fn      gp_stopCommissioningMode
    372           *
    373           * @brief   Stops the commissioning mode
    374           *
    375           * @param   none
    376           *
    377           * @return  none
    378           */

   \                                 In  segment BANKED_CODE, align 1, keep-with-next
    379          void gp_stopCommissioningMode(void)
   \                     gp_stopCommissioningMode:
    380          {
   \   000000   C082         PUSH      DPL
   \   000002   C083         PUSH      DPH
   \   000004                ; Saved register size: 2
   \   000004                ; Auto size: 0
    381            //Callback to notify about the end of the commissioning mode
    382            gp_commissioningOptions = 0;
   \   000004   90....       MOV       DPTR,#gp_commissioningOptions
   \   000007   E4           CLR       A
   \   000008   F0           MOVX      @DPTR,A
    383            zgGP_InCommissioningMode = FALSE;
   \   000009   90....       MOV       DPTR,#zgGP_InCommissioningMode
   \   00000C   F0           MOVX      @DPTR,A
    384            gp_commissionerAddress = 0xFFFF;
   \   00000D   90....       MOV       DPTR,#gp_commissionerAddress
   \   000010   74FF         MOV       A,#-0x1
   \   000012   F0           MOVX      @DPTR,A
   \   000013   A3           INC       DPTR
   \   000014   F0           MOVX      @DPTR,A
    385            osal_stop_timerEx(gp_TaskID,GP_COMMISSIONING_WINDOW_TIMEOUT);
   \   000015                ; Setup parameters for call to function osal_stop_timerEx
   \   000015   7A04         MOV       R2,#0x4
   \   000017   7B00         MOV       R3,#0x0
   \   000019   90....       MOV       DPTR,#gp_TaskID
   \   00001C   E0           MOVX      A,@DPTR
   \   00001D   F9           MOV       R1,A
   \   00001E   12....       LCALL     `??osal_stop_timerEx::?relay`; Banked call to: osal_stop_timerEx
    386            
    387            //Release the gpTxQueue, proxy does not support bidirectional communication on operational mode
    388            //A.3.2.8
    389            gp_FreeGpTxQueue();
   \   000021                ; Setup parameters for call to function gp_FreeGpTxQueue
   \   000021   12....       LCALL     `??gp_FreeGpTxQueue::?relay`; Banked call to: gp_FreeGpTxQueue
    390            
    391            //Notify the user that we have exited the commissioning mode
    392            if(pfnCommissioningMode)
   \   000024   12....       LCALL     ?Subroutine22 & 0xFFFF
   \                     ??CrossCallReturnLabel_177:
   \   000027   6008         JZ        ??gp_stopCommissioningMode_0
    393            {
    394              pfnCommissioningMode(FALSE);
   \   000029                ; Setup parameters for indirect call
   \   000029   7900         MOV       R1,#0x0
   \   00002B   12....       LCALL     ??Subroutine64_0 & 0xFFFF
    395            }
   \                     ??CrossCallReturnLabel_128:
   \   00002E   12....       LCALL     ?CALL_IND
    396          }
   \                     ??gp_stopCommissioningMode_0:
   \   000031   80..         SJMP      ??Subroutine55_0

   \                                 In  segment BANKED_CODE, align 1, keep-with-next
   \                     ??Subroutine64_0:
   \   000000   E0           MOVX      A,@DPTR
   \   000001   F583         MOV       DPH,A
   \   000003   8882         MOV       DPL,R0
   \   000005   22           RET

   \                                 In  segment BANKED_CODE, align 1, keep-with-next
   \                     ?Subroutine22:
   \   000000   90....       MOV       DPTR,#pfnCommissioningMode
   \   000003                REQUIRE ??Subroutine70_0
   \   000003                ; // Fall through to label ??Subroutine70_0

   \                                 In  segment BANKED_CODE, align 1, keep-with-next
   \                     ??Subroutine70_0:
   \   000000   E0           MOVX      A,@DPTR
   \   000001   F8           MOV       R0,A
   \   000002   A3           INC       DPTR
   \   000003   E0           MOVX      A,@DPTR
   \   000004   F9           MOV       R1,A
   \   000005   E8           MOV       A,R0
   \   000006   49           ORL       A,R1
   \   000007   22           RET
    397          
    398          /*********************************************************************
    399           * @fn      zclGp_ManteinanceIndParse
    400           *
    401           * @brief   Parse the Gp Manteinance indication to Gp Notification command
    402           *
    403           * @param   pInd - Pointer to the incoming data
    404           *
    405           * @return  ZStatus_t
    406           */

   \                                 In  segment BANKED_CODE, align 1, keep-with-next
    407          ZStatus_t zclGp_ManteinanceIndParse( gp_DataInd_t *pInd, gpCommissioningNotificationCmd_t *pGpNotification )
   \                     zclGp_ManteinanceIndParse:
    408          {
   \   000000                REQUIRE ?V0
   \   000000                REQUIRE ?V1
   \   000000                REQUIRE ?V2
   \   000000                REQUIRE ?V4
   \   000000                REQUIRE ?V5
   \   000000                REQUIRE ?V6
   \   000000                REQUIRE ?V7
   \   000000   74F0         MOV       A,#-0x10
   \   000002   12....       LCALL     ?BANKED_ENTER_XDATA
   \   000005                ; Saved register size: 16
   \   000005                ; Auto size: 2
   \   000005   74FE         MOV       A,#-0x2
   \   000007   12....       LCALL     ?ALLOC_XSTACK8
   \   00000A   EA           MOV       A,R2
   \   00000B   FE           MOV       R6,A
   \   00000C   EB           MOV       A,R3
   \   00000D   FF           MOV       R7,A
   \   00000E   8C..         MOV       ?V4,R4
   \   000010   8D..         MOV       ?V5,R5
    409            uint8 currEntry[PROXY_TBL_ENTRY_LEN] = PROXY_BASIC_TBL_EMPTY_ENTRY;
    410            uint8  ntfOpt[2] = {0x00, 0x00};
   \   000012   90....       MOV       DPTR,#`?<Constant {0, 0}>`
   \   000015   AC..         MOV       R4,?XSP + 0
   \   000017   AD..         MOV       R5,?XSP + 1
   \   000019   7402         MOV       A,#0x2
   \   00001B   12....       LCALL     ?MOVE_LONG8_XDATA_XDATA
    411            int8 RSSI;
    412            uint8 LQI;
    413            
    414            if ( pInd->GPDCmmdID != GP_CHANNEL_REQ_COMMAND_ID )
   \   00001E   EE           MOV       A,R6
   \   00001F   242A         ADD       A,#0x2a
   \   000021   12....       LCALL     ?Subroutine40 & 0xFFFF
   \                     ??CrossCallReturnLabel_60:
   \   000024   64E3         XRL       A,#0xe3
   \   000026   6059         JZ        ??zclGp_ManteinanceIndParse_0
    415            {
    416              if ( PROXY_TBL_COMP_APPLICTION_ID( pInd->appID, GP_OPT_APP_ID_GPD ) )
   \   000028   12....       LCALL     ?Subroutine39 & 0xFFFF
   \                     ??CrossCallReturnLabel_153:
   \   00002B   5407         ANL       A,#0x7
   \   00002D   F8           MOV       R0,A
   \   00002E   701A         JNZ       ??zclGp_ManteinanceIndParse_1
    417              {
    418                pGpNotification->gpdId = pInd->SrcId;
   \   000030   12....       LCALL     ?Subroutine38 & 0xFFFF
   \                     ??CrossCallReturnLabel_57:
   \   000033   12....       LCALL     ?XLOAD_R0123
   \   000036   85..82       MOV       DPL,?V4
   \   000039   85..83       MOV       DPH,?V5
   \   00003C   A3           INC       DPTR
   \   00003D   A3           INC       DPTR
   \   00003E   12....       LCALL     ?XSTORE_R0123
    419                ntfOpt[0] = GP_OPT_APP_ID_GPD;
   \   000041   85..82       MOV       DPL,?XSP + 0
   \   000044   85..83       MOV       DPH,?XSP + 1
   \   000047   E4           CLR       A
   \   000048   8036         SJMP      ??zclGp_ManteinanceIndParse_2
    420              }
    421              else if ( PROXY_TBL_COMP_APPLICTION_ID( pInd->appID, GP_OPT_APP_ID_IEEE ) )
   \                     ??zclGp_ManteinanceIndParse_1:
   \   00004A   7402         MOV       A,#0x2
   \   00004C   68           XRL       A,R0
   \   00004D   7032         JNZ       ??zclGp_ManteinanceIndParse_0
    422              {
    423                osal_memcpy( pGpNotification->gpdIEEE, &(pInd->srcAddr.addr.extAddr), Z_EXTADDR_LEN );
   \   00004F                ; Setup parameters for call to function osal_memcpy
   \   00004F   12....       LCALL     ?Subroutine37 & 0xFFFF
   \                     ??CrossCallReturnLabel_156:
   \   000052   12....       LCALL     ?PUSH_XSTACK_I_THREE
   \   000055   7C08         MOV       R4,#0x8
   \   000057   7D00         MOV       R5,#0x0
   \   000059   E5..         MOV       A,?V4
   \   00005B   2406         ADD       A,#0x6
   \   00005D   FA           MOV       R2,A
   \   00005E   E4           CLR       A
   \   00005F   35..         ADDC      A,?V5
   \   000061   FB           MOV       R3,A
   \   000062   12....       LCALL     `??osal_memcpy::?relay`; Banked call to: osal_memcpy
   \   000065   7403         MOV       A,#0x3
   \   000067   12....       LCALL     ?DEALLOC_XSTACK8
    424                pGpNotification->ep = pInd->EndPoint;
   \   00006A   EE           MOV       A,R6
   \   00006B   2425         ADD       A,#0x25
   \   00006D   12....       LCALL     ??Subroutine66_0 & 0xFFFF
    425                ntfOpt[0] = GP_OPT_APP_ID_IEEE;
    426              }
    427            }
   \                     ??CrossCallReturnLabel_146:
   \   000070   C0E0         PUSH      A
   \   000072   E5..         MOV       A,?V4
   \   000074   240E         ADD       A,#0xe
   \   000076   12....       LCALL     ?Subroutine46 & 0xFFFF
   \                     ??CrossCallReturnLabel_73:
   \   000079   D0E0         POP       A
   \   00007B   12....       LCALL     ?Subroutine10 & 0xFFFF
   \                     ??CrossCallReturnLabel_12:
   \   00007E   7402         MOV       A,#0x2
   \                     ??zclGp_ManteinanceIndParse_2:
   \   000080   F0           MOVX      @DPTR,A
    428            
    429            // Set the options bit field
    430            ( pInd->RxAfterTx == TRUE ) ?PROXY_TBL_SET_RX_AFTER_TX( ( uint8* )&ntfOpt[0] ) : PROXY_TBL_CLR_RX_AFTER_TX( ( uint8* )&ntfOpt[0] );
   \                     ??zclGp_ManteinanceIndParse_0:
   \   000081   EE           MOV       A,R6
   \   000082   2420         ADD       A,#0x20
   \   000084   12....       LCALL     ??Subroutine66_0 & 0xFFFF
   \                     ??CrossCallReturnLabel_147:
   \   000087   6401         XRL       A,#0x1
   \   000089   85..82       MOV       DPL,?XSP + 0
   \   00008C   85..83       MOV       DPH,?XSP + 1
   \   00008F   7005         JNZ       ??zclGp_ManteinanceIndParse_3
   \   000091   E0           MOVX      A,@DPTR
   \   000092   D2E3         SETB      0xE0 /* A   */.3
   \   000094   8003         SJMP      ??zclGp_ManteinanceIndParse_4
   \                     ??zclGp_ManteinanceIndParse_3:
   \   000096   E0           MOVX      A,@DPTR
   \   000097   C2E3         CLR       0xE0 /* A   */.3
   \                     ??zclGp_ManteinanceIndParse_4:
   \   000099   F0           MOVX      @DPTR,A
    431            GP_CNTF_SET_SEC_LEVEL( ( uint8* )&ntfOpt[0], currEntry[PROXY_TBL_ENTRY_SEC_OPT] );
   \   00009A   E0           MOVX      A,@DPTR
   \   00009B   4430         ORL       A,#0x30
   \   00009D   F0           MOVX      @DPTR,A
    432            GP_CNTF_SET_SEC_KEY_TYPE( ( uint16* )ntfOpt, currEntry[PROXY_TBL_ENTRY_SEC_OPT] );
   \   00009E   44C0         ORL       A,#0xc0
   \   0000A0   F8           MOV       R0,A
   \   0000A1   A3           INC       DPTR
   \   0000A2   E0           MOVX      A,@DPTR
   \   0000A3   4401         ORL       A,#0x1
   \   0000A5   F9           MOV       R1,A
   \   0000A6   85..82       MOV       DPL,?XSP + 0
   \   0000A9   85..83       MOV       DPH,?XSP + 1
   \   0000AC   12....       LCALL     ??Subroutine65_0 & 0xFFFF
    433            if( pInd->status == GP_DATA_IND_STATUS_AUTH_FAILURE )
   \                     ??CrossCallReturnLabel_138:
   \   0000AF   E5..         MOV       A,?V4
   \   0000B1   241A         ADD       A,#0x1a
   \   0000B3   F8           MOV       R0,A
   \   0000B4   E4           CLR       A
   \   0000B5   35..         ADDC      A,?V5
   \   0000B7   F9           MOV       R1,A
   \   0000B8   E8           MOV       A,R0
   \   0000B9   FC           MOV       R4,A
   \   0000BA   E9           MOV       A,R1
   \   0000BB   FD           MOV       R5,A
   \   0000BC   EE           MOV       A,R6
   \   0000BD   240D         ADD       A,#0xd
   \   0000BF   12....       LCALL     ??Subroutine66_0 & 0xFFFF
   \                     ??CrossCallReturnLabel_148:
   \   0000C2   6403         XRL       A,#0x3
   \   0000C4   701E         JNZ       ??zclGp_ManteinanceIndParse_5
    434            {
    435              GP_CNTF_SET_SEC_FAIL( ( uint8* )&ntfOpt[1] );
   \   0000C6   7401         MOV       A,#0x1
   \   0000C8   12....       LCALL     ?XSTACK_DISP0_8
   \   0000CB   E0           MOVX      A,@DPTR
   \   0000CC   D2E1         SETB      0xE0 /* A   */.1
   \   0000CE   F0           MOVX      @DPTR,A
    436              pGpNotification->mic = pInd->MIC;
   \   0000CF   EE           MOV       A,R6
   \   0000D0   242B         ADD       A,#0x2b
   \   0000D2   F582         MOV       DPL,A
   \   0000D4   E4           CLR       A
   \   0000D5   3F           ADDC      A,R7
   \   0000D6   F583         MOV       DPH,A
   \   0000D8   12....       LCALL     ?XLOAD_R0123
   \   0000DB   8C82         MOV       DPL,R4
   \   0000DD   8D83         MOV       DPH,R5
   \   0000DF   12....       LCALL     ?XSTORE_R0123
   \   0000E2   8010         SJMP      ??CrossCallReturnLabel_98
    437            }
    438            else
    439            {
    440              GP_CNTF_CLR_SEC_FAIL( ( uint8* )&ntfOpt[1] );
   \                     ??zclGp_ManteinanceIndParse_5:
   \   0000E4   7401         MOV       A,#0x1
   \   0000E6   12....       LCALL     ?XSTACK_DISP0_8
   \   0000E9   E0           MOVX      A,@DPTR
   \   0000EA   C2E1         CLR       0xE0 /* A   */.1
   \   0000EC   F0           MOVX      @DPTR,A
    441              pGpNotification->mic = 0xFFFFFFFF;
   \   0000ED   8C82         MOV       DPL,R4
   \   0000EF   8D83         MOV       DPH,R5
   \   0000F1   12....       LCALL     ?Subroutine14 & 0xFFFF
    442            }
    443            GP_CNTF_SET_BIDIRECTIONAL_CAP( ( uint8* )&ntfOpt[1] );
    444          
    445            GP_CNTF_SET_PROXY_INFO( ( uint8* )&ntfOpt[1] );
   \                     ??CrossCallReturnLabel_98:
   \   0000F4   7401         MOV       A,#0x1
   \   0000F6   12....       LCALL     ?XSTACK_DISP0_8
   \   0000F9   E0           MOVX      A,@DPTR
   \   0000FA   440C         ORL       A,#0xc
   \   0000FC   12....       LCALL     ?Subroutine8 & 0xFFFF
    446            
    447            pGpNotification->options |= ( ( ntfOpt[0] ) & 0x00FF );
    448            pGpNotification->options |= ( ( ( ntfOpt[1] ) <<  8 ) & 0xFF00 );
   \                     ??CrossCallReturnLabel_7:
   \   0000FF   FA           MOV       R2,A
   \   000100   7401         MOV       A,#0x1
   \   000102   12....       LCALL     ?XSTACK_DISP0_8
   \   000105   E0           MOVX      A,@DPTR
   \   000106   F9           MOV       R1,A
   \   000107   EA           MOV       A,R2
   \   000108   F8           MOV       R0,A
   \   000109   85..82       MOV       DPL,?V4
   \   00010C   85..83       MOV       DPH,?V5
   \   00010F   E0           MOVX      A,@DPTR
   \   000110   48           ORL       A,R0
   \   000111   F0           MOVX      @DPTR,A
   \   000112   A3           INC       DPTR
   \   000113   E0           MOVX      A,@DPTR
   \   000114   49           ORL       A,R1
   \   000115   F0           MOVX      @DPTR,A
    449            
    450            pGpNotification->gpdSecCounter = pInd->GPDSecFrameCounter;
   \   000116   12....       LCALL     ?Subroutine45 & 0xFFFF
   \                     ??CrossCallReturnLabel_70:
   \   000119   12....       LCALL     ?XLOAD_R0123
   \   00011C   E5..         MOV       A,?V4
   \   00011E   240F         ADD       A,#0xf
   \   000120   12....       LCALL     ?Subroutine46 & 0xFFFF
   \                     ??CrossCallReturnLabel_74:
   \   000123   12....       LCALL     ?XSTORE_R0123
    451            pGpNotification->cmdId = pInd->GPDCmmdID;
   \   000126   85..82       MOV       DPL,?V6
   \   000129   85..83       MOV       DPH,?V7
   \   00012C   E0           MOVX      A,@DPTR
   \   00012D   C0E0         PUSH      A
   \   00012F   E5..         MOV       A,?V4
   \   000131   2413         ADD       A,#0x13
   \   000133   12....       LCALL     ?Subroutine46 & 0xFFFF
   \                     ??CrossCallReturnLabel_75:
   \   000136   D0E0         POP       A
   \   000138   F0           MOVX      @DPTR,A
    452          
    453            if ( pInd->GPDasduLength > 0 )
   \   000139   EE           MOV       A,R6
   \   00013A   242F         ADD       A,#0x2f
   \   00013C   12....       LCALL     ??Subroutine66_0 & 0xFFFF
   \                     ??CrossCallReturnLabel_149:
   \   00013F   601D         JZ        ??CrossCallReturnLabel_139
    454            {
    455              pGpNotification->payloadLen = pInd->GPDasduLength;
   \   000141   C0E0         PUSH      A
   \   000143   E5..         MOV       A,?V4
   \   000145   2414         ADD       A,#0x14
   \   000147   12....       LCALL     ?Subroutine46 & 0xFFFF
   \                     ??CrossCallReturnLabel_76:
   \   00014A   D0E0         POP       A
   \   00014C   F0           MOVX      @DPTR,A
    456              pGpNotification->cmdPayload = pInd->GPDasdu;
   \   00014D   EE           MOV       A,R6
   \   00014E   2430         ADD       A,#0x30
   \   000150   F8           MOV       R0,A
   \   000151   E4           CLR       A
   \   000152   3F           ADDC      A,R7
   \   000153   F9           MOV       R1,A
   \   000154   E5..         MOV       A,?V4
   \   000156   2415         ADD       A,#0x15
   \   000158   12....       LCALL     ?Subroutine46 & 0xFFFF
    457            }
   \                     ??CrossCallReturnLabel_77:
   \   00015B   12....       LCALL     ??Subroutine65_0 & 0xFFFF
    458            
    459            pGpNotification->gppShortAddr = _NIB.nwkDevAddress;
   \                     ??CrossCallReturnLabel_139:
   \   00015E   12....       LCALL     ?Subroutine31 & 0xFFFF
   \                     ??CrossCallReturnLabel_106:
   \   000161   E5..         MOV       A,?V4
   \   000163   2417         ADD       A,#0x17
   \   000165   12....       LCALL     ?Subroutine46 & 0xFFFF
   \                     ??CrossCallReturnLabel_78:
   \   000168   E8           MOV       A,R0
   \   000169   F0           MOVX      @DPTR,A
   \   00016A   A3           INC       DPTR
   \   00016B   E9           MOV       A,R1
   \   00016C   12....       LCALL     ?Subroutine11 & 0xFFFF
    460            
    461            RSSI = pInd->Rssi;
   \                     ??CrossCallReturnLabel_15:
   \   00016F   12....       LCALL     ?Subroutine28 & 0xFFFF
    462            ( RSSI > 8 ) ?RSSI = 8 : ( RSSI < -109 ) ?RSSI = -109 : NULL;
   \                     ??CrossCallReturnLabel_39:
   \   000172   4004         JC        ??zclGp_ManteinanceIndParse_6
   \   000174   783B         MOV       R0,#0x3b
   \   000176   8019         SJMP      ??zclGp_ManteinanceIndParse_7
   \                     ??zclGp_ManteinanceIndParse_6:
   \   000178   E8           MOV       A,R0
   \   000179   C3           CLR       C
   \   00017A   9493         SUBB      A,#-0x6d
   \   00017C   A2D2         MOV       C,0xD0 /* PSW */.2
   \   00017E   65D0         XRL       A,PSW
   \   000180   33           RLC       A
   \   000181   5004         JNC       ??zclGp_ManteinanceIndParse_8
   \   000183   7800         MOV       R0,#0x0
   \   000185   800A         SJMP      ??zclGp_ManteinanceIndParse_7
   \                     ??zclGp_ManteinanceIndParse_8:
   \   000187   746E         MOV       A,#0x6e
   \   000189   28           ADD       A,R0
   \   00018A   75F002       MOV       B,#0x2
   \   00018D   12....       LCALL     ?SC_DIV_MOD
   \   000190   F8           MOV       R0,A
    463            RSSI += 110;
    464            RSSI /= 2;
    465            
    466            ( pInd->LinkQuality == 0 ) ?LQI = 0 : ( pInd->LinkQuality > 0 ) ?LQI = 2 : NULL;
   \                     ??zclGp_ManteinanceIndParse_7:
   \   000191   EE           MOV       A,R6
   \   000192   240F         ADD       A,#0xf
   \   000194   12....       LCALL     ??Subroutine66_0 & 0xFFFF
   \                     ??CrossCallReturnLabel_150:
   \   000197   7004         JNZ       ??zclGp_ManteinanceIndParse_9
   \   000199   7900         MOV       R1,#0x0
   \   00019B   8002         SJMP      ??zclGp_ManteinanceIndParse_10
   \                     ??zclGp_ManteinanceIndParse_9:
   \   00019D   7902         MOV       R1,#0x2
    467            
    468            pGpNotification->gppGpdLink = RSSI;
    469            pGpNotification->gppGpdLink |= ( LQI << 6 );
   \                     ??zclGp_ManteinanceIndParse_10:
   \   00019F   E9           MOV       A,R1
   \   0001A0   C4           SWAP      A
   \   0001A1   33           RLC       A
   \   0001A2   33           RLC       A
   \   0001A3   54C0         ANL       A,#0xc0
   \   0001A5   48           ORL       A,R0
   \   0001A6   C0E0         PUSH      A
   \   0001A8   E5..         MOV       A,?V4
   \   0001AA   2419         ADD       A,#0x19
   \   0001AC   12....       LCALL     ?Subroutine46 & 0xFFFF
   \                     ??CrossCallReturnLabel_79:
   \   0001AF   D0E0         POP       A
   \   0001B1   F0           MOVX      @DPTR,A
    470              
    471            return SUCCESS;
   \   0001B2   7900         MOV       R1,#0x0
   \   0001B4   7402         MOV       A,#0x2
   \   0001B6   02....       LJMP      ?Subroutine1 & 0xFFFF
    472          }

   \                                 In  segment BANKED_CODE, align 1, keep-with-next
   \                     ?Subroutine14:
   \   000000   74FF         MOV       A,#-0x1
   \   000002                REQUIRE ??Subroutine56_0
   \   000002                ; // Fall through to label ??Subroutine56_0

   \                                 In  segment BANKED_CODE, align 1, keep-with-next
   \                     ??Subroutine56_0:
   \   000000   F0           MOVX      @DPTR,A
   \   000001   A3           INC       DPTR
   \   000002   F0           MOVX      @DPTR,A
   \   000003   A3           INC       DPTR
   \   000004   F0           MOVX      @DPTR,A
   \   000005   A3           INC       DPTR
   \   000006   F0           MOVX      @DPTR,A
   \   000007   22           RET

   \                                 In  segment BANKED_CODE, align 1, keep-with-next
   \                     ?Subroutine31:
   \   000000   90....       MOV       DPTR,#_NIB + 20
   \   000003                REQUIRE ??Subroutine58_0
   \   000003                ; // Fall through to label ??Subroutine58_0

   \                                 In  segment BANKED_CODE, align 1, keep-with-next
   \                     ??Subroutine58_0:
   \   000000   E0           MOVX      A,@DPTR
   \   000001   F8           MOV       R0,A
   \   000002   A3           INC       DPTR
   \   000003   E0           MOVX      A,@DPTR
   \   000004   F9           MOV       R1,A
   \   000005   22           RET

   \                                 In  segment BANKED_CODE, align 1, keep-with-next
   \                     ?Subroutine28:
   \   000000   E0           MOVX      A,@DPTR
   \   000001   F8           MOV       R0,A
   \   000002   C3           CLR       C
   \   000003   9409         SUBB      A,#0x9
   \   000005   A2D2         MOV       C,0xD0 /* PSW */.2
   \   000007   65D0         XRL       A,PSW
   \   000009   33           RLC       A
   \   00000A   22           RET

   \                                 In  segment BANKED_CODE, align 1, keep-with-next
   \                     ?Subroutine8:
   \   000000   12....       LCALL     ?Subroutine54 & 0xFFFF
   \                     ??CrossCallReturnLabel_94:
   \   000003   22           RET

   \                                 In  segment BANKED_CODE, align 1, keep-with-next
   \                     ?Subroutine54:
   \   000000   F0           MOVX      @DPTR,A
   \   000001   85..82       MOV       DPL,?XSP + 0
   \   000004   85..83       MOV       DPH,?XSP + 1
   \   000007   E0           MOVX      A,@DPTR
   \   000008   22           RET

   \                                 In  segment BANKED_CODE, align 1, keep-with-next
   \                     ?Subroutine10:
   \   000000   F0           MOVX      @DPTR,A
   \   000001   85..82       MOV       DPL,?XSP + 0
   \   000004   85..83       MOV       DPH,?XSP + 1
   \   000007   22           RET

   \                                 In  segment BANKED_CODE, align 1, keep-with-next
   \                     ?Subroutine11:
   \   000000   F0           MOVX      @DPTR,A
   \   000001   EE           MOV       A,R6
   \   000002   240E         ADD       A,#0xe
   \   000004   F582         MOV       DPL,A
   \   000006   E4           CLR       A
   \   000007   3F           ADDC      A,R7
   \   000008   F583         MOV       DPH,A
   \   00000A   22           RET

   \                                 In  segment BANKED_CODE, align 1, keep-with-next
   \                     ?Subroutine1:
   \   000000   12....       LCALL     ?DEALLOC_XSTACK8
   \   000003   7F08         MOV       R7,#0x8
   \   000005   02....       LJMP      ?BANKED_LEAVE_XDATA

   \                                 In  segment BANKED_CODE, align 1, keep-with-next
   \                     ??Subroutine65_0:
   \   000000   E8           MOV       A,R0
   \   000001   F0           MOVX      @DPTR,A
   \   000002   A3           INC       DPTR
   \   000003   E9           MOV       A,R1
   \   000004   F0           MOVX      @DPTR,A
   \   000005   22           RET

   \                                 In  segment BANKED_CODE, align 1, keep-with-next
   \                     ?Subroutine45:
   \   000000   EE           MOV       A,R6
   \   000001   2426         ADD       A,#0x26
   \   000003   F582         MOV       DPL,A
   \   000005   E4           CLR       A
   \   000006   3F           ADDC      A,R7
   \   000007   F583         MOV       DPH,A
   \   000009   22           RET

   \                                 In  segment BANKED_CODE, align 1, keep-with-next
   \                     ?Subroutine40:
   \   000000   F5..         MOV       ?V6,A
   \   000002   E4           CLR       A
   \   000003   3F           ADDC      A,R7
   \   000004   F5..         MOV       ?V7,A
   \   000006   85..82       MOV       DPL,?V6
   \   000009   F583         MOV       DPH,A
   \   00000B   E0           MOVX      A,@DPTR
   \   00000C   22           RET

   \                                 In  segment BANKED_CODE, align 1, keep-with-next
   \                     ?Subroutine39:
   \   000000   EE           MOV       A,R6
   \   000001   241C         ADD       A,#0x1c
   \   000003                REQUIRE ??Subroutine66_0
   \   000003                ; // Fall through to label ??Subroutine66_0

   \                                 In  segment BANKED_CODE, align 1, keep-with-next
   \                     ??Subroutine66_0:
   \   000000   F582         MOV       DPL,A
   \   000002   E4           CLR       A
   \   000003   3F           ADDC      A,R7
   \   000004   F583         MOV       DPH,A
   \   000006   E0           MOVX      A,@DPTR
   \   000007   22           RET

   \                                 In  segment BANKED_CODE, align 1, keep-with-next
   \                     ?Subroutine38:
   \   000000   EE           MOV       A,R6
   \   000001   2421         ADD       A,#0x21
   \   000003   F582         MOV       DPL,A
   \   000005   E4           CLR       A
   \   000006   3F           ADDC      A,R7
   \   000007   F583         MOV       DPH,A
   \   000009   22           RET

   \                                 In  segment BANKED_CODE, align 1, keep-with-next
   \                     ?Subroutine37:
   \   000000   EE           MOV       A,R6
   \   000001   2411         ADD       A,#0x11
   \   000003                REQUIRE ??Subroutine67_0
   \   000003                ; // Fall through to label ??Subroutine67_0

   \                                 In  segment BANKED_CODE, align 1, keep-with-next
   \                     ??Subroutine67_0:
   \   000000   F5..         MOV       ?V0,A
   \   000002   E4           CLR       A
   \   000003   3F           ADDC      A,R7
   \   000004   F5..         MOV       ?V1,A
   \   000006   75..00       MOV       ?V2,#0x0
   \   000009   78..         MOV       R0,#?V0
   \   00000B   22           RET

   \                                 In  segment BANKED_CODE, align 1, keep-with-next
   \                     ?Subroutine46:
   \   000000   F582         MOV       DPL,A
   \   000002   E4           CLR       A
   \   000003   35..         ADDC      A,?V5
   \   000005   F583         MOV       DPH,A
   \   000007   22           RET
    473          
    474          /*********************************************************************
    475           * @fn      zclGp_DataIndParse
    476           *
    477          
    478           * @brief   Parse the Gp Data indication to Gp Notification command
    479           *
    480           * @param   pInd - Pointer to the incoming data
    481           *
    482           * @return  ZStatus_t
    483           */

   \                                 In  segment BANKED_CODE, align 1, keep-with-next
    484          ZStatus_t zclGp_DataIndParse( gp_DataInd_t *pInd, gpNotificationCmd_t *pGpNotification )
   \                     zclGp_DataIndParse:
    485          {
   \   000000                REQUIRE ?V0
   \   000000                REQUIRE ?V1
   \   000000                REQUIRE ?V2
   \   000000                REQUIRE ?V4
   \   000000                REQUIRE ?V5
   \   000000                REQUIRE ?V6
   \   000000   74F1         MOV       A,#-0xf
   \   000002   12....       LCALL     ?BANKED_ENTER_XDATA
   \   000005                ; Saved register size: 15
   \   000005                ; Auto size: 71
   \   000005   74B9         MOV       A,#-0x47
   \   000007   12....       LCALL     ?ALLOC_XSTACK8
   \   00000A   85..82       MOV       DPL,?XSP + 0
   \   00000D   85..83       MOV       DPH,?XSP + 1
   \   000010   12....       LCALL     ?Subroutine17 & 0xFFFF
   \                     ??CrossCallReturnLabel_23:
   \   000013   7402         MOV       A,#0x2
   \   000015   12....       LCALL     ?XSTACK_DISP0_8
   \   000018   EC           MOV       A,R4
   \   000019   F0           MOVX      @DPTR,A
   \   00001A   A3           INC       DPTR
   \   00001B   ED           MOV       A,R5
   \   00001C   F0           MOVX      @DPTR,A
    486            uint8 currEntry[PROXY_TBL_ENTRY_LEN] = PROXY_BASIC_TBL_EMPTY_ENTRY;
   \   00001D   90....       MOV       DPTR,#`?<Constant {255, 255, 255, 255, 255, 255, 255,`
   \   000020   7406         MOV       A,#0x6
   \   000022   12....       LCALL     ?XSTACK_DISP102_8
   \   000025   7441         MOV       A,#0x41
   \   000027   12....       LCALL     ?MOVE_LONG8_XDATA_XDATA
    487            uint8  ntfOpt[2] = {0x00, 0x00};
   \   00002A   7E00         MOV       R6,#0x0
    488            uint8 i;
    489            int8 RSSI;
    490            uint8 LQI;
    491            uint8 status;
    492            
    493            for ( i = 0; i <= GPP_MAX_PROXY_TABLE_ENTRIES ; i++ )
   \   00002C   7F00         MOV       R7,#0x0
   \   00002E   85..82       MOV       DPL,?XSP + 0
   \   000031   85..83       MOV       DPH,?XSP + 1
   \   000034   E0           MOVX      A,@DPTR
   \   000035   2411         ADD       A,#0x11
   \   000037   12....       LCALL     ?Subroutine32 & 0xFFFF
   \                     ??CrossCallReturnLabel_45:
   \   00003A   8E..         MOV       ?V2,R6
   \   00003C   85..82       MOV       DPL,?XSP + 0
   \   00003F   85..83       MOV       DPH,?XSP + 1
   \   000042   E0           MOVX      A,@DPTR
   \   000043   2421         ADD       A,#0x21
   \   000045   F8           MOV       R0,A
   \   000046   A3           INC       DPTR
   \   000047   E0           MOVX      A,@DPTR
   \   000048   3400         ADDC      A,#0x0
   \   00004A   F9           MOV       R1,A
   \   00004B   7404         MOV       A,#0x4
   \   00004D   12....       LCALL     ?XSTACK_DISP0_8
   \   000050   12....       LCALL     ??Subroutine65_0 & 0xFFFF
    494            {
    495              status = gp_getProxyTableByIndex( ( ZCD_NV_PROXY_TABLE_START + i ), currEntry );
   \                     ??CrossCallReturnLabel_140:
   \   000053                ; Setup parameters for call to function gp_getProxyTableByIndex
   \   000053   7406         MOV       A,#0x6
   \   000055   12....       LCALL     ?XSTACK_DISP102_8
   \   000058   EF           MOV       A,R7
   \   000059   12....       LCALL     ??Subroutine60_0 & 0xFFFF
   \                     ??CrossCallReturnLabel_116:
   \   00005C   12....       LCALL     `??gp_getProxyTableByIndex::?relay`; Banked call to: gp_getProxyTableByIndex
   \   00005F   E9           MOV       A,R1
   \   000060   F8           MOV       R0,A
    496          
    497              if ( status == NV_OPER_FAILED )
   \   000061   740A         MOV       A,#0xa
   \   000063   68           XRL       A,R0
   \   000064   7005         JNZ       ??zclGp_DataIndParse_0
    498              {
    499                return status;
   \   000066   790A         MOV       R1,#0xa
   \   000068   02....       LJMP      ??zclGp_DataIndParse_1 & 0xFFFF
    500              }
    501              
    502              // if the entry is empty
    503              if ( status == NV_INVALID_DATA )
   \                     ??zclGp_DataIndParse_0:
   \   00006B   740D         MOV       A,#0xd
   \   00006D   68           XRL       A,R0
   \   00006E   7003         JNZ       $+5
   \   000070   02....       LJMP      ??zclGp_DataIndParse_2 & 0xFFFF
    504              {
    505                continue;
    506              }
    507            
    508              if ( PROXY_TBL_COMP_APPLICTION_ID( pInd->appID, currEntry[PROXY_TBL_ENTRY_OPT] ) )
   \   000073   12....       LCALL     ?Subroutine23 & 0xFFFF
   \                     ??CrossCallReturnLabel_113:
   \   000076   241C         ADD       A,#0x1c
   \   000078   F582         MOV       DPL,A
   \   00007A   E4           CLR       A
   \   00007B   38           ADDC      A,R0
   \   00007C   F583         MOV       DPH,A
   \   00007E   E0           MOVX      A,@DPTR
   \   00007F   F8           MOV       R0,A
   \   000080   7407         MOV       A,#0x7
   \   000082   58           ANL       A,R0
   \   000083   F9           MOV       R1,A
   \   000084   7406         MOV       A,#0x6
   \   000086   12....       LCALL     ?XSTACK_DISP0_8
   \   000089   E0           MOVX      A,@DPTR
   \   00008A   5407         ANL       A,#0x7
   \   00008C   69           XRL       A,R1
   \   00008D   6003         JZ        $+5
   \   00008F   02....       LJMP      ??zclGp_DataIndParse_2 & 0xFFFF
    509              {
    510                if ( pInd->appID == GP_OPT_APP_ID_GPD )
   \   000092   E8           MOV       A,R0
   \   000093   704D         JNZ       ??zclGp_DataIndParse_3
    511                {
    512                  if ( osal_memcmp( &pInd->SrcId, &currEntry[PROXY_TBL_ENTRY_GPD_ID + 4], sizeof ( uint32 ) ) )
   \   000095                ; Setup parameters for call to function osal_memcmp
   \   000095   740C         MOV       A,#0xc
   \   000097   12....       LCALL     ?XSTACK_DISP0_8
   \   00009A   A982         MOV       R1,DPL
   \   00009C   AA83         MOV       R2,DPH
   \   00009E   89..         MOV       ?V4,R1
   \   0000A0   8A..         MOV       ?V5,R2
   \   0000A2   8E..         MOV       ?V6,R6
   \   0000A4   78..         MOV       R0,#?V4
   \   0000A6   12....       LCALL     ?PUSH_XSTACK_I_THREE
   \   0000A9   7C04         MOV       R4,#0x4
   \   0000AB   7D00         MOV       R5,#0x0
   \   0000AD   7407         MOV       A,#0x7
   \   0000AF   12....       LCALL     ?XSTACK_DISP0_8
   \   0000B2   12....       LCALL     ?Subroutine24 & 0xFFFF
   \                     ??CrossCallReturnLabel_35:
   \   0000B5   12....       LCALL     `??osal_memcmp::?relay`; Banked call to: osal_memcmp
   \   0000B8   7403         MOV       A,#0x3
   \   0000BA   12....       LCALL     ?DEALLOC_XSTACK8
   \   0000BD   E9           MOV       A,R1
   \   0000BE   7003         JNZ       $+5
   \   0000C0   02....       LJMP      ??zclGp_DataIndParse_2 & 0xFFFF
    513                  {
    514                    // Entry found
    515                    pGpNotification->gpdId = pInd->SrcId;
   \   0000C3   7404         MOV       A,#0x4
   \   0000C5   12....       LCALL     ?XSTACK_DISP0_8
   \   0000C8   12....       LCALL     ??Subroutine63_0 & 0xFFFF
   \                     ??CrossCallReturnLabel_132:
   \   0000CB   12....       LCALL     ?XLOAD_R0123
   \   0000CE   7402         MOV       A,#0x2
   \   0000D0   12....       LCALL     ?XSTACK_DISP0_8
   \   0000D3   E0           MOVX      A,@DPTR
   \   0000D4   FC           MOV       R4,A
   \   0000D5   A3           INC       DPTR
   \   0000D6   E0           MOVX      A,@DPTR
   \   0000D7   F583         MOV       DPH,A
   \   0000D9   8C82         MOV       DPL,R4
   \   0000DB   A3           INC       DPTR
   \   0000DC   A3           INC       DPTR
   \   0000DD   12....       LCALL     ?XSTORE_R0123
    516                    ntfOpt[0] = GP_OPT_APP_ID_GPD;
    517                    break;
   \   0000E0   8077         SJMP      ??zclGp_DataIndParse_4
    518                  }
    519                }
    520                else if ( pInd->appID == GP_OPT_APP_ID_IEEE )
   \                     ??zclGp_DataIndParse_3:
   \   0000E2   7402         MOV       A,#0x2
   \   0000E4   68           XRL       A,R0
   \   0000E5   7068         JNZ       ??zclGp_DataIndParse_2
    521                {
    522                  if ( osal_memcmp( &pInd->srcAddr, &currEntry[PROXY_TBL_ENTRY_GPD_ID], Z_EXTADDR_LEN ) )
   \   0000E7                ; Setup parameters for call to function osal_memcmp
   \   0000E7   7408         MOV       A,#0x8
   \   0000E9   12....       LCALL     ?XSTACK_DISP0_8
   \   0000EC   A982         MOV       R1,DPL
   \   0000EE   AA83         MOV       R2,DPH
   \   0000F0   89..         MOV       ?V4,R1
   \   0000F2   8A..         MOV       ?V5,R2
   \   0000F4   8E..         MOV       ?V6,R6
   \   0000F6   78..         MOV       R0,#?V4
   \   0000F8   12....       LCALL     ?PUSH_XSTACK_I_THREE
   \   0000FB   7C08         MOV       R4,#0x8
   \   0000FD   7D00         MOV       R5,#0x0
   \   0000FF   A9..         MOV       R1,?V0
   \   000101   AA..         MOV       R2,?V1
   \   000103   AB..         MOV       R3,?V2
   \   000105   12....       LCALL     `??osal_memcmp::?relay`; Banked call to: osal_memcmp
   \   000108   7403         MOV       A,#0x3
   \   00010A   12....       LCALL     ?DEALLOC_XSTACK8
   \   00010D   E9           MOV       A,R1
   \   00010E   603F         JZ        ??zclGp_DataIndParse_2
    523                  {
    524                    // Entry found
    525                    osal_memcpy( pGpNotification->gpdIEEE, &(pInd->srcAddr.addr.extAddr), Z_EXTADDR_LEN );
   \   000110                ; Setup parameters for call to function osal_memcpy
   \   000110   78..         MOV       R0,#?V0
   \   000112   12....       LCALL     ?PUSH_XSTACK_I_THREE
   \   000115   7C08         MOV       R4,#0x8
   \   000117   7D00         MOV       R5,#0x0
   \   000119   7405         MOV       A,#0x5
   \   00011B   12....       LCALL     ?XSTACK_DISP0_8
   \   00011E   E0           MOVX      A,@DPTR
   \   00011F   2406         ADD       A,#0x6
   \   000121   FA           MOV       R2,A
   \   000122   A3           INC       DPTR
   \   000123   E0           MOVX      A,@DPTR
   \   000124   3400         ADDC      A,#0x0
   \   000126   FB           MOV       R3,A
   \   000127   12....       LCALL     `??osal_memcpy::?relay`; Banked call to: osal_memcpy
   \   00012A   7403         MOV       A,#0x3
   \   00012C   12....       LCALL     ?DEALLOC_XSTACK8
    526                    pGpNotification->ep = pInd->EndPoint;
   \   00012F   12....       LCALL     ?Subroutine23 & 0xFFFF
   \                     ??CrossCallReturnLabel_114:
   \   000132   2425         ADD       A,#0x25
   \   000134   F582         MOV       DPL,A
   \   000136   E4           CLR       A
   \   000137   38           ADDC      A,R0
   \   000138   F583         MOV       DPH,A
   \   00013A   E0           MOVX      A,@DPTR
   \   00013B   C0E0         PUSH      A
   \   00013D   7402         MOV       A,#0x2
   \   00013F   12....       LCALL     ?XSTACK_DISP0_8
   \   000142   12....       LCALL     ??Subroutine59_0 & 0xFFFF
   \                     ??CrossCallReturnLabel_109:
   \   000145   12....       LCALL     ?Subroutine47 & 0xFFFF
   \                     ??CrossCallReturnLabel_83:
   \   000148   D0E0         POP       A
   \   00014A   F0           MOVX      @DPTR,A
    527                    ntfOpt[0] = GP_OPT_APP_ID_IEEE;
   \   00014B   7E02         MOV       R6,#0x2
    528                    break;
   \   00014D   800A         SJMP      ??zclGp_DataIndParse_4
    529                  }
    530                }
    531              }
    532              else
    533              {
    534                continue;
    535              }
    536            }
   \                     ??zclGp_DataIndParse_2:
   \   00014F   0F           INC       R7
   \   000150   EF           MOV       A,R7
   \   000151   C3           CLR       C
   \   000152   9406         SUBB      A,#0x6
   \   000154   5003         JNC       $+5
   \   000156   02....       LJMP      ??CrossCallReturnLabel_140 & 0xFFFF
    537            
    538            // Set the options bit field
    539            GP_NTF_SET_ALSO_UNICAST( ( uint8* )&ntfOpt[0], currEntry[PROXY_TBL_ENTRY_OPT] );
    540            GP_NTF_SET_ALSO_DGROUP( ( uint8* )&ntfOpt[0], currEntry[PROXY_TBL_ENTRY_OPT] );
    541            GP_NTF_SET_ALSO_CGROUP( ( uint8* )&ntfOpt[0], currEntry[PROXY_TBL_ENTRY_OPT] );
    542            GP_NTF_SET_SEC_LEVEL( ( uint8* )&ntfOpt[0], currEntry[PROXY_TBL_ENTRY_SEC_OPT] );
   \                     ??zclGp_DataIndParse_4:
   \   000159   7413         MOV       A,#0x13
   \   00015B   12....       LCALL     ?XSTACK_DISP0_8
   \   00015E   E0           MOVX      A,@DPTR
   \   00015F   F8           MOV       R0,A
   \   000160   C4           SWAP      A
   \   000161   33           RLC       A
   \   000162   33           RLC       A
   \   000163   54C0         ANL       A,#0xc0
   \   000165   FA           MOV       R2,A
   \   000166   7406         MOV       A,#0x6
   \   000168   12....       LCALL     ?XSTACK_DISP0_8
   \   00016B   E0           MOVX      A,@DPTR
   \   00016C   A2E0         MOV       C,0xE0 /* A   */.0
   \   00016E   E4           CLR       A
   \   00016F   33           RLC       A
   \   000170   C4           SWAP      A
   \   000171   33           RLC       A
   \   000172   F9           MOV       R1,A
   \   000173   7406         MOV       A,#0x6
   \   000175   12....       LCALL     ?XSTACK_DISP0_8
   \   000178   E0           MOVX      A,@DPTR
   \   000179   13           RRC       A
   \   00017A   13           RRC       A
   \   00017B   13           RRC       A
   \   00017C   541F         ANL       A,#0x1f
   \   00017E   5418         ANL       A,#0x18
   \   000180   4E           ORL       A,R6
   \   000181   49           ORL       A,R1
   \   000182   543F         ANL       A,#0x3f
   \   000184   4A           ORL       A,R2
   \   000185   FE           MOV       R6,A
    543            GP_NTF_SET_SEC_KEY_TYPE( ( uint8* )&ntfOpt[1], currEntry[PROXY_TBL_ENTRY_SEC_OPT] );
   \   000186   E8           MOV       A,R0
   \   000187   13           RRC       A
   \   000188   13           RRC       A
   \   000189   543F         ANL       A,#0x3f
   \   00018B   5407         ANL       A,#0x7
   \   00018D   F8           MOV       R0,A
    544            pInd->RxAfterTx ?PROXY_TBL_SET_RX_AFTER_TX( ( uint8* )&ntfOpt[1] ) : PROXY_TBL_CLR_RX_AFTER_TX( ( uint8* )&ntfOpt[1] );
   \   00018E   85..82       MOV       DPL,?XSP + 0
   \   000191   85..83       MOV       DPH,?XSP + 1
   \   000194   E0           MOVX      A,@DPTR
   \   000195   F9           MOV       R1,A
   \   000196   A3           INC       DPTR
   \   000197   E0           MOVX      A,@DPTR
   \   000198   C9           XCH       A,R1
   \   000199   2420         ADD       A,#0x20
   \   00019B   F582         MOV       DPL,A
   \   00019D   E4           CLR       A
   \   00019E   39           ADDC      A,R1
   \   00019F   F583         MOV       DPH,A
   \   0001A1   E0           MOVX      A,@DPTR
   \   0001A2   6004         JZ        ??zclGp_DataIndParse_5
   \   0001A4   E8           MOV       A,R0
   \   0001A5   D2E3         SETB      0xE0 /* A   */.3
   \   0001A7   F8           MOV       R0,A
    545            
    546            // Mandatory to set this sub fields to 0b1 by the Green Power Proxy Basic Spec in A.3.3.4.1
    547            PROXY_TBL_CLR_TX_QUEUE_FULL( ( uint8* )&ntfOpt[1] );
    548            PROXY_TBL_SET_BIDIRECTIONAL_CAP( ( uint8* )&ntfOpt[1] );
    549            PROXY_TBL_SET_PROXY_INFO( ( uint8* )&ntfOpt[1] );
    550            
    551            pGpNotification->options |= ( ( ntfOpt[0] ) & 0x00FF );
    552            pGpNotification->options |= ( ( ( ntfOpt[1] ) <<  8 ) & 0xFF00 );
   \                     ??zclGp_DataIndParse_5:
   \   0001A8   EE           MOV       A,R6
   \   0001A9   FA           MOV       R2,A
   \   0001AA   7460         MOV       A,#0x60
   \   0001AC   48           ORL       A,R0
   \   0001AD   F9           MOV       R1,A
   \   0001AE   EA           MOV       A,R2
   \   0001AF   F8           MOV       R0,A
   \   0001B0   7402         MOV       A,#0x2
   \   0001B2   12....       LCALL     ?XSTACK_DISP0_8
   \   0001B5   12....       LCALL     ?Subroutine34 & 0xFFFF
   \                     ??CrossCallReturnLabel_102:
   \   0001B8   48           ORL       A,R0
   \   0001B9   F0           MOVX      @DPTR,A
   \   0001BA   A3           INC       DPTR
   \   0001BB   E0           MOVX      A,@DPTR
   \   0001BC   49           ORL       A,R1
   \   0001BD   12....       LCALL     ?Subroutine5 & 0xFFFF
    553            
    554            pGpNotification->gpdSecCounter = pInd->GPDSecFrameCounter;
   \                     ??CrossCallReturnLabel_0:
   \   0001C0   2426         ADD       A,#0x26
   \   0001C2   F582         MOV       DPL,A
   \   0001C4   E4           CLR       A
   \   0001C5   38           ADDC      A,R0
   \   0001C6   F583         MOV       DPH,A
   \   0001C8   12....       LCALL     ?XLOAD_R0123
   \   0001CB   7402         MOV       A,#0x2
   \   0001CD   12....       LCALL     ?XSTACK_DISP0_8
   \   0001D0   E0           MOVX      A,@DPTR
   \   0001D1   FC           MOV       R4,A
   \   0001D2   A3           INC       DPTR
   \   0001D3   E0           MOVX      A,@DPTR
   \   0001D4   CC           XCH       A,R4
   \   0001D5   240F         ADD       A,#0xf
   \   0001D7   F582         MOV       DPL,A
   \   0001D9   E4           CLR       A
   \   0001DA   3C           ADDC      A,R4
   \   0001DB   F583         MOV       DPH,A
   \   0001DD   12....       LCALL     ?XSTORE_R0123
    555            pGpNotification->cmdId = pInd->GPDCmmdID;
   \   0001E0   12....       LCALL     ?Subroutine23 & 0xFFFF
   \                     ??CrossCallReturnLabel_115:
   \   0001E3   242A         ADD       A,#0x2a
   \   0001E5   F582         MOV       DPL,A
   \   0001E7   E4           CLR       A
   \   0001E8   38           ADDC      A,R0
   \   0001E9   F583         MOV       DPH,A
   \   0001EB   E0           MOVX      A,@DPTR
   \   0001EC   C0E0         PUSH      A
   \   0001EE   7402         MOV       A,#0x2
   \   0001F0   12....       LCALL     ?XSTACK_DISP0_8
   \   0001F3   12....       LCALL     ??Subroutine59_0 & 0xFFFF
   \                     ??CrossCallReturnLabel_110:
   \   0001F6   2413         ADD       A,#0x13
   \   0001F8   F582         MOV       DPL,A
   \   0001FA   E4           CLR       A
   \   0001FB   38           ADDC      A,R0
   \   0001FC   F583         MOV       DPH,A
   \   0001FE   D0E0         POP       A
   \   000200   12....       LCALL     ?Subroutine5 & 0xFFFF
    556          
    557            if ( pInd->GPDasduLength > 0 )
   \                     ??CrossCallReturnLabel_1:
   \   000203   242F         ADD       A,#0x2f
   \   000205   F582         MOV       DPL,A
   \   000207   E4           CLR       A
   \   000208   38           ADDC      A,R0
   \   000209   F583         MOV       DPH,A
   \   00020B   E0           MOVX      A,@DPTR
   \   00020C   6034         JZ        ??CrossCallReturnLabel_141
    558            {
    559              pGpNotification->payloadLen = pInd->GPDasduLength;
   \   00020E   C0E0         PUSH      A
   \   000210   7402         MOV       A,#0x2
   \   000212   12....       LCALL     ?XSTACK_DISP0_8
   \   000215   12....       LCALL     ??Subroutine59_0 & 0xFFFF
    560              pGpNotification->cmdPayload = pInd->GPDasdu;
    561            }
   \                     ??CrossCallReturnLabel_111:
   \   000218   2414         ADD       A,#0x14
   \   00021A   F582         MOV       DPL,A
   \   00021C   E4           CLR       A
   \   00021D   38           ADDC      A,R0
   \   00021E   F583         MOV       DPH,A
   \   000220   D0E0         POP       A
   \   000222   12....       LCALL     ?Subroutine8 & 0xFFFF
   \                     ??CrossCallReturnLabel_8:
   \   000225   2430         ADD       A,#0x30
   \   000227   F8           MOV       R0,A
   \   000228   A3           INC       DPTR
   \   000229   E0           MOVX      A,@DPTR
   \   00022A   3400         ADDC      A,#0x0
   \   00022C   F9           MOV       R1,A
   \   00022D   7402         MOV       A,#0x2
   \   00022F   12....       LCALL     ?XSTACK_DISP0_8
   \   000232   E0           MOVX      A,@DPTR
   \   000233   FA           MOV       R2,A
   \   000234   A3           INC       DPTR
   \   000235   E0           MOVX      A,@DPTR
   \   000236   CA           XCH       A,R2
   \   000237   2415         ADD       A,#0x15
   \   000239   F582         MOV       DPL,A
   \   00023B   E4           CLR       A
   \   00023C   3A           ADDC      A,R2
   \   00023D   F583         MOV       DPH,A
   \   00023F   12....       LCALL     ??Subroutine65_0 & 0xFFFF
    562            
    563            pGpNotification->gppShortAddr = _NIB.nwkDevAddress;
   \                     ??CrossCallReturnLabel_141:
   \   000242   12....       LCALL     ?Subroutine31 & 0xFFFF
   \                     ??CrossCallReturnLabel_107:
   \   000245   7402         MOV       A,#0x2
   \   000247   12....       LCALL     ?XSTACK_DISP0_8
   \   00024A   E0           MOVX      A,@DPTR
   \   00024B   FA           MOV       R2,A
   \   00024C   A3           INC       DPTR
   \   00024D   E0           MOVX      A,@DPTR
   \   00024E   CA           XCH       A,R2
   \   00024F   2417         ADD       A,#0x17
   \   000251   F582         MOV       DPL,A
   \   000253   E4           CLR       A
   \   000254   3A           ADDC      A,R2
   \   000255   F583         MOV       DPH,A
   \   000257   E8           MOV       A,R0
   \   000258   F0           MOVX      @DPTR,A
   \   000259   A3           INC       DPTR
   \   00025A   E9           MOV       A,R1
   \   00025B   12....       LCALL     ?Subroutine5 & 0xFFFF
    564            
    565            RSSI = pInd->Rssi;
   \                     ??CrossCallReturnLabel_2:
   \   00025E   12....       LCALL     ?Subroutine47 & 0xFFFF
   \                     ??CrossCallReturnLabel_84:
   \   000261   12....       LCALL     ?Subroutine28 & 0xFFFF
    566            ( RSSI > 8 ) ?RSSI = 8 : ( RSSI < -109 ) ?RSSI = -109 : NULL;
   \                     ??CrossCallReturnLabel_40:
   \   000264   4004         JC        ??zclGp_DataIndParse_6
   \   000266   7808         MOV       R0,#0x8
   \   000268   800D         SJMP      ??zclGp_DataIndParse_7
   \                     ??zclGp_DataIndParse_6:
   \   00026A   E8           MOV       A,R0
   \   00026B   C3           CLR       C
   \   00026C   9493         SUBB      A,#-0x6d
   \   00026E   A2D2         MOV       C,0xD0 /* PSW */.2
   \   000270   65D0         XRL       A,PSW
   \   000272   33           RLC       A
   \   000273   5002         JNC       ??zclGp_DataIndParse_7
   \   000275   7893         MOV       R0,#-0x6d
    567            RSSI += 110;
    568            RSSI /= 2;
   \                     ??zclGp_DataIndParse_7:
   \   000277   746E         MOV       A,#0x6e
   \   000279   28           ADD       A,R0
   \   00027A   75F002       MOV       B,#0x2
   \   00027D   12....       LCALL     ?SC_DIV_MOD
   \   000280   F8           MOV       R0,A
    569            
    570            ( pInd->LinkQuality == 0 ) ?LQI = 0 : ( pInd->LinkQuality > 0 ) ?LQI = 2 : NULL;
   \   000281   85..82       MOV       DPL,?XSP + 0
   \   000284   85..83       MOV       DPH,?XSP + 1
   \   000287   E0           MOVX      A,@DPTR
   \   000288   F9           MOV       R1,A
   \   000289   A3           INC       DPTR
   \   00028A   E0           MOVX      A,@DPTR
   \   00028B   C9           XCH       A,R1
   \   00028C   240F         ADD       A,#0xf
   \   00028E   F582         MOV       DPL,A
   \   000290   E4           CLR       A
   \   000291   39           ADDC      A,R1
   \   000292   F583         MOV       DPH,A
   \   000294   E0           MOVX      A,@DPTR
   \   000295   7004         JNZ       ??zclGp_DataIndParse_8
   \   000297   7900         MOV       R1,#0x0
   \   000299   8002         SJMP      ??zclGp_DataIndParse_9
   \                     ??zclGp_DataIndParse_8:
   \   00029B   7902         MOV       R1,#0x2
    571            
    572            pGpNotification->gppGpdLink = RSSI;
    573            pGpNotification->gppGpdLink |= ( LQI << 6 );
   \                     ??zclGp_DataIndParse_9:
   \   00029D   E9           MOV       A,R1
   \   00029E   C4           SWAP      A
   \   00029F   33           RLC       A
   \   0002A0   33           RLC       A
   \   0002A1   54C0         ANL       A,#0xc0
   \   0002A3   48           ORL       A,R0
   \   0002A4   C0E0         PUSH      A
   \   0002A6   7402         MOV       A,#0x2
   \   0002A8   12....       LCALL     ?XSTACK_DISP0_8
   \   0002AB   12....       LCALL     ??Subroutine59_0 & 0xFFFF
   \                     ??CrossCallReturnLabel_112:
   \   0002AE   2419         ADD       A,#0x19
   \   0002B0   F582         MOV       DPL,A
   \   0002B2   E4           CLR       A
   \   0002B3   38           ADDC      A,R0
   \   0002B4   F583         MOV       DPH,A
   \   0002B6   D0E0         POP       A
   \   0002B8   F0           MOVX      @DPTR,A
    574              
    575            return SUCCESS;
   \   0002B9   7900         MOV       R1,#0x0
   \                     ??zclGp_DataIndParse_1:
   \   0002BB   7447         MOV       A,#0x47
   \   0002BD   02....       LJMP      ?Subroutine2 & 0xFFFF
    576          }

   \                                 In  segment BANKED_CODE, align 1, keep-with-next
   \                     ?Subroutine47:
   \   000000   240E         ADD       A,#0xe
   \   000002   F582         MOV       DPL,A
   \   000004   E4           CLR       A
   \   000005   38           ADDC      A,R0
   \   000006   F583         MOV       DPH,A
   \   000008   22           RET

   \                                 In  segment BANKED_CODE, align 1, keep-with-next
   \                     ?Subroutine34:
   \   000000   E0           MOVX      A,@DPTR
   \   000001   FA           MOV       R2,A
   \   000002                REQUIRE ??Subroutine57_0
   \   000002                ; // Fall through to label ??Subroutine57_0

   \                                 In  segment BANKED_CODE, align 1, keep-with-next
   \                     ??Subroutine57_0:
   \   000000   A3           INC       DPTR
   \   000001   E0           MOVX      A,@DPTR
   \   000002   F583         MOV       DPH,A
   \   000004   8A82         MOV       DPL,R2
   \   000006   E0           MOVX      A,@DPTR
   \   000007   22           RET

   \                                 In  segment BANKED_CODE, align 1, keep-with-next
   \                     ?Subroutine23:
   \   000000   85..82       MOV       DPL,?XSP + 0
   \   000003   85..83       MOV       DPH,?XSP + 1
   \   000006                REQUIRE ??Subroutine59_0
   \   000006                ; // Fall through to label ??Subroutine59_0

   \                                 In  segment BANKED_CODE, align 1, keep-with-next
   \                     ??Subroutine59_0:
   \   000000   E0           MOVX      A,@DPTR
   \   000001   F8           MOV       R0,A
   \   000002   A3           INC       DPTR
   \   000003   E0           MOVX      A,@DPTR
   \   000004   C8           XCH       A,R0
   \   000005   22           RET

   \                                 In  segment BANKED_CODE, align 1, keep-with-next
   \                     ?Subroutine5:
   \   000000   12....       LCALL     ?Subroutine50 & 0xFFFF
   \                     ??CrossCallReturnLabel_85:
   \   000003   C8           XCH       A,R0
   \   000004   22           RET

   \                                 In  segment BANKED_CODE, align 1, keep-with-next
   \                     ??Subroutine60_0:
   \   000000   2410         ADD       A,#0x10
   \   000002   FA           MOV       R2,A
   \   000003   E4           CLR       A
   \   000004   3403         ADDC      A,#0x3
   \   000006   FB           MOV       R3,A
   \   000007   22           RET

   \                                 In  segment BANKED_CODE, align 1, keep-with-next
   \                     ?Subroutine2:
   \   000000   12....       LCALL     ?DEALLOC_XSTACK8
   \   000003   7F07         MOV       R7,#0x7
   \   000005   02....       LJMP      ?BANKED_LEAVE_XDATA

   \                                 In  segment BANKED_CODE, align 1, keep-with-next
   \                     ?Subroutine32:
   \   000000   F5..         MOV       ?V0,A
   \   000002   A3           INC       DPTR
   \   000003   E0           MOVX      A,@DPTR
   \   000004   3400         ADDC      A,#0x0
   \   000006   F5..         MOV       ?V1,A
   \   000008   22           RET

   \                                 In  segment BANKED_CODE, align 1, keep-with-next
   \                     ?Subroutine50:
   \   000000   12....       LCALL     ?Subroutine54 & 0xFFFF
   \                     ??CrossCallReturnLabel_95:
   \   000003   F8           MOV       R0,A
   \   000004   A3           INC       DPTR
   \   000005   E0           MOVX      A,@DPTR
   \   000006   22           RET

   \                                 In  segment BANKED_CODE, align 1, keep-with-next
   \                     ??Subroutine63_0:
   \   000000   E0           MOVX      A,@DPTR
   \   000001   F8           MOV       R0,A
   \   000002   A3           INC       DPTR
   \   000003                REQUIRE ??Subroutine64_0
   \   000003                ; // Fall through to label ??Subroutine64_0

   \                                 In  segment BANKED_CODE, align 1, keep-with-next
   \                     ?Subroutine24:
   \   000000   12....       LCALL     ?Subroutine51 & 0xFFFF
   \                     ??CrossCallReturnLabel_89:
   \   000003   A982         MOV       R1,DPL
   \   000005   AA83         MOV       R2,DPH
   \   000007   7B00         MOV       R3,#0x0
   \   000009   22           RET

   \                                 In  segment BANKED_CODE, align 1, keep-with-next
   \                     ?Subroutine51:
   \   000000   E0           MOVX      A,@DPTR
   \   000001   F8           MOV       R0,A
   \   000002   A3           INC       DPTR
   \   000003   E0           MOVX      A,@DPTR
   \   000004   F583         MOV       DPH,A
   \   000006   8882         MOV       DPL,R0
   \   000008   22           RET

   \                                 In  segment BANKED_CODE, align 1, keep-with-next
   \                     ?Subroutine17:
   \   000000   EA           MOV       A,R2
   \   000001   F0           MOVX      @DPTR,A
   \   000002   A3           INC       DPTR
   \   000003   EB           MOV       A,R3
   \   000004   F0           MOVX      @DPTR,A
   \   000005   22           RET
    577          
    578          /*********************************************************************
    579           * @fn      zclGp_GpPairingCommandCB
    580           *
    581           * @brief   Callback from the ZCL GreenPower Cluster Library when
    582           *          it received an Gp Notification Command for this application.
    583           *
    584           * @param   pCmd - command payload
    585           *
    586           * @return  none
    587           */

   \                                 In  segment BANKED_CODE, align 1, keep-with-next
   \                     ?Subroutine0:
   \   000000   12....       LCALL     ?DEALLOC_XSTACK8
   \   000003                REQUIRE ??Subroutine55_0
   \   000003                ; // Fall through to label ??Subroutine55_0

   \                                 In  segment BANKED_CODE, align 1, keep-with-next
    588          static void zclGp_GpPairingCommandCB( zclGpPairing_t *pCmd )
   \                     zclGp_GpPairingCommandCB:
    589          {
   \   000000   C082         PUSH      DPL
   \   000002   C083         PUSH      DPH
   \   000004                ; Saved register size: 2
   \   000004                ; Auto size: 53
   \   000004   74CB         MOV       A,#-0x35
   \   000006   12....       LCALL     ?ALLOC_XSTACK8
    590            gpPairingCmd_t pairingPayload = {0x00};
   \   000009   90....       MOV       DPTR,#`?<Constant {0, 0, {0, 0, 0, 0, 0, 0, 0, 0}, 0,`
   \   00000C   AC..         MOV       R4,?XSP + 0
   \   00000E   AD..         MOV       R5,?XSP + 1
   \   000010   7435         MOV       A,#0x35
   \   000012   12....       LCALL     ?MOVE_LONG8_XDATA_XDATA
    591          
    592            gp_ZclPairingParse( pCmd, &pairingPayload );
   \   000015                ; Setup parameters for call to function gp_ZclPairingParse
   \   000015   AC..         MOV       R4,?XSP + 0
   \   000017   AD..         MOV       R5,?XSP + 1
   \   000019   12....       LCALL     `??gp_ZclPairingParse::?relay`; Banked call to: gp_ZclPairingParse
    593            gp_PairingUpdateProxyTlb( &pairingPayload );
   \   00001C                ; Setup parameters for call to function gp_PairingUpdateProxyTlb
   \   00001C   AA..         MOV       R2,?XSP + 0
   \   00001E   AB..         MOV       R3,?XSP + 1
   \   000020   12....       LCALL     `??gp_PairingUpdateProxyTlb::?relay`; Banked call to: gp_PairingUpdateProxyTlb
    594            
    595            
    596            if(gp_commissioningOptions & GP_COMM_OPT_EXIT_ON_PAIRING_SUCCESS_MASK)
   \   000023   90....       MOV       DPTR,#gp_commissioningOptions
   \   000026   E0           MOVX      A,@DPTR
   \   000027   A2E2         MOV       C,0xE0 /* A   */.2
   \   000029   5003         JNC       ??zclGp_GpPairingCommandCB_0
    597            {
    598              gp_stopCommissioningMode();
   \   00002B                ; Setup parameters for call to function gp_stopCommissioningMode
   \   00002B   12....       LCALL     `??gp_stopCommissioningMode::?relay`; Banked call to: gp_stopCommissioningMode
    599            }
    600          }
   \                     ??zclGp_GpPairingCommandCB_0:
   \   00002E   7435         MOV       A,#0x35
   \   000030   02....       LJMP      ?Subroutine0 & 0xFFFF
    601          
    602          /*********************************************************************
    603           * @fn      zclGp_GpProxyTableReqCB
    604           *
    605           * @brief   Callback from the ZCL GreenPower Cluster Library when
    606           *          it received a Gp proxy table req.
    607           *
    608           * @param   pCmd - command payload
    609           *
    610           * @return  none
    611           */

   \                                 In  segment BANKED_CODE, align 1, keep-with-next
    612          static void zclGp_GpProxyTableReqCB( zclGpProxyTableRequest_t *pCmd )
   \                     zclGp_GpProxyTableReqCB:
    613          {
   \   000000                REQUIRE ?V0
   \   000000                REQUIRE ?V1
   \   000000                REQUIRE ?V2
   \   000000                REQUIRE ?V3
   \   000000                REQUIRE ?V4
   \   000000                REQUIRE ?V5
   \   000000                REQUIRE ?V6
   \   000000   74F1         MOV       A,#-0xf
   \   000002   12....       LCALL     ?BANKED_ENTER_XDATA
   \   000005                ; Saved register size: 15
   \   000005                ; Auto size: 166
   \   000005   745A         MOV       A,#0x5a
   \   000007   12....       LCALL     ?ALLOC_XSTACK8
   \   00000A   740A         MOV       A,#0xa
   \   00000C   12....       LCALL     ?XSTACK_DISP0_8
   \   00000F   12....       LCALL     ?Subroutine17 & 0xFFFF
    614            uint8 i;
    615            uint8 emptyEntry = 0;
   \                     ??CrossCallReturnLabel_24:
   \   000012   7409         MOV       A,#0x9
   \   000014   12....       LCALL     ?XSTACK_DISP0_8
   \   000017   E4           CLR       A
   \   000018   12....       LCALL     ?Subroutine10 & 0xFFFF
    616            uint8 entryLen = 0;
   \                     ??CrossCallReturnLabel_13:
   \   00001B   F0           MOVX      @DPTR,A
    617            uint8 maxEntryLen = 0;
   \   00001C   7F00         MOV       R7,#0x0
    618            uint8* buf = NULL;
   \   00001E   F5..         MOV       ?V0,A
   \   000020   F5..         MOV       ?V1,A
    619            uint8 currEntry[PROXY_TBL_ENTRY_LEN] = PROXY_BASIC_TBL_EMPTY_ENTRY;
   \   000022   90....       MOV       DPTR,#`?<Constant {255, 255, 255, 255, 255, 255, 255,_1`
   \   000025   7465         MOV       A,#0x65
   \   000027   12....       LCALL     ?XSTACK_DISP102_8
   \   00002A   7441         MOV       A,#0x41
   \   00002C   12....       LCALL     ?MOVE_LONG8_XDATA_XDATA
    620            
    621            zclGpProxyTableResponse_t proxyTblRsp = {0};
   \   00002F   90....       MOV       DPTR,#`?<Constant {0}>`
   \   000032   04           INC       A
   \   000033   12....       LCALL     ?XSTACK_DISP102_8
   \   000036   7406         MOV       A,#0x6
   \   000038   12....       LCALL     ?MOVE_LONG8_XDATA_XDATA
    622            gpProxyTableReqCmd_t proxyTblReqPayload = {0};
   \   00003B   90....       MOV       DPTR,#`?<Constant {0, 0, {0, 0, 0, 0, 0, 0, 0, 0}, 0,_1`
   \   00003E   7415         MOV       A,#0x15
   \   000040   12....       LCALL     ?XSTACK_DISP102_8
   \   000043   740F         MOV       A,#0xf
   \   000045   12....       LCALL     ?MOVE_LONG8_XDATA_XDATA
    623            
    624            proxyTblRsp.proxyTableEntry = NULL;
   \   000048   7405         MOV       A,#0x5
   \   00004A   12....       LCALL     ?XSTACK_DISP0_8
   \   00004D   E4           CLR       A
   \   00004E   F0           MOVX      @DPTR,A
   \   00004F   A3           INC       DPTR
   \   000050   F0           MOVX      @DPTR,A
    625            
    626          
    627            gp_ZclProxyTableReqParse( pCmd, &proxyTblReqPayload );
   \   000051                ; Setup parameters for call to function gp_ZclProxyTableReqParse
   \   000051   7415         MOV       A,#0x15
   \   000053   12....       LCALL     ?XSTACK_DISP102_8
   \   000056   740A         MOV       A,#0xa
   \   000058   12....       LCALL     ?XSTACK_DISP0_8
   \   00005B   12....       LCALL     ??Subroutine68_0 & 0xFFFF
   \                     ??CrossCallReturnLabel_159:
   \   00005E   12....       LCALL     `??gp_ZclProxyTableReqParse::?relay`; Banked call to: gp_ZclProxyTableReqParse
    628            
    629            // To get total entries for "Total number of non-empty Proxy Table entries" field
    630            for ( i = 0; i <= GPP_MAX_PROXY_TABLE_ENTRIES; i++ )
   \   000061   7E00         MOV       R6,#0x0
    631            {
    632              if ( gp_getProxyTableByIndex( ( ZCD_NV_PROXY_TABLE_START + i ), currEntry ) == SUCCESS )
   \                     ??zclGp_GpProxyTableReqCB_0:
   \   000063                ; Setup parameters for call to function gp_getProxyTableByIndex
   \   000063   7465         MOV       A,#0x65
   \   000065   12....       LCALL     ?XSTACK_DISP102_8
   \   000068   12....       LCALL     ?Subroutine48 & 0xFFFF
   \                     ??CrossCallReturnLabel_118:
   \   00006B   12....       LCALL     `??gp_getProxyTableByIndex::?relay`; Banked call to: gp_getProxyTableByIndex
   \   00006E   E9           MOV       A,R1
   \   00006F   7008         JNZ       ??zclGp_GpProxyTableReqCB_1
    633              {
    634                proxyTblRsp.tableEntriesTotal += 1;
   \   000071   7402         MOV       A,#0x2
   \   000073   12....       LCALL     ?XSTACK_DISP0_8
   \   000076   E0           MOVX      A,@DPTR
   \   000077   04           INC       A
   \   000078   F0           MOVX      @DPTR,A
    635              }
    636            }
   \                     ??zclGp_GpProxyTableReqCB_1:
   \   000079   0E           INC       R6
   \   00007A   EE           MOV       A,R6
   \   00007B   C3           CLR       C
   \   00007C   9406         SUBB      A,#0x6
   \   00007E   40E3         JC        ??zclGp_GpProxyTableReqCB_0
    637            
    638            if ( proxyTblRsp.tableEntriesTotal == 0x00 )
   \   000080   7402         MOV       A,#0x2
   \   000082   12....       LCALL     ?XSTACK_DISP0_8
   \   000085   E0           MOVX      A,@DPTR
   \   000086   7028         JNZ       ??zclGp_GpProxyTableReqCB_2
    639            {
    640              proxyTblRsp.status = SUCCESS;
   \   000088   7401         MOV       A,#0x1
   \   00008A   12....       LCALL     ?XSTACK_DISP0_8
   \   00008D   E4           CLR       A
   \   00008E   F0           MOVX      @DPTR,A
    641              proxyTblRsp.startIndex = 0x00;
   \   00008F   7403         MOV       A,#0x3
   \   000091   12....       LCALL     ?XSTACK_DISP0_8
   \   000094   E4           CLR       A
   \   000095   F0           MOVX      @DPTR,A
    642              proxyTblRsp.entriesCount = 0x00;
   \   000096   7404         MOV       A,#0x4
   \   000098   12....       LCALL     ?XSTACK_DISP0_8
   \   00009B   E4           CLR       A
   \   00009C   12....       LCALL     ?Subroutine19 & 0xFFFF
    643              // Send response and exit
    644              zclGp_SendGpProxyTableResponse( pCmd->srcAddr, &proxyTblRsp, zcl_InSeqNum );
   \                     ??CrossCallReturnLabel_31:
   \   00009F   12....       LCALL     ?XSTACK_DISP102_8
   \   0000A2   740A         MOV       A,#0xa
   \   0000A4   12....       LCALL     ?XSTACK_DISP0_8
   \   0000A7   12....       LCALL     ?Subroutine21 & 0xFFFF
   \                     ??CrossCallReturnLabel_171:
   \   0000AA   12....       LCALL     `??zclGp_SendGpProxyTableResponse::?relay`; Banked call to: zclGp_SendGpProxyTableResponse
    645              return;
   \   0000AD   02....       LJMP      ??zclGp_GpProxyTableReqCB_3 & 0xFFFF
    646            }
    647            
    648            // for Request Table Entries by Index
    649            if ( GP_IS_REQ_TPY_INDEX ( proxyTblReqPayload.options ) )
   \                     ??zclGp_GpProxyTableReqCB_2:
   \   0000B0   7415         MOV       A,#0x15
   \   0000B2   12....       LCALL     ?XSTACK_DISP0_8
   \   0000B5   12....       LCALL     ?Subroutine36 & 0xFFFF
   \                     ??CrossCallReturnLabel_55:
   \   0000B8   6401         XRL       A,#0x1
   \   0000BA   6003         JZ        $+5
   \   0000BC   02....       LJMP      ??zclGp_GpProxyTableReqCB_4 & 0xFFFF
    650            {
    651              
    652              for ( i = proxyTblReqPayload.index; i <= GPP_MAX_PROXY_TABLE_ENTRIES; i++ )
   \   0000BF   7423         MOV       A,#0x23
   \   0000C1   12....       LCALL     ?XSTACK_DISP0_8
   \   0000C4   E0           MOVX      A,@DPTR
   \   0000C5   FE           MOV       R6,A
   \   0000C6   8001         SJMP      ??zclGp_GpProxyTableReqCB_5
   \                     ??zclGp_GpProxyTableReqCB_6:
   \   0000C8   0E           INC       R6
   \                     ??zclGp_GpProxyTableReqCB_5:
   \   0000C9   EE           MOV       A,R6
   \   0000CA   C3           CLR       C
   \   0000CB   9406         SUBB      A,#0x6
   \   0000CD   5026         JNC       ??zclGp_GpProxyTableReqCB_7
    653              {    
    654                maxEntryLen = entryLen;    // Save the last iteration Lenght
   \   0000CF   12....       LCALL     ?Subroutine27 & 0xFFFF
    655                
    656                // Get the length of the payload
    657                if ( pt_ZclReadGetProxyEntry ( ( ZCD_NV_PROXY_TABLE_START + i ), NULL, &entryLen ) != SUCCESS )
   \                     ??CrossCallReturnLabel_37:
   \   0000D2   12....       LCALL     ?PUSH_XSTACK_I_TWO
   \   0000D5   7C00         MOV       R4,#0x0
   \   0000D7   7D00         MOV       R5,#0x0
   \   0000D9   12....       LCALL     ?Subroutine48 & 0xFFFF
   \                     ??CrossCallReturnLabel_119:
   \   0000DC   12....       LCALL     `??pt_ZclReadGetProxyEntry::?relay`; Banked call to: pt_ZclReadGetProxyEntry
   \   0000DF   7402         MOV       A,#0x2
   \   0000E1   12....       LCALL     ?DEALLOC_XSTACK8
   \   0000E4   E9           MOV       A,R1
   \   0000E5   700E         JNZ       ??zclGp_GpProxyTableReqCB_7
    658                {
    659                  break;
    660                }
    661                
    662                if ( entryLen >= 75 )   // max payload for entries
   \   0000E7   85..82       MOV       DPL,?XSP + 0
   \   0000EA   85..83       MOV       DPH,?XSP + 1
   \   0000ED   E0           MOVX      A,@DPTR
   \   0000EE   C3           CLR       C
   \   0000EF   944B         SUBB      A,#0x4b
   \   0000F1   40D5         JC        ??zclGp_GpProxyTableReqCB_6
    663                {
    664                  entryLen = maxEntryLen;   // The last valid lenght is the MAX for this packet
   \   0000F3   EF           MOV       A,R7
   \   0000F4   F0           MOVX      @DPTR,A
    665                  break;
    666                }
    667              }
    668          
    669              if ( entryLen )
   \                     ??zclGp_GpProxyTableReqCB_7:
   \   0000F5   85..82       MOV       DPL,?XSP + 0
   \   0000F8   85..83       MOV       DPH,?XSP + 1
   \   0000FB   E0           MOVX      A,@DPTR
   \   0000FC   605B         JZ        ??zclGp_GpProxyTableReqCB_4
    670              {
    671                buf = zcl_mem_alloc( entryLen );
   \   0000FE                ; Setup parameters for call to function osal_mem_alloc
   \   0000FE   FA           MOV       R2,A
   \   0000FF   7B00         MOV       R3,#0x0
   \   000101   12....       LCALL     `??osal_mem_alloc::?relay`; Banked call to: osal_mem_alloc
   \   000104   8A..         MOV       ?V0,R2
   \   000106   8B..         MOV       ?V1,R3
    672                if ( buf != NULL )
   \   000108   EA           MOV       A,R2
   \   000109   45..         ORL       A,?V1
   \   00010B   604C         JZ        ??zclGp_GpProxyTableReqCB_4
    673                {
    674                  // Load the buffer - serially
    675                  uint8 *pBuf = buf;
    676                
    677                  entryLen = 0;
   \   00010D   85..82       MOV       DPL,?XSP + 0
   \   000110   85..83       MOV       DPH,?XSP + 1
   \   000113   E4           CLR       A
   \   000114   F0           MOVX      @DPTR,A
    678                  proxyTblRsp.entriesCount = 0;
   \   000115   7404         MOV       A,#0x4
   \   000117   12....       LCALL     ?XSTACK_DISP0_8
   \   00011A   E4           CLR       A
   \   00011B   F0           MOVX      @DPTR,A
    679                  for ( i = proxyTblReqPayload.index; i <= GPP_MAX_PROXY_TABLE_ENTRIES ; i++ )
   \   00011C   7423         MOV       A,#0x23
   \   00011E   12....       LCALL     ?XSTACK_DISP0_8
   \   000121   E0           MOVX      A,@DPTR
   \   000122   FE           MOV       R6,A
   \   000123   8001         SJMP      ??zclGp_GpProxyTableReqCB_8
   \                     ??zclGp_GpProxyTableReqCB_9:
   \   000125   0E           INC       R6
   \                     ??zclGp_GpProxyTableReqCB_8:
   \   000126   EE           MOV       A,R6
   \   000127   C3           CLR       C
   \   000128   9406         SUBB      A,#0x6
   \   00012A   502D         JNC       ??zclGp_GpProxyTableReqCB_4
    680                  {  
    681                    if( pt_ZclReadGetProxyEntry ( ( ZCD_NV_PROXY_TABLE_START + i ), pBuf, &entryLen ) != SUCCESS )
   \   00012C                ; Setup parameters for call to function pt_ZclReadGetProxyEntry
   \   00012C   A8..         MOV       R0,?XSP + 0
   \   00012E   A9..         MOV       R1,?XSP + 1
   \   000130   88..         MOV       ?V2,R0
   \   000132   89..         MOV       ?V3,R1
   \   000134   78..         MOV       R0,#?V2
   \   000136   12....       LCALL     ?PUSH_XSTACK_I_TWO
   \   000139   AC..         MOV       R4,?V0
   \   00013B   AD..         MOV       R5,?V1
   \   00013D   12....       LCALL     ?Subroutine48 & 0xFFFF
   \                     ??CrossCallReturnLabel_120:
   \   000140   12....       LCALL     `??pt_ZclReadGetProxyEntry::?relay`; Banked call to: pt_ZclReadGetProxyEntry
   \   000143   7402         MOV       A,#0x2
   \   000145   12....       LCALL     ?DEALLOC_XSTACK8
   \   000148   E9           MOV       A,R1
   \   000149   700E         JNZ       ??zclGp_GpProxyTableReqCB_4
    682                    {
    683                      break;
    684                    }
    685                    
    686                    proxyTblRsp.entriesCount += 1;
   \   00014B   7404         MOV       A,#0x4
   \   00014D   12....       LCALL     ?XSTACK_DISP0_8
   \   000150   E0           MOVX      A,@DPTR
   \   000151   04           INC       A
   \   000152   12....       LCALL     ?Subroutine8 & 0xFFFF
    687                    if ( entryLen >= maxEntryLen )   // to see if we reched the MAX calculated payload
    688                    {
    689                      break;
    690                    }
    691                  }
    692                }
    693              }
    694            }
   \                     ??CrossCallReturnLabel_9:
   \   000155   C3           CLR       C
   \   000156   9F           SUBB      A,R7
   \   000157   40CC         JC        ??zclGp_GpProxyTableReqCB_9
    695            
    696            // for Request Table Entries by GPD ID
    697            if ( GP_IS_REQ_TYP_GPD ( proxyTblReqPayload.options ) )
   \                     ??zclGp_GpProxyTableReqCB_4:
   \   000159   7415         MOV       A,#0x15
   \   00015B   12....       LCALL     ?XSTACK_DISP0_8
   \   00015E   12....       LCALL     ?Subroutine36 & 0xFFFF
   \                     ??CrossCallReturnLabel_56:
   \   000161   6003         JZ        $+5
   \   000163   02....       LJMP      ??zclGp_GpProxyTableReqCB_10 & 0xFFFF
    698            {
    699              uint8 lookForEntry = 0;
    700              gpd_ID_t gpd_ID;
    701              uint16 NvProxyTableIndex;
    702              uint8  ProxyTableEntryTemp[PROXY_TBL_ENTRY_LEN];
    703              
    704              if ( GP_IS_APPLICATION_ID_GPD( proxyTblReqPayload.options ) )
   \   000166   E0           MOVX      A,@DPTR
   \   000167   5407         ANL       A,#0x7
   \   000169   F8           MOV       R0,A
   \   00016A   7019         JNZ       ??zclGp_GpProxyTableReqCB_11
    705              {
    706                gpd_ID.AppID = GP_OPT_APP_ID_GPD;
   \   00016C   740C         MOV       A,#0xc
   \   00016E   12....       LCALL     ?XSTACK_DISP0_8
   \   000171   E4           CLR       A
   \   000172   F0           MOVX      @DPTR,A
    707                gpd_ID.GPDId.SrcID = proxyTblReqPayload.gpdId;
   \   000173   7416         MOV       A,#0x16
   \   000175   12....       LCALL     ?XSTACK_DISP0_8
   \   000178   12....       LCALL     ?XLOAD_R0123
   \   00017B   740D         MOV       A,#0xd
   \   00017D   12....       LCALL     ?XSTACK_DISP0_8
   \   000180   12....       LCALL     ?XSTORE_R0123
    708                lookForEntry = 1;
    709                proxyTblRsp.startIndex = 0xFF;
   \   000183   803A         SJMP      ??zclGp_GpProxyTableReqCB_12
    710              }
    711              else if ( GP_IS_APPLICATION_ID_IEEE( proxyTblReqPayload.options ) )
   \                     ??zclGp_GpProxyTableReqCB_11:
   \   000185   7402         MOV       A,#0x2
   \   000187   68           XRL       A,R0
   \   000188   6003         JZ        $+5
   \   00018A   02....       LJMP      ??zclGp_GpProxyTableReqCB_10 & 0xFFFF
    712              {
    713                gpd_ID.AppID = GP_OPT_APP_ID_IEEE;
   \   00018D   740C         MOV       A,#0xc
   \   00018F   12....       LCALL     ?XSTACK_DISP0_8
   \   000192   7402         MOV       A,#0x2
   \   000194   F0           MOVX      @DPTR,A
    714                osal_memcpy( gpd_ID.GPDId.GPDExtAddr, proxyTblReqPayload.gpdIEEE, Z_EXTADDR_LEN );
   \   000195                ; Setup parameters for call to function osal_memcpy
   \   000195   741A         MOV       A,#0x1a
   \   000197   12....       LCALL     ?XSTACK_DISP0_8
   \   00019A   A982         MOV       R1,DPL
   \   00019C   AA83         MOV       R2,DPH
   \   00019E   89..         MOV       ?V4,R1
   \   0001A0   8A..         MOV       ?V5,R2
   \   0001A2   75..00       MOV       ?V6,#0x0
   \   0001A5   78..         MOV       R0,#?V4
   \   0001A7   12....       LCALL     ?PUSH_XSTACK_I_THREE
   \   0001AA   7C08         MOV       R4,#0x8
   \   0001AC   7D00         MOV       R5,#0x0
   \   0001AE   7410         MOV       A,#0x10
   \   0001B0   12....       LCALL     ?XSTACK_DISP0_8
   \   0001B3   AA82         MOV       R2,DPL
   \   0001B5   AB83         MOV       R3,DPH
   \   0001B7   12....       LCALL     `??osal_memcpy::?relay`; Banked call to: osal_memcpy
   \   0001BA   7403         MOV       A,#0x3
   \   0001BC   12....       LCALL     ?DEALLOC_XSTACK8
    715                lookForEntry = 1;
    716                proxyTblRsp.startIndex = 0xFF;
   \                     ??zclGp_GpProxyTableReqCB_12:
   \   0001BF   7403         MOV       A,#0x3
   \   0001C1   12....       LCALL     ?XSTACK_DISP0_8
   \   0001C4   74FF         MOV       A,#-0x1
   \   0001C6   F0           MOVX      @DPTR,A
    717              }
    718              
    719              if ( lookForEntry )
    720              {
    721                if ( gp_getProxyTableByGpId(&gpd_ID, ProxyTableEntryTemp, &NvProxyTableIndex) == ZSuccess )
   \   0001C7                ; Setup parameters for call to function gp_getProxyTableByGpId
   \   0001C7   7407         MOV       A,#0x7
   \   0001C9   12....       LCALL     ?XSTACK_DISP100_8
   \   0001CC   88..         MOV       ?V2,R0
   \   0001CE   89..         MOV       ?V3,R1
   \   0001D0   78..         MOV       R0,#?V2
   \   0001D2   12....       LCALL     ?PUSH_XSTACK_I_TWO
   \   0001D5   7426         MOV       A,#0x26
   \   0001D7   12....       LCALL     ?XSTACK_DISP102_8
   \   0001DA   740E         MOV       A,#0xe
   \   0001DC   12....       LCALL     ?XSTACK_DISP101_8
   \   0001DF   12....       LCALL     `??gp_getProxyTableByGpId::?relay`; Banked call to: gp_getProxyTableByGpId
   \   0001E2   7402         MOV       A,#0x2
   \   0001E4   12....       LCALL     ?DEALLOC_XSTACK8
   \   0001E7   E9           MOV       A,R1
   \   0001E8   7075         JNZ       ??zclGp_GpProxyTableReqCB_13
    722                {    
    723                  maxEntryLen = entryLen;    // Save the last iteration Lenght
   \   0001EA   12....       LCALL     ?Subroutine27 & 0xFFFF
    724                  
    725                  // Get the length of the payload
    726                  if ( pt_ZclReadGetProxyEntry ( NvProxyTableIndex, NULL, &entryLen ) != ZSuccess )
   \                     ??CrossCallReturnLabel_38:
   \   0001ED   12....       LCALL     ?PUSH_XSTACK_I_TWO
   \   0001F0   7C00         MOV       R4,#0x0
   \   0001F2   7D00         MOV       R5,#0x0
   \   0001F4   7409         MOV       A,#0x9
   \   0001F6   12....       LCALL     ?XSTACK_DISP0_8
   \   0001F9   12....       LCALL     ??Subroutine68_0 & 0xFFFF
   \                     ??CrossCallReturnLabel_160:
   \   0001FC   12....       LCALL     `??pt_ZclReadGetProxyEntry::?relay`; Banked call to: pt_ZclReadGetProxyEntry
   \   0001FF   7402         MOV       A,#0x2
   \   000201   12....       LCALL     ?DEALLOC_XSTACK8
   \   000204   E9           MOV       A,R1
   \   000205   85..82       MOV       DPL,?XSP + 0
   \   000208   85..83       MOV       DPH,?XSP + 1
   \   00020B   6049         JZ        ??zclGp_GpProxyTableReqCB_14
    727                  {
    728                    entryLen = 0;
   \   00020D   E4           CLR       A
   \   00020E   F0           MOVX      @DPTR,A
    729                  }
    730                
    731                  if ( entryLen >= 75 )   // max payload for entries
    732                  {
    733                    entryLen = maxEntryLen;   // The last valid lenght is the MAX for this packet
    734                  }
    735                }
    736                else
    737                {
    738                  proxyTblRsp.status = ZCL_STATUS_NOT_FOUND;
    739                }
    740                
    741                if ( entryLen )
    742                {
    743                  buf = zcl_mem_alloc( entryLen );
    744                  if ( buf != NULL )
    745                  {
    746                    // Load the buffer - serially
    747                    uint8 *pBuf = buf;
    748                  
    749                    entryLen = 0;
    750                    proxyTblRsp.entriesCount = 0;
    751                  
    752                    if ( pt_ZclReadGetProxyEntry ( NvProxyTableIndex, pBuf, &entryLen ) == SUCCESS )
    753                    {
    754                      proxyTblRsp.entriesCount = 1;
    755                    }
    756                  }
    757                }
    758              }
    759            }
    760            
    761            // If the entry is empty then point the buffer to an empty string
    762            if ( buf == NULL )
   \                     ??zclGp_GpProxyTableReqCB_10:
   \   00020F   E5..         MOV       A,?V0
   \   000211   45..         ORL       A,?V1
   \   000213   7009         JNZ       ??zclGp_GpProxyTableReqCB_15
    763            {
    764              buf = &emptyEntry;
   \                     ??zclGp_GpProxyTableReqCB_16:
   \   000215   7409         MOV       A,#0x9
   \   000217   12....       LCALL     ?XSTACK_DISP100_8
   \   00021A   88..         MOV       ?V0,R0
   \   00021C   89..         MOV       ?V1,R1
    765            }
    766          
    767              
    768            // Send response and exit
    769            proxyTblRsp.startIndex = proxyTblReqPayload.index;
   \                     ??zclGp_GpProxyTableReqCB_15:
   \   00021E   7423         MOV       A,#0x23
   \   000220   12....       LCALL     ?XSTACK_DISP0_8
   \   000223   E0           MOVX      A,@DPTR
   \   000224   C0E0         PUSH      A
   \   000226   7403         MOV       A,#0x3
   \   000228   12....       LCALL     ?XSTACK_DISP0_8
   \   00022B   D0E0         POP       A
   \   00022D   F0           MOVX      @DPTR,A
    770            proxyTblRsp.proxyTableEntry = buf;
   \   00022E   7405         MOV       A,#0x5
   \   000230   12....       LCALL     ?XSTACK_DISP0_8
   \   000233   E5..         MOV       A,?V0
   \   000235   F0           MOVX      @DPTR,A
   \   000236   A3           INC       DPTR
   \   000237   E5..         MOV       A,?V1
   \   000239   12....       LCALL     ?Subroutine19 & 0xFFFF
    771            zclGp_SendGpProxyTableResponse( pCmd->srcAddr, &proxyTblRsp, zcl_InSeqNum );
   \                     ??CrossCallReturnLabel_32:
   \   00023C   12....       LCALL     ?XSTACK_DISP102_8
   \   00023F   740A         MOV       A,#0xa
   \   000241   12....       LCALL     ?XSTACK_DISP0_8
   \   000244   12....       LCALL     ?Subroutine21 & 0xFFFF
   \                     ??CrossCallReturnLabel_172:
   \   000247   12....       LCALL     `??zclGp_SendGpProxyTableResponse::?relay`; Banked call to: zclGp_SendGpProxyTableResponse
    772            zcl_mem_free( buf );
   \   00024A                ; Setup parameters for call to function osal_mem_free
   \   00024A   AA..         MOV       R2,?V0
   \   00024C   AB..         MOV       R3,?V1
   \   00024E   12....       LCALL     `??osal_mem_free::?relay`; Banked call to: osal_mem_free
    773          }
   \                     ??zclGp_GpProxyTableReqCB_3:
   \   000251   74A6         MOV       A,#-0x5a
   \   000253   02....       LJMP      ?Subroutine2 & 0xFFFF
   \                     ??zclGp_GpProxyTableReqCB_14:
   \   000256   E0           MOVX      A,@DPTR
   \   000257   C3           CLR       C
   \   000258   944B         SUBB      A,#0x4b
   \   00025A   400B         JC        ??zclGp_GpProxyTableReqCB_17
   \   00025C   EF           MOV       A,R7
   \   00025D   8007         SJMP      ??zclGp_GpProxyTableReqCB_18
   \                     ??zclGp_GpProxyTableReqCB_13:
   \   00025F   7401         MOV       A,#0x1
   \   000261   12....       LCALL     ?XSTACK_DISP0_8
   \   000264   748B         MOV       A,#-0x75
   \                     ??zclGp_GpProxyTableReqCB_18:
   \   000266   F0           MOVX      @DPTR,A
   \                     ??zclGp_GpProxyTableReqCB_17:
   \   000267   85..82       MOV       DPL,?XSP + 0
   \   00026A   85..83       MOV       DPH,?XSP + 1
   \   00026D   E0           MOVX      A,@DPTR
   \   00026E   609F         JZ        ??zclGp_GpProxyTableReqCB_10
   \   000270                ; Setup parameters for call to function osal_mem_alloc
   \   000270   FA           MOV       R2,A
   \   000271   7B00         MOV       R3,#0x0
   \   000273   12....       LCALL     `??osal_mem_alloc::?relay`; Banked call to: osal_mem_alloc
   \   000276   8A..         MOV       ?V0,R2
   \   000278   8B..         MOV       ?V1,R3
   \   00027A   EA           MOV       A,R2
   \   00027B   45..         ORL       A,?V1
   \   00027D   6096         JZ        ??zclGp_GpProxyTableReqCB_16
   \   00027F   85..82       MOV       DPL,?XSP + 0
   \   000282   85..83       MOV       DPH,?XSP + 1
   \   000285   E4           CLR       A
   \   000286   F0           MOVX      @DPTR,A
   \   000287   7404         MOV       A,#0x4
   \   000289   12....       LCALL     ?XSTACK_DISP0_8
   \   00028C   E4           CLR       A
   \   00028D   F0           MOVX      @DPTR,A
   \   00028E                ; Setup parameters for call to function pt_ZclReadGetProxyEntry
   \   00028E   A8..         MOV       R0,?XSP + 0
   \   000290   A9..         MOV       R1,?XSP + 1
   \   000292   88..         MOV       ?V2,R0
   \   000294   89..         MOV       ?V3,R1
   \   000296   78..         MOV       R0,#?V2
   \   000298   12....       LCALL     ?PUSH_XSTACK_I_TWO
   \   00029B   AC..         MOV       R4,?V0
   \   00029D   AD..         MOV       R5,?V1
   \   00029F   7409         MOV       A,#0x9
   \   0002A1   12....       LCALL     ?XSTACK_DISP0_8
   \   0002A4   12....       LCALL     ??Subroutine68_0 & 0xFFFF
   \                     ??CrossCallReturnLabel_161:
   \   0002A7   12....       LCALL     `??pt_ZclReadGetProxyEntry::?relay`; Banked call to: pt_ZclReadGetProxyEntry
   \   0002AA   7402         MOV       A,#0x2
   \   0002AC   12....       LCALL     ?DEALLOC_XSTACK8
   \   0002AF   E9           MOV       A,R1
   \   0002B0   6003         JZ        $+5
   \   0002B2   02....       LJMP      ??zclGp_GpProxyTableReqCB_15 & 0xFFFF
   \   0002B5   7404         MOV       A,#0x4
   \   0002B7   12....       LCALL     ?XSTACK_DISP0_8
   \   0002BA   7401         MOV       A,#0x1
   \   0002BC   F0           MOVX      @DPTR,A
   \   0002BD   02....       LJMP      ??zclGp_GpProxyTableReqCB_15 & 0xFFFF

   \                                 In  segment BANKED_CODE, align 1, keep-with-next
   \                     ?Subroutine48:
   \   000000   EE           MOV       A,R6
   \   000001                REQUIRE ??Subroutine60_0
   \   000001                ; // Fall through to label ??Subroutine60_0

   \                                 In  segment BANKED_CODE, align 1, keep-with-next
   \                     ?Subroutine36:
   \   000000   E0           MOVX      A,@DPTR
   \   000001   13           RRC       A
   \   000002   13           RRC       A
   \   000003   13           RRC       A
   \   000004   541F         ANL       A,#0x1f
   \   000006   5403         ANL       A,#0x3
   \   000008   22           RET

   \                                 In  segment BANKED_CODE, align 1, keep-with-next
   \                     ?Subroutine27:
   \   000000   85..82       MOV       DPL,?XSP + 0
   \   000003   85..83       MOV       DPH,?XSP + 1
   \   000006   E0           MOVX      A,@DPTR
   \   000007   FF           MOV       R7,A
   \   000008                ; Setup parameters for call to function pt_ZclReadGetProxyEntry
   \   000008                ; Setup parameters for call to function pt_ZclReadGetProxyEntry
   \   000008   A8..         MOV       R0,?XSP + 0
   \   00000A   A9..         MOV       R1,?XSP + 1
   \   00000C   88..         MOV       ?V2,R0
   \   00000E   89..         MOV       ?V3,R1
   \   000010   78..         MOV       R0,#?V2
   \   000012   22           RET

   \                                 In  segment BANKED_CODE, align 1, keep-with-next
   \                     ?Subroutine19:
   \   000000   F0           MOVX      @DPTR,A
   \   000001                ; Setup parameters for call to function zclGp_SendGpProxyTableResponse
   \   000001                ; Setup parameters for call to function zclGp_SendGpProxyTableResponse
   \   000001   90....       MOV       DPTR,#zcl_InSeqNum
   \   000004   E0           MOVX      A,@DPTR
   \   000005   F9           MOV       R1,A
   \   000006   7401         MOV       A,#0x1
   \   000008   22           RET

   \                                 In  segment BANKED_CODE, align 1, keep-with-next
   \                     ?Subroutine21:
   \   000000   12....       LCALL     ?Subroutine51 & 0xFFFF
   \                     ??CrossCallReturnLabel_88:
   \   000003                REQUIRE ??Subroutine68_0
   \   000003                ; // Fall through to label ??Subroutine68_0

   \                                 In  segment BANKED_CODE, align 1, keep-with-next
   \                     ??Subroutine68_0:
   \   000000   E0           MOVX      A,@DPTR
   \   000001   FA           MOV       R2,A
   \   000002   A3           INC       DPTR
   \   000003   E0           MOVX      A,@DPTR
   \   000004   FB           MOV       R3,A
   \   000005   22           RET

   \                                 In  segment XDATA_ROM_C, align 1
   \                     `?<Constant {0}>`:
   \   000000   00           DB 0
   \   000001   00000000     DB 0, 0, 0, 0, 0
   \            00      
    774          
    775          
    776          /*********************************************************************
    777           * @fn      zclGp_GpResponseCommandCB
    778           *
    779           * @brief   Callback from the ZCL GreenPower Cluster Library when
    780           *          it received a Gp Response command. (Ref A.3.5.2.1)
    781           *
    782           * @param   pCmd - command payload
    783           *
    784           * @return  none
    785           */

   \                                 In  segment BANKED_CODE, align 1, keep-with-next
    786          static void zclGp_GpResponseCommandCB(zclGpResponse_t *pCmd)
   \                     zclGp_GpResponseCommandCB:
    787          {
   \   000000                REQUIRE ?V0
   \   000000                REQUIRE ?V1
   \   000000                REQUIRE ?V2
   \   000000                REQUIRE ?V3
   \   000000                REQUIRE ?V4
   \   000000                REQUIRE ?V5
   \   000000                REQUIRE ?V6
   \   000000   74F1         MOV       A,#-0xf
   \   000002   12....       LCALL     ?BANKED_ENTER_XDATA
   \   000005                ; Saved register size: 15
   \   000005                ; Auto size: 78
   \   000005   74B2         MOV       A,#-0x4e
   \   000007   12....       LCALL     ?ALLOC_XSTACK8
   \   00000A   7402         MOV       A,#0x2
   \   00000C   12....       LCALL     ?XSTACK_DISP0_8
   \   00000F   12....       LCALL     ?Subroutine17 & 0xFFFF
    788            gp_DataReq_t  *gp_DataReq;
    789            gpd_ID_t      gpd_ID;
    790            uint8         endpoint = 0;
    791            uint8         command;
    792            uint8         payloadLen = 0;
    793            
    794            //No bidirectional communication in operational mode
    795            //A.3.2.8
    796            if(!zgGP_InCommissioningMode)
   \                     ??CrossCallReturnLabel_25:
   \   000012   90....       MOV       DPTR,#zgGP_InCommissioningMode
   \   000015   E0           MOVX      A,@DPTR
   \   000016   7003         JNZ       $+5
   \   000018   02....       LJMP      ??zclGp_GpResponseCommandCB_0 & 0xFFFF
    797            {
    798              return;
    799            }
    800            
    801            gpd_ID.AppID = pCmd->options & GP_RSP_CMD_OPT_APP_ID_MASK;
   \   00001B   7402         MOV       A,#0x2
   \   00001D   12....       LCALL     ?XSTACK_DISP0_8
   \   000020   12....       LCALL     ?Subroutine35 & 0xFFFF
   \                     ??CrossCallReturnLabel_53:
   \   000023   85..82       MOV       DPL,?XSP + 0
   \   000026   85..83       MOV       DPH,?XSP + 1
   \   000029   E8           MOV       A,R0
   \   00002A   F0           MOVX      @DPTR,A
   \   00002B   A3           INC       DPTR
   \   00002C   E9           MOV       A,R1
   \   00002D   12....       LCALL     ?Subroutine6 & 0xFFFF
   \                     ??CrossCallReturnLabel_4:
   \   000030   5407         ANL       A,#0x7
   \   000032   C0E0         PUSH      A
   \   000034   7404         MOV       A,#0x4
   \   000036   12....       LCALL     ?XSTACK_DISP0_8
   \   000039   D0E0         POP       A
   \   00003B   F0           MOVX      @DPTR,A
    802            if(gpd_ID.AppID == GP_APP_ID_DEFAULT)
   \   00003C   6003         JZ        $+5
   \   00003E   02....       LJMP      ??zclGp_GpResponseCommandCB_0 & 0xFFFF
    803            {
    804              gpd_ID.GPDId.SrcID = osal_build_uint32(pCmd->pData,sizeof(uint32));
   \   000041   7402         MOV       A,#0x2
   \   000043   12....       LCALL     ?XSTACK_DISP0_8
   \   000046   E0           MOVX      A,@DPTR
   \   000047   2406         ADD       A,#0x6
   \   000049   12....       LCALL     ?Subroutine32 & 0xFFFF
   \                     ??CrossCallReturnLabel_46:
   \   00004C                ; Setup parameters for call to function osal_build_uint32
   \   00004C   7904         MOV       R1,#0x4
   \   00004E   85..82       MOV       DPL,?V0
   \   000051   F583         MOV       DPH,A
   \   000053   12....       LCALL     ??Subroutine68_0 & 0xFFFF
   \                     ??CrossCallReturnLabel_162:
   \   000056   12....       LCALL     `??osal_build_uint32::?relay`; Banked call to: osal_build_uint32
   \   000059   7405         MOV       A,#0x5
   \   00005B   12....       LCALL     ?XSTACK_DISP0_8
   \   00005E   12....       LCALL     ?XSTORE_R2345
    805              pCmd->pData += sizeof(uint32);
   \   000061   85..82       MOV       DPL,?V0
   \   000064   85..83       MOV       DPH,?V1
   \   000067   E0           MOVX      A,@DPTR
   \   000068   2404         ADD       A,#0x4
   \   00006A   F8           MOV       R0,A
   \   00006B   A3           INC       DPTR
   \   00006C   E0           MOVX      A,@DPTR
   \   00006D   3400         ADDC      A,#0x0
   \   00006F   F9           MOV       R1,A
   \   000070   12....       LCALL     ?Subroutine15 & 0xFFFF
    806            }
    807            else if(gpd_ID.AppID == GP_APP_ID_DEFAULT)
    808            {
    809              gpd_ID.GPDId.SrcID = osal_build_uint32(pCmd->pData,sizeof(uint32));
    810              pCmd->pData += sizeof(uint32);
    811              
    812              endpoint = *pCmd->pData;
    813              pCmd->pData++;
    814            }
    815            else
    816            {
    817              //Invalid app ID
    818              return;
    819            }
    820            
    821            command  = *pCmd->pData;
   \                     ??CrossCallReturnLabel_21:
   \   000073   F5..         MOV       ?V6,A
    822            pCmd->pData++;
   \   000075   A3           INC       DPTR
   \   000076   A882         MOV       R0,DPL
   \   000078   A983         MOV       R1,DPH
   \   00007A   12....       LCALL     ?Subroutine15 & 0xFFFF
    823            payloadLen = *pCmd->pData;
   \                     ??CrossCallReturnLabel_22:
   \   00007D   F5..         MOV       ?V3,A
    824            pCmd->pData++;
   \   00007F   A3           INC       DPTR
   \   000080   08           INC       R0
   \   000081   A983         MOV       R1,DPH
   \   000083   12....       LCALL     ?Subroutine16 & 0xFFFF
    825             
    826            gp_DataReq = (gp_DataReq_t*)osal_msg_allocate(sizeof(gp_DataReq_t) + payloadLen);  
   \                     ??CrossCallReturnLabel_144:
   \   000086                ; Setup parameters for call to function osal_msg_allocate
   \   000086   E5..         MOV       A,?V3
   \   000088   2415         ADD       A,#0x15
   \   00008A   FA           MOV       R2,A
   \   00008B   E4           CLR       A
   \   00008C   3400         ADDC      A,#0x0
   \   00008E   FB           MOV       R3,A
   \   00008F   12....       LCALL     `??osal_msg_allocate::?relay`; Banked call to: osal_msg_allocate
   \   000092   8A..         MOV       ?V4,R2
   \   000094   8B..         MOV       ?V5,R3
   \   000096   AE..         MOV       R6,?V4
   \   000098   AF..         MOV       R7,?V5
    827            
    828            if(gp_DataReq == NULL)
   \   00009A   EE           MOV       A,R6
   \   00009B   4F           ORL       A,R7
   \   00009C   7003         JNZ       $+5
   \   00009E   02....       LJMP      ??zclGp_GpResponseCommandCB_0 & 0xFFFF
    829            {
    830              //FAIL no memory
    831              return;
    832            }
    833            if(payloadLen == 0xFF)
   \   0000A1   74FF         MOV       A,#-0x1
   \   0000A3   65..         XRL       A,?V3
   \   0000A5   7003         JNZ       ??zclGp_GpResponseCommandCB_1
    834            {
    835              payloadLen = 0;
   \   0000A7   75..00       MOV       ?V3,#0x0
    836            }
    837            gp_DataReq->TxOptions = GP_OPT_USE_TX_QUEUE_MASK;
   \                     ??zclGp_GpResponseCommandCB_1:
   \   0000AA   EE           MOV       A,R6
   \   0000AB   2403         ADD       A,#0x3
   \   0000AD   12....       LCALL     ?Subroutine42 & 0xFFFF
   \                     ??CrossCallReturnLabel_64:
   \   0000B0   7401         MOV       A,#0x1
   \   0000B2   12....       LCALL     ?Subroutine12 & 0xFFFF
    838            gp_DataReq->EndPoint = endpoint;
   \                     ??CrossCallReturnLabel_17:
   \   0000B5   E4           CLR       A
   \   0000B6   12....       LCALL     ?Subroutine20 & 0xFFFF
    839            osal_memcpy(gp_DataReq->GPDasdu,pCmd->pData,payloadLen);
   \                     ??CrossCallReturnLabel_33:
   \   0000B9   12....       LCALL     ??Subroutine62_0 & 0xFFFF
   \                     ??CrossCallReturnLabel_125:
   \   0000BC   12....       LCALL     ?PUSH_XSTACK_I_THREE
   \   0000BF   AC..         MOV       R4,?V3
   \   0000C1   7D00         MOV       R5,#0x0
   \   0000C3   EE           MOV       A,R6
   \   0000C4   2414         ADD       A,#0x14
   \   0000C6   FA           MOV       R2,A
   \   0000C7   E4           CLR       A
   \   0000C8   3F           ADDC      A,R7
   \   0000C9   FB           MOV       R3,A
   \   0000CA   12....       LCALL     `??osal_memcpy::?relay`; Banked call to: osal_memcpy
   \   0000CD   7403         MOV       A,#0x3
   \   0000CF   12....       LCALL     ?DEALLOC_XSTACK8
    840            gp_DataReq->GPDasduLength = payloadLen;
   \   0000D2   EE           MOV       A,R6
   \   0000D3   2413         ADD       A,#0x13
   \   0000D5   F582         MOV       DPL,A
   \   0000D7   E4           CLR       A
   \   0000D8   3F           ADDC      A,R7
   \   0000D9   F583         MOV       DPH,A
   \   0000DB   E5..         MOV       A,?V3
   \   0000DD   12....       LCALL     ?Subroutine11 & 0xFFFF
    841            gp_DataReq->GPDCmmdId = command;
   \                     ??CrossCallReturnLabel_16:
   \   0000E0   E5..         MOV       A,?V6
   \   0000E2   F0           MOVX      @DPTR,A
    842            osal_memcpy(&gp_DataReq->gpd_ID,&gpd_ID,sizeof(gpd_ID_t));
   \   0000E3                ; Setup parameters for call to function osal_memcpy
   \   0000E3   7404         MOV       A,#0x4
   \   0000E5   12....       LCALL     ?XSTACK_DISP100_8
   \   0000E8   88..         MOV       ?V0,R0
   \   0000EA   89..         MOV       ?V1,R1
   \   0000EC   78..         MOV       R0,#?V0
   \   0000EE   12....       LCALL     ?PUSH_XSTACK_I_THREE
   \   0000F1   7C09         MOV       R4,#0x9
   \   0000F3   7D00         MOV       R5,#0x0
   \   0000F5   EE           MOV       A,R6
   \   0000F6   2404         ADD       A,#0x4
   \   0000F8   FA           MOV       R2,A
   \   0000F9   E4           CLR       A
   \   0000FA   3F           ADDC      A,R7
   \   0000FB   FB           MOV       R3,A
   \   0000FC   12....       LCALL     `??osal_memcpy::?relay`; Banked call to: osal_memcpy
   \   0000FF   7403         MOV       A,#0x3
   \   000101   12....       LCALL     ?DEALLOC_XSTACK8
    843          
    844            gp_DataReq->GPEPhandle = gp_GetHandle(GPEP_HANDLE_TYPE);
   \   000104                ; Setup parameters for call to function gp_GetHandle
   \   000104   7901         MOV       R1,#0x1
   \   000106   12....       LCALL     `??gp_GetHandle::?relay`; Banked call to: gp_GetHandle
   \   000109   EE           MOV       A,R6
   \   00010A   240F         ADD       A,#0xf
   \   00010C   F582         MOV       DPL,A
   \   00010E   E4           CLR       A
   \   00010F   3F           ADDC      A,R7
   \   000110   F583         MOV       DPH,A
   \   000112   E9           MOV       A,R1
   \   000113   F0           MOVX      @DPTR,A
    845                
    846            gp_DataReq->hdr.event = GP_DATA_REQ;
   \   000114   8E82         MOV       DPL,R6
   \   000116   8F83         MOV       DPH,R7
   \   000118   7405         MOV       A,#0x5
   \   00011A   F0           MOVX      @DPTR,A
    847            gp_DataReq->hdr.status = 0;  
   \   00011B   A3           INC       DPTR
   \   00011C   E4           CLR       A
   \   00011D   12....       LCALL     ?Subroutine6 & 0xFFFF
    848            
    849            if(pCmd->options & GP_RSP_CMD_OPT_TRANSMIT_ON_ENDPOINT_MATCH_MASK)
   \                     ??CrossCallReturnLabel_3:
   \   000120   A2E3         MOV       C,0xE0 /* A   */.3
   \   000122   500A         JNC       ??zclGp_GpResponseCommandCB_2
    850            {
    851              gp_DataReq->TxOptions |= GP_OPT_TX_ON_MATCHING_ENDPOINT_MASK;
   \   000124   85..82       MOV       DPL,?V4
   \   000127   85..83       MOV       DPH,?V5
   \   00012A   E0           MOVX      A,@DPTR
   \   00012B   D2E5         SETB      0xE0 /* A   */.5
   \   00012D   F0           MOVX      @DPTR,A
    852            }
    853            
    854            //Validate the command being send as unicast and we are the tempMaster
    855            if((pCmd->tempMasterShortAddr == _NIB.nwkDevAddress) && (pCmd->dstAddr == _NIB.nwkDevAddress))
   \                     ??zclGp_GpResponseCommandCB_2:
   \   00012E   12....       LCALL     ?Subroutine31 & 0xFFFF
   \                     ??CrossCallReturnLabel_108:
   \   000131   EE           MOV       A,R6
   \   000132   2402         ADD       A,#0x2
   \   000134   F5..         MOV       ?V0,A
   \   000136   E4           CLR       A
   \   000137   3F           ADDC      A,R7
   \   000138   F5..         MOV       ?V1,A
   \   00013A   7402         MOV       A,#0x2
   \   00013C   12....       LCALL     ?XSTACK_DISP0_8
   \   00013F   E0           MOVX      A,@DPTR
   \   000140   FA           MOV       R2,A
   \   000141   A3           INC       DPTR
   \   000142   E0           MOVX      A,@DPTR
   \   000143   F583         MOV       DPH,A
   \   000145   8A82         MOV       DPL,R2
   \   000147   A3           INC       DPTR
   \   000148   A3           INC       DPTR
   \   000149   A3           INC       DPTR
   \   00014A   E0           MOVX      A,@DPTR
   \   00014B   68           XRL       A,R0
   \   00014C   7003         JNZ       ??zclGp_GpResponseCommandCB_3
   \   00014E   A3           INC       DPTR
   \   00014F   E0           MOVX      A,@DPTR
   \   000150   69           XRL       A,R1
   \                     ??zclGp_GpResponseCommandCB_3:
   \   000151   6003         JZ        $+5
   \   000153   02....       LJMP      ??zclGp_GpResponseCommandCB_4 & 0xFFFF
   \   000156   7402         MOV       A,#0x2
   \   000158   12....       LCALL     ?XSTACK_DISP0_8
   \   00015B   12....       LCALL     ??Subroutine57_0 & 0xFFFF
   \                     ??CrossCallReturnLabel_101:
   \   00015E   68           XRL       A,R0
   \   00015F   7003         JNZ       ??zclGp_GpResponseCommandCB_5
   \   000161   A3           INC       DPTR
   \   000162   E0           MOVX      A,@DPTR
   \   000163   69           XRL       A,R1
   \                     ??zclGp_GpResponseCommandCB_5:
   \   000164   6003         JZ        $+5
   \   000166   02....       LJMP      ??zclGp_GpResponseCommandCB_4 & 0xFFFF
    856            {
    857              uint16 NvProxyTableIndex;
    858              uint8  ProxyTableEntryTemp[PROXY_TBL_ENTRY_LEN];
    859              
    860              //Check if the entry exist, if so, set the first to forward flag to 1
    861              if ( gp_getProxyTableByGpId(&gpd_ID,ProxyTableEntryTemp,&NvProxyTableIndex) == ZSuccess )
   \   000169                ; Setup parameters for call to function gp_getProxyTableByGpId
   \   000169   A8..         MOV       R0,?XSP + 0
   \   00016B   A9..         MOV       R1,?XSP + 1
   \   00016D   88..         MOV       ?V2,R0
   \   00016F   89..         MOV       ?V3,R1
   \   000171   78..         MOV       R0,#?V2
   \   000173   12....       LCALL     ?PUSH_XSTACK_I_TWO
   \   000176   740F         MOV       A,#0xf
   \   000178   12....       LCALL     ?XSTACK_DISP102_8
   \   00017B   7406         MOV       A,#0x6
   \   00017D   12....       LCALL     ?XSTACK_DISP101_8
   \   000180   12....       LCALL     `??gp_getProxyTableByGpId::?relay`; Banked call to: gp_getProxyTableByGpId
   \   000183   7402         MOV       A,#0x2
   \   000185   12....       LCALL     ?DEALLOC_XSTACK8
   \   000188   E9           MOV       A,R1
   \   000189   703A         JNZ       ??zclGp_GpResponseCommandCB_6
    862              {
    863                //Update FirstToForward to 1
    864                if(PROXY_TBL_GET_FIRST_TO_FORWARD(ProxyTableEntryTemp[PROXY_TBL_ENTRY_OPT]) == 0)
   \   00018B   740D         MOV       A,#0xd
   \   00018D   12....       LCALL     ?XSTACK_DISP0_8
   \   000190   E0           MOVX      A,@DPTR
   \   000191   A2E1         MOV       C,0xE0 /* A   */.1
   \   000193   4030         JC        ??zclGp_GpResponseCommandCB_6
    865                {
    866                  PROXY_TBL_SET_FIRST_TO_FORWARD(&ProxyTableEntryTemp[PROXY_TBL_ENTRY_OPT]);
   \   000195   D2E1         SETB      0xE0 /* A   */.1
   \   000197   F0           MOVX      @DPTR,A
    867                  osal_nv_write(NvProxyTableIndex,PROXY_TBL_ENTRY_OPT,2,&ProxyTableEntryTemp[PROXY_TBL_ENTRY_OPT]);
   \   000198                ; Setup parameters for call to function osal_nv_write
   \   000198   740D         MOV       A,#0xd
   \   00019A   12....       LCALL     ?XSTACK_DISP100_8
   \   00019D   88..         MOV       ?V2,R0
   \   00019F   89..         MOV       ?V3,R1
   \   0001A1   78..         MOV       R0,#?V2
   \   0001A3   12....       LCALL     ?PUSH_XSTACK_I_TWO
   \   0001A6   75..02       MOV       ?V2,#0x2
   \   0001A9   75..00       MOV       ?V3,#0x0
   \   0001AC   78..         MOV       R0,#?V2
   \   0001AE   12....       LCALL     ?PUSH_XSTACK_I_TWO
   \   0001B1   7C00         MOV       R4,#0x0
   \   0001B3   7D00         MOV       R5,#0x0
   \   0001B5   7404         MOV       A,#0x4
   \   0001B7   12....       LCALL     ?XSTACK_DISP0_8
   \   0001BA   12....       LCALL     ??Subroutine68_0 & 0xFFFF
    868                }
    869              }
   \                     ??CrossCallReturnLabel_163:
   \   0001BD   12....       LCALL     `??osal_nv_write::?relay`; Banked call to: osal_nv_write
   \   0001C0   7404         MOV       A,#0x4
   \   0001C2   12....       LCALL     ?DEALLOC_XSTACK8
    870              //Depends on TempMasterAddress
    871              gp_DataReq->Action = TRUE;
   \                     ??zclGp_GpResponseCommandCB_6:
   \   0001C5   85..82       MOV       DPL,?V0
   \   0001C8   85..83       MOV       DPH,?V1
   \   0001CB   7401         MOV       A,#0x1
   \   0001CD   F0           MOVX      @DPTR,A
    872              
    873              //Step 6 of Section A.3.9.1 The Procedure
    874              //Check if we are in a different channel
    875              if((pCmd->tempMasterTxChannel + 0x0B) != _NIB.nwkLogicalChannel)
   \   0001CE   04           INC       A
   \   0001CF   12....       LCALL     ?XSTACK_DISP0_8
   \   0001D2   E0           MOVX      A,@DPTR
   \   0001D3   2405         ADD       A,#0x5
   \   0001D5   12....       LCALL     ?Subroutine32 & 0xFFFF
   \                     ??CrossCallReturnLabel_47:
   \   0001D8   85..82       MOV       DPL,?V0
   \   0001DB   F583         MOV       DPH,A
   \   0001DD   E0           MOVX      A,@DPTR
   \   0001DE   7900         MOV       R1,#0x0
   \   0001E0   240B         ADD       A,#0xb
   \   0001E2   F8           MOV       R0,A
   \   0001E3   5001         JNC       ??zclGp_GpResponseCommandCB_7
   \   0001E5   09           INC       R1
   \                     ??zclGp_GpResponseCommandCB_7:
   \   0001E6   90....       MOV       DPTR,#_NIB + 22
   \   0001E9   E0           MOVX      A,@DPTR
   \   0001EA   68           XRL       A,R0
   \   0001EB   7001         JNZ       ??zclGp_GpResponseCommandCB_8
   \   0001ED   E9           MOV       A,R1
   \                     ??zclGp_GpResponseCommandCB_8:
   \   0001EE   7003         JNZ       $+5
   \   0001F0   02....       LJMP      ??zclGp_GpResponseCommandCB_9 & 0xFFFF
    876              {
    877                //did we got permission to attend channel request?
    878                if(osal_get_timeoutEx(gp_TaskID,GP_CHANNEL_CONFIGURATION_TIMEOUT))
   \   0001F3                ; Setup parameters for call to function osal_get_timeoutEx
   \   0001F3   7A08         MOV       R2,#0x8
   \   0001F5   7B00         MOV       R3,#0x0
   \   0001F7   90....       MOV       DPTR,#gp_TaskID
   \   0001FA   E0           MOVX      A,@DPTR
   \   0001FB   F9           MOV       R1,A
   \   0001FC   12....       LCALL     `??osal_get_timeoutEx::?relay`; Banked call to: osal_get_timeoutEx
   \   0001FF   EA           MOV       A,R2
   \   000200   4B           ORL       A,R3
   \   000201   4C           ORL       A,R4
   \   000202   4D           ORL       A,R5
   \   000203   607D         JZ        ??zclGp_GpResponseCommandCB_9
    879                {
    880                  gp_tempLogicalChannel = _NIB.nwkLogicalChannel;
   \   000205   90....       MOV       DPTR,#_NIB + 22
   \   000208   E0           MOVX      A,@DPTR
   \   000209   90....       MOV       DPTR,#gp_tempLogicalChannel
   \   00020C   12....       LCALL     ?Subroutine20 & 0xFFFF
    881                  _NIB.nwkLogicalChannel = pCmd->tempMasterTxChannel;
   \                     ??CrossCallReturnLabel_34:
   \   00020F   90....       MOV       DPTR,#_NIB + 22
   \   000212   F0           MOVX      @DPTR,A
    882                  ZMacSetReq( ZMacChannel, &(_NIB.nwkLogicalChannel) );
   \   000213                ; Setup parameters for call to function ZMacSetReq
   \   000213   7A..         MOV       R2,#(_NIB + 22) & 0xff
   \   000215   7B..         MOV       R3,#((_NIB + 22) >> 8) & 0xff
   \   000217   79E1         MOV       R1,#-0x1f
   \   000219   12....       LCALL     `??ZMacSetReq::?relay`; Banked call to: ZMacSetReq
   \   00021C   8064         SJMP      ??zclGp_GpResponseCommandCB_9
    883                }
    884              }
    885            }
    886            else
    887            {
    888              uint16 NvProxyTableIndex;
    889              uint8  ProxyTableEntryTemp[PROXY_TBL_ENTRY_LEN];
    890                 
    891              //We are not the tempMaster or this was not a unicast to us, set the first to forward flag to 0
    892              if( gp_getProxyTableByGpId(&gpd_ID,ProxyTableEntryTemp,&NvProxyTableIndex) == ZSuccess )
   \                     ??zclGp_GpResponseCommandCB_4:
   \   00021E                ; Setup parameters for call to function gp_getProxyTableByGpId
   \   00021E   A8..         MOV       R0,?XSP + 0
   \   000220   A9..         MOV       R1,?XSP + 1
   \   000222   88..         MOV       ?V2,R0
   \   000224   89..         MOV       ?V3,R1
   \   000226   78..         MOV       R0,#?V2
   \   000228   12....       LCALL     ?PUSH_XSTACK_I_TWO
   \   00022B   740F         MOV       A,#0xf
   \   00022D   12....       LCALL     ?XSTACK_DISP102_8
   \   000230   7406         MOV       A,#0x6
   \   000232   12....       LCALL     ?XSTACK_DISP101_8
   \   000235   12....       LCALL     `??gp_getProxyTableByGpId::?relay`; Banked call to: gp_getProxyTableByGpId
   \   000238   7402         MOV       A,#0x2
   \   00023A   12....       LCALL     ?DEALLOC_XSTACK8
   \   00023D   E9           MOV       A,R1
   \   00023E   703A         JNZ       ??zclGp_GpResponseCommandCB_10
    893              {
    894                if(PROXY_TBL_GET_FIRST_TO_FORWARD(ProxyTableEntryTemp[PROXY_TBL_ENTRY_OPT]) == 1)
   \   000240   740D         MOV       A,#0xd
   \   000242   12....       LCALL     ?XSTACK_DISP0_8
   \   000245   E0           MOVX      A,@DPTR
   \   000246   A2E1         MOV       C,0xE0 /* A   */.1
   \   000248   5030         JNC       ??zclGp_GpResponseCommandCB_10
    895                {
    896                  PROXY_TBL_SET_FIRST_TO_FORWARD(&ProxyTableEntryTemp[PROXY_TBL_ENTRY_OPT]);
   \   00024A   D2E1         SETB      0xE0 /* A   */.1
   \   00024C   F0           MOVX      @DPTR,A
    897                  osal_nv_write(NvProxyTableIndex,PROXY_TBL_ENTRY_OPT,2,&ProxyTableEntryTemp[PROXY_TBL_ENTRY_OPT]);
   \   00024D                ; Setup parameters for call to function osal_nv_write
   \   00024D   740D         MOV       A,#0xd
   \   00024F   12....       LCALL     ?XSTACK_DISP100_8
   \   000252   88..         MOV       ?V2,R0
   \   000254   89..         MOV       ?V3,R1
   \   000256   78..         MOV       R0,#?V2
   \   000258   12....       LCALL     ?PUSH_XSTACK_I_TWO
   \   00025B   75..02       MOV       ?V2,#0x2
   \   00025E   75..00       MOV       ?V3,#0x0
   \   000261   78..         MOV       R0,#?V2
   \   000263   12....       LCALL     ?PUSH_XSTACK_I_TWO
   \   000266   7C00         MOV       R4,#0x0
   \   000268   7D00         MOV       R5,#0x0
   \   00026A   7404         MOV       A,#0x4
   \   00026C   12....       LCALL     ?XSTACK_DISP0_8
   \   00026F   12....       LCALL     ??Subroutine68_0 & 0xFFFF
    898                } 
    899              }
   \                     ??CrossCallReturnLabel_164:
   \   000272   12....       LCALL     `??osal_nv_write::?relay`; Banked call to: osal_nv_write
   \   000275   7404         MOV       A,#0x4
   \   000277   12....       LCALL     ?DEALLOC_XSTACK8
    900              
    901              //Also remove any packet to the GPD
    902              gp_DataReq->Action = 0;
   \                     ??zclGp_GpResponseCommandCB_10:
   \   00027A   85..82       MOV       DPL,?V0
   \   00027D   85..83       MOV       DPH,?V1
   \   000280   E4           CLR       A
   \   000281   F0           MOVX      @DPTR,A
    903            }
    904            
    905            osal_msg_send(gp_TaskID,(uint8*)gp_DataReq);
   \                     ??zclGp_GpResponseCommandCB_9:
   \   000282                ; Setup parameters for call to function osal_msg_send
   \   000282   EE           MOV       A,R6
   \   000283   FA           MOV       R2,A
   \   000284   EF           MOV       A,R7
   \   000285   FB           MOV       R3,A
   \   000286   90....       MOV       DPTR,#gp_TaskID
   \   000289   E0           MOVX      A,@DPTR
   \   00028A   F9           MOV       R1,A
   \   00028B   12....       LCALL     `??osal_msg_send::?relay`; Banked call to: osal_msg_send
    906          }
   \                     ??zclGp_GpResponseCommandCB_0:
   \   00028E   744E         MOV       A,#0x4e
   \   000290                REQUIRE ?Subroutine2
   \   000290                ; // Fall through to label ?Subroutine2

   \                                 In  segment BANKED_CODE, align 1, keep-with-next
   \                     ?Subroutine20:
   \   000000   F0           MOVX      @DPTR,A
   \   000001                ; Setup parameters for call to function osal_memcpy
   \   000001   85..82       MOV       DPL,?V0
   \   000004   85..83       MOV       DPH,?V1
   \   000007   E0           MOVX      A,@DPTR
   \   000008   22           RET

   \                                 In  segment BANKED_CODE, align 1, keep-with-next
   \                     ?Subroutine15:
   \   000000   85..82       MOV       DPL,?V0
   \   000003   85..83       MOV       DPH,?V1
   \   000006   E8           MOV       A,R0
   \   000007   F0           MOVX      @DPTR,A
   \   000008   A3           INC       DPTR
   \   000009   E9           MOV       A,R1
   \   00000A   F0           MOVX      @DPTR,A
   \   00000B   8882         MOV       DPL,R0
   \   00000D   8983         MOV       DPH,R1
   \   00000F   E0           MOVX      A,@DPTR
   \   000010   22           RET

   \                                 In  segment BANKED_CODE, align 1, keep-with-next
   \                     ?Subroutine6:
   \   000000   12....       LCALL     ?Subroutine50 & 0xFFFF
   \                     ??CrossCallReturnLabel_86:
   \   000003   F583         MOV       DPH,A
   \   000005   8882         MOV       DPL,R0
   \   000007   E0           MOVX      A,@DPTR
   \   000008   22           RET

   \                                 In  segment BANKED_CODE, align 1, keep-with-next
   \                     ?Subroutine35:
   \   000000   E0           MOVX      A,@DPTR
   \   000001   2402         ADD       A,#0x2
   \   000003   F8           MOV       R0,A
   \   000004   A3           INC       DPTR
   \   000005   E0           MOVX      A,@DPTR
   \   000006   3400         ADDC      A,#0x0
   \   000008   F9           MOV       R1,A
   \   000009   22           RET

   \                                 In  segment BANKED_CODE, align 1, keep-with-next
   \                     ??Subroutine62_0:
   \   000000   F5..         MOV       ?V0,A
   \   000002   A3           INC       DPTR
   \   000003   E0           MOVX      A,@DPTR
   \   000004   F5..         MOV       ?V1,A
   \   000006   75..00       MOV       ?V2,#0x0
   \   000009   78..         MOV       R0,#?V0
   \   00000B   22           RET

   \                                 In  segment BANKED_CODE, align 1, keep-with-next
   \                     ?Subroutine16:
   \   000000   85..82       MOV       DPL,?V0
   \   000003   85..83       MOV       DPH,?V1
   \   000006                REQUIRE ??Subroutine65_0
   \   000006                ; // Fall through to label ??Subroutine65_0

   \                                 In  segment BANKED_CODE, align 1, keep-with-next
   \                     ?Subroutine42:
   \   000000   F5..         MOV       ?V4,A
   \   000002   E4           CLR       A
   \   000003   3F           ADDC      A,R7
   \   000004   F5..         MOV       ?V5,A
   \   000006   85..82       MOV       DPL,?V4
   \   000009   F583         MOV       DPH,A
   \   00000B   22           RET

   \                                 In  segment BANKED_CODE, align 1, keep-with-next
   \                     ?Subroutine12:
   \   000000   F0           MOVX      @DPTR,A
   \   000001   12....       LCALL     ?Subroutine52 & 0xFFFF
   \                     ??CrossCallReturnLabel_91:
   \   000004   22           RET

   \                                 In  segment BANKED_CODE, align 1, keep-with-next
   \                     ?Subroutine52:
   \   000000   EE           MOV       A,R6
   \   000001   240D         ADD       A,#0xd
   \   000003   F582         MOV       DPL,A
   \   000005   E4           CLR       A
   \   000006   3F           ADDC      A,R7
   \   000007   F583         MOV       DPH,A
   \   000009   22           RET
    907          
    908          
    909          
    910          /*********************************************************************
    911           * @fn      zclGp_GpProxyCommissioningModeCB
    912           *
    913           * @brief   Callback from the ZCL GreenPower Cluster Library when
    914           *          it received a Gp Commissioning Mode command.
    915           *
    916           * @param   pCmd - command payload
    917           *
    918           * @return  none
    919           */

   \                                 In  segment BANKED_CODE, align 1, keep-with-next
    920          static void zclGp_GpProxyCommissioningModeCB(zclGpProxyCommissioningMode_t* pCmd)
   \                     zclGp_GpProxyCommissioningModeCB:
    921          {
   \   000000                REQUIRE ?V0
   \   000000                REQUIRE ?V1
   \   000000   74F6         MOV       A,#-0xa
   \   000002   12....       LCALL     ?BANKED_ENTER_XDATA
   \   000005                ; Saved register size: 10
   \   000005                ; Auto size: 0
   \   000005   EA           MOV       A,R2
   \   000006   FE           MOV       R6,A
   \   000007   EB           MOV       A,R3
   \   000008   FF           MOV       R7,A
    922            gp_commissioningOptions = pCmd->options;
   \   000009   8E82         MOV       DPL,R6
   \   00000B   8F83         MOV       DPH,R7
   \   00000D   A3           INC       DPTR
   \   00000E   A3           INC       DPTR
   \   00000F   E0           MOVX      A,@DPTR
   \   000010   90....       MOV       DPTR,#gp_commissioningOptions
   \   000013   F0           MOVX      @DPTR,A
    923            uint32 CommissioningWindow = PGG_COMMISSIONING_WINDOW;
    924            
    925            if ( ( zgGP_InCommissioningMode == TRUE ) && ( gp_commissionerAddress != pCmd->srcAddr ) )
   \   000014   90....       MOV       DPTR,#zgGP_InCommissioningMode
   \   000017   E0           MOVX      A,@DPTR
   \   000018   6401         XRL       A,#0x1
   \   00001A   7013         JNZ       ??zclGp_GpProxyCommissioningModeCB_0
   \   00001C   90....       MOV       DPTR,#gp_commissionerAddress
   \   00001F   12....       LCALL     ??Subroutine58_0 & 0xFFFF
   \                     ??CrossCallReturnLabel_104:
   \   000022   8E82         MOV       DPL,R6
   \   000024   8F83         MOV       DPH,R7
   \   000026   E0           MOVX      A,@DPTR
   \   000027   68           XRL       A,R0
   \   000028   7003         JNZ       ??zclGp_GpProxyCommissioningModeCB_1
   \   00002A   A3           INC       DPTR
   \   00002B   E0           MOVX      A,@DPTR
   \   00002C   69           XRL       A,R1
   \                     ??zclGp_GpProxyCommissioningModeCB_1:
   \   00002D   705C         JNZ       ??zclGp_GpProxyCommissioningModeCB_2
    926            {
    927              // If is in commissioning mode and the soruce address is different from 
    928              // the device that set the proxy in commissioning mode, then drop
    929              // the request.
    930              return;
    931            }
    932          
    933            //Enter in commissioning mode
    934            if(gp_commissioningOptions & GP_COMM_OPT_ACTION_MASK)
   \                     ??zclGp_GpProxyCommissioningModeCB_0:
   \   00002F   90....       MOV       DPTR,#gp_commissioningOptions
   \   000032   E0           MOVX      A,@DPTR
   \   000033   A2E0         MOV       C,0xE0 /* A   */.0
   \   000035   5051         JNC       ??zclGp_GpProxyCommissioningModeCB_3
    935            {
    936            
    937          #if 0
    938              if(gp_commissioningOptions & GP_COMM_OPT_CHANNEL_PRES_MASK)
    939              {
    940                //Section A.3.3.5.3, channel field is not supported in the current version of the spec
    941              }
    942          #endif
    943           
    944              if(gp_commissioningOptions & GP_COMM_OPT_EXIT_ON_WINDOW_EXPIRATION_MASK)
   \   000037   A2E1         MOV       C,0xE0 /* A   */.1
   \   000039   5018         JNC       ??CrossCallReturnLabel_145
    945              {
    946                CommissioningWindow = osal_build_uint16(pCmd->pData);
   \   00003B   EE           MOV       A,R6
   \   00003C   2403         ADD       A,#0x3
   \   00003E   12....       LCALL     ?Subroutine44 & 0xFFFF
   \                     ??CrossCallReturnLabel_68:
   \   000041   12....       LCALL     ??Subroutine68_0 & 0xFFFF
   \                     ??CrossCallReturnLabel_165:
   \   000044   12....       LCALL     `??osal_build_uint16::?relay`; Banked call to: osal_build_uint16
    947                pCmd->pData += sizeof(uint16);
   \   000047   85..82       MOV       DPL,?V0
   \   00004A   85..83       MOV       DPH,?V1
   \   00004D   12....       LCALL     ?Subroutine35 & 0xFFFF
    948                
    949                
    950              }
   \                     ??CrossCallReturnLabel_54:
   \   000050   12....       LCALL     ?Subroutine16 & 0xFFFF
    951              if(gp_commissioningOptions & GP_COMM_OPT_UNICAST_COMM_MASK)
   \                     ??CrossCallReturnLabel_145:
   \   000053   90....       MOV       DPTR,#gp_commissioningOptions
   \   000056   E0           MOVX      A,@DPTR
   \   000057   A2E5         MOV       C,0xE0 /* A   */.5
   \   000059   5010         JNC       ??zclGp_GpProxyCommissioningModeCB_4
    952              {
    953                gp_commissionerAddress = pCmd->srcAddr;
   \   00005B   8E82         MOV       DPL,R6
   \   00005D   8F83         MOV       DPH,R7
   \   00005F   12....       LCALL     ??Subroutine58_0 & 0xFFFF
    954              }
   \                     ??CrossCallReturnLabel_105:
   \   000062   90....       MOV       DPTR,#gp_commissionerAddress
   \   000065   E8           MOV       A,R0
   \   000066   F0           MOVX      @DPTR,A
   \   000067   A3           INC       DPTR
   \   000068   E9           MOV       A,R1
   \   000069   8007         SJMP      ??zclGp_GpProxyCommissioningModeCB_5
    955              else
    956              {
    957                gp_commissionerAddress = 0xFFFF;
   \                     ??zclGp_GpProxyCommissioningModeCB_4:
   \   00006B   90....       MOV       DPTR,#gp_commissionerAddress
   \   00006E   74FF         MOV       A,#-0x1
   \   000070   F0           MOVX      @DPTR,A
   \   000071   A3           INC       DPTR
   \                     ??zclGp_GpProxyCommissioningModeCB_5:
   \   000072   F0           MOVX      @DPTR,A
    958              }
    959              
    960              //Convert to timer units
    961              CommissioningWindow = CommissioningWindow * 1000;
    962              
    963              //Exit upon expire
    964              zgGP_InCommissioningMode = TRUE;
   \   000073   90....       MOV       DPTR,#zgGP_InCommissioningMode
   \   000076   7401         MOV       A,#0x1
   \   000078   F0           MOVX      @DPTR,A
    965              
    966              //Notify the user about entering in commissioning mode
    967              if(pfnCommissioningMode)
   \   000079   12....       LCALL     ?Subroutine22 & 0xFFFF
   \                     ??CrossCallReturnLabel_178:
   \   00007C   600D         JZ        ??zclGp_GpProxyCommissioningModeCB_2
    968              {
    969                pfnCommissioningMode(TRUE);
   \   00007E                ; Setup parameters for indirect call
   \   00007E   7901         MOV       R1,#0x1
   \   000080   12....       LCALL     ??Subroutine64_0 & 0xFFFF
    970              }
    971            }
   \                     ??CrossCallReturnLabel_129:
   \   000083   12....       LCALL     ?CALL_IND
   \   000086   8003         SJMP      ??zclGp_GpProxyCommissioningModeCB_2
    972            //Exit commissioning mode
    973            else
    974            { 
    975              gp_stopCommissioningMode();
   \                     ??zclGp_GpProxyCommissioningModeCB_3:
   \   000088                ; Setup parameters for call to function gp_stopCommissioningMode
   \   000088   12....       LCALL     `??gp_stopCommissioningMode::?relay`; Banked call to: gp_stopCommissioningMode
    976            }
    977          }
   \                     ??zclGp_GpProxyCommissioningModeCB_2:
   \   00008B   7F02         MOV       R7,#0x2
   \   00008D   02....       LJMP      ?BANKED_LEAVE_XDATA

   \                                 In  segment BANKED_CODE, align 1, keep-with-next
   \                     ?Subroutine44:
   \   000000   F5..         MOV       ?V0,A
   \   000002   E4           CLR       A
   \   000003   3F           ADDC      A,R7
   \   000004   F5..         MOV       ?V1,A
   \   000006                ; Setup parameters for call to function osal_build_uint16
   \   000006   85..82       MOV       DPL,?V0
   \   000009   F583         MOV       DPH,A
   \   00000B   22           RET
    978          
    979           /*********************************************************************
    980           * @fn          gp_ZclPairingParse
    981           *
    982           * @brief       Parse the pairing data message payload
    983           *
    984           * @param       
    985           *
    986           * @return      
    987           */

   \                                 In  segment BANKED_CODE, align 1, keep-with-next
    988          static void gp_ZclPairingParse( zclGpPairing_t* pCmd, gpPairingCmd_t* payload )
   \                     gp_ZclPairingParse:
    989          {
   \   000000                REQUIRE ?V0
   \   000000                REQUIRE ?V1
   \   000000                REQUIRE ?V2
   \   000000                REQUIRE ?V3
   \   000000                REQUIRE ?V4
   \   000000                REQUIRE ?V5
   \   000000                REQUIRE ?V6
   \   000000                REQUIRE ?V7
   \   000000   74F0         MOV       A,#-0x10
   \   000002   12....       LCALL     ?BANKED_ENTER_XDATA
   \   000005                ; Saved register size: 16
   \   000005                ; Auto size: 65
   \   000005   74BF         MOV       A,#-0x41
   \   000007   12....       LCALL     ?ALLOC_XSTACK8
   \   00000A   EC           MOV       A,R4
   \   00000B   FE           MOV       R6,A
   \   00000C   ED           MOV       A,R5
   \   00000D   FF           MOV       R7,A
    990          
    991            payload->options |= ( ( ( uint32 ) pCmd->options[2] << 16 ) & 0x00FF0000 );
   \   00000E   8A82         MOV       DPL,R2
   \   000010   8B83         MOV       DPH,R3
   \   000012   A3           INC       DPTR
   \   000013   A3           INC       DPTR
   \   000014   A3           INC       DPTR
   \   000015   A3           INC       DPTR
   \   000016   E0           MOVX      A,@DPTR
   \   000017   F5..         MOV       ?V0,A
   \   000019   E4           CLR       A
   \   00001A   F5..         MOV       ?V1,A
   \   00001C   F5..         MOV       ?V2,A
   \   00001E   F5..         MOV       ?V3,A
   \   000020   7410         MOV       A,#0x10
   \   000022   78..         MOV       R0,#?V0
   \   000024   12....       LCALL     ?L_SHL
   \   000027   8E82         MOV       DPL,R6
   \   000029   8F83         MOV       DPH,R7
   \   00002B   78..         MOV       R0,#?V0
   \   00002D   12....       LCALL     ?L_IOR_TO_X
    992            payload->options |= ( ( ( uint32 ) pCmd->options[1] <<  8 ) & 0x0000FF00 );
   \   000030   8A82         MOV       DPL,R2
   \   000032   8B83         MOV       DPH,R3
   \   000034   A3           INC       DPTR
   \   000035   A3           INC       DPTR
   \   000036   A3           INC       DPTR
   \   000037   E0           MOVX      A,@DPTR
   \   000038   F5..         MOV       ?V0,A
   \   00003A   E4           CLR       A
   \   00003B   F5..         MOV       ?V2,A
   \   00003D   7408         MOV       A,#0x8
   \   00003F   78..         MOV       R0,#?V0
   \   000041   12....       LCALL     ?L_SHL
   \   000044   8E82         MOV       DPL,R6
   \   000046   8F83         MOV       DPH,R7
   \   000048   78..         MOV       R0,#?V0
   \   00004A   12....       LCALL     ?L_IOR_TO_X
    993            payload->options |= ( ( ( uint32 ) pCmd->options[0] )       & 0x000000FF );
   \   00004D   8A82         MOV       DPL,R2
   \   00004F   8B83         MOV       DPH,R3
   \   000051   A3           INC       DPTR
   \   000052   A3           INC       DPTR
   \   000053   E0           MOVX      A,@DPTR
   \   000054   F5..         MOV       ?V0,A
   \   000056   E4           CLR       A
   \   000057   F5..         MOV       ?V1,A
   \   000059   8E82         MOV       DPL,R6
   \   00005B   8F83         MOV       DPH,R7
   \   00005D   78..         MOV       R0,#?V0
   \   00005F   12....       LCALL     ?L_IOR_TO_X
   \   000062   8E82         MOV       DPL,R6
   \   000064   8F83         MOV       DPH,R7
   \   000066   78..         MOV       R0,#?V0
   \   000068   12....       LCALL     ?L_MOV_X
   \   00006B   E5..         MOV       A,?V0
   \   00006D   5407         ANL       A,#0x7
   \   00006F   F8           MOV       R0,A
   \   000070   EE           MOV       A,R6
   \   000071   2410         ADD       A,#0x10
   \   000073   F5..         MOV       ?V2,A
   \   000075   E4           CLR       A
   \   000076   3F           ADDC      A,R7
   \   000077   F5..         MOV       ?V3,A
   \   000079   EE           MOV       A,R6
   \   00007A   2408         ADD       A,#0x8
   \   00007C   F5..         MOV       ?V0,A
   \   00007E   E4           CLR       A
   \   00007F   3F           ADDC      A,R7
   \   000080   F5..         MOV       ?V1,A
   \   000082   EA           MOV       A,R2
   \   000083   2405         ADD       A,#0x5
   \   000085   F5..         MOV       ?V4,A
   \   000087   E4           CLR       A
   \   000088   3B           ADDC      A,R3
   \   000089   F5..         MOV       ?V5,A
   \   00008B   E8           MOV       A,R0
   \   00008C   7027         JNZ       ??gp_ZclPairingParse_0
    994              
    995            // Options bitfield
    996            // If Application Id bitfield is 0b000
    997            if( GP_IS_APPLICATION_ID_GPD( payload->options ) )
    998            {        
    999              // Populate GPD ID
   1000              gp_PopulateField( ( uint8* )&payload->gpdId, &pCmd->pData, sizeof( payload->gpdId ) );
   \   00008E                ; Setup parameters for call to function gp_PopulateField
   \   00008E   7904         MOV       R1,#0x4
   \   000090   AC..         MOV       R4,?V4
   \   000092   AD..         MOV       R5,?V5
   \   000094   EE           MOV       A,R6
   \   000095   29           ADD       A,R1
   \   000096   FA           MOV       R2,A
   \   000097   E4           CLR       A
   \   000098   3F           ADDC      A,R7
   \   000099   FB           MOV       R3,A
   \   00009A   12....       LCALL     `??gp_PopulateField::?relay`; Banked call to: gp_PopulateField
   1001              
   1002              // Populate GPD IEEE Invalid
   1003              osal_memset ( &payload->gpdIEEE, 0xFF, Z_EXTADDR_LEN );
   \   00009D                ; Setup parameters for call to function osal_memset
   \   00009D   7C08         MOV       R4,#0x8
   \   00009F   7D00         MOV       R5,#0x0
   \   0000A1   79FF         MOV       R1,#-0x1
   \   0000A3   AA..         MOV       R2,?V0
   \   0000A5   AB..         MOV       R3,?V1
   \   0000A7   12....       LCALL     `??osal_memset::?relay`; Banked call to: osal_memset
   1004              // Populate EP Invalid
   1005              payload->ep = 0xFF;
   \   0000AA   85..82       MOV       DPL,?V2
   \   0000AD   85..83       MOV       DPH,?V3
   \   0000B0   74FF         MOV       A,#-0x1
   \   0000B2   F0           MOVX      @DPTR,A
   \   0000B3   8028         SJMP      ??gp_ZclPairingParse_1
   1006            }
   1007            // If Application Id bitfield is 0b010
   1008            else if( GP_IS_APPLICATION_ID_IEEE( payload->options ) )
   \                     ??gp_ZclPairingParse_0:
   \   0000B5   7402         MOV       A,#0x2
   \   0000B7   68           XRL       A,R0
   \   0000B8   7023         JNZ       ??gp_ZclPairingParse_1
   1009            {
   1010              // Populate GPD ID Invalid
   1011              payload->gpdId = 0xFFFFFFFF;
   \   0000BA   8E82         MOV       DPL,R6
   \   0000BC   8F83         MOV       DPH,R7
   \   0000BE   A3           INC       DPTR
   \   0000BF   A3           INC       DPTR
   \   0000C0   A3           INC       DPTR
   \   0000C1   A3           INC       DPTR
   \   0000C2   12....       LCALL     ?Subroutine13 & 0xFFFF
   1012              
   1013              // Populate GPD IEEE
   1014              gp_PopulateField( ( uint8* )&payload->gpdIEEE, &pCmd->pData, Z_EXTADDR_LEN );
   \                     ??CrossCallReturnLabel_19:
   \   0000C5   AC..         MOV       R4,?V4
   \   0000C7   AD..         MOV       R5,?V5
   \   0000C9   AA..         MOV       R2,?V0
   \   0000CB   AB..         MOV       R3,?V1
   \   0000CD   12....       LCALL     `??gp_PopulateField::?relay`; Banked call to: gp_PopulateField
   1015              // Populate EP
   1016              gp_PopulateField( ( uint8* )&payload->ep, &pCmd->pData, sizeof( payload->ep ) );
   \   0000D0                ; Setup parameters for call to function gp_PopulateField
   \   0000D0   7901         MOV       R1,#0x1
   \   0000D2   AC..         MOV       R4,?V4
   \   0000D4   AD..         MOV       R5,?V5
   \   0000D6   AA..         MOV       R2,?V2
   \   0000D8   AB..         MOV       R3,?V3
   \   0000DA   12....       LCALL     `??gp_PopulateField::?relay`; Banked call to: gp_PopulateField
   1017            }
   1018            
   1019            // If Remove GPD bit is 0b0
   1020            if( !GP_REMOVE_GPD( payload->options ) )
   \                     ??gp_ZclPairingParse_1:
   \   0000DD   EE           MOV       A,R6
   \   0000DE   2411         ADD       A,#0x11
   \   0000E0   F5..         MOV       ?V6,A
   \   0000E2   E4           CLR       A
   \   0000E3   3F           ADDC      A,R7
   \   0000E4   F5..         MOV       ?V7,A
   \   0000E6   8E82         MOV       DPL,R6
   \   0000E8   8F83         MOV       DPH,R7
   \   0000EA   78..         MOV       R0,#?V0
   \   0000EC   12....       LCALL     ?L_MOV_X
   \   0000EF   E5..         MOV       A,?V0
   \   0000F1   5410         ANL       A,#0x10
   \   0000F3   6003         JZ        $+5
   \   0000F5   02....       LJMP      ??gp_ZclPairingParse_2 & 0xFFFF
   1021            {
   1022              // Communication Mode 0b00 or 0b11
   1023              if( ( GP_IS_COMMUNICATION_MODE_FULL_UNICAST( payload->options ) ) || ( GP_IS_COMMUNICATION_MODE_LIGHT_UNICAST( payload->options ) ) )
   \   0000F8   E5..         MOV       A,?V0
   \   0000FA   C4           SWAP      A
   \   0000FB   13           RRC       A
   \   0000FC   5407         ANL       A,#0x7
   \   0000FE   5403         ANL       A,#0x3
   \   000100   F8           MOV       R0,A
   \   000101   EE           MOV       A,R6
   \   000102   241B         ADD       A,#0x1b
   \   000104   F5..         MOV       ?V2,A
   \   000106   E4           CLR       A
   \   000107   3F           ADDC      A,R7
   \   000108   F5..         MOV       ?V3,A
   \   00010A   EE           MOV       A,R6
   \   00010B   2419         ADD       A,#0x19
   \   00010D   F5..         MOV       ?V0,A
   \   00010F   E4           CLR       A
   \   000110   3F           ADDC      A,R7
   \   000111   F5..         MOV       ?V1,A
   \   000113   E8           MOV       A,R0
   \   000114   6005         JZ        ??gp_ZclPairingParse_3
   \   000116   7403         MOV       A,#0x3
   \   000118   68           XRL       A,R0
   \   000119   7027         JNZ       ??gp_ZclPairingParse_4
   1024              {
   1025                // Populate Sink Addesses
   1026                gp_PopulateField( ( uint8* )&payload->sinkIEEE, &pCmd->pData, Z_EXTADDR_LEN );
   \                     ??gp_ZclPairingParse_3:
   \   00011B                ; Setup parameters for call to function gp_PopulateField
   \   00011B   7908         MOV       R1,#0x8
   \   00011D   AC..         MOV       R4,?V4
   \   00011F   AD..         MOV       R5,?V5
   \   000121   AA..         MOV       R2,?V6
   \   000123   AB..         MOV       R3,?V7
   \   000125   12....       LCALL     `??gp_PopulateField::?relay`; Banked call to: gp_PopulateField
   1027                gp_PopulateField( ( uint8* )&payload->sinkNwkAddr, &pCmd->pData, sizeof( payload->sinkNwkAddr ) );
   \   000128                ; Setup parameters for call to function gp_PopulateField
   \   000128   7902         MOV       R1,#0x2
   \   00012A   AC..         MOV       R4,?V4
   \   00012C   AD..         MOV       R5,?V5
   \   00012E   AA..         MOV       R2,?V0
   \   000130   AB..         MOV       R3,?V1
   \   000132   12....       LCALL     `??gp_PopulateField::?relay`; Banked call to: gp_PopulateField
   1028                
   1029                // Populate Grp Address Ivalid
   1030                payload->sinkGroupID = 0xFFFF;
   \   000135   85..82       MOV       DPL,?V2
   \   000138   85..83       MOV       DPH,?V3
   \   00013B   74FF         MOV       A,#-0x1
   \   00013D   F0           MOVX      @DPTR,A
   \   00013E   A3           INC       DPTR
   \   00013F   F0           MOVX      @DPTR,A
   \   000140   802F         SJMP      ??gp_ZclPairingParse_5
   1031              }
   1032              // Communication Mode 0b01 or 0b10
   1033              else if ( ( GP_IS_COMMUNICATION_MODE_GRPCAST_DGROUP_ID( payload->options ) ) || ( GP_IS_COMMUNICATION_MODE_GRPCAST_GROUP_ID( payload->options ) ) )
   \                     ??gp_ZclPairingParse_4:
   \   000142   7401         MOV       A,#0x1
   \   000144   68           XRL       A,R0
   \   000145   6005         JZ        ??gp_ZclPairingParse_6
   \   000147   7402         MOV       A,#0x2
   \   000149   68           XRL       A,R0
   \   00014A   7025         JNZ       ??gp_ZclPairingParse_5
   1034              {
   1035                // Populate Sink Addesses Invalid
   1036                osal_memset ( &payload->sinkIEEE, 0xFF, Z_EXTADDR_LEN );
   \                     ??gp_ZclPairingParse_6:
   \   00014C                ; Setup parameters for call to function osal_memset
   \   00014C   7C08         MOV       R4,#0x8
   \   00014E   7D00         MOV       R5,#0x0
   \   000150   79FF         MOV       R1,#-0x1
   \   000152   AA..         MOV       R2,?V6
   \   000154   AB..         MOV       R3,?V7
   \   000156   12....       LCALL     `??osal_memset::?relay`; Banked call to: osal_memset
   1037                payload->sinkNwkAddr = 0xFFFF;
   \   000159   85..82       MOV       DPL,?V0
   \   00015C   85..83       MOV       DPH,?V1
   \   00015F   74FF         MOV       A,#-0x1
   \   000161   F0           MOVX      @DPTR,A
   \   000162   A3           INC       DPTR
   \   000163   F0           MOVX      @DPTR,A
   1038                
   1039                // Populate Grp Address
   1040                gp_PopulateField( ( uint8* )&payload->sinkGroupID, &pCmd->pData, sizeof( payload->sinkGroupID ) );
   \   000164                ; Setup parameters for call to function gp_PopulateField
   \   000164   7902         MOV       R1,#0x2
   \   000166   AC..         MOV       R4,?V4
   \   000168   AD..         MOV       R5,?V5
   \   00016A   AA..         MOV       R2,?V2
   \   00016C   AB..         MOV       R3,?V3
   \   00016E   12....       LCALL     `??gp_PopulateField::?relay`; Banked call to: gp_PopulateField
   \                     ??gp_ZclPairingParse_5:
   \   000171   EE           MOV       A,R6
   \   000172   241E         ADD       A,#0x1e
   \   000174   F5..         MOV       ?V6,A
   \   000176   E4           CLR       A
   \   000177   3F           ADDC      A,R7
   \   000178   F5..         MOV       ?V7,A
   \   00017A   EE           MOV       A,R6
   \   00017B   241D         ADD       A,#0x1d
   1041              }
   1042            }
   \   00017D   12....       LCALL     ?Subroutine43 & 0xFFFF
   \                     ??CrossCallReturnLabel_66:
   \   000180   12....       LCALL     ?L_MOV_X
   \   000183   E5..         MOV       A,?V0
   \   000185   5408         ANL       A,#0x8
   \   000187   6003         JZ        $+5
   \   000189   02....       LJMP      ??gp_ZclPairingParse_7 & 0xFFFF
   1043            else
   1044            {
   1045              uint8 i;
   1046              uint8 status;
   1047              uint8 currEntry[PROXY_TBL_ENTRY_LEN] = PROXY_BASIC_TBL_EMPTY_ENTRY;
   1048                
   1049              // Remove
   1050              for ( i = 0; i <= GPP_MAX_PROXY_TABLE_ENTRIES ; i++ )
   1051              {
   1052                status = gp_getProxyTableByIndex( ( ZCD_NV_PROXY_TABLE_START + i ), currEntry );
   1053          
   1054                if ( status == NV_OPER_FAILED )
   1055                {
   1056                  // FAIL
   1057                  return;
   1058                }
   1059              
   1060                // if the entry is empty
   1061                if ( status == NV_INVALID_DATA )
   1062                {
   1063                  // Look for the next entry
   1064                  continue;
   1065                }
   1066                
   1067                if( GP_IS_APPLICATION_ID_GPD( payload->options ) )
   1068                {
   1069                  if ( osal_memcmp( &currEntry[PROXY_TBL_ENTRY_GPD_ID + 4], &payload->gpdId, sizeof ( uint32 ) ) )
   1070                  {
   1071                    // Remove this GPD entry
   1072                    gp_ResetProxyBasicTblEntry( currEntry );
   1073                  }
   1074                }
   1075                else if( GP_IS_APPLICATION_ID_IEEE( payload->options ) )
   1076                {   
   1077                  if ( osal_memcmp( &currEntry[PROXY_TBL_ENTRY_GPD_ID ], payload->sinkIEEE, Z_EXTADDR_LEN ) )
   1078                  {
   1079                    // Remove this GPD entry
   1080                    gp_ResetProxyBasicTblEntry( currEntry );
   1081                  }
   1082                }
   1083              }
   1084              return;
   1085            }
   1086            
   1087            // If Add Sink bit is 0b1
   1088            if ( GP_ADD_SINK( payload->options ) )
   1089            {
   1090              // Populate Device ID
   1091              gp_PopulateField( ( uint8* )&payload->deviceId, &pCmd->pData, sizeof( payload->deviceId ) );
   1092              
   1093              if ( GP_SEC_COUNTER( payload->options ) )
   1094              {
   1095                // Populate GPD security frame counter
   1096                gp_PopulateField( ( uint8* )&payload->gpdSecCounter, &pCmd->pData, sizeof( payload->gpdSecCounter ) );
   1097              }
   1098              else
   1099              {
   1100                payload->gpdSecCounter = 0xFFFFFFFF;
   1101              }
   1102              
   1103              if ( GP_SEC_KEY ( payload->options ) )
   1104              {
   1105                gp_PopulateField( ( uint8* )&payload->gpdKey, &pCmd->pData, SEC_KEY_LEN );
   1106              }
   1107              else
   1108              {
   1109                osal_memset ( &payload->gpdKey, 0xFF, SEC_KEY_LEN );
   1110              }
   1111              
   1112              if ( GP_ALIAS ( payload->options ) )
   1113              {
   1114                gp_PopulateField( ( uint8* )&payload->assignedAlias, &pCmd->pData, sizeof( payload->assignedAlias ) );
   1115              }
   1116              else
   1117              {
   1118                payload->assignedAlias = 0xFFFF;
   1119              }
   1120              if ( GP_FORWARDING_RADIUS ( payload->options ) )
   1121              {
   1122                gp_PopulateField( ( uint8* )&payload->forwardingRadius, &pCmd->pData, sizeof( payload->forwardingRadius ) );
   1123              }
   1124              else
   1125              {
   1126                payload->forwardingRadius = 0xFF;
   1127              }
   1128            }
   1129            else
   1130            {
   1131              // Ivalidate every field
   1132              payload->deviceId = 0xFF;
   \   00018C   8A82         MOV       DPL,R2
   \   00018E   8B83         MOV       DPH,R3
   \   000190   74FF         MOV       A,#-0x1
   \   000192   F0           MOVX      @DPTR,A
   1133              payload->gpdSecCounter = 0xFFFFFFFF;
   \   000193   85..82       MOV       DPL,?V6
   \   000196   85..83       MOV       DPH,?V7
   \   000199   12....       LCALL     ??Subroutine56_0 & 0xFFFF
   1134              payload->assignedAlias = 0xFFFF;
   \                     ??CrossCallReturnLabel_96:
   \   00019C   12....       LCALL     ?Subroutine41 & 0xFFFF
   1135              payload->forwardingRadius = 0xFF;
   \                     ??CrossCallReturnLabel_62:
   \   00019F   EE           MOV       A,R6
   \   0001A0   2434         ADD       A,#0x34
   \   0001A2   F582         MOV       DPL,A
   \   0001A4   E4           CLR       A
   \   0001A5   3F           ADDC      A,R7
   \   0001A6   F583         MOV       DPH,A
   \   0001A8   74FF         MOV       A,#-0x1
   \   0001AA   F0           MOVX      @DPTR,A
   1136            }
   1137          }
   \                     ??gp_ZclPairingParse_8:
   \   0001AB   7441         MOV       A,#0x41
   \   0001AD   02....       LJMP      ?Subroutine1 & 0xFFFF
   \                     ??gp_ZclPairingParse_2:
   \   0001B0   90....       MOV       DPTR,#`?<Constant {255, 255, 255, 255, 255, 255, 255,_2`
   \   0001B3   AC..         MOV       R4,?XSP + 0
   \   0001B5   AD..         MOV       R5,?XSP + 1
   \   0001B7   7441         MOV       A,#0x41
   \   0001B9   12....       LCALL     ?MOVE_LONG8_XDATA_XDATA
   \   0001BC   75..00       MOV       ?V4,#0x0
   \                     ??gp_ZclPairingParse_9:
   \   0001BF                ; Setup parameters for call to function gp_getProxyTableByIndex
   \   0001BF   AC..         MOV       R4,?XSP + 0
   \   0001C1   AD..         MOV       R5,?XSP + 1
   \   0001C3   E5..         MOV       A,?V4
   \   0001C5   12....       LCALL     ??Subroutine60_0 & 0xFFFF
   \                     ??CrossCallReturnLabel_117:
   \   0001C8   12....       LCALL     `??gp_getProxyTableByIndex::?relay`; Banked call to: gp_getProxyTableByIndex
   \   0001CB   E9           MOV       A,R1
   \   0001CC   F8           MOV       R0,A
   \   0001CD   740A         MOV       A,#0xa
   \   0001CF   68           XRL       A,R0
   \   0001D0   60D9         JZ        ??gp_ZclPairingParse_8
   \   0001D2   740D         MOV       A,#0xd
   \   0001D4   68           XRL       A,R0
   \   0001D5   6069         JZ        ??gp_ZclPairingParse_10
   \   0001D7   8E82         MOV       DPL,R6
   \   0001D9   8F83         MOV       DPH,R7
   \   0001DB   78..         MOV       R0,#?V0
   \   0001DD   12....       LCALL     ?L_MOV_X
   \   0001E0   E5..         MOV       A,?V0
   \   0001E2   5407         ANL       A,#0x7
   \   0001E4   F8           MOV       R0,A
   \   0001E5   7025         JNZ       ??gp_ZclPairingParse_11
   \   0001E7                ; Setup parameters for call to function osal_memcmp
   \   0001E7   EE           MOV       A,R6
   \   0001E8   2404         ADD       A,#0x4
   \   0001EA   12....       LCALL     ??Subroutine67_0 & 0xFFFF
   \                     ??CrossCallReturnLabel_155:
   \   0001ED   12....       LCALL     ?PUSH_XSTACK_I_THREE
   \   0001F0   7C04         MOV       R4,#0x4
   \   0001F2   7D00         MOV       R5,#0x0
   \   0001F4   7409         MOV       A,#0x9
   \   0001F6   12....       LCALL     ?XSTACK_DISP0_8
   \   0001F9   A982         MOV       R1,DPL
   \   0001FB   AA83         MOV       R2,DPH
   \   0001FD   7B00         MOV       R3,#0x0
   \   0001FF   12....       LCALL     `??osal_memcmp::?relay`; Banked call to: osal_memcmp
   \   000202   7403         MOV       A,#0x3
   \   000204   12....       LCALL     ?DEALLOC_XSTACK8
   \   000207   E9           MOV       A,R1
   \   000208   702F         JNZ       ??gp_ZclPairingParse_12
   \   00020A   8034         SJMP      ??gp_ZclPairingParse_10
   \                     ??gp_ZclPairingParse_11:
   \   00020C   7402         MOV       A,#0x2
   \   00020E   68           XRL       A,R0
   \   00020F   702F         JNZ       ??gp_ZclPairingParse_10
   \   000211                ; Setup parameters for call to function osal_memcmp
   \   000211   85....       MOV       ?V0,?V6
   \   000214   85....       MOV       ?V1,?V7
   \   000217   75..00       MOV       ?V2,#0x0
   \   00021A   78..         MOV       R0,#?V0
   \   00021C   12....       LCALL     ?PUSH_XSTACK_I_THREE
   \   00021F   7C08         MOV       R4,#0x8
   \   000221   7D00         MOV       R5,#0x0
   \   000223   7405         MOV       A,#0x5
   \   000225   12....       LCALL     ?XSTACK_DISP0_8
   \   000228   A982         MOV       R1,DPL
   \   00022A   AA83         MOV       R2,DPH
   \   00022C   7B00         MOV       R3,#0x0
   \   00022E   12....       LCALL     `??osal_memcmp::?relay`; Banked call to: osal_memcmp
   \   000231   7403         MOV       A,#0x3
   \   000233   12....       LCALL     ?DEALLOC_XSTACK8
   \   000236   E9           MOV       A,R1
   \   000237   6007         JZ        ??gp_ZclPairingParse_10
   \                     ??gp_ZclPairingParse_12:
   \   000239                ; Setup parameters for call to function gp_ResetProxyBasicTblEntry
   \   000239   AA..         MOV       R2,?XSP + 0
   \   00023B   AB..         MOV       R3,?XSP + 1
   \   00023D   12....       LCALL     `??gp_ResetProxyBasicTblEntry::?relay`; Banked call to: gp_ResetProxyBasicTblEntry
   \                     ??gp_ZclPairingParse_10:
   \   000240   05..         INC       ?V4
   \   000242   E5..         MOV       A,?V4
   \   000244   C3           CLR       C
   \   000245   9406         SUBB      A,#0x6
   \   000247   5003         JNC       $+5
   \   000249   02....       LJMP      ??gp_ZclPairingParse_9 & 0xFFFF
   \   00024C   02....       LJMP      ??gp_ZclPairingParse_8 & 0xFFFF
   \                     ??gp_ZclPairingParse_7:
   \   00024F                ; Setup parameters for call to function gp_PopulateField
   \   00024F   7901         MOV       R1,#0x1
   \   000251   AC..         MOV       R4,?V4
   \   000253   AD..         MOV       R5,?V5
   \   000255   12....       LCALL     `??gp_PopulateField::?relay`; Banked call to: gp_PopulateField
   \   000258   8E82         MOV       DPL,R6
   \   00025A   8F83         MOV       DPH,R7
   \   00025C   78..         MOV       R0,#?V0
   \   00025E   12....       LCALL     ?L_MOV_X
   \   000261   E5..         MOV       A,?V1
   \   000263   5440         ANL       A,#0x40
   \   000265   600F         JZ        ??gp_ZclPairingParse_13
   \   000267                ; Setup parameters for call to function gp_PopulateField
   \   000267   7904         MOV       R1,#0x4
   \   000269   AC..         MOV       R4,?V4
   \   00026B   AD..         MOV       R5,?V5
   \   00026D   AA..         MOV       R2,?V6
   \   00026F   AB..         MOV       R3,?V7
   \   000271   12....       LCALL     `??gp_PopulateField::?relay`; Banked call to: gp_PopulateField
   \   000274   8009         SJMP      ??CrossCallReturnLabel_99
   \                     ??gp_ZclPairingParse_13:
   \   000276   85..82       MOV       DPL,?V6
   \   000279   85..83       MOV       DPH,?V7
   \   00027C   12....       LCALL     ?Subroutine14 & 0xFFFF
   \                     ??CrossCallReturnLabel_99:
   \   00027F   EE           MOV       A,R6
   \   000280   2422         ADD       A,#0x22
   \   000282   12....       LCALL     ?Subroutine43 & 0xFFFF
   \                     ??CrossCallReturnLabel_67:
   \   000285   12....       LCALL     ?L_MOV_X
   \   000288   E5..         MOV       A,?V1
   \   00028A   5480         ANL       A,#0x80
   \   00028C   600B         JZ        ??gp_ZclPairingParse_14
   \   00028E                ; Setup parameters for call to function gp_PopulateField
   \   00028E   7910         MOV       R1,#0x10
   \   000290   AC..         MOV       R4,?V4
   \   000292   AD..         MOV       R5,?V5
   \   000294   12....       LCALL     `??gp_PopulateField::?relay`; Banked call to: gp_PopulateField
   \   000297   8009         SJMP      ??gp_ZclPairingParse_15
   \                     ??gp_ZclPairingParse_14:
   \   000299                ; Setup parameters for call to function osal_memset
   \   000299   7C10         MOV       R4,#0x10
   \   00029B   7D00         MOV       R5,#0x0
   \   00029D   79FF         MOV       R1,#-0x1
   \   00029F   12....       LCALL     `??osal_memset::?relay`; Banked call to: osal_memset
   \                     ??gp_ZclPairingParse_15:
   \   0002A2   8E82         MOV       DPL,R6
   \   0002A4   8F83         MOV       DPH,R7
   \   0002A6   78..         MOV       R0,#?V0
   \   0002A8   12....       LCALL     ?L_MOV_X
   \   0002AB   90....       MOV       DPTR,#__Constant_10000
   \   0002AE   78..         MOV       R0,#?V0
   \   0002B0   12....       LCALL     ?L_AND_X
   \   0002B3   12....       LCALL     ?Subroutine49 & 0xFFFF
   \                     ??CrossCallReturnLabel_123:
   \   0002B6   6012         JZ        ??gp_ZclPairingParse_16
   \   0002B8                ; Setup parameters for call to function gp_PopulateField
   \   0002B8   7902         MOV       R1,#0x2
   \   0002BA   AC..         MOV       R4,?V4
   \   0002BC   AD..         MOV       R5,?V5
   \   0002BE   EE           MOV       A,R6
   \   0002BF   2432         ADD       A,#0x32
   \   0002C1   FA           MOV       R2,A
   \   0002C2   E4           CLR       A
   \   0002C3   3F           ADDC      A,R7
   \   0002C4   FB           MOV       R3,A
   \   0002C5   12....       LCALL     `??gp_PopulateField::?relay`; Banked call to: gp_PopulateField
   \   0002C8   8003         SJMP      ??CrossCallReturnLabel_63
   \                     ??gp_ZclPairingParse_16:
   \   0002CA   12....       LCALL     ?Subroutine41 & 0xFFFF
   \                     ??CrossCallReturnLabel_63:
   \   0002CD   8E82         MOV       DPL,R6
   \   0002CF   8F83         MOV       DPH,R7
   \   0002D1   78..         MOV       R0,#?V0
   \   0002D3   12....       LCALL     ?L_MOV_X
   \   0002D6   90....       MOV       DPTR,#__Constant_20000
   \   0002D9   78..         MOV       R0,#?V0
   \   0002DB   12....       LCALL     ?L_AND_X
   \   0002DE   12....       LCALL     ?Subroutine49 & 0xFFFF
   \                     ??CrossCallReturnLabel_124:
   \   0002E1   6013         JZ        ??gp_ZclPairingParse_17
   \   0002E3                ; Setup parameters for call to function gp_PopulateField
   \   0002E3   7901         MOV       R1,#0x1
   \   0002E5   AC..         MOV       R4,?V4
   \   0002E7   AD..         MOV       R5,?V5
   \   0002E9   EE           MOV       A,R6
   \   0002EA   2434         ADD       A,#0x34
   \   0002EC   FA           MOV       R2,A
   \   0002ED   E4           CLR       A
   \   0002EE   3F           ADDC      A,R7
   \   0002EF   FB           MOV       R3,A
   \   0002F0   12....       LCALL     `??gp_PopulateField::?relay`; Banked call to: gp_PopulateField
   \   0002F3   02....       LJMP      ??gp_ZclPairingParse_8 & 0xFFFF
   \                     ??gp_ZclPairingParse_17:
   \   0002F6   02....       LJMP      ??CrossCallReturnLabel_62 & 0xFFFF

   \                                 In  segment BANKED_CODE, align 1, keep-with-next
   \                     ?Subroutine49:
   \   000000   E5..         MOV       A,?V0
   \   000002                REQUIRE ??Subroutine61_0
   \   000002                ; // Fall through to label ??Subroutine61_0

   \                                 In  segment BANKED_CODE, align 1, keep-with-next
   \                     ??Subroutine61_0:
   \   000000   45..         ORL       A,?V1
   \   000002   45..         ORL       A,?V2
   \   000004   45..         ORL       A,?V3
   \   000006   22           RET

   \                                 In  segment BANKED_CODE, align 1, keep-with-next
   \                     ?Subroutine43:
   \   000000   FA           MOV       R2,A
   \   000001   E4           CLR       A
   \   000002   3F           ADDC      A,R7
   \   000003   FB           MOV       R3,A
   \   000004   8E82         MOV       DPL,R6
   \   000006   8F83         MOV       DPH,R7
   \   000008   78..         MOV       R0,#?V0
   \   00000A   22           RET

   \                                 In  segment BANKED_CODE, align 1, keep-with-next
   \                     ?Subroutine41:
   \   000000   EE           MOV       A,R6
   \   000001   2432         ADD       A,#0x32
   \   000003   F582         MOV       DPL,A
   \   000005   E4           CLR       A
   \   000006   3F           ADDC      A,R7
   \   000007   F583         MOV       DPH,A
   \   000009   74FF         MOV       A,#-0x1
   \   00000B   F0           MOVX      @DPTR,A
   \   00000C   A3           INC       DPTR
   \   00000D   F0           MOVX      @DPTR,A
   \   00000E   22           RET

   \                                 In  segment BANKED_CODE, align 1, keep-with-next
   \                     ?Subroutine13:
   \   000000   74FF         MOV       A,#-0x1
   \   000002   F0           MOVX      @DPTR,A
   \   000003   A3           INC       DPTR
   \   000004   F0           MOVX      @DPTR,A
   \   000005   A3           INC       DPTR
   \   000006   F0           MOVX      @DPTR,A
   \   000007   A3           INC       DPTR
   \   000008   F0           MOVX      @DPTR,A
   \   000009                ; Setup parameters for call to function gp_PopulateField
   \   000009                ; Setup parameters for call to function gp_PopulateField
   \   000009   7908         MOV       R1,#0x8
   \   00000B   22           RET
   1138          
   1139           /*********************************************************************
   1140           * @fn          gp_ZclProxyTableReqParse
   1141           *
   1142           * @brief       Parse the proxy table request data message payload
   1143           *
   1144           * @param       
   1145           *
   1146           * @return      
   1147           */

   \                                 In  segment BANKED_CODE, align 1, keep-with-next
   1148          static void gp_ZclProxyTableReqParse( zclGpProxyTableRequest_t* pCmd, gpProxyTableReqCmd_t* payload )
   \                     gp_ZclProxyTableReqParse:
   1149          {
   \   000000                REQUIRE ?V0
   \   000000                REQUIRE ?V1
   \   000000                REQUIRE ?V2
   \   000000                REQUIRE ?V3
   \   000000                REQUIRE ?V4
   \   000000                REQUIRE ?V5
   \   000000   74F2         MOV       A,#-0xe
   \   000002   12....       LCALL     ?BANKED_ENTER_XDATA
   \   000005                ; Saved register size: 14
   \   000005                ; Auto size: 0
   1150          
   1151            payload->options =  pCmd->options;
   \   000005   8A82         MOV       DPL,R2
   \   000007   8B83         MOV       DPH,R3
   \   000009   A3           INC       DPTR
   \   00000A   A3           INC       DPTR
   \   00000B   E0           MOVX      A,@DPTR
   \   00000C   F8           MOV       R0,A
   \   00000D   8C82         MOV       DPL,R4
   \   00000F   8D83         MOV       DPH,R5
   \   000011   F0           MOVX      @DPTR,A
   1152              
   1153            // If Request type bitfield is 0b00
   1154            if( GP_IS_REQ_TYP_GPD( payload->options ) )
   \   000012   13           RRC       A
   \   000013   13           RRC       A
   \   000014   13           RRC       A
   \   000015   541F         ANL       A,#0x1f
   \   000017   5403         ANL       A,#0x3
   \   000019   F9           MOV       R1,A
   \   00001A   EC           MOV       A,R4
   \   00001B   240E         ADD       A,#0xe
   \   00001D   F5..         MOV       ?V4,A
   \   00001F   E4           CLR       A
   \   000020   3D           ADDC      A,R5
   \   000021   F5..         MOV       ?V5,A
   \   000023   EC           MOV       A,R4
   \   000024   240D         ADD       A,#0xd
   \   000026   F5..         MOV       ?V2,A
   \   000028   E4           CLR       A
   \   000029   3D           ADDC      A,R5
   \   00002A   F5..         MOV       ?V3,A
   \   00002C   EC           MOV       A,R4
   \   00002D   2405         ADD       A,#0x5
   \   00002F   F5..         MOV       ?V0,A
   \   000031   E4           CLR       A
   \   000032   3D           ADDC      A,R5
   \   000033   F5..         MOV       ?V1,A
   \   000035   A3           INC       DPTR
   \   000036   EA           MOV       A,R2
   \   000037   2403         ADD       A,#0x3
   \   000039   FE           MOV       R6,A
   \   00003A   E4           CLR       A
   \   00003B   3B           ADDC      A,R3
   \   00003C   FF           MOV       R7,A
   \   00003D   E9           MOV       A,R1
   \   00003E   7056         JNZ       ??gp_ZclProxyTableReqParse_0
   1155            {  
   1156              // If Application Id bitfield is 0b000
   1157              if( GP_IS_APPLICATION_ID_GPD( payload->options ) )
   \   000040   7407         MOV       A,#0x7
   \   000042   58           ANL       A,R0
   \   000043   F8           MOV       R0,A
   \   000044   7025         JNZ       ??gp_ZclProxyTableReqParse_1
   1158              {        
   1159                // Populate GPD ID
   1160                gp_PopulateField( ( uint8* )&payload->gpdId, &pCmd->pData, sizeof( payload->gpdId ) );
   \   000046                ; Setup parameters for call to function gp_PopulateField
   \   000046   7904         MOV       R1,#0x4
   \   000048   EE           MOV       A,R6
   \   000049   FC           MOV       R4,A
   \   00004A   EF           MOV       A,R7
   \   00004B   FD           MOV       R5,A
   \   00004C   AA82         MOV       R2,DPL
   \   00004E   AB83         MOV       R3,DPH
   \   000050   12....       LCALL     `??gp_PopulateField::?relay`; Banked call to: gp_PopulateField
   1161              
   1162                // Populate GPD IEEE Invalid
   1163                osal_memset ( &payload->gpdIEEE, 0xFF, Z_EXTADDR_LEN );
   \   000053                ; Setup parameters for call to function osal_memset
   \   000053   7C08         MOV       R4,#0x8
   \   000055   7D00         MOV       R5,#0x0
   \   000057   79FF         MOV       R1,#-0x1
   \   000059   AA..         MOV       R2,?V0
   \   00005B   AB..         MOV       R3,?V1
   \   00005D   12....       LCALL     `??osal_memset::?relay`; Banked call to: osal_memset
   1164                // Populate EP Invalid
   1165                payload->ep = 0xFF;
   \   000060   85..82       MOV       DPL,?V2
   \   000063   85..83       MOV       DPH,?V3
   \   000066   74FF         MOV       A,#-0x1
   \   000068   F0           MOVX      @DPTR,A
   \   000069   8020         SJMP      ??gp_ZclProxyTableReqParse_2
   1166              }
   1167              // If Application Id bitfield is 0b010
   1168              else if( GP_IS_APPLICATION_ID_IEEE( payload->options ) )
   \                     ??gp_ZclProxyTableReqParse_1:
   \   00006B   7402         MOV       A,#0x2
   \   00006D   68           XRL       A,R0
   \   00006E   701B         JNZ       ??gp_ZclProxyTableReqParse_2
   1169              {
   1170                // Populate GPD ID Invalid
   1171                payload->gpdId = 0xFFFFFFFF;
   \   000070   12....       LCALL     ?Subroutine13 & 0xFFFF
   1172              
   1173                // Populate GPD IEEE
   1174                gp_PopulateField( ( uint8* )&payload->gpdIEEE, &pCmd->pData, Z_EXTADDR_LEN );
   \                     ??CrossCallReturnLabel_20:
   \   000073   EE           MOV       A,R6
   \   000074   FC           MOV       R4,A
   \   000075   EF           MOV       A,R7
   \   000076   FD           MOV       R5,A
   \   000077   AA..         MOV       R2,?V0
   \   000079   AB..         MOV       R3,?V1
   \   00007B   12....       LCALL     `??gp_PopulateField::?relay`; Banked call to: gp_PopulateField
   1175                // Populate EP
   1176                gp_PopulateField( ( uint8* )&payload->ep, &pCmd->pData, sizeof( payload->ep ) );
   \   00007E                ; Setup parameters for call to function gp_PopulateField
   \   00007E   7901         MOV       R1,#0x1
   \   000080   EE           MOV       A,R6
   \   000081   FC           MOV       R4,A
   \   000082   EF           MOV       A,R7
   \   000083   FD           MOV       R5,A
   \   000084   AA..         MOV       R2,?V2
   \   000086   AB..         MOV       R3,?V3
   \   000088   12....       LCALL     `??gp_PopulateField::?relay`; Banked call to: gp_PopulateField
   1177              }
   1178              // Populate Index Invalid
   1179              payload->index = 0xFF;
   \                     ??gp_ZclProxyTableReqParse_2:
   \   00008B   85..82       MOV       DPL,?V4
   \   00008E   85..83       MOV       DPH,?V5
   \   000091   74FF         MOV       A,#-0x1
   \   000093   F0           MOVX      @DPTR,A
   \   000094   802A         SJMP      ??gp_ZclProxyTableReqParse_3
   1180            }
   1181            // If Request type bitfield is 0b01
   1182            else if( GP_IS_REQ_TPY_INDEX( payload->options ) )
   \                     ??gp_ZclProxyTableReqParse_0:
   \   000096   7401         MOV       A,#0x1
   \   000098   69           XRL       A,R1
   \   000099   7025         JNZ       ??gp_ZclProxyTableReqParse_3
   1183            {
   1184              // Populate GPD ID Invalid
   1185              payload->gpdId = 0xFFFFFFFF;
   \   00009B   12....       LCALL     ?Subroutine14 & 0xFFFF
   1186              
   1187              // Populate GPD IEEE Invalid
   1188              osal_memset ( &payload->gpdIEEE, 0xFF, Z_EXTADDR_LEN );
   \                     ??CrossCallReturnLabel_100:
   \   00009E                ; Setup parameters for call to function osal_memset
   \   00009E   7C08         MOV       R4,#0x8
   \   0000A0   7D00         MOV       R5,#0x0
   \   0000A2   F9           MOV       R1,A
   \   0000A3   AA..         MOV       R2,?V0
   \   0000A5   AB..         MOV       R3,?V1
   \   0000A7   12....       LCALL     `??osal_memset::?relay`; Banked call to: osal_memset
   1189              
   1190              // Populate EP Invalid
   1191              payload->ep = 0xFF;
   \   0000AA   85..82       MOV       DPL,?V2
   \   0000AD   85..83       MOV       DPH,?V3
   \   0000B0   74FF         MOV       A,#-0x1
   \   0000B2   F0           MOVX      @DPTR,A
   1192              
   1193              // Populate index
   1194              gp_PopulateField( ( uint8* )&payload->index, &pCmd->pData, sizeof( payload->index ) );
   \   0000B3                ; Setup parameters for call to function gp_PopulateField
   \   0000B3   7901         MOV       R1,#0x1
   \   0000B5   EE           MOV       A,R6
   \   0000B6   FC           MOV       R4,A
   \   0000B7   EF           MOV       A,R7
   \   0000B8   FD           MOV       R5,A
   \   0000B9   AA..         MOV       R2,?V4
   \   0000BB   AB..         MOV       R3,?V5
   \   0000BD   12....       LCALL     `??gp_PopulateField::?relay`; Banked call to: gp_PopulateField
   1195            }
   1196          
   1197          }
   \                     ??gp_ZclProxyTableReqParse_3:
   \   0000C0   02....       LJMP      ??Subroutine69_0 & 0xFFFF

   \                                 In  segment BANKED_CODE, align 1, keep-with-next
   \                     ??Subroutine69_0:
   \   000000   7F06         MOV       R7,#0x6
   \   000002   02....       LJMP      ?BANKED_LEAVE_XDATA
   1198          
   1199           /*********************************************************************
   1200           * @fn          gp_PopulateField
   1201           *
   1202           * @brief       General function fill the proxy table vector item
   1203           *
   1204           * @param       
   1205           *
   1206           * @return      
   1207           */

   \                                 In  segment BANKED_CODE, align 1, keep-with-next
   1208          void gp_PopulateField( uint8* pField, uint8** pData, uint8 size )
   \                     gp_PopulateField:
   1209          {
   \   000000                REQUIRE ?V0
   \   000000                REQUIRE ?V1
   \   000000                REQUIRE ?V2
   \   000000                REQUIRE ?V3
   \   000000                REQUIRE ?V4
   \   000000                REQUIRE ?V5
   \   000000                REQUIRE ?V6
   \   000000                REQUIRE ?V7
   \   000000   74F0         MOV       A,#-0x10
   \   000002   12....       LCALL     ?BANKED_ENTER_XDATA
   \   000005                ; Saved register size: 16
   \   000005                ; Auto size: 1
   \   000005   74FF         MOV       A,#-0x1
   \   000007   12....       LCALL     ?ALLOC_XSTACK8
   \   00000A   E9           MOV       A,R1
   \   00000B   85..82       MOV       DPL,?XSP + 0
   \   00000E   85..83       MOV       DPH,?XSP + 1
   \   000011   F0           MOVX      @DPTR,A
   \   000012   EC           MOV       A,R4
   \   000013   FE           MOV       R6,A
   \   000014   ED           MOV       A,R5
   \   000015   FF           MOV       R7,A
   1210            switch ( size )
   \   000016   E0           MOVX      A,@DPTR
   \   000017   14           DEC       A
   \   000018   6018         JZ        ??gp_PopulateField_0
   \   00001A   14           DEC       A
   \   00001B   6026         JZ        ??gp_PopulateField_1
   \   00001D   24FE         ADD       A,#-0x2
   \   00001F   6056         JZ        ??gp_PopulateField_2
   \   000021   24FC         ADD       A,#-0x4
   \   000023   7003         JNZ       $+5
   \   000025   02....       LJMP      ??gp_PopulateField_3 & 0xFFFF
   \   000028   24F8         ADD       A,#-0x8
   \   00002A   7003         JNZ       $+5
   \   00002C   02....       LJMP      ??gp_PopulateField_4 & 0xFFFF
   \   00002F   02....       LJMP      ??gp_PopulateField_5 & 0xFFFF
   1211            {
   1212              case ( sizeof( uint8 ) ):
   1213                gp_u8CastPointer( pField, *pData );
   \                     ??gp_PopulateField_0:
   \   000032   8E82         MOV       DPL,R6
   \   000034   8F83         MOV       DPH,R7
   \   000036   12....       LCALL     ??Subroutine63_0 & 0xFFFF
   \                     ??CrossCallReturnLabel_133:
   \   000039   E0           MOVX      A,@DPTR
   \   00003A   F8           MOV       R0,A
   \   00003B   8A82         MOV       DPL,R2
   \   00003D   8B83         MOV       DPH,R3
   \   00003F   E0           MOVX      A,@DPTR
   \   000040   48           ORL       A,R0
   \   000041   8030         SJMP      ??gp_PopulateField_6
   1214                break;
   1215              case ( sizeof( uint16 ) ):
   1216                gp_u16CastPointer( pField, *pData );
   \                     ??gp_PopulateField_1:
   \   000043   8E82         MOV       DPL,R6
   \   000045   8F83         MOV       DPH,R7
   \   000047   12....       LCALL     ?Subroutine30 & 0xFFFF
   \                     ??CrossCallReturnLabel_43:
   \   00004A   E0           MOVX      A,@DPTR
   \   00004B   FC           MOV       R4,A
   \   00004C   8B83         MOV       DPH,R3
   \   00004E   8A82         MOV       DPL,R2
   \   000050   E0           MOVX      A,@DPTR
   \   000051   4C           ORL       A,R4
   \   000052   FC           MOV       R4,A
   \   000053   A3           INC       DPTR
   \   000054   E0           MOVX      A,@DPTR
   \   000055   FD           MOV       R5,A
   \   000056   8A82         MOV       DPL,R2
   \   000058   8B83         MOV       DPH,R3
   \   00005A   EC           MOV       A,R4
   \   00005B   F0           MOVX      @DPTR,A
   \   00005C   A3           INC       DPTR
   \   00005D   ED           MOV       A,R5
   \   00005E   F0           MOVX      @DPTR,A
   \   00005F   8882         MOV       DPL,R0
   \   000061   8983         MOV       DPH,R1
   \   000063   A3           INC       DPTR
   \   000064   E0           MOVX      A,@DPTR
   \   000065   F9           MOV       R1,A
   \   000066   EC           MOV       A,R4
   \   000067   F8           MOV       R0,A
   \   000068   ED           MOV       A,R5
   \   000069   49           ORL       A,R1
   \   00006A   F9           MOV       R1,A
   \   00006B   8A82         MOV       DPL,R2
   \   00006D   8B83         MOV       DPH,R3
   \   00006F   E8           MOV       A,R0
   \   000070   F0           MOVX      @DPTR,A
   \   000071   A3           INC       DPTR
   \   000072   E9           MOV       A,R1
   \                     ??gp_PopulateField_6:
   \   000073   F0           MOVX      @DPTR,A
   1217                break;
   \   000074   02....       LJMP      ??gp_PopulateField_5 & 0xFFFF
   1218              case ( sizeof( uint32 ) ):
   1219                gp_u32CastPointer( pField, *pData );
   \                     ??gp_PopulateField_2:
   \   000077   8E82         MOV       DPL,R6
   \   000079   8F83         MOV       DPH,R7
   \   00007B   12....       LCALL     ?Subroutine33 & 0xFFFF
   \                     ??CrossCallReturnLabel_49:
   \   00007E   8C82         MOV       DPL,R4
   \   000080   8D83         MOV       DPH,R5
   \   000082   78..         MOV       R0,#?V4
   \   000084   12....       LCALL     ?L_MOV_X
   \   000087   90....       MOV       DPTR,#__Constant_ff
   \   00008A   78..         MOV       R0,#?V4
   \   00008C   12....       LCALL     ?L_AND_X
   \   00008F   8B83         MOV       DPH,R3
   \   000091   8A82         MOV       DPL,R2
   \   000093   78..         MOV       R0,#?V4
   \   000095   12....       LCALL     ?L_IOR_X
   \   000098   8A82         MOV       DPL,R2
   \   00009A   8B83         MOV       DPH,R3
   \   00009C   78..         MOV       R0,#?V4
   \   00009E   12....       LCALL     ?L_MOV_TO_X
   \   0000A1   8C82         MOV       DPL,R4
   \   0000A3   8D83         MOV       DPH,R5
   \   0000A5   A3           INC       DPTR
   \   0000A6   78..         MOV       R0,#?V0
   \   0000A8   12....       LCALL     ?L_MOV_X
   \   0000AB   7408         MOV       A,#0x8
   \   0000AD   78..         MOV       R0,#?V0
   \   0000AF   12....       LCALL     ?L_SHL
   \   0000B2   90....       MOV       DPTR,#__Constant_ff00
   \   0000B5   78..         MOV       R0,#?V0
   \   0000B7   12....       LCALL     ?L_AND_X
   \   0000BA   78..         MOV       R0,#?V4
   \   0000BC   79..         MOV       R1,#?V0
   \   0000BE   12....       LCALL     ?L_IOR
   \   0000C1   8A82         MOV       DPL,R2
   \   0000C3   8B83         MOV       DPH,R3
   \   0000C5   78..         MOV       R0,#?V4
   \   0000C7   12....       LCALL     ?L_MOV_TO_X
   \   0000CA   8C82         MOV       DPL,R4
   \   0000CC   8D83         MOV       DPH,R5
   \   0000CE   A3           INC       DPTR
   \   0000CF   A3           INC       DPTR
   \   0000D0   78..         MOV       R0,#?V0
   \   0000D2   12....       LCALL     ?L_MOV_X
   \   0000D5   7410         MOV       A,#0x10
   \   0000D7   78..         MOV       R0,#?V0
   \   0000D9   12....       LCALL     ?L_SHL
   \   0000DC   90....       MOV       DPTR,#__Constant_ff0000
   \   0000DF   78..         MOV       R0,#?V0
   \   0000E1   12....       LCALL     ?L_AND_X
   \   0000E4   78..         MOV       R0,#?V4
   \   0000E6   79..         MOV       R1,#?V0
   \   0000E8   12....       LCALL     ?L_IOR
   \   0000EB   8A82         MOV       DPL,R2
   \   0000ED   8B83         MOV       DPH,R3
   \   0000EF   78..         MOV       R0,#?V4
   \   0000F1   12....       LCALL     ?L_MOV_TO_X
   \   0000F4   8C82         MOV       DPL,R4
   \   0000F6   8D83         MOV       DPH,R5
   \   0000F8   A3           INC       DPTR
   \   0000F9   A3           INC       DPTR
   \   0000FA   A3           INC       DPTR
   \   0000FB   78..         MOV       R0,#?V0
   \   0000FD   12....       LCALL     ?L_MOV_X
   \   000100   7418         MOV       A,#0x18
   \   000102   78..         MOV       R0,#?V0
   \   000104   12....       LCALL     ?L_SHL
   \   000107   78..         MOV       R0,#?V4
   \   000109   79..         MOV       R1,#?V0
   \   00010B   12....       LCALL     ?L_IOR
   \   00010E   8A82         MOV       DPL,R2
   \   000110   8B83         MOV       DPH,R3
   \   000112   78..         MOV       R0,#?V4
   \   000114   12....       LCALL     ?L_MOV_TO_X
   1220                break;
   \   000117   801C         SJMP      ??gp_PopulateField_5
   1221              case ( Z_EXTADDR_LEN ):
   1222                osal_memcpy( pField, *pData, Z_EXTADDR_LEN );
   \                     ??gp_PopulateField_3:
   \   000119                ; Setup parameters for call to function osal_memcpy
   \   000119   12....       LCALL     ?Subroutine26 & 0xFFFF
   \                     ??CrossCallReturnLabel_126:
   \   00011C   12....       LCALL     ?PUSH_XSTACK_I_THREE
   \   00011F   7C08         MOV       R4,#0x8
   \   000121   8008         SJMP      ??gp_PopulateField_7
   1223                break;
   1224              case ( SEC_KEY_LEN ):
   1225                osal_memcpy( pField, *pData, SEC_KEY_LEN );
   \                     ??gp_PopulateField_4:
   \   000123                ; Setup parameters for call to function osal_memcpy
   \   000123   12....       LCALL     ?Subroutine26 & 0xFFFF
   \                     ??CrossCallReturnLabel_127:
   \   000126   12....       LCALL     ?PUSH_XSTACK_I_THREE
   \   000129   7C10         MOV       R4,#0x10
   \                     ??gp_PopulateField_7:
   \   00012B   7D00         MOV       R5,#0x0
   \   00012D   12....       LCALL     `??osal_memcpy::?relay`; Banked call to: osal_memcpy
   \   000130   7403         MOV       A,#0x3
   \   000132   12....       LCALL     ?DEALLOC_XSTACK8
   1226                break;
   1227            }
   1228            *pData += size;
   \                     ??gp_PopulateField_5:
   \   000135   85..82       MOV       DPL,?XSP + 0
   \   000138   85..83       MOV       DPH,?XSP + 1
   \   00013B   E0           MOVX      A,@DPTR
   \   00013C   F8           MOV       R0,A
   \   00013D   8E82         MOV       DPL,R6
   \   00013F   8F83         MOV       DPH,R7
   \   000141   E0           MOVX      A,@DPTR
   \   000142   28           ADD       A,R0
   \   000143   F8           MOV       R0,A
   \   000144   A3           INC       DPTR
   \   000145   E0           MOVX      A,@DPTR
   \   000146   3400         ADDC      A,#0x0
   \   000148   F9           MOV       R1,A
   \   000149   8E82         MOV       DPL,R6
   \   00014B   8F83         MOV       DPH,R7
   \   00014D   12....       LCALL     ??Subroutine65_0 & 0xFFFF
   1229          }
   \                     ??CrossCallReturnLabel_142:
   \   000150   7401         MOV       A,#0x1
   \   000152                REQUIRE ?Subroutine1
   \   000152                ; // Fall through to label ?Subroutine1

   \                                 In  segment BANKED_CODE, align 1, keep-with-next
   \                     ?Subroutine26:
   \   000000   8E82         MOV       DPL,R6
   \   000002   8F83         MOV       DPH,R7
   \   000004   E0           MOVX      A,@DPTR
   \   000005                REQUIRE ??Subroutine62_0
   \   000005                ; // Fall through to label ??Subroutine62_0

   \                                 In  segment BANKED_CODE, align 1, keep-with-next
   \                     ?Subroutine30:
   \   000000   E0           MOVX      A,@DPTR
   \   000001   F8           MOV       R0,A
   \   000002   A3           INC       DPTR
   \   000003   E0           MOVX      A,@DPTR
   \   000004   F9           MOV       R1,A
   \   000005   8882         MOV       DPL,R0
   \   000007   8983         MOV       DPH,R1
   \   000009   22           RET

   \                                 In  segment BANKED_CODE, align 1, keep-with-next
   \                     ?Subroutine33:
   \   000000   E0           MOVX      A,@DPTR
   \   000001   FC           MOV       R4,A
   \   000002   A3           INC       DPTR
   \   000003   E0           MOVX      A,@DPTR
   \   000004   FD           MOV       R5,A
   \   000005   22           RET
   1230          
   1231           /*********************************************************************
   1232           * @fn          gp_ProxyTblInit
   1233           *
   1234           * @brief       General function to init the NV items for proxy table
   1235           *
   1236           * @param       
   1237           *
   1238           * @return      
   1239           */
   1240          

   \                                 In  segment BANKED_CODE, align 1, keep-with-next
   1241          uint8 gp_ProxyTblInit( uint8 resetTable )
   \                     gp_ProxyTblInit:
   1242          {
   \   000000                REQUIRE ?V0
   \   000000                REQUIRE ?V1
   \   000000                REQUIRE ?V2
   \   000000                REQUIRE ?V3
   \   000000   74F4         MOV       A,#-0xc
   \   000002   12....       LCALL     ?BANKED_ENTER_XDATA
   \   000005                ; Saved register size: 12
   \   000005                ; Auto size: 65
   \   000005   74BF         MOV       A,#-0x41
   \   000007   12....       LCALL     ?ALLOC_XSTACK8
   \   00000A   89..         MOV       ?V1,R1
   1243            uint8 i;
   1244            uint8 status;
   1245            uint8 emptyEntry[PROXY_TBL_ENTRY_LEN];
   1246            
   1247            gp_ResetProxyBasicTblEntry( emptyEntry );
   \   00000C                ; Setup parameters for call to function gp_ResetProxyBasicTblEntry
   \   00000C   AA..         MOV       R2,?XSP + 0
   \   00000E   AB..         MOV       R3,?XSP + 1
   \   000010   12....       LCALL     `??gp_ResetProxyBasicTblEntry::?relay`; Banked call to: gp_ResetProxyBasicTblEntry
   1248            
   1249            for ( i = 0; i <= GPP_MAX_PROXY_TABLE_ENTRIES ; i++ )
   \   000013   75..00       MOV       ?V0,#0x0
   1250            {
   1251              status = osal_nv_item_init( ( ZCD_NV_PROXY_TABLE_START + i ),
   1252                                                 PROXY_TBL_ENTRY_LEN, &emptyEntry );
   \                     ??gp_ProxyTblInit_0:
   \   000016   E5..         MOV       A,?V0
   \   000018   2410         ADD       A,#0x10
   \   00001A   FE           MOV       R6,A
   \   00001B   E4           CLR       A
   \   00001C   3403         ADDC      A,#0x3
   \   00001E   FF           MOV       R7,A
   \   00001F                ; Setup parameters for call to function osal_nv_item_init
   \   00001F   A8..         MOV       R0,?XSP + 0
   \   000021   A9..         MOV       R1,?XSP + 1
   \   000023   88..         MOV       ?V2,R0
   \   000025   89..         MOV       ?V3,R1
   \   000027   78..         MOV       R0,#?V2
   \   000029   12....       LCALL     ?PUSH_XSTACK_I_TWO
   \   00002C   7C41         MOV       R4,#0x41
   \   00002E   7D00         MOV       R5,#0x0
   \   000030   EE           MOV       A,R6
   \   000031   FA           MOV       R2,A
   \   000032   EF           MOV       A,R7
   \   000033   FB           MOV       R3,A
   \   000034   12....       LCALL     `??osal_nv_item_init::?relay`; Banked call to: osal_nv_item_init
   \   000037   7402         MOV       A,#0x2
   \   000039   12....       LCALL     ?DEALLOC_XSTACK8
   \   00003C   E9           MOV       A,R1
   \   00003D   F9           MOV       R1,A
   1253              
   1254              if ( ( status != SUCCESS ) && ( status != NV_ITEM_UNINIT ) )
   \   00003E   6007         JZ        ??gp_ProxyTblInit_1
   \   000040   7409         MOV       A,#0x9
   \   000042   69           XRL       A,R1
   \   000043   7033         JNZ       ??gp_ProxyTblInit_2
   \   000045   8028         SJMP      ??gp_ProxyTblInit_3
   \                     ??gp_ProxyTblInit_1:
   \   000047   7401         MOV       A,#0x1
   \   000049   65..         XRL       A,?V1
   \   00004B   7022         JNZ       ??gp_ProxyTblInit_3
   1255              {
   1256                return status;
   1257              }
   1258              if ( ( status == SUCCESS ) && ( resetTable == TRUE ) )
   1259              {
   1260                status = osal_nv_write( ( ZCD_NV_PROXY_TABLE_START + i ), 0,
   1261                                              PROXY_TBL_ENTRY_LEN, &emptyEntry );
   \   00004D                ; Setup parameters for call to function osal_nv_write
   \   00004D   78..         MOV       R0,#?V2
   \   00004F   12....       LCALL     ?PUSH_XSTACK_I_TWO
   \   000052   75..41       MOV       ?V2,#0x41
   \   000055   75..00       MOV       ?V3,#0x0
   \   000058   78..         MOV       R0,#?V2
   \   00005A   12....       LCALL     ?PUSH_XSTACK_I_TWO
   \   00005D   7C00         MOV       R4,#0x0
   \   00005F   7D00         MOV       R5,#0x0
   \   000061   EE           MOV       A,R6
   \   000062   FA           MOV       R2,A
   \   000063   EF           MOV       A,R7
   \   000064   FB           MOV       R3,A
   \   000065   12....       LCALL     `??osal_nv_write::?relay`; Banked call to: osal_nv_write
   \   000068   7404         MOV       A,#0x4
   \   00006A   12....       LCALL     ?DEALLOC_XSTACK8
   \   00006D   E9           MOV       A,R1
   \   00006E   F9           MOV       R1,A
   1262              }
   1263            }
   \                     ??gp_ProxyTblInit_3:
   \   00006F   05..         INC       ?V0
   \   000071   E5..         MOV       A,?V0
   \   000073   C3           CLR       C
   \   000074   9406         SUBB      A,#0x6
   \   000076   409E         JC        ??gp_ProxyTblInit_0
   1264            return status;
   \                     ??gp_ProxyTblInit_2:
   \   000078   7441         MOV       A,#0x41
   \   00007A   12....       LCALL     ?DEALLOC_XSTACK8
   \   00007D                REQUIRE ?Subroutine4
   \   00007D                ; // Fall through to label ?Subroutine4
   1265          }

   \                                 In  segment BANKED_CODE, align 1, keep-with-next
   \                     ?Subroutine4:
   \   000000   7F04         MOV       R7,#0x4
   \   000002   02....       LJMP      ?BANKED_LEAVE_XDATA
   1266          
   1267          
   1268           /*********************************************************************
   1269           * @fn          gp_getProxyTableByGpId
   1270           *
   1271           * @brief       General function to get proxy table entry by gpd_ID (GP Src ID or Extended Adddress)
   1272           *
   1273           * @param       gpd_ID  - address to look for in the table
   1274           *              pEntry  - buffer in which the entry of the table will be copied
   1275           *
   1276           * @return      
   1277           */
   1278          

   \                                 In  segment BANKED_CODE, align 1, keep-with-next
   1279          uint8 gp_getProxyTableByGpId(gpd_ID_t *gpd_ID, uint8 *pEntry,uint16 *NvProxyTableIndex)
   \                     gp_getProxyTableByGpId:
   1280          {
   \   000000                REQUIRE ?V0
   \   000000                REQUIRE ?V1
   \   000000                REQUIRE ?V2
   \   000000                REQUIRE ?V4
   \   000000                REQUIRE ?V5
   \   000000                REQUIRE ?V6
   \   000000   74F1         MOV       A,#-0xf
   \   000002   12....       LCALL     ?BANKED_ENTER_XDATA
   \   000005                ; Saved register size: 15
   \   000005                ; Auto size: 4
   \   000005   74FC         MOV       A,#-0x4
   \   000007   12....       LCALL     ?ALLOC_XSTACK8
   \   00000A   7402         MOV       A,#0x2
   \   00000C   12....       LCALL     ?XSTACK_DISP0_8
   \   00000F   EA           MOV       A,R2
   \   000010   F0           MOVX      @DPTR,A
   \   000011   A3           INC       DPTR
   \   000012   EB           MOV       A,R3
   \   000013   12....       LCALL     ?Subroutine10 & 0xFFFF
   \                     ??CrossCallReturnLabel_14:
   \   000016   EC           MOV       A,R4
   \   000017   F0           MOVX      @DPTR,A
   \   000018   A3           INC       DPTR
   \   000019   ED           MOV       A,R5
   \   00001A   12....       LCALL     ?Subroutine7 & 0xFFFF
   1281            uint8 i;
   1282            uint8 status;
   1283          
   1284            if((pEntry == NULL) ||  (gpd_ID == NULL))
   \                     ??CrossCallReturnLabel_5:
   \   00001D   7003         JNZ       $+5
   \   00001F   02....       LJMP      ??gp_getProxyTableByGpId_0 & 0xFFFF
   \   000022   7402         MOV       A,#0x2
   \   000024   12....       LCALL     ?XSTACK_DISP0_8
   \   000027   12....       LCALL     ??Subroutine70_0 & 0xFFFF
   \                     ??CrossCallReturnLabel_173:
   \   00002A   7003         JNZ       $+5
   \   00002C   02....       LJMP      ??gp_getProxyTableByGpId_0 & 0xFFFF
   1285            {
   1286              return ZInvalidParameter;
   1287            }     
   1288            
   1289          
   1290            for ( i = 0; i <= GPP_MAX_PROXY_TABLE_ENTRIES ; i++ )
   \   00002F   7E00         MOV       R6,#0x0
   \   000031   7402         MOV       A,#0x2
   \   000033   12....       LCALL     ?XSTACK_DISP0_8
   \   000036   E0           MOVX      A,@DPTR
   \   000037   2401         ADD       A,#0x1
   \   000039   12....       LCALL     ?Subroutine32 & 0xFFFF
   \                     ??CrossCallReturnLabel_48:
   \   00003C   8E..         MOV       ?V2,R6
   1291            {
   1292              status = gp_getProxyTableByIndex( ( ZCD_NV_PROXY_TABLE_START + i ), pEntry );
   \                     ??gp_getProxyTableByGpId_1:
   \   00003E                ; Setup parameters for call to function gp_getProxyTableByIndex
   \   00003E   85..82       MOV       DPL,?XSP + 0
   \   000041   85..83       MOV       DPH,?XSP + 1
   \   000044   12....       LCALL     ?Subroutine33 & 0xFFFF
   \                     ??CrossCallReturnLabel_50:
   \   000047   12....       LCALL     ?Subroutine48 & 0xFFFF
   \                     ??CrossCallReturnLabel_121:
   \   00004A   12....       LCALL     `??gp_getProxyTableByIndex::?relay`; Banked call to: gp_getProxyTableByIndex
   \   00004D   E9           MOV       A,R1
   \   00004E   F8           MOV       R0,A
   1293          
   1294              if ( status == NV_OPER_FAILED )
   \   00004F   740A         MOV       A,#0xa
   \   000051   68           XRL       A,R0
   \   000052   7005         JNZ       ??gp_getProxyTableByGpId_2
   1295              {
   1296                // FAIL
   1297                return ZFailure;
   \   000054   7901         MOV       R1,#0x1
   \   000056   02....       LJMP      ??gp_getProxyTableByGpId_3 & 0xFFFF
   1298              }
   1299              
   1300              // if the entry is empty
   1301              if ( status == NV_INVALID_DATA )
   \                     ??gp_getProxyTableByGpId_2:
   \   000059   740D         MOV       A,#0xd
   \   00005B   68           XRL       A,R0
   \   00005C   606E         JZ        ??gp_getProxyTableByGpId_4
   1302              {
   1303                continue;
   1304              }
   1305          
   1306              //Check that App ID is the same
   1307          
   1308              if ( PROXY_TBL_COMP_APPLICTION_ID( gpd_ID->AppID, pEntry[PROXY_TBL_ENTRY_OPT] ) )
   \   00005E   7402         MOV       A,#0x2
   \   000060   12....       LCALL     ?XSTACK_DISP0_8
   \   000063   12....       LCALL     ??Subroutine63_0 & 0xFFFF
   \                     ??CrossCallReturnLabel_134:
   \   000066   E0           MOVX      A,@DPTR
   \   000067   F8           MOV       R0,A
   \   000068   7407         MOV       A,#0x7
   \   00006A   58           ANL       A,R0
   \   00006B   F9           MOV       R1,A
   \   00006C   85..82       MOV       DPL,?XSP + 0
   \   00006F   85..83       MOV       DPH,?XSP + 1
   \   000072   12....       LCALL     ?Subroutine34 & 0xFFFF
   \                     ??CrossCallReturnLabel_103:
   \   000075   5407         ANL       A,#0x7
   \   000077   69           XRL       A,R1
   \   000078   7052         JNZ       ??gp_getProxyTableByGpId_4
   1309              {
   1310                if ( gpd_ID->AppID == GP_OPT_APP_ID_GPD )
   \   00007A   E8           MOV       A,R0
   \   00007B   7026         JNZ       ??gp_getProxyTableByGpId_5
   1311                {
   1312                  if ( osal_memcmp( &gpd_ID->GPDId.SrcID, &pEntry[PROXY_TBL_ENTRY_GPD_ID + 4], sizeof ( uint32 ) ) )
   \   00007D                ; Setup parameters for call to function osal_memcmp
   \   00007D   85..82       MOV       DPL,?XSP + 0
   \   000080   85..83       MOV       DPH,?XSP + 1
   \   000083   E0           MOVX      A,@DPTR
   \   000084   2406         ADD       A,#0x6
   \   000086   12....       LCALL     ?Subroutine29 & 0xFFFF
   1313                  {
   1314                    // Entry found
   1315                    break;
   1316                  }
   1317                }
   \                     ??CrossCallReturnLabel_41:
   \   000089   12....       LCALL     ?PUSH_XSTACK_I_THREE
   \   00008C   7C04         MOV       R4,#0x4
   \   00008E   7D00         MOV       R5,#0x0
   \   000090   A9..         MOV       R1,?V0
   \   000092   AA..         MOV       R2,?V1
   \   000094   AB..         MOV       R3,?V2
   \   000096   12....       LCALL     `??osal_memcmp::?relay`; Banked call to: osal_memcmp
   \   000099   7403         MOV       A,#0x3
   \   00009B   12....       LCALL     ?DEALLOC_XSTACK8
   \   00009E   E9           MOV       A,R1
   \   00009F   7035         JNZ       ??gp_getProxyTableByGpId_6
   \   0000A1   8029         SJMP      ??gp_getProxyTableByGpId_4
   1318          
   1319                else if ( gpd_ID->AppID == GP_OPT_APP_ID_IEEE )
   \                     ??gp_getProxyTableByGpId_5:
   \   0000A3   7402         MOV       A,#0x2
   \   0000A5   68           XRL       A,R0
   \   0000A6   7024         JNZ       ??gp_getProxyTableByGpId_4
   1320                {
   1321                  if ( osal_memcmp( &gpd_ID->GPDId.GPDExtAddr, &pEntry[PROXY_TBL_ENTRY_GPD_ID], Z_EXTADDR_LEN ) )
   \   0000A8                ; Setup parameters for call to function osal_memcmp
   \   0000A8   85..82       MOV       DPL,?XSP + 0
   \   0000AB   85..83       MOV       DPH,?XSP + 1
   \   0000AE   E0           MOVX      A,@DPTR
   \   0000AF   2402         ADD       A,#0x2
   \   0000B1   12....       LCALL     ?Subroutine29 & 0xFFFF
   1322                  {
   1323                    // Entry found
   1324                    break;
   1325                  }
   1326                }
   1327              }
   1328              else
   1329              {
   1330                continue;
   1331              }
   1332            }
   \                     ??CrossCallReturnLabel_42:
   \   0000B4   12....       LCALL     ?PUSH_XSTACK_I_THREE
   \   0000B7   7C08         MOV       R4,#0x8
   \   0000B9   7D00         MOV       R5,#0x0
   \   0000BB   A9..         MOV       R1,?V0
   \   0000BD   AA..         MOV       R2,?V1
   \   0000BF   AB..         MOV       R3,?V2
   \   0000C1   12....       LCALL     `??osal_memcmp::?relay`; Banked call to: osal_memcmp
   \   0000C4   7403         MOV       A,#0x3
   \   0000C6   12....       LCALL     ?DEALLOC_XSTACK8
   \   0000C9   E9           MOV       A,R1
   \   0000CA   700A         JNZ       ??gp_getProxyTableByGpId_6
   \                     ??gp_getProxyTableByGpId_4:
   \   0000CC   0E           INC       R6
   \   0000CD   EE           MOV       A,R6
   \   0000CE   C3           CLR       C
   \   0000CF   9406         SUBB      A,#0x6
   \   0000D1   5003         JNC       $+5
   \   0000D3   02....       LJMP      ??gp_getProxyTableByGpId_1 & 0xFFFF
   1333          
   1334            if(i <= GPP_MAX_PROXY_TABLE_ENTRIES)
   \                     ??gp_getProxyTableByGpId_6:
   \   0000D6   EE           MOV       A,R6
   \   0000D7   C3           CLR       C
   \   0000D8   9406         SUBB      A,#0x6
   \   0000DA   501D         JNC       ??gp_getProxyTableByGpId_0
   \   0000DC   7413         MOV       A,#0x13
   \   0000DE   12....       LCALL     ?XSTACK_DISP0_8
   \   0000E1   12....       LCALL     ?Subroutine30 & 0xFFFF
   1335            {
   1336              if(NvProxyTableIndex != NULL)
   \                     ??CrossCallReturnLabel_44:
   \   0000E4   E582         MOV       A,DPL
   \   0000E6   4583         ORL       A,DPH
   \   0000E8   600B         JZ        ??CrossCallReturnLabel_143
   1337              {
   1338                *NvProxyTableIndex = ZCD_NV_PROXY_TABLE_START + i;
   \   0000EA   EE           MOV       A,R6
   \   0000EB   2410         ADD       A,#0x10
   \   0000ED   F8           MOV       R0,A
   \   0000EE   E4           CLR       A
   \   0000EF   3403         ADDC      A,#0x3
   \   0000F1   F9           MOV       R1,A
   \   0000F2   12....       LCALL     ??Subroutine65_0 & 0xFFFF
   1339              }
   1340              return ZSuccess;
   \                     ??CrossCallReturnLabel_143:
   \   0000F5   7900         MOV       R1,#0x0
   \   0000F7   8002         SJMP      ??gp_getProxyTableByGpId_3
   1341            }
   1342              
   1343            return ZInvalidParameter;
   \                     ??gp_getProxyTableByGpId_0:
   \   0000F9   7902         MOV       R1,#0x2
   \                     ??gp_getProxyTableByGpId_3:
   \   0000FB   7404         MOV       A,#0x4
   \   0000FD   02....       LJMP      ?Subroutine2 & 0xFFFF
   1344          }

   \                                 In  segment BANKED_CODE, align 1, keep-with-next
   \                     ?Subroutine29:
   \   000000   F5..         MOV       ?V4,A
   \   000002   A3           INC       DPTR
   \   000003   E0           MOVX      A,@DPTR
   \   000004   3400         ADDC      A,#0x0
   \   000006   F5..         MOV       ?V5,A
   \   000008   75..00       MOV       ?V6,#0x0
   \   00000B   78..         MOV       R0,#?V4
   \   00000D   22           RET

   \                                 In  segment BANKED_CODE, align 1, keep-with-next
   \                     ?Subroutine7:
   \   000000   12....       LCALL     ?Subroutine50 & 0xFFFF
   \                     ??CrossCallReturnLabel_87:
   \   000003   F9           MOV       R1,A
   \   000004   E8           MOV       A,R0
   \   000005   49           ORL       A,R1
   \   000006   22           RET
   1345          
   1346           /*********************************************************************
   1347           * @fn          gp_SecurityOperationProxy
   1348           *
   1349           * @brief       Performs Security Operations according to Proxy
   1350           *
   1351           * @param       ind - pointer to gp data indication
   1352           * @param       pFrameCounter 
   1353           * @param       pKeyType 
   1354           * @param       pkey Key to be used to decript the packet (if applies)
   1355           *
   1356           * @return      GP_SEC_RSP status
   1357           */

   \                                 In  segment BANKED_CODE, align 1, keep-with-next
   \                     ?Subroutine25:
   \   000000   85..82       MOV       DPL,?XSP + 0
   \   000003   85..83       MOV       DPH,?XSP + 1
   \   000006                REQUIRE ??Subroutine63_0
   \   000006                ; // Fall through to label ??Subroutine63_0

   \                                 In  segment BANKED_CODE, align 1, keep-with-next
   1358          uint8 gp_SecurityOperationProxy( gp_DataInd_t* pInd, uint8* pKeyType, uint8* pKey)
   \                     gp_SecurityOperationProxy:
   1359          {
   \   000000                REQUIRE ?V0
   \   000000                REQUIRE ?V1
   \   000000                REQUIRE ?V2
   \   000000                REQUIRE ?V3
   \   000000                REQUIRE ?V4
   \   000000                REQUIRE ?V5
   \   000000                REQUIRE ?V6
   \   000000                REQUIRE ?V7
   \   000000   74F0         MOV       A,#-0x10
   \   000002   12....       LCALL     ?BANKED_ENTER_XDATA
   \   000005                ; Saved register size: 16
   \   000005                ; Auto size: 78
   \   000005   74B2         MOV       A,#-0x4e
   \   000007   12....       LCALL     ?ALLOC_XSTACK8
   \   00000A   85..82       MOV       DPL,?XSP + 0
   \   00000D   85..83       MOV       DPH,?XSP + 1
   \   000010   12....       LCALL     ?Subroutine18 & 0xFFFF
   1360            uint8    currEntry[PROXY_TBL_ENTRY_LEN] = PROXY_BASIC_TBL_EMPTY_ENTRY;
   \                     ??CrossCallReturnLabel_29:
   \   000013   90....       MOV       DPTR,#`?<Constant {255, 255, 255, 255, 255, 255, 255,_3`
   \   000016   740D         MOV       A,#0xd
   \   000018   12....       LCALL     ?XSTACK_DISP102_8
   \   00001B   7441         MOV       A,#0x41
   \   00001D   12....       LCALL     ?MOVE_LONG8_XDATA_XDATA
   1361            uint8    status;
   1362            uint32   SecFrameCounter = 0;
   1363            uint8    securityCheckFail = FALSE;
   1364            uint8    endpointCheckFail = FALSE;
   1365            uint16   NvProxyTableIndex = 0;
   \   000020   7402         MOV       A,#0x2
   \   000022   12....       LCALL     ?XSTACK_DISP0_8
   \   000025   E4           CLR       A
   \   000026   F0           MOVX      @DPTR,A
   \   000027   A3           INC       DPTR
   \   000028   12....       LCALL     ?Subroutine7 & 0xFFFF
   1366            gpd_ID_t gpd_ID;
   1367            
   1368            
   1369            if((pKeyType == NULL) || (pKey == NULL) || (pInd == NULL))
   \                     ??CrossCallReturnLabel_6:
   \   00002B   600E         JZ        ??gp_SecurityOperationProxy_0
   \   00002D   745E         MOV       A,#0x5e
   \   00002F   12....       LCALL     ?XSTACK_DISP0_8
   \   000032   12....       LCALL     ??Subroutine70_0 & 0xFFFF
   \                     ??CrossCallReturnLabel_174:
   \   000035   6004         JZ        ??gp_SecurityOperationProxy_0
   \   000037   EE           MOV       A,R6
   \   000038   4F           ORL       A,R7
   \   000039   7005         JNZ       ??gp_SecurityOperationProxy_1
   1370            {
   1371              return GP_SEC_RSP_ERROR;
   \                     ??gp_SecurityOperationProxy_0:
   \   00003B   7904         MOV       R1,#0x4
   \   00003D   02....       LJMP      ??gp_SecurityOperationProxy_2 & 0xFFFF
   1372            }
   1373            *pKeyType = 0;
   \                     ??gp_SecurityOperationProxy_1:
   \   000040   12....       LCALL     ?Subroutine25 & 0xFFFF
   \                     ??CrossCallReturnLabel_136:
   \   000043   E4           CLR       A
   \   000044   F0           MOVX      @DPTR,A
   1374            osal_memset(pKey,0,SEC_KEY_LEN);
   \   000045                ; Setup parameters for call to function osal_memset
   \   000045   7C10         MOV       R4,#0x10
   \   000047   FD           MOV       R5,A
   \   000048   F9           MOV       R1,A
   \   000049   745E         MOV       A,#0x5e
   \   00004B   12....       LCALL     ?XSTACK_DISP0_8
   \   00004E   12....       LCALL     ??Subroutine68_0 & 0xFFFF
   \                     ??CrossCallReturnLabel_166:
   \   000051   12....       LCALL     `??osal_memset::?relay`; Banked call to: osal_memset
   1375            
   1376            gpd_ID.AppID = pInd->appID;
   \   000054   12....       LCALL     ?Subroutine39 & 0xFFFF
   \                     ??CrossCallReturnLabel_154:
   \   000057   C0E0         PUSH      A
   \   000059   7404         MOV       A,#0x4
   \   00005B   12....       LCALL     ?XSTACK_DISP0_8
   \   00005E   D0E0         POP       A
   \   000060   F0           MOVX      @DPTR,A
   1377            
   1378            if(gpd_ID.AppID == GP_APP_ID_DEFAULT)
   \   000061   7010         JNZ       ??gp_SecurityOperationProxy_3
   1379            {
   1380              gpd_ID.GPDId.SrcID = pInd->SrcId;
   \   000063   12....       LCALL     ?Subroutine38 & 0xFFFF
   1381            }
   \                     ??CrossCallReturnLabel_58:
   \   000066   12....       LCALL     ?XLOAD_R0123
   \   000069   7405         MOV       A,#0x5
   \   00006B   12....       LCALL     ?XSTACK_DISP0_8
   \   00006E   12....       LCALL     ?XSTORE_R0123
   \   000071   801A         SJMP      ??gp_SecurityOperationProxy_4
   1382            else
   1383            {
   1384              osal_memcpy(gpd_ID.GPDId.GPDExtAddr,pInd->srcAddr.addr.extAddr,Z_EXTADDR_LEN);
   \                     ??gp_SecurityOperationProxy_3:
   \   000073                ; Setup parameters for call to function osal_memcpy
   \   000073   12....       LCALL     ?Subroutine37 & 0xFFFF
   1385            }
   \                     ??CrossCallReturnLabel_157:
   \   000076   12....       LCALL     ?PUSH_XSTACK_I_THREE
   \   000079   7C08         MOV       R4,#0x8
   \   00007B   7D00         MOV       R5,#0x0
   \   00007D   EC           MOV       A,R4
   \   00007E   12....       LCALL     ?XSTACK_DISP0_8
   \   000081   AA82         MOV       R2,DPL
   \   000083   AB83         MOV       R3,DPH
   \   000085   12....       LCALL     `??osal_memcpy::?relay`; Banked call to: osal_memcpy
   \   000088   7403         MOV       A,#0x3
   \   00008A   12....       LCALL     ?DEALLOC_XSTACK8
   1386            
   1387            status = gp_getProxyTableByGpId(&gpd_ID,currEntry,&NvProxyTableIndex);
   \                     ??gp_SecurityOperationProxy_4:
   \   00008D                ; Setup parameters for call to function gp_getProxyTableByGpId
   \   00008D   7402         MOV       A,#0x2
   \   00008F   12....       LCALL     ?XSTACK_DISP100_8
   \   000092   88..         MOV       ?V0,R0
   \   000094   89..         MOV       ?V1,R1
   \   000096   78..         MOV       R0,#?V0
   \   000098   12....       LCALL     ?PUSH_XSTACK_I_TWO
   \   00009B   740F         MOV       A,#0xf
   \   00009D   12....       LCALL     ?XSTACK_DISP102_8
   \   0000A0   7406         MOV       A,#0x6
   \   0000A2   12....       LCALL     ?XSTACK_DISP101_8
   \   0000A5   12....       LCALL     `??gp_getProxyTableByGpId::?relay`; Banked call to: gp_getProxyTableByGpId
   \   0000A8   7402         MOV       A,#0x2
   \   0000AA   12....       LCALL     ?DEALLOC_XSTACK8
   \   0000AD   E9           MOV       A,R1
   \   0000AE   F8           MOV       R0,A
   1388            
   1389            //Not found
   1390            if(status == ZInvalidParameter)
   \   0000AF   EE           MOV       A,R6
   \   0000B0   241E         ADD       A,#0x1e
   \   0000B2   F5..         MOV       ?V4,A
   \   0000B4   E4           CLR       A
   \   0000B5   3F           ADDC      A,R7
   \   0000B6   F5..         MOV       ?V5,A
   \   0000B8   7402         MOV       A,#0x2
   \   0000BA   68           XRL       A,R0
   \   0000BB   7053         JNZ       ??gp_SecurityOperationProxy_5
   1391            {
   1392              //Section A.3.5.2.1 if in commissioning mode and GPDF from proxy that do not 
   1393              //have entry, then drop frame
   1394              if(zgGP_InCommissioningMode == FALSE)
   \   0000BD   90....       MOV       DPTR,#zgGP_InCommissioningMode
   \   0000C0   E0           MOVX      A,@DPTR
   \   0000C1   7003         JNZ       $+5
   \   0000C3   02....       LJMP      ??gp_SecurityOperationProxy_6 & 0xFFFF
   1395              {
   1396                return GP_SEC_RSP_DROP_FRAME;
   1397              }
   1398              if(pInd->GPDFKeyType == 0)
   \   0000C6   85..82       MOV       DPL,?V4
   \   0000C9   85..83       MOV       DPH,?V5
   \   0000CC   E0           MOVX      A,@DPTR
   \   0000CD   7071         JNZ       ??gp_SecurityOperationProxy_7
   1399              {
   1400                //If there is no shared key, then pass unprocess
   1401                if(osal_memcmp(pKey,zgpSharedKey,SEC_KEY_LEN))
   \   0000CF   75....       MOV       ?V0,#zgpSharedKey & 0xff
   \   0000D2   75....       MOV       ?V1,#(zgpSharedKey >> 8) & 0xff
   \   0000D5   75..80       MOV       ?V2,#-0x80
   \   0000D8                ; Setup parameters for call to function osal_memcmp
   \   0000D8   78..         MOV       R0,#?V0
   \   0000DA   12....       LCALL     ?PUSH_XSTACK_I_THREE
   \   0000DD   7C10         MOV       R4,#0x10
   \   0000DF   7D00         MOV       R5,#0x0
   \   0000E1   7461         MOV       A,#0x61
   \   0000E3   12....       LCALL     ?XSTACK_DISP0_8
   \   0000E6   12....       LCALL     ?Subroutine24 & 0xFFFF
   \                     ??CrossCallReturnLabel_36:
   \   0000E9   12....       LCALL     `??osal_memcmp::?relay`; Banked call to: osal_memcmp
   \   0000EC   7403         MOV       A,#0x3
   \   0000EE   12....       LCALL     ?DEALLOC_XSTACK8
   \   0000F1   E9           MOV       A,R1
   \   0000F2   704C         JNZ       ??gp_SecurityOperationProxy_7
   1402                {
   1403                  return GP_SEC_RSP_PASS_UNPROCESSED;
   1404                }
   1405                osal_memcpy(pKey,zgpSharedKey,SEC_KEY_LEN);
   \   0000F4                ; Setup parameters for call to function osal_memcpy
   \   0000F4   78..         MOV       R0,#?V0
   \   0000F6   12....       LCALL     ?PUSH_XSTACK_I_THREE
   \   0000F9   7C10         MOV       R4,#0x10
   \   0000FB   7D00         MOV       R5,#0x0
   \   0000FD   7461         MOV       A,#0x61
   \   0000FF   12....       LCALL     ?XSTACK_DISP0_8
   \   000102   12....       LCALL     ??Subroutine68_0 & 0xFFFF
   1406              }
   1407              else
   1408              {
   1409                return GP_SEC_RSP_PASS_UNPROCESSED;
   1410              }
   1411            }
   \                     ??CrossCallReturnLabel_167:
   \   000105   12....       LCALL     `??osal_memcpy::?relay`; Banked call to: osal_memcpy
   \   000108   7403         MOV       A,#0x3
   \   00010A   12....       LCALL     ?DEALLOC_XSTACK8
   \   00010D   02....       LJMP      ??gp_SecurityOperationProxy_6 & 0xFFFF
   1412            
   1413            //error
   1414            else if(status == ZFailure)
   \                     ??gp_SecurityOperationProxy_5:
   \   000110   7401         MOV       A,#0x1
   \   000112   68           XRL       A,R0
   \   000113   7003         JNZ       $+5
   \   000115   02....       LJMP      ??gp_SecurityOperationProxy_6 & 0xFFFF
   1415            {
   1416              //Not found, or error, drop the frame
   1417              return GP_SEC_RSP_DROP_FRAME;
   1418            }
   1419            
   1420            //Found
   1421            else
   1422            {
   1423              
   1424          //Active/Inactive entries in the proxy table are not supported    
   1425          #if 1
   1426                //If security level is zero then don't check and pass unproessed
   1427                if( (pInd->GPDFSecLvl == PROXY_TBL_GET_SEC_OPT_SECURITY_LVL(currEntry[PROXY_TBL_ENTRY_SEC_OPT]) ) &&
   1428                    ( GP_SECURITY_LVL_NO_SEC == PROXY_TBL_GET_SEC_OPT_SECURITY_LVL(currEntry[PROXY_TBL_ENTRY_SEC_OPT]) ))
   \   000118   741A         MOV       A,#0x1a
   \   00011A   12....       LCALL     ?XSTACK_DISP0_8
   \   00011D   E0           MOVX      A,@DPTR
   \   00011E   5403         ANL       A,#0x3
   \   000120   F8           MOV       R0,A
   \   000121   EE           MOV       A,R6
   \   000122   241D         ADD       A,#0x1d
   \   000124   12....       LCALL     ?Subroutine40 & 0xFFFF
   \                     ??CrossCallReturnLabel_61:
   \   000127   68           XRL       A,R0
   \   000128   701B         JNZ       ??gp_SecurityOperationProxy_8
   \   00012A   E8           MOV       A,R0
   \   00012B   7018         JNZ       ??gp_SecurityOperationProxy_8
   1429                {
   1430                  pInd->GPDSecFrameCounter = (uint32)pInd->SeqNumber;
   \   00012D   EE           MOV       A,R6
   \   00012E   2410         ADD       A,#0x10
   \   000130   12....       LCALL     ??Subroutine66_0 & 0xFFFF
   1431                  return GP_SEC_RSP_PASS_UNPROCESSED;
   1432                }
   \                     ??CrossCallReturnLabel_151:
   \   000133   FA           MOV       R2,A
   \   000134   12....       LCALL     ?Subroutine45 & 0xFFFF
   \                     ??CrossCallReturnLabel_71:
   \   000137   EA           MOV       A,R2
   \   000138   F0           MOVX      @DPTR,A
   \   000139   A3           INC       DPTR
   \   00013A   E4           CLR       A
   \   00013B   F0           MOVX      @DPTR,A
   \   00013C   A3           INC       DPTR
   \   00013D   F0           MOVX      @DPTR,A
   \   00013E   A3           INC       DPTR
   \   00013F   F0           MOVX      @DPTR,A
   1433                //Check security Section A.3.7.3.3
   1434                //Check framecounter freshness
   1435                SecFrameCounter = osal_build_uint32(&currEntry[PROXY_TBL_ENTRY_SEC_FRAME],sizeof(uint32));
   1436                if(SecFrameCounter >= pInd->GPDSecFrameCounter)
   1437                {
   1438                  securityCheckFail = TRUE;
   1439                }
   1440                //Compare the security level
   1441                else if(pInd->GPDFSecLvl != PROXY_TBL_GET_SEC_OPT_SECURITY_LVL(currEntry[PROXY_TBL_ENTRY_SEC_OPT]))
   1442                {
   1443                  securityCheckFail = TRUE;
   1444                }
   1445                //Mapping of security key type (section A.1.4.1.3 Table 12)
   1446                else if((PROXY_TBL_GET_SEC_OPT_SECURITY_KEY_TYP(currEntry[PROXY_TBL_ENTRY_SEC_OPT]) <= 0x03)
   1447                        && (pInd->GPDFKeyType == 1))
   1448                {
   1449                  securityCheckFail = TRUE;
   1450                }
   1451                else if(  ((PROXY_TBL_GET_SEC_OPT_SECURITY_KEY_TYP(currEntry[PROXY_TBL_ENTRY_SEC_OPT]) == 0x07) ||
   1452                           (PROXY_TBL_GET_SEC_OPT_SECURITY_KEY_TYP(currEntry[PROXY_TBL_ENTRY_SEC_OPT]) == 0x04)) 
   1453                         && (pInd->GPDFKeyType == 0) )
   1454                {
   1455                  securityCheckFail = TRUE;
   1456                  
   1457                }
   1458                else if( (PROXY_TBL_GET_SEC_OPT_SECURITY_KEY_TYP(currEntry[PROXY_TBL_ENTRY_SEC_OPT]) == 0x05) ||
   1459                         (PROXY_TBL_GET_SEC_OPT_SECURITY_KEY_TYP(currEntry[PROXY_TBL_ENTRY_SEC_OPT]) == 0x06) )
   1460                {
   1461                  //keytype reserved
   1462                  securityCheckFail = TRUE;
   1463                }
   1464                
   1465                if(securityCheckFail == TRUE)
   1466                {
   1467                  if(zgGP_InCommissioningMode == FALSE)
   1468                  {
   1469                    return GP_SEC_RSP_DROP_FRAME;
   1470                  }
   1471                  else
   1472                  {
   1473                    return GP_SEC_RSP_PASS_UNPROCESSED;
   \                     ??gp_SecurityOperationProxy_7:
   \   000140   7902         MOV       R1,#0x2
   \   000142   02....       LJMP      ??gp_SecurityOperationProxy_2 & 0xFFFF
   1474                  }
   \                     ??gp_SecurityOperationProxy_8:
   \   000145                ; Setup parameters for call to function osal_build_uint32
   \   000145   7904         MOV       R1,#0x4
   \   000147   741B         MOV       A,#0x1b
   \   000149   12....       LCALL     ?XSTACK_DISP0_8
   \   00014C   AA82         MOV       R2,DPL
   \   00014E   AB83         MOV       R3,DPH
   \   000150   12....       LCALL     `??osal_build_uint32::?relay`; Banked call to: osal_build_uint32
   \   000153   8A..         MOV       ?V0,R2
   \   000155   8B..         MOV       ?V1,R3
   \   000157   8C..         MOV       ?V2,R4
   \   000159   8D..         MOV       ?V3,R5
   \   00015B   12....       LCALL     ?Subroutine45 & 0xFFFF
   \                     ??CrossCallReturnLabel_72:
   \   00015E   78..         MOV       R0,#?V0
   \   000160   12....       LCALL     ?UL_GE_X
   \   000163   5003         JNC       $+5
   \   000165   02....       LJMP      ??gp_SecurityOperationProxy_9 & 0xFFFF
   \   000168   741A         MOV       A,#0x1a
   \   00016A   12....       LCALL     ?XSTACK_DISP0_8
   \   00016D   E0           MOVX      A,@DPTR
   \   00016E   F8           MOV       R0,A
   \   00016F   85..82       MOV       DPL,?V6
   \   000172   85..83       MOV       DPH,?V7
   \   000175   E0           MOVX      A,@DPTR
   \   000176   F9           MOV       R1,A
   \   000177   7403         MOV       A,#0x3
   \   000179   58           ANL       A,R0
   \   00017A   69           XRL       A,R1
   \   00017B   7079         JNZ       ??gp_SecurityOperationProxy_9
   \   00017D   E8           MOV       A,R0
   \   00017E   13           RRC       A
   \   00017F   13           RRC       A
   \   000180   543F         ANL       A,#0x3f
   \   000182   5407         ANL       A,#0x7
   \   000184   F8           MOV       R0,A
   \   000185   C3           CLR       C
   \   000186   9404         SUBB      A,#0x4
   \   000188   504F         JNC       ??gp_SecurityOperationProxy_10
   \   00018A   85..82       MOV       DPL,?V4
   \   00018D   85..83       MOV       DPH,?V5
   \   000190   E0           MOVX      A,@DPTR
   \   000191   6401         XRL       A,#0x1
   \   000193   6061         JZ        ??gp_SecurityOperationProxy_9
   1475                }
   1476                else
   1477                {
   1478                  //Securty check success
   1479                  osal_memcpy(pKey,&currEntry[PROXY_TBL_ENTRY_GPD_KEY],SEC_KEY_LEN);
   \                     ??gp_SecurityOperationProxy_11:
   \   000195                ; Setup parameters for call to function osal_memcpy
   \   000195   741F         MOV       A,#0x1f
   \   000197   12....       LCALL     ?XSTACK_DISP0_8
   \   00019A   A982         MOV       R1,DPL
   \   00019C   AA83         MOV       R2,DPH
   \   00019E   89..         MOV       ?V0,R1
   \   0001A0   8A..         MOV       ?V1,R2
   \   0001A2   75..00       MOV       ?V2,#0x0
   \   0001A5   78..         MOV       R0,#?V0
   \   0001A7   12....       LCALL     ?PUSH_XSTACK_I_THREE
   \   0001AA   7C10         MOV       R4,#0x10
   \   0001AC   7D00         MOV       R5,#0x0
   \   0001AE   7461         MOV       A,#0x61
   \   0001B0   12....       LCALL     ?XSTACK_DISP0_8
   \   0001B3   12....       LCALL     ??Subroutine68_0 & 0xFFFF
   \                     ??CrossCallReturnLabel_168:
   \   0001B6   12....       LCALL     `??osal_memcpy::?relay`; Banked call to: osal_memcpy
   \   0001B9   7403         MOV       A,#0x3
   \   0001BB   12....       LCALL     ?DEALLOC_XSTACK8
   1480                  *pKeyType = PROXY_TBL_GET_SEC_OPT_SECURITY_KEY_TYP(currEntry[PROXY_TBL_ENTRY_SEC_OPT]);
   \   0001BE   741A         MOV       A,#0x1a
   \   0001C0   12....       LCALL     ?XSTACK_DISP0_8
   \   0001C3   E0           MOVX      A,@DPTR
   \   0001C4   13           RRC       A
   \   0001C5   13           RRC       A
   \   0001C6   543F         ANL       A,#0x3f
   \   0001C8   5407         ANL       A,#0x7
   \   0001CA   C0E0         PUSH      A
   \   0001CC   12....       LCALL     ?Subroutine25 & 0xFFFF
   \                     ??CrossCallReturnLabel_137:
   \   0001CF   D0E0         POP       A
   \   0001D1   F0           MOVX      @DPTR,A
   1481                
   1482                  //compare the endpoint
   1483                  if(endpointCheckFail)
   1484                  {
   1485                    return GP_SEC_RSP_TX_THEN_DROP;
   1486                  }
   1487                  else
   1488                  {
   1489                    return GP_SEC_RSP_MATCH;
   \   0001D2   7901         MOV       R1,#0x1
   \                     ??gp_SecurityOperationProxy_2:
   \   0001D4   744E         MOV       A,#0x4e
   1490                  }
   1491                }
   \   0001D6   02....       LJMP      ?Subroutine1 & 0xFFFF
   \                     ??gp_SecurityOperationProxy_10:
   \   0001D9   7407         MOV       A,#0x7
   \   0001DB   68           XRL       A,R0
   \   0001DC   6005         JZ        ??gp_SecurityOperationProxy_12
   \   0001DE   7404         MOV       A,#0x4
   \   0001E0   68           XRL       A,R0
   \   0001E1   7009         JNZ       ??gp_SecurityOperationProxy_13
   \                     ??gp_SecurityOperationProxy_12:
   \   0001E3   85..82       MOV       DPL,?V4
   \   0001E6   85..83       MOV       DPH,?V5
   \   0001E9   E0           MOVX      A,@DPTR
   \   0001EA   600A         JZ        ??gp_SecurityOperationProxy_9
   \                     ??gp_SecurityOperationProxy_13:
   \   0001EC   7405         MOV       A,#0x5
   \   0001EE   68           XRL       A,R0
   \   0001EF   6005         JZ        ??gp_SecurityOperationProxy_9
   \   0001F1   7406         MOV       A,#0x6
   \   0001F3   68           XRL       A,R0
   \   0001F4   709F         JNZ       ??gp_SecurityOperationProxy_11
   \                     ??gp_SecurityOperationProxy_9:
   \   0001F6   90....       MOV       DPTR,#zgGP_InCommissioningMode
   \   0001F9   E0           MOVX      A,@DPTR
   \   0001FA   6003         JZ        $+5
   \   0001FC   02....       LJMP      ??gp_SecurityOperationProxy_7 & 0xFFFF
   \                     ??gp_SecurityOperationProxy_6:
   \   0001FF   7900         MOV       R1,#0x0
   \   000201   80D1         SJMP      ??gp_SecurityOperationProxy_2
   1492                
   1493          //Active/Inactive entries in the proxy table are not supported
   1494          #else
   1495              //Is active
   1496              if(PROXY_TBL_GET_ENTRY_ACTIVE(currEntry[PROXY_TBL_ENTRY_OPT]))
   1497              {
   1498                //Check security Section A.3.7.3.3
   1499                //Check framecounter freshness
   1500                SecFrameCounter = osal_build_uint32(&currEntry[PROXY_TBL_ENTRY_SEC_FRAME],sizeof(uint32));
   1501                if(SecFrameCounter >= pInd->GPDSecFrameCounter)
   1502                {
   1503                  securityCheckFail = TRUE;
   1504                }
   1505                //Compare the security level
   1506                else if(pInd->GPDFSecLvl != PROXY_TBL_GET_SEC_OPT_SECURITY_LVL(currEntry[PROXY_TBL_ENTRY_SEC_OPT]))
   1507                {
   1508                  securityCheckFail = TRUE;
   1509                }
   1510                //Mapping of security key type (section A.1.4.1.3 Table 12)
   1511                else if((PROXY_TBL_GET_SEC_OPT_SECURITY_KEY_TYP(currEntry[PROXY_TBL_ENTRY_SEC_OPT]) <= 0x03)
   1512                        && (pInd->GPDFKeyType == 1))
   1513                {
   1514                  securityCheckFail = TRUE;
   1515                }
   1516                else if(  ((PROXY_TBL_GET_SEC_OPT_SECURITY_KEY_TYP(currEntry[PROXY_TBL_ENTRY_SEC_OPT]) == 0x07) ||
   1517                           (PROXY_TBL_GET_SEC_OPT_SECURITY_KEY_TYP(currEntry[PROXY_TBL_ENTRY_SEC_OPT]) == 0x04)) 
   1518                         && (pInd->GPDFKeyType == 0) )
   1519                {
   1520                  securityCheckFail = TRUE;
   1521                  
   1522                }
   1523                else if( (PROXY_TBL_GET_SEC_OPT_SECURITY_KEY_TYP(currEntry[PROXY_TBL_ENTRY_SEC_OPT]) == 0x05) ||
   1524                         (PROXY_TBL_GET_SEC_OPT_SECURITY_KEY_TYP(currEntry[PROXY_TBL_ENTRY_SEC_OPT]) == 0x06) )
   1525                {
   1526                  //keytype reserved
   1527                  securityCheckFail = TRUE;
   1528                }
   1529                
   1530                if(securityCheckFail == TRUE)
   1531                {
   1532                  if(zgGP_InCommissioningMode == FALSE)
   1533                  {
   1534                    return GP_SEC_RSP_DROP_FRAME;
   1535                  }
   1536                  else
   1537                  {
   1538                    return GP_SEC_RSP_PASS_UNPROCESSED;
   1539                  }
   1540                }
   1541                else
   1542                {
   1543                  //Securty check success
   1544                  osal_memcpy(pKey,&currEntry[PROXY_TBL_ENTRY_GPD_KEY],SEC_KEY_LEN);
   1545                  *pKeyType = GP_GET_SEC_KEY_TYPE(currEntry[PROXY_TBL_ENTRY_SEC_OPT]);
   1546                
   1547                  //compare the endpoint
   1548                  if(endpointCheckFail)
   1549                  {
   1550                    return GP_SEC_RSP_TX_THEN_DROP;
   1551                  }
   1552                  else
   1553                  {
   1554                    return GP_SEC_RSP_MATCH;
   1555                  }
   1556                }
   1557              }
   1558          
   1559              //Inactive
   1560              else
   1561              {
   1562                //Found, inactive and in operational mode
   1563                if(zgGP_InCommissioningMode == FALSE)
   1564                {
   1565                  //Check framecounter freshness
   1566                  SecFrameCounter = osal_build_uint32(&currEntry[PROXY_TBL_ENTRY_SEC_FRAME],sizeof(uint32));
   1567                  if(SecFrameCounter < pInd->GPDSecFrameCounter)
   1568                  {
   1569                    //Update framecounter
   1570                     osal_memcpy(&currEntry[PROXY_TBL_ENTRY_SEC_FRAME],(uint8*)&pInd->GPDSecFrameCounter,sizeof(uint32));
   1571          
   1572                     status = osal_nv_write( NvProxyTableIndex, 0,
   1573                                         PROXY_TBL_ENTRY_LEN, currEntry );
   1574                     
   1575                     if ( status != SUCCESS )
   1576                     {
   1577                       // FAIL
   1578                       return GP_SEC_RSP_ERROR;
   1579                     }
   1580                  }
   1581                  return GP_SEC_RSP_DROP_FRAME;
   1582                }
   1583                //Found,inactive, and in commissioning mode
   1584                else
   1585                {
   1586                  //If key type = 0, its the same as not found
   1587                  if(pInd->GPDFKeyType == 0)
   1588                  {
   1589                    Found = FALSE;
   1590                  }
   1591                  else
   1592                  {
   1593                    return GP_SEC_RSP_PASS_UNPROCESSED;
   1594                  }
   1595                }
   1596              }
   1597          #endif
   1598              
   1599            }
   1600          
   1601          
   1602            //Should not reach this point
   1603            return GP_SEC_RSP_DROP_FRAME;
   1604          }

   \                                 In  segment BANKED_CODE, align 1, keep-with-next
   \                     ?Subroutine18:
   \   000000   EC           MOV       A,R4
   \   000001   F0           MOVX      @DPTR,A
   \   000002   A3           INC       DPTR
   \   000003   ED           MOV       A,R5
   \   000004   F0           MOVX      @DPTR,A
   \   000005   EA           MOV       A,R2
   \   000006   FE           MOV       R6,A
   \   000007   EB           MOV       A,R3
   \   000008   FF           MOV       R7,A
   \   000009   22           RET
   1605          
   1606           /*********************************************************************
   1607           * @fn          gp_u32CastPointer
   1608           *
   1609           * @brief       General function fill uint32 from pionter.
   1610           *
   1611           * @param       pBitField - pointer to the bit field.
   1612           *              bit       - position of the bit to set in the given bitfield.
   1613           *
   1614           * @return      
   1615           */
   1616          static void gp_u32CastPointer( uint8 *data, uint8 *p )
   1617          {
   1618              *( uint32* )data |= ( ( *( uint32* ) p++ )       & 0x000000FF );
   1619              *( uint32* )data |= ( ( *( uint32* ) p++ <<  8 ) & 0x0000FF00 );
   1620              *( uint32* )data |= ( ( *( uint32* ) p++ << 16 ) & 0x00FF0000 );
   1621              *( uint32* )data |= ( ( *( uint32* ) p++ << 24 ) & 0xFF000000 );
   1622          }
   1623          
   1624           /*********************************************************************
   1625           * @fn          gp_u16CastPointer
   1626           *
   1627           * @brief       General function fill uint16 from pionter.
   1628           *
   1629           * @param       pBitField - pointer to the bit field.
   1630           *              bit       - position of the bit to set in the given bitfield.
   1631           *
   1632           * @return      
   1633           */
   1634          static void gp_u16CastPointer( uint8 *data, uint8 *p )
   1635          {
   1636              *( uint16* )data |= ( ( *( uint16* ) p++ )       & 0x00FF );
   1637              *( uint16* )data |= ( ( *( uint16* ) p++ <<  8 ) & 0xFF00 );
   1638          }
   1639          
   1640           /*********************************************************************
   1641           * @fn          gp_u8CastPointer
   1642           *
   1643           * @brief       General function fill uint16 from pionter.
   1644           *
   1645           * @param       pBitField - pointer to the bit field.
   1646           *              bit       - position of the bit to set in the given bitfield.
   1647           *
   1648           * @return      
   1649           */
   1650          static void gp_u8CastPointer( uint8 *data, uint8 *p )
   1651          {
   1652              *( uint8* )data |= ( ( *( uint8* ) p ) );
   1653          }
   1654          
   1655           /*********************************************************************
   1656           * @fn          gp_getProxyTableByIndex
   1657           *
   1658           * @brief       General function to get proxy table entry by NV index
   1659           *
   1660           * @param       nvIndex - NV Id of proxy table
   1661           *              pEntry  - pointer to PROXY_TBL_ENTRY_LEN array
   1662           *
   1663           * @return      
   1664           */

   \                                 In  segment BANKED_CODE, align 1, keep-with-next
   1665          uint8 gp_getProxyTableByIndex( uint16 nvIndex, uint8 *pEntry )
   \                     gp_getProxyTableByIndex:
   1666          {
   \   000000                REQUIRE ?V0
   \   000000                REQUIRE ?V1
   \   000000                REQUIRE ?V2
   \   000000                REQUIRE ?V4
   \   000000                REQUIRE ?V5
   \   000000   74F2         MOV       A,#-0xe
   \   000002   12....       LCALL     ?BANKED_ENTER_XDATA
   \   000005                ; Saved register size: 14
   \   000005                ; Auto size: 2
   \   000005   74FE         MOV       A,#-0x2
   \   000007   12....       LCALL     ?ALLOC_XSTACK8
   \   00000A   8C..         MOV       ?V4,R4
   \   00000C   8D..         MOV       ?V5,R5
   1667            uint8 status;
   1668            uint16 emptyEntry = 0xFFFF;
   \   00000E   85..82       MOV       DPL,?XSP + 0
   \   000011   85..83       MOV       DPH,?XSP + 1
   \   000014   74FF         MOV       A,#-0x1
   \   000016   F0           MOVX      @DPTR,A
   \   000017   A3           INC       DPTR
   \   000018   F0           MOVX      @DPTR,A
   1669            
   1670            
   1671            if ( ( nvIndex < ZCD_NV_PROXY_TABLE_START ) || ( nvIndex > ZCD_NV_PROXY_TABLE_END ) )
   \   000019   EA           MOV       A,R2
   \   00001A   24F0         ADD       A,#-0x10
   \   00001C   F8           MOV       R0,A
   \   00001D   EB           MOV       A,R3
   \   00001E   34FC         ADDC      A,#-0x4
   \   000020   F9           MOV       R1,A
   \   000021   C3           CLR       C
   \   000022   E8           MOV       A,R0
   \   000023   9430         SUBB      A,#0x30
   \   000025   E9           MOV       A,R1
   \   000026   9400         SUBB      A,#0x0
   \   000028   4004         JC        ??gp_getProxyTableByIndex_0
   1672            {
   1673              return NV_OPER_FAILED;
   \   00002A   790A         MOV       R1,#0xa
   \   00002C   8051         SJMP      ??gp_getProxyTableByIndex_1
   1674            }
   1675            
   1676            status = osal_nv_read( nvIndex, 0,
   1677                                    PROXY_TBL_ENTRY_LEN, pEntry );
   \                     ??gp_getProxyTableByIndex_0:
   \   00002E                ; Setup parameters for call to function osal_nv_read
   \   00002E   78..         MOV       R0,#?V4
   \   000030   12....       LCALL     ?PUSH_XSTACK_I_TWO
   \   000033   75..41       MOV       ?V0,#0x41
   \   000036   75..00       MOV       ?V1,#0x0
   \   000039   78..         MOV       R0,#?V0
   \   00003B   12....       LCALL     ?PUSH_XSTACK_I_TWO
   \   00003E   7C00         MOV       R4,#0x0
   \   000040   7D00         MOV       R5,#0x0
   \   000042   12....       LCALL     `??osal_nv_read::?relay`; Banked call to: osal_nv_read
   \   000045   7404         MOV       A,#0x4
   \   000047   12....       LCALL     ?DEALLOC_XSTACK8
   \   00004A   E9           MOV       A,R1
   \   00004B   FE           MOV       R6,A
   1678            
   1679            if ( status != SUCCESS )
   \   00004C   702F         JNZ       ??gp_getProxyTableByIndex_2
   1680            {
   1681              // Return the failure status of NV read procedure
   1682              return status;
   1683            }
   1684              
   1685                
   1686            // if the entry is empty
   1687            if ( osal_memcmp( pEntry, &emptyEntry, sizeof ( uint16 ) ) )
   \   00004E                ; Setup parameters for call to function osal_memcmp
   \   00004E   A8..         MOV       R0,?XSP + 0
   \   000050   A9..         MOV       R1,?XSP + 1
   \   000052   88..         MOV       ?V0,R0
   \   000054   89..         MOV       ?V1,R1
   \   000056   75..00       MOV       ?V2,#0x0
   \   000059   78..         MOV       R0,#?V0
   \   00005B   12....       LCALL     ?PUSH_XSTACK_I_THREE
   \   00005E   7C02         MOV       R4,#0x2
   \   000060   7D00         MOV       R5,#0x0
   \   000062   85..82       MOV       DPL,?V4
   \   000065   85..83       MOV       DPH,?V5
   \   000068   A982         MOV       R1,DPL
   \   00006A   AA83         MOV       R2,DPH
   \   00006C   7B00         MOV       R3,#0x0
   \   00006E   12....       LCALL     `??osal_memcmp::?relay`; Banked call to: osal_memcmp
   \   000071   7403         MOV       A,#0x3
   \   000073   12....       LCALL     ?DEALLOC_XSTACK8
   \   000076   E9           MOV       A,R1
   \   000077   6004         JZ        ??gp_getProxyTableByIndex_2
   1688            {
   1689              return NV_INVALID_DATA;
   \   000079   790D         MOV       R1,#0xd
   \   00007B   8002         SJMP      ??gp_getProxyTableByIndex_1
   1690            }
   1691            
   1692            return status;
   \                     ??gp_getProxyTableByIndex_2:
   \   00007D   EE           MOV       A,R6
   \   00007E   F9           MOV       R1,A
   \                     ??gp_getProxyTableByIndex_1:
   \   00007F   7402         MOV       A,#0x2
   \   000081                REQUIRE ?Subroutine3
   \   000081                ; // Fall through to label ?Subroutine3
   1693          }

   \                                 In  segment BANKED_CODE, align 1, keep-with-next
   \                     ?Subroutine3:
   \   000000   12....       LCALL     ?DEALLOC_XSTACK8
   \   000003                REQUIRE ??Subroutine69_0
   \   000003                ; // Fall through to label ??Subroutine69_0
   1694          
   1695          /*********************************************************************
   1696           * @fn          GP_DataInd
   1697           *
   1698           * @brief       This passes the MCPS data indications received in MAC to the application
   1699           *
   1700           * @param       gp_DataInd
   1701           *
   1702           * @return      FreeMsg - TRUE if the message will be released, False if it will 
   1703           *                        be keeped for duplicate filtering
   1704           */

   \                                 In  segment BANKED_CODE, align 1, keep-with-next
   1705          uint8 GP_DataInd(gp_DataInd_t *gp_DataInd)
   \                     GP_DataInd:
   1706          {
   \   000000                REQUIRE ?V0
   \   000000                REQUIRE ?V1
   \   000000                REQUIRE ?V2
   \   000000                REQUIRE ?V3
   \   000000                REQUIRE ?V4
   \   000000                REQUIRE ?V5
   \   000000   74F2         MOV       A,#-0xe
   \   000002   12....       LCALL     ?BANKED_ENTER_XDATA
   \   000005                ; Saved register size: 14
   \   000005                ; Auto size: 132
   \   000005   747C         MOV       A,#0x7c
   \   000007   12....       LCALL     ?ALLOC_XSTACK8
   \   00000A   EA           MOV       A,R2
   \   00000B   FE           MOV       R6,A
   \   00000C   EB           MOV       A,R3
   \   00000D   FF           MOV       R7,A
   1707            uint32   timeout;
   1708            uint8    freeMsg = FALSE;
   1709            gpd_ID_t gpd_ID;
   1710            uint8    ProxyTableEntryTemp[PROXY_TBL_ENTRY_LEN];
   1711            uint16   ProxyTableEntryIndex = 0;
   \   00000E   85..82       MOV       DPL,?XSP + 0
   \   000011   85..83       MOV       DPH,?XSP + 1
   \   000014   E4           CLR       A
   \   000015   F0           MOVX      @DPTR,A
   \   000016   A3           INC       DPTR
   \   000017   12....       LCALL     ?Subroutine12 & 0xFFFF
   1712            
   1713            //If authentication/decryption fail, then drop the frame and stop processing
   1714            //GP Basic proxy A.3.5.2.3
   1715            if(gp_DataInd->status == GP_DATA_IND_STATUS_COUNTER_FAILURE ||
   1716                gp_DataInd->status == GP_DATA_IND_STATUS_AUTH_FAILURE )
   \                     ??CrossCallReturnLabel_18:
   \   00001A   E0           MOVX      A,@DPTR
   \   00001B   F8           MOV       R0,A
   \   00001C   7402         MOV       A,#0x2
   \   00001E   68           XRL       A,R0
   \   00001F   7003         JNZ       $+5
   \   000021   02....       LJMP      ??GP_DataInd_0 & 0xFFFF
   \   000024   7403         MOV       A,#0x3
   \   000026   68           XRL       A,R0
   \   000027   7003         JNZ       $+5
   \   000029   02....       LJMP      ??GP_DataInd_0 & 0xFFFF
   1717            {
   1718              return freeMsg;
   1719            }
   1720          
   1721            gp_DataIndAppendToList(gp_DataInd, &gp_DataIndList);
   \   00002C                ; Setup parameters for call to function gp_DataIndAppendToList
   \   00002C   7C..         MOV       R4,#gp_DataIndList & 0xff
   \   00002E   7D..         MOV       R5,#(gp_DataIndList >> 8) & 0xff
   \   000030   12....       LCALL     `??gp_DataIndAppendToList::?relay`; Banked call to: gp_DataIndAppendToList
   1722            
   1723            gp_DataInd->SecReqHandling.timeout = gpDuplicateTimeout;
   \   000033   EE           MOV       A,R6
   \   000034   2405         ADD       A,#0x5
   \   000036   12....       LCALL     ?Subroutine42 & 0xFFFF
   \                     ??CrossCallReturnLabel_65:
   \   000039   74D0         MOV       A,#-0x30
   \   00003B   F0           MOVX      @DPTR,A
   \   00003C   A3           INC       DPTR
   \   00003D   7407         MOV       A,#0x7
   \   00003F   F0           MOVX      @DPTR,A
   \   000040   A3           INC       DPTR
   \   000041   E4           CLR       A
   \   000042   F0           MOVX      @DPTR,A
   \   000043   A3           INC       DPTR
   \   000044   F0           MOVX      @DPTR,A
   1724            //Consider the current time elepsed to the next timeout
   1725            timeout = osal_get_timeoutEx(gp_TaskID,GP_DUPLICATE_FILTERING_TIMEOUT_EVENT);
   \   000045                ; Setup parameters for call to function osal_get_timeoutEx
   \   000045   7A02         MOV       R2,#0x2
   \   000047   FB           MOV       R3,A
   \   000048   90....       MOV       DPTR,#gp_TaskID
   \   00004B   E0           MOVX      A,@DPTR
   \   00004C   F9           MOV       R1,A
   \   00004D   12....       LCALL     `??osal_get_timeoutEx::?relay`; Banked call to: osal_get_timeoutEx
   \   000050   8A..         MOV       ?V0,R2
   \   000052   8B..         MOV       ?V1,R3
   \   000054   8C..         MOV       ?V2,R4
   \   000056   8D..         MOV       ?V3,R5
   1726            
   1727            if(timeout)
   \   000058   EA           MOV       A,R2
   \   000059   12....       LCALL     ??Subroutine61_0 & 0xFFFF
   \                     ??CrossCallReturnLabel_122:
   \   00005C   85..82       MOV       DPL,?V4
   \   00005F   85..83       MOV       DPH,?V5
   \   000062   6007         JZ        ??GP_DataInd_1
   1728            {
   1729              gp_DataInd->SecReqHandling.timeout += timeout;
   \   000064   78..         MOV       R0,#?V0
   \   000066   12....       LCALL     ?L_ADD_TO_X
   \   000069   8014         SJMP      ??GP_DataInd_2
   1730            }  
   1731            else
   1732            {
   1733              osal_start_timerEx(gp_TaskID,GP_DUPLICATE_FILTERING_TIMEOUT_EVENT,gp_DataInd->SecReqHandling.timeout);
   \                     ??GP_DataInd_1:
   \   00006B                ; Setup parameters for call to function osal_start_timerEx
   \   00006B   12....       LCALL     ?PUSH_XSTACK8_X_FOUR
   \   00006E   7A02         MOV       R2,#0x2
   \   000070   7B00         MOV       R3,#0x0
   \   000072   90....       MOV       DPTR,#gp_TaskID
   \   000075   E0           MOVX      A,@DPTR
   \   000076   F9           MOV       R1,A
   \   000077   12....       LCALL     `??osal_start_timerEx::?relay`; Banked call to: osal_start_timerEx
   \   00007A   7404         MOV       A,#0x4
   \   00007C   12....       LCALL     ?DEALLOC_XSTACK8
   1734            }  
   1735          
   1736            gpd_ID.AppID = gp_DataInd->appID;
   \                     ??GP_DataInd_2:
   \   00007F   EE           MOV       A,R6
   \   000080   241C         ADD       A,#0x1c
   \   000082   F8           MOV       R0,A
   \   000083   E4           CLR       A
   \   000084   3F           ADDC      A,R7
   \   000085   F9           MOV       R1,A
   \   000086   8882         MOV       DPL,R0
   \   000088   8983         MOV       DPH,R1
   \   00008A   E0           MOVX      A,@DPTR
   \   00008B   C0E0         PUSH      A
   \   00008D   7402         MOV       A,#0x2
   \   00008F   12....       LCALL     ?XSTACK_DISP0_8
   \   000092   D0E0         POP       A
   \   000094   F0           MOVX      @DPTR,A
   1737            if(gp_DataInd->appID == GP_OPT_APP_ID_IEEE)
   \   000095   8882         MOV       DPL,R0
   \   000097   8983         MOV       DPH,R1
   \   000099   E0           MOVX      A,@DPTR
   \   00009A   6402         XRL       A,#0x2
   \   00009C   701D         JNZ       ??GP_DataInd_3
   1738            {
   1739              osal_memcpy(gpd_ID.GPDId.GPDExtAddr, gp_DataInd->srcAddr.addr.extAddr, Z_EXTADDR_LEN);
   \   00009E                ; Setup parameters for call to function osal_memcpy
   \   00009E   12....       LCALL     ?Subroutine37 & 0xFFFF
   1740            }
   \                     ??CrossCallReturnLabel_158:
   \   0000A1   12....       LCALL     ?PUSH_XSTACK_I_THREE
   \   0000A4   7C08         MOV       R4,#0x8
   \   0000A6   7D00         MOV       R5,#0x0
   \   0000A8   7406         MOV       A,#0x6
   \   0000AA   12....       LCALL     ?XSTACK_DISP0_8
   \   0000AD   AA82         MOV       R2,DPL
   \   0000AF   AB83         MOV       R3,DPH
   \   0000B1   12....       LCALL     `??osal_memcpy::?relay`; Banked call to: osal_memcpy
   \   0000B4   7403         MOV       A,#0x3
   \   0000B6   12....       LCALL     ?DEALLOC_XSTACK8
   \   0000B9   800E         SJMP      ??GP_DataInd_4
   1741            else
   1742            {
   1743              gpd_ID.GPDId.SrcID = gp_DataInd->SrcId;
   \                     ??GP_DataInd_3:
   \   0000BB   12....       LCALL     ?Subroutine38 & 0xFFFF
   1744            }
   \                     ??CrossCallReturnLabel_59:
   \   0000BE   12....       LCALL     ?XLOAD_R0123
   \   0000C1   7403         MOV       A,#0x3
   \   0000C3   12....       LCALL     ?XSTACK_DISP0_8
   \   0000C6   12....       LCALL     ?XSTORE_R0123
   1745          
   1746            if(gp_getProxyTableByGpId(&gpd_ID,ProxyTableEntryTemp,&ProxyTableEntryIndex) == ZSuccess)
   \                     ??GP_DataInd_4:
   \   0000C9                ; Setup parameters for call to function gp_getProxyTableByGpId
   \   0000C9   A8..         MOV       R0,?XSP + 0
   \   0000CB   A9..         MOV       R1,?XSP + 1
   \   0000CD   88..         MOV       ?V0,R0
   \   0000CF   89..         MOV       ?V1,R1
   \   0000D1   78..         MOV       R0,#?V0
   \   0000D3   12....       LCALL     ?PUSH_XSTACK_I_TWO
   \   0000D6   7445         MOV       A,#0x45
   \   0000D8   12....       LCALL     ?XSTACK_DISP102_8
   \   0000DB   7404         MOV       A,#0x4
   \   0000DD   12....       LCALL     ?XSTACK_DISP101_8
   \   0000E0   12....       LCALL     `??gp_getProxyTableByGpId::?relay`; Banked call to: gp_getProxyTableByGpId
   \   0000E3   7402         MOV       A,#0x2
   \   0000E5   12....       LCALL     ?DEALLOC_XSTACK8
   \   0000E8   E9           MOV       A,R1
   \   0000E9   702D         JNZ       ??GP_DataInd_5
   1747            {
   1748          
   1749              //Update Sec Frame counter to proxy table  A.3.6.1.3
   1750              osal_nv_write( ProxyTableEntryIndex, PROXY_TBL_ENTRY_SEC_FRAME,
   1751                                 sizeof(uint32), (uint8*) &gp_DataInd->GPDSecFrameCounter );
   \   0000EB                ; Setup parameters for call to function osal_nv_write
   \   0000EB   EE           MOV       A,R6
   \   0000EC   2426         ADD       A,#0x26
   \   0000EE   F5..         MOV       ?V0,A
   \   0000F0   E4           CLR       A
   \   0000F1   3F           ADDC      A,R7
   \   0000F2   F5..         MOV       ?V1,A
   \   0000F4   78..         MOV       R0,#?V0
   \   0000F6   12....       LCALL     ?PUSH_XSTACK_I_TWO
   \   0000F9   75..04       MOV       ?V0,#0x4
   \   0000FC   75..00       MOV       ?V1,#0x0
   \   0000FF   78..         MOV       R0,#?V0
   \   000101   12....       LCALL     ?PUSH_XSTACK_I_TWO
   \   000104   7C0E         MOV       R4,#0xe
   \   000106   7D00         MOV       R5,#0x0
   \   000108   7404         MOV       A,#0x4
   \   00010A   12....       LCALL     ?XSTACK_DISP0_8
   \   00010D   12....       LCALL     ??Subroutine68_0 & 0xFFFF
   1752            }  
   \                     ??CrossCallReturnLabel_169:
   \   000110   12....       LCALL     `??osal_nv_write::?relay`; Banked call to: osal_nv_write
   \   000113   7404         MOV       A,#0x4
   \   000115   12....       LCALL     ?DEALLOC_XSTACK8
   1753          
   1754            if ( zgGP_InCommissioningMode == TRUE )
   \                     ??GP_DataInd_5:
   \   000118   90....       MOV       DPTR,#zgGP_InCommissioningMode
   \   00011B   E0           MOVX      A,@DPTR
   \   00011C   6401         XRL       A,#0x1
   \   00011E   6003         JZ        $+5
   \   000120   02....       LJMP      ??GP_DataInd_6 & 0xFFFF
   1755            {
   1756              if(gp_DataInd->GPDCmmdID == GP_CHANNEL_REQ_COMMAND_ID)
   \   000123   EE           MOV       A,R6
   \   000124   242A         ADD       A,#0x2a
   \   000126   12....       LCALL     ?Subroutine44 & 0xFFFF
   \                     ??CrossCallReturnLabel_69:
   \   000129   E0           MOVX      A,@DPTR
   \   00012A   64E3         XRL       A,#0xe3
   \   00012C   703C         JNZ       ??GP_DataInd_7
   1757              {
   1758                if(pfnChangeChannelReqForBDB)
   \   00012E   90....       MOV       DPTR,#pfnChangeChannelReqForBDB
   \   000131   12....       LCALL     ??Subroutine70_0 & 0xFFFF
   \                     ??CrossCallReturnLabel_175:
   \   000134   600C         JZ        ??GP_DataInd_8
   1759                {
   1760                  //Check if we got permission from BDB
   1761                  if(!pfnChangeChannelReqForBDB())
   \   000136                ; Setup parameters for indirect call
   \   000136   12....       LCALL     ??Subroutine64_0 & 0xFFFF
   1762                  {
   1763                    //No permisssion
   1764                    return freeMsg;
   1765                  }
   1766                }
   \                     ??CrossCallReturnLabel_130:
   \   000139   12....       LCALL     ?CALL_IND
   \   00013C   E9           MOV       A,R1
   \   00013D   7003         JNZ       $+5
   \   00013F   02....       LJMP      ??GP_DataInd_0 & 0xFFFF
   1767                if(pfnChangeChannelReq)
   \                     ??GP_DataInd_8:
   \   000142   90....       MOV       DPTR,#pfnChangeChannelReq
   \   000145   12....       LCALL     ??Subroutine70_0 & 0xFFFF
   \                     ??CrossCallReturnLabel_176:
   \   000148   6009         JZ        ??GP_DataInd_9
   1768                {
   1769                  //Check if we got permission from BDB
   1770                  if(!pfnChangeChannelReq())
   \   00014A                ; Setup parameters for indirect call
   \   00014A   12....       LCALL     ??Subroutine64_0 & 0xFFFF
   1771                  {
   1772                    //No permisssion
   1773                    return freeMsg;
   1774                  }
   1775                }
   \                     ??CrossCallReturnLabel_131:
   \   00014D   12....       LCALL     ?CALL_IND
   \   000150   E9           MOV       A,R1
   \   000151   607E         JZ        ??GP_DataInd_0
   1776                
   1777                osal_start_timerEx(gp_TaskID,GP_CHANNEL_CONFIGURATION_TIMEOUT,gpBirectionalCommissioningChangeChannelTimeout);
   \                     ??GP_DataInd_9:
   \   000153                ; Setup parameters for call to function osal_start_timerEx
   \   000153   90....       MOV       DPTR,#__Constant_1388
   \   000156   12....       LCALL     ?PUSH_XSTACK8_X_FOUR
   \   000159   7A08         MOV       R2,#0x8
   \   00015B   7B00         MOV       R3,#0x0
   \   00015D   90....       MOV       DPTR,#gp_TaskID
   \   000160   E0           MOVX      A,@DPTR
   \   000161   F9           MOV       R1,A
   \   000162   12....       LCALL     `??osal_start_timerEx::?relay`; Banked call to: osal_start_timerEx
   \   000165   7404         MOV       A,#0x4
   \   000167   12....       LCALL     ?DEALLOC_XSTACK8
   1778              }
   1779              GP_ProccessCommissioningNotification( gp_DataInd );
   \                     ??GP_DataInd_7:
   \   00016A   85..82       MOV       DPL,?V0
   \   00016D   85..83       MOV       DPH,?V1
   \   000170   E0           MOVX      A,@DPTR
   \   000171   F8           MOV       R0,A
   \   000172   74E0         MOV       A,#-0x20
   \   000174   68           XRL       A,R0
   \   000175   600A         JZ        ??GP_DataInd_10
   \   000177   74E2         MOV       A,#-0x1e
   \   000179   68           XRL       A,R0
   \   00017A   6005         JZ        ??GP_DataInd_10
   \   00017C   74E3         MOV       A,#-0x1d
   \   00017E   68           XRL       A,R0
   \   00017F   7050         JNZ       ??GP_DataInd_0
   \                     ??GP_DataInd_10:
   \   000181                ; Setup parameters for call to function osal_memset
   \   000181   7C1E         MOV       R4,#0x1e
   \   000183   7D00         MOV       R5,#0x0
   \   000185   7900         MOV       R1,#0x0
   \   000187   7425         MOV       A,#0x25
   \   000189   12....       LCALL     ?XSTACK_DISP101_8
   \   00018C   12....       LCALL     `??osal_memset::?relay`; Banked call to: osal_memset
   \   00018F                ; Setup parameters for call to function zclGp_ManteinanceIndParse
   \   00018F   7425         MOV       A,#0x25
   \   000191   12....       LCALL     ?XSTACK_DISP102_8
   \   000194   EE           MOV       A,R6
   \   000195   FA           MOV       R2,A
   \   000196   EF           MOV       A,R7
   \   000197   FB           MOV       R3,A
   \   000198   12....       LCALL     `??zclGp_ManteinanceIndParse::?relay`; Banked call to: zclGp_ManteinanceIndParse
   \   00019B                ; Setup parameters for call to function zclGp_SendGpCommissioningNotificationCommand
   \   00019B   7425         MOV       A,#0x25
   \   00019D   12....       LCALL     ?XSTACK_DISP101_8
   \   0001A0   12....       LCALL     `??zclGp_SendGpCommissioningNotificationCommand:`; Banked call to: zclGp_SendGpCommissioningNotificationCommand
   \   0001A3   802C         SJMP      ??GP_DataInd_0
   1780            }
   1781            else if ( ( zgGP_InCommissioningMode == FALSE ) )
   \                     ??GP_DataInd_6:
   \   0001A5   E0           MOVX      A,@DPTR
   \   0001A6   7029         JNZ       ??GP_DataInd_0
   1782            {
   1783              GP_ProccessNotification( gp_DataInd );
   \   0001A8                ; Setup parameters for call to function osal_memset
   \   0001A8   7C1A         MOV       R4,#0x1a
   \   0001AA   7D00         MOV       R5,#0x0
   \   0001AC   7900         MOV       R1,#0x0
   \   0001AE   740B         MOV       A,#0xb
   \   0001B0   12....       LCALL     ?XSTACK_DISP101_8
   \   0001B3   12....       LCALL     `??osal_memset::?relay`; Banked call to: osal_memset
   \   0001B6                ; Setup parameters for call to function zclGp_DataIndParse
   \   0001B6   740B         MOV       A,#0xb
   \   0001B8   12....       LCALL     ?XSTACK_DISP102_8
   \   0001BB   EE           MOV       A,R6
   \   0001BC   FA           MOV       R2,A
   \   0001BD   EF           MOV       A,R7
   \   0001BE   FB           MOV       R3,A
   \   0001BF   12....       LCALL     `??zclGp_DataIndParse::?relay`; Banked call to: zclGp_DataIndParse
   \   0001C2                ; Setup parameters for call to function zclGp_SendGpNotificationCommand
   \   0001C2   EE           MOV       A,R6
   \   0001C3   2410         ADD       A,#0x10
   \   0001C5   12....       LCALL     ??Subroutine66_0 & 0xFFFF
   \                     ??CrossCallReturnLabel_152:
   \   0001C8   F9           MOV       R1,A
   \   0001C9   740B         MOV       A,#0xb
   \   0001CB   12....       LCALL     ?XSTACK_DISP101_8
   \   0001CE   12....       LCALL     `??zclGp_SendGpNotificationCommand::?relay`; Banked call to: zclGp_SendGpNotificationCommand
   1784            }
   1785            
   1786            return freeMsg;
   \                     ??GP_DataInd_0:
   \   0001D1   7900         MOV       R1,#0x0
   \   0001D3   7484         MOV       A,#-0x7c
   \   0001D5   02....       LJMP      ?Subroutine3 & 0xFFFF
   1787          }
   1788          
   1789          /*********************************************************************
   1790           * @fn          GP_ProccessCommissioningNotification
   1791           *
   1792           * @brief       General function to process the GP Manteinance Indication in operational mode
   1793           *
   1794           * @param       gp_DataInd
   1795           *
   1796           * @return      none
   1797           */
   1798          static void GP_ProccessCommissioningNotification(gp_DataInd_t *gp_DataInd)
   1799          {
   1800            gpCommissioningNotificationCmd_t gpNotification;
   1801            
   1802            if ( ( gp_DataInd->GPDCmmdID == GP_COMMISSIONING_COMMAND_ID ) || ( gp_DataInd->GPDCmmdID == GP_SUCCESS_COMMAND_ID ) ||
   1803                 ( gp_DataInd->GPDCmmdID == GP_CHANNEL_REQ_COMMAND_ID ) )
   1804            {
   1805            
   1806              osal_memset( &gpNotification, 0, sizeof ( gpCommissioningNotificationCmd_t ) );
   1807              zclGp_ManteinanceIndParse( gp_DataInd, &gpNotification );
   1808            
   1809              zclGp_SendGpCommissioningNotificationCommand ( &gpNotification );
   1810            }
   1811          }
   1812          
   1813          /*********************************************************************
   1814           * @fn          GP_ProccessNotification
   1815           *
   1816           * @brief       General function to process the GP Data Indication in operational mode
   1817           *
   1818           * @param       gp_DataInd
   1819           *
   1820           * @return      none
   1821           */
   1822          static void GP_ProccessNotification(gp_DataInd_t *gp_DataInd)
   1823          {
   1824            gpNotificationCmd_t gpNotification;
   1825            
   1826            osal_memset( &gpNotification, 0, sizeof ( gpNotificationCmd_t ) );
   1827            zclGp_DataIndParse( gp_DataInd, &gpNotification );
   1828            
   1829            zclGp_SendGpNotificationCommand ( &gpNotification, gp_DataInd->SeqNumber );
   1830          }
   1831          
   1832          /*********************************************************************
   1833           * @fn          GP_SecReq
   1834           *
   1835           * @brief       Primitive from dGP stub to GP EndPoint asking how to process a GPDF.
   1836           *
   1837           * @param       gp_SecReq 
   1838           *
   1839           * @return      none
   1840           */

   \                                 In  segment BANKED_CODE, align 1, keep-with-next
   1841          uint8 GP_SecReq(gp_SecReq_t *gp_SecReq)
   \                     GP_SecReq:
   1842          {
   \   000000                REQUIRE ?V0
   \   000000                REQUIRE ?V1
   \   000000                REQUIRE ?V2
   \   000000                REQUIRE ?V3
   \   000000                REQUIRE ?V4
   \   000000                REQUIRE ?V5
   \   000000                REQUIRE ?V6
   \   000000                REQUIRE ?V7
   \   000000   74F0         MOV       A,#-0x10
   \   000002   12....       LCALL     ?BANKED_ENTER_XDATA
   \   000005                ; Saved register size: 16
   \   000005                ; Auto size: 83
   \   000005   74AD         MOV       A,#-0x53
   \   000007   12....       LCALL     ?ALLOC_XSTACK8
   \   00000A   8A..         MOV       ?V6,R2
   \   00000C   8B..         MOV       ?V7,R3
   1843            gp_SecRsp_t *gp_SecRsp = NULL;
   1844            uint8 status;
   1845            uint8  ProxyTableEntryTemp[PROXY_TBL_ENTRY_LEN];
   1846            gp_DataInd_t* temp;
   1847            uint8   KeyType;
   1848            uint8   Key[SEC_KEY_LEN];
   1849          
   1850          
   1851            gp_SecRsp = (gp_SecRsp_t*)osal_msg_allocate(sizeof(gp_SecRsp_t));
   \   00000E                ; Setup parameters for call to function osal_msg_allocate
   \   00000E   7A24         MOV       R2,#0x24
   \   000010   7B00         MOV       R3,#0x0
   \   000012   12....       LCALL     `??osal_msg_allocate::?relay`; Banked call to: osal_msg_allocate
   \   000015   8A..         MOV       ?V0,R2
   \   000017   8B..         MOV       ?V1,R3
   \   000019   AE..         MOV       R6,?V0
   \   00001B   AF..         MOV       R7,?V1
   1852          
   1853            //No mem, then do not release the msg, process later
   1854            if(gp_SecRsp == NULL)
   \   00001D   EE           MOV       A,R6
   \   00001E   4F           ORL       A,R7
   \   00001F   7005         JNZ       ??GP_SecReq_0
   1855            {
   1856              return FALSE;
   \   000021   7900         MOV       R1,#0x0
   \   000023   02....       LJMP      ??GP_SecReq_1 & 0xFFFF
   1857            }
   1858            
   1859            gp_SecRsp->hdr.event = GP_SEC_RSP;
   \                     ??GP_SecReq_0:
   \   000026   8E82         MOV       DPL,R6
   \   000028   8F83         MOV       DPH,R7
   \   00002A   7408         MOV       A,#0x8
   \   00002C   F0           MOVX      @DPTR,A
   1860            gp_SecRsp->hdr.status = ZSuccess;
   \   00002D   A3           INC       DPTR
   \   00002E   E4           CLR       A
   \   00002F   12....       LCALL     ?Subroutine9 & 0xFFFF
   \                     ??CrossCallReturnLabel_11:
   \   000032   8E82         MOV       DPL,R6
   \   000034   8F83         MOV       DPH,R7
   \   000036   A3           INC       DPTR
   \   000037   A3           INC       DPTR
   \   000038   A3           INC       DPTR
   \   000039   F0           MOVX      @DPTR,A
   1861          
   1862            gp_SecRsp->dGPStubHandle = gp_SecReq->dGPStubHandle;
   1863            gp_SecRsp->EndPoint = gp_SecReq->EndPoint;
   \   00003A   E5..         MOV       A,?V6
   \   00003C   240B         ADD       A,#0xb
   \   00003E   F582         MOV       DPL,A
   \   000040   E4           CLR       A
   \   000041   35..         ADDC      A,?V7
   \   000043   F583         MOV       DPH,A
   \   000045   E0           MOVX      A,@DPTR
   \   000046   C0E0         PUSH      A
   \   000048   12....       LCALL     ?Subroutine52 & 0xFFFF
   \                     ??CrossCallReturnLabel_90:
   \   00004B   D0E0         POP       A
   \   00004D   F0           MOVX      @DPTR,A
   1864          
   1865            osal_memcpy(&gp_SecRsp->gp_SecData,&gp_SecReq->gp_SecData, sizeof(gp_SecData_t));
   \   00004E   E5..         MOV       A,?V6
   \   000050   240C         ADD       A,#0xc
   \   000052   F5..         MOV       ?V4,A
   \   000054   E4           CLR       A
   \   000055   35..         ADDC      A,?V7
   \   000057   F5..         MOV       ?V5,A
   \   000059                ; Setup parameters for call to function osal_memcpy
   \   000059   85....       MOV       ?V0,?V4
   \   00005C   F5..         MOV       ?V1,A
   \   00005E   75..00       MOV       ?V2,#0x0
   \   000061   78..         MOV       R0,#?V0
   \   000063   12....       LCALL     ?PUSH_XSTACK_I_THREE
   \   000066   7C06         MOV       R4,#0x6
   \   000068   7D00         MOV       R5,#0x0
   \   00006A   EE           MOV       A,R6
   \   00006B   240E         ADD       A,#0xe
   \   00006D   FA           MOV       R2,A
   \   00006E   E4           CLR       A
   \   00006F   3F           ADDC      A,R7
   \   000070   FB           MOV       R3,A
   \   000071   12....       LCALL     `??osal_memcpy::?relay`; Banked call to: osal_memcpy
   \   000074   7403         MOV       A,#0x3
   \   000076   12....       LCALL     ?DEALLOC_XSTACK8
   \   000079                ; Setup parameters for call to function osal_memcpy
   \   000079   85..82       MOV       DPL,?V6
   \   00007C   85..83       MOV       DPH,?V7
   \   00007F   A3           INC       DPTR
   \   000080   A3           INC       DPTR
   \   000081   A982         MOV       R1,DPL
   \   000083   AA83         MOV       R2,DPH
   \   000085   89..         MOV       ?V0,R1
   \   000087   8A..         MOV       ?V1,R2
   \   000089   78..         MOV       R0,#?V0
   \   00008B   12....       LCALL     ?PUSH_XSTACK_I_THREE
   \   00008E   7C09         MOV       R4,#0x9
   \   000090   7D00         MOV       R5,#0x0
   \   000092   EE           MOV       A,R6
   \   000093   2404         ADD       A,#0x4
   \   000095   FA           MOV       R2,A
   \   000096   E4           CLR       A
   \   000097   3F           ADDC      A,R7
   \   000098   FB           MOV       R3,A
   1866            osal_memcpy(&gp_SecRsp->gpd_ID,&gp_SecReq->gpd_ID, sizeof(gpd_ID_t));
   \   000099   12....       LCALL     `??osal_memcpy::?relay`; Banked call to: osal_memcpy
   \   00009C   7403         MOV       A,#0x3
   \   00009E   12....       LCALL     ?DEALLOC_XSTACK8
   \   0000A1   8E82         MOV       DPL,R6
   \   0000A3   8F83         MOV       DPH,R7
   \   0000A5   A3           INC       DPTR
   \   0000A6   A3           INC       DPTR
   \   0000A7   E4           CLR       A
   \   0000A8   F0           MOVX      @DPTR,A
   1867          
   1868            gp_SecRsp->Status = GP_SEC_RSP_DROP_FRAME;
   1869           
   1870            //Find duplicates A.3.6.1.2 Duplicate filtering
   1871            if( gp_DataIndFindDuplicate(gp_SecReq->dGPStubHandle, gp_SecReq->gp_SecData.GPDFSecLvl) )
   \   0000A9   85..82       MOV       DPL,?V4
   \   0000AC   85..83       MOV       DPH,?V5
   \   0000AF   E0           MOVX      A,@DPTR
   \   0000B0   C0E0         PUSH      A
   \   0000B2   7401         MOV       A,#0x1
   \   0000B4   12....       LCALL     ?XSTACK_DISP0_8
   \   0000B7   D0E0         POP       A
   \   0000B9   12....       LCALL     ?Subroutine9 & 0xFFFF
   \                     ??CrossCallReturnLabel_10:
   \   0000BC   F9           MOV       R1,A
   \   0000BD   12....       LCALL     `??gp_DataIndGet::?relay`; Banked call to: gp_DataIndGet
   \   0000C0   EA           MOV       A,R2
   \   0000C1   4B           ORL       A,R3
   \   0000C2   7003         JNZ       $+5
   \   0000C4   02....       LJMP      ??GP_SecReq_2 & 0xFFFF
   \   0000C7   90....       MOV       DPTR,#gp_DataIndList
   \   0000CA   8039         SJMP      ??GP_SecReq_3
   \                     ??GP_SecReq_4:
   \   0000CC   E5..         MOV       A,?V4
   \   0000CE   2426         ADD       A,#0x26
   \   0000D0   12....       LCALL     ?Subroutine46 & 0xFFFF
   \                     ??CrossCallReturnLabel_80:
   \   0000D3   78..         MOV       R0,#?V0
   \   0000D5   12....       LCALL     ?L_MOV_X
   \   0000D8   EA           MOV       A,R2
   \   0000D9   2426         ADD       A,#0x26
   \   0000DB   F582         MOV       DPL,A
   \   0000DD   E4           CLR       A
   \   0000DE   3B           ADDC      A,R3
   \   0000DF   F583         MOV       DPH,A
   \   0000E1   78..         MOV       R0,#?V0
   \   0000E3   12....       LCALL     ?L_EQ_X
   \   0000E6   7014         JNZ       ??GP_SecReq_5
   \                     ??GP_SecReq_6:
   \   0000E8   8A82         MOV       DPL,R2
   \   0000EA   8B83         MOV       DPH,R3
   \   0000EC   A3           INC       DPTR
   \   0000ED   A3           INC       DPTR
   \   0000EE   E0           MOVX      A,@DPTR
   \   0000EF   F8           MOV       R0,A
   \   0000F0   85..82       MOV       DPL,?V4
   \   0000F3   85..83       MOV       DPH,?V5
   \   0000F6   A3           INC       DPTR
   \   0000F7   A3           INC       DPTR
   \   0000F8   E0           MOVX      A,@DPTR
   \   0000F9   68           XRL       A,R0
   \   0000FA   7052         JNZ       ??GP_SecReq_7
   \                     ??GP_SecReq_5:
   \   0000FC   85..82       MOV       DPL,?V4
   \   0000FF   85..83       MOV       DPH,?V5
   \   000102   A3           INC       DPTR
   \   000103   A3           INC       DPTR
   \   000104   A3           INC       DPTR
   \                     ??GP_SecReq_3:
   \   000105   E0           MOVX      A,@DPTR
   \   000106   F5..         MOV       ?V4,A
   \   000108   A3           INC       DPTR
   \   000109   E0           MOVX      A,@DPTR
   \   00010A   F5..         MOV       ?V5,A
   \   00010C   E5..         MOV       A,?V4
   \   00010E   45..         ORL       A,?V5
   \   000110   605F         JZ        ??GP_SecReq_8
   \   000112   7401         MOV       A,#0x1
   \   000114   12....       LCALL     ?XSTACK_DISP0_8
   \   000117   E0           MOVX      A,@DPTR
   \   000118   70B2         JNZ       ??GP_SecReq_4
   \   00011A   EA           MOV       A,R2
   \   00011B   2410         ADD       A,#0x10
   \   00011D   F582         MOV       DPL,A
   \   00011F   E4           CLR       A
   \   000120   3B           ADDC      A,R3
   \   000121   F583         MOV       DPH,A
   \   000123   E0           MOVX      A,@DPTR
   \   000124   F8           MOV       R0,A
   \   000125   E5..         MOV       A,?V4
   \   000127   2410         ADD       A,#0x10
   \   000129   12....       LCALL     ?Subroutine46 & 0xFFFF
   \                     ??CrossCallReturnLabel_81:
   \   00012C   E0           MOVX      A,@DPTR
   \   00012D   68           XRL       A,R0
   \   00012E   70CC         JNZ       ??GP_SecReq_5
   \   000130   EA           MOV       A,R2
   \   000131   241C         ADD       A,#0x1c
   \   000133   F582         MOV       DPL,A
   \   000135   E4           CLR       A
   \   000136   3B           ADDC      A,R3
   \   000137   F583         MOV       DPH,A
   \   000139   E0           MOVX      A,@DPTR
   \   00013A   F8           MOV       R0,A
   \   00013B   E5..         MOV       A,?V4
   \   00013D   241C         ADD       A,#0x1c
   \   00013F   12....       LCALL     ?Subroutine46 & 0xFFFF
   \                     ??CrossCallReturnLabel_82:
   \   000142   E0           MOVX      A,@DPTR
   \   000143   68           XRL       A,R0
   \   000144   70B6         JNZ       ??GP_SecReq_5
   \   000146   80A0         SJMP      ??GP_SecReq_6
   \                     ??GP_SecReq_2:
   \   000148   E5..         MOV       A,?V4
   \   00014A   45..         ORL       A,?V5
   \   00014C   6023         JZ        ??GP_SecReq_8
   1872            {  //Check if the entry exist
   1873              if ( gp_getProxyTableByGpId(&gp_SecReq->gpd_ID, ProxyTableEntryTemp, NULL) == ZSuccess )
   \                     ??GP_SecReq_7:
   \   00014E                ; Setup parameters for call to function gp_getProxyTableByGpId
   \   00014E   E4           CLR       A
   \   00014F   F5..         MOV       ?V0,A
   \   000151   F5..         MOV       ?V1,A
   \   000153   78..         MOV       R0,#?V0
   \   000155   12....       LCALL     ?PUSH_XSTACK_I_TWO
   \   000158   7414         MOV       A,#0x14
   \   00015A   12....       LCALL     ?XSTACK_DISP102_8
   \   00015D   E5..         MOV       A,?V6
   \   00015F   2402         ADD       A,#0x2
   \   000161   FA           MOV       R2,A
   \   000162   E4           CLR       A
   \   000163   35..         ADDC      A,?V7
   \   000165   FB           MOV       R3,A
   \   000166   12....       LCALL     `??gp_getProxyTableByGpId::?relay`; Banked call to: gp_getProxyTableByGpId
   \   000169   7402         MOV       A,#0x2
   \   00016B   12....       LCALL     ?DEALLOC_XSTACK8
   \   00016E   E9           MOV       A,R1
   \   00016F   6061         JZ        ??GP_SecReq_9
   1874              {
   1875                gp_SecRsp->Status = GP_SEC_RSP_DROP_FRAME;
   1876                osal_msg_send(gp_TaskID,(uint8*)gp_SecRsp);
   1877          
   1878                return TRUE;
   1879              }
   1880            }
   1881            
   1882            temp = gp_DataIndGet(gp_SecReq->dGPStubHandle);
   \                     ??GP_SecReq_8:
   \   000171                ; Setup parameters for call to function gp_DataIndGet
   \   000171   12....       LCALL     ?Subroutine53 & 0xFFFF
   \                     ??CrossCallReturnLabel_92:
   \   000174   F9           MOV       R1,A
   \   000175   12....       LCALL     `??gp_DataIndGet::?relay`; Banked call to: gp_DataIndGet
   1883              
   1884            //Section A.3.7.3.3
   1885            status = gp_SecurityOperationProxy(temp,&KeyType,Key);
   \   000178                ; Setup parameters for call to function gp_SecurityOperationProxy
   \   000178   7402         MOV       A,#0x2
   \   00017A   12....       LCALL     ?XSTACK_DISP100_8
   \   00017D   88..         MOV       ?V0,R0
   \   00017F   89..         MOV       ?V1,R1
   \   000181   78..         MOV       R0,#?V0
   \   000183   12....       LCALL     ?PUSH_XSTACK_I_TWO
   \   000186   7402         MOV       A,#0x2
   \   000188   12....       LCALL     ?XSTACK_DISP102_8
   \   00018B   12....       LCALL     `??gp_SecurityOperationProxy::?relay`; Banked call to: gp_SecurityOperationProxy
   \   00018E   7402         MOV       A,#0x2
   \   000190   12....       LCALL     ?DEALLOC_XSTACK8
   \   000193   E9           MOV       A,R1
   \   000194   F5..         MOV       ?V0,A
   1886          
   1887            switch(status)
   \   000196   603A         JZ        ??GP_SecReq_9
   \   000198   14           DEC       A
   \   000199   6015         JZ        ??GP_SecReq_10
   \   00019B   14           DEC       A
   \   00019C   6008         JZ        ??GP_SecReq_11
   \   00019E   14           DEC       A
   \   00019F   600F         JZ        ??GP_SecReq_10
   \   0001A1   14           DEC       A
   \   0001A2   602E         JZ        ??GP_SecReq_9
   \   0001A4   8061         SJMP      ??GP_SecReq_12
   1888            {
   1889              case GP_SEC_RSP_ERROR:  //This should not happen
   1890              case GP_SEC_RSP_DROP_FRAME:
   1891                gp_SecRsp->Status = GP_SEC_RSP_DROP_FRAME;
   1892              break;
   1893              
   1894              case GP_SEC_RSP_PASS_UNPROCESSED:  
   1895                gp_SecRsp->Status = GP_SEC_RSP_PASS_UNPROCESSED;
   \                     ??GP_SecReq_11:
   \   0001A6   8E82         MOV       DPL,R6
   \   0001A8   8F83         MOV       DPH,R7
   \   0001AA   A3           INC       DPTR
   \   0001AB   A3           INC       DPTR
   \   0001AC   7402         MOV       A,#0x2
   \   0001AE   8029         SJMP      ??GP_SecReq_13
   1896              break;
   1897              
   1898              case GP_SEC_RSP_MATCH:
   1899              case GP_SEC_RSP_TX_THEN_DROP:
   1900                if(GP_RecoveryKey(gp_SecReq->gp_SecData.GPDFKeyType,KeyType,status,Key) == GP_SEC_RSP_DROP_FRAME)
   \                     ??GP_SecReq_10:
   \   0001B0                ; Setup parameters for call to function GP_RecoveryKey
   \   0001B0   7402         MOV       A,#0x2
   \   0001B2   12....       LCALL     ?XSTACK_DISP102_8
   \   0001B5   AB..         MOV       R3,?V0
   \   0001B7   85..82       MOV       DPL,?XSP + 0
   \   0001BA   85..83       MOV       DPH,?XSP + 1
   \   0001BD   E0           MOVX      A,@DPTR
   \   0001BE   FA           MOV       R2,A
   \   0001BF   E5..         MOV       A,?V6
   \   0001C1   240D         ADD       A,#0xd
   \   0001C3   F582         MOV       DPL,A
   \   0001C5   E4           CLR       A
   \   0001C6   35..         ADDC      A,?V7
   \   0001C8   F583         MOV       DPH,A
   \   0001CA   E0           MOVX      A,@DPTR
   \   0001CB   F9           MOV       R1,A
   \   0001CC   12....       LCALL     `??GP_RecoveryKey::?relay`; Banked call to: GP_RecoveryKey
   \   0001CF   E9           MOV       A,R1
   \   0001D0   700A         JNZ       ??GP_SecReq_14
   1901                {
   1902                  gp_SecRsp->Status = GP_SEC_RSP_DROP_FRAME;
   \                     ??GP_SecReq_9:
   \   0001D2   8E82         MOV       DPL,R6
   \   0001D4   8F83         MOV       DPH,R7
   \   0001D6   A3           INC       DPTR
   \   0001D7   A3           INC       DPTR
   \   0001D8   E4           CLR       A
   \                     ??GP_SecReq_13:
   \   0001D9   F0           MOVX      @DPTR,A
   \   0001DA   802B         SJMP      ??GP_SecReq_12
   1903                }
   1904                else
   1905                {
   1906                  gp_SecRsp->Status = status;
   \                     ??GP_SecReq_14:
   \   0001DC   8E82         MOV       DPL,R6
   \   0001DE   8F83         MOV       DPH,R7
   \   0001E0   A3           INC       DPTR
   \   0001E1   A3           INC       DPTR
   \   0001E2   E5..         MOV       A,?V0
   \   0001E4   F0           MOVX      @DPTR,A
   1907                  osal_memcpy(gp_SecRsp->GPDKey,Key,SEC_KEY_LEN);
   \   0001E5                ; Setup parameters for call to function osal_memcpy
   \   0001E5   7402         MOV       A,#0x2
   \   0001E7   12....       LCALL     ?XSTACK_DISP100_8
   \   0001EA   88..         MOV       ?V0,R0
   \   0001EC   75..00       MOV       ?V2,#0x0
   \   0001EF   78..         MOV       R0,#?V0
   \   0001F1   12....       LCALL     ?PUSH_XSTACK_I_THREE
   \   0001F4   7C10         MOV       R4,#0x10
   \   0001F6   7D00         MOV       R5,#0x0
   \   0001F8   EE           MOV       A,R6
   \   0001F9   2414         ADD       A,#0x14
   \   0001FB   FA           MOV       R2,A
   \   0001FC   E4           CLR       A
   \   0001FD   3F           ADDC      A,R7
   \   0001FE   FB           MOV       R3,A
   \   0001FF   12....       LCALL     `??osal_memcpy::?relay`; Banked call to: osal_memcpy
   \   000202   7403         MOV       A,#0x3
   \   000204   12....       LCALL     ?DEALLOC_XSTACK8
   1908                }
   1909              break;
   1910            }
   1911          
   1912          
   1913            osal_msg_send(gp_TaskID,(uint8*)gp_SecRsp);
   \                     ??GP_SecReq_12:
   \   000207                ; Setup parameters for call to function osal_msg_send
   \   000207   EE           MOV       A,R6
   \   000208   FA           MOV       R2,A
   \   000209   EF           MOV       A,R7
   \   00020A   FB           MOV       R3,A
   \   00020B   90....       MOV       DPTR,#gp_TaskID
   \   00020E   E0           MOVX      A,@DPTR
   \   00020F   F9           MOV       R1,A
   \   000210   12....       LCALL     `??osal_msg_send::?relay`; Banked call to: osal_msg_send
   1914            return TRUE;
   \   000213   7901         MOV       R1,#0x1
   \                     ??GP_SecReq_1:
   \   000215   7453         MOV       A,#0x53
   \   000217   02....       LJMP      ?Subroutine1 & 0xFFFF
   1915          }

   \                                 In  segment BANKED_CODE, align 1, keep-with-next
   \                     ?Subroutine9:
   \   000000   F0           MOVX      @DPTR,A
   \   000001                ; Setup parameters for call to function gp_DataIndGet
   \   000001   12....       LCALL     ?Subroutine53 & 0xFFFF
   \                     ??CrossCallReturnLabel_93:
   \   000004   22           RET

   \                                 In  segment BANKED_CODE, align 1, keep-with-next
   \                     ?Subroutine53:
   \   000000   E5..         MOV       A,?V6
   \   000002   2412         ADD       A,#0x12
   \   000004   F582         MOV       DPL,A
   \   000006   E4           CLR       A
   \   000007   35..         ADDC      A,?V7
   \   000009   F583         MOV       DPH,A
   \   00000B   E0           MOVX      A,@DPTR
   \   00000C   22           RET
   1916          
   1917          /*********************************************************************
   1918           * @fn          GP_RecoveryKey
   1919           *
   1920           * @brief       Procedure to retrive the key to be used to decrypt the GPDF
   1921           *
   1922           * @param       GPDFKeyType   KeyType from the GPDF
   1923           * @param       KeyType       Key type in the Proxy table entry for this GPD
   1924           * @param       Status        Previous status to search key (MATCH, TX_THEN_DROP)
   1925           * @param       Key[out]      Key to be used
   1926           *                       
   1927           * @return      Status
   1928           */

   \                                 In  segment BANKED_CODE, align 1, keep-with-next
   1929          uint8 GP_RecoveryKey(uint8 GPDFKeyType,uint8 KeyType, uint8 status, uint8 *Key)
   \                     GP_RecoveryKey:
   1930          {
   \   000000                REQUIRE ?V0
   \   000000                REQUIRE ?V1
   \   000000                REQUIRE ?V2
   \   000000                REQUIRE ?V3
   \   000000                REQUIRE ?V4
   \   000000                REQUIRE ?V5
   \   000000                REQUIRE ?V6
   \   000000   74F1         MOV       A,#-0xf
   \   000002   12....       LCALL     ?BANKED_ENTER_XDATA
   \   000005                ; Saved register size: 15
   \   000005                ; Auto size: 21
   \   000005   74EB         MOV       A,#-0x15
   \   000007   12....       LCALL     ?ALLOC_XSTACK8
   \   00000A   7401         MOV       A,#0x1
   \   00000C   12....       LCALL     ?XSTACK_DISP0_8
   \   00000F   12....       LCALL     ?Subroutine18 & 0xFFFF
   1931            //TODO: A.3.7.3.4 Incoming frames: key recovery
   1932            if(GPDFKeyType)
   \                     ??CrossCallReturnLabel_30:
   \   000012   E9           MOV       A,R1
   \   000013   6072         JZ        ??GP_RecoveryKey_0
   1933            {
   1934              uint8 TempKey[SEC_KEY_LEN] = {0xFF};
   \   000015   90....       MOV       DPTR,#`?<Constant {255, 0, 0, 0, 0, 0, 0, 0, 0, 0, 0,`
   \   000018   7405         MOV       A,#0x5
   \   00001A   12....       LCALL     ?XSTACK_DISP102_8
   \   00001D   7410         MOV       A,#0x10
   \   00001F   12....       LCALL     ?MOVE_LONG8_XDATA_XDATA
   1935              if(KeyType == GP_SECURITY_KEY_TYPE_OUT_OF_BOX_GPD_KEY)
   \   000022   7405         MOV       A,#0x5
   \   000024   12....       LCALL     ?XSTACK_DISP100_8
   \   000027   88..         MOV       ?V4,R0
   \   000029   89..         MOV       ?V5,R1
   \   00002B   7401         MOV       A,#0x1
   \   00002D   12....       LCALL     ?XSTACK_DISP100_8
   \   000030   88..         MOV       ?V0,R0
   \   000032   89..         MOV       ?V1,R1
   \   000034   A9..         MOV       R1,?V0
   \   000036   AA..         MOV       R2,?V1
   \   000038   7B00         MOV       R3,#0x0
   \   00003A   7404         MOV       A,#0x4
   \   00003C   6E           XRL       A,R6
   \   00003D   7023         JNZ       ??GP_RecoveryKey_1
   1936              {
   1937                //Is the key of the Proxy table entry empty?
   1938                if(osal_memcmp(&Key,&TempKey,SEC_KEY_LEN))
   \   00003F                ; Setup parameters for call to function osal_memcmp
   \   00003F   85....       MOV       ?V0,?V4
   \   000042   85....       MOV       ?V1,?V5
   \   000045   8B..         MOV       ?V2,R3
   \   000047   78..         MOV       R0,#?V0
   \   000049   12....       LCALL     ?PUSH_XSTACK_I_THREE
   \   00004C   7C10         MOV       R4,#0x10
   \   00004E   7D00         MOV       R5,#0x0
   \   000050   12....       LCALL     `??osal_memcmp::?relay`; Banked call to: osal_memcmp
   \   000053   7403         MOV       A,#0x3
   \   000055   12....       LCALL     ?DEALLOC_XSTACK8
   \   000058   E9           MOV       A,R1
   \   000059   6028         JZ        ??GP_RecoveryKey_2
   1939                {
   1940                  return GP_SEC_RSP_DROP_FRAME;
   1941                }          
   1942                else
   1943                {
   1944                  //There is a key, then use it
   1945                  return status;
   1946                }
   1947              }
   1948              else if(KeyType == GP_SECURITY_KEY_TYPE_DERIVED_IND_GPD_KEY)
   1949              {
   1950                //Is the key of the Proxy table entry empty?
   1951                if(osal_memcmp(&Key,&TempKey,SEC_KEY_LEN))
   1952                {
   1953                  return GP_SEC_RSP_DROP_FRAME;
   1954                }  
   1955                //There is a key, then use it. Derived keys are provided by the Sink 
   1956                //device at paring time according to A.3.7.1.2.2
   1957                return status;
   1958              }
   1959              else
   1960              {
   1961                return GP_SEC_RSP_DROP_FRAME;
   1962              }
   1963            }
   1964            else
   1965            {
   1966              uint8  gpSharedSecKeyType;
   1967              uint16 AttLen;
   1968              uint8 TempKey[SEC_KEY_LEN] = {0xFF};
   1969          
   1970              //Get the SharedKeyType Attribute
   1971              zcl_ReadAttrData(GREEN_POWER_INTERNAL_ENDPOINT,ZCL_CLUSTER_ID_GREEN_POWER,ATTRID_GP_SHARED_SEC_KEY_TYPE,&gpSharedSecKeyType,&AttLen);
   1972          
   1973              if(KeyType == gpSharedSecKeyType)
   1974              {
   1975                if(!osal_memcmp(TempKey,zgpSharedKey,SEC_KEY_LEN))
   1976                {
   1977                  //Use key shared key
   1978                  osal_memcpy(Key,zgpSharedKey,SEC_KEY_LEN);
   1979                  return status;
   1980                }
   1981              }
   1982              if(KeyType == GP_SECURITY_KEY_TYPE_ZIGBEE_NWK_KEY)
   1983              {
   1984                ZDSecMgrReadKeyFromNv(ZCD_NV_PRECFGKEY,Key);
   1985              }
   1986              //There is a key, then use it. Derived keys are provided by the Sink 
   1987              //device at paring time according to A.3.7.1.2.2
   1988              else
   1989              {
   1990                return GP_SEC_RSP_DROP_FRAME;
   \                     ??GP_RecoveryKey_3:
   \   00005B   7900         MOV       R1,#0x0
   \                     ??GP_RecoveryKey_4:
   \   00005D   7415         MOV       A,#0x15
   1991              }
   \   00005F   02....       LJMP      ?Subroutine2 & 0xFFFF
   \                     ??GP_RecoveryKey_1:
   \   000062   7407         MOV       A,#0x7
   \   000064   6E           XRL       A,R6
   \   000065   70F4         JNZ       ??GP_RecoveryKey_3
   \   000067                ; Setup parameters for call to function osal_memcmp
   \   000067   85....       MOV       ?V0,?V4
   \   00006A   85....       MOV       ?V1,?V5
   \   00006D   8B..         MOV       ?V2,R3
   \   00006F   78..         MOV       R0,#?V0
   \   000071   12....       LCALL     ?PUSH_XSTACK_I_THREE
   \   000074   7C10         MOV       R4,#0x10
   \   000076   7D00         MOV       R5,#0x0
   \   000078   12....       LCALL     `??osal_memcmp::?relay`; Banked call to: osal_memcmp
   \   00007B   7403         MOV       A,#0x3
   \   00007D   12....       LCALL     ?DEALLOC_XSTACK8
   \   000080   E9           MOV       A,R1
   \   000081   70D8         JNZ       ??GP_RecoveryKey_3
   \                     ??GP_RecoveryKey_2:
   \   000083   EF           MOV       A,R7
   \   000084   F9           MOV       R1,A
   \   000085   80D6         SJMP      ??GP_RecoveryKey_4
   \                     ??GP_RecoveryKey_0:
   \   000087   90....       MOV       DPTR,#`?<Constant {255, 0, 0, 0, 0, 0, 0, 0, 0, 0, 0,_1`
   \   00008A   7405         MOV       A,#0x5
   \   00008C   12....       LCALL     ?XSTACK_DISP102_8
   \   00008F   7410         MOV       A,#0x10
   \   000091   12....       LCALL     ?MOVE_LONG8_XDATA_XDATA
   \   000094                ; Setup parameters for call to function zcl_ReadAttrData
   \   000094   7403         MOV       A,#0x3
   \   000096   12....       LCALL     ?XSTACK_DISP100_8
   \   000099   88..         MOV       ?V0,R0
   \   00009B   89..         MOV       ?V1,R1
   \   00009D   78..         MOV       R0,#?V0
   \   00009F   12....       LCALL     ?PUSH_XSTACK_I_TWO
   \   0000A2   7402         MOV       A,#0x2
   \   0000A4   12....       LCALL     ?XSTACK_DISP100_8
   \   0000A7   88..         MOV       ?V0,R0
   \   0000A9   89..         MOV       ?V1,R1
   \   0000AB   78..         MOV       R0,#?V0
   \   0000AD   12....       LCALL     ?PUSH_XSTACK_I_TWO
   \   0000B0   7C20         MOV       R4,#0x20
   \   0000B2   7D00         MOV       R5,#0x0
   \   0000B4   7A21         MOV       R2,#0x21
   \   0000B6   7B00         MOV       R3,#0x0
   \   0000B8   79F2         MOV       R1,#-0xe
   \   0000BA   12....       LCALL     `??zcl_ReadAttrData::?relay`; Banked call to: zcl_ReadAttrData
   \   0000BD   7404         MOV       A,#0x4
   \   0000BF   12....       LCALL     ?DEALLOC_XSTACK8
   \   0000C2   85..82       MOV       DPL,?XSP + 0
   \   0000C5   85..83       MOV       DPH,?XSP + 1
   \   0000C8   E0           MOVX      A,@DPTR
   \   0000C9   6E           XRL       A,R6
   \   0000CA   7044         JNZ       ??GP_RecoveryKey_5
   \   0000CC   75....       MOV       ?V0,#zgpSharedKey & 0xff
   \   0000CF   75....       MOV       ?V1,#(zgpSharedKey >> 8) & 0xff
   \   0000D2   75..80       MOV       ?V2,#-0x80
   \   0000D5                ; Setup parameters for call to function osal_memcmp
   \   0000D5   78..         MOV       R0,#?V0
   \   0000D7   12....       LCALL     ?PUSH_XSTACK_I_THREE
   \   0000DA   7C10         MOV       R4,#0x10
   \   0000DC   7D00         MOV       R5,#0x0
   \   0000DE   7408         MOV       A,#0x8
   \   0000E0   12....       LCALL     ?XSTACK_DISP0_8
   \   0000E3   A982         MOV       R1,DPL
   \   0000E5   AA83         MOV       R2,DPH
   \   0000E7   7B00         MOV       R3,#0x0
   \   0000E9   12....       LCALL     `??osal_memcmp::?relay`; Banked call to: osal_memcmp
   \   0000EC   7403         MOV       A,#0x3
   \   0000EE   12....       LCALL     ?DEALLOC_XSTACK8
   \   0000F1   E9           MOV       A,R1
   \   0000F2   701C         JNZ       ??GP_RecoveryKey_5
   \   0000F4                ; Setup parameters for call to function osal_memcpy
   \   0000F4   78..         MOV       R0,#?V0
   \   0000F6   12....       LCALL     ?PUSH_XSTACK_I_THREE
   \   0000F9   7C10         MOV       R4,#0x10
   \   0000FB   7D00         MOV       R5,#0x0
   \   0000FD   7404         MOV       A,#0x4
   \   0000FF   12....       LCALL     ?XSTACK_DISP0_8
   \   000102   12....       LCALL     ??Subroutine68_0 & 0xFFFF
   \                     ??CrossCallReturnLabel_170:
   \   000105   12....       LCALL     `??osal_memcpy::?relay`; Banked call to: osal_memcpy
   \   000108   7403         MOV       A,#0x3
   \   00010A   12....       LCALL     ?DEALLOC_XSTACK8
   \   00010D   02....       LJMP      ??GP_RecoveryKey_2 & 0xFFFF
   \                     ??GP_RecoveryKey_5:
   \   000110   7401         MOV       A,#0x1
   \   000112   6E           XRL       A,R6
   \   000113   6003         JZ        $+5
   \   000115   02....       LJMP      ??GP_RecoveryKey_3 & 0xFFFF
   \   000118                ; Setup parameters for call to function ZDSecMgrReadKeyFromNv
   \   000118   7401         MOV       A,#0x1
   \   00011A   12....       LCALL     ?XSTACK_DISP0_8
   \   00011D   12....       LCALL     ?Subroutine33 & 0xFFFF
   1992            }
   \                     ??CrossCallReturnLabel_51:
   \   000120   7A62         MOV       R2,#0x62
   \   000122   7B00         MOV       R3,#0x0
   \   000124   12....       LCALL     `??ZDSecMgrReadKeyFromNv::?relay`; Banked call to: ZDSecMgrReadKeyFromNv
   \   000127   02....       LJMP      ??GP_RecoveryKey_2 & 0xFFFF
   1993            return status;
   1994          }
   1995          
   1996          
   1997          gp_DataInd_t* gp_DataIndFindDuplicate(uint8 handle, uint8 secLvl)
   1998          {
   1999            gp_DataInd_t* temp;
   2000            gp_DataInd_t* tempList;
   2001            temp = gp_DataIndGet(handle);
   2002            
   2003            if(temp != NULL)
   2004            {
   2005              tempList = gp_DataIndList;
   2006              
   2007              while(tempList != NULL)
   2008              {
   2009                //search for MAC seq num
   2010                if(secLvl == 0)
   2011                {
   2012                  if((temp->SeqNumber == tempList->SeqNumber) && (temp->appID == tempList->appID)&&
   2013                     (temp->SecReqHandling.dGPStubHandle != tempList->SecReqHandling.dGPStubHandle))
   2014                  {
   2015                    break;
   2016                  }
   2017                }
   2018                //Other secLevels uses SecFrameCounter
   2019                else
   2020                {
   2021                  if((temp->GPDSecFrameCounter == tempList->GPDSecFrameCounter) && 
   2022                     (temp->SecReqHandling.dGPStubHandle != tempList->SecReqHandling.dGPStubHandle))
   2023                  {
   2024                    
   2025                    break;
   2026                  }
   2027                }
   2028                tempList = tempList->SecReqHandling.next;
   2029              }
   2030            }
   2031            return tempList;
   2032          }
   2033           
   2034          /*********************************************************************
   2035           * @fn          GP_DataCnf
   2036           *
   2037           * @brief       Primitive to notify GP EndPoint the status of a previews DataReq
   2038           *
   2039           * @param       gp_DataCnf
   2040           *
   2041           * @return      none
   2042           */

   \                                 In  segment BANKED_CODE, align 1, keep-with-next
   2043          void GP_DataCnf(gp_DataCnf_t *gp_DataCnf)
   \                     GP_DataCnf:
   2044          {
   \   000000                ; Saved register size: 0
   \   000000                ; Auto size: 0
   2045            //Current spec does not mandates to do anything with this.
   2046            switch(gp_DataCnf->status)
   2047            {
   2048              case GP_DATA_CNF_TX_QUEUE_FULL:
   2049              case GP_DATA_CNF_ENTRY_REPLACED:
   2050              case GP_DATA_CNF_ENTRY_ADDED:
   2051              case GP_DATA_CNF_ENTRY_EXPIRED:
   2052              case GP_DATA_CNF_ENTRY_REMOVED:
   2053              case GP_DATA_CNF_GPDF_SENDING_FINALIZED:
   2054              break;
   2055            }  
   2056          }
   \   000000   02....       LJMP      ?BRET
   2057          
   2058           /*********************************************************************
   2059           * PRIVATE FUNCTIONS
   2060           *********************************************************************/
   2061          

   \                                 In  segment BANKED_CODE, align 1, keep-with-next
   2062          void gp_RegisterCommissioningModeCB(gpCommissioningMode_t gpCommissioningMode)
   \                     gp_RegisterCommissioningModeCB:
   2063          {
   \   000000   C082         PUSH      DPL
   \   000002   C083         PUSH      DPH
   \   000004                ; Saved register size: 2
   \   000004                ; Auto size: 0
   2064            if(gpCommissioningMode)
   \   000004   EA           MOV       A,R2
   \   000005   4B           ORL       A,R3
   \   000006   6006         JZ        ??CrossCallReturnLabel_26
   2065            {
   2066               pfnCommissioningMode = gpCommissioningMode;
   \   000008   90....       MOV       DPTR,#pfnCommissioningMode
   \   00000B   12....       LCALL     ?Subroutine17 & 0xFFFF
   2067            }
   2068          }
   \                     ??CrossCallReturnLabel_26:
   \   00000E   02....       LJMP      ??Subroutine55_0 & 0xFFFF
   2069          
   2070          /*********************************************************************
   2071           * @fn          gp_RegisterGPChangeChannelReqCB
   2072           *
   2073           * @brief       Register a callback in which the application will be notified about a change
   2074           *              of channel for at most gpBirectionalCommissioningChangeChannelTimeout ms
   2075           *              to perform GP bidirectional commissioning in the channel parameter.
   2076           *
   2077           * @param       gpChangeChannelReq
   2078           *
   2079           * @return      none
   2080           */

   \                                 In  segment BANKED_CODE, align 1, keep-with-next
   2081          void gp_RegisterGPChangeChannelReqCB(gpChangeChannelReq_t gpChangeChannelReq)
   \                     gp_RegisterGPChangeChannelReqCB:
   2082          {
   \   000000   C082         PUSH      DPL
   \   000002   C083         PUSH      DPH
   \   000004                ; Saved register size: 2
   \   000004                ; Auto size: 0
   2083            if(gpChangeChannelReq)
   \   000004   EA           MOV       A,R2
   \   000005   4B           ORL       A,R3
   \   000006   6006         JZ        ??CrossCallReturnLabel_27
   2084            {
   2085              pfnChangeChannelReq = gpChangeChannelReq;
   \   000008   90....       MOV       DPTR,#pfnChangeChannelReq
   \   00000B   12....       LCALL     ?Subroutine17 & 0xFFFF
   2086            }
   2087          }
   \                     ??CrossCallReturnLabel_27:
   \   00000E   02....       LJMP      ??Subroutine55_0 & 0xFFFF
   2088          
   2089          /*********************************************************************
   2090           * @fn          gp_RegisterGPChangeChannelReqForBDBCB
   2091           *
   2092           * @brief       Register a callback in which the bdb will be notified about a change
   2093           *              of channel for at most gpBirectionalCommissioningChangeChannelTimeout ms
   2094           *              to perform GP bidirectional commissioning in the channel parameter.
   2095           *
   2096           * @param       gpChangeChannelReq
   2097           *
   2098           * @return      none
   2099           */

   \                                 In  segment BANKED_CODE, align 1, keep-with-next
   2100          void gp_RegisterGPChangeChannelReqForBDBCB(gpChangeChannelReq_t gpChangeChannelReq)
   \                     gp_RegisterGPChangeChannelReqForBDBCB:
   2101          {
   \   000000   C082         PUSH      DPL
   \   000002   C083         PUSH      DPH
   \   000004                ; Saved register size: 2
   \   000004                ; Auto size: 0
   2102            if(gpChangeChannelReq)
   \   000004   EA           MOV       A,R2
   \   000005   4B           ORL       A,R3
   \   000006   6006         JZ        ??CrossCallReturnLabel_28
   2103            {
   2104              pfnChangeChannelReqForBDB = gpChangeChannelReq;
   \   000008   90....       MOV       DPTR,#pfnChangeChannelReqForBDB
   \   00000B   12....       LCALL     ?Subroutine17 & 0xFFFF
   2105            }
   2106          }
   \                     ??CrossCallReturnLabel_28:
   \   00000E   02....       LJMP      ??Subroutine55_0 & 0xFFFF
   2107          
   2108          
   2109          
   2110          
   2111          /*********************************************************************
   2112           * @fn          gp_returnOperationalChannel
   2113           *
   2114           * @brief       Return to the operational channel after bidirectional commissioning
   2115           *
   2116           * @param       none
   2117           *
   2118           * @return      none
   2119           */

   \                                 In  segment BANKED_CODE, align 1, keep-with-next
   2120          void gp_returnOperationalChannel(void)
   \                     gp_returnOperationalChannel:
   2121          {
   \   000000   C082         PUSH      DPL
   \   000002   C083         PUSH      DPH
   \   000004                ; Saved register size: 2
   \   000004                ; Auto size: 21
   \   000004   74EB         MOV       A,#-0x15
   \   000006   12....       LCALL     ?ALLOC_XSTACK8
   2122            gp_DataReq_t gp_DataReq;
   2123            _NIB.nwkLogicalChannel = gp_tempLogicalChannel;
   \   000009   90....       MOV       DPTR,#gp_tempLogicalChannel
   \   00000C   E0           MOVX      A,@DPTR
   \   00000D   90....       MOV       DPTR,#_NIB + 22
   \   000010   F0           MOVX      @DPTR,A
   2124            ZMacSetReq( ZMacChannel, &(_NIB.nwkLogicalChannel) );
   \   000011                ; Setup parameters for call to function ZMacSetReq
   \   000011   7A..         MOV       R2,#(_NIB + 22) & 0xff
   \   000013   7B..         MOV       R3,#((_NIB + 22) >> 8) & 0xff
   \   000015   79E1         MOV       R1,#-0x1f
   \   000017   12....       LCALL     `??ZMacSetReq::?relay`; Banked call to: ZMacSetReq
   2125            osal_stop_timerEx(gp_TaskID,GP_CHANNEL_CONFIGURATION_TIMEOUT);
   \   00001A                ; Setup parameters for call to function osal_stop_timerEx
   \   00001A   7A08         MOV       R2,#0x8
   \   00001C   7B00         MOV       R3,#0x0
   \   00001E   90....       MOV       DPTR,#gp_TaskID
   \   000021   E0           MOVX      A,@DPTR
   \   000022   F9           MOV       R1,A
   \   000023   12....       LCALL     `??osal_stop_timerEx::?relay`; Banked call to: osal_stop_timerEx
   2126            
   2127            gp_DataReq.Action = 0;
   \   000026   7402         MOV       A,#0x2
   \   000028   12....       LCALL     ?XSTACK_DISP0_8
   \   00002B   E4           CLR       A
   \   00002C   F0           MOVX      @DPTR,A
   2128            gp_DataReq.gpd_ID.AppID = GP_APP_ID_DEFAULT;
   \   00002D   7404         MOV       A,#0x4
   \   00002F   12....       LCALL     ?XSTACK_DISP0_8
   \   000032   E4           CLR       A
   \   000033   F0           MOVX      @DPTR,A
   2129            gp_DataReq.gpd_ID.GPDId.SrcID = 0;
   \   000034   7405         MOV       A,#0x5
   \   000036   12....       LCALL     ?XSTACK_DISP0_8
   \   000039   E4           CLR       A
   \   00003A   12....       LCALL     ??Subroutine56_0 & 0xFFFF
   2130            
   2131            GP_DataReq(&gp_DataReq);
   \                     ??CrossCallReturnLabel_97:
   \   00003D                ; Setup parameters for call to function GP_DataReq
   \   00003D   AA..         MOV       R2,?XSP + 0
   \   00003F   AB..         MOV       R3,?XSP + 1
   \   000041   12....       LCALL     `??GP_DataReq::?relay`; Banked call to: GP_DataReq
   2132          }
   \   000044   7415         MOV       A,#0x15
   \   000046   02....       LJMP      ?Subroutine0 & 0xFFFF
   2133          
   2134               
   2135           /*********************************************************************
   2136           * @fn          gp_expireDuplicateFiltering
   2137           *
   2138           * @brief       Process the expiration of the packets in the duplicate filtering
   2139           *              list. Assumption is the first in the queue is the first into expire.
   2140           *
   2141           * @param       none
   2142           *
   2143           * @return      none
   2144           */    

   \                                 In  segment BANKED_CODE, align 1, keep-with-next
   2145          void gp_expireDuplicateFiltering(void)
   \                     gp_expireDuplicateFiltering:
   2146          {
   \   000000                REQUIRE ?V0
   \   000000                REQUIRE ?V1
   \   000000                REQUIRE ?V2
   \   000000                REQUIRE ?V3
   \   000000   74F4         MOV       A,#-0xc
   \   000002   12....       LCALL     ?BANKED_ENTER_XDATA
   \   000005                ; Saved register size: 12
   \   000005                ; Auto size: 0
   2147            gp_DataInd_t * temp;
   2148            uint32 timeout;
   2149            
   2150            temp = gp_DataIndList;
   \   000005   90....       MOV       DPTR,#gp_DataIndList
   \   000008   E0           MOVX      A,@DPTR
   \   000009   FE           MOV       R6,A
   \   00000A   A3           INC       DPTR
   \   00000B   E0           MOVX      A,@DPTR
   \   00000C   FF           MOV       R7,A
   2151            timeout = gp_DataIndList->SecReqHandling.timeout;
   \   00000D   90....       MOV       DPTR,#gp_DataIndList
   \   000010   12....       LCALL     ??Subroutine63_0 & 0xFFFF
   \                     ??CrossCallReturnLabel_135:
   \   000013   A3           INC       DPTR
   \   000014   A3           INC       DPTR
   \   000015   A3           INC       DPTR
   \   000016   A3           INC       DPTR
   \   000017   A3           INC       DPTR
   \   000018   78..         MOV       R0,#?V0
   \   00001A   12....       LCALL     ?L_MOV_X
   \   00001D   8011         SJMP      ??gp_expireDuplicateFiltering_0
   2152            
   2153            while(temp != NULL)
   2154            {
   2155              if(timeout >= temp->SecReqHandling.timeout)
   2156              {
   2157                gp_DataInd_t *expired = temp;   
   \                     ??gp_expireDuplicateFiltering_1:
   \   00001F   EE           MOV       A,R6
   \   000020   FA           MOV       R2,A
   \   000021   EF           MOV       A,R7
   \   000022   FB           MOV       R3,A
   2158                
   2159                temp = temp->SecReqHandling.next;
   \   000023   EC           MOV       A,R4
   \   000024   FE           MOV       R6,A
   \   000025   ED           MOV       A,R5
   \   000026   FF           MOV       R7,A
   2160                gp_DataIndReleaseFromList(TRUE, expired,&gp_DataIndList);
   \   000027                ; Setup parameters for call to function gp_DataIndReleaseFromList
   \   000027   7C..         MOV       R4,#gp_DataIndList & 0xff
   \   000029   7D..         MOV       R5,#(gp_DataIndList >> 8) & 0xff
   \   00002B   7901         MOV       R1,#0x1
   \   00002D   12....       LCALL     `??gp_DataIndReleaseFromList::?relay`; Banked call to: gp_DataIndReleaseFromList
   2161              }
   \                     ??gp_expireDuplicateFiltering_0:
   \   000030   EE           MOV       A,R6
   \   000031   4F           ORL       A,R7
   \   000032   602F         JZ        ??gp_expireDuplicateFiltering_2
   \   000034   8E82         MOV       DPL,R6
   \   000036   8F83         MOV       DPH,R7
   \   000038   A3           INC       DPTR
   \   000039   A3           INC       DPTR
   \   00003A   A3           INC       DPTR
   \   00003B   12....       LCALL     ?Subroutine33 & 0xFFFF
   \                     ??CrossCallReturnLabel_52:
   \   00003E   EE           MOV       A,R6
   \   00003F   2405         ADD       A,#0x5
   \   000041   F8           MOV       R0,A
   \   000042   E4           CLR       A
   \   000043   3F           ADDC      A,R7
   \   000044   F9           MOV       R1,A
   \   000045   E8           MOV       A,R0
   \   000046   FA           MOV       R2,A
   \   000047   E9           MOV       A,R1
   \   000048   FB           MOV       R3,A
   \   000049   8A82         MOV       DPL,R2
   \   00004B   8B83         MOV       DPH,R3
   \   00004D   78..         MOV       R0,#?V0
   \   00004F   12....       LCALL     ?UL_GE_X
   \   000052   40CB         JC        ??gp_expireDuplicateFiltering_1
   2162              else
   2163              {
   2164                temp->SecReqHandling.timeout -= timeout;
   \   000054   8A82         MOV       DPL,R2
   \   000056   8B83         MOV       DPH,R3
   \   000058   78..         MOV       R0,#?V0
   \   00005A   12....       LCALL     ?L_SUB_FROM_X
   2165                temp = temp->SecReqHandling.next;
   \   00005D   EC           MOV       A,R4
   \   00005E   FE           MOV       R6,A
   \   00005F   ED           MOV       A,R5
   \   000060   FF           MOV       R7,A
   \   000061   80CD         SJMP      ??gp_expireDuplicateFiltering_0
   2166              }
   2167            }
   2168          }
   \                     ??gp_expireDuplicateFiltering_2:
   \   000063   02....       LJMP      ?Subroutine4 & 0xFFFF

   \                                 In  segment XDATA_ID, align 1, keep-with-next
   \                     `?<Initializer for zclGp_gppMaxProxyTableEntrie`:
   \   000000   05           DB 5

   \                                 In  segment XDATA_ID, align 1, keep-with-next
   \                     `?<Initializer for zclGp_gppNotificationRetryNu`:
   \   000000   02           DB 2

   \                                 In  segment XDATA_ID, align 1, keep-with-next
   \                     `?<Initializer for zclGp_gppNotificationRetryTi`:
   \   000000   64           DB 100

   \                                 In  segment XDATA_ID, align 1, keep-with-next
   \                     `?<Initializer for zclGp_gppMaxSearchCounter>`:
   \   000000   0A           DB 10

   \                                 In  segment XDATA_ID, align 1, keep-with-next
   \                     `?<Initializer for zclGp_gppFunctionality>`:
   \   000000   2F           DB 47
   \   000001   AC           DB 172
   \   000002   09           DB 9

   \                                 In  segment XDATA_ID, align 1, keep-with-next
   \                     `?<Initializer for zclGp_gppActiveFunctionality`:
   \   000000   2F           DB 47
   \   000001   AC           DB 172
   \   000002   09           DB 9

   \                                 In  segment XDATA_ID, align 1, keep-with-next
   \                     `?<Initializer for zclGp_gpSharedSecurityKey>`:
   \   000000   C0           DB 192
   \   000001   C1           DB 193
   \   000002   C2           DB 194
   \   000003   C3           DB 195
   \   000004   C4           DB 196
   \   000005   C5           DB 197
   \   000006   C6           DB 198
   \   000007   C7           DB 199
   \   000008   C8           DB 200
   \   000009   C9           DB 201
   \   00000A   CA           DB 202
   \   00000B   CB           DB 203
   \   00000C   CC           DB 204
   \   00000D   CD           DB 205
   \   00000E   CE           DB 206
   \   00000F   CF           DB 207

   \                                 In  segment XDATA_ID, align 1, keep-with-next
   \                     `?<Initializer for zclGp_gpLinkKey>`:
   \   000000   5A           DB 90
   \   000001   69           DB 105
   \   000002   67           DB 103
   \   000003   42           DB 66
   \   000004   65           DB 101
   \   000005   65           DB 101
   \   000006   41           DB 65
   \   000007   6C           DB 108
   \   000008   6C           DB 108
   \   000009   69           DB 105
   \   00000A   61           DB 97
   \   00000B   6E           DB 110
   \   00000C   63           DB 99
   \   00000D   65           DB 101
   \   00000E   30           DB 48
   \   00000F   39           DB 57

   \                                 In  segment XDATA_ID, align 1, keep-with-next
   \                     `?<Initializer for zclGp_clusterRevision>`:
   \   000000   0100         DW 1

   \                                 In  segment XDATA_ID, align 1, keep-with-next
   \                     `?<Initializer for gp_commissionerAddress>`:
   \   000000   FFFF         DW 65535

   \                                 In  segment XDATA_ID, align 1, keep-with-next
   \                     `?<Initializer for greenPower_EP_SimpleDesc>`:
   \   000000   F2           DB 242
   \   000001   E0A1         DW 41440
   \   000003   6100         DW 97
   \   000005   00           DB 0
   \   000006   00           DB 0
   \   000007   0000         DW 0H
   \   000009   01           DB 1
   \   00000A   ....         DW greenPower_EP_OutClusterList

   \                                 In  segment XDATA_ID, align 1, keep-with-next
   \                     `?<Initializer for zclGpProxy_CmdCallbacks>`:
   \   000000   ....         DW `??zclGp_GpPairingCommandCB::?relay`
   \   000002   ....         DW `??zclGp_GpProxyTableReqCB::?relay`
   \   000004   ....         DW `??zclGp_GpProxyCommissioningModeCB::?relay`
   \   000006   ....         DW `??zclGp_GpResponseCommandCB::?relay`

   \                                 In  segment BANK_RELAYS, align 1
   \                     `??gp_endpointInit::?relay`:
   \   000000   12....       LCALL   ?BDISPATCH
   \   000003   ......       DC24    gp_endpointInit

   \                                 In  segment BANK_RELAYS, align 1
   \                     `??gp_stopCommissioningMode::?relay`:
   \   000000   12....       LCALL   ?BDISPATCH
   \   000003   ......       DC24    gp_stopCommissioningMode

   \                                 In  segment BANK_RELAYS, align 1
   \                     `??zclGp_ManteinanceIndParse::?relay`:
   \   000000   12....       LCALL   ?BDISPATCH
   \   000003   ......       DC24    zclGp_ManteinanceIndParse

   \                                 In  segment BANK_RELAYS, align 1
   \                     `??zclGp_DataIndParse::?relay`:
   \   000000   12....       LCALL   ?BDISPATCH
   \   000003   ......       DC24    zclGp_DataIndParse

   \                                 In  segment BANK_RELAYS, align 1
   \                     `??zclGp_GpPairingCommandCB::?relay`:
   \   000000   12....       LCALL   ?BDISPATCH
   \   000003   ......       DC24    zclGp_GpPairingCommandCB

   \                                 In  segment BANK_RELAYS, align 1
   \                     `??zclGp_GpProxyTableReqCB::?relay`:
   \   000000   12....       LCALL   ?BDISPATCH
   \   000003   ......       DC24    zclGp_GpProxyTableReqCB

   \                                 In  segment BANK_RELAYS, align 1
   \                     `??zclGp_GpResponseCommandCB::?relay`:
   \   000000   12....       LCALL   ?BDISPATCH
   \   000003   ......       DC24    zclGp_GpResponseCommandCB

   \                                 In  segment BANK_RELAYS, align 1
   \                     `??zclGp_GpProxyCommissioningModeCB::?relay`:
   \   000000   12....       LCALL   ?BDISPATCH
   \   000003   ......       DC24    zclGp_GpProxyCommissioningModeCB

   \                                 In  segment BANK_RELAYS, align 1
   \                     `??gp_ZclPairingParse::?relay`:
   \   000000   12....       LCALL   ?BDISPATCH
   \   000003   ......       DC24    gp_ZclPairingParse

   \                                 In  segment BANK_RELAYS, align 1
   \                     `??gp_ZclProxyTableReqParse::?relay`:
   \   000000   12....       LCALL   ?BDISPATCH
   \   000003   ......       DC24    gp_ZclProxyTableReqParse

   \                                 In  segment BANK_RELAYS, align 1
   \                     `??gp_PopulateField::?relay`:
   \   000000   12....       LCALL   ?BDISPATCH
   \   000003   ......       DC24    gp_PopulateField

   \                                 In  segment BANK_RELAYS, align 1
   \                     `??gp_ProxyTblInit::?relay`:
   \   000000   12....       LCALL   ?BDISPATCH
   \   000003   ......       DC24    gp_ProxyTblInit

   \                                 In  segment BANK_RELAYS, align 1
   \                     `??gp_getProxyTableByGpId::?relay`:
   \   000000   12....       LCALL   ?BDISPATCH
   \   000003   ......       DC24    gp_getProxyTableByGpId

   \                                 In  segment BANK_RELAYS, align 1
   \                     `??gp_SecurityOperationProxy::?relay`:
   \   000000   12....       LCALL   ?BDISPATCH
   \   000003   ......       DC24    gp_SecurityOperationProxy

   \                                 In  segment BANK_RELAYS, align 1
   \                     `??gp_getProxyTableByIndex::?relay`:
   \   000000   12....       LCALL   ?BDISPATCH
   \   000003   ......       DC24    gp_getProxyTableByIndex

   \                                 In  segment BANK_RELAYS, align 1
   \                     `??GP_DataInd::?relay`:
   \   000000   12....       LCALL   ?BDISPATCH
   \   000003   ......       DC24    GP_DataInd

   \                                 In  segment BANK_RELAYS, align 1
   \                     `??GP_SecReq::?relay`:
   \   000000   12....       LCALL   ?BDISPATCH
   \   000003   ......       DC24    GP_SecReq

   \                                 In  segment BANK_RELAYS, align 1
   \                     `??GP_RecoveryKey::?relay`:
   \   000000   12....       LCALL   ?BDISPATCH
   \   000003   ......       DC24    GP_RecoveryKey

   \                                 In  segment BANK_RELAYS, align 1
   \                     `??GP_DataCnf::?relay`:
   \   000000   12....       LCALL   ?BDISPATCH
   \   000003   ......       DC24    GP_DataCnf

   \                                 In  segment BANK_RELAYS, align 1
   \                     `??gp_RegisterCommissioningModeCB::?relay`:
   \   000000   12....       LCALL   ?BDISPATCH
   \   000003   ......       DC24    gp_RegisterCommissioningModeCB

   \                                 In  segment BANK_RELAYS, align 1
   \                     `??gp_RegisterGPChangeChannelReqCB::?relay`:
   \   000000   12....       LCALL   ?BDISPATCH
   \   000003   ......       DC24    gp_RegisterGPChangeChannelReqCB

   \                                 In  segment BANK_RELAYS, align 1
   \                     `??gp_RegisterGPChangeChannelReqForBDBCB::?relay`:
   \   000000   12....       LCALL   ?BDISPATCH
   \   000003   ......       DC24    gp_RegisterGPChangeChannelReqForBDBCB

   \                                 In  segment BANK_RELAYS, align 1
   \                     `??gp_returnOperationalChannel::?relay`:
   \   000000   12....       LCALL   ?BDISPATCH
   \   000003   ......       DC24    gp_returnOperationalChannel

   \                                 In  segment BANK_RELAYS, align 1
   \                     `??gp_expireDuplicateFiltering::?relay`:
   \   000000   12....       LCALL   ?BDISPATCH
   \   000003   ......       DC24    gp_expireDuplicateFiltering

   \                                 In  segment XDATA_ROM_C, align 1
   \                     `?<Constant {0, 0}>`:
   \   000000   00           DB 0
   \   000001   00           DB 0

   \                                 In  segment XDATA_ROM_C, align 1
   \                     `?<Constant {255, 255, 255, 255, 255, 255, 255,`:
   \   000000   FF           DB 255
   \   000001   FF           DB 255
   \   000002   FF           DB 255
   \   000003   FF           DB 255
   \   000004   FF           DB 255
   \   000005   FF           DB 255
   \   000006   FF           DB 255
   \   000007   FF           DB 255
   \   000008   FF           DB 255
   \   000009   FF           DB 255
   \   00000A   00           DB 0
   \   00000B   FF           DB 255
   \   00000C   FF           DB 255
   \   00000D   FF           DB 255
   \   00000E   FF           DB 255
   \   00000F   FF           DB 255
   \   000010   FF           DB 255
   \   000011   FF           DB 255
   \   000012   FF           DB 255
   \   000013   FF           DB 255
   \   000014   FF           DB 255
   \   000015   FF           DB 255
   \   000016   FF           DB 255
   \   000017   FF           DB 255
   \   000018   FF           DB 255
   \   000019   FF           DB 255
   \   00001A   FF           DB 255
   \   00001B   FF           DB 255
   \   00001C   FF           DB 255
   \   00001D   FF           DB 255
   \   00001E   FF           DB 255
   \   00001F   FF           DB 255
   \   000020   FF           DB 255
   \   000021   FF           DB 255
   \   000022   00           DB 0
   \   000023   00           DB 0
   \   000024   00           DB 0
   \   000025   00           DB 0
   \   000026   00           DB 0
   \   000027   00           DB 0
   \   000028   00           DB 0
   \   000029   00           DB 0
   \   00002A   00           DB 0
   \   00002B   00           DB 0
   \   00002C   00           DB 0
   \   00002D   00           DB 0
   \   00002E   00           DB 0
   \   00002F   00           DB 0
   \   000030   00           DB 0
   \   000031   00           DB 0
   \   000032   00           DB 0
   \   000033   00           DB 0
   \   000034   00           DB 0
   \   000035   00           DB 0
   \   000036   00           DB 0
   \   000037   00           DB 0
   \   000038   00           DB 0
   \   000039   00           DB 0
   \   00003A   00           DB 0
   \   00003B   00           DB 0
   \   00003C   00           DB 0
   \   00003D   00           DB 0
   \   00003E   00           DB 0
   \   00003F   00           DB 0
   \   000040   00           DB 0

   \                                 In  segment XDATA_ROM_C, align 1
   \                     `?<Constant {0, 0, {0, 0, 0, 0, 0, 0, 0, 0}, 0,`:
   \   000000   00000000     DD 0
   \   000004   00000000     DD 0
   \   000008   00           DB 0
   \   000009   00           DB 0
   \   00000A   00           DB 0
   \   00000B   00           DB 0
   \   00000C   00           DB 0
   \   00000D   00           DB 0
   \   00000E   00           DB 0
   \   00000F   00           DB 0
   \   000010   00           DB 0
   \   000011   00           DB 0
   \   000012   00           DB 0
   \   000013   00           DB 0
   \   000014   00           DB 0
   \   000015   00           DB 0
   \   000016   00           DB 0
   \   000017   00           DB 0
   \   000018   00           DB 0
   \   000019   0000         DW 0
   \   00001B   0000         DW 0
   \   00001D   00           DB 0
   \   00001E   00000000     DD 0
   \   000022   00           DB 0
   \   000023   00           DB 0
   \   000024   00           DB 0
   \   000025   00           DB 0
   \   000026   00           DB 0
   \   000027   00           DB 0
   \   000028   00           DB 0
   \   000029   00           DB 0
   \   00002A   00           DB 0
   \   00002B   00           DB 0
   \   00002C   00           DB 0
   \   00002D   00           DB 0
   \   00002E   00           DB 0
   \   00002F   00           DB 0
   \   000030   00           DB 0
   \   000031   00           DB 0
   \   000032   0000         DW 0
   \   000034   00           DB 0

   \                                 In  segment XDATA_ROM_C, align 1
   \                     `?<Constant {255, 255, 255, 255, 255, 255, 255,_1`:
   \   000000   FF           DB 255
   \   000001   FF           DB 255
   \   000002   FF           DB 255
   \   000003   FF           DB 255
   \   000004   FF           DB 255
   \   000005   FF           DB 255
   \   000006   FF           DB 255
   \   000007   FF           DB 255
   \   000008   FF           DB 255
   \   000009   FF           DB 255
   \   00000A   00           DB 0
   \   00000B   FF           DB 255
   \   00000C   FF           DB 255
   \   00000D   FF           DB 255
   \   00000E   FF           DB 255
   \   00000F   FF           DB 255
   \   000010   FF           DB 255
   \   000011   FF           DB 255
   \   000012   FF           DB 255
   \   000013   FF           DB 255
   \   000014   FF           DB 255
   \   000015   FF           DB 255
   \   000016   FF           DB 255
   \   000017   FF           DB 255
   \   000018   FF           DB 255
   \   000019   FF           DB 255
   \   00001A   FF           DB 255
   \   00001B   FF           DB 255
   \   00001C   FF           DB 255
   \   00001D   FF           DB 255
   \   00001E   FF           DB 255
   \   00001F   FF           DB 255
   \   000020   FF           DB 255
   \   000021   FF           DB 255
   \   000022   00           DB 0
   \   000023   00           DB 0
   \   000024   00           DB 0
   \   000025   00           DB 0
   \   000026   00           DB 0
   \   000027   00           DB 0
   \   000028   00           DB 0
   \   000029   00           DB 0
   \   00002A   00           DB 0
   \   00002B   00           DB 0
   \   00002C   00           DB 0
   \   00002D   00           DB 0
   \   00002E   00           DB 0
   \   00002F   00           DB 0
   \   000030   00           DB 0
   \   000031   00           DB 0
   \   000032   00           DB 0
   \   000033   00           DB 0
   \   000034   00           DB 0
   \   000035   00           DB 0
   \   000036   00           DB 0
   \   000037   00           DB 0
   \   000038   00           DB 0
   \   000039   00           DB 0
   \   00003A   00           DB 0
   \   00003B   00           DB 0
   \   00003C   00           DB 0
   \   00003D   00           DB 0
   \   00003E   00           DB 0
   \   00003F   00           DB 0
   \   000040   00           DB 0

   \                                 In  segment XDATA_ROM_C, align 1
   \                     `?<Constant {0, 0, {0, 0, 0, 0, 0, 0, 0, 0}, 0,_1`:
   \   000000   00           DB 0
   \   000001   00000000     DD 0
   \   000005   00           DB 0
   \   000006   00           DB 0
   \   000007   00           DB 0
   \   000008   00           DB 0
   \   000009   00           DB 0
   \   00000A   00           DB 0
   \   00000B   00           DB 0
   \   00000C   00           DB 0
   \   00000D   00           DB 0
   \   00000E   00           DB 0

   \                                 In  segment XDATA_ROM_C, align 1
   \                     `?<Constant {255, 255, 255, 255, 255, 255, 255,_2`:
   \   000000   FF           DB 255
   \   000001   FF           DB 255
   \   000002   FF           DB 255
   \   000003   FF           DB 255
   \   000004   FF           DB 255
   \   000005   FF           DB 255
   \   000006   FF           DB 255
   \   000007   FF           DB 255
   \   000008   FF           DB 255
   \   000009   FF           DB 255
   \   00000A   00           DB 0
   \   00000B   FF           DB 255
   \   00000C   FF           DB 255
   \   00000D   FF           DB 255
   \   00000E   FF           DB 255
   \   00000F   FF           DB 255
   \   000010   FF           DB 255
   \   000011   FF           DB 255
   \   000012   FF           DB 255
   \   000013   FF           DB 255
   \   000014   FF           DB 255
   \   000015   FF           DB 255
   \   000016   FF           DB 255
   \   000017   FF           DB 255
   \   000018   FF           DB 255
   \   000019   FF           DB 255
   \   00001A   FF           DB 255
   \   00001B   FF           DB 255
   \   00001C   FF           DB 255
   \   00001D   FF           DB 255
   \   00001E   FF           DB 255
   \   00001F   FF           DB 255
   \   000020   FF           DB 255
   \   000021   FF           DB 255
   \   000022   00           DB 0
   \   000023   00           DB 0
   \   000024   00           DB 0
   \   000025   00           DB 0
   \   000026   00           DB 0
   \   000027   00           DB 0
   \   000028   00           DB 0
   \   000029   00           DB 0
   \   00002A   00           DB 0
   \   00002B   00           DB 0
   \   00002C   00           DB 0
   \   00002D   00           DB 0
   \   00002E   00           DB 0
   \   00002F   00           DB 0
   \   000030   00           DB 0
   \   000031   00           DB 0
   \   000032   00           DB 0
   \   000033   00           DB 0
   \   000034   00           DB 0
   \   000035   00           DB 0
   \   000036   00           DB 0
   \   000037   00           DB 0
   \   000038   00           DB 0
   \   000039   00           DB 0
   \   00003A   00           DB 0
   \   00003B   00           DB 0
   \   00003C   00           DB 0
   \   00003D   00           DB 0
   \   00003E   00           DB 0
   \   00003F   00           DB 0
   \   000040   00           DB 0

   \                                 In  segment XDATA_ROM_C, align 1
   \                     `?<Constant {255, 255, 255, 255, 255, 255, 255,_3`:
   \   000000   FF           DB 255
   \   000001   FF           DB 255
   \   000002   FF           DB 255
   \   000003   FF           DB 255
   \   000004   FF           DB 255
   \   000005   FF           DB 255
   \   000006   FF           DB 255
   \   000007   FF           DB 255
   \   000008   FF           DB 255
   \   000009   FF           DB 255
   \   00000A   00           DB 0
   \   00000B   FF           DB 255
   \   00000C   FF           DB 255
   \   00000D   FF           DB 255
   \   00000E   FF           DB 255
   \   00000F   FF           DB 255
   \   000010   FF           DB 255
   \   000011   FF           DB 255
   \   000012   FF           DB 255
   \   000013   FF           DB 255
   \   000014   FF           DB 255
   \   000015   FF           DB 255
   \   000016   FF           DB 255
   \   000017   FF           DB 255
   \   000018   FF           DB 255
   \   000019   FF           DB 255
   \   00001A   FF           DB 255
   \   00001B   FF           DB 255
   \   00001C   FF           DB 255
   \   00001D   FF           DB 255
   \   00001E   FF           DB 255
   \   00001F   FF           DB 255
   \   000020   FF           DB 255
   \   000021   FF           DB 255
   \   000022   00           DB 0
   \   000023   00           DB 0
   \   000024   00           DB 0
   \   000025   00           DB 0
   \   000026   00           DB 0
   \   000027   00           DB 0
   \   000028   00           DB 0
   \   000029   00           DB 0
   \   00002A   00           DB 0
   \   00002B   00           DB 0
   \   00002C   00           DB 0
   \   00002D   00           DB 0
   \   00002E   00           DB 0
   \   00002F   00           DB 0
   \   000030   00           DB 0
   \   000031   00           DB 0
   \   000032   00           DB 0
   \   000033   00           DB 0
   \   000034   00           DB 0
   \   000035   00           DB 0
   \   000036   00           DB 0
   \   000037   00           DB 0
   \   000038   00           DB 0
   \   000039   00           DB 0
   \   00003A   00           DB 0
   \   00003B   00           DB 0
   \   00003C   00           DB 0
   \   00003D   00           DB 0
   \   00003E   00           DB 0
   \   00003F   00           DB 0
   \   000040   00           DB 0

   \                                 In  segment XDATA_ROM_C, align 1
   \                     `?<Constant {255, 0, 0, 0, 0, 0, 0, 0, 0, 0, 0,`:
   \   000000   FF           DB 255
   \   000001   00           DB 0
   \   000002   00           DB 0
   \   000003   00           DB 0
   \   000004   00           DB 0
   \   000005   00           DB 0
   \   000006   00           DB 0
   \   000007   00           DB 0
   \   000008   00           DB 0
   \   000009   00           DB 0
   \   00000A   00           DB 0
   \   00000B   00           DB 0
   \   00000C   00           DB 0
   \   00000D   00           DB 0
   \   00000E   00           DB 0
   \   00000F   00           DB 0

   \                                 In  segment XDATA_ROM_C, align 1
   \                     `?<Constant {255, 0, 0, 0, 0, 0, 0, 0, 0, 0, 0,_1`:
   \   000000   FF           DB 255
   \   000001   00           DB 0
   \   000002   00           DB 0
   \   000003   00           DB 0
   \   000004   00           DB 0
   \   000005   00           DB 0
   \   000006   00           DB 0
   \   000007   00           DB 0
   \   000008   00           DB 0
   \   000009   00           DB 0
   \   00000A   00           DB 0
   \   00000B   00           DB 0
   \   00000C   00           DB 0
   \   00000D   00           DB 0
   \   00000E   00           DB 0
   \   00000F   00           DB 0

   \                                 In  segment XDATA_ROM_C, align 1
   \                     __Constant_10000:
   \   000000   00000100     DD 65536

   \                                 In  segment XDATA_ROM_C, align 1
   \                     __Constant_20000:
   \   000000   00000200     DD 131072

   \                                 In  segment XDATA_ROM_C, align 1
   \                     __Constant_ff:
   \   000000   FF000000     DD 255

   \                                 In  segment XDATA_ROM_C, align 1
   \                     __Constant_ff00:
   \   000000   00FF0000     DD 65280

   \                                 In  segment XDATA_ROM_C, align 1
   \                     __Constant_ff0000:
   \   000000   0000FF00     DD 16711680

   \                                 In  segment XDATA_ROM_C, align 1
   \                     __Constant_1388:
   \   000000   88130000     DD 5000
   2169          
   2170          #endif
   2171          /*********************************************************************
   2172          *********************************************************************/
   2173          

   Maximum stack usage in bytes:

   ISTACK XSTACK Function
   ------ ------ --------
      0      0   GP_DataCnf
      1    150   GP_DataInd
        0    146   -> gp_DataIndAppendToList
        0    148   -> gp_getProxyTableByGpId
        0    146   -> osal_get_timeoutEx
        0    149   -> osal_memcpy
        0    146   -> osal_memset
        0    150   -> osal_nv_write
        0    150   -> osal_start_timerEx
        0    146   -> zclGp_DataIndParse
        0    146   -> zclGp_ManteinanceIndParse
        0    146   -> zclGp_SendGpCommissioningNotificationCommand
        0    146   -> zclGp_SendGpNotificationCommand
      0    139   GP_RecoveryKey
        0     36   -> ZDSecMgrReadKeyFromNv
        0     39   -> osal_memcmp
        0     39   -> osal_memcpy
        0     40   -> zcl_ReadAttrData
      1    102   GP_SecReq
        0     99   -> GP_RecoveryKey
        0     99   -> gp_DataIndGet
        0    101   -> gp_SecurityOperationProxy
        0    101   -> gp_getProxyTableByGpId
        0    102   -> osal_memcpy
        0     99   -> osal_msg_allocate
        0     99   -> osal_msg_send
      2    101   gp_PopulateField
        0     20   -> osal_memcpy
      0     81   gp_ProxyTblInit
        0     77   -> gp_ResetProxyBasicTblEntry
        0     79   -> osal_nv_item_init
        0     81   -> osal_nv_write
      2      0   gp_RegisterCommissioningModeCB
      2      0   gp_RegisterGPChangeChannelReqCB
      2      0   gp_RegisterGPChangeChannelReqForBDBCB
      1    198   gp_SecurityOperationProxy
        0     96   -> gp_getProxyTableByGpId
        0     94   -> osal_build_uint32
        0     97   -> osal_memcmp
        0     97   -> osal_memcpy
        0     94   -> osal_memset
      0    137   gp_ZclPairingParse
        0     81   -> gp_PopulateField
        0     81   -> gp_ResetProxyBasicTblEntry
        0     81   -> gp_getProxyTableByIndex
        0     84   -> osal_memcmp
        0     81   -> osal_memset
      1    195   gp_ZclProxyTableReqParse
        0     14   -> gp_PopulateField
        0     14   -> osal_memset
      2      0   gp_endpointInit
        2      0   -> bdb_RegisterSimpleDescriptor
        2      0   -> gp_ProxyTblInit
        2      0   -> zclGp_RegisterCmdCallbacks
        2      0   -> zcl_registerAttrList
        2      0   -> zcl_registerReadWriteCB
      0     12   gp_expireDuplicateFiltering
        0     12   -> gp_DataIndReleaseFromList
      0    205   gp_getProxyTableByGpId
        0     19   -> gp_getProxyTableByIndex
        0     22   -> osal_memcmp
      0    201   gp_getProxyTableByIndex
        0     19   -> osal_memcmp
        0     20   -> osal_nv_read
      2     21   gp_returnOperationalChannel
        2     21   -> GP_DataReq
        2     21   -> ZMacSetReq
        2     21   -> osal_stop_timerEx
      2     53   gp_stopCommissioningMode
        2      0   -> gp_FreeGpTxQueue
        2      0   -> osal_stop_timerEx
      1    235   zclGp_DataIndParse
        0     86   -> gp_getProxyTableByIndex
        0     89   -> osal_memcmp
        0     89   -> osal_memcpy
      2     53   zclGp_GpPairingCommandCB
        2     53   -> gp_PairingUpdateProxyTlb
        2     53   -> gp_ZclPairingParse
        2     53   -> gp_stopCommissioningMode
      0     10   zclGp_GpProxyCommissioningModeCB
        0     10   -> gp_stopCommissioningMode
        0     10   -> osal_build_uint16
      1    184   zclGp_GpProxyTableReqCB
        0    181   -> gp_ZclProxyTableReqParse
        0    183   -> gp_getProxyTableByGpId
        0    181   -> gp_getProxyTableByIndex
        0    181   -> osal_mem_alloc
        0    181   -> osal_mem_free
        0    184   -> osal_memcpy
        0    183   -> pt_ZclReadGetProxyEntry
        0    181   -> zclGp_SendGpProxyTableResponse
      1     97   zclGp_GpResponseCommandCB
        0     93   -> ZMacSetReq
        0     93   -> gp_GetHandle
        0     95   -> gp_getProxyTableByGpId
        0     93   -> osal_build_uint32
        0     93   -> osal_get_timeoutEx
        0     96   -> osal_memcpy
        0     93   -> osal_msg_allocate
        0     93   -> osal_msg_send
        0     97   -> osal_nv_write
      1    167   zclGp_ManteinanceIndParse
        0     21   -> osal_memcpy


   Segment part sizes:

   Bytes  Function/Label
   -----  --------------
      53  ?<Constant {0, 0, {0, 0, 0, 0, 0, 0, 0, 0}, 0,
      15  ?<Constant {0, 0, {0, 0, 0, 0, 0, 0, 0, 0}, 0,_1
       2  ?<Constant {0, 0}>
       6  ?<Constant {0}>
      16  ?<Constant {255, 0, 0, 0, 0, 0, 0, 0, 0, 0, 0,
      16  ?<Constant {255, 0, 0, 0, 0, 0, 0, 0, 0, 0, 0,_1
      65  ?<Constant {255, 255, 255, 255, 255, 255, 255,
      65  ?<Constant {255, 255, 255, 255, 255, 255, 255,_1
      65  ?<Constant {255, 255, 255, 255, 255, 255, 255,_2
      65  ?<Constant {255, 255, 255, 255, 255, 255, 255,_3
       2  ?<Initializer for gp_commissionerAddress>
      12  ?<Initializer for greenPower_EP_SimpleDesc>
       8  ?<Initializer for zclGpProxy_CmdCallbacks>
       2  ?<Initializer for zclGp_clusterRevision>
      16  ?<Initializer for zclGp_gpLinkKey>
      16  ?<Initializer for zclGp_gpSharedSecurityKey>
       3  ?<Initializer for zclGp_gppActiveFunctionality
       3  ?<Initializer for zclGp_gppFunctionality>
       1  ?<Initializer for zclGp_gppMaxProxyTableEntrie
       1  ?<Initializer for zclGp_gppMaxSearchCounter>
       1  ?<Initializer for zclGp_gppNotificationRetryNu
       1  ?<Initializer for zclGp_gppNotificationRetryTi
       7  ??Subroutine55_0
       8  ??Subroutine56_0
       8  ??Subroutine57_0
       6  ??Subroutine58_0
       6  ??Subroutine59_0
       8  ??Subroutine60_0
       7  ??Subroutine61_0
      12  ??Subroutine62_0
       3  ??Subroutine63_0
       6  ??Subroutine64_0
       6  ??Subroutine65_0
       8  ??Subroutine66_0
      12  ??Subroutine67_0
       6  ??Subroutine68_0
       5  ??Subroutine69_0
       8  ??Subroutine70_0
       3  ?Subroutine0
       8  ?Subroutine1
       8  ?Subroutine10
      11  ?Subroutine11
       5  ?Subroutine12
      12  ?Subroutine13
       2  ?Subroutine14
      17  ?Subroutine15
       6  ?Subroutine16
       6  ?Subroutine17
      10  ?Subroutine18
       9  ?Subroutine19
       8  ?Subroutine2
       9  ?Subroutine20
       3  ?Subroutine21
       3  ?Subroutine22
       6  ?Subroutine23
      10  ?Subroutine24
       6  ?Subroutine25
       5  ?Subroutine26
      19  ?Subroutine27
      11  ?Subroutine28
      14  ?Subroutine29
       3  ?Subroutine3
      10  ?Subroutine30
       3  ?Subroutine31
       9  ?Subroutine32
       6  ?Subroutine33
       2  ?Subroutine34
      10  ?Subroutine35
       9  ?Subroutine36
       3  ?Subroutine37
      10  ?Subroutine38
       3  ?Subroutine39
       5  ?Subroutine4
      13  ?Subroutine40
      15  ?Subroutine41
      12  ?Subroutine42
      11  ?Subroutine43
      12  ?Subroutine44
      10  ?Subroutine45
       8  ?Subroutine46
       9  ?Subroutine47
       1  ?Subroutine48
       2  ?Subroutine49
       5  ?Subroutine5
       7  ?Subroutine50
       9  ?Subroutine51
      10  ?Subroutine52
      13  ?Subroutine53
       9  ?Subroutine54
       9  ?Subroutine6
       7  ?Subroutine7
       4  ?Subroutine8
       5  ?Subroutine9
       3  GP_DataCnf
       6  GP_DataCnf::?relay
     472  GP_DataInd
       6  GP_DataInd::?relay
     298  GP_RecoveryKey
       6  GP_RecoveryKey::?relay
     538  GP_SecReq
       6  GP_SecReq::?relay
       4  __Constant_10000
       4  __Constant_1388
       4  __Constant_20000
       4  __Constant_ff
       4  __Constant_ff00
       4  __Constant_ff0000
       2  gp_DataIndList
     338  gp_PopulateField
       6  gp_PopulateField::?relay
     125  gp_ProxyTblInit
       6  gp_ProxyTblInit::?relay
      17  gp_RegisterCommissioningModeCB
       6  gp_RegisterCommissioningModeCB::?relay
      17  gp_RegisterGPChangeChannelReqCB
       6  gp_RegisterGPChangeChannelReqCB::?relay
      17  gp_RegisterGPChangeChannelReqForBDBCB
       6  gp_RegisterGPChangeChannelReqForBDBCB::?relay
     515  gp_SecurityOperationProxy
       6  gp_SecurityOperationProxy::?relay
     761  gp_ZclPairingParse
       6  gp_ZclPairingParse::?relay
     195  gp_ZclProxyTableReqParse
       6  gp_ZclProxyTableReqParse::?relay
       2  gp_commissionerAddress
       1  gp_commissioningOptions
       2  gp_commissioningUnicastAddress
      51  gp_endpointInit
       6  gp_endpointInit::?relay
     102  gp_expireDuplicateFiltering
       6  gp_expireDuplicateFiltering::?relay
     256  gp_getProxyTableByGpId
       6  gp_getProxyTableByGpId::?relay
     129  gp_getProxyTableByIndex
       6  gp_getProxyTableByIndex::?relay
      73  gp_returnOperationalChannel
       6  gp_returnOperationalChannel::?relay
      51  gp_stopCommissioningMode
       6  gp_stopCommissioningMode::?relay
       1  gp_tempLogicalChannel
       2  greenPower_EP_OutClusterList
      12  greenPower_EP_SimpleDesc
       2  pZclGp_ProxyTableEntries
       2  pZclGp_gppBlockedGPDID
       2  pfnChangeChannelReq
       2  pfnChangeChannelReqForBDB
       2  pfnCommissioningMode
       8  zclGpProxy_CmdCallbacks
      96  zclGp_Attrs
     704  zclGp_DataIndParse
       6  zclGp_DataIndParse::?relay
      51  zclGp_GpPairingCommandCB
       6  zclGp_GpPairingCommandCB::?relay
     144  zclGp_GpProxyCommissioningModeCB
       6  zclGp_GpProxyCommissioningModeCB::?relay
     704  zclGp_GpProxyTableReqCB
       6  zclGp_GpProxyTableReqCB::?relay
     656  zclGp_GpResponseCommandCB
       6  zclGp_GpResponseCommandCB::?relay
     441  zclGp_ManteinanceIndParse
       6  zclGp_ManteinanceIndParse::?relay
       1  zclGp_NumAttributes
       2  zclGp_clusterRevision
      16  zclGp_gpLinkKey
      16  zclGp_gpSharedSecurityKey
       1  zclGp_gpSharedSecurityKeyType
       3  zclGp_gppActiveFunctionality
       3  zclGp_gppFunctionality
       1  zclGp_gppMaxProxyTableEntries
       1  zclGp_gppMaxSearchCounter
       1  zclGp_gppNotificationRetryNumber
       1  zclGp_gppNotificationRetryTimer
       1  zgGP_InCommissioningMode
      16  zgpSharedKey

 
 7 209 bytes in segment BANKED_CODE
   144 bytes in segment BANK_RELAYS
   113 bytes in segment CODE_C
    66 bytes in segment XDATA_I
    66 bytes in segment XDATA_ID
   394 bytes in segment XDATA_ROM_C
    18 bytes in segment XDATA_Z
 
   323 bytes of CODE     memory
   370 bytes of CONST    memory (+ 24 bytes shared)
 7 209 bytes of HUGECODE memory
    84 bytes of XDATA    memory

Errors: none
Warnings: none
