///////////////////////////////////////////////////////////////////////////////
//
// IAR C/C++ Compiler V10.10.1.4655 for 8051              22/Nov/2023  15:42:40
// Copyright 2004-2017 IAR Systems AB.
// Standalone license - IAR Embedded Workbench for 8051
//
//    Core               =  plain
//    Code model         =  banked
//    Data model         =  large
//    Calling convention =  xdata reentrant
//    Constant location  =  data_rom
//    Dptr setup         =  1,16
//                          
//    Source file        =  
//        D:\fuzzing-coordinator-response-collection\Components\stack\GP\gp_proxyTbl.c
//    Command line       =  
//        -f C:\Users\ADMINI~1\AppData\Local\Temp\EW98B0.tmp
//        (D:\fuzzing-coordinator-response-collection\Components\stack\GP\gp_proxyTbl.c
//        -D SECURE=1 -D TC_LINKKEY_JOIN -D NV_INIT -D NV_RESTORE -D
//        MULTICAST_ENABLED=FALSE -D ZCL_READ -D ZCL_DISCOVER -D ZCL_WRITE -D
//        ZCL_BASIC -D ZCL_IDENTIFY -D ISR_KEYINTERRUPT -D HAL_UART=TRUE -D
//        HAL_LCD=FALSE -D ZCL_ON_OFF -D INT_HEAP_LEN=2800 -D
//        HAL_UART_DMA_RX_MAX=256 -D HAL_UART_DMA_TX_MAX=256 -lC
//        D:\fuzzing-coordinator-response-collection\Projects\zstack\HomeAutomation\SampleSwitch\CC2530DB\CoordinatorEB\List
//        -lA
//        D:\fuzzing-coordinator-response-collection\Projects\zstack\HomeAutomation\SampleSwitch\CC2530DB\CoordinatorEB\List
//        --diag_suppress Pe001,Pa010 -o
//        D:\fuzzing-coordinator-response-collection\Projects\zstack\HomeAutomation\SampleSwitch\CC2530DB\CoordinatorEB\Obj
//        -e --debug --core=plain --dptr=16,1 --data_model=large
//        --code_model=banked --calling_convention=xdata_reentrant
//        --place_constants=data_rom --nr_virtual_regs 8 -f
//        D:\fuzzing-coordinator-response-collection\Projects\zstack\HomeAutomation\SampleSwitch\CC2530DB\..\..\..\Tools\CC2530DB\f8wCoord.cfg
//        (-DCPU32MHZ -DROOT=__near_func -DMAC_CFG_APP_PENDING_QUEUE=TRUE
//        -DMAC_CFG_TX_DATA_MAX=5 -DMAC_CFG_TX_MAX=8 -DMAC_CFG_RX_MAX=5
//        -DZDO_COORDINATOR -DRTR_NWK) -f
//        D:\fuzzing-coordinator-response-collection\Projects\zstack\HomeAutomation\SampleSwitch\CC2530DB\..\..\..\Tools\CC2530DB\f8wConfig.cfg
//        (-DZIGBEEPRO -DSECURE=1 -DZG_SECURE_DYNAMIC=0 -DREFLECTOR
//        -DDEFAULT_CHANLIST=0x00000800 -DZDAPP_CONFIG_PAN_ID=0xFFFF
//        -DNWK_START_DELAY=100 -DEXTENDED_JOINING_RANDOM_MASK=0x007F
//        -DBEACON_REQUEST_DELAY=100 -DBEACON_REQ_DELAY_MASK=0x00FF
//        -DLINK_STATUS_JITTER_MASK=0x007F -DROUTE_EXPIRY_TIME=30
//        -DAPSC_ACK_WAIT_DURATION_POLLED=3000 -DNWK_INDIRECT_MSG_TIMEOUT=7
//        -DMAX_RREQ_ENTRIES=8 -DAPSC_MAX_FRAME_RETRIES=3
//        -DNWK_MAX_DATA_RETRIES=2 -DMAX_POLL_FAILURE_RETRIES=2 -DMAX_BCAST=9
//        -DAPS_MAX_GROUPS=16 -DMAX_RTG_ENTRIES=40 -DNWK_MAX_BINDING_ENTRIES=4
//        -DMAX_BINDING_CLUSTER_IDS=4 "-DDEFAULT_KEY={0x00, 0x01, 0x02, 0x03,
//        0x04, 0x05, 0x06, 0x07, 0x08, 0x09, 0x0A, 0x0B, 0x0C, 0x0D, 0x0E,
//        0x0F}" -DMAC_MAX_FRAME_SIZE=116 -DZDNWKMGR_MIN_TRANSMISSIONS=20
//        "-DCONST=const __code" -DGENERIC=__generic -DRFD_RCVC_ALWAYS_ON=FALSE
//        -DPOLL_RATE=1000 -DQUEUED_POLL_RATE=100 -DRESPONSE_POLL_RATE=100
//        -DREJOIN_POLL_RATE=440 -DREJOIN_BACKOFF=900000 -DREJOIN_SCAN=900000
//        -DENABLE_LED4_DISABLE_S1) -f
//        D:\fuzzing-coordinator-response-collection\Projects\zstack\HomeAutomation\SampleSwitch\CC2530DB\..\..\..\Tools\CC2530DB\f8wZCL.cfg
//        -I
//        D:\fuzzing-coordinator-response-collection\Projects\zstack\HomeAutomation\SampleSwitch\CC2530DB\
//        -I
//        D:\fuzzing-coordinator-response-collection\Projects\zstack\HomeAutomation\SampleSwitch\CC2530DB\..\Source\
//        -I
//        D:\fuzzing-coordinator-response-collection\Projects\zstack\HomeAutomation\SampleSwitch\CC2530DB\..\..\Source\
//        -I
//        D:\fuzzing-coordinator-response-collection\Projects\zstack\HomeAutomation\SampleSwitch\CC2530DB\..\..\..\ZMain\TI2530DB\
//        -I
//        D:\fuzzing-coordinator-response-collection\Projects\zstack\HomeAutomation\SampleSwitch\CC2530DB\..\..\..\..\..\Components\hal\include\
//        -I
//        D:\fuzzing-coordinator-response-collection\Projects\zstack\HomeAutomation\SampleSwitch\CC2530DB\..\..\..\..\..\Components\hal\target\CC2530EB\
//        -I
//        D:\fuzzing-coordinator-response-collection\Projects\zstack\HomeAutomation\SampleSwitch\CC2530DB\..\..\..\..\..\Components\mac\include\
//        -I
//        D:\fuzzing-coordinator-response-collection\Projects\zstack\HomeAutomation\SampleSwitch\CC2530DB\..\..\..\..\..\Components\mac\high_level\
//        -I
//        D:\fuzzing-coordinator-response-collection\Projects\zstack\HomeAutomation\SampleSwitch\CC2530DB\..\..\..\..\..\Components\mac\low_level\srf04\
//        -I
//        D:\fuzzing-coordinator-response-collection\Projects\zstack\HomeAutomation\SampleSwitch\CC2530DB\..\..\..\..\..\Components\mac\low_level\srf04\single_chip\
//        -I
//        D:\fuzzing-coordinator-response-collection\Projects\zstack\HomeAutomation\SampleSwitch\CC2530DB\..\..\..\..\..\Components\mt\
//        -I
//        D:\fuzzing-coordinator-response-collection\Projects\zstack\HomeAutomation\SampleSwitch\CC2530DB\..\..\..\..\..\Components\osal\include\
//        -I
//        D:\fuzzing-coordinator-response-collection\Projects\zstack\HomeAutomation\SampleSwitch\CC2530DB\..\..\..\..\..\Components\services\saddr\
//        -I
//        D:\fuzzing-coordinator-response-collection\Projects\zstack\HomeAutomation\SampleSwitch\CC2530DB\..\..\..\..\..\Components\services\sdata\
//        -I
//        D:\fuzzing-coordinator-response-collection\Projects\zstack\HomeAutomation\SampleSwitch\CC2530DB\..\..\..\..\..\Components\stack\af\
//        -I
//        D:\fuzzing-coordinator-response-collection\Projects\zstack\HomeAutomation\SampleSwitch\CC2530DB\..\..\..\..\..\Components\stack\bdb\
//        -I
//        D:\fuzzing-coordinator-response-collection\Projects\zstack\HomeAutomation\SampleSwitch\CC2530DB\..\..\..\..\..\Components\stack\gp\
//        -I
//        D:\fuzzing-coordinator-response-collection\Projects\zstack\HomeAutomation\SampleSwitch\CC2530DB\..\..\..\..\..\Components\stack\nwk\
//        -I
//        D:\fuzzing-coordinator-response-collection\Projects\zstack\HomeAutomation\SampleSwitch\CC2530DB\..\..\..\..\..\Components\stack\sapi\
//        -I
//        D:\fuzzing-coordinator-response-collection\Projects\zstack\HomeAutomation\SampleSwitch\CC2530DB\..\..\..\..\..\Components\stack\sec\
//        -I
//        D:\fuzzing-coordinator-response-collection\Projects\zstack\HomeAutomation\SampleSwitch\CC2530DB\..\..\..\..\..\Components\stack\sys\
//        -I
//        D:\fuzzing-coordinator-response-collection\Projects\zstack\HomeAutomation\SampleSwitch\CC2530DB\..\..\..\..\..\Components\stack\zcl\
//        -I
//        D:\fuzzing-coordinator-response-collection\Projects\zstack\HomeAutomation\SampleSwitch\CC2530DB\..\..\..\..\..\Components\stack\zdo\
//        -I
//        D:\fuzzing-coordinator-response-collection\Projects\zstack\HomeAutomation\SampleSwitch\CC2530DB\..\..\..\..\..\Components\zmac\
//        -I
//        D:\fuzzing-coordinator-response-collection\Projects\zstack\HomeAutomation\SampleSwitch\CC2530DB\..\..\..\..\..\Components\zmac\f8w\
//        -I
//        D:\fuzzing-coordinator-response-collection\Projects\zstack\HomeAutomation\SampleSwitch\CC2530DB\..\..\..\..\..\Components\hal\target\CC2530EB\Common\
//        -I
//        D:\fuzzing-coordinator-response-collection\Projects\zstack\HomeAutomation\SampleSwitch\CC2530DB\..\..\..\..\..\Components\hal\target\CC2530EB\SPI\
//        -I
//        D:\fuzzing-coordinator-response-collection\Projects\zstack\HomeAutomation\SampleSwitch\CC2530DB\..\..\..\..\..\Components\hal\target\CC2530EB\HW_LCD\Font\
//        -I
//        D:\fuzzing-coordinator-response-collection\Projects\zstack\HomeAutomation\SampleSwitch\CC2530DB\..\..\..\..\..\Components\hal\target\CC2530EB\HW_LCD\HAL_LCD_SPI\
//        -I
//        D:\fuzzing-coordinator-response-collection\Projects\zstack\HomeAutomation\SampleSwitch\CC2530DB\..\..\..\..\..\Components\hal\target\CC2530EB\HW_LCD\HAL_OLED\
//        -I
//        D:\fuzzing-coordinator-response-collection\Projects\zstack\HomeAutomation\SampleSwitch\CC2530DB\..\..\..\..\..\Components\hal\target\CC2530EB\HW_LCD\HAL_TFT\
//        -Ohz --require_prototypes)
//    Locale             =  Chinese (Simplified)_China.936
//    List file          =  
//        D:\fuzzing-coordinator-response-collection\Projects\zstack\HomeAutomation\SampleSwitch\CC2530DB\CoordinatorEB\List\gp_proxyTbl.s51
//
///////////////////////////////////////////////////////////////////////////////

        NAME gp_proxyTbl

        RTMODEL "__SystemLibrary", "CLib"
        RTMODEL "__calling_convention", "xdata_reentrant"
        RTMODEL "__code_model", "banked"
        RTMODEL "__core", "plain"
        RTMODEL "__data_model", "large"
        RTMODEL "__dptr_size", "16"
        RTMODEL "__extended_stack", "disabled"
        RTMODEL "__location_for_constants", "data"
        RTMODEL "__number_of_dptrs", "1"
        RTMODEL "__register_banks", "*"
        RTMODEL "__rt_version", "1"

        RSEG DOVERLAY:DATA:NOROOT(0)
        RSEG IOVERLAY:IDATA:NOROOT(0)
        RSEG ISTACK:IDATA:NOROOT(0)
        RSEG PSTACK:XDATA:NOROOT(0)
        RSEG XSTACK:XDATA:NOROOT(0)

        EXTERN ?V0
        EXTERN ?V1
        EXTERN ?V2
        EXTERN ?V3
        EXTERN ?V4
        EXTERN ?V5
        EXTERN ?V6
        EXTERN ?V7
        EXTERN ?ADD_XSTACK_DISP0_16
        EXTERN ?ALLOC_XSTACK8
        EXTERN ?BANKED_ENTER_XDATA
        EXTERN ?BANKED_LEAVE_XDATA
        EXTERN ?BDISPATCH
        EXTERN ?DEALLOC_XSTACK8
        EXTERN ?L_AND_X
        EXTERN ?L_MOV_X
        EXTERN ?MOVE_LONG8_XDATA_XDATA
        EXTERN ?PUSH_XSTACK8_X_THREE
        EXTERN ?PUSH_XSTACK_I_FOUR
        EXTERN ?PUSH_XSTACK_I_ONE
        EXTERN ?PUSH_XSTACK_I_THREE
        EXTERN ?PUSH_XSTACK_I_TWO
        EXTERN ?US_DIV_MOD
        EXTERN ?US_SHR
        EXTERN ?XSP
        EXTERN ?XSTACK_DISP0_8
        EXTERN ?XSTACK_DISP100_8
        EXTERN ?XSTACK_DISP101_8
        EXTERN ?XSTACK_DISP102_8
        EXTERN __INIT_XDATA_Z

        PUBLIC `??gp_CheckAnnouncedDevice::?relay`
        FUNCTION `??gp_CheckAnnouncedDevice::?relay`,0203H
        PUBLIC `??gp_PairingUpdateProxyTlb::?relay`
        FUNCTION `??gp_PairingUpdateProxyTlb::?relay`,0203H
        FUNCTION `??gp_PopulateProxyTblEntry::?relay`,0203H
        PUBLIC `??gp_UpdateProxyTlb::?relay`
        FUNCTION `??gp_UpdateProxyTlb::?relay`,0203H
        FUNCTION `??gp_pairingSetProxyTblOptions::?relay`,0203H
        PUBLIC `??pt_ZclReadGetProxyEntry::?relay`
        FUNCTION `??pt_ZclReadGetProxyEntry::?relay`,0203H
        FUNCTION `??pt_addSinkGroup::?relay`,0203H
        FUNCTION `??pt_updateLightweightUnicastSink::?relay`,0203H
        PUBLIC `??zclGpp_ReadWriteAttrCB::?relay`
        FUNCTION `??zclGpp_ReadWriteAttrCB::?relay`,0203H
        PUBWEAK __Constant_10000
        PUBLIC aliasConflictAnnce
        PUBLIC gp_CheckAnnouncedDevice
        FUNCTION gp_CheckAnnouncedDevice,0a1203H
        ARGFRAME XSTACK, 0, STACK
        LOCFRAME XSTACK, 89, STACK
        PUBLIC gp_PairingUpdateProxyTlb
        FUNCTION gp_PairingUpdateProxyTlb,0a1203H
        ARGFRAME XSTACK, 0, STACK
        LOCFRAME ISTACK, 1, STACK
        LOCFRAME XSTACK, 92, STACK
        FUNCTION gp_PopulateProxyTblEntry,0a1203H
        ARGFRAME XSTACK, 169, STACK
        ARGFRAME IOVERLAY, 0, STATIC
        ARGFRAME DOVERLAY, 0, STATIC
        LOCFRAME XSTACK, 15, STACK
        PUBLIC gp_UpdateProxyTlb
        FUNCTION gp_UpdateProxyTlb,0a1203H
        ARGFRAME XSTACK, 89, STACK
        ARGFRAME IOVERLAY, 0, STATIC
        ARGFRAME DOVERLAY, 0, STATIC
        LOCFRAME ISTACK, 1, STACK
        LOCFRAME XSTACK, 281, STACK
        FUNCTION gp_pairingSetProxyTblOptions,080203H
        ARGFRAME XSTACK, 89, STACK
        ARGFRAME IOVERLAY, 0, STATIC
        ARGFRAME DOVERLAY, 0, STATIC
        LOCFRAME ISTACK, 1, STACK
        LOCFRAME XSTACK, 18, STACK
        PUBLIC pt_ZclReadGetProxyEntry
        FUNCTION pt_ZclReadGetProxyEntry,0a1203H
        ARGFRAME XSTACK, 14, STACK
        ARGFRAME IOVERLAY, 0, STATIC
        ARGFRAME DOVERLAY, 0, STATIC
        LOCFRAME ISTACK, 1, STACK
        LOCFRAME XSTACK, 170, STACK
        FUNCTION pt_addSinkGroup,0a1203H
        ARGFRAME XSTACK, 277, STACK
        ARGFRAME IOVERLAY, 0, STATIC
        ARGFRAME DOVERLAY, 0, STATIC
        LOCFRAME XSTACK, 148, STACK
        FUNCTION pt_updateLightweightUnicastSink,0a1203H
        ARGFRAME XSTACK, 277, STACK
        ARGFRAME IOVERLAY, 0, STATIC
        ARGFRAME DOVERLAY, 0, STATIC
        LOCFRAME XSTACK, 169, STACK
        PUBLIC zclGpp_ReadWriteAttrCB
        FUNCTION zclGpp_ReadWriteAttrCB,0a1203H
        ARGFRAME XSTACK, 4, STACK
        LOCFRAME XSTACK, 14, STACK
        
          CFI Names cfiNames0
          CFI StackFrame CFA_SP SP IDATA
          CFI StackFrame CFA_PSP16 PSP16 XDATA
          CFI StackFrame CFA_XSP16 XSP16 XDATA
          CFI StaticOverlayFrame CFA_IOVERLAY IOVERLAY
          CFI StaticOverlayFrame CFA_DOVERLAY DOVERLAY
          CFI Resource `PSW.CY`:1, `B.BR0`:1, `B.BR1`:1, `B.BR2`:1, `B.BR3`:1
          CFI Resource `B.BR4`:1, `B.BR5`:1, `B.BR6`:1, `B.BR7`:1, `VB.BR8`:1
          CFI Resource `VB.BR9`:1, `VB.BR10`:1, `VB.BR11`:1, `VB.BR12`:1
          CFI Resource `VB.BR13`:1, `VB.BR14`:1, `VB.BR15`:1, VB:8, B:8, A:8
          CFI Resource PSW:8, DPL0:8, DPH0:8, R0:8, R1:8, R2:8, R3:8, R4:8, R5:8
          CFI Resource R6:8, R7:8, V0:8, V1:8, V2:8, V3:8, V4:8, V5:8, V6:8, V7:8
          CFI Resource SP:8, PSPH:8, PSPL:8, PSP16:16, XSPH:8, XSPL:8, XSP16:16
          CFI VirtualResource ?RET:24
          CFI Resource ?BRET_EXT:8
          CFI VirtualResource ?RET_HIGH:8, ?RET_LOW:8
          CFI ResourceParts PSP16 PSPH, PSPL
          CFI ResourceParts XSP16 XSPH, XSPL
          CFI ResourceParts ?RET ?BRET_EXT, ?RET_HIGH, ?RET_LOW
          CFI EndNames cfiNames0
        
          CFI Common cfiCommon0 Using cfiNames0
          CFI CodeAlign 1
          CFI DataAlign -1
          CFI ReturnAddress ?RET CODE
          CFI CFA_DOVERLAY Used
          CFI CFA_IOVERLAY Used
          CFI CFA_SP SP+-3
          CFI CFA_PSP16 PSP16+0
          CFI CFA_XSP16 XSP16+0
          CFI `PSW.CY` SameValue
          CFI `B.BR0` SameValue
          CFI `B.BR1` SameValue
          CFI `B.BR2` SameValue
          CFI `B.BR3` SameValue
          CFI `B.BR4` SameValue
          CFI `B.BR5` SameValue
          CFI `B.BR6` SameValue
          CFI `B.BR7` SameValue
          CFI `VB.BR8` SameValue
          CFI `VB.BR9` SameValue
          CFI `VB.BR10` SameValue
          CFI `VB.BR11` SameValue
          CFI `VB.BR12` SameValue
          CFI `VB.BR13` SameValue
          CFI `VB.BR14` SameValue
          CFI `VB.BR15` SameValue
          CFI VB SameValue
          CFI B Undefined
          CFI A Undefined
          CFI PSW SameValue
          CFI DPL0 SameValue
          CFI DPH0 SameValue
          CFI R0 Undefined
          CFI R1 Undefined
          CFI R2 Undefined
          CFI R3 Undefined
          CFI R4 Undefined
          CFI R5 Undefined
          CFI R6 SameValue
          CFI R7 SameValue
          CFI V0 SameValue
          CFI V1 SameValue
          CFI V2 SameValue
          CFI V3 SameValue
          CFI V4 SameValue
          CFI V5 SameValue
          CFI V6 SameValue
          CFI V7 SameValue
          CFI PSPH Undefined
          CFI PSPL Undefined
          CFI XSPH Undefined
          CFI XSPL Undefined
          CFI ?RET Concat
          CFI ?BRET_EXT Frame(CFA_SP, 3)
          CFI ?RET_HIGH Frame(CFA_SP, 2)
          CFI ?RET_LOW Frame(CFA_SP, 1)
          CFI EndCommon cfiCommon0
        
        
          CFI Common cfiCommon1 Using cfiNames0
          CFI CodeAlign 1
          CFI DataAlign -1
          CFI ReturnAddress ?RET CODE
          CFI CFA_DOVERLAY Used
          CFI CFA_IOVERLAY Used
          CFI CFA_SP SP+-2
          CFI CFA_PSP16 PSP16+0
          CFI CFA_XSP16 XSP16+0
          CFI `PSW.CY` SameValue
          CFI `B.BR0` SameValue
          CFI `B.BR1` SameValue
          CFI `B.BR2` SameValue
          CFI `B.BR3` SameValue
          CFI `B.BR4` SameValue
          CFI `B.BR5` SameValue
          CFI `B.BR6` SameValue
          CFI `B.BR7` SameValue
          CFI `VB.BR8` SameValue
          CFI `VB.BR9` SameValue
          CFI `VB.BR10` SameValue
          CFI `VB.BR11` SameValue
          CFI `VB.BR12` SameValue
          CFI `VB.BR13` SameValue
          CFI `VB.BR14` SameValue
          CFI `VB.BR15` SameValue
          CFI VB SameValue
          CFI B SameValue
          CFI A SameValue
          CFI PSW SameValue
          CFI DPL0 SameValue
          CFI DPH0 SameValue
          CFI R0 SameValue
          CFI R1 SameValue
          CFI R2 SameValue
          CFI R3 SameValue
          CFI R4 SameValue
          CFI R5 SameValue
          CFI R6 SameValue
          CFI R7 SameValue
          CFI V0 SameValue
          CFI V1 SameValue
          CFI V2 SameValue
          CFI V3 SameValue
          CFI V4 SameValue
          CFI V5 SameValue
          CFI V6 SameValue
          CFI V7 SameValue
          CFI PSPH Undefined
          CFI PSPL Undefined
          CFI XSPH Undefined
          CFI XSPL Undefined
          CFI ?RET Concat
          CFI ?BRET_EXT SameValue
          CFI ?RET_HIGH Frame(CFA_SP, 2)
          CFI ?RET_LOW Frame(CFA_SP, 1)
          CFI EndCommon cfiCommon1
        
NLME_ReportAddressConflict SYMBOL "NLME_ReportAddressConflict"
`??NLME_ReportAddressConflict::?relay` SYMBOL "?relay", NLME_ReportAddressConflict
NLME_SendNetworkStatus SYMBOL "NLME_SendNetworkStatus"
`??NLME_SendNetworkStatus::?relay` SYMBOL "?relay", NLME_SendNetworkStatus
gp_ResetProxyBasicTblEntry SYMBOL "gp_ResetProxyBasicTblEntry"
`??gp_ResetProxyBasicTblEntry::?relay` SYMBOL "?relay", gp_ResetProxyBasicTblEntry
gp_getProxyTableByIndex SYMBOL "gp_getProxyTableByIndex"
`??gp_getProxyTableByIndex::?relay` SYMBOL "?relay", gp_getProxyTableByIndex
osal_memcmp         SYMBOL "osal_memcmp"
`??osal_memcmp::?relay` SYMBOL "?relay", osal_memcmp
osal_memcpy         SYMBOL "osal_memcpy"
`??osal_memcpy::?relay` SYMBOL "?relay", osal_memcpy
osal_memset         SYMBOL "osal_memset"
`??osal_memset::?relay` SYMBOL "?relay", osal_memset
osal_nv_read        SYMBOL "osal_nv_read"
`??osal_nv_read::?relay` SYMBOL "?relay", osal_nv_read
osal_nv_write       SYMBOL "osal_nv_write"
`??osal_nv_write::?relay` SYMBOL "?relay", osal_nv_write
osal_rand           SYMBOL "osal_rand"
`??osal_rand::?relay` SYMBOL "?relay", osal_rand
osal_start_timerEx  SYMBOL "osal_start_timerEx"
`??osal_start_timerEx::?relay` SYMBOL "?relay", osal_start_timerEx
gp_CheckAnnouncedDevice SYMBOL "gp_CheckAnnouncedDevice"
`??gp_CheckAnnouncedDevice::?relay` SYMBOL "?relay", gp_CheckAnnouncedDevice
gp_PairingUpdateProxyTlb SYMBOL "gp_PairingUpdateProxyTlb"
`??gp_PairingUpdateProxyTlb::?relay` SYMBOL "?relay", gp_PairingUpdateProxyTlb
gp_UpdateProxyTlb   SYMBOL "gp_UpdateProxyTlb"
`??gp_UpdateProxyTlb::?relay` SYMBOL "?relay", gp_UpdateProxyTlb
pt_ZclReadGetProxyEntry SYMBOL "pt_ZclReadGetProxyEntry"
`??pt_ZclReadGetProxyEntry::?relay` SYMBOL "?relay", pt_ZclReadGetProxyEntry
zclGpp_ReadWriteAttrCB SYMBOL "zclGpp_ReadWriteAttrCB"
`??zclGpp_ReadWriteAttrCB::?relay` SYMBOL "?relay", zclGpp_ReadWriteAttrCB

        EXTERN `??NLME_ReportAddressConflict::?relay`
        FUNCTION `??NLME_ReportAddressConflict::?relay`,00H
        EXTERN `??NLME_SendNetworkStatus::?relay`
        FUNCTION `??NLME_SendNetworkStatus::?relay`,00H
        EXTERN `??gp_ResetProxyBasicTblEntry::?relay`
        FUNCTION `??gp_ResetProxyBasicTblEntry::?relay`,00H
        EXTERN `??gp_getProxyTableByIndex::?relay`
        FUNCTION `??gp_getProxyTableByIndex::?relay`,00H
        EXTERN `??osal_memcmp::?relay`
        FUNCTION `??osal_memcmp::?relay`,00H
        EXTERN `??osal_memcpy::?relay`
        FUNCTION `??osal_memcpy::?relay`,00H
        EXTERN `??osal_memset::?relay`
        FUNCTION `??osal_memset::?relay`,00H
        EXTERN `??osal_nv_read::?relay`
        FUNCTION `??osal_nv_read::?relay`,00H
        EXTERN `??osal_nv_write::?relay`
        FUNCTION `??osal_nv_write::?relay`,00H
        EXTERN `??osal_rand::?relay`
        FUNCTION `??osal_rand::?relay`,00H
        EXTERN `??osal_start_timerEx::?relay`
        FUNCTION `??osal_start_timerEx::?relay`,00H
        EXTERN NLME_ReportAddressConflict
        FUNCTION NLME_ReportAddressConflict,0202H
        ARGFRAME ISTACK, 0, STACK
        ARGFRAME PSTACK, 0, STACK
        ARGFRAME XSTACK, 277, STACK
        ARGFRAME IOVERLAY, 0, STATIC
        ARGFRAME DOVERLAY, 0, STATIC
        EXTERN NLME_SendNetworkStatus
        FUNCTION NLME_SendNetworkStatus,0202H
        ARGFRAME ISTACK, 0, STACK
        ARGFRAME PSTACK, 0, STACK
        ARGFRAME XSTACK, 86, STACK
        ARGFRAME IOVERLAY, 0, STATIC
        ARGFRAME DOVERLAY, 0, STATIC
        EXTERN _NIB
        EXTERN gp_ResetProxyBasicTblEntry
        FUNCTION gp_ResetProxyBasicTblEntry,0202H
        ARGFRAME ISTACK, 0, STACK
        ARGFRAME PSTACK, 0, STACK
        ARGFRAME XSTACK, 277, STACK
        ARGFRAME IOVERLAY, 0, STATIC
        ARGFRAME DOVERLAY, 0, STATIC
        EXTERN gp_TaskID
        EXTERN gp_getProxyTableByIndex
        FUNCTION gp_getProxyTableByIndex,0202H
        ARGFRAME ISTACK, 0, STACK
        ARGFRAME PSTACK, 0, STACK
        ARGFRAME XSTACK, 277, STACK
        ARGFRAME IOVERLAY, 0, STATIC
        ARGFRAME DOVERLAY, 0, STATIC
        EXTERN osal_memcmp
        FUNCTION osal_memcmp,0202H
        ARGFRAME ISTACK, 0, STACK
        ARGFRAME PSTACK, 0, STACK
        ARGFRAME XSTACK, 280, STACK
        ARGFRAME IOVERLAY, 0, STATIC
        ARGFRAME DOVERLAY, 0, STATIC
        EXTERN osal_memcpy
        FUNCTION osal_memcpy,0202H
        ARGFRAME ISTACK, 0, STACK
        ARGFRAME PSTACK, 0, STACK
        ARGFRAME XSTACK, 280, STACK
        ARGFRAME IOVERLAY, 0, STATIC
        ARGFRAME DOVERLAY, 0, STATIC
        EXTERN osal_memset
        FUNCTION osal_memset,0202H
        ARGFRAME ISTACK, 0, STACK
        ARGFRAME PSTACK, 0, STACK
        ARGFRAME XSTACK, 89, STACK
        ARGFRAME IOVERLAY, 0, STATIC
        ARGFRAME DOVERLAY, 0, STATIC
        EXTERN osal_nv_read
        FUNCTION osal_nv_read,0202H
        ARGFRAME ISTACK, 0, STACK
        ARGFRAME PSTACK, 0, STACK
        ARGFRAME XSTACK, 281, STACK
        ARGFRAME IOVERLAY, 0, STATIC
        ARGFRAME DOVERLAY, 0, STATIC
        EXTERN osal_nv_write
        FUNCTION osal_nv_write,0202H
        ARGFRAME ISTACK, 0, STACK
        ARGFRAME PSTACK, 0, STACK
        ARGFRAME XSTACK, 281, STACK
        ARGFRAME IOVERLAY, 0, STATIC
        ARGFRAME DOVERLAY, 0, STATIC
        EXTERN osal_rand
        FUNCTION osal_rand,0202H
        ARGFRAME ISTACK, 0, STACK
        ARGFRAME PSTACK, 0, STACK
        ARGFRAME XSTACK, 85, STACK
        ARGFRAME IOVERLAY, 0, STATIC
        ARGFRAME DOVERLAY, 0, STATIC
        EXTERN osal_start_timerEx
        FUNCTION osal_start_timerEx,0202H
        ARGFRAME ISTACK, 0, STACK
        ARGFRAME PSTACK, 0, STACK
        ARGFRAME XSTACK, 89, STACK
        ARGFRAME IOVERLAY, 0, STATIC
        ARGFRAME DOVERLAY, 0, STATIC

// D:\fuzzing-coordinator-response-collection\Components\stack\GP\gp_proxyTbl.c
//    1 /**************************************************************************************************
//    2   Filename:       gp_proxyTbl.c
//    3   Revised:        $Date: 2016-02-25 11:51:49 -0700 (Thu, 25 Feb 2016) $
//    4   Revision:       $Revision: - $
//    5 
//    6   Description:    This file contains the implementation of the cGP stub.
//    7 
//    8 
//    9   Copyright 2006-2015 Texas Instruments Incorporated. All rights reserved.
//   10 
//   11   IMPORTANT: Your use of this Software is limited to those specific rights
//   12   granted under the terms of a software license agreement between the user
//   13   who downloaded the software, his/her employer (which must be your employer)
//   14   and Texas Instruments Incorporated (the "License").  You may not use this
//   15   Software unless you agree to abide by the terms of the License. The License
//   16   limits your use, and you acknowledge, that the Software may not be modified,
//   17   copied or distributed unless embedded on a Texas Instruments microcontroller
//   18   or used solely and exclusively in conjunction with a Texas Instruments radio
//   19   frequency transceiver, which is integrated into your product.  Other than for
//   20   the foregoing purpose, you may not use, reproduce, copy, prepare derivative
//   21   works of, modify, distribute, perform, display or sell this Software and/or
//   22   its documentation for any purpose.
//   23 
//   24   YOU FURTHER ACKNOWLEDGE AND AGREE THAT THE SOFTWARE AND DOCUMENTATION ARE
//   25   PROVIDED "AS IS" WITHOUT WARRANTY OF ANY KIND, EITHER EXPRESS OR IMPLIED,
//   26   INCLUDING WITHOUT LIMITATION, ANY WARRANTY OF MERCHANTABILITY, TITLE,
//   27   NON-INFRINGEMENT AND FITNESS FOR A PARTICULAR PURPOSE. IN NO EVENT SHALL
//   28   TEXAS INSTRUMENTS OR ITS LICENSORS BE LIABLE OR OBLIGATED UNDER CONTRACT,
//   29   NEGLIGENCE, STRICT LIABILITY, CONTRIBUTION, BREACH OF WARRANTY, OR OTHER
//   30   LEGAL EQUITABLE THEORY ANY DIRECT OR INDIRECT DAMAGES OR EXPENSES
//   31   INCLUDING BUT NOT LIMITED TO ANY INCIDENTAL, SPECIAL, INDIRECT, PUNITIVE
//   32   OR CONSEQUENTIAL DAMAGES, LOST PROFITS OR LOST DATA, COST OF PROCUREMENT
//   33   OF SUBSTITUTE GOODS, TECHNOLOGY, SERVICES, OR ANY CLAIMS BY THIRD PARTIES
//   34   (INCLUDING BUT NOT LIMITED TO ANY DEFENSE THEREOF), OR OTHER SIMILAR COSTS.
//   35 
//   36   Should you have any questions regarding your right to use this Software,
//   37   contact Texas Instruments Incorporated at www.TI.com.
//   38 **************************************************************************************************/
//   39 
//   40 
//   41 
//   42 /*********************************************************************
//   43  * INCLUDES
//   44  */
//   45    
//   46 #include "ZGlobals.h"
//   47 #include "ZDObject.h"
//   48 #include "nwk_util.h"   
//   49 #include "ZComDef.h"
//   50 #include "cGP_stub.h"
//   51 #include "gp_common.h"
//   52 #include "gp_interface.h"
//   53 #include "zcl_green_power.h"
//   54 #include "OSAL.h"
//   55 
//   56 #if !defined (DISABLE_GREENPOWER_BASIC_PROXY) && (ZG_BUILD_RTR_TYPE)
//   57    
//   58  /*********************************************************************
//   59  * MACROS
//   60  */ 
//   61 
//   62  /*********************************************************************
//   63  * CONSTANTS
//   64  */
//   65 
//   66 /*********************************************************************
//   67  * TYPEDEFS
//   68  */
//   69    
//   70  /*********************************************************************
//   71  * GLOBAL VARIABLES
//   72  */

        RSEG XDATA_Z:XDATA:NOROOT(0)
        DATA8
//   73 ZDO_DeviceAnnce_t aliasConflictAnnce;
aliasConflictAnnce:
        DS 11
        REQUIRE __INIT_XDATA_Z
//   74 
//   75  /*********************************************************************
//   76  * EXTERNAL VARIABLES
//   77  */
//   78 
//   79 /*********************************************************************
//   80  * EXTERNAL FUNCTIONS
//   81  */
//   82 
//   83 /*********************************************************************
//   84  * LOCAL VARIABLES
//   85  */
//   86 
//   87  /*********************************************************************
//   88  * LOCAL FUNCTIONS
//   89  */
//   90 static void gp_PopulateProxyTblEntry( uint8* pData, uint8 size, uint8* pTblEntryVector, uint8* vectorLen );
//   91 static uint8 pt_getAlias( uint8* pNew );
//   92 static uint8 pt_getSecurity( uint8* pNew );
//   93 static uint8 pt_getSecFrameCounterCapabilities( uint8* pNew );
//   94 static uint8 pt_updateLightweightUnicastSink( uint8* pNew, uint8* pCurr, uint8 addSink );
//   95 static uint8 pt_addSinkGroup( uint8* pNew, uint8* pCurr );
//   96 static uint8 pt_lookForGpd( uint16 currProxyEntryId, uint8* pNew );
//   97 
//   98 /*********************************************************************
//   99  * PUBLIC FUNCTIONS
//  100  *********************************************************************/
//  101 
//  102 /*********************************************************************
//  103  * @fn          pt_ZclReadGetProxyEntry
//  104  *
//  105  * @brief       Populate the given item data
//  106  *
//  107  * @param       nvId - NV entry to read
//  108  *              pData - Pointer to OTA message payload
//  109  *              len - Lenght of the payload
//  110  *
//  111  * @return
//  112  */

        RSEG BANKED_CODE:HUGECODE:NOROOT(0)
//  113 uint8 pt_ZclReadGetProxyEntry( uint16 nvId, uint8* pData, uint8* len )
pt_ZclReadGetProxyEntry:
          CFI Block cfiBlock0 Using cfiCommon0
          CFI Function pt_ZclReadGetProxyEntry
        CODE
//  114 {
        FUNCALL pt_ZclReadGetProxyEntry, gp_getProxyTableByIndex
        LOCFRAME ISTACK, 0, STACK
        LOCFRAME PSTACK, 0, STACK
        LOCFRAME XSTACK, 167, STACK
        LOCFRAME IOVERLAY, 0, STATIC
        LOCFRAME DOVERLAY, 0, STATIC
        ARGFRAME ISTACK, 0, STACK
        ARGFRAME PSTACK, 0, STACK
        ARGFRAME XSTACK, 167, STACK
        ARGFRAME IOVERLAY, 0, STATIC
        ARGFRAME DOVERLAY, 0, STATIC
        FUNCALL pt_ZclReadGetProxyEntry, osal_memcpy
        LOCFRAME ISTACK, 0, STACK
        LOCFRAME PSTACK, 0, STACK
        LOCFRAME XSTACK, 170, STACK
        LOCFRAME IOVERLAY, 0, STATIC
        LOCFRAME DOVERLAY, 0, STATIC
        ARGFRAME ISTACK, 0, STACK
        ARGFRAME PSTACK, 0, STACK
        ARGFRAME XSTACK, 170, STACK
        ARGFRAME IOVERLAY, 0, STATIC
        ARGFRAME DOVERLAY, 0, STATIC
        FUNCALL pt_ZclReadGetProxyEntry, osal_memcpy
        LOCFRAME ISTACK, 0, STACK
        LOCFRAME PSTACK, 0, STACK
        LOCFRAME XSTACK, 170, STACK
        LOCFRAME IOVERLAY, 0, STATIC
        LOCFRAME DOVERLAY, 0, STATIC
        ARGFRAME ISTACK, 0, STACK
        ARGFRAME PSTACK, 0, STACK
        ARGFRAME XSTACK, 170, STACK
        ARGFRAME IOVERLAY, 0, STATIC
        ARGFRAME DOVERLAY, 0, STATIC
        FUNCALL pt_ZclReadGetProxyEntry, gp_PopulateProxyTblEntry
        LOCFRAME ISTACK, 0, STACK
        LOCFRAME PSTACK, 0, STACK
        LOCFRAME XSTACK, 169, STACK
        LOCFRAME IOVERLAY, 0, STATIC
        LOCFRAME DOVERLAY, 0, STATIC
        ARGFRAME ISTACK, 0, STACK
        ARGFRAME PSTACK, 0, STACK
        ARGFRAME XSTACK, 169, STACK
        ARGFRAME IOVERLAY, 0, STATIC
        ARGFRAME DOVERLAY, 0, STATIC
        FUNCALL pt_ZclReadGetProxyEntry, gp_PopulateProxyTblEntry
        LOCFRAME ISTACK, 0, STACK
        LOCFRAME PSTACK, 0, STACK
        LOCFRAME XSTACK, 169, STACK
        LOCFRAME IOVERLAY, 0, STATIC
        LOCFRAME DOVERLAY, 0, STATIC
        ARGFRAME ISTACK, 0, STACK
        ARGFRAME PSTACK, 0, STACK
        ARGFRAME XSTACK, 169, STACK
        ARGFRAME IOVERLAY, 0, STATIC
        ARGFRAME DOVERLAY, 0, STATIC
        FUNCALL pt_ZclReadGetProxyEntry, gp_PopulateProxyTblEntry
        LOCFRAME ISTACK, 0, STACK
        LOCFRAME PSTACK, 0, STACK
        LOCFRAME XSTACK, 169, STACK
        LOCFRAME IOVERLAY, 0, STATIC
        LOCFRAME DOVERLAY, 0, STATIC
        ARGFRAME ISTACK, 0, STACK
        ARGFRAME PSTACK, 0, STACK
        ARGFRAME XSTACK, 169, STACK
        ARGFRAME IOVERLAY, 0, STATIC
        ARGFRAME DOVERLAY, 0, STATIC
        FUNCALL pt_ZclReadGetProxyEntry, gp_PopulateProxyTblEntry
        LOCFRAME ISTACK, 0, STACK
        LOCFRAME PSTACK, 0, STACK
        LOCFRAME XSTACK, 169, STACK
        LOCFRAME IOVERLAY, 0, STATIC
        LOCFRAME DOVERLAY, 0, STATIC
        ARGFRAME ISTACK, 0, STACK
        ARGFRAME PSTACK, 0, STACK
        ARGFRAME XSTACK, 169, STACK
        ARGFRAME IOVERLAY, 0, STATIC
        ARGFRAME DOVERLAY, 0, STATIC
        FUNCALL pt_ZclReadGetProxyEntry, gp_PopulateProxyTblEntry
        LOCFRAME ISTACK, 0, STACK
        LOCFRAME PSTACK, 0, STACK
        LOCFRAME XSTACK, 169, STACK
        LOCFRAME IOVERLAY, 0, STATIC
        LOCFRAME DOVERLAY, 0, STATIC
        ARGFRAME ISTACK, 0, STACK
        ARGFRAME PSTACK, 0, STACK
        ARGFRAME XSTACK, 169, STACK
        ARGFRAME IOVERLAY, 0, STATIC
        ARGFRAME DOVERLAY, 0, STATIC
        FUNCALL pt_ZclReadGetProxyEntry, gp_PopulateProxyTblEntry
        LOCFRAME ISTACK, 0, STACK
        LOCFRAME PSTACK, 0, STACK
        LOCFRAME XSTACK, 169, STACK
        LOCFRAME IOVERLAY, 0, STATIC
        LOCFRAME DOVERLAY, 0, STATIC
        ARGFRAME ISTACK, 0, STACK
        ARGFRAME PSTACK, 0, STACK
        ARGFRAME XSTACK, 169, STACK
        ARGFRAME IOVERLAY, 0, STATIC
        ARGFRAME DOVERLAY, 0, STATIC
        FUNCALL pt_ZclReadGetProxyEntry, gp_PopulateProxyTblEntry
        LOCFRAME ISTACK, 0, STACK
        LOCFRAME PSTACK, 0, STACK
        LOCFRAME XSTACK, 169, STACK
        LOCFRAME IOVERLAY, 0, STATIC
        LOCFRAME DOVERLAY, 0, STATIC
        ARGFRAME ISTACK, 0, STACK
        ARGFRAME PSTACK, 0, STACK
        ARGFRAME XSTACK, 169, STACK
        ARGFRAME IOVERLAY, 0, STATIC
        ARGFRAME DOVERLAY, 0, STATIC
        FUNCALL pt_ZclReadGetProxyEntry, osal_memcmp
        LOCFRAME ISTACK, 0, STACK
        LOCFRAME PSTACK, 0, STACK
        LOCFRAME XSTACK, 170, STACK
        LOCFRAME IOVERLAY, 0, STATIC
        LOCFRAME DOVERLAY, 0, STATIC
        ARGFRAME ISTACK, 0, STACK
        ARGFRAME PSTACK, 0, STACK
        ARGFRAME XSTACK, 170, STACK
        ARGFRAME IOVERLAY, 0, STATIC
        ARGFRAME DOVERLAY, 0, STATIC
        FUNCALL pt_ZclReadGetProxyEntry, osal_memcpy
        LOCFRAME ISTACK, 0, STACK
        LOCFRAME PSTACK, 0, STACK
        LOCFRAME XSTACK, 170, STACK
        LOCFRAME IOVERLAY, 0, STATIC
        LOCFRAME DOVERLAY, 0, STATIC
        ARGFRAME ISTACK, 0, STACK
        ARGFRAME PSTACK, 0, STACK
        ARGFRAME XSTACK, 170, STACK
        ARGFRAME IOVERLAY, 0, STATIC
        ARGFRAME DOVERLAY, 0, STATIC
        FUNCALL pt_ZclReadGetProxyEntry, gp_PopulateProxyTblEntry
        LOCFRAME ISTACK, 0, STACK
        LOCFRAME PSTACK, 0, STACK
        LOCFRAME XSTACK, 169, STACK
        LOCFRAME IOVERLAY, 0, STATIC
        LOCFRAME DOVERLAY, 0, STATIC
        ARGFRAME ISTACK, 0, STACK
        ARGFRAME PSTACK, 0, STACK
        ARGFRAME XSTACK, 169, STACK
        ARGFRAME IOVERLAY, 0, STATIC
        ARGFRAME DOVERLAY, 0, STATIC
        FUNCALL pt_ZclReadGetProxyEntry, osal_memcmp
        LOCFRAME ISTACK, 0, STACK
        LOCFRAME PSTACK, 0, STACK
        LOCFRAME XSTACK, 170, STACK
        LOCFRAME IOVERLAY, 0, STATIC
        LOCFRAME DOVERLAY, 0, STATIC
        ARGFRAME ISTACK, 0, STACK
        ARGFRAME PSTACK, 0, STACK
        ARGFRAME XSTACK, 170, STACK
        ARGFRAME IOVERLAY, 0, STATIC
        ARGFRAME DOVERLAY, 0, STATIC
        FUNCALL pt_ZclReadGetProxyEntry, osal_memcpy
        LOCFRAME ISTACK, 0, STACK
        LOCFRAME PSTACK, 0, STACK
        LOCFRAME XSTACK, 170, STACK
        LOCFRAME IOVERLAY, 0, STATIC
        LOCFRAME DOVERLAY, 0, STATIC
        ARGFRAME ISTACK, 0, STACK
        ARGFRAME PSTACK, 0, STACK
        ARGFRAME XSTACK, 170, STACK
        ARGFRAME IOVERLAY, 0, STATIC
        ARGFRAME DOVERLAY, 0, STATIC
        FUNCALL pt_ZclReadGetProxyEntry, gp_PopulateProxyTblEntry
        LOCFRAME ISTACK, 0, STACK
        LOCFRAME PSTACK, 0, STACK
        LOCFRAME XSTACK, 169, STACK
        LOCFRAME IOVERLAY, 0, STATIC
        LOCFRAME DOVERLAY, 0, STATIC
        ARGFRAME ISTACK, 0, STACK
        ARGFRAME PSTACK, 0, STACK
        ARGFRAME XSTACK, 169, STACK
        ARGFRAME IOVERLAY, 0, STATIC
        ARGFRAME DOVERLAY, 0, STATIC
        FUNCALL pt_ZclReadGetProxyEntry, osal_memcpy
        LOCFRAME ISTACK, 0, STACK
        LOCFRAME PSTACK, 0, STACK
        LOCFRAME XSTACK, 170, STACK
        LOCFRAME IOVERLAY, 0, STATIC
        LOCFRAME DOVERLAY, 0, STATIC
        ARGFRAME ISTACK, 0, STACK
        ARGFRAME PSTACK, 0, STACK
        ARGFRAME XSTACK, 170, STACK
        ARGFRAME IOVERLAY, 0, STATIC
        ARGFRAME DOVERLAY, 0, STATIC
        FUNCALL pt_ZclReadGetProxyEntry, gp_PopulateProxyTblEntry
        LOCFRAME ISTACK, 0, STACK
        LOCFRAME PSTACK, 0, STACK
        LOCFRAME XSTACK, 169, STACK
        LOCFRAME IOVERLAY, 0, STATIC
        LOCFRAME DOVERLAY, 0, STATIC
        ARGFRAME ISTACK, 0, STACK
        ARGFRAME PSTACK, 0, STACK
        ARGFRAME XSTACK, 169, STACK
        ARGFRAME IOVERLAY, 0, STATIC
        ARGFRAME DOVERLAY, 0, STATIC
        FUNCALL pt_ZclReadGetProxyEntry, osal_memcpy
        LOCFRAME ISTACK, 0, STACK
        LOCFRAME PSTACK, 0, STACK
        LOCFRAME XSTACK, 170, STACK
        LOCFRAME IOVERLAY, 0, STATIC
        LOCFRAME DOVERLAY, 0, STATIC
        ARGFRAME ISTACK, 0, STACK
        ARGFRAME PSTACK, 0, STACK
        ARGFRAME XSTACK, 170, STACK
        ARGFRAME IOVERLAY, 0, STATIC
        ARGFRAME DOVERLAY, 0, STATIC
        FUNCALL pt_ZclReadGetProxyEntry, gp_PopulateProxyTblEntry
        LOCFRAME ISTACK, 0, STACK
        LOCFRAME PSTACK, 0, STACK
        LOCFRAME XSTACK, 169, STACK
        LOCFRAME IOVERLAY, 0, STATIC
        LOCFRAME DOVERLAY, 0, STATIC
        ARGFRAME ISTACK, 0, STACK
        ARGFRAME PSTACK, 0, STACK
        ARGFRAME XSTACK, 169, STACK
        ARGFRAME IOVERLAY, 0, STATIC
        ARGFRAME DOVERLAY, 0, STATIC
        FUNCALL pt_ZclReadGetProxyEntry, gp_PopulateProxyTblEntry
        LOCFRAME ISTACK, 0, STACK
        LOCFRAME PSTACK, 0, STACK
        LOCFRAME XSTACK, 169, STACK
        LOCFRAME IOVERLAY, 0, STATIC
        LOCFRAME DOVERLAY, 0, STATIC
        ARGFRAME ISTACK, 0, STACK
        ARGFRAME PSTACK, 0, STACK
        ARGFRAME XSTACK, 169, STACK
        ARGFRAME IOVERLAY, 0, STATIC
        ARGFRAME DOVERLAY, 0, STATIC
        FUNCALL pt_ZclReadGetProxyEntry, gp_PopulateProxyTblEntry
        LOCFRAME ISTACK, 0, STACK
        LOCFRAME PSTACK, 0, STACK
        LOCFRAME XSTACK, 169, STACK
        LOCFRAME IOVERLAY, 0, STATIC
        LOCFRAME DOVERLAY, 0, STATIC
        ARGFRAME ISTACK, 0, STACK
        ARGFRAME PSTACK, 0, STACK
        ARGFRAME XSTACK, 169, STACK
        ARGFRAME IOVERLAY, 0, STATIC
        ARGFRAME DOVERLAY, 0, STATIC
        FUNCALL pt_ZclReadGetProxyEntry, osal_memcpy
        LOCFRAME ISTACK, 0, STACK
        LOCFRAME PSTACK, 0, STACK
        LOCFRAME XSTACK, 170, STACK
        LOCFRAME IOVERLAY, 0, STATIC
        LOCFRAME DOVERLAY, 0, STATIC
        ARGFRAME ISTACK, 0, STACK
        ARGFRAME PSTACK, 0, STACK
        ARGFRAME XSTACK, 170, STACK
        ARGFRAME IOVERLAY, 0, STATIC
        ARGFRAME DOVERLAY, 0, STATIC
        FUNCALL pt_ZclReadGetProxyEntry, osal_memcpy
        LOCFRAME ISTACK, 0, STACK
        LOCFRAME PSTACK, 0, STACK
        LOCFRAME XSTACK, 170, STACK
        LOCFRAME IOVERLAY, 0, STATIC
        LOCFRAME DOVERLAY, 0, STATIC
        ARGFRAME ISTACK, 0, STACK
        ARGFRAME PSTACK, 0, STACK
        ARGFRAME XSTACK, 170, STACK
        ARGFRAME IOVERLAY, 0, STATIC
        ARGFRAME DOVERLAY, 0, STATIC
        REQUIRE ?V0
        REQUIRE ?V1
        REQUIRE ?V2
        REQUIRE ?V3
        REQUIRE ?V4
        REQUIRE ?V5
        REQUIRE ?V6
        REQUIRE ?V7
        MOV       A,#-0x10
        LCALL     ?BANKED_ENTER_XDATA
          CFI DPH0 load(1, XDATA, add(CFA_XSP16, literal(-1)))
          CFI DPL0 load(1, XDATA, add(CFA_XSP16, literal(-2)))
          CFI ?BRET_EXT load(1, XDATA, add(CFA_XSP16, literal(-3)))
          CFI ?RET_HIGH load(1, XDATA, add(CFA_XSP16, literal(-4)))
          CFI ?RET_LOW load(1, XDATA, add(CFA_XSP16, literal(-5)))
          CFI R7 load(1, XDATA, add(CFA_XSP16, literal(-6)))
          CFI V7 load(1, XDATA, add(CFA_XSP16, literal(-7)))
          CFI V6 load(1, XDATA, add(CFA_XSP16, literal(-8)))
          CFI V5 load(1, XDATA, add(CFA_XSP16, literal(-9)))
          CFI V4 load(1, XDATA, add(CFA_XSP16, literal(-10)))
          CFI V3 load(1, XDATA, add(CFA_XSP16, literal(-11)))
          CFI V2 load(1, XDATA, add(CFA_XSP16, literal(-12)))
          CFI V1 load(1, XDATA, add(CFA_XSP16, literal(-13)))
          CFI V0 load(1, XDATA, add(CFA_XSP16, literal(-14)))
          CFI VB load(1, XDATA, add(CFA_XSP16, literal(-15)))
          CFI R6 load(1, XDATA, add(CFA_XSP16, literal(-16)))
          CFI CFA_SP SP+0
          CFI CFA_XSP16 add(XSP16, 16)
        ; Saved register size: 16
        ; Auto size: 151
        MOV       A,#0x69
        LCALL     ?ALLOC_XSTACK8
          CFI CFA_XSP16 add(XSP16, 167)
        MOV       A,#0x2
        LCALL     ?XSTACK_DISP0_8
        MOV       A,R4
        MOVX      @DPTR,A
        INC       DPTR
        MOV       A,R5
        MOVX      @DPTR,A
//  115   uint8  freeSinkEntry[LSINK_ADDR_LEN] = {0xFF, 0xFF, 0xFF, 0xFF, 0xFF, 0xFF, 0xFF, 0xFF, 0xFF, 0xFF};
        MOV       DPTR,#`?<Constant {255, 255, 255, 255, 255, 255, 255,`
        MOV       A,#-0x73
        LCALL     ?XSTACK_DISP102_8
        MOV       A,#0xa
        LCALL     ?MOVE_LONG8_XDATA_XDATA
//  116   uint8  currEntry[PROXY_TBL_ENTRY_LEN] = PROXY_BASIC_TBL_EMPTY_ENTRY;
        MOV       DPTR,#`?<Constant {255, 255, 255, 255, 255, 255, 255,_1`
        MOV       A,#0xb
        LCALL     ?XSTACK_DISP102_8
        MOV       A,#0x41
        LCALL     ?MOVE_LONG8_XDATA_XDATA
//  117   uint8  gpdEntry[PROXY_TBL_ENTRY_LEN] = PROXY_BASIC_TBL_EMPTY_ENTRY;
        MOV       DPTR,#`?<Constant {255, 255, 255, 255, 255, 255, 255,_2`
        MOV       A,#0x41
        LCALL     ?MOVE_LONG8_XDATA_XDATA
//  118   uint8  gpdEntryLen = 0;
        MOV       DPL,?XSP + 0
        MOV       DPH,?XSP + 1
        MOVX      @DPTR,A
//  119   uint8  status;
//  120   uint16 options;
//  121 
//  122   status = gp_getProxyTableByIndex( nvId, currEntry );
        ; Setup parameters for call to function gp_getProxyTableByIndex
        MOV       A,#0xb
        LCALL     ?XSTACK_DISP102_8
        LCALL     `??gp_getProxyTableByIndex::?relay`; Banked call to: gp_getProxyTableByIndex
        MOV       A,R1
        MOV       ?V7,A
//  123 
//  124   // if FAIL or Empty
//  125   if ( ( status == NV_OPER_FAILED ) || ( status == NV_INVALID_DATA ) )
        MOV       A,#0xa
        XRL       A,?V7
        JZ        ??pt_ZclReadGetProxyEntry_0
        MOV       A,#0xd
        XRL       A,?V7
        JNZ       ??pt_ZclReadGetProxyEntry_1
//  126   {
//  127     // FAIL
//  128     return status;
??pt_ZclReadGetProxyEntry_0:
        LJMP      ??pt_ZclReadGetProxyEntry_2 & 0xFFFF
//  129   }
//  130 
//  131   osal_memcpy( &gpdEntry[gpdEntryLen], &currEntry[PROXY_TBL_ENTRY_OPT], sizeof ( uint16 ) );
??pt_ZclReadGetProxyEntry_1:
        MOV       A,#0xb
        LCALL     ?XSTACK_DISP100_8
        MOV       ?V0,R0
        MOV       ?V1,R1
        MOV       ?V2,#0x0
        ; Setup parameters for call to function osal_memcpy
        MOV       R0,#?V0
        LCALL     ?PUSH_XSTACK_I_THREE
          CFI CFA_XSP16 add(XSP16, 170)
        MOV       R4,#0x2
        MOV       R5,#0x0
        MOV       A,#0x3
        LCALL     ?XSTACK_DISP0_8
        MOVX      A,@DPTR
        MOV       R0,A
        MOV       A,#0x4f
        LCALL     ?XSTACK_DISP0_8
        LCALL     ?Subroutine7 & 0xFFFF
??CrossCallReturnLabel_13:
        LCALL     `??osal_memcpy::?relay`; Banked call to: osal_memcpy
        MOV       A,#0x3
        LCALL     ?DEALLOC_XSTACK8
          CFI CFA_XSP16 add(XSP16, 167)
//  132   osal_memcpy( &options, &currEntry[PROXY_TBL_ENTRY_OPT], sizeof ( uint16 ) );
        ; Setup parameters for call to function osal_memcpy
        MOV       R0,#?V0
        LCALL     ?PUSH_XSTACK_I_THREE
          CFI CFA_XSP16 add(XSP16, 170)
        MOV       R4,#0x2
        MOV       R5,#0x0
        MOV       A,#0x9
        LCALL     ?XSTACK_DISP101_8
        LCALL     `??osal_memcpy::?relay`; Banked call to: osal_memcpy
        MOV       A,#0x3
        LCALL     ?DEALLOC_XSTACK8
          CFI CFA_XSP16 add(XSP16, 167)
//  133   gpdEntryLen += sizeof ( uint16 );
        MOV       DPL,?XSP + 0
        MOV       DPH,?XSP + 1
        MOVX      A,@DPTR
        ADD       A,#0x2
        MOVX      @DPTR,A
//  134   
//  135   // Options bitfield
//  136   // If Application Id bitfield is 0b000
//  137   if( GP_IS_APPLICATION_ID_GPD( options ) )
        MOV       A,#0x6
        LCALL     ?XSTACK_DISP0_8
        MOVX      A,@DPTR
        ANL       A,#0x7
        MOV       R0,A
        JNZ       ??pt_ZclReadGetProxyEntry_3
//  138   {        
//  139     // Populate GPD ID
//  140     gp_PopulateProxyTblEntry( ( uint8* )&currEntry[PROXY_TBL_ENTRY_GPD_ID + 4], sizeof ( uint32 ), gpdEntry, &gpdEntryLen );
        ; Setup parameters for call to function gp_PopulateProxyTblEntry
        MOV       R0,?XSP + 0
        MOV       R1,?XSP + 1
        MOV       ?V0,R0
        MOV       ?V1,R1
        MOV       R0,#?V0
        LCALL     ?PUSH_XSTACK_I_TWO
          CFI CFA_XSP16 add(XSP16, 169)
        MOV       A,#0x4e
        LCALL     ?XSTACK_DISP102_8
        MOV       R1,#0x4
        MOV       A,#0x13
        SJMP      ??pt_ZclReadGetProxyEntry_4
          CFI CFA_XSP16 add(XSP16, 167)
//  141   }
//  142   // If Application Id bitfield is 0b010
//  143   else if( GP_IS_APPLICATION_ID_IEEE( options ) )
??pt_ZclReadGetProxyEntry_3:
        MOV       A,#0x2
        XRL       A,R0
        JNZ       ??pt_ZclReadGetProxyEntry_5
//  144   {   
//  145     gp_PopulateProxyTblEntry( ( uint8* )&currEntry[PROXY_TBL_ENTRY_GPD_ID], Z_EXTADDR_LEN, gpdEntry, &gpdEntryLen );
        ; Setup parameters for call to function gp_PopulateProxyTblEntry
        MOV       R0,?XSP + 0
        MOV       R1,?XSP + 1
        MOV       ?V0,R0
        MOV       ?V1,R1
        MOV       R0,#?V0
        LCALL     ?PUSH_XSTACK_I_TWO
          CFI CFA_XSP16 add(XSP16, 169)
        MOV       A,#0x4e
        LCALL     ?XSTACK_DISP102_8
        MOV       R1,#0x8
        MOV       A,#0xf
        LCALL     ?XSTACK_DISP0_8
        MOV       R2,DPL
        MOV       R3,DPH
        LCALL     `??gp_PopulateProxyTblEntry::?relay`; Banked call to: gp_PopulateProxyTblEntry
        MOV       A,#0x2
        LCALL     ?DEALLOC_XSTACK8
          CFI CFA_XSP16 add(XSP16, 167)
//  146     gp_PopulateProxyTblEntry( ( uint8* )&currEntry[PROXY_TBL_ENTRY_GPD_EP], sizeof ( uint8 ), gpdEntry, &gpdEntryLen );
        ; Setup parameters for call to function gp_PopulateProxyTblEntry
        MOV       R0,#?V0
        LCALL     ?PUSH_XSTACK_I_TWO
          CFI CFA_XSP16 add(XSP16, 169)
        MOV       A,#0x4e
        LCALL     ?XSTACK_DISP102_8
        MOV       R1,#0x1
        MOV       A,#0x17
??pt_ZclReadGetProxyEntry_4:
        LCALL     ?XSTACK_DISP0_8
        MOV       R2,DPL
        MOV       R3,DPH
        LCALL     `??gp_PopulateProxyTblEntry::?relay`; Banked call to: gp_PopulateProxyTblEntry
        MOV       A,#0x2
        LCALL     ?DEALLOC_XSTACK8
          CFI CFA_XSP16 add(XSP16, 167)
//  147   }
//  148   
//  149   if ( PROXY_TBL_GET_ASSIGNED_ALIAS( currEntry[PROXY_TBL_ENTRY_OPT + 1] ) )
??pt_ZclReadGetProxyEntry_5:
        MOV       A,#0xc
        LCALL     ?XSTACK_DISP0_8
        MOVX      A,@DPTR
        MOV       C,0xE0 /* A   */.5
        JNC       ??pt_ZclReadGetProxyEntry_6
//  150   {
//  151     gp_PopulateProxyTblEntry( ( uint8* )&currEntry[PROXY_TBL_ENTRY_ALIAS], sizeof ( uint16 ), gpdEntry, &gpdEntryLen );
        ; Setup parameters for call to function gp_PopulateProxyTblEntry
        MOV       R0,?XSP + 0
        MOV       R1,?XSP + 1
        MOV       ?V0,R0
        MOV       ?V1,R1
        MOV       R0,#?V0
        LCALL     ?PUSH_XSTACK_I_TWO
          CFI CFA_XSP16 add(XSP16, 169)
        MOV       A,#0x4e
        LCALL     ?XSTACK_DISP102_8
        MOV       R1,#0x2
        MOV       A,#0x18
        LCALL     ?XSTACK_DISP0_8
        MOV       R2,DPL
        MOV       R3,DPH
        LCALL     `??gp_PopulateProxyTblEntry::?relay`; Banked call to: gp_PopulateProxyTblEntry
        MOV       A,#0x2
        LCALL     ?DEALLOC_XSTACK8
          CFI CFA_XSP16 add(XSP16, 167)
//  152   }
//  153   
//  154   if ( PROXY_TBL_GET_SEC_USE( currEntry[PROXY_TBL_ENTRY_OPT + 1] ) )
??pt_ZclReadGetProxyEntry_6:
        MOV       A,#0xc
        LCALL     ?XSTACK_DISP0_8
        MOVX      A,@DPTR
        MOV       C,0xE0 /* A   */.6
        JNC       ??pt_ZclReadGetProxyEntry_7
//  155   {
//  156     gp_PopulateProxyTblEntry( ( uint8* )&currEntry[PROXY_TBL_ENTRY_SEC_OPT], sizeof ( uint8 ), gpdEntry, &gpdEntryLen );
        ; Setup parameters for call to function gp_PopulateProxyTblEntry
        MOV       R0,?XSP + 0
        MOV       R1,?XSP + 1
        MOV       ?V0,R0
        MOV       ?V1,R1
        MOV       R0,#?V0
        LCALL     ?PUSH_XSTACK_I_TWO
          CFI CFA_XSP16 add(XSP16, 169)
        MOV       A,#0x4e
        LCALL     ?XSTACK_DISP102_8
        MOV       R1,#0x1
        MOV       A,#0x1a
        LCALL     ?XSTACK_DISP0_8
        MOV       R2,DPL
        MOV       R3,DPH
        LCALL     `??gp_PopulateProxyTblEntry::?relay`; Banked call to: gp_PopulateProxyTblEntry
        MOV       A,#0x2
        LCALL     ?DEALLOC_XSTACK8
          CFI CFA_XSP16 add(XSP16, 167)
//  157   }
//  158   
//  159   if ( ( PROXY_TBL_GET_SEC_USE( currEntry[PROXY_TBL_ENTRY_OPT + 1] ) || ( PROXY_TBL_GET_SEC_CAP( currEntry[PROXY_TBL_ENTRY_OPT] ) ) ) )
??pt_ZclReadGetProxyEntry_7:
        MOV       A,#0xc
        LCALL     ?XSTACK_DISP0_8
        MOVX      A,@DPTR
        MOV       C,0xE0 /* A   */.6
        JC        ??pt_ZclReadGetProxyEntry_8
        MOV       A,#0xb
        LCALL     ?XSTACK_DISP0_8
        MOVX      A,@DPTR
        MOV       C,0xE0 /* A   */.5
        JNC       ??pt_ZclReadGetProxyEntry_9
//  160   {
//  161     gp_PopulateProxyTblEntry( ( uint8* )&currEntry[PROXY_TBL_ENTRY_SEC_FRAME], sizeof ( uint32 ), gpdEntry, &gpdEntryLen );
??pt_ZclReadGetProxyEntry_8:
        ; Setup parameters for call to function gp_PopulateProxyTblEntry
        MOV       R0,?XSP + 0
        MOV       R1,?XSP + 1
        MOV       ?V0,R0
        MOV       ?V1,R1
        MOV       R0,#?V0
        LCALL     ?PUSH_XSTACK_I_TWO
          CFI CFA_XSP16 add(XSP16, 169)
        MOV       A,#0x4e
        LCALL     ?XSTACK_DISP102_8
        MOV       R1,#0x4
        MOV       A,#0x1b
        LCALL     ?XSTACK_DISP0_8
        MOV       R2,DPL
        MOV       R3,DPH
        LCALL     `??gp_PopulateProxyTblEntry::?relay`; Banked call to: gp_PopulateProxyTblEntry
        MOV       A,#0x2
        LCALL     ?DEALLOC_XSTACK8
          CFI CFA_XSP16 add(XSP16, 167)
//  162   }
//  163   
//  164   if ( PROXY_TBL_GET_SEC_USE( currEntry[PROXY_TBL_ENTRY_OPT + 1] ) )
??pt_ZclReadGetProxyEntry_9:
        MOV       A,#0xc
        LCALL     ?XSTACK_DISP0_8
        MOVX      A,@DPTR
        MOV       C,0xE0 /* A   */.6
        JNC       ??pt_ZclReadGetProxyEntry_10
//  165   {
//  166     gp_PopulateProxyTblEntry( ( uint8* )&currEntry[PROXY_TBL_ENTRY_GPD_KEY], SEC_KEY_LEN, gpdEntry, &gpdEntryLen );
        ; Setup parameters for call to function gp_PopulateProxyTblEntry
        MOV       R0,?XSP + 0
        MOV       R1,?XSP + 1
        MOV       ?V0,R0
        MOV       ?V1,R1
        MOV       R0,#?V0
        LCALL     ?PUSH_XSTACK_I_TWO
          CFI CFA_XSP16 add(XSP16, 169)
        MOV       A,#0x4e
        LCALL     ?XSTACK_DISP102_8
        MOV       R1,#0x10
        MOV       A,#0x1f
        LCALL     ?XSTACK_DISP0_8
        MOV       R2,DPL
        MOV       R3,DPH
        LCALL     `??gp_PopulateProxyTblEntry::?relay`; Banked call to: gp_PopulateProxyTblEntry
        MOV       A,#0x2
        LCALL     ?DEALLOC_XSTACK8
          CFI CFA_XSP16 add(XSP16, 167)
//  167   }
//  168   
//  169   if ( PROXY_TBL_GET_LIGHTWIGHT_UNICAST( currEntry[PROXY_TBL_ENTRY_OPT] ) )
??pt_ZclReadGetProxyEntry_10:
        MOV       A,#0xb
        LCALL     ?XSTACK_DISP0_8
        MOVX      A,@DPTR
        MOV       C,0xE0 /* A   */.6
        JC        $+5
        LJMP      ??pt_ZclReadGetProxyEntry_11 & 0xFFFF
//  170   {
//  171     uint8 sinkCount = 0;
        MOV       A,#0x1
        LCALL     ?XSTACK_DISP0_8
        LCALL     ?Subroutine4 & 0xFFFF
//  172     uint8 sinkCountByte = gpdEntryLen;
//  173     
//  174     gpdEntryLen += sizeof ( sinkCountByte );
//  175     
//  176     if ( !osal_memcmp( freeSinkEntry, &currEntry[PROXY_TBL_ENTRY_1ST_LSINK_ADDR], LSINK_ADDR_LEN ) )
??CrossCallReturnLabel_3:
        LCALL     ?XSTACK_DISP0_8
        MOV       A,DPL
        ADD       A,R0
        MOV       R6,A
        CLR       A
        ADDC      A,DPH
        MOV       R7,A
        MOV       A,#-0x73
        LCALL     ?XSTACK_DISP100_8
        MOV       ?V0,R0
        MOV       ?V1,R1
        MOV       A,#0x1
        LCALL     ?XSTACK_DISP100_8
        MOV       A,#0x8
        LCALL     ?XSTACK_DISP0_8
        MOV       A,R0
        MOVX      @DPTR,A
        INC       DPTR
        MOV       A,R1
        MOVX      @DPTR,A
        INC       DPTR
        CLR       A
        MOVX      @DPTR,A
        ; Setup parameters for call to function osal_memcmp
        MOV       A,#0x2d
        LCALL     ?XSTACK_DISP0_8
        MOV       R1,DPL
        MOV       R2,DPH
        MOV       ?V4,R1
        MOV       ?V5,R2
        MOV       ?V6,#0x0
        MOV       R0,#?V4
        LCALL     ?PUSH_XSTACK_I_THREE
          CFI CFA_XSP16 add(XSP16, 170)
        MOV       R4,#0xa
        MOV       R5,#0x0
        MOV       R1,?V0
        MOV       R2,?V1
        MOV       R3,?V2
        LCALL     `??osal_memcmp::?relay`; Banked call to: osal_memcmp
        MOV       A,#0x3
        LCALL     ?DEALLOC_XSTACK8
          CFI CFA_XSP16 add(XSP16, 167)
        MOV       A,R1
        JNZ       ??pt_ZclReadGetProxyEntry_12
//  177     {
//  178       sinkCount += 1;
        MOV       A,#0x1
        LCALL     ?XSTACK_DISP0_8
        MOVX      A,@DPTR
        INC       A
        MOVX      @DPTR,A
//  179       osal_memcpy( &gpdEntry[sinkCountByte], &sinkCount, sizeof ( uint8 ) );
        ; Setup parameters for call to function osal_memcpy
        MOV       A,#0x8
        LCALL     ?XSTACK_DISP0_8
        LCALL     ?PUSH_XSTACK8_X_THREE
          CFI CFA_XSP16 add(XSP16, 170)
        MOV       R4,#0x1
        MOV       R5,#0x0
        MOV       A,R6
        MOV       R2,A
        MOV       A,R7
        MOV       R3,A
        LCALL     `??osal_memcpy::?relay`; Banked call to: osal_memcpy
        MOV       A,#0x3
        LCALL     ?DEALLOC_XSTACK8
          CFI CFA_XSP16 add(XSP16, 167)
//  180       gp_PopulateProxyTblEntry( ( uint8* )&currEntry[PROXY_TBL_ENTRY_1ST_LSINK_ADDR], LSINK_ADDR_LEN, gpdEntry, &gpdEntryLen );
        ; Setup parameters for call to function gp_PopulateProxyTblEntry
        MOV       R0,?XSP + 0
        MOV       R1,?XSP + 1
        MOV       ?V4,R0
        MOV       ?V5,R1
        MOV       R0,#?V4
        LCALL     ?PUSH_XSTACK_I_TWO
          CFI CFA_XSP16 add(XSP16, 169)
        MOV       A,#0x4e
        LCALL     ?XSTACK_DISP102_8
        MOV       R1,#0xa
        MOV       A,#0x2f
        LCALL     ?XSTACK_DISP0_8
        MOV       R2,DPL
        MOV       R3,DPH
        LCALL     `??gp_PopulateProxyTblEntry::?relay`; Banked call to: gp_PopulateProxyTblEntry
        MOV       A,#0x2
        LCALL     ?DEALLOC_XSTACK8
          CFI CFA_XSP16 add(XSP16, 167)
//  181     }
//  182     if ( !osal_memcmp( freeSinkEntry, &currEntry[PROXY_TBL_ENTRY_2ND_LSINK_ADDR], LSINK_ADDR_LEN ) )
??pt_ZclReadGetProxyEntry_12:
        ; Setup parameters for call to function osal_memcmp
        MOV       A,#0x37
        LCALL     ?XSTACK_DISP0_8
        MOV       R1,DPL
        MOV       R2,DPH
        MOV       ?V4,R1
        MOV       ?V5,R2
        MOV       R0,#?V4
        LCALL     ?PUSH_XSTACK_I_THREE
          CFI CFA_XSP16 add(XSP16, 170)
        MOV       R4,#0xa
        MOV       R5,#0x0
        MOV       R1,?V0
        MOV       R2,?V1
        MOV       R3,?V2
        LCALL     `??osal_memcmp::?relay`; Banked call to: osal_memcmp
        MOV       A,#0x3
        LCALL     ?DEALLOC_XSTACK8
          CFI CFA_XSP16 add(XSP16, 167)
        MOV       A,R1
        JNZ       ??pt_ZclReadGetProxyEntry_11
//  183     {
//  184       sinkCount += 1;
        MOV       A,#0x1
        LCALL     ?XSTACK_DISP0_8
        MOVX      A,@DPTR
        INC       A
        MOVX      @DPTR,A
//  185       osal_memcpy( &gpdEntry[sinkCountByte], &sinkCount, sizeof ( uint8 ) );
        ; Setup parameters for call to function osal_memcpy
        MOV       A,#0x8
        LCALL     ?XSTACK_DISP0_8
        LCALL     ?PUSH_XSTACK8_X_THREE
          CFI CFA_XSP16 add(XSP16, 170)
        MOV       R4,#0x1
        MOV       R5,#0x0
        MOV       A,R6
        MOV       R2,A
        MOV       A,R7
        MOV       R3,A
        LCALL     `??osal_memcpy::?relay`; Banked call to: osal_memcpy
        MOV       A,#0x3
        LCALL     ?DEALLOC_XSTACK8
          CFI CFA_XSP16 add(XSP16, 167)
//  186       gp_PopulateProxyTblEntry( ( uint8* )&currEntry[PROXY_TBL_ENTRY_2ND_LSINK_ADDR], LSINK_ADDR_LEN, gpdEntry, &gpdEntryLen );
        ; Setup parameters for call to function gp_PopulateProxyTblEntry
        MOV       R0,?XSP + 0
        MOV       R1,?XSP + 1
        MOV       ?V0,R0
        MOV       ?V1,R1
        MOV       R0,#?V0
        LCALL     ?PUSH_XSTACK_I_TWO
          CFI CFA_XSP16 add(XSP16, 169)
        MOV       A,#0x4e
        LCALL     ?XSTACK_DISP102_8
        MOV       R1,#0xa
        MOV       A,#0x39
        LCALL     ?XSTACK_DISP0_8
        MOV       R2,DPL
        MOV       R3,DPH
        LCALL     `??gp_PopulateProxyTblEntry::?relay`; Banked call to: gp_PopulateProxyTblEntry
        MOV       A,#0x2
        LCALL     ?DEALLOC_XSTACK8
          CFI CFA_XSP16 add(XSP16, 167)
//  187     }
//  188   }
//  189      
//  190   if ( PROXY_TBL_GET_CGROUP( currEntry[PROXY_TBL_ENTRY_OPT + 1] ) )
??pt_ZclReadGetProxyEntry_11:
        MOV       A,#0xc
        LCALL     ?XSTACK_DISP0_8
        MOVX      A,@DPTR
        MOV       C,0xE0 /* A   */.0
        JC        $+5
        LJMP      ??pt_ZclReadGetProxyEntry_13 & 0xFFFF
//  191   {
//  192     uint8 groupCount = 0;
        MOV       A,#0x1
        LCALL     ?XSTACK_DISP0_8
        LCALL     ?Subroutine4 & 0xFFFF
//  193     uint8 groupCountByte = gpdEntryLen;
//  194     
//  195     gpdEntryLen++;
//  196     
//  197     if ( GET_BIT( &currEntry[PROXY_TBL_ENTRY_GRP_TBL_ENTRIES], PROXY_TBL_ENTRY_1ST_GRP_BIT ) )
??CrossCallReturnLabel_4:
        LCALL     ?XSTACK_DISP0_8
        MOV       A,DPL
        ADD       A,R0
        MOV       R6,A
        CLR       A
        ADDC      A,DPH
        MOV       R7,A
        MOV       A,#0x1
        LCALL     ?XSTACK_DISP100_8
        MOV       ?V0,R0
        MOV       ?V1,R1
        MOV       A,#0x41
        LCALL     ?XSTACK_DISP0_8
        MOVX      A,@DPTR
        MOV       C,0xE0 /* A   */.0
        JNC       ??pt_ZclReadGetProxyEntry_14
//  198     {
//  199       groupCount += 1;
        MOV       A,#0x1
        LCALL     ?XSTACK_DISP0_8
        MOV       A,#0x1
        MOVX      @DPTR,A
//  200       osal_memcpy( &gpdEntry[groupCountByte], &groupCount, sizeof ( uint8 ) );
        ; Setup parameters for call to function osal_memcpy
        MOV       R0,#?V0
        LCALL     ?PUSH_XSTACK_I_THREE
          CFI CFA_XSP16 add(XSP16, 170)
        MOV       R4,#0x1
        MOV       R5,#0x0
        MOV       A,R6
        MOV       R2,A
        MOV       A,R7
        MOV       R3,A
        LCALL     `??osal_memcpy::?relay`; Banked call to: osal_memcpy
        MOV       A,#0x3
        LCALL     ?DEALLOC_XSTACK8
          CFI CFA_XSP16 add(XSP16, 167)
//  201       gp_PopulateProxyTblEntry( ( uint8* )&currEntry[PROXY_TBL_ENTRY_1ST_GRP_ADDR], sizeof ( uint32 ), gpdEntry, &gpdEntryLen );
        ; Setup parameters for call to function gp_PopulateProxyTblEntry
        MOV       R0,?XSP + 0
        MOV       R1,?XSP + 1
        MOV       ?V4,R0
        MOV       ?V5,R1
        MOV       R0,#?V4
        LCALL     ?PUSH_XSTACK_I_TWO
          CFI CFA_XSP16 add(XSP16, 169)
        MOV       A,#0x4e
        LCALL     ?XSTACK_DISP102_8
        MOV       R1,#0x4
        MOV       A,#0x44
        LCALL     ?XSTACK_DISP0_8
        MOV       R2,DPL
        MOV       R3,DPH
        LCALL     `??gp_PopulateProxyTblEntry::?relay`; Banked call to: gp_PopulateProxyTblEntry
        MOV       A,#0x2
        LCALL     ?DEALLOC_XSTACK8
          CFI CFA_XSP16 add(XSP16, 167)
//  202     }
//  203     if ( GET_BIT( &currEntry[PROXY_TBL_ENTRY_GRP_TBL_ENTRIES], PROXY_TBL_ENTRY_2ND_GRP_BIT ) )
??pt_ZclReadGetProxyEntry_14:
        MOV       A,#0x41
        LCALL     ?XSTACK_DISP0_8
        MOVX      A,@DPTR
        MOV       C,0xE0 /* A   */.1
        JNC       ??pt_ZclReadGetProxyEntry_13
//  204     {
//  205       groupCount += 1;
        MOV       A,#0x1
        LCALL     ?XSTACK_DISP0_8
        MOVX      A,@DPTR
        INC       A
        MOVX      @DPTR,A
//  206       osal_memcpy( &gpdEntry[groupCountByte], &groupCount, sizeof( uint8 ) );
        ; Setup parameters for call to function osal_memcpy
        MOV       R0,#?V0
        LCALL     ?PUSH_XSTACK_I_THREE
          CFI CFA_XSP16 add(XSP16, 170)
        MOV       R4,#0x1
        MOV       R5,#0x0
        MOV       A,R6
        MOV       R2,A
        MOV       A,R7
        MOV       R3,A
        LCALL     `??osal_memcpy::?relay`; Banked call to: osal_memcpy
        MOV       A,#0x3
        LCALL     ?DEALLOC_XSTACK8
          CFI CFA_XSP16 add(XSP16, 167)
//  207       gp_PopulateProxyTblEntry( ( uint8* )&currEntry[PROXY_TBL_ENTRY_2ND_GRP_ADDR], sizeof ( uint32 ), gpdEntry, &gpdEntryLen );
        ; Setup parameters for call to function gp_PopulateProxyTblEntry
        MOV       R0,?XSP + 0
        MOV       R1,?XSP + 1
        MOV       ?V0,R0
        MOV       ?V1,R1
        MOV       R0,#?V0
        LCALL     ?PUSH_XSTACK_I_TWO
          CFI CFA_XSP16 add(XSP16, 169)
        MOV       A,#0x4e
        LCALL     ?XSTACK_DISP102_8
        MOV       R1,#0x4
        MOV       A,#0x48
        LCALL     ?XSTACK_DISP0_8
        MOV       R2,DPL
        MOV       R3,DPH
        LCALL     `??gp_PopulateProxyTblEntry::?relay`; Banked call to: gp_PopulateProxyTblEntry
        MOV       A,#0x2
        LCALL     ?DEALLOC_XSTACK8
          CFI CFA_XSP16 add(XSP16, 167)
//  208     }
//  209   }
//  210   
//  211   gp_PopulateProxyTblEntry( ( uint8* )&currEntry[PROXY_TBL_ENTRY_GRP_RAD], sizeof ( uint8 ), gpdEntry, &gpdEntryLen );
??pt_ZclReadGetProxyEntry_13:
        ; Setup parameters for call to function gp_PopulateProxyTblEntry
        MOV       R0,?XSP + 0
        MOV       R1,?XSP + 1
        MOV       ?V0,R0
        MOV       ?V1,R1
        MOV       R0,#?V0
        LCALL     ?PUSH_XSTACK_I_TWO
          CFI CFA_XSP16 add(XSP16, 169)
        MOV       A,#0x4e
        LCALL     ?XSTACK_DISP102_8
        MOV       R1,#0x1
        MOV       A,#0x4c
        LCALL     ?XSTACK_DISP0_8
        MOV       R2,DPL
        MOV       R3,DPH
        LCALL     `??gp_PopulateProxyTblEntry::?relay`; Banked call to: gp_PopulateProxyTblEntry
        MOV       A,#0x2
        LCALL     ?DEALLOC_XSTACK8
          CFI CFA_XSP16 add(XSP16, 167)
//  212   
//  213   if ( ( PROXY_TBL_GET_ENTRY_ACTIVE( currEntry[PROXY_TBL_ENTRY_OPT] ) == 0 ) || ( PROXY_TBL_GET_ENTRY_VALID( currEntry[PROXY_TBL_ENTRY_OPT] ) == 0 ) )
        MOV       A,#0xb
        LCALL     ?XSTACK_DISP0_8
        MOVX      A,@DPTR
        ANL       A,#0x18
        XRL       A,#0x18
        JZ        ??pt_ZclReadGetProxyEntry_15
//  214   {
//  215     gp_PopulateProxyTblEntry( ( uint8* )&currEntry[PROXY_TBL_ENTRY_SEARCH_COUNTER], sizeof ( uint8 ), gpdEntry, &gpdEntryLen );
        ; Setup parameters for call to function gp_PopulateProxyTblEntry
        MOV       R0,#?V0
        LCALL     ?PUSH_XSTACK_I_TWO
          CFI CFA_XSP16 add(XSP16, 169)
        MOV       A,#0x4e
        LCALL     ?XSTACK_DISP102_8
        MOV       R1,#0x1
        MOV       A,#0x4d
        LCALL     ?XSTACK_DISP0_8
        MOV       R2,DPL
        MOV       R3,DPH
        LCALL     `??gp_PopulateProxyTblEntry::?relay`; Banked call to: gp_PopulateProxyTblEntry
        MOV       A,#0x2
        LCALL     ?DEALLOC_XSTACK8
          CFI CFA_XSP16 add(XSP16, 167)
??pt_ZclReadGetProxyEntry_15:
        MOV       A,#-0x59
        LCALL     ?XSTACK_DISP0_8
        MOVX      A,@DPTR
        MOV       R6,A
        INC       DPTR
        MOVX      A,@DPTR
        MOV       R7,A
//  216   }
//  217   
//  218   if ( pData != NULL )
        MOV       DPL,R6
        MOV       DPH,R7
        MOVX      A,@DPTR
        MOV       R2,A
        MOV       A,#0x2
        LCALL     ?XSTACK_DISP0_8
        MOVX      A,@DPTR
        MOV       R0,A
        INC       DPTR
        MOVX      A,@DPTR
        MOV       R1,A
        MOV       A,R0
        ORL       A,R1
        JNZ       $+5
        LJMP      ??pt_ZclReadGetProxyEntry_16 & 0xFFFF
//  219   {
//  220     uint8 sinkEntryLen;
//  221     uint16 totalLen;
//  222     
//  223     sinkEntryLen = gpdEntryLen;
        MOV       DPL,?XSP + 0
        MOV       DPH,?XSP + 1
        MOVX      A,@DPTR
        MOV       ?V3,A
//  224     if ( *len != 0 )
        MOV       A,R2
        JZ        ??pt_ZclReadGetProxyEntry_17
//  225     {
//  226     gpdEntryLen -= sizeof ( uint16 );
        MOVX      A,@DPTR
        ADD       A,#-0x2
        MOVX      @DPTR,A
//  227     }
//  228     totalLen = gpdEntryLen;
??pt_ZclReadGetProxyEntry_17:
        MOVX      A,@DPTR
        MOV       R0,A
        MOV       A,#0x4
        LCALL     ?XSTACK_DISP0_8
        MOV       A,R0
        MOVX      @DPTR,A
        INC       DPTR
        CLR       A
        MOVX      @DPTR,A
//  229     totalLen += *len;
        MOV       DPL,R6
        MOV       DPH,R7
        MOVX      A,@DPTR
        MOV       R0,A
        MOV       A,#0x4
        LCALL     ?XSTACK_DISP0_8
        MOVX      A,@DPTR
        ADD       A,R0
        MOVX      @DPTR,A
        INC       DPTR
        MOVX      A,@DPTR
        ADDC      A,#0x0
        MOVX      @DPTR,A
//  230     osal_memcpy( pData, &totalLen, sizeof ( uint16 ) );
        ; Setup parameters for call to function osal_memcpy
        MOV       A,#0x4
        LCALL     ?XSTACK_DISP100_8
        MOV       ?V0,R0
        MOV       ?V1,R1
        MOV       R0,#?V0
        LCALL     ?PUSH_XSTACK_I_THREE
          CFI CFA_XSP16 add(XSP16, 170)
        MOV       R4,#0x2
        MOV       R5,#0x0
        MOV       A,#0x5
        LCALL     ?XSTACK_DISP0_8
        LCALL     ?Subroutine9 & 0xFFFF
??CrossCallReturnLabel_18:
        LCALL     `??osal_memcpy::?relay`; Banked call to: osal_memcpy
        MOV       A,#0x3
        LCALL     ?DEALLOC_XSTACK8
          CFI CFA_XSP16 add(XSP16, 167)
//  231     if ( *len == 0 )
        MOV       DPL,R6
        MOV       DPH,R7
        MOVX      A,@DPTR
        JNZ       ??pt_ZclReadGetProxyEntry_18
//  232     {
//  233       pData += sizeof ( uint16 );
        MOV       A,#0x2
        LCALL     ?XSTACK_DISP0_8
        MOVX      A,@DPTR
        ADD       A,#0x2
        MOV       R0,A
        INC       DPTR
        MOVX      A,@DPTR
        ADDC      A,#0x0
        MOV       R1,A
        MOV       A,#0x2
        LCALL     ?XSTACK_DISP0_8
        MOV       A,R0
        MOVX      @DPTR,A
        INC       DPTR
        MOV       A,R1
        MOVX      @DPTR,A
//  234     }
//  235     gpdEntryLen += sizeof ( uint16 );
??pt_ZclReadGetProxyEntry_18:
        MOV       DPL,?XSP + 0
        MOV       DPH,?XSP + 1
        MOVX      A,@DPTR
        ADD       A,#0x2
        MOVX      @DPTR,A
//  236     
//  237     pData += *len;
//  238     osal_memcpy( pData, gpdEntry, sinkEntryLen );
        ; Setup parameters for call to function osal_memcpy
        MOV       A,#0x4c
        LCALL     ?XSTACK_DISP100_8
        MOV       ?V0,R0
        MOV       ?V1,R1
        MOV       R0,#?V0
        LCALL     ?PUSH_XSTACK_I_THREE
          CFI CFA_XSP16 add(XSP16, 170)
        MOV       R4,?V3
        MOV       R5,#0x0
        MOV       DPL,R6
        MOV       DPH,R7
        MOVX      A,@DPTR
        MOV       R0,A
        MOV       A,#0x5
        LCALL     ?XSTACK_DISP0_8
        MOVX      A,@DPTR
        ADD       A,R0
        MOV       R2,A
        INC       DPTR
        MOVX      A,@DPTR
        ADDC      A,#0x0
        MOV       R3,A
        LCALL     `??osal_memcpy::?relay`; Banked call to: osal_memcpy
        MOV       A,#0x3
        LCALL     ?DEALLOC_XSTACK8
          CFI CFA_XSP16 add(XSP16, 167)
//  239     if ( *len != 0 )
        MOV       DPL,R6
        MOV       DPH,R7
        MOVX      A,@DPTR
        JZ        ??pt_ZclReadGetProxyEntry_19
//  240     {
//  241       *len = totalLen;
        MOV       A,#0x4
        LCALL     ?XSTACK_DISP0_8
        MOVX      A,@DPTR
        MOV       DPL,R6
        MOV       DPH,R7
        SJMP      ??pt_ZclReadGetProxyEntry_20
//  242       return status;
//  243     }
//  244     *len += gpdEntryLen;
//  245     return status;
//  246   }
//  247   else
//  248   {
//  249     if ( *len == 0 )
??pt_ZclReadGetProxyEntry_16:
        MOV       A,R2
        JNZ       ??pt_ZclReadGetProxyEntry_19
//  250     {
//  251       gpdEntryLen += sizeof ( uint16 );
        MOV       DPL,?XSP + 0
        MOV       DPH,?XSP + 1
        MOVX      A,@DPTR
        ADD       A,#0x2
        MOVX      @DPTR,A
//  252     }
//  253     *len += gpdEntryLen;
??pt_ZclReadGetProxyEntry_19:
        MOV       DPL,?XSP + 0
        MOV       DPH,?XSP + 1
        MOVX      A,@DPTR
        MOV       R0,A
        MOV       DPL,R6
        MOV       DPH,R7
        MOVX      A,@DPTR
        ADD       A,R0
??pt_ZclReadGetProxyEntry_20:
        MOVX      @DPTR,A
//  254     return status;
        MOV       R1,?V7
??pt_ZclReadGetProxyEntry_2:
        MOV       A,#-0x69
//  255   }
        LJMP      ?Subroutine0 & 0xFFFF
//  256 }
          CFI EndBlock cfiBlock0

        RSEG BANKED_CODE:HUGECODE:NOROOT(0)
?Subroutine4:
          CFI Block cfiCond1 Using cfiCommon0
          CFI Function pt_ZclReadGetProxyEntry
          CFI Conditional ??CrossCallReturnLabel_3
          CFI R6 load(1, XDATA, add(CFA_XSP16, literal(-16)))
          CFI VB load(1, XDATA, add(CFA_XSP16, literal(-15)))
          CFI V0 load(1, XDATA, add(CFA_XSP16, literal(-14)))
          CFI V1 load(1, XDATA, add(CFA_XSP16, literal(-13)))
          CFI V2 load(1, XDATA, add(CFA_XSP16, literal(-12)))
          CFI V3 load(1, XDATA, add(CFA_XSP16, literal(-11)))
          CFI V4 load(1, XDATA, add(CFA_XSP16, literal(-10)))
          CFI V5 load(1, XDATA, add(CFA_XSP16, literal(-9)))
          CFI V6 load(1, XDATA, add(CFA_XSP16, literal(-8)))
          CFI V7 load(1, XDATA, add(CFA_XSP16, literal(-7)))
          CFI R7 load(1, XDATA, add(CFA_XSP16, literal(-6)))
          CFI ?RET_LOW load(1, XDATA, add(CFA_XSP16, literal(-5)))
          CFI ?RET_HIGH load(1, XDATA, add(CFA_XSP16, literal(-4)))
          CFI ?BRET_EXT load(1, XDATA, add(CFA_XSP16, literal(-3)))
          CFI DPL0 load(1, XDATA, add(CFA_XSP16, literal(-2)))
          CFI DPH0 load(1, XDATA, add(CFA_XSP16, literal(-1)))
          CFI CFA_SP SP+-2
          CFI CFA_XSP16 add(XSP16, 167)
          CFI Block cfiCond2 Using cfiCommon0
          CFI (cfiCond2) Function pt_ZclReadGetProxyEntry
          CFI (cfiCond2) Conditional ??CrossCallReturnLabel_4
          CFI (cfiCond2) R6 load(1, XDATA, add(CFA_XSP16, literal(-16)))
          CFI (cfiCond2) VB load(1, XDATA, add(CFA_XSP16, literal(-15)))
          CFI (cfiCond2) V0 load(1, XDATA, add(CFA_XSP16, literal(-14)))
          CFI (cfiCond2) V1 load(1, XDATA, add(CFA_XSP16, literal(-13)))
          CFI (cfiCond2) V2 load(1, XDATA, add(CFA_XSP16, literal(-12)))
          CFI (cfiCond2) V3 load(1, XDATA, add(CFA_XSP16, literal(-11)))
          CFI (cfiCond2) V4 load(1, XDATA, add(CFA_XSP16, literal(-10)))
          CFI (cfiCond2) V5 load(1, XDATA, add(CFA_XSP16, literal(-9)))
          CFI (cfiCond2) V6 load(1, XDATA, add(CFA_XSP16, literal(-8)))
          CFI (cfiCond2) V7 load(1, XDATA, add(CFA_XSP16, literal(-7)))
          CFI (cfiCond2) R7 load(1, XDATA, add(CFA_XSP16, literal(-6)))
          CFI (cfiCond2) ?RET_LOW load(1, XDATA, add(CFA_XSP16, literal(-5)))
          CFI (cfiCond2) ?RET_HIGH load(1, XDATA, add(CFA_XSP16, literal(-4)))
          CFI (cfiCond2) ?BRET_EXT load(1, XDATA, add(CFA_XSP16, literal(-3)))
          CFI (cfiCond2) DPL0 load(1, XDATA, add(CFA_XSP16, literal(-2)))
          CFI (cfiCond2) DPH0 load(1, XDATA, add(CFA_XSP16, literal(-1)))
          CFI (cfiCond2) CFA_SP SP+-2
          CFI (cfiCond2) CFA_XSP16 add(XSP16, 167)
          CFI Block cfiPicker3 Using cfiCommon1
          CFI (cfiPicker3) NoFunction
          CFI (cfiPicker3) Picker
        CLR       A
        LCALL     ?Subroutine8 & 0xFFFF
??CrossCallReturnLabel_16:
        MOV       R0,A
        INC       A
        MOVX      @DPTR,A
        MOV       A,#0x4c
        RET
          CFI EndBlock cfiCond1
          CFI EndBlock cfiCond2
          CFI EndBlock cfiPicker3
//  257 
//  258 /*********************************************************************
//  259  * @fn      zclGpp_ReadWriteAttrCB
//  260  *
//  261  * @brief   Handle Diagnostics attributes.
//  262  *
//  263  * @param   clusterId - cluster that attribute belongs to
//  264  * @param   attrId - attribute to be read or written
//  265  * @param   oper - ZCL_OPER_LEN, ZCL_OPER_READ, or ZCL_OPER_WRITE
//  266  * @param   pValue - pointer to attribute value, OTA endian
//  267  * @param   pLen - length of attribute value read, native endian
//  268  *
//  269  * @return  status
//  270  */

        RSEG BANKED_CODE:HUGECODE:NOROOT(0)
//  271 ZStatus_t zclGpp_ReadWriteAttrCB( uint16 clusterId, uint16 attrId, uint8 oper,
zclGpp_ReadWriteAttrCB:
          CFI Block cfiBlock4 Using cfiCommon0
          CFI Function zclGpp_ReadWriteAttrCB
        CODE
//  272                                          uint8 *pValue, uint16 *pLen )
//  273 {
        FUNCALL zclGpp_ReadWriteAttrCB, pt_ZclReadGetProxyEntry
        LOCFRAME ISTACK, 0, STACK
        LOCFRAME PSTACK, 0, STACK
        LOCFRAME XSTACK, 14, STACK
        LOCFRAME IOVERLAY, 0, STATIC
        LOCFRAME DOVERLAY, 0, STATIC
        ARGFRAME ISTACK, 0, STACK
        ARGFRAME PSTACK, 0, STACK
        ARGFRAME XSTACK, 14, STACK
        ARGFRAME IOVERLAY, 0, STATIC
        ARGFRAME DOVERLAY, 0, STATIC
        REQUIRE ?V0
        REQUIRE ?V1
        REQUIRE ?V2
        REQUIRE ?V3
        MOV       A,#-0xc
        LCALL     ?BANKED_ENTER_XDATA
          CFI DPH0 load(1, XDATA, add(CFA_XSP16, literal(-1)))
          CFI DPL0 load(1, XDATA, add(CFA_XSP16, literal(-2)))
          CFI ?BRET_EXT load(1, XDATA, add(CFA_XSP16, literal(-3)))
          CFI ?RET_HIGH load(1, XDATA, add(CFA_XSP16, literal(-4)))
          CFI ?RET_LOW load(1, XDATA, add(CFA_XSP16, literal(-5)))
          CFI R7 load(1, XDATA, add(CFA_XSP16, literal(-6)))
          CFI V3 load(1, XDATA, add(CFA_XSP16, literal(-7)))
          CFI V2 load(1, XDATA, add(CFA_XSP16, literal(-8)))
          CFI V1 load(1, XDATA, add(CFA_XSP16, literal(-9)))
          CFI V0 load(1, XDATA, add(CFA_XSP16, literal(-10)))
          CFI VB load(1, XDATA, add(CFA_XSP16, literal(-11)))
          CFI R6 load(1, XDATA, add(CFA_XSP16, literal(-12)))
          CFI CFA_SP SP+0
          CFI CFA_XSP16 add(XSP16, 12)
        ; Saved register size: 12
        ; Auto size: 0
        MOV       ?V1,R1
//  274   ZStatus_t status = ZSuccess;
        MOV       R1,#0x0
//  275   uint16 proxyTableIndex;
//  276   uint8 i;
//  277 
//  278   switch ( oper )
        MOV       A,?V1
        JZ        ??zclGpp_ReadWriteAttrCB_0
        DEC       A
        JZ        ??zclGpp_ReadWriteAttrCB_0
        DEC       A
        JZ        ??zclGpp_ReadWriteAttrCB_1
        SJMP      ??zclGpp_ReadWriteAttrCB_2
//  279   {
//  280     case ZCL_OPER_LEN:
//  281     case ZCL_OPER_READ:
//  282       if ( attrId == ATTRID_GP_PROXY_TABLE )
??zclGpp_ReadWriteAttrCB_0:
        MOV       A,#0x11
        XRL       A,R4
        ORL       A,R5
        JNZ       ??zclGpp_ReadWriteAttrCB_2
//  283       { 
//  284         for ( i = 0; i <= GPP_MAX_PROXY_TABLE_ENTRIES ; i++ )
        MOV       ?V0,#0x0
        MOV       A,#0xc
        LCALL     ?XSTACK_DISP0_8
        MOVX      A,@DPTR
        MOV       R6,A
        INC       DPTR
        MOVX      A,@DPTR
        MOV       R7,A
        MOV       A,#0xe
        LCALL     ?XSTACK_DISP0_8
        MOVX      A,@DPTR
        MOV       ?V2,A
        INC       DPTR
        MOVX      A,@DPTR
        MOV       ?V3,A
//  285         {
//  286           proxyTableIndex = ZCD_NV_PROXY_TABLE_START + i;
//  287           
//  288           status = pt_ZclReadGetProxyEntry ( proxyTableIndex, pValue, (uint8*)pLen );
??zclGpp_ReadWriteAttrCB_3:
        ; Setup parameters for call to function pt_ZclReadGetProxyEntry
        MOV       R0,#?V2
        LCALL     ?PUSH_XSTACK_I_TWO
          CFI CFA_XSP16 add(XSP16, 14)
        MOV       A,R6
        MOV       R4,A
        MOV       A,R7
        MOV       R5,A
        MOV       A,?V0
        ADD       A,#0x10
        MOV       R2,A
        CLR       A
        ADDC      A,#0x3
        MOV       R3,A
        LCALL     `??pt_ZclReadGetProxyEntry::?relay`; Banked call to: pt_ZclReadGetProxyEntry
        MOV       A,#0x2
        LCALL     ?DEALLOC_XSTACK8
          CFI CFA_XSP16 add(XSP16, 12)
        MOV       A,R1
        MOV       R1,A
//  289           if ( status != ZSuccess )
        JNZ       ??zclGpp_ReadWriteAttrCB_1
//  290           {
//  291             status = ZFailure;
//  292             break;
//  293           }
//  294         }
        INC       ?V0
        MOV       A,?V0
        CLR       C
        SUBB      A,#0x6
        JNC       ??zclGpp_ReadWriteAttrCB_2
        SJMP      ??zclGpp_ReadWriteAttrCB_3
//  295         
//  296       }
//  297       break;
//  298 
//  299     case ZCL_OPER_WRITE:
//  300       status = ZFailure;
??zclGpp_ReadWriteAttrCB_1:
        MOV       R1,#0x1
//  301       break;
//  302   }
//  303 
//  304   return ( status );
??zclGpp_ReadWriteAttrCB_2:
          CFI EndBlock cfiBlock4
        REQUIRE ?Subroutine1
        ; // Fall through to label ?Subroutine1
//  305 }

        RSEG BANKED_CODE:HUGECODE:NOROOT(0)
?Subroutine1:
          CFI Block cfiBlock5 Using cfiCommon0
          CFI NoFunction
          CFI CFA_SP SP+0
          CFI CFA_XSP16 add(XSP16, 12)
          CFI VB load(1, XDATA, add(CFA_XSP16, literal(-11)))
          CFI DPL0 load(1, XDATA, add(CFA_XSP16, literal(-2)))
          CFI DPH0 load(1, XDATA, add(CFA_XSP16, literal(-1)))
          CFI R6 load(1, XDATA, add(CFA_XSP16, literal(-12)))
          CFI R7 load(1, XDATA, add(CFA_XSP16, literal(-6)))
          CFI V0 load(1, XDATA, add(CFA_XSP16, literal(-10)))
          CFI V1 load(1, XDATA, add(CFA_XSP16, literal(-9)))
          CFI V2 load(1, XDATA, add(CFA_XSP16, literal(-8)))
          CFI V3 load(1, XDATA, add(CFA_XSP16, literal(-7)))
          CFI ?BRET_EXT load(1, XDATA, add(CFA_XSP16, literal(-3)))
          CFI ?RET_HIGH load(1, XDATA, add(CFA_XSP16, literal(-4)))
          CFI ?RET_LOW load(1, XDATA, add(CFA_XSP16, literal(-5)))
        MOV       R7,#0x4
        LJMP      ?BANKED_LEAVE_XDATA
          CFI EndBlock cfiBlock5
//  306 
//  307  /*********************************************************************
//  308  * @fn          gp_pairingSetProxyTblOptions
//  309  *
//  310  * @brief       Function to fill the options pramenter in a Proxy Table entry
//  311  *              from a GP Pairing Command
//  312  *
//  313  * @param       pBitField - pointer to the bit field.
//  314  *              bit       - position of the bit to set in the given bitfield.
//  315  *
//  316  * @return      
//  317  */

        RSEG BANKED_CODE:HUGECODE:NOROOT(0)
//  318 static uint16 gp_pairingSetProxyTblOptions ( uint32 pairingOpt )
gp_pairingSetProxyTblOptions:
          CFI Block cfiBlock6 Using cfiCommon0
          CFI Function gp_pairingSetProxyTblOptions
        CODE
//  319 {
        REQUIRE ?V0
        REQUIRE ?V1
        REQUIRE ?V2
        REQUIRE ?V3
        REQUIRE ?V4
        REQUIRE ?V5
        REQUIRE ?V6
        REQUIRE ?V7
        MOV       A,#-0x10
        LCALL     ?BANKED_ENTER_XDATA
          CFI DPH0 load(1, XDATA, add(CFA_XSP16, literal(-1)))
          CFI DPL0 load(1, XDATA, add(CFA_XSP16, literal(-2)))
          CFI ?BRET_EXT load(1, XDATA, add(CFA_XSP16, literal(-3)))
          CFI ?RET_HIGH load(1, XDATA, add(CFA_XSP16, literal(-4)))
          CFI ?RET_LOW load(1, XDATA, add(CFA_XSP16, literal(-5)))
          CFI R7 load(1, XDATA, add(CFA_XSP16, literal(-6)))
          CFI V7 load(1, XDATA, add(CFA_XSP16, literal(-7)))
          CFI V6 load(1, XDATA, add(CFA_XSP16, literal(-8)))
          CFI V5 load(1, XDATA, add(CFA_XSP16, literal(-9)))
          CFI V4 load(1, XDATA, add(CFA_XSP16, literal(-10)))
          CFI V3 load(1, XDATA, add(CFA_XSP16, literal(-11)))
          CFI V2 load(1, XDATA, add(CFA_XSP16, literal(-12)))
          CFI V1 load(1, XDATA, add(CFA_XSP16, literal(-13)))
          CFI V0 load(1, XDATA, add(CFA_XSP16, literal(-14)))
          CFI VB load(1, XDATA, add(CFA_XSP16, literal(-15)))
          CFI R6 load(1, XDATA, add(CFA_XSP16, literal(-16)))
          CFI CFA_SP SP+0
          CFI CFA_XSP16 add(XSP16, 16)
        ; Saved register size: 16
        ; Auto size: 2
        MOV       A,#-0x2
        LCALL     ?ALLOC_XSTACK8
          CFI CFA_XSP16 add(XSP16, 18)
        MOV       ?V4,R2
        MOV       ?V5,R3
        MOV       ?V6,R4
        MOV       ?V7,R5
//  320   uint8  proxyOpt[2] = {0x00, 0x00};
        MOV       DPTR,#`?<Constant {0, 0}>`
        MOV       R4,?XSP + 0
        MOV       R5,?XSP + 1
        MOV       A,#0x2
        LCALL     ?MOVE_LONG8_XDATA_XDATA
//  321   uint16 opt = 0; 
//  322   
//  323   PAIRING_PROXY_TBL_SET_APPLICATION_ID(( uint8* )&proxyOpt[0], pairingOpt);
//  324   PROXY_TBL_SET_ENTRY_ACTIVE( &proxyOpt[0] );
//  325   PROXY_TBL_SET_ENTRY_VALID( &proxyOpt[0] );
        MOV       A,R2
        ANL       A,#0x7
        MOV       R0,A
        MOV       DPL,?XSP + 0
        MOV       DPH,?XSP + 1
        MOVX      A,@DPTR
        ANL       A,#0xf8
        ORL       A,R0
        ORL       A,#0x18
        MOVX      @DPTR,A
//  326   PAIRING_PROXY_TBL_SET_MAC_SEQ_CAP(( uint16* )&proxyOpt, pairingOpt);
        ANL       A,#0xdf
        MOV       R2,A
        INC       DPTR
        MOVX      A,@DPTR
        MOV       R3,A
        MOV       ?V0,?V4
        MOV       ?V1,?V5
        MOV       A,#0x3
        MOV       R0,#?V0
        LCALL     ?US_SHR
        MOV       A,?V0
        ANL       A,#0x20
        MOV       R0,A
        MOV       A,R2
        ORL       A,R0
        MOV       R0,A
        MOV       A,R3
        MOV       R1,A
        MOV       DPL,?XSP + 0
        MOV       DPH,?XSP + 1
        MOV       A,R0
        MOVX      @DPTR,A
        INC       DPTR
        MOV       A,R1
        MOVX      @DPTR,A
//  327   
//  328   if ( GP_IS_COMMUNICATION_MODE_LIGHT_UNICAST( pairingOpt ) )
        MOV       A,?V4
        SWAP      A
        RRC       A
        ANL       A,#0x7
        ANL       A,#0x3
        MOV       R1,A
        MOV       A,#0x3
        XRL       A,R1
        MOV       DPL,?XSP + 0
        MOV       DPH,?XSP + 1
        JNZ       ??gp_pairingSetProxyTblOptions_0
//  329   {
//  330     PROXY_TBL_SET_LIGHTWIGHT_UNICAST( &proxyOpt[0] );
        MOVX      A,@DPTR
        SETB      0xE0 /* A   */.6
        MOVX      @DPTR,A
//  331   }
//  332   else
//  333   {
//  334     PROXY_TBL_CLR_LIGHTWIGHT_UNICAST( &proxyOpt[0] );
//  335   }
//  336   if ( GP_IS_COMMUNICATION_MODE_GRPCAST_DGROUP_ID( pairingOpt ) )
//  337   {
//  338     PROXY_TBL_SET_DGROUP( &proxyOpt[0] );
//  339   }
//  340   else
//  341   {
//  342     PROXY_TBL_CLR_DGROUP( &proxyOpt[0] );
??gp_pairingSetProxyTblOptions_1:
        MOVX      A,@DPTR
        CLR       0xE0 /* A   */.7
        MOVX      @DPTR,A
//  343   }
//  344   if ( GP_IS_COMMUNICATION_MODE_GRPCAST_GROUP_ID( pairingOpt ) )
        MOV       A,#0x2
        XRL       A,R1
        JNZ       ??gp_pairingSetProxyTblOptions_2
//  345   {
//  346     PROXY_TBL_SET_CGROUP( &proxyOpt[1] );
        MOV       A,#0x1
        LCALL     ?XSTACK_DISP0_8
        MOVX      A,@DPTR
        SETB      0xE0 /* A   */.0
        SJMP      ??gp_pairingSetProxyTblOptions_3
//  347   }
??gp_pairingSetProxyTblOptions_0:
        MOVX      A,@DPTR
        CLR       0xE0 /* A   */.6
        MOVX      @DPTR,A
        MOV       A,#0x1
        XRL       A,R1
        JNZ       ??gp_pairingSetProxyTblOptions_1
        MOVX      A,@DPTR
        SETB      0xE0 /* A   */.7
        MOVX      @DPTR,A
//  348   else
//  349   {
//  350     PROXY_TBL_CLR_CGROUP( &proxyOpt[1] );
??gp_pairingSetProxyTblOptions_2:
        MOV       A,#0x1
        LCALL     ?XSTACK_DISP0_8
        MOVX      A,@DPTR
        CLR       0xE0 /* A   */.0
??gp_pairingSetProxyTblOptions_3:
        MOVX      @DPTR,A
//  351   }
//  352   
//  353   // FALSE by default
//  354   PROXY_TBL_CLR_FIRST_TO_FORWARD( &proxyOpt[1] );
//  355   
//  356   // The InRange sub-field, if set to 0b1, indicates that this GPD is in range 
//  357   // of this proxy. The default value is FALSE
//  358   PROXY_TBL_CLR_IN_RANGE( &proxyOpt[1] );
        MOVX      A,@DPTR
        ANL       A,#0xf9
        MOVX      @DPTR,A
//  359   // The GPDfixed sub-field, if set to 0b1, indicates portability capabilities 
//  360   if ( GP_GET_GPD_FIXED_BIT( pairingOpt ) )
        MOV       ?V0,?V4
        MOV       A,?V0
        ANL       A,#0x80
        JZ        ??gp_pairingSetProxyTblOptions_4
//  361   {
//  362     PROXY_TBL_SET_GPD_FIXED( &proxyOpt[1] );
        MOVX      A,@DPTR
        SETB      0xE0 /* A   */.3
        SJMP      ??gp_pairingSetProxyTblOptions_5
//  363   }
//  364   else
//  365   {
//  366     PROXY_TBL_CLR_GPD_FIXED( &proxyOpt[1] );
??gp_pairingSetProxyTblOptions_4:
        MOVX      A,@DPTR
        CLR       0xE0 /* A   */.3
??gp_pairingSetProxyTblOptions_5:
        MOVX      @DPTR,A
//  367   }
//  368   
//  369   if ( GP_IS_COMMUNICATION_MODE_FULL_UNICAST( pairingOpt ) )
        MOV       A,R1
        JNZ       ??gp_pairingSetProxyTblOptions_6
//  370   {
//  371     PROXY_TBL_SET_HAS_ALL_ROUTES( &proxyOpt[1] );
        MOVX      A,@DPTR
        SETB      0xE0 /* A   */.4
        SJMP      ??gp_pairingSetProxyTblOptions_7
//  372   }
//  373   else
//  374   {
//  375     PROXY_TBL_CLR_HAS_ALL_ROUTES( &proxyOpt[1] );
??gp_pairingSetProxyTblOptions_6:
        MOVX      A,@DPTR
        CLR       0xE0 /* A   */.4
??gp_pairingSetProxyTblOptions_7:
        MOVX      @DPTR,A
//  376   }
//  377   if ( (GP_ALIAS ( pairingOpt )) && (!GP_IS_COMMUNICATION_MODE_GRPCAST_GROUP_ID( pairingOpt )) )
        MOV       ?V1,?V5
        MOV       ?V2,?V6
        MOV       ?V3,?V7
        MOV       DPTR,#__Constant_10000
        MOV       R0,#?V0
        LCALL     ?L_AND_X
        MOV       A,?V0
        ORL       A,?V1
        ORL       A,?V2
        ORL       A,?V3
        JZ        ??gp_pairingSetProxyTblOptions_8
        MOV       A,#0x2
        XRL       A,R1
        JZ        ??gp_pairingSetProxyTblOptions_8
//  378   {
//  379     PROXY_TBL_SET_ASSIGNED_ALIAS( &proxyOpt[1] );
        MOV       A,#0x1
        LCALL     ?XSTACK_DISP0_8
        MOVX      A,@DPTR
        SETB      0xE0 /* A   */.5
        SJMP      ??gp_pairingSetProxyTblOptions_9
//  380   }
//  381   else
//  382   {
//  383     PROXY_TBL_CLR_ASSIGNED_ALIAS( &proxyOpt[1]);
??gp_pairingSetProxyTblOptions_8:
        MOV       A,#0x1
        LCALL     ?XSTACK_DISP0_8
        MOVX      A,@DPTR
        CLR       0xE0 /* A   */.5
??gp_pairingSetProxyTblOptions_9:
        MOVX      @DPTR,A
//  384   }
//  385   if ( GP_GET_SEC_LEVEL( pairingOpt ) > 1 )
        MOV       A,#0x9
        MOV       R0,#?V4
        LCALL     ?US_SHR
        MOV       A,?V4
        ANL       A,#0x3
        CLR       C
        SUBB      A,#0x2
        MOVX      A,@DPTR
        JC        ??gp_pairingSetProxyTblOptions_10
//  386   {
//  387     PROXY_TBL_SET_SEC_USE( &proxyOpt[1] );
        SETB      0xE0 /* A   */.6
        SJMP      ??gp_pairingSetProxyTblOptions_11
//  388   }
//  389   else
//  390   {
//  391     PROXY_TBL_CLR_SEC_USE( &proxyOpt[1] );
??gp_pairingSetProxyTblOptions_10:
        CLR       0xE0 /* A   */.6
??gp_pairingSetProxyTblOptions_11:
        MOVX      @DPTR,A
//  392   }
//  393   PROXY_TBL_SET_OPT_EXT( &proxyOpt[1] );
//  394   PROXY_TBL_CLR_OPT_EXT( &proxyOpt[1] );
        MOVX      A,@DPTR
        CLR       0xE0 /* A   */.7
        LCALL     ?Subroutine8 & 0xFFFF
//  395   
//  396   opt |= ( ( proxyOpt[0] ) & 0x00FF );
//  397   opt |= ( ( ( proxyOpt[1] ) <<  8 ) & 0xFF00 );
//  398     
//  399   return opt;
??CrossCallReturnLabel_17:
        MOV       R2,A
        MOV       A,#0x1
        LCALL     ?XSTACK_DISP0_8
        MOVX      A,@DPTR
        MOV       R3,A
        MOV       A,#0x2
        LJMP      ?Subroutine0 & 0xFFFF
//  400 }
          CFI EndBlock cfiBlock6

        RSEG BANKED_CODE:HUGECODE:NOROOT(0)
?Subroutine8:
          CFI Block cfiCond7 Using cfiCommon0
          CFI Function pt_ZclReadGetProxyEntry
          CFI Conditional ??CrossCallReturnLabel_16, ??CrossCallReturnLabel_3
          CFI R6 load(1, XDATA, add(CFA_XSP16, literal(-16)))
          CFI VB load(1, XDATA, add(CFA_XSP16, literal(-15)))
          CFI V0 load(1, XDATA, add(CFA_XSP16, literal(-14)))
          CFI V1 load(1, XDATA, add(CFA_XSP16, literal(-13)))
          CFI V2 load(1, XDATA, add(CFA_XSP16, literal(-12)))
          CFI V3 load(1, XDATA, add(CFA_XSP16, literal(-11)))
          CFI V4 load(1, XDATA, add(CFA_XSP16, literal(-10)))
          CFI V5 load(1, XDATA, add(CFA_XSP16, literal(-9)))
          CFI V6 load(1, XDATA, add(CFA_XSP16, literal(-8)))
          CFI V7 load(1, XDATA, add(CFA_XSP16, literal(-7)))
          CFI R7 load(1, XDATA, add(CFA_XSP16, literal(-6)))
          CFI ?RET_LOW load(1, XDATA, add(CFA_XSP16, literal(-5)))
          CFI ?RET_HIGH load(1, XDATA, add(CFA_XSP16, literal(-4)))
          CFI ?BRET_EXT load(1, XDATA, add(CFA_XSP16, literal(-3)))
          CFI DPL0 load(1, XDATA, add(CFA_XSP16, literal(-2)))
          CFI DPH0 load(1, XDATA, add(CFA_XSP16, literal(-1)))
          CFI CFA_SP SP+-4
          CFI CFA_XSP16 add(XSP16, 167)
          CFI Block cfiCond8 Using cfiCommon0
          CFI (cfiCond8) Function pt_ZclReadGetProxyEntry
          CFI (cfiCond8) Conditional ??CrossCallReturnLabel_16, ??CrossCallReturnLabel_4
          CFI (cfiCond8) R6 load(1, XDATA, add(CFA_XSP16, literal(-16)))
          CFI (cfiCond8) VB load(1, XDATA, add(CFA_XSP16, literal(-15)))
          CFI (cfiCond8) V0 load(1, XDATA, add(CFA_XSP16, literal(-14)))
          CFI (cfiCond8) V1 load(1, XDATA, add(CFA_XSP16, literal(-13)))
          CFI (cfiCond8) V2 load(1, XDATA, add(CFA_XSP16, literal(-12)))
          CFI (cfiCond8) V3 load(1, XDATA, add(CFA_XSP16, literal(-11)))
          CFI (cfiCond8) V4 load(1, XDATA, add(CFA_XSP16, literal(-10)))
          CFI (cfiCond8) V5 load(1, XDATA, add(CFA_XSP16, literal(-9)))
          CFI (cfiCond8) V6 load(1, XDATA, add(CFA_XSP16, literal(-8)))
          CFI (cfiCond8) V7 load(1, XDATA, add(CFA_XSP16, literal(-7)))
          CFI (cfiCond8) R7 load(1, XDATA, add(CFA_XSP16, literal(-6)))
          CFI (cfiCond8) ?RET_LOW load(1, XDATA, add(CFA_XSP16, literal(-5)))
          CFI (cfiCond8) ?RET_HIGH load(1, XDATA, add(CFA_XSP16, literal(-4)))
          CFI (cfiCond8) ?BRET_EXT load(1, XDATA, add(CFA_XSP16, literal(-3)))
          CFI (cfiCond8) DPL0 load(1, XDATA, add(CFA_XSP16, literal(-2)))
          CFI (cfiCond8) DPH0 load(1, XDATA, add(CFA_XSP16, literal(-1)))
          CFI (cfiCond8) CFA_SP SP+-4
          CFI (cfiCond8) CFA_XSP16 add(XSP16, 167)
          CFI Block cfiCond9 Using cfiCommon0
          CFI (cfiCond9) Function gp_pairingSetProxyTblOptions
          CFI (cfiCond9) Conditional ??CrossCallReturnLabel_17
          CFI (cfiCond9) R6 load(1, XDATA, add(CFA_XSP16, literal(-16)))
          CFI (cfiCond9) VB load(1, XDATA, add(CFA_XSP16, literal(-15)))
          CFI (cfiCond9) V0 load(1, XDATA, add(CFA_XSP16, literal(-14)))
          CFI (cfiCond9) V1 load(1, XDATA, add(CFA_XSP16, literal(-13)))
          CFI (cfiCond9) V2 load(1, XDATA, add(CFA_XSP16, literal(-12)))
          CFI (cfiCond9) V3 load(1, XDATA, add(CFA_XSP16, literal(-11)))
          CFI (cfiCond9) V4 load(1, XDATA, add(CFA_XSP16, literal(-10)))
          CFI (cfiCond9) V5 load(1, XDATA, add(CFA_XSP16, literal(-9)))
          CFI (cfiCond9) V6 load(1, XDATA, add(CFA_XSP16, literal(-8)))
          CFI (cfiCond9) V7 load(1, XDATA, add(CFA_XSP16, literal(-7)))
          CFI (cfiCond9) R7 load(1, XDATA, add(CFA_XSP16, literal(-6)))
          CFI (cfiCond9) ?RET_LOW load(1, XDATA, add(CFA_XSP16, literal(-5)))
          CFI (cfiCond9) ?RET_HIGH load(1, XDATA, add(CFA_XSP16, literal(-4)))
          CFI (cfiCond9) ?BRET_EXT load(1, XDATA, add(CFA_XSP16, literal(-3)))
          CFI (cfiCond9) DPL0 load(1, XDATA, add(CFA_XSP16, literal(-2)))
          CFI (cfiCond9) DPH0 load(1, XDATA, add(CFA_XSP16, literal(-1)))
          CFI (cfiCond9) CFA_SP SP+-2
          CFI (cfiCond9) CFA_XSP16 add(XSP16, 18)
          CFI Block cfiPicker10 Using cfiCommon1
          CFI (cfiPicker10) NoFunction
          CFI (cfiPicker10) Picker
        MOVX      @DPTR,A
        MOV       DPL,?XSP + 0
        MOV       DPH,?XSP + 1
        MOVX      A,@DPTR
        RET
          CFI EndBlock cfiCond7
          CFI EndBlock cfiCond8
          CFI EndBlock cfiCond9
          CFI EndBlock cfiPicker10
//  401 
//  402 /*********************************************************************
//  403  * @fn          gp_PairingUpdateProxyTlb
//  404  *
//  405  * @brief       General function fill the proxy table vector
//  406  *
//  407  * @param       
//  408  *
//  409  * @return      
//  410  */

        RSEG BANKED_CODE:HUGECODE:NOROOT(0)
//  411 void gp_PairingUpdateProxyTlb( gpPairingCmd_t* payload )
gp_PairingUpdateProxyTlb:
          CFI Block cfiBlock11 Using cfiCommon0
          CFI Function gp_PairingUpdateProxyTlb
        CODE
//  412 {
        FUNCALL gp_PairingUpdateProxyTlb, gp_pairingSetProxyTblOptions
        LOCFRAME ISTACK, 0, STACK
        LOCFRAME PSTACK, 0, STACK
        LOCFRAME XSTACK, 89, STACK
        LOCFRAME IOVERLAY, 0, STATIC
        LOCFRAME DOVERLAY, 0, STATIC
        ARGFRAME ISTACK, 0, STACK
        ARGFRAME PSTACK, 0, STACK
        ARGFRAME XSTACK, 89, STACK
        ARGFRAME IOVERLAY, 0, STATIC
        ARGFRAME DOVERLAY, 0, STATIC
        FUNCALL gp_PairingUpdateProxyTlb, gp_PopulateProxyTblEntry
        LOCFRAME ISTACK, 0, STACK
        LOCFRAME PSTACK, 0, STACK
        LOCFRAME XSTACK, 91, STACK
        LOCFRAME IOVERLAY, 0, STATIC
        LOCFRAME DOVERLAY, 0, STATIC
        ARGFRAME ISTACK, 0, STACK
        ARGFRAME PSTACK, 0, STACK
        ARGFRAME XSTACK, 91, STACK
        ARGFRAME IOVERLAY, 0, STATIC
        ARGFRAME DOVERLAY, 0, STATIC
        FUNCALL gp_PairingUpdateProxyTlb, gp_PopulateProxyTblEntry
        LOCFRAME ISTACK, 0, STACK
        LOCFRAME PSTACK, 0, STACK
        LOCFRAME XSTACK, 91, STACK
        LOCFRAME IOVERLAY, 0, STATIC
        LOCFRAME DOVERLAY, 0, STATIC
        ARGFRAME ISTACK, 0, STACK
        ARGFRAME PSTACK, 0, STACK
        ARGFRAME XSTACK, 91, STACK
        ARGFRAME IOVERLAY, 0, STATIC
        ARGFRAME DOVERLAY, 0, STATIC
        FUNCALL gp_PairingUpdateProxyTlb, gp_PopulateProxyTblEntry
        LOCFRAME ISTACK, 0, STACK
        LOCFRAME PSTACK, 0, STACK
        LOCFRAME XSTACK, 91, STACK
        LOCFRAME IOVERLAY, 0, STATIC
        LOCFRAME DOVERLAY, 0, STATIC
        ARGFRAME ISTACK, 0, STACK
        ARGFRAME PSTACK, 0, STACK
        ARGFRAME XSTACK, 91, STACK
        ARGFRAME IOVERLAY, 0, STATIC
        ARGFRAME DOVERLAY, 0, STATIC
        FUNCALL gp_PairingUpdateProxyTlb, gp_PopulateProxyTblEntry
        LOCFRAME ISTACK, 0, STACK
        LOCFRAME PSTACK, 0, STACK
        LOCFRAME XSTACK, 91, STACK
        LOCFRAME IOVERLAY, 0, STATIC
        LOCFRAME DOVERLAY, 0, STATIC
        ARGFRAME ISTACK, 0, STACK
        ARGFRAME PSTACK, 0, STACK
        ARGFRAME XSTACK, 91, STACK
        ARGFRAME IOVERLAY, 0, STATIC
        ARGFRAME DOVERLAY, 0, STATIC
        FUNCALL gp_PairingUpdateProxyTlb, gp_PopulateProxyTblEntry
        LOCFRAME ISTACK, 0, STACK
        LOCFRAME PSTACK, 0, STACK
        LOCFRAME XSTACK, 91, STACK
        LOCFRAME IOVERLAY, 0, STATIC
        LOCFRAME DOVERLAY, 0, STATIC
        ARGFRAME ISTACK, 0, STACK
        ARGFRAME PSTACK, 0, STACK
        ARGFRAME XSTACK, 91, STACK
        ARGFRAME IOVERLAY, 0, STATIC
        ARGFRAME DOVERLAY, 0, STATIC
        FUNCALL gp_PairingUpdateProxyTlb, gp_PopulateProxyTblEntry
        LOCFRAME ISTACK, 0, STACK
        LOCFRAME PSTACK, 0, STACK
        LOCFRAME XSTACK, 91, STACK
        LOCFRAME IOVERLAY, 0, STATIC
        LOCFRAME DOVERLAY, 0, STATIC
        ARGFRAME ISTACK, 0, STACK
        ARGFRAME PSTACK, 0, STACK
        ARGFRAME XSTACK, 91, STACK
        ARGFRAME IOVERLAY, 0, STATIC
        ARGFRAME DOVERLAY, 0, STATIC
        FUNCALL gp_PairingUpdateProxyTlb, osal_memcpy
        LOCFRAME ISTACK, 0, STACK
        LOCFRAME PSTACK, 0, STACK
        LOCFRAME XSTACK, 92, STACK
        LOCFRAME IOVERLAY, 0, STATIC
        LOCFRAME DOVERLAY, 0, STATIC
        ARGFRAME ISTACK, 0, STACK
        ARGFRAME PSTACK, 0, STACK
        ARGFRAME XSTACK, 92, STACK
        ARGFRAME IOVERLAY, 0, STATIC
        ARGFRAME DOVERLAY, 0, STATIC
        FUNCALL gp_PairingUpdateProxyTlb, gp_PopulateProxyTblEntry
        LOCFRAME ISTACK, 0, STACK
        LOCFRAME PSTACK, 0, STACK
        LOCFRAME XSTACK, 91, STACK
        LOCFRAME IOVERLAY, 0, STATIC
        LOCFRAME DOVERLAY, 0, STATIC
        ARGFRAME ISTACK, 0, STACK
        ARGFRAME PSTACK, 0, STACK
        ARGFRAME XSTACK, 91, STACK
        ARGFRAME IOVERLAY, 0, STATIC
        ARGFRAME DOVERLAY, 0, STATIC
        FUNCALL gp_PairingUpdateProxyTlb, gp_PopulateProxyTblEntry
        LOCFRAME ISTACK, 0, STACK
        LOCFRAME PSTACK, 0, STACK
        LOCFRAME XSTACK, 91, STACK
        LOCFRAME IOVERLAY, 0, STATIC
        LOCFRAME DOVERLAY, 0, STATIC
        ARGFRAME ISTACK, 0, STACK
        ARGFRAME PSTACK, 0, STACK
        ARGFRAME XSTACK, 91, STACK
        ARGFRAME IOVERLAY, 0, STATIC
        ARGFRAME DOVERLAY, 0, STATIC
        FUNCALL gp_PairingUpdateProxyTlb, gp_PopulateProxyTblEntry
        LOCFRAME ISTACK, 0, STACK
        LOCFRAME PSTACK, 0, STACK
        LOCFRAME XSTACK, 91, STACK
        LOCFRAME IOVERLAY, 0, STATIC
        LOCFRAME DOVERLAY, 0, STATIC
        ARGFRAME ISTACK, 0, STACK
        ARGFRAME PSTACK, 0, STACK
        ARGFRAME XSTACK, 91, STACK
        ARGFRAME IOVERLAY, 0, STATIC
        ARGFRAME DOVERLAY, 0, STATIC
        FUNCALL gp_PairingUpdateProxyTlb, gp_PopulateProxyTblEntry
        LOCFRAME ISTACK, 0, STACK
        LOCFRAME PSTACK, 0, STACK
        LOCFRAME XSTACK, 91, STACK
        LOCFRAME IOVERLAY, 0, STATIC
        LOCFRAME DOVERLAY, 0, STATIC
        ARGFRAME ISTACK, 0, STACK
        ARGFRAME PSTACK, 0, STACK
        ARGFRAME XSTACK, 91, STACK
        ARGFRAME IOVERLAY, 0, STATIC
        ARGFRAME DOVERLAY, 0, STATIC
        FUNCALL gp_PairingUpdateProxyTlb, osal_memset
        LOCFRAME ISTACK, 0, STACK
        LOCFRAME PSTACK, 0, STACK
        LOCFRAME XSTACK, 89, STACK
        LOCFRAME IOVERLAY, 0, STATIC
        LOCFRAME DOVERLAY, 0, STATIC
        ARGFRAME ISTACK, 0, STACK
        ARGFRAME PSTACK, 0, STACK
        ARGFRAME XSTACK, 89, STACK
        ARGFRAME IOVERLAY, 0, STATIC
        ARGFRAME DOVERLAY, 0, STATIC
        FUNCALL gp_PairingUpdateProxyTlb, gp_PopulateProxyTblEntry
        LOCFRAME ISTACK, 0, STACK
        LOCFRAME PSTACK, 0, STACK
        LOCFRAME XSTACK, 91, STACK
        LOCFRAME IOVERLAY, 0, STATIC
        LOCFRAME DOVERLAY, 0, STATIC
        ARGFRAME ISTACK, 0, STACK
        ARGFRAME PSTACK, 0, STACK
        ARGFRAME XSTACK, 91, STACK
        ARGFRAME IOVERLAY, 0, STATIC
        ARGFRAME DOVERLAY, 0, STATIC
        FUNCALL gp_PairingUpdateProxyTlb, gp_PopulateProxyTblEntry
        LOCFRAME ISTACK, 0, STACK
        LOCFRAME PSTACK, 0, STACK
        LOCFRAME XSTACK, 91, STACK
        LOCFRAME IOVERLAY, 0, STATIC
        LOCFRAME DOVERLAY, 0, STATIC
        ARGFRAME ISTACK, 0, STACK
        ARGFRAME PSTACK, 0, STACK
        ARGFRAME XSTACK, 91, STACK
        ARGFRAME IOVERLAY, 0, STATIC
        ARGFRAME DOVERLAY, 0, STATIC
        FUNCALL gp_PairingUpdateProxyTlb, osal_memset
        LOCFRAME ISTACK, 0, STACK
        LOCFRAME PSTACK, 0, STACK
        LOCFRAME XSTACK, 89, STACK
        LOCFRAME IOVERLAY, 0, STATIC
        LOCFRAME DOVERLAY, 0, STATIC
        ARGFRAME ISTACK, 0, STACK
        ARGFRAME PSTACK, 0, STACK
        ARGFRAME XSTACK, 89, STACK
        ARGFRAME IOVERLAY, 0, STATIC
        ARGFRAME DOVERLAY, 0, STATIC
        FUNCALL gp_PairingUpdateProxyTlb, gp_PopulateProxyTblEntry
        LOCFRAME ISTACK, 0, STACK
        LOCFRAME PSTACK, 0, STACK
        LOCFRAME XSTACK, 91, STACK
        LOCFRAME IOVERLAY, 0, STATIC
        LOCFRAME DOVERLAY, 0, STATIC
        ARGFRAME ISTACK, 0, STACK
        ARGFRAME PSTACK, 0, STACK
        ARGFRAME XSTACK, 91, STACK
        ARGFRAME IOVERLAY, 0, STATIC
        ARGFRAME DOVERLAY, 0, STATIC
        FUNCALL gp_PairingUpdateProxyTlb, gp_PopulateProxyTblEntry
        LOCFRAME ISTACK, 0, STACK
        LOCFRAME PSTACK, 0, STACK
        LOCFRAME XSTACK, 91, STACK
        LOCFRAME IOVERLAY, 0, STATIC
        LOCFRAME DOVERLAY, 0, STATIC
        ARGFRAME ISTACK, 0, STACK
        ARGFRAME PSTACK, 0, STACK
        ARGFRAME XSTACK, 91, STACK
        ARGFRAME IOVERLAY, 0, STATIC
        ARGFRAME DOVERLAY, 0, STATIC
        FUNCALL gp_PairingUpdateProxyTlb, gp_PopulateProxyTblEntry
        LOCFRAME ISTACK, 0, STACK
        LOCFRAME PSTACK, 0, STACK
        LOCFRAME XSTACK, 91, STACK
        LOCFRAME IOVERLAY, 0, STATIC
        LOCFRAME DOVERLAY, 0, STATIC
        ARGFRAME ISTACK, 0, STACK
        ARGFRAME PSTACK, 0, STACK
        ARGFRAME XSTACK, 91, STACK
        ARGFRAME IOVERLAY, 0, STATIC
        ARGFRAME DOVERLAY, 0, STATIC
        FUNCALL gp_PairingUpdateProxyTlb, gp_PopulateProxyTblEntry
        LOCFRAME ISTACK, 0, STACK
        LOCFRAME PSTACK, 0, STACK
        LOCFRAME XSTACK, 91, STACK
        LOCFRAME IOVERLAY, 0, STATIC
        LOCFRAME DOVERLAY, 0, STATIC
        ARGFRAME ISTACK, 0, STACK
        ARGFRAME PSTACK, 0, STACK
        ARGFRAME XSTACK, 91, STACK
        ARGFRAME IOVERLAY, 0, STATIC
        ARGFRAME DOVERLAY, 0, STATIC
        FUNCALL gp_PairingUpdateProxyTlb, gp_PopulateProxyTblEntry
        LOCFRAME ISTACK, 0, STACK
        LOCFRAME PSTACK, 0, STACK
        LOCFRAME XSTACK, 91, STACK
        LOCFRAME IOVERLAY, 0, STATIC
        LOCFRAME DOVERLAY, 0, STATIC
        ARGFRAME ISTACK, 0, STACK
        ARGFRAME PSTACK, 0, STACK
        ARGFRAME XSTACK, 91, STACK
        ARGFRAME IOVERLAY, 0, STATIC
        ARGFRAME DOVERLAY, 0, STATIC
        FUNCALL gp_PairingUpdateProxyTlb, gp_PopulateProxyTblEntry
        LOCFRAME ISTACK, 0, STACK
        LOCFRAME PSTACK, 0, STACK
        LOCFRAME XSTACK, 91, STACK
        LOCFRAME IOVERLAY, 0, STATIC
        LOCFRAME DOVERLAY, 0, STATIC
        ARGFRAME ISTACK, 0, STACK
        ARGFRAME PSTACK, 0, STACK
        ARGFRAME XSTACK, 91, STACK
        ARGFRAME IOVERLAY, 0, STATIC
        ARGFRAME DOVERLAY, 0, STATIC
        FUNCALL gp_PairingUpdateProxyTlb, osal_memcpy
        LOCFRAME ISTACK, 0, STACK
        LOCFRAME PSTACK, 0, STACK
        LOCFRAME XSTACK, 92, STACK
        LOCFRAME IOVERLAY, 0, STATIC
        LOCFRAME DOVERLAY, 0, STATIC
        ARGFRAME ISTACK, 0, STACK
        ARGFRAME PSTACK, 0, STACK
        ARGFRAME XSTACK, 92, STACK
        ARGFRAME IOVERLAY, 0, STATIC
        ARGFRAME DOVERLAY, 0, STATIC
        FUNCALL gp_PairingUpdateProxyTlb, osal_memcpy
        LOCFRAME ISTACK, 0, STACK
        LOCFRAME PSTACK, 0, STACK
        LOCFRAME XSTACK, 92, STACK
        LOCFRAME IOVERLAY, 0, STATIC
        LOCFRAME DOVERLAY, 0, STATIC
        ARGFRAME ISTACK, 0, STACK
        ARGFRAME PSTACK, 0, STACK
        ARGFRAME XSTACK, 92, STACK
        ARGFRAME IOVERLAY, 0, STATIC
        ARGFRAME DOVERLAY, 0, STATIC
        FUNCALL gp_PairingUpdateProxyTlb, gp_UpdateProxyTlb
        LOCFRAME ISTACK, 0, STACK
        LOCFRAME PSTACK, 0, STACK
        LOCFRAME XSTACK, 89, STACK
        LOCFRAME IOVERLAY, 0, STATIC
        LOCFRAME DOVERLAY, 0, STATIC
        ARGFRAME ISTACK, 0, STACK
        ARGFRAME PSTACK, 0, STACK
        ARGFRAME XSTACK, 89, STACK
        ARGFRAME IOVERLAY, 0, STATIC
        ARGFRAME DOVERLAY, 0, STATIC
        REQUIRE ?V0
        REQUIRE ?V1
        REQUIRE ?V2
        REQUIRE ?V3
        REQUIRE ?V4
        REQUIRE ?V5
        REQUIRE ?V6
        REQUIRE ?V7
        MOV       A,#-0x10
        LCALL     ?BANKED_ENTER_XDATA
          CFI DPH0 load(1, XDATA, add(CFA_XSP16, literal(-1)))
          CFI DPL0 load(1, XDATA, add(CFA_XSP16, literal(-2)))
          CFI ?BRET_EXT load(1, XDATA, add(CFA_XSP16, literal(-3)))
          CFI ?RET_HIGH load(1, XDATA, add(CFA_XSP16, literal(-4)))
          CFI ?RET_LOW load(1, XDATA, add(CFA_XSP16, literal(-5)))
          CFI R7 load(1, XDATA, add(CFA_XSP16, literal(-6)))
          CFI V7 load(1, XDATA, add(CFA_XSP16, literal(-7)))
          CFI V6 load(1, XDATA, add(CFA_XSP16, literal(-8)))
          CFI V5 load(1, XDATA, add(CFA_XSP16, literal(-9)))
          CFI V4 load(1, XDATA, add(CFA_XSP16, literal(-10)))
          CFI V3 load(1, XDATA, add(CFA_XSP16, literal(-11)))
          CFI V2 load(1, XDATA, add(CFA_XSP16, literal(-12)))
          CFI V1 load(1, XDATA, add(CFA_XSP16, literal(-13)))
          CFI V0 load(1, XDATA, add(CFA_XSP16, literal(-14)))
          CFI VB load(1, XDATA, add(CFA_XSP16, literal(-15)))
          CFI R6 load(1, XDATA, add(CFA_XSP16, literal(-16)))
          CFI CFA_SP SP+0
          CFI CFA_XSP16 add(XSP16, 16)
        ; Saved register size: 16
        ; Auto size: 73
        MOV       A,#-0x49
        LCALL     ?ALLOC_XSTACK8
          CFI CFA_XSP16 add(XSP16, 89)
        MOV       A,R2
        MOV       R6,A
        MOV       A,R3
        MOV       R7,A
//  413   uint8  entryVector[PROXY_TBL_ENTRY_LEN] = PROXY_BASIC_TBL_EMPTY_ENTRY;
        MOV       DPTR,#`?<Constant {255, 255, 255, 255, 255, 255, 255,_3`
        MOV       A,#0x8
        LCALL     ?XSTACK_DISP102_8
        MOV       A,#0x41
        LCALL     ?MOVE_LONG8_XDATA_XDATA
//  414   uint8  entryLen = 0;
        MOV       DPL,?XSP + 0
        MOV       DPH,?XSP + 1
        MOVX      @DPTR,A
//  415   uint8  addSink;
//  416   uint8  newSinkGroup = 0;
//  417   uint16 entryOptions = 0;
        MOV       A,#0x3
        LCALL     ?XSTACK_DISP0_8
        CLR       A
        MOVX      @DPTR,A
        INC       DPTR
        MOVX      @DPTR,A
//  418   uint8  securityOpt = 0;
        MOV       A,#0x2
        LCALL     ?XSTACK_DISP0_8
        CLR       A
        MOVX      @DPTR,A
//  419   uint8  searchCounter = 0x0A;
        INC       A
        LCALL     ?XSTACK_DISP0_8
        MOV       A,#0xa
        MOVX      @DPTR,A
//  420   uint16 invalidAlias = 0xFFFF;
        MOV       A,#0x6
        LCALL     ?XSTACK_DISP0_8
        MOV       A,#-0x1
        MOVX      @DPTR,A
        INC       DPTR
        MOVX      @DPTR,A
//  421   
//  422   addSink = GP_ADD_SINK( payload->options );
        MOV       DPL,R6
        MOV       DPH,R7
        MOV       R0,#?V0
        LCALL     ?L_MOV_X
        MOV       A,?V0
        RRC       A
        RRC       A
        RRC       A
        ANL       A,#0x1f
        ANL       A,#0x1
        PUSH      A
          CFI CFA_SP SP+-1
        MOV       A,#0x5
        LCALL     ?XSTACK_DISP0_8
        POP       A
          CFI CFA_SP SP+0
        MOVX      @DPTR,A
//  423   
//  424   entryOptions = gp_pairingSetProxyTblOptions( payload->options );
        ; Setup parameters for call to function gp_pairingSetProxyTblOptions
        MOV       R2,?V0
        MOV       R3,?V1
        MOV       R4,?V2
        MOV       R5,?V3
        LCALL     `??gp_pairingSetProxyTblOptions::?relay`; Banked call to: gp_pairingSetProxyTblOptions
        MOV       A,#0x3
        LCALL     ?XSTACK_DISP0_8
        MOV       A,R2
        MOVX      @DPTR,A
        INC       DPTR
        MOV       A,R3
        LCALL     ?Subroutine3 & 0xFFFF
//  425   gp_PopulateProxyTblEntry( ( uint8* )&entryOptions, sizeof( entryOptions ), entryVector, &entryLen );
??CrossCallReturnLabel_0:
        LCALL     ?PUSH_XSTACK_I_TWO
          CFI CFA_XSP16 add(XSP16, 91)
        MOV       A,#0xa
        LCALL     ?XSTACK_DISP102_8
        MOV       R1,#0x2
        MOV       A,#0x5
        LCALL     ?XSTACK_DISP101_8
        LCALL     `??gp_PopulateProxyTblEntry::?relay`; Banked call to: gp_PopulateProxyTblEntry
        MOV       A,#0x2
        LCALL     ?DEALLOC_XSTACK8
          CFI CFA_XSP16 add(XSP16, 89)
        MOV       DPL,R6
        MOV       DPH,R7
        MOV       R0,#?V0
        LCALL     ?L_MOV_X
        MOV       A,?V0
        ANL       A,#0x7
        MOV       R0,A
        JNZ       ??gp_PairingUpdateProxyTlb_0
//  426     
//  427   // Options bitfield
//  428   // If Application Id bitfield is 0b000
//  429   if( GP_IS_APPLICATION_ID_GPD( payload->options ) )
//  430   {        
//  431     // Populate GPD ID
//  432     entryLen += sizeof( uint32 );
        MOV       DPL,?XSP + 0
        MOV       DPH,?XSP + 1
        MOVX      A,@DPTR
        ADD       A,#0x4
        LCALL     ?Subroutine3 & 0xFFFF
//  433     gp_PopulateProxyTblEntry( ( uint8* )&payload->gpdId, sizeof( payload->gpdId ), entryVector, &entryLen );
//  434   }
??CrossCallReturnLabel_1:
        LCALL     ?PUSH_XSTACK_I_TWO
          CFI CFA_XSP16 add(XSP16, 91)
        MOV       A,#0xa
        LCALL     ?XSTACK_DISP102_8
        MOV       R1,#0x4
        SJMP      ??gp_PairingUpdateProxyTlb_1
          CFI CFA_XSP16 add(XSP16, 89)
//  435   // If Application Id bitfield is 0b010
//  436   else if( GP_IS_APPLICATION_ID_IEEE( payload->options ) )
??gp_PairingUpdateProxyTlb_0:
        MOV       A,#0x2
        XRL       A,R0
        JNZ       ??gp_PairingUpdateProxyTlb_2
//  437   {   
//  438     gp_PopulateProxyTblEntry( payload->gpdIEEE, Z_EXTADDR_LEN, entryVector, &entryLen );
        ; Setup parameters for call to function gp_PopulateProxyTblEntry
        MOV       R0,?XSP + 0
        MOV       R1,?XSP + 1
        MOV       ?V0,R0
        MOV       ?V1,R1
        MOV       R0,#?V0
        LCALL     ?PUSH_XSTACK_I_TWO
          CFI CFA_XSP16 add(XSP16, 91)
        MOV       A,#0xa
        LCALL     ?XSTACK_DISP102_8
        MOV       R1,#0x8
??gp_PairingUpdateProxyTlb_1:
        MOV       A,R6
        ADD       A,R1
        MOV       R2,A
        CLR       A
        ADDC      A,R7
        MOV       R3,A
        LCALL     `??gp_PopulateProxyTblEntry::?relay`; Banked call to: gp_PopulateProxyTblEntry
        MOV       A,#0x2
        LCALL     ?DEALLOC_XSTACK8
          CFI CFA_XSP16 add(XSP16, 89)
//  439   }
//  440   
//  441    gp_PopulateProxyTblEntry( ( uint8* )&payload->ep, sizeof( payload->ep ), entryVector, &entryLen );
??gp_PairingUpdateProxyTlb_2:
        ; Setup parameters for call to function gp_PopulateProxyTblEntry
        MOV       R0,?XSP + 0
        MOV       R1,?XSP + 1
        MOV       ?V0,R0
        MOV       ?V1,R1
        MOV       R0,#?V0
        LCALL     ?PUSH_XSTACK_I_TWO
          CFI CFA_XSP16 add(XSP16, 91)
        MOV       A,#0xa
        LCALL     ?XSTACK_DISP102_8
        MOV       R1,#0x1
        MOV       A,R6
        ADD       A,#0x10
        MOV       R2,A
        CLR       A
        ADDC      A,R7
        MOV       R3,A
        LCALL     `??gp_PopulateProxyTblEntry::?relay`; Banked call to: gp_PopulateProxyTblEntry
        MOV       A,#0x2
        LCALL     ?DEALLOC_XSTACK8
          CFI CFA_XSP16 add(XSP16, 89)
//  442 
//  443   if( !GP_IS_COMMUNICATION_MODE_GRPCAST_GROUP_ID( payload->options ) )
        MOV       A,R6
        ADD       A,#0x32
        MOV       ?V6,A
        CLR       A
        ADDC      A,R7
        MOV       ?V7,A
        MOV       DPL,R6
        MOV       DPH,R7
        MOV       R0,#?V0
        LCALL     ?L_MOV_X
        MOV       A,?V0
        SWAP      A
        RRC       A
        ANL       A,#0x7
        ANL       A,#0x3
        XRL       A,#0x2
        MOV       R0,?XSP + 0
        MOV       R1,?XSP + 1
        MOV       ?V0,R0
        MOV       ?V1,R1
        MOV       R0,#?V0
        JZ        ??gp_PairingUpdateProxyTlb_3
//  444   {
//  445     gp_PopulateProxyTblEntry( ( uint8* )&payload->assignedAlias, sizeof( payload->assignedAlias ), entryVector, &entryLen );
        ; Setup parameters for call to function gp_PopulateProxyTblEntry
        LCALL     ?PUSH_XSTACK_I_TWO
          CFI CFA_XSP16 add(XSP16, 91)
        MOV       A,#0xa
        LCALL     ?XSTACK_DISP102_8
        MOV       R1,#0x2
        MOV       R2,?V6
        MOV       R3,?V7
        SJMP      ??gp_PairingUpdateProxyTlb_4
          CFI CFA_XSP16 add(XSP16, 89)
//  446   }
//  447   else
//  448   {
//  449     gp_PopulateProxyTblEntry( ( uint8* )&invalidAlias, sizeof( uint16 ), entryVector, &entryLen );
??gp_PairingUpdateProxyTlb_3:
        ; Setup parameters for call to function gp_PopulateProxyTblEntry
        LCALL     ?PUSH_XSTACK_I_TWO
          CFI CFA_XSP16 add(XSP16, 91)
        MOV       A,#0xa
        LCALL     ?XSTACK_DISP102_8
        MOV       R1,#0x2
        MOV       A,#0x8
        LCALL     ?XSTACK_DISP101_8
??gp_PairingUpdateProxyTlb_4:
        LCALL     `??gp_PopulateProxyTblEntry::?relay`; Banked call to: gp_PopulateProxyTblEntry
        MOV       A,#0x2
        LCALL     ?DEALLOC_XSTACK8
          CFI CFA_XSP16 add(XSP16, 89)
//  450   }
//  451 
//  452 
//  453   //Security options
//  454   securityOpt |= GP_GET_SEC_LEVEL( payload->options );
//  455   securityOpt |= GP_GET_SEC_KEY_TYPE (payload->options ) << GP_OPT_SEC_LEVEL_LEN;
        MOV       DPL,R6
        MOV       DPH,R7
        MOV       R0,#?V0
        LCALL     ?L_MOV_X
        MOV       ?V4,?V0
        MOV       ?V5,?V1
        MOV       A,#0xb
        MOV       R0,#?V4
        LCALL     ?US_SHR
        MOV       A,?V4
        RLC       A
        RLC       A
        ANL       A,#0xfc
        ANL       A,#0x1c
        MOV       R1,A
        MOV       A,#0x9
        MOV       R0,#?V0
        LCALL     ?US_SHR
        MOV       A,?V0
        ANL       A,#0x3
        ORL       A,R1
        MOV       R0,A
        MOV       A,#0x2
        LCALL     ?XSTACK_DISP0_8
        MOVX      A,@DPTR
        ORL       A,R0
        MOVX      @DPTR,A
//  456   osal_memcpy( &entryVector[entryLen], &securityOpt, sizeof ( uint8 ) );
        ; Setup parameters for call to function osal_memcpy
        MOV       A,#0x2
        LCALL     ?XSTACK_DISP100_8
        MOV       ?V0,R0
        MOV       ?V1,R1
        MOV       ?V2,#0x0
        MOV       R0,#?V0
        LCALL     ?PUSH_XSTACK_I_THREE
          CFI CFA_XSP16 add(XSP16, 92)
        MOV       R4,#0x1
        MOV       R5,#0x0
        MOV       A,#0x3
        LCALL     ?XSTACK_DISP0_8
        MOVX      A,@DPTR
        MOV       R0,A
        MOV       A,#0xb
        LCALL     ?XSTACK_DISP0_8
        LCALL     ?Subroutine7 & 0xFFFF
??CrossCallReturnLabel_14:
        LCALL     `??osal_memcpy::?relay`; Banked call to: osal_memcpy
        MOV       A,#0x3
        LCALL     ?DEALLOC_XSTACK8
          CFI CFA_XSP16 add(XSP16, 89)
//  457   entryLen += sizeof ( uint8 );
        MOV       DPL,?XSP + 0
        MOV       DPH,?XSP + 1
        MOVX      A,@DPTR
        INC       A
        LCALL     ?Subroutine3 & 0xFFFF
//  458 
//  459   gp_PopulateProxyTblEntry( ( uint8* )&payload->gpdSecCounter, sizeof( payload->gpdSecCounter ), entryVector, &entryLen );
??CrossCallReturnLabel_2:
        LCALL     ?PUSH_XSTACK_I_TWO
          CFI CFA_XSP16 add(XSP16, 91)
        MOV       A,#0xa
        LCALL     ?XSTACK_DISP102_8
        MOV       R1,#0x4
        MOV       A,R6
        ADD       A,#0x1e
        MOV       R2,A
        CLR       A
        ADDC      A,R7
        MOV       R3,A
        LCALL     `??gp_PopulateProxyTblEntry::?relay`; Banked call to: gp_PopulateProxyTblEntry
        MOV       A,#0x2
        LCALL     ?DEALLOC_XSTACK8
          CFI CFA_XSP16 add(XSP16, 89)
//  460   gp_PopulateProxyTblEntry( ( uint8* )&payload->gpdKey, SEC_KEY_LEN, entryVector, &entryLen );
        ; Setup parameters for call to function gp_PopulateProxyTblEntry
        MOV       R0,#?V0
        LCALL     ?PUSH_XSTACK_I_TWO
          CFI CFA_XSP16 add(XSP16, 91)
        MOV       A,#0xa
        LCALL     ?XSTACK_DISP102_8
        MOV       R1,#0x10
        MOV       A,R6
        ADD       A,#0x22
        MOV       R2,A
        CLR       A
        ADDC      A,R7
        MOV       R3,A
        LCALL     `??gp_PopulateProxyTblEntry::?relay`; Banked call to: gp_PopulateProxyTblEntry
        MOV       A,#0x2
        LCALL     ?DEALLOC_XSTACK8
          CFI CFA_XSP16 add(XSP16, 89)
//  461   
//  462   gp_PopulateProxyTblEntry( payload->sinkIEEE, Z_EXTADDR_LEN, entryVector, &entryLen );
        MOV       A,R6
        ADD       A,#0x11
        MOV       ?V0,A
        CLR       A
        ADDC      A,R7
        MOV       ?V1,A
        ; Setup parameters for call to function gp_PopulateProxyTblEntry
        MOV       R0,?XSP + 0
        MOV       R1,?XSP + 1
        MOV       ?V2,R0
        MOV       ?V3,R1
        MOV       R0,#?V2
        LCALL     ?PUSH_XSTACK_I_TWO
          CFI CFA_XSP16 add(XSP16, 91)
        MOV       A,#0xa
        LCALL     ?XSTACK_DISP102_8
        MOV       R1,#0x8
        MOV       R2,?V0
        MOV       R3,?V1
        LCALL     `??gp_PopulateProxyTblEntry::?relay`; Banked call to: gp_PopulateProxyTblEntry
        MOV       A,#0x2
        LCALL     ?DEALLOC_XSTACK8
          CFI CFA_XSP16 add(XSP16, 89)
//  463   gp_PopulateProxyTblEntry( ( uint8* )&payload->sinkNwkAddr, sizeof( payload->sinkNwkAddr ), entryVector, &entryLen );
        MOV       A,R6
        ADD       A,#0x19
        MOV       ?V2,A
        CLR       A
        ADDC      A,R7
        MOV       ?V3,A
        ; Setup parameters for call to function gp_PopulateProxyTblEntry
        MOV       R0,?XSP + 0
        MOV       R1,?XSP + 1
        MOV       ?V4,R0
        MOV       ?V5,R1
        MOV       R0,#?V4
        LCALL     ?PUSH_XSTACK_I_TWO
          CFI CFA_XSP16 add(XSP16, 91)
        MOV       A,#0xa
        LCALL     ?XSTACK_DISP102_8
        MOV       R1,#0x2
        MOV       R2,?V2
        MOV       R3,?V3
        LCALL     `??gp_PopulateProxyTblEntry::?relay`; Banked call to: gp_PopulateProxyTblEntry
        MOV       A,#0x2
        LCALL     ?DEALLOC_XSTACK8
          CFI CFA_XSP16 add(XSP16, 89)
//  464   // to add the invalid entries
//  465   osal_memset ( &payload->sinkIEEE, 0xFF, Z_EXTADDR_LEN );
        ; Setup parameters for call to function osal_memset
        MOV       R4,#0x8
        MOV       R5,#0x0
        MOV       R1,#-0x1
        MOV       R2,?V0
        MOV       R3,?V1
        LCALL     `??osal_memset::?relay`; Banked call to: osal_memset
//  466   payload->sinkNwkAddr = 0xFFFF;
        MOV       DPL,?V2
        MOV       DPH,?V3
        MOV       A,#-0x1
        MOVX      @DPTR,A
        INC       DPTR
        MOVX      @DPTR,A
//  467   gp_PopulateProxyTblEntry( payload->sinkIEEE, Z_EXTADDR_LEN, entryVector, &entryLen );
        ; Setup parameters for call to function gp_PopulateProxyTblEntry
        MOV       R0,#?V4
        LCALL     ?PUSH_XSTACK_I_TWO
          CFI CFA_XSP16 add(XSP16, 91)
        MOV       A,#0xa
        LCALL     ?XSTACK_DISP102_8
        MOV       R1,#0x8
        MOV       R2,?V0
        MOV       R3,?V1
        LCALL     `??gp_PopulateProxyTblEntry::?relay`; Banked call to: gp_PopulateProxyTblEntry
        MOV       A,#0x2
        LCALL     ?DEALLOC_XSTACK8
          CFI CFA_XSP16 add(XSP16, 89)
//  468   gp_PopulateProxyTblEntry( ( uint8* )&payload->sinkNwkAddr, sizeof( payload->sinkNwkAddr ), entryVector, &entryLen );
        ; Setup parameters for call to function gp_PopulateProxyTblEntry
        MOV       R0,?XSP + 0
        MOV       R1,?XSP + 1
        MOV       ?V0,R0
        MOV       ?V1,R1
        MOV       R0,#?V0
        LCALL     ?PUSH_XSTACK_I_TWO
          CFI CFA_XSP16 add(XSP16, 91)
        MOV       A,#0xa
        LCALL     ?XSTACK_DISP102_8
        MOV       R1,#0x2
        MOV       R2,?V2
        MOV       R3,?V3
        LCALL     `??gp_PopulateProxyTblEntry::?relay`; Banked call to: gp_PopulateProxyTblEntry
        MOV       A,#0x2
        LCALL     ?DEALLOC_XSTACK8
          CFI CFA_XSP16 add(XSP16, 89)
//  469   
//  470   newSinkGroup = PROXY_TBL_GET_DGROUP( entryOptions & 0x00FF );
//  471   newSinkGroup |= PROXY_TBL_GET_CGROUP( ( entryOptions & 0xFF00 ) >> 8 );
//  472   osal_memset( &entryVector[entryLen], newSinkGroup, sizeof ( uint8 ) );
        ; Setup parameters for call to function osal_memset
        MOV       R4,#0x1
        MOV       R5,#0x0
        MOV       A,#0x3
        LCALL     ?XSTACK_DISP0_8
        INC       DPTR
        MOVX      A,@DPTR
        ANL       A,#0x1
        MOV       R2,A
        MOV       A,#0x3
        LCALL     ?XSTACK_DISP0_8
        MOVX      A,@DPTR
        RLC       A
        RLC       A
        ANL       A,#0x1
        ORL       A,R2
        MOV       R1,A
        MOV       DPL,?XSP + 0
        MOV       DPH,?XSP + 1
        MOVX      A,@DPTR
        MOV       R2,A
        MOV       A,#0x8
        LCALL     ?XSTACK_DISP0_8
        MOV       A,DPL
        ADD       A,R2
        MOV       R2,A
        CLR       A
        ADDC      A,DPH
        MOV       R3,A
        LCALL     `??osal_memset::?relay`; Banked call to: osal_memset
//  473   entryLen++;
        MOV       DPL,?XSP + 0
        MOV       DPH,?XSP + 1
        MOVX      A,@DPTR
        INC       A
        MOVX      @DPTR,A
//  474   
//  475   gp_PopulateProxyTblEntry( ( uint8* )&payload->sinkGroupID, sizeof( payload->sinkGroupID ), entryVector, &entryLen );
        MOV       A,R6
        ADD       A,#0x1b
        MOV       ?V4,A
        CLR       A
        ADDC      A,R7
        MOV       ?V5,A
        ; Setup parameters for call to function gp_PopulateProxyTblEntry
        MOV       R0,#?V0
        LCALL     ?PUSH_XSTACK_I_TWO
          CFI CFA_XSP16 add(XSP16, 91)
        MOV       A,#0xa
        LCALL     ?XSTACK_DISP102_8
        MOV       R1,#0x2
        MOV       R2,?V4
        MOV       R3,?V5
        LCALL     `??gp_PopulateProxyTblEntry::?relay`; Banked call to: gp_PopulateProxyTblEntry
        MOV       A,#0x2
        LCALL     ?DEALLOC_XSTACK8
          CFI CFA_XSP16 add(XSP16, 89)
        MOV       DPL,R6
        MOV       DPH,R7
        MOV       R0,#?V0
        LCALL     ?L_MOV_X
        MOV       A,?V0
        SWAP      A
        RRC       A
        ANL       A,#0x7
        ANL       A,#0x3
        MOV       R0,A
        MOV       A,#0x2
        XRL       A,R0
        JZ        ??gp_PairingUpdateProxyTlb_5
        MOV       A,#0x1
        XRL       A,R0
        JNZ       ??gp_PairingUpdateProxyTlb_6
//  476   if( GP_IS_COMMUNICATION_MODE_GRPCAST_GROUP_ID( payload->options ) || GP_IS_COMMUNICATION_MODE_GRPCAST_DGROUP_ID( payload->options ) )
//  477   {
//  478     gp_PopulateProxyTblEntry( ( uint8* )&payload->assignedAlias, sizeof( payload->assignedAlias ), entryVector, &entryLen );
??gp_PairingUpdateProxyTlb_5:
        ; Setup parameters for call to function gp_PopulateProxyTblEntry
        MOV       R0,?XSP + 0
        MOV       R1,?XSP + 1
        MOV       ?V0,R0
        MOV       ?V1,R1
        MOV       R0,#?V0
        LCALL     ?PUSH_XSTACK_I_TWO
          CFI CFA_XSP16 add(XSP16, 91)
        MOV       A,#0xa
        LCALL     ?XSTACK_DISP102_8
        MOV       R1,#0x2
        MOV       R2,?V6
        MOV       R3,?V7
        SJMP      ??gp_PairingUpdateProxyTlb_7
          CFI CFA_XSP16 add(XSP16, 89)
//  479   }
//  480   else
//  481   {
//  482     gp_PopulateProxyTblEntry( ( uint8* )&invalidAlias, sizeof ( uint16 ), entryVector, &entryLen );
??gp_PairingUpdateProxyTlb_6:
        ; Setup parameters for call to function gp_PopulateProxyTblEntry
        MOV       R0,?XSP + 0
        MOV       R1,?XSP + 1
        MOV       ?V0,R0
        MOV       ?V1,R1
        MOV       R0,#?V0
        LCALL     ?PUSH_XSTACK_I_TWO
          CFI CFA_XSP16 add(XSP16, 91)
        MOV       A,#0xa
        LCALL     ?XSTACK_DISP102_8
        MOV       R1,#0x2
        MOV       A,#0x8
        LCALL     ?XSTACK_DISP101_8
??gp_PairingUpdateProxyTlb_7:
        LCALL     `??gp_PopulateProxyTblEntry::?relay`; Banked call to: gp_PopulateProxyTblEntry
        MOV       A,#0x2
        LCALL     ?DEALLOC_XSTACK8
          CFI CFA_XSP16 add(XSP16, 89)
//  483   }
//  484   // to add the invalid entries
//  485   payload->sinkGroupID = 0xFFFF;
        MOV       DPL,?V4
        MOV       DPH,?V5
        MOV       A,#-0x1
        MOVX      @DPTR,A
        INC       DPTR
        MOVX      @DPTR,A
//  486   gp_PopulateProxyTblEntry( ( uint8* )&payload->sinkGroupID, sizeof( payload->sinkGroupID ), entryVector, &entryLen );
        ; Setup parameters for call to function gp_PopulateProxyTblEntry
        MOV       R0,#?V0
        LCALL     ?PUSH_XSTACK_I_TWO
          CFI CFA_XSP16 add(XSP16, 91)
        MOV       A,#0xa
        LCALL     ?XSTACK_DISP102_8
        MOV       R1,#0x2
        MOV       R2,?V4
        MOV       R3,?V5
        LCALL     `??gp_PopulateProxyTblEntry::?relay`; Banked call to: gp_PopulateProxyTblEntry
        MOV       A,#0x2
        LCALL     ?DEALLOC_XSTACK8
          CFI CFA_XSP16 add(XSP16, 89)
//  487   gp_PopulateProxyTblEntry( ( uint8* )&invalidAlias, sizeof ( uint16 ), entryVector, &entryLen );
        ; Setup parameters for call to function gp_PopulateProxyTblEntry
        MOV       R0,#?V0
        LCALL     ?PUSH_XSTACK_I_TWO
          CFI CFA_XSP16 add(XSP16, 91)
        MOV       A,#0xa
        LCALL     ?XSTACK_DISP102_8
        MOV       R1,#0x2
        MOV       A,#0x8
        LCALL     ?XSTACK_DISP101_8
        LCALL     `??gp_PopulateProxyTblEntry::?relay`; Banked call to: gp_PopulateProxyTblEntry
        MOV       A,#0x2
        LCALL     ?DEALLOC_XSTACK8
          CFI CFA_XSP16 add(XSP16, 89)
//  488 
//  489   
//  490   gp_PopulateProxyTblEntry( &payload->forwardingRadius, sizeof( payload->forwardingRadius ), entryVector, &entryLen );
        ; Setup parameters for call to function gp_PopulateProxyTblEntry
        MOV       R0,#?V0
        LCALL     ?PUSH_XSTACK_I_TWO
          CFI CFA_XSP16 add(XSP16, 91)
        MOV       A,#0xa
        LCALL     ?XSTACK_DISP102_8
        MOV       R1,#0x1
        MOV       A,R6
        ADD       A,#0x34
        MOV       R2,A
        CLR       A
        ADDC      A,R7
        MOV       R3,A
        LCALL     `??gp_PopulateProxyTblEntry::?relay`; Banked call to: gp_PopulateProxyTblEntry
        MOV       A,#0x2
        LCALL     ?DEALLOC_XSTACK8
          CFI CFA_XSP16 add(XSP16, 89)
//  491  
//  492   if ( ( PROXY_TBL_GET_ENTRY_ACTIVE( entryVector[0] ) == 0 ) && ( PROXY_TBL_GET_ENTRY_VALID( entryVector[0] ) == 0) )
        MOV       DPL,?XSP + 0
        MOV       DPH,?XSP + 1
        MOVX      A,@DPTR
        MOV       R0,A
        MOV       A,#0x8
        LCALL     ?XSTACK_DISP0_8
        LCALL     ?Subroutine7 & 0xFFFF
??CrossCallReturnLabel_15:
        MOV       A,#0x1
        LCALL     ?XSTACK_DISP100_8
        MOV       ?V0,R0
        MOV       ?V1,R1
        MOV       ?V2,#0x0
        MOVX      A,@DPTR
        ANL       A,#0x18
        JZ        ??gp_PairingUpdateProxyTlb_8
//  493   {
//  494     osal_memcpy( &entryVector[entryLen], &searchCounter, sizeof ( uint8 ) );
        ; Setup parameters for call to function osal_memcpy
//  495   }
//  496   else
//  497   {
//  498     searchCounter = 0xFF;
        MOV       A,#0x1
        LCALL     ?XSTACK_DISP0_8
        MOV       A,#-0x1
        MOVX      @DPTR,A
//  499     osal_memcpy( &entryVector[entryLen], &searchCounter, sizeof ( uint8 ) );
        ; Setup parameters for call to function osal_memcpy
??gp_PairingUpdateProxyTlb_8:
        MOV       R0,#?V0
        LCALL     ?PUSH_XSTACK_I_THREE
          CFI CFA_XSP16 add(XSP16, 92)
        MOV       R4,#0x1
        MOV       R5,#0x0
        LCALL     `??osal_memcpy::?relay`; Banked call to: osal_memcpy
        MOV       A,#0x3
        LCALL     ?DEALLOC_XSTACK8
          CFI CFA_XSP16 add(XSP16, 89)
//  500   }
//  501   // Update the proxy table
//  502   gp_UpdateProxyTlb( entryVector, addSink );
        ; Setup parameters for call to function gp_UpdateProxyTlb
        MOV       A,#0x5
        LCALL     ?XSTACK_DISP0_8
        MOVX      A,@DPTR
        MOV       R1,A
        MOV       A,#0x8
        LCALL     ?XSTACK_DISP101_8
        LCALL     `??gp_UpdateProxyTlb::?relay`; Banked call to: gp_UpdateProxyTlb
//  503 }
        MOV       A,#0x49
          CFI EndBlock cfiBlock11
        REQUIRE ?Subroutine0
        ; // Fall through to label ?Subroutine0

        RSEG BANKED_CODE:HUGECODE:NOROOT(0)
?Subroutine0:
          CFI Block cfiBlock12 Using cfiCommon0
          CFI NoFunction
          CFI CFA_SP SP+0
          CFI CFA_XSP16 add(XSP16, 167)
          CFI VB load(1, XDATA, add(CFA_XSP16, literal(-15)))
          CFI DPL0 load(1, XDATA, add(CFA_XSP16, literal(-2)))
          CFI DPH0 load(1, XDATA, add(CFA_XSP16, literal(-1)))
          CFI R6 load(1, XDATA, add(CFA_XSP16, literal(-16)))
          CFI R7 load(1, XDATA, add(CFA_XSP16, literal(-6)))
          CFI V0 load(1, XDATA, add(CFA_XSP16, literal(-14)))
          CFI V1 load(1, XDATA, add(CFA_XSP16, literal(-13)))
          CFI V2 load(1, XDATA, add(CFA_XSP16, literal(-12)))
          CFI V3 load(1, XDATA, add(CFA_XSP16, literal(-11)))
          CFI V4 load(1, XDATA, add(CFA_XSP16, literal(-10)))
          CFI V5 load(1, XDATA, add(CFA_XSP16, literal(-9)))
          CFI V6 load(1, XDATA, add(CFA_XSP16, literal(-8)))
          CFI V7 load(1, XDATA, add(CFA_XSP16, literal(-7)))
          CFI ?BRET_EXT load(1, XDATA, add(CFA_XSP16, literal(-3)))
          CFI ?RET_HIGH load(1, XDATA, add(CFA_XSP16, literal(-4)))
          CFI ?RET_LOW load(1, XDATA, add(CFA_XSP16, literal(-5)))
          CFI Invalid
        LCALL     ?DEALLOC_XSTACK8
          CFI EndBlock cfiBlock12
        REQUIRE ??Subroutine10_0
        ; // Fall through to label ??Subroutine10_0

        RSEG BANKED_CODE:HUGECODE:NOROOT(0)
??Subroutine10_0:
          CFI Block cfiBlock13 Using cfiCommon0
          CFI NoFunction
          CFI CFA_SP SP+0
          CFI CFA_XSP16 add(XSP16, 16)
          CFI VB load(1, XDATA, add(CFA_XSP16, literal(-15)))
          CFI DPL0 load(1, XDATA, add(CFA_XSP16, literal(-2)))
          CFI DPH0 load(1, XDATA, add(CFA_XSP16, literal(-1)))
          CFI R6 load(1, XDATA, add(CFA_XSP16, literal(-16)))
          CFI R7 load(1, XDATA, add(CFA_XSP16, literal(-6)))
          CFI V0 load(1, XDATA, add(CFA_XSP16, literal(-14)))
          CFI V1 load(1, XDATA, add(CFA_XSP16, literal(-13)))
          CFI V2 load(1, XDATA, add(CFA_XSP16, literal(-12)))
          CFI V3 load(1, XDATA, add(CFA_XSP16, literal(-11)))
          CFI V4 load(1, XDATA, add(CFA_XSP16, literal(-10)))
          CFI V5 load(1, XDATA, add(CFA_XSP16, literal(-9)))
          CFI V6 load(1, XDATA, add(CFA_XSP16, literal(-8)))
          CFI V7 load(1, XDATA, add(CFA_XSP16, literal(-7)))
          CFI ?BRET_EXT load(1, XDATA, add(CFA_XSP16, literal(-3)))
          CFI ?RET_HIGH load(1, XDATA, add(CFA_XSP16, literal(-4)))
          CFI ?RET_LOW load(1, XDATA, add(CFA_XSP16, literal(-5)))
        MOV       R7,#0x8
        LJMP      ?BANKED_LEAVE_XDATA
          CFI EndBlock cfiBlock13

        RSEG BANKED_CODE:HUGECODE:NOROOT(0)
?Subroutine7:
          CFI Block cfiCond14 Using cfiCommon0
          CFI Function pt_ZclReadGetProxyEntry
          CFI Conditional ??CrossCallReturnLabel_13
          CFI R6 load(1, XDATA, add(CFA_XSP16, literal(-16)))
          CFI VB load(1, XDATA, add(CFA_XSP16, literal(-15)))
          CFI V0 load(1, XDATA, add(CFA_XSP16, literal(-14)))
          CFI V1 load(1, XDATA, add(CFA_XSP16, literal(-13)))
          CFI V2 load(1, XDATA, add(CFA_XSP16, literal(-12)))
          CFI V3 load(1, XDATA, add(CFA_XSP16, literal(-11)))
          CFI V4 load(1, XDATA, add(CFA_XSP16, literal(-10)))
          CFI V5 load(1, XDATA, add(CFA_XSP16, literal(-9)))
          CFI V6 load(1, XDATA, add(CFA_XSP16, literal(-8)))
          CFI V7 load(1, XDATA, add(CFA_XSP16, literal(-7)))
          CFI R7 load(1, XDATA, add(CFA_XSP16, literal(-6)))
          CFI ?RET_LOW load(1, XDATA, add(CFA_XSP16, literal(-5)))
          CFI ?RET_HIGH load(1, XDATA, add(CFA_XSP16, literal(-4)))
          CFI ?BRET_EXT load(1, XDATA, add(CFA_XSP16, literal(-3)))
          CFI DPL0 load(1, XDATA, add(CFA_XSP16, literal(-2)))
          CFI DPH0 load(1, XDATA, add(CFA_XSP16, literal(-1)))
          CFI CFA_SP SP+-2
          CFI CFA_XSP16 add(XSP16, 170)
          CFI Block cfiCond15 Using cfiCommon0
          CFI (cfiCond15) Function gp_PairingUpdateProxyTlb
          CFI (cfiCond15) Conditional ??CrossCallReturnLabel_14
          CFI (cfiCond15) R6 load(1, XDATA, add(CFA_XSP16, literal(-16)))
          CFI (cfiCond15) VB load(1, XDATA, add(CFA_XSP16, literal(-15)))
          CFI (cfiCond15) V0 load(1, XDATA, add(CFA_XSP16, literal(-14)))
          CFI (cfiCond15) V1 load(1, XDATA, add(CFA_XSP16, literal(-13)))
          CFI (cfiCond15) V2 load(1, XDATA, add(CFA_XSP16, literal(-12)))
          CFI (cfiCond15) V3 load(1, XDATA, add(CFA_XSP16, literal(-11)))
          CFI (cfiCond15) V4 load(1, XDATA, add(CFA_XSP16, literal(-10)))
          CFI (cfiCond15) V5 load(1, XDATA, add(CFA_XSP16, literal(-9)))
          CFI (cfiCond15) V6 load(1, XDATA, add(CFA_XSP16, literal(-8)))
          CFI (cfiCond15) V7 load(1, XDATA, add(CFA_XSP16, literal(-7)))
          CFI (cfiCond15) R7 load(1, XDATA, add(CFA_XSP16, literal(-6)))
          CFI (cfiCond15) ?RET_LOW load(1, XDATA, add(CFA_XSP16, literal(-5)))
          CFI (cfiCond15) ?RET_HIGH load(1, XDATA, add(CFA_XSP16, literal(-4)))
          CFI (cfiCond15) ?BRET_EXT load(1, XDATA, add(CFA_XSP16, literal(-3)))
          CFI (cfiCond15) DPL0 load(1, XDATA, add(CFA_XSP16, literal(-2)))
          CFI (cfiCond15) DPH0 load(1, XDATA, add(CFA_XSP16, literal(-1)))
          CFI (cfiCond15) CFA_SP SP+-2
          CFI (cfiCond15) CFA_XSP16 add(XSP16, 92)
          CFI Block cfiCond16 Using cfiCommon0
          CFI (cfiCond16) Function gp_PairingUpdateProxyTlb
          CFI (cfiCond16) Conditional ??CrossCallReturnLabel_15
          CFI (cfiCond16) R6 load(1, XDATA, add(CFA_XSP16, literal(-16)))
          CFI (cfiCond16) VB load(1, XDATA, add(CFA_XSP16, literal(-15)))
          CFI (cfiCond16) V0 load(1, XDATA, add(CFA_XSP16, literal(-14)))
          CFI (cfiCond16) V1 load(1, XDATA, add(CFA_XSP16, literal(-13)))
          CFI (cfiCond16) V2 load(1, XDATA, add(CFA_XSP16, literal(-12)))
          CFI (cfiCond16) V3 load(1, XDATA, add(CFA_XSP16, literal(-11)))
          CFI (cfiCond16) V4 load(1, XDATA, add(CFA_XSP16, literal(-10)))
          CFI (cfiCond16) V5 load(1, XDATA, add(CFA_XSP16, literal(-9)))
          CFI (cfiCond16) V6 load(1, XDATA, add(CFA_XSP16, literal(-8)))
          CFI (cfiCond16) V7 load(1, XDATA, add(CFA_XSP16, literal(-7)))
          CFI (cfiCond16) R7 load(1, XDATA, add(CFA_XSP16, literal(-6)))
          CFI (cfiCond16) ?RET_LOW load(1, XDATA, add(CFA_XSP16, literal(-5)))
          CFI (cfiCond16) ?RET_HIGH load(1, XDATA, add(CFA_XSP16, literal(-4)))
          CFI (cfiCond16) ?BRET_EXT load(1, XDATA, add(CFA_XSP16, literal(-3)))
          CFI (cfiCond16) DPL0 load(1, XDATA, add(CFA_XSP16, literal(-2)))
          CFI (cfiCond16) DPH0 load(1, XDATA, add(CFA_XSP16, literal(-1)))
          CFI (cfiCond16) CFA_SP SP+-2
          CFI (cfiCond16) CFA_XSP16 add(XSP16, 89)
          CFI Block cfiPicker17 Using cfiCommon1
          CFI (cfiPicker17) NoFunction
          CFI (cfiPicker17) Picker
        MOV       A,DPL
        ADD       A,R0
        MOV       R2,A
        CLR       A
        ADDC      A,DPH
        MOV       R3,A
        RET
          CFI EndBlock cfiCond14
          CFI EndBlock cfiCond15
          CFI EndBlock cfiCond16
          CFI EndBlock cfiPicker17

        RSEG BANKED_CODE:HUGECODE:NOROOT(0)
?Subroutine3:
          CFI Block cfiCond18 Using cfiCommon0
          CFI Function gp_PairingUpdateProxyTlb
          CFI Conditional ??CrossCallReturnLabel_0
          CFI R6 load(1, XDATA, add(CFA_XSP16, literal(-16)))
          CFI VB load(1, XDATA, add(CFA_XSP16, literal(-15)))
          CFI V0 load(1, XDATA, add(CFA_XSP16, literal(-14)))
          CFI V1 load(1, XDATA, add(CFA_XSP16, literal(-13)))
          CFI V2 load(1, XDATA, add(CFA_XSP16, literal(-12)))
          CFI V3 load(1, XDATA, add(CFA_XSP16, literal(-11)))
          CFI V4 load(1, XDATA, add(CFA_XSP16, literal(-10)))
          CFI V5 load(1, XDATA, add(CFA_XSP16, literal(-9)))
          CFI V6 load(1, XDATA, add(CFA_XSP16, literal(-8)))
          CFI V7 load(1, XDATA, add(CFA_XSP16, literal(-7)))
          CFI R7 load(1, XDATA, add(CFA_XSP16, literal(-6)))
          CFI ?RET_LOW load(1, XDATA, add(CFA_XSP16, literal(-5)))
          CFI ?RET_HIGH load(1, XDATA, add(CFA_XSP16, literal(-4)))
          CFI ?BRET_EXT load(1, XDATA, add(CFA_XSP16, literal(-3)))
          CFI DPL0 load(1, XDATA, add(CFA_XSP16, literal(-2)))
          CFI DPH0 load(1, XDATA, add(CFA_XSP16, literal(-1)))
          CFI CFA_SP SP+-2
          CFI CFA_XSP16 add(XSP16, 89)
          CFI Block cfiCond19 Using cfiCommon0
          CFI (cfiCond19) Function gp_PairingUpdateProxyTlb
          CFI (cfiCond19) Conditional ??CrossCallReturnLabel_1
          CFI (cfiCond19) R6 load(1, XDATA, add(CFA_XSP16, literal(-16)))
          CFI (cfiCond19) VB load(1, XDATA, add(CFA_XSP16, literal(-15)))
          CFI (cfiCond19) V0 load(1, XDATA, add(CFA_XSP16, literal(-14)))
          CFI (cfiCond19) V1 load(1, XDATA, add(CFA_XSP16, literal(-13)))
          CFI (cfiCond19) V2 load(1, XDATA, add(CFA_XSP16, literal(-12)))
          CFI (cfiCond19) V3 load(1, XDATA, add(CFA_XSP16, literal(-11)))
          CFI (cfiCond19) V4 load(1, XDATA, add(CFA_XSP16, literal(-10)))
          CFI (cfiCond19) V5 load(1, XDATA, add(CFA_XSP16, literal(-9)))
          CFI (cfiCond19) V6 load(1, XDATA, add(CFA_XSP16, literal(-8)))
          CFI (cfiCond19) V7 load(1, XDATA, add(CFA_XSP16, literal(-7)))
          CFI (cfiCond19) R7 load(1, XDATA, add(CFA_XSP16, literal(-6)))
          CFI (cfiCond19) ?RET_LOW load(1, XDATA, add(CFA_XSP16, literal(-5)))
          CFI (cfiCond19) ?RET_HIGH load(1, XDATA, add(CFA_XSP16, literal(-4)))
          CFI (cfiCond19) ?BRET_EXT load(1, XDATA, add(CFA_XSP16, literal(-3)))
          CFI (cfiCond19) DPL0 load(1, XDATA, add(CFA_XSP16, literal(-2)))
          CFI (cfiCond19) DPH0 load(1, XDATA, add(CFA_XSP16, literal(-1)))
          CFI (cfiCond19) CFA_SP SP+-2
          CFI (cfiCond19) CFA_XSP16 add(XSP16, 89)
          CFI Block cfiCond20 Using cfiCommon0
          CFI (cfiCond20) Function gp_PairingUpdateProxyTlb
          CFI (cfiCond20) Conditional ??CrossCallReturnLabel_2
          CFI (cfiCond20) R6 load(1, XDATA, add(CFA_XSP16, literal(-16)))
          CFI (cfiCond20) VB load(1, XDATA, add(CFA_XSP16, literal(-15)))
          CFI (cfiCond20) V0 load(1, XDATA, add(CFA_XSP16, literal(-14)))
          CFI (cfiCond20) V1 load(1, XDATA, add(CFA_XSP16, literal(-13)))
          CFI (cfiCond20) V2 load(1, XDATA, add(CFA_XSP16, literal(-12)))
          CFI (cfiCond20) V3 load(1, XDATA, add(CFA_XSP16, literal(-11)))
          CFI (cfiCond20) V4 load(1, XDATA, add(CFA_XSP16, literal(-10)))
          CFI (cfiCond20) V5 load(1, XDATA, add(CFA_XSP16, literal(-9)))
          CFI (cfiCond20) V6 load(1, XDATA, add(CFA_XSP16, literal(-8)))
          CFI (cfiCond20) V7 load(1, XDATA, add(CFA_XSP16, literal(-7)))
          CFI (cfiCond20) R7 load(1, XDATA, add(CFA_XSP16, literal(-6)))
          CFI (cfiCond20) ?RET_LOW load(1, XDATA, add(CFA_XSP16, literal(-5)))
          CFI (cfiCond20) ?RET_HIGH load(1, XDATA, add(CFA_XSP16, literal(-4)))
          CFI (cfiCond20) ?BRET_EXT load(1, XDATA, add(CFA_XSP16, literal(-3)))
          CFI (cfiCond20) DPL0 load(1, XDATA, add(CFA_XSP16, literal(-2)))
          CFI (cfiCond20) DPH0 load(1, XDATA, add(CFA_XSP16, literal(-1)))
          CFI (cfiCond20) CFA_SP SP+-2
          CFI (cfiCond20) CFA_XSP16 add(XSP16, 89)
          CFI Block cfiPicker21 Using cfiCommon1
          CFI (cfiPicker21) NoFunction
          CFI (cfiPicker21) Picker
        MOVX      @DPTR,A
        ; Setup parameters for call to function gp_PopulateProxyTblEntry
        ; Setup parameters for call to function gp_PopulateProxyTblEntry
        ; Setup parameters for call to function gp_PopulateProxyTblEntry
        MOV       R0,?XSP + 0
        MOV       R1,?XSP + 1
        MOV       ?V0,R0
        MOV       ?V1,R1
        MOV       R0,#?V0
        RET
          CFI EndBlock cfiCond18
          CFI EndBlock cfiCond19
          CFI EndBlock cfiCond20
          CFI EndBlock cfiPicker21
//  504 
//  505 /*********************************************************************
//  506  * @fn          gp_UpdateProxyTlb
//  507  *
//  508  * @brief       To update the proxy table NV vectors
//  509  *
//  510  * @param       pNpEntryew - New entry array to be added
//  511  *
//  512  * @return
//  513  */

        RSEG BANKED_CODE:HUGECODE:NOROOT(0)
//  514 uint8 gp_UpdateProxyTlb( uint8* pEntry, uint8 addSink )
gp_UpdateProxyTlb:
          CFI Block cfiBlock22 Using cfiCommon0
          CFI Function gp_UpdateProxyTlb
        CODE
//  515 {
        FUNCALL gp_UpdateProxyTlb, osal_memcpy
        LOCFRAME ISTACK, 0, STACK
        LOCFRAME PSTACK, 0, STACK
        LOCFRAME XSTACK, 280, STACK
        LOCFRAME IOVERLAY, 0, STATIC
        LOCFRAME DOVERLAY, 0, STATIC
        ARGFRAME ISTACK, 0, STACK
        ARGFRAME PSTACK, 0, STACK
        ARGFRAME XSTACK, 280, STACK
        ARGFRAME IOVERLAY, 0, STATIC
        ARGFRAME DOVERLAY, 0, STATIC
        FUNCALL gp_UpdateProxyTlb, gp_getProxyTableByIndex
        LOCFRAME ISTACK, 0, STACK
        LOCFRAME PSTACK, 0, STACK
        LOCFRAME XSTACK, 277, STACK
        LOCFRAME IOVERLAY, 0, STATIC
        LOCFRAME DOVERLAY, 0, STATIC
        ARGFRAME ISTACK, 0, STACK
        ARGFRAME PSTACK, 0, STACK
        ARGFRAME XSTACK, 277, STACK
        ARGFRAME IOVERLAY, 0, STATIC
        ARGFRAME DOVERLAY, 0, STATIC
        FUNCALL gp_UpdateProxyTlb, osal_nv_write
        LOCFRAME ISTACK, 0, STACK
        LOCFRAME PSTACK, 0, STACK
        LOCFRAME XSTACK, 281, STACK
        LOCFRAME IOVERLAY, 0, STATIC
        LOCFRAME DOVERLAY, 0, STATIC
        ARGFRAME ISTACK, 0, STACK
        ARGFRAME PSTACK, 0, STACK
        ARGFRAME XSTACK, 281, STACK
        ARGFRAME IOVERLAY, 0, STATIC
        ARGFRAME DOVERLAY, 0, STATIC
        FUNCALL gp_UpdateProxyTlb, osal_memcmp
        LOCFRAME ISTACK, 0, STACK
        LOCFRAME PSTACK, 0, STACK
        LOCFRAME XSTACK, 280, STACK
        LOCFRAME IOVERLAY, 0, STATIC
        LOCFRAME DOVERLAY, 0, STATIC
        ARGFRAME ISTACK, 0, STACK
        ARGFRAME PSTACK, 0, STACK
        ARGFRAME XSTACK, 280, STACK
        ARGFRAME IOVERLAY, 0, STATIC
        ARGFRAME DOVERLAY, 0, STATIC
        FUNCALL gp_UpdateProxyTlb, osal_memcmp
        LOCFRAME ISTACK, 0, STACK
        LOCFRAME PSTACK, 0, STACK
        LOCFRAME XSTACK, 280, STACK
        LOCFRAME IOVERLAY, 0, STATIC
        LOCFRAME DOVERLAY, 0, STATIC
        ARGFRAME ISTACK, 0, STACK
        ARGFRAME PSTACK, 0, STACK
        ARGFRAME XSTACK, 280, STACK
        ARGFRAME IOVERLAY, 0, STATIC
        ARGFRAME DOVERLAY, 0, STATIC
        FUNCALL gp_UpdateProxyTlb, osal_memcmp
        LOCFRAME ISTACK, 0, STACK
        LOCFRAME PSTACK, 0, STACK
        LOCFRAME XSTACK, 280, STACK
        LOCFRAME IOVERLAY, 0, STATIC
        LOCFRAME DOVERLAY, 0, STATIC
        ARGFRAME ISTACK, 0, STACK
        ARGFRAME PSTACK, 0, STACK
        ARGFRAME XSTACK, 280, STACK
        ARGFRAME IOVERLAY, 0, STATIC
        ARGFRAME DOVERLAY, 0, STATIC
        FUNCALL gp_UpdateProxyTlb, osal_memcpy
        LOCFRAME ISTACK, 0, STACK
        LOCFRAME PSTACK, 0, STACK
        LOCFRAME XSTACK, 280, STACK
        LOCFRAME IOVERLAY, 0, STATIC
        LOCFRAME DOVERLAY, 0, STATIC
        ARGFRAME ISTACK, 0, STACK
        ARGFRAME PSTACK, 0, STACK
        ARGFRAME XSTACK, 280, STACK
        ARGFRAME IOVERLAY, 0, STATIC
        ARGFRAME DOVERLAY, 0, STATIC
        FUNCALL gp_UpdateProxyTlb, osal_nv_read
        LOCFRAME ISTACK, 0, STACK
        LOCFRAME PSTACK, 0, STACK
        LOCFRAME XSTACK, 281, STACK
        LOCFRAME IOVERLAY, 0, STATIC
        LOCFRAME DOVERLAY, 0, STATIC
        ARGFRAME ISTACK, 0, STACK
        ARGFRAME PSTACK, 0, STACK
        ARGFRAME XSTACK, 281, STACK
        ARGFRAME IOVERLAY, 0, STATIC
        ARGFRAME DOVERLAY, 0, STATIC
        FUNCALL gp_UpdateProxyTlb, osal_memcmp
        LOCFRAME ISTACK, 0, STACK
        LOCFRAME PSTACK, 0, STACK
        LOCFRAME XSTACK, 280, STACK
        LOCFRAME IOVERLAY, 0, STATIC
        LOCFRAME DOVERLAY, 0, STATIC
        ARGFRAME ISTACK, 0, STACK
        ARGFRAME PSTACK, 0, STACK
        ARGFRAME XSTACK, 280, STACK
        ARGFRAME IOVERLAY, 0, STATIC
        ARGFRAME DOVERLAY, 0, STATIC
        FUNCALL gp_UpdateProxyTlb, gp_ResetProxyBasicTblEntry
        LOCFRAME ISTACK, 0, STACK
        LOCFRAME PSTACK, 0, STACK
        LOCFRAME XSTACK, 277, STACK
        LOCFRAME IOVERLAY, 0, STATIC
        LOCFRAME DOVERLAY, 0, STATIC
        ARGFRAME ISTACK, 0, STACK
        ARGFRAME PSTACK, 0, STACK
        ARGFRAME XSTACK, 277, STACK
        ARGFRAME IOVERLAY, 0, STATIC
        ARGFRAME DOVERLAY, 0, STATIC
        FUNCALL gp_UpdateProxyTlb, osal_nv_write
        LOCFRAME ISTACK, 0, STACK
        LOCFRAME PSTACK, 0, STACK
        LOCFRAME XSTACK, 281, STACK
        LOCFRAME IOVERLAY, 0, STATIC
        LOCFRAME DOVERLAY, 0, STATIC
        ARGFRAME ISTACK, 0, STACK
        ARGFRAME PSTACK, 0, STACK
        ARGFRAME XSTACK, 281, STACK
        ARGFRAME IOVERLAY, 0, STATIC
        ARGFRAME DOVERLAY, 0, STATIC
        FUNCALL gp_UpdateProxyTlb, pt_updateLightweightUnicastSink
        LOCFRAME ISTACK, 0, STACK
        LOCFRAME PSTACK, 0, STACK
        LOCFRAME XSTACK, 277, STACK
        LOCFRAME IOVERLAY, 0, STATIC
        LOCFRAME DOVERLAY, 0, STATIC
        ARGFRAME ISTACK, 0, STACK
        ARGFRAME PSTACK, 0, STACK
        ARGFRAME XSTACK, 277, STACK
        ARGFRAME IOVERLAY, 0, STATIC
        ARGFRAME DOVERLAY, 0, STATIC
        FUNCALL gp_UpdateProxyTlb, osal_memcpy
        LOCFRAME ISTACK, 0, STACK
        LOCFRAME PSTACK, 0, STACK
        LOCFRAME XSTACK, 280, STACK
        LOCFRAME IOVERLAY, 0, STATIC
        LOCFRAME DOVERLAY, 0, STATIC
        ARGFRAME ISTACK, 0, STACK
        ARGFRAME PSTACK, 0, STACK
        ARGFRAME XSTACK, 280, STACK
        ARGFRAME IOVERLAY, 0, STATIC
        ARGFRAME DOVERLAY, 0, STATIC
        FUNCALL gp_UpdateProxyTlb, osal_memcpy
        LOCFRAME ISTACK, 0, STACK
        LOCFRAME PSTACK, 0, STACK
        LOCFRAME XSTACK, 280, STACK
        LOCFRAME IOVERLAY, 0, STATIC
        LOCFRAME DOVERLAY, 0, STATIC
        ARGFRAME ISTACK, 0, STACK
        ARGFRAME PSTACK, 0, STACK
        ARGFRAME XSTACK, 280, STACK
        ARGFRAME IOVERLAY, 0, STATIC
        ARGFRAME DOVERLAY, 0, STATIC
        FUNCALL gp_UpdateProxyTlb, osal_memcpy
        LOCFRAME ISTACK, 0, STACK
        LOCFRAME PSTACK, 0, STACK
        LOCFRAME XSTACK, 280, STACK
        LOCFRAME IOVERLAY, 0, STATIC
        LOCFRAME DOVERLAY, 0, STATIC
        ARGFRAME ISTACK, 0, STACK
        ARGFRAME PSTACK, 0, STACK
        ARGFRAME XSTACK, 280, STACK
        ARGFRAME IOVERLAY, 0, STATIC
        ARGFRAME DOVERLAY, 0, STATIC
        FUNCALL gp_UpdateProxyTlb, osal_memcpy
        LOCFRAME ISTACK, 0, STACK
        LOCFRAME PSTACK, 0, STACK
        LOCFRAME XSTACK, 280, STACK
        LOCFRAME IOVERLAY, 0, STATIC
        LOCFRAME DOVERLAY, 0, STATIC
        ARGFRAME ISTACK, 0, STACK
        ARGFRAME PSTACK, 0, STACK
        ARGFRAME XSTACK, 280, STACK
        ARGFRAME IOVERLAY, 0, STATIC
        ARGFRAME DOVERLAY, 0, STATIC
        FUNCALL gp_UpdateProxyTlb, osal_nv_write
        LOCFRAME ISTACK, 0, STACK
        LOCFRAME PSTACK, 0, STACK
        LOCFRAME XSTACK, 281, STACK
        LOCFRAME IOVERLAY, 0, STATIC
        LOCFRAME DOVERLAY, 0, STATIC
        ARGFRAME ISTACK, 0, STACK
        ARGFRAME PSTACK, 0, STACK
        ARGFRAME XSTACK, 281, STACK
        ARGFRAME IOVERLAY, 0, STATIC
        ARGFRAME DOVERLAY, 0, STATIC
        FUNCALL gp_UpdateProxyTlb, osal_memcmp
        LOCFRAME ISTACK, 0, STACK
        LOCFRAME PSTACK, 0, STACK
        LOCFRAME XSTACK, 280, STACK
        LOCFRAME IOVERLAY, 0, STATIC
        LOCFRAME DOVERLAY, 0, STATIC
        ARGFRAME ISTACK, 0, STACK
        ARGFRAME PSTACK, 0, STACK
        ARGFRAME XSTACK, 280, STACK
        ARGFRAME IOVERLAY, 0, STATIC
        ARGFRAME DOVERLAY, 0, STATIC
        FUNCALL gp_UpdateProxyTlb, osal_memcmp
        LOCFRAME ISTACK, 0, STACK
        LOCFRAME PSTACK, 0, STACK
        LOCFRAME XSTACK, 280, STACK
        LOCFRAME IOVERLAY, 0, STATIC
        LOCFRAME DOVERLAY, 0, STATIC
        ARGFRAME ISTACK, 0, STACK
        ARGFRAME PSTACK, 0, STACK
        ARGFRAME XSTACK, 280, STACK
        ARGFRAME IOVERLAY, 0, STATIC
        ARGFRAME DOVERLAY, 0, STATIC
        FUNCALL gp_UpdateProxyTlb, osal_memcmp
        LOCFRAME ISTACK, 0, STACK
        LOCFRAME PSTACK, 0, STACK
        LOCFRAME XSTACK, 280, STACK
        LOCFRAME IOVERLAY, 0, STATIC
        LOCFRAME DOVERLAY, 0, STATIC
        ARGFRAME ISTACK, 0, STACK
        ARGFRAME PSTACK, 0, STACK
        ARGFRAME XSTACK, 280, STACK
        ARGFRAME IOVERLAY, 0, STATIC
        ARGFRAME DOVERLAY, 0, STATIC
        FUNCALL gp_UpdateProxyTlb, NLME_ReportAddressConflict
        LOCFRAME ISTACK, 0, STACK
        LOCFRAME PSTACK, 0, STACK
        LOCFRAME XSTACK, 277, STACK
        LOCFRAME IOVERLAY, 0, STATIC
        LOCFRAME DOVERLAY, 0, STATIC
        ARGFRAME ISTACK, 0, STACK
        ARGFRAME PSTACK, 0, STACK
        ARGFRAME XSTACK, 277, STACK
        ARGFRAME IOVERLAY, 0, STATIC
        ARGFRAME DOVERLAY, 0, STATIC
        FUNCALL gp_UpdateProxyTlb, pt_addSinkGroup
        LOCFRAME ISTACK, 0, STACK
        LOCFRAME PSTACK, 0, STACK
        LOCFRAME XSTACK, 277, STACK
        LOCFRAME IOVERLAY, 0, STATIC
        LOCFRAME DOVERLAY, 0, STATIC
        ARGFRAME ISTACK, 0, STACK
        ARGFRAME PSTACK, 0, STACK
        ARGFRAME XSTACK, 277, STACK
        ARGFRAME IOVERLAY, 0, STATIC
        ARGFRAME DOVERLAY, 0, STATIC
        REQUIRE ?V0
        REQUIRE ?V1
        REQUIRE ?V2
        REQUIRE ?V3
        REQUIRE ?V4
        REQUIRE ?V5
        REQUIRE ?V6
        REQUIRE ?V7
        MOV       A,#-0x10
        LCALL     ?BANKED_ENTER_XDATA
          CFI DPH0 load(1, XDATA, add(CFA_XSP16, literal(-1)))
          CFI DPL0 load(1, XDATA, add(CFA_XSP16, literal(-2)))
          CFI ?BRET_EXT load(1, XDATA, add(CFA_XSP16, literal(-3)))
          CFI ?RET_HIGH load(1, XDATA, add(CFA_XSP16, literal(-4)))
          CFI ?RET_LOW load(1, XDATA, add(CFA_XSP16, literal(-5)))
          CFI R7 load(1, XDATA, add(CFA_XSP16, literal(-6)))
          CFI V7 load(1, XDATA, add(CFA_XSP16, literal(-7)))
          CFI V6 load(1, XDATA, add(CFA_XSP16, literal(-8)))
          CFI V5 load(1, XDATA, add(CFA_XSP16, literal(-9)))
          CFI V4 load(1, XDATA, add(CFA_XSP16, literal(-10)))
          CFI V3 load(1, XDATA, add(CFA_XSP16, literal(-11)))
          CFI V2 load(1, XDATA, add(CFA_XSP16, literal(-12)))
          CFI V1 load(1, XDATA, add(CFA_XSP16, literal(-13)))
          CFI V0 load(1, XDATA, add(CFA_XSP16, literal(-14)))
          CFI VB load(1, XDATA, add(CFA_XSP16, literal(-15)))
          CFI R6 load(1, XDATA, add(CFA_XSP16, literal(-16)))
          CFI CFA_SP SP+0
          CFI CFA_XSP16 add(XSP16, 16)
        ; Saved register size: 16
        ; Auto size: 261
        MOV       DPL,#-0x5
        MOV       DPH,#-0x2
        LCALL     ?ADD_XSTACK_DISP0_16
          CFI CFA_XSP16 add(XSP16, 277)
        MOV       A,R1
        MOV       DPL,?XSP + 0
        MOVX      @DPTR,A
//  516   uint8 i;
//  517   uint8 newEntry[PROXY_TBL_ENTRY_LEN] = PROXY_BASIC_TBL_EMPTY_ENTRY;
        MOV       DPTR,#`?<Constant {255, 255, 255, 255, 255, 255, 255,_4`
        MOV       A,#0x42
        LCALL     ?XSTACK_DISP102_8
        MOV       A,#0x41
        LCALL     ?MOVE_LONG8_XDATA_XDATA
//  518   uint8 currEntry[PROXY_TBL_ENTRY_LEN] = PROXY_BASIC_TBL_EMPTY_ENTRY;
        MOV       DPTR,#`?<Constant {255, 255, 255, 255, 255, 255, 255,_5`
        INC       A
        LCALL     ?XSTACK_DISP102_8
        MOV       A,#0x41
        LCALL     ?MOVE_LONG8_XDATA_XDATA
//  519   uint16 proxyTableIndex;
//  520   uint8 status;
//  521   
//  522   // Copy the new entry pointer to array
//  523   osal_memcpy( &newEntry, pEntry, PROXY_TBL_ENTRY_LEN );
        ; Setup parameters for call to function osal_memcpy
        MOV       ?V0,R2
        MOV       ?V1,R3
        MOV       ?V2,A
        MOV       R0,#?V0
        LCALL     ?PUSH_XSTACK_I_THREE
          CFI CFA_XSP16 add(XSP16, 280)
        MOV       R4,#0x41
        MOV       R5,#0x0
        MOV       A,#0x45
        LCALL     ?XSTACK_DISP101_8
        LCALL     `??osal_memcpy::?relay`; Banked call to: osal_memcpy
        MOV       A,#0x3
        LCALL     ?DEALLOC_XSTACK8
          CFI CFA_XSP16 add(XSP16, 277)
//  524 
//  525   for ( i = 0; i <= GPP_MAX_PROXY_TABLE_ENTRIES ; i++ )
        MOV       ?V3,#0x0
//  526   {
//  527     proxyTableIndex = ZCD_NV_PROXY_TABLE_START + i;
??gp_UpdateProxyTlb_0:
        MOV       A,?V3
        ADD       A,#0x10
        MOV       R6,A
        CLR       A
        ADDC      A,#0x3
        MOV       R7,A
//  528     status = gp_getProxyTableByIndex( proxyTableIndex, currEntry );
        ; Setup parameters for call to function gp_getProxyTableByIndex
        MOV       A,#0x1
        LCALL     ?XSTACK_DISP102_8
        MOV       A,R6
        MOV       R2,A
        MOV       A,R7
        MOV       R3,A
        LCALL     `??gp_getProxyTableByIndex::?relay`; Banked call to: gp_getProxyTableByIndex
        MOV       A,R1
        MOV       ?V7,A
//  529 
//  530     if ( status == NV_OPER_FAILED )
        MOV       A,#0xa
        XRL       A,?V7
        JNZ       $+5
        LJMP      ??gp_UpdateProxyTlb_1 & 0xFFFF
//  531     {
//  532       // FAIL
//  533       return status;
//  534     }
//  535     
//  536     // if the entry is empty
//  537     if ( ( status == NV_INVALID_DATA ) && ( addSink == TRUE ) )
        MOV       A,#0xd
        XRL       A,?V7
        JZ        $+5
        LJMP      ??gp_UpdateProxyTlb_2 & 0xFFFF
        MOV       DPL,?XSP + 0
        MOV       DPH,?XSP + 1
        MOVX      A,@DPTR
        XRL       A,#0x1
        JZ        $+5
        LJMP      ??gp_UpdateProxyTlb_2 & 0xFFFF
//  538     {
//  539       // Save new entry
//  540       status = osal_nv_write( proxyTableIndex, 0,
//  541                            PROXY_TBL_ENTRY_LEN, newEntry );
        ; Setup parameters for call to function osal_nv_write
        MOV       A,#0x42
        LCALL     ?XSTACK_DISP100_8
        MOV       ?V0,R0
        MOV       ?V1,R1
        MOV       R0,#?V0
        LCALL     ?PUSH_XSTACK_I_TWO
          CFI CFA_XSP16 add(XSP16, 279)
        MOV       ?V0,#0x41
        MOV       ?V1,#0x0
        MOV       R0,#?V0
        LCALL     ?PUSH_XSTACK_I_TWO
          CFI CFA_XSP16 add(XSP16, 281)
        MOV       R4,#0x0
        MOV       R5,#0x0
        MOV       A,R6
        MOV       R2,A
        MOV       A,R7
        MOV       R3,A
        LCALL     `??osal_nv_write::?relay`; Banked call to: osal_nv_write
        MOV       A,#0x4
        LCALL     ?DEALLOC_XSTACK8
          CFI CFA_XSP16 add(XSP16, 277)
        MOV       A,R1
        MOV       ?V7,A
//  542       
//  543       if ( osal_memcmp( &_NIB.nwkDevAddress, &newEntry[PROXY_TBL_ENTRY_ALIAS], sizeof( uint16 ) )        ||
//  544            osal_memcmp( &_NIB.nwkDevAddress, &newEntry[PROXY_TBL_ENTRY_1ST_GRP_ADDR], sizeof( uint16 ) ) ||
//  545            osal_memcmp( &_NIB.nwkDevAddress, &newEntry[PROXY_TBL_ENTRY_2ND_GRP_ADDR], sizeof( uint16 ) )   )
        MOV       ?V0,#(_NIB + 20) & 0xff
        MOV       ?V1,#((_NIB + 20) >> 8) & 0xff
        ; Setup parameters for call to function osal_memcmp
        MOV       A,#0x4d
        LCALL     ?XSTACK_DISP0_8
        MOV       R1,DPL
        MOV       R2,DPH
        MOV       ?V4,R1
        MOV       ?V5,R2
        MOV       ?V6,#0x0
        MOV       R0,#?V4
        LCALL     ?PUSH_XSTACK_I_THREE
          CFI CFA_XSP16 add(XSP16, 280)
        MOV       R4,#0x2
        MOV       R5,#0x0
        MOV       R1,?V0
        MOV       R2,?V1
        MOV       R3,?V2
        LCALL     `??osal_memcmp::?relay`; Banked call to: osal_memcmp
        MOV       A,#0x3
        LCALL     ?DEALLOC_XSTACK8
          CFI CFA_XSP16 add(XSP16, 277)
        MOV       A,R1
        JZ        $+5
        LJMP      ??gp_UpdateProxyTlb_3 & 0xFFFF
        ; Setup parameters for call to function osal_memcmp
        MOV       A,#0x79
        LCALL     ?XSTACK_DISP0_8
        MOV       R1,DPL
        MOV       R2,DPH
        MOV       ?V4,R1
        MOV       ?V5,R2
        MOV       R0,#?V4
        LCALL     ?PUSH_XSTACK_I_THREE
          CFI CFA_XSP16 add(XSP16, 280)
        MOV       R4,#0x2
        MOV       R5,#0x0
        MOV       R1,?V0
        MOV       R2,?V1
        MOV       R3,?V2
        LCALL     `??osal_memcmp::?relay`; Banked call to: osal_memcmp
        MOV       A,#0x3
        LCALL     ?DEALLOC_XSTACK8
          CFI CFA_XSP16 add(XSP16, 277)
        MOV       A,R1
        JZ        $+5
        LJMP      ??gp_UpdateProxyTlb_3 & 0xFFFF
        ; Setup parameters for call to function osal_memcmp
        MOV       A,#0x7d
        LCALL     ?XSTACK_DISP0_8
        MOV       R1,DPL
        MOV       R2,DPH
        MOV       ?V4,R1
        MOV       ?V5,R2
        MOV       R0,#?V4
        LCALL     ?PUSH_XSTACK_I_THREE
          CFI CFA_XSP16 add(XSP16, 280)
        MOV       R4,#0x2
        MOV       R5,#0x0
        MOV       R1,?V0
        MOV       R2,?V1
        MOV       R3,?V2
        LCALL     `??osal_memcmp::?relay`; Banked call to: osal_memcmp
        MOV       A,#0x3
        LCALL     ?DEALLOC_XSTACK8
          CFI CFA_XSP16 add(XSP16, 277)
        MOV       A,R1
        JZ        $+5
        LJMP      ??gp_UpdateProxyTlb_3 & 0xFFFF
        LJMP      ??gp_UpdateProxyTlb_1 & 0xFFFF
//  546       {
//  547         NLME_ReportAddressConflict( _NIB.nwkDevAddress, TRUE );  
//  548       }
//  549       return status;
//  550     }
//  551     
//  552     if ( pt_lookForGpd( proxyTableIndex, newEntry ) )
??gp_UpdateProxyTlb_2:
        MOV       DPTR,#`?<Constant {255, 255, 255, 255, 255, 255, 255,_11`
        MOV       A,#-0x3c
        LCALL     ?XSTACK_DISP102_8
        MOV       A,#0x41
        LCALL     ?MOVE_LONG8_XDATA_XDATA
        MOV       DPTR,#`?<Constant {255, 255, 255, 255, 255, 255, 255,_12`
        MOV       A,#-0x7d
        LCALL     ?XSTACK_DISP102_8
        MOV       A,#0x41
        LCALL     ?MOVE_LONG8_XDATA_XDATA
        ; Setup parameters for call to function osal_memcpy
        MOV       A,#0x42
        LCALL     ?XSTACK_DISP100_8
        MOV       ?V0,R0
        MOV       ?V1,R1
        MOV       R0,#?V0
        LCALL     ?PUSH_XSTACK_I_THREE
          CFI CFA_XSP16 add(XSP16, 280)
        MOV       R4,#0x41
        MOV       R5,#0x0
        MOV       A,#-0x39
        LCALL     ?XSTACK_DISP101_8
        LCALL     `??osal_memcpy::?relay`; Banked call to: osal_memcpy
        MOV       A,#0x3
        LCALL     ?DEALLOC_XSTACK8
          CFI CFA_XSP16 add(XSP16, 277)
        ; Setup parameters for call to function osal_nv_read
        MOV       A,#-0x7d
        LCALL     ?XSTACK_DISP100_8
        MOV       ?V0,R0
        MOV       ?V1,R1
        MOV       R0,#?V0
        LCALL     ?PUSH_XSTACK_I_TWO
          CFI CFA_XSP16 add(XSP16, 279)
        MOV       ?V0,#0x41
        MOV       ?V1,#0x0
        MOV       R0,#?V0
        LCALL     ?PUSH_XSTACK_I_TWO
          CFI CFA_XSP16 add(XSP16, 281)
        MOV       R4,#0x0
        MOV       R5,#0x0
        MOV       A,R6
        MOV       R2,A
        MOV       A,R7
        MOV       R3,A
        LCALL     `??osal_nv_read::?relay`; Banked call to: osal_nv_read
        MOV       A,#0x4
        LCALL     ?DEALLOC_XSTACK8
          CFI CFA_XSP16 add(XSP16, 277)
        MOV       A,R1
        JNZ       ??gp_UpdateProxyTlb_4
        MOV       A,#-0x3c
        LCALL     ?XSTACK_DISP0_8
        MOVX      A,@DPTR
        ANL       A,#0x7
        MOV       R0,A
        MOV       A,#-0x7d
        LCALL     ?XSTACK_DISP0_8
        MOVX      A,@DPTR
        ANL       A,#0x7
        XRL       A,R0
        JNZ       ??gp_UpdateProxyTlb_4
        ; Setup parameters for call to function osal_memcmp
        MOV       A,#-0x7b
        LCALL     ?XSTACK_DISP0_8
        MOV       R1,DPL
        MOV       R2,DPH
        MOV       ?V0,R1
        MOV       ?V1,R2
        MOV       R0,#?V0
        LCALL     ?PUSH_XSTACK_I_THREE
          CFI CFA_XSP16 add(XSP16, 280)
        MOV       R4,#0x8
        MOV       R5,#0x0
        MOV       A,#-0x37
        LCALL     ?XSTACK_DISP0_8
        MOV       R1,DPL
        MOV       R2,DPH
        MOV       R3,#0x0
        LCALL     `??osal_memcmp::?relay`; Banked call to: osal_memcmp
        MOV       A,#0x3
        LCALL     ?DEALLOC_XSTACK8
          CFI CFA_XSP16 add(XSP16, 277)
        MOV       A,R1
        JNZ       ??gp_UpdateProxyTlb_5
//  553     {
//  554       // Entry found
//  555       break;
//  556     }
//  557     
//  558     if ( i >= GPP_MAX_PROXY_TABLE_ENTRIES )
??gp_UpdateProxyTlb_4:
        MOV       A,?V3
        CLR       C
        SUBB      A,#0x5
        JC        ??gp_UpdateProxyTlb_6
//  559     {
//  560       // No space for new entries
//  561       return FAILURE;
        MOV       R1,#0x1
        LJMP      ??gp_UpdateProxyTlb_7 & 0xFFFF
//  562     }
//  563   }
??gp_UpdateProxyTlb_6:
        INC       ?V3
        MOV       A,?V3
        CLR       C
        SUBB      A,#0x6
        JNC       $+5
        LJMP      ??gp_UpdateProxyTlb_0 & 0xFFFF
//  564   
//  565   // Remove the entry
//  566   if ( addSink == FALSE )
??gp_UpdateProxyTlb_5:
        MOV       DPL,?XSP + 0
        MOV       DPH,?XSP + 1
        MOVX      A,@DPTR
        JNZ       ??gp_UpdateProxyTlb_8
//  567   {
//  568     gp_ResetProxyBasicTblEntry( currEntry );
        ; Setup parameters for call to function gp_ResetProxyBasicTblEntry
        MOV       A,#0x1
        LCALL     ?XSTACK_DISP101_8
        LCALL     `??gp_ResetProxyBasicTblEntry::?relay`; Banked call to: gp_ResetProxyBasicTblEntry
//  569     
//  570     status = osal_nv_write( proxyTableIndex, 0,
//  571                      PROXY_TBL_ENTRY_LEN, currEntry );
        ; Setup parameters for call to function osal_nv_write
        MOV       A,#0x1
        LCALL     ?XSTACK_DISP100_8
        MOV       ?V0,R0
        MOV       ?V1,R1
        MOV       R0,#?V0
        LCALL     ?PUSH_XSTACK_I_TWO
          CFI CFA_XSP16 add(XSP16, 279)
        MOV       ?V0,#0x41
        MOV       ?V1,#0x0
        MOV       R0,#?V0
        LCALL     ?PUSH_XSTACK_I_TWO
          CFI CFA_XSP16 add(XSP16, 281)
        MOV       R4,#0x0
        MOV       R5,#0x0
        MOV       A,R6
        MOV       R2,A
        MOV       A,R7
        MOV       R3,A
        LCALL     `??osal_nv_write::?relay`; Banked call to: osal_nv_write
        MOV       A,#0x4
        LCALL     ?DEALLOC_XSTACK8
          CFI CFA_XSP16 add(XSP16, 277)
        MOV       A,R1
        MOV       ?V7,A
        LJMP      ??gp_UpdateProxyTlb_1 & 0xFFFF
//  572     return status;
//  573   }
//  574 
//  575   if ( PROXY_TBL_GET_LIGHTWIGHT_UNICAST( newEntry[PROXY_TBL_ENTRY_OPT] ) )
??gp_UpdateProxyTlb_8:
        MOV       A,#0x42
        LCALL     ?XSTACK_DISP0_8
        MOVX      A,@DPTR
        MOV       C,0xE0 /* A   */.6
        JC        $+5
        LJMP      ??gp_UpdateProxyTlb_9 & 0xFFFF
//  576   {
//  577     if ( ( !pt_updateLightweightUnicastSink( newEntry, currEntry, addSink ) ) )
        ; Setup parameters for call to function pt_updateLightweightUnicastSink
        MOV       DPL,?XSP + 0
        MOV       DPH,?XSP + 1
        MOVX      A,@DPTR
        MOV       R1,A
        MOV       A,#0x1
        LCALL     ?XSTACK_DISP102_8
        MOV       A,#0x42
        LCALL     ?XSTACK_DISP101_8
        LCALL     `??pt_updateLightweightUnicastSink::?relay`; Banked call to: pt_updateLightweightUnicastSink
        MOV       A,R1
        JNZ       $+5
        LJMP      ??gp_UpdateProxyTlb_10 & 0xFFFF
//  578     {
//  579       // The entry is full
//  580       return NV_BAD_ITEM_LEN;
//  581     }
//  582   }
//  583   else if ( PROXY_TBL_GET_CGROUP( newEntry[PROXY_TBL_ENTRY_OPT + 1] ) )
//  584   {
//  585     if ( ( !pt_addSinkGroup( newEntry, currEntry ) ) )
//  586     {
//  587       // The entry is full
//  588       return NV_BAD_ITEM_LEN;
//  589     }
//  590   }
//  591 
//  592   if ( pt_getAlias( newEntry ) )
??gp_UpdateProxyTlb_11:
        MOV       A,#0x43
        LCALL     ?XSTACK_DISP0_8
        MOVX      A,@DPTR
        MOV       C,0xE0 /* A   */.5
        JNC       ??gp_UpdateProxyTlb_12
//  593   {
//  594     osal_memcpy( &currEntry[PROXY_TBL_ENTRY_ALIAS], &newEntry[PROXY_TBL_ENTRY_ALIAS], sizeof ( uint16 ) );
        ; Setup parameters for call to function osal_memcpy
        MOV       A,#0x4d
        LCALL     ?XSTACK_DISP0_8
        MOV       R1,DPL
        MOV       R2,DPH
        MOV       ?V0,R1
        MOV       ?V1,R2
        MOV       R0,#?V0
        LCALL     ?PUSH_XSTACK_I_THREE
          CFI CFA_XSP16 add(XSP16, 280)
        MOV       R4,#0x2
        MOV       R5,#0x0
        MOV       A,#0xf
        LCALL     ?XSTACK_DISP0_8
        MOV       R2,DPL
        MOV       R3,DPH
        LCALL     `??osal_memcpy::?relay`; Banked call to: osal_memcpy
        MOV       A,#0x3
        LCALL     ?DEALLOC_XSTACK8
          CFI CFA_XSP16 add(XSP16, 277)
//  595   }
//  596     
//  597   if ( pt_getSecurity( newEntry ) )
??gp_UpdateProxyTlb_12:
        MOV       A,#0x43
        LCALL     ?XSTACK_DISP0_8
        MOVX      A,@DPTR
        MOV       C,0xE0 /* A   */.6
        JNC       ??gp_UpdateProxyTlb_13
//  598   {
//  599     PROXY_TBL_SET_SEC_USE( &currEntry[PROXY_TBL_ENTRY_OPT + 1] );
        MOV       A,#0x2
        LCALL     ?XSTACK_DISP0_8
        MOVX      A,@DPTR
        SETB      0xE0 /* A   */.6
        MOVX      @DPTR,A
//  600     osal_memcpy( &currEntry[PROXY_TBL_ENTRY_SEC_OPT], &newEntry[PROXY_TBL_ENTRY_SEC_OPT], sizeof ( uint8 ) );
        ; Setup parameters for call to function osal_memcpy
        MOV       A,#0x4f
        LCALL     ?XSTACK_DISP0_8
        MOV       R1,DPL
        MOV       R2,DPH
        MOV       ?V0,R1
        MOV       ?V1,R2
        MOV       R0,#?V0
        LCALL     ?PUSH_XSTACK_I_THREE
          CFI CFA_XSP16 add(XSP16, 280)
        MOV       R4,#0x1
        MOV       R5,#0x0
        MOV       A,#0x11
        LCALL     ?XSTACK_DISP0_8
        MOV       R2,DPL
        MOV       R3,DPH
        LCALL     `??osal_memcpy::?relay`; Banked call to: osal_memcpy
        MOV       A,#0x3
        LCALL     ?DEALLOC_XSTACK8
          CFI CFA_XSP16 add(XSP16, 277)
//  601     osal_memcpy( &currEntry[PROXY_TBL_ENTRY_GPD_KEY], &newEntry[PROXY_TBL_ENTRY_GPD_KEY], SEC_KEY_LEN );
        ; Setup parameters for call to function osal_memcpy
        MOV       A,#0x54
        LCALL     ?XSTACK_DISP0_8
        MOV       R1,DPL
        MOV       R2,DPH
        MOV       ?V0,R1
        MOV       ?V1,R2
        MOV       R0,#?V0
        LCALL     ?PUSH_XSTACK_I_THREE
          CFI CFA_XSP16 add(XSP16, 280)
        MOV       R4,#0x10
        MOV       R5,#0x0
        MOV       A,#0x16
        LCALL     ?XSTACK_DISP0_8
        MOV       R2,DPL
        MOV       R3,DPH
        LCALL     `??osal_memcpy::?relay`; Banked call to: osal_memcpy
        MOV       A,#0x3
        LCALL     ?DEALLOC_XSTACK8
          CFI CFA_XSP16 add(XSP16, 277)
//  602   }
//  603          
//  604   if ( pt_getSecFrameCounterCapabilities( newEntry ) )
??gp_UpdateProxyTlb_13:
        MOV       A,#0x42
        LCALL     ?XSTACK_DISP0_8
        MOVX      A,@DPTR
        MOV       C,0xE0 /* A   */.5
        JNC       ??gp_UpdateProxyTlb_14
//  605   {
//  606     PROXY_TBL_SET_SEC_CAP( &currEntry[PROXY_TBL_ENTRY_OPT] );
        MOV       A,#0x1
        LCALL     ?XSTACK_DISP0_8
        MOVX      A,@DPTR
        SETB      0xE0 /* A   */.5
        MOVX      @DPTR,A
//  607   }
//  608   
//  609   osal_memcpy( &currEntry[PROXY_TBL_ENTRY_SEC_FRAME], &newEntry[PROXY_TBL_ENTRY_SEC_FRAME], sizeof ( uint32 ) );
??gp_UpdateProxyTlb_14:
        ; Setup parameters for call to function osal_memcpy
        MOV       A,#0x50
        LCALL     ?XSTACK_DISP0_8
        MOV       R1,DPL
        MOV       R2,DPH
        MOV       ?V0,R1
        MOV       ?V1,R2
        MOV       R0,#?V0
        LCALL     ?PUSH_XSTACK_I_THREE
          CFI CFA_XSP16 add(XSP16, 280)
        MOV       R4,#0x4
        MOV       R5,#0x0
        MOV       A,#0x12
        LCALL     ?XSTACK_DISP0_8
        MOV       R2,DPL
        MOV       R3,DPH
        LCALL     `??osal_memcpy::?relay`; Banked call to: osal_memcpy
        MOV       A,#0x3
        LCALL     ?DEALLOC_XSTACK8
          CFI CFA_XSP16 add(XSP16, 277)
//  610 
//  611   currEntry[PROXY_TBL_ENTRY_GRP_RAD] = newEntry[PROXY_TBL_ENTRY_GRP_RAD];
        MOV       A,#-0x7f
        LCALL     ?XSTACK_DISP0_8
        MOVX      A,@DPTR
        PUSH      A
          CFI CFA_SP SP+-1
        MOV       A,#0x40
        LCALL     ?XSTACK_DISP0_8
        POP       A
          CFI CFA_SP SP+0
        MOVX      @DPTR,A
//  612     
//  613   currEntry[PROXY_TBL_ENTRY_SEARCH_COUNTER] = newEntry[PROXY_TBL_ENTRY_SEARCH_COUNTER];
        MOV       A,#-0x7e
        LCALL     ?XSTACK_DISP0_8
        MOVX      A,@DPTR
        PUSH      A
          CFI CFA_SP SP+-1
        MOV       A,#0x41
        LCALL     ?XSTACK_DISP0_8
        POP       A
          CFI CFA_SP SP+0
        MOVX      @DPTR,A
//  614    
//  615   status = osal_nv_write( proxyTableIndex, 0,
//  616                      PROXY_TBL_ENTRY_LEN, currEntry );
        ; Setup parameters for call to function osal_nv_write
        MOV       A,#0x1
        LCALL     ?XSTACK_DISP100_8
        MOV       ?V0,R0
        MOV       ?V1,R1
        MOV       R0,#?V0
        LCALL     ?PUSH_XSTACK_I_TWO
          CFI CFA_XSP16 add(XSP16, 279)
        MOV       ?V0,#0x41
        MOV       ?V1,#0x0
        MOV       R0,#?V0
        LCALL     ?PUSH_XSTACK_I_TWO
          CFI CFA_XSP16 add(XSP16, 281)
        MOV       R4,#0x0
        MOV       R5,#0x0
        MOV       A,R6
        MOV       R2,A
        MOV       A,R7
        MOV       R3,A
        LCALL     `??osal_nv_write::?relay`; Banked call to: osal_nv_write
        MOV       A,#0x4
        LCALL     ?DEALLOC_XSTACK8
          CFI CFA_XSP16 add(XSP16, 277)
        MOV       A,R1
        MOV       ?V7,A
//  617   
//  618   if ( osal_memcmp( &_NIB.nwkDevAddress, &currEntry[PROXY_TBL_ENTRY_ALIAS], sizeof( uint16 ) )        ||
//  619        osal_memcmp( &_NIB.nwkDevAddress, &currEntry[PROXY_TBL_ENTRY_1ST_GRP_ADDR], sizeof( uint16 ) ) ||
//  620        osal_memcmp( &_NIB.nwkDevAddress, &currEntry[PROXY_TBL_ENTRY_2ND_GRP_ADDR], sizeof( uint16 ) )   )
        MOV       ?V0,#(_NIB + 20) & 0xff
        MOV       ?V1,#((_NIB + 20) >> 8) & 0xff
        ; Setup parameters for call to function osal_memcmp
        MOV       A,#0xc
        LCALL     ?XSTACK_DISP0_8
        MOV       R1,DPL
        MOV       R2,DPH
        MOV       ?V4,R1
        MOV       ?V5,R2
        MOV       ?V6,#0x0
        MOV       R0,#?V4
        LCALL     ?PUSH_XSTACK_I_THREE
          CFI CFA_XSP16 add(XSP16, 280)
        MOV       R4,#0x2
        MOV       R5,#0x0
        MOV       R1,?V0
        MOV       R2,?V1
        MOV       R3,?V2
        LCALL     `??osal_memcmp::?relay`; Banked call to: osal_memcmp
        MOV       A,#0x3
        LCALL     ?DEALLOC_XSTACK8
          CFI CFA_XSP16 add(XSP16, 277)
        MOV       A,R1
        JNZ       ??gp_UpdateProxyTlb_3
        ; Setup parameters for call to function osal_memcmp
        MOV       A,#0x38
        LCALL     ?XSTACK_DISP0_8
        MOV       R1,DPL
        MOV       R2,DPH
        MOV       ?V4,R1
        MOV       ?V5,R2
        MOV       R0,#?V4
        LCALL     ?PUSH_XSTACK_I_THREE
          CFI CFA_XSP16 add(XSP16, 280)
        MOV       R4,#0x2
        MOV       R5,#0x0
        MOV       R1,?V0
        MOV       R2,?V1
        MOV       R3,?V2
        LCALL     `??osal_memcmp::?relay`; Banked call to: osal_memcmp
        MOV       A,#0x3
        LCALL     ?DEALLOC_XSTACK8
          CFI CFA_XSP16 add(XSP16, 277)
        MOV       A,R1
        JNZ       ??gp_UpdateProxyTlb_3
        ; Setup parameters for call to function osal_memcmp
        MOV       A,#0x3c
        LCALL     ?XSTACK_DISP0_8
        MOV       R1,DPL
        MOV       R2,DPH
        MOV       ?V4,R1
        MOV       ?V5,R2
        MOV       R0,#?V4
        LCALL     ?PUSH_XSTACK_I_THREE
          CFI CFA_XSP16 add(XSP16, 280)
        MOV       R4,#0x2
        MOV       R5,#0x0
        MOV       R1,?V0
        MOV       R2,?V1
        MOV       R3,?V2
        LCALL     `??osal_memcmp::?relay`; Banked call to: osal_memcmp
        MOV       A,#0x3
        LCALL     ?DEALLOC_XSTACK8
          CFI CFA_XSP16 add(XSP16, 277)
        MOV       A,R1
        JZ        ??gp_UpdateProxyTlb_1
//  621   {
//  622     NLME_ReportAddressConflict( _NIB.nwkDevAddress, TRUE );  
??gp_UpdateProxyTlb_3:
        ; Setup parameters for call to function NLME_ReportAddressConflict
        MOV       R1,#0x1
        MOV       DPTR,#_NIB + 20
        LCALL     ?Subroutine9 & 0xFFFF
//  623   }
??CrossCallReturnLabel_19:
        LCALL     `??NLME_ReportAddressConflict::?relay`; Banked call to: NLME_ReportAddressConflict
//  624   
//  625   return status;
??gp_UpdateProxyTlb_1:
        MOV       R1,?V7
??gp_UpdateProxyTlb_7:
        MOV       DPL,#0x5
        MOV       DPH,#0x1
        LCALL     ?ADD_XSTACK_DISP0_16
          CFI CFA_XSP16 add(XSP16, 16)
        LJMP      ??Subroutine10_0 & 0xFFFF
          CFI CFA_XSP16 add(XSP16, 277)
??gp_UpdateProxyTlb_9:
        MOV       A,#0x43
        LCALL     ?XSTACK_DISP0_8
        MOVX      A,@DPTR
        MOV       C,0xE0 /* A   */.0
        JC        $+5
        LJMP      ??gp_UpdateProxyTlb_11 & 0xFFFF
        ; Setup parameters for call to function pt_addSinkGroup
        MOV       A,#0x1
        LCALL     ?XSTACK_DISP102_8
        MOV       A,#0x42
        LCALL     ?XSTACK_DISP101_8
        LCALL     `??pt_addSinkGroup::?relay`; Banked call to: pt_addSinkGroup
        MOV       A,R1
        JZ        $+5
        LJMP      ??gp_UpdateProxyTlb_11 & 0xFFFF
??gp_UpdateProxyTlb_10:
        MOV       R1,#0xc
        SJMP      ??gp_UpdateProxyTlb_7
//  626 }
          CFI EndBlock cfiBlock22
//  627 
//  628 /*********************************************************************
//  629  * @fn          gp_CheckAnnouncedDevice
//  630  *
//  631  * @brief       General function to check if it has the announced device 
//  632  *              listed in the SinkAddressList and look for address conflict
//  633  *              resolution.
//  634  *
//  635  * @param       
//  636  *
//  637  * @return      
//  638  */

        RSEG BANKED_CODE:HUGECODE:NOROOT(0)
//  639 uint8 gp_CheckAnnouncedDevice ( uint8 *sinkIEEE, uint16 sinkNwkAddr )
gp_CheckAnnouncedDevice:
          CFI Block cfiBlock23 Using cfiCommon0
          CFI Function gp_CheckAnnouncedDevice
        CODE
//  640 {
        FUNCALL gp_CheckAnnouncedDevice, gp_getProxyTableByIndex
        LOCFRAME ISTACK, 0, STACK
        LOCFRAME PSTACK, 0, STACK
        LOCFRAME XSTACK, 85, STACK
        LOCFRAME IOVERLAY, 0, STATIC
        LOCFRAME DOVERLAY, 0, STATIC
        ARGFRAME ISTACK, 0, STACK
        ARGFRAME PSTACK, 0, STACK
        ARGFRAME XSTACK, 85, STACK
        ARGFRAME IOVERLAY, 0, STATIC
        ARGFRAME DOVERLAY, 0, STATIC
        FUNCALL gp_CheckAnnouncedDevice, osal_memcmp
        LOCFRAME ISTACK, 0, STACK
        LOCFRAME PSTACK, 0, STACK
        LOCFRAME XSTACK, 88, STACK
        LOCFRAME IOVERLAY, 0, STATIC
        LOCFRAME DOVERLAY, 0, STATIC
        ARGFRAME ISTACK, 0, STACK
        ARGFRAME PSTACK, 0, STACK
        ARGFRAME XSTACK, 88, STACK
        ARGFRAME IOVERLAY, 0, STATIC
        ARGFRAME DOVERLAY, 0, STATIC
        FUNCALL gp_CheckAnnouncedDevice, osal_memcmp
        LOCFRAME ISTACK, 0, STACK
        LOCFRAME PSTACK, 0, STACK
        LOCFRAME XSTACK, 88, STACK
        LOCFRAME IOVERLAY, 0, STATIC
        LOCFRAME DOVERLAY, 0, STATIC
        ARGFRAME ISTACK, 0, STACK
        ARGFRAME PSTACK, 0, STACK
        ARGFRAME XSTACK, 88, STACK
        ARGFRAME IOVERLAY, 0, STATIC
        ARGFRAME DOVERLAY, 0, STATIC
        FUNCALL gp_CheckAnnouncedDevice, osal_memcmp
        LOCFRAME ISTACK, 0, STACK
        LOCFRAME PSTACK, 0, STACK
        LOCFRAME XSTACK, 88, STACK
        LOCFRAME IOVERLAY, 0, STATIC
        LOCFRAME DOVERLAY, 0, STATIC
        ARGFRAME ISTACK, 0, STACK
        ARGFRAME PSTACK, 0, STACK
        ARGFRAME XSTACK, 88, STACK
        ARGFRAME IOVERLAY, 0, STATIC
        ARGFRAME DOVERLAY, 0, STATIC
        FUNCALL gp_CheckAnnouncedDevice, NLME_SendNetworkStatus
        LOCFRAME ISTACK, 0, STACK
        LOCFRAME PSTACK, 0, STACK
        LOCFRAME XSTACK, 86, STACK
        LOCFRAME IOVERLAY, 0, STATIC
        LOCFRAME DOVERLAY, 0, STATIC
        ARGFRAME ISTACK, 0, STACK
        ARGFRAME PSTACK, 0, STACK
        ARGFRAME XSTACK, 86, STACK
        ARGFRAME IOVERLAY, 0, STATIC
        ARGFRAME DOVERLAY, 0, STATIC
        FUNCALL gp_CheckAnnouncedDevice, osal_memset
        LOCFRAME ISTACK, 0, STACK
        LOCFRAME PSTACK, 0, STACK
        LOCFRAME XSTACK, 85, STACK
        LOCFRAME IOVERLAY, 0, STATIC
        LOCFRAME DOVERLAY, 0, STATIC
        ARGFRAME ISTACK, 0, STACK
        ARGFRAME PSTACK, 0, STACK
        ARGFRAME XSTACK, 85, STACK
        ARGFRAME IOVERLAY, 0, STATIC
        ARGFRAME DOVERLAY, 0, STATIC
        FUNCALL gp_CheckAnnouncedDevice, osal_rand
        LOCFRAME ISTACK, 0, STACK
        LOCFRAME PSTACK, 0, STACK
        LOCFRAME XSTACK, 85, STACK
        LOCFRAME IOVERLAY, 0, STATIC
        LOCFRAME DOVERLAY, 0, STATIC
        ARGFRAME ISTACK, 0, STACK
        ARGFRAME PSTACK, 0, STACK
        ARGFRAME XSTACK, 85, STACK
        ARGFRAME IOVERLAY, 0, STATIC
        ARGFRAME DOVERLAY, 0, STATIC
        FUNCALL gp_CheckAnnouncedDevice, osal_start_timerEx
        LOCFRAME ISTACK, 0, STACK
        LOCFRAME PSTACK, 0, STACK
        LOCFRAME XSTACK, 89, STACK
        LOCFRAME IOVERLAY, 0, STATIC
        LOCFRAME DOVERLAY, 0, STATIC
        ARGFRAME ISTACK, 0, STACK
        ARGFRAME PSTACK, 0, STACK
        ARGFRAME XSTACK, 89, STACK
        ARGFRAME IOVERLAY, 0, STATIC
        ARGFRAME DOVERLAY, 0, STATIC
        FUNCALL gp_CheckAnnouncedDevice, osal_memcmp
        LOCFRAME ISTACK, 0, STACK
        LOCFRAME PSTACK, 0, STACK
        LOCFRAME XSTACK, 88, STACK
        LOCFRAME IOVERLAY, 0, STATIC
        LOCFRAME DOVERLAY, 0, STATIC
        ARGFRAME ISTACK, 0, STACK
        ARGFRAME PSTACK, 0, STACK
        ARGFRAME XSTACK, 88, STACK
        ARGFRAME IOVERLAY, 0, STATIC
        ARGFRAME DOVERLAY, 0, STATIC
        FUNCALL gp_CheckAnnouncedDevice, osal_memcmp
        LOCFRAME ISTACK, 0, STACK
        LOCFRAME PSTACK, 0, STACK
        LOCFRAME XSTACK, 88, STACK
        LOCFRAME IOVERLAY, 0, STATIC
        LOCFRAME DOVERLAY, 0, STATIC
        ARGFRAME ISTACK, 0, STACK
        ARGFRAME PSTACK, 0, STACK
        ARGFRAME XSTACK, 88, STACK
        ARGFRAME IOVERLAY, 0, STATIC
        ARGFRAME DOVERLAY, 0, STATIC
        FUNCALL gp_CheckAnnouncedDevice, osal_memcpy
        LOCFRAME ISTACK, 0, STACK
        LOCFRAME PSTACK, 0, STACK
        LOCFRAME XSTACK, 88, STACK
        LOCFRAME IOVERLAY, 0, STATIC
        LOCFRAME DOVERLAY, 0, STATIC
        ARGFRAME ISTACK, 0, STACK
        ARGFRAME PSTACK, 0, STACK
        ARGFRAME XSTACK, 88, STACK
        ARGFRAME IOVERLAY, 0, STATIC
        ARGFRAME DOVERLAY, 0, STATIC
        FUNCALL gp_CheckAnnouncedDevice, osal_memcmp
        LOCFRAME ISTACK, 0, STACK
        LOCFRAME PSTACK, 0, STACK
        LOCFRAME XSTACK, 88, STACK
        LOCFRAME IOVERLAY, 0, STATIC
        LOCFRAME DOVERLAY, 0, STATIC
        ARGFRAME ISTACK, 0, STACK
        ARGFRAME PSTACK, 0, STACK
        ARGFRAME XSTACK, 88, STACK
        ARGFRAME IOVERLAY, 0, STATIC
        ARGFRAME DOVERLAY, 0, STATIC
        FUNCALL gp_CheckAnnouncedDevice, osal_memcmp
        LOCFRAME ISTACK, 0, STACK
        LOCFRAME PSTACK, 0, STACK
        LOCFRAME XSTACK, 88, STACK
        LOCFRAME IOVERLAY, 0, STATIC
        LOCFRAME DOVERLAY, 0, STATIC
        ARGFRAME ISTACK, 0, STACK
        ARGFRAME PSTACK, 0, STACK
        ARGFRAME XSTACK, 88, STACK
        ARGFRAME IOVERLAY, 0, STATIC
        ARGFRAME DOVERLAY, 0, STATIC
        FUNCALL gp_CheckAnnouncedDevice, osal_memcpy
        LOCFRAME ISTACK, 0, STACK
        LOCFRAME PSTACK, 0, STACK
        LOCFRAME XSTACK, 88, STACK
        LOCFRAME IOVERLAY, 0, STATIC
        LOCFRAME DOVERLAY, 0, STATIC
        ARGFRAME ISTACK, 0, STACK
        ARGFRAME PSTACK, 0, STACK
        ARGFRAME XSTACK, 88, STACK
        ARGFRAME IOVERLAY, 0, STATIC
        ARGFRAME DOVERLAY, 0, STATIC
        REQUIRE ?V0
        REQUIRE ?V1
        REQUIRE ?V2
        REQUIRE ?V3
        REQUIRE ?V4
        REQUIRE ?V5
        REQUIRE ?V6
        REQUIRE ?V7
        MOV       A,#-0x10
        LCALL     ?BANKED_ENTER_XDATA
          CFI DPH0 load(1, XDATA, add(CFA_XSP16, literal(-1)))
          CFI DPL0 load(1, XDATA, add(CFA_XSP16, literal(-2)))
          CFI ?BRET_EXT load(1, XDATA, add(CFA_XSP16, literal(-3)))
          CFI ?RET_HIGH load(1, XDATA, add(CFA_XSP16, literal(-4)))
          CFI ?RET_LOW load(1, XDATA, add(CFA_XSP16, literal(-5)))
          CFI R7 load(1, XDATA, add(CFA_XSP16, literal(-6)))
          CFI V7 load(1, XDATA, add(CFA_XSP16, literal(-7)))
          CFI V6 load(1, XDATA, add(CFA_XSP16, literal(-8)))
          CFI V5 load(1, XDATA, add(CFA_XSP16, literal(-9)))
          CFI V4 load(1, XDATA, add(CFA_XSP16, literal(-10)))
          CFI V3 load(1, XDATA, add(CFA_XSP16, literal(-11)))
          CFI V2 load(1, XDATA, add(CFA_XSP16, literal(-12)))
          CFI V1 load(1, XDATA, add(CFA_XSP16, literal(-13)))
          CFI V0 load(1, XDATA, add(CFA_XSP16, literal(-14)))
          CFI VB load(1, XDATA, add(CFA_XSP16, literal(-15)))
          CFI R6 load(1, XDATA, add(CFA_XSP16, literal(-16)))
          CFI CFA_SP SP+0
          CFI CFA_XSP16 add(XSP16, 16)
        ; Saved register size: 16
        ; Auto size: 69
        MOV       A,#-0x45
        LCALL     ?ALLOC_XSTACK8
          CFI CFA_XSP16 add(XSP16, 85)
        MOV       A,#0x2
        LCALL     ?XSTACK_DISP0_8
        MOV       A,R2
        MOVX      @DPTR,A
        INC       DPTR
        MOV       A,R3
        MOVX      @DPTR,A
        MOV       DPL,?XSP + 0
        MOV       DPH,?XSP + 1
        MOV       A,R4
        MOVX      @DPTR,A
        INC       DPTR
        MOV       A,R5
        MOVX      @DPTR,A
//  641   uint8 i;
//  642   uint8 status;
//  643   uint8 annceDelay;
//  644   uint8 ProxyTableEntry[PROXY_TBL_ENTRY_LEN];
//  645 
//  646   for ( i = 0; i <= GPP_MAX_PROXY_TABLE_ENTRIES ; i++ )
        MOV       R6,#0x0
        MOV       R0,?XSP + 0
        MOV       R1,?XSP + 1
        MOV       ?V0,R0
        MOV       ?V1,R1
        MOV       ?V2,R6
//  647   {
//  648     status = gp_getProxyTableByIndex( ( ZCD_NV_PROXY_TABLE_START + i ), ProxyTableEntry );
??gp_CheckAnnouncedDevice_0:
        ; Setup parameters for call to function gp_getProxyTableByIndex
        MOV       A,#0x4
        LCALL     ?XSTACK_DISP102_8
        MOV       A,R6
        ADD       A,#0x10
        MOV       R2,A
        CLR       A
        ADDC      A,#0x3
        MOV       R3,A
        LCALL     `??gp_getProxyTableByIndex::?relay`; Banked call to: gp_getProxyTableByIndex
        MOV       A,R1
        MOV       R0,A
//  649 
//  650     if ( status == NV_OPER_FAILED )
        MOV       A,#0xa
        XRL       A,R0
        JNZ       ??gp_CheckAnnouncedDevice_1
//  651     {
//  652       // FAIL
//  653 
//  654       return ZFailure;
        MOV       R1,#0x1
        LJMP      ??gp_CheckAnnouncedDevice_2 & 0xFFFF
//  655     }
//  656     
//  657     // if the entry is empty
//  658     if ( status == NV_INVALID_DATA )
??gp_CheckAnnouncedDevice_1:
        MOV       A,#0xd
        XRL       A,R0
        JNZ       $+5
        LJMP      ??gp_CheckAnnouncedDevice_3 & 0xFFFF
//  659     {
//  660       continue;
//  661     }
//  662     
//  663     // Compare for nwk alias address conflict
//  664     if ( osal_memcmp( &sinkNwkAddr, &ProxyTableEntry[PROXY_TBL_ENTRY_ALIAS], sizeof( uint16 ) )        ||
//  665          osal_memcmp( &sinkNwkAddr, &ProxyTableEntry[PROXY_TBL_ENTRY_1ST_GRP_ADDR], sizeof( uint16 ) ) ||
//  666          osal_memcmp( &sinkNwkAddr, &ProxyTableEntry[PROXY_TBL_ENTRY_2ND_GRP_ADDR], sizeof( uint16 ) )   )
        ; Setup parameters for call to function osal_memcmp
        MOV       A,#0xf
        LCALL     ?XSTACK_DISP0_8
        MOV       R1,DPL
        MOV       R2,DPH
        MOV       ?V4,R1
        MOV       ?V5,R2
        MOV       ?V6,#0x0
        MOV       R0,#?V4
        LCALL     ?PUSH_XSTACK_I_THREE
          CFI CFA_XSP16 add(XSP16, 88)
        MOV       R4,#0x2
        MOV       R5,#0x0
        MOV       R1,?V0
        MOV       R2,?V1
        MOV       R3,?V2
        LCALL     `??osal_memcmp::?relay`; Banked call to: osal_memcmp
        MOV       A,#0x3
        LCALL     ?DEALLOC_XSTACK8
          CFI CFA_XSP16 add(XSP16, 85)
        MOV       A,R1
        JNZ       ??gp_CheckAnnouncedDevice_4
        ; Setup parameters for call to function osal_memcmp
        MOV       A,#0x3b
        LCALL     ?XSTACK_DISP0_8
        MOV       R1,DPL
        MOV       R2,DPH
        MOV       ?V4,R1
        MOV       ?V5,R2
        MOV       R0,#?V4
        LCALL     ?PUSH_XSTACK_I_THREE
          CFI CFA_XSP16 add(XSP16, 88)
        MOV       R4,#0x2
        MOV       R5,#0x0
        MOV       R1,?V0
        MOV       R2,?V1
        MOV       R3,?V2
        LCALL     `??osal_memcmp::?relay`; Banked call to: osal_memcmp
        MOV       A,#0x3
        LCALL     ?DEALLOC_XSTACK8
          CFI CFA_XSP16 add(XSP16, 85)
        MOV       A,R1
        JNZ       ??gp_CheckAnnouncedDevice_4
        ; Setup parameters for call to function osal_memcmp
        MOV       A,#0x3f
        LCALL     ?XSTACK_DISP0_8
        MOV       R1,DPL
        MOV       R2,DPH
        MOV       ?V4,R1
        MOV       ?V5,R2
        MOV       R0,#?V4
        LCALL     ?PUSH_XSTACK_I_THREE
          CFI CFA_XSP16 add(XSP16, 88)
        MOV       R4,#0x2
        MOV       R5,#0x0
        MOV       R1,?V0
        MOV       R2,?V1
        MOV       R3,?V2
        LCALL     `??osal_memcmp::?relay`; Banked call to: osal_memcmp
        MOV       A,#0x3
        LCALL     ?DEALLOC_XSTACK8
          CFI CFA_XSP16 add(XSP16, 85)
        MOV       A,R1
        JZ        ??gp_CheckAnnouncedDevice_5
//  667     {
//  668       // Do address conflict resolution
//  669       NLME_SendNetworkStatus( NWK_BROADCAST_SHORTADDR_DEVRXON,
//  670                          sinkNwkAddr, NWKSTAT_ADDRESS_CONFLICT, TRUE );
??gp_CheckAnnouncedDevice_4:
        ; Setup parameters for call to function NLME_SendNetworkStatus
        MOV       ?V3,#0x1
        MOV       R0,#?V3
        LCALL     ?PUSH_XSTACK_I_ONE
          CFI CFA_XSP16 add(XSP16, 86)
        MOV       R1,#0xd
        MOV       A,#0x1
        LCALL     ?XSTACK_DISP0_8
        MOVX      A,@DPTR
        MOV       R4,A
        INC       DPTR
        MOVX      A,@DPTR
        MOV       R5,A
        MOV       R2,#-0x3
        MOV       R3,#-0x1
        LCALL     `??NLME_SendNetworkStatus::?relay`; Banked call to: NLME_SendNetworkStatus
        MOV       A,#0x1
        LCALL     ?DEALLOC_XSTACK8
          CFI CFA_XSP16 add(XSP16, 85)
//  671       
//  672       aliasConflictAnnce.nwkAddr = sinkNwkAddr;
        MOV       DPL,?XSP + 0
        MOV       DPH,?XSP + 1
        MOVX      A,@DPTR
        MOV       R0,A
        INC       DPTR
        MOVX      A,@DPTR
        MOV       R1,A
        MOV       DPTR,#aliasConflictAnnce
        MOV       A,R0
        MOVX      @DPTR,A
        INC       DPTR
        MOV       A,R1
        MOVX      @DPTR,A
//  673       osal_memset( aliasConflictAnnce.extAddr, 0xFF, Z_EXTADDR_LEN );
        ; Setup parameters for call to function osal_memset
        MOV       R4,#0x8
        MOV       R5,#0x0
        MOV       R1,#-0x1
        MOV       R2,#(aliasConflictAnnce + 2) & 0xff
        MOV       R3,#((aliasConflictAnnce + 2) >> 8) & 0xff
        LCALL     `??osal_memset::?relay`; Banked call to: osal_memset
//  674       aliasConflictAnnce.capabilities = 0;
        MOV       DPTR,#aliasConflictAnnce + 10
        CLR       A
        MOVX      @DPTR,A
//  675       
//  676       annceDelay = ( osal_rand()/650 ) + 5; // ( 65535/650 = 100 ) + 5 
        ; Setup parameters for call to function osal_rand
        LCALL     `??osal_rand::?relay`; Banked call to: osal_rand
        MOV       ?V4,R2
        MOV       ?V5,R3
        MOV       R0,?V4
        MOV       R1,?V5
//  677       // where:
//  678       // 100 is Dmax
//  679       // 5   is Dmin
//  680       osal_start_timerEx( gp_TaskID, GP_PROXY_ALIAS_CONFLICT_TIMEOUT, annceDelay );
        ; Setup parameters for call to function osal_start_timerEx
        MOV       R2,#-0x76
        MOV       R3,#0x2
        LCALL     ?US_DIV_MOD
        MOV       A,R0
        ADD       A,#0x5
        MOV       ?V4,A
        CLR       A
        MOV       ?V5,A
        MOV       ?V7,A
        MOV       R0,#?V4
        LCALL     ?PUSH_XSTACK_I_FOUR
          CFI CFA_XSP16 add(XSP16, 89)
        MOV       R2,#0x10
        MOV       R3,#0x0
        MOV       DPTR,#gp_TaskID
        MOVX      A,@DPTR
        MOV       R1,A
        LCALL     `??osal_start_timerEx::?relay`; Banked call to: osal_start_timerEx
        MOV       A,#0x4
        LCALL     ?DEALLOC_XSTACK8
          CFI CFA_XSP16 add(XSP16, 85)
//  681     }
//  682 
//  683     if( sinkIEEE )
??gp_CheckAnnouncedDevice_5:
        MOV       A,#0x2
        LCALL     ?XSTACK_DISP0_8
        MOVX      A,@DPTR
        MOV       R0,A
        INC       DPTR
        MOVX      A,@DPTR
        MOV       R1,A
        MOV       A,R0
        ORL       A,R1
        JNZ       $+5
        LJMP      ??gp_CheckAnnouncedDevice_3 & 0xFFFF
//  684     {
//  685       //Check if one of the Sink IEEE is the same
//  686       if ( osal_memcmp( sinkIEEE, &ProxyTableEntry[PROXY_TBL_ENTRY_1ST_LSINK_ADDR], Z_EXTADDR_LEN ) )
        ; Setup parameters for call to function osal_memcmp
        MOV       A,#0x26
        LCALL     ?XSTACK_DISP0_8
        MOV       R1,DPL
        MOV       R2,DPH
        MOV       ?V4,R1
        MOV       ?V5,R2
        MOV       R0,#?V4
        LCALL     ?PUSH_XSTACK_I_THREE
          CFI CFA_XSP16 add(XSP16, 88)
        MOV       R4,#0x8
        MOV       R5,#0x0
        MOV       A,#0x5
        LCALL     ?XSTACK_DISP0_8
        LCALL     ?Subroutine6 & 0xFFFF
??CrossCallReturnLabel_11:
        LCALL     `??osal_memcmp::?relay`; Banked call to: osal_memcmp
        MOV       A,#0x3
        LCALL     ?DEALLOC_XSTACK8
          CFI CFA_XSP16 add(XSP16, 85)
        MOV       A,R1
        JZ        ??gp_CheckAnnouncedDevice_6
//  687       {
//  688         // If Nwk address is different, then update the new address
//  689         if ( !osal_memcmp( &sinkNwkAddr, &ProxyTableEntry[PROXY_TBL_ENTRY_1ST_LSINK_ADDR + Z_EXTADDR_LEN], sizeof( uint16 ) ) )
        ; Setup parameters for call to function osal_memcmp
        MOV       A,#0x2e
        LCALL     ?XSTACK_DISP0_8
        MOV       R1,DPL
        MOV       R2,DPH
        MOV       ?V4,R1
        MOV       ?V5,R2
        MOV       R0,#?V4
        LCALL     ?PUSH_XSTACK_I_THREE
          CFI CFA_XSP16 add(XSP16, 88)
        MOV       R4,#0x2
        MOV       R5,#0x0
        MOV       R1,?V0
        MOV       R2,?V1
        MOV       R3,?V2
        LCALL     `??osal_memcmp::?relay`; Banked call to: osal_memcmp
        MOV       A,#0x3
        LCALL     ?DEALLOC_XSTACK8
          CFI CFA_XSP16 add(XSP16, 85)
        MOV       A,R1
        JNZ       ??gp_CheckAnnouncedDevice_3
//  690         {
//  691           osal_memcpy( &ProxyTableEntry[PROXY_TBL_ENTRY_1ST_LSINK_ADDR + Z_EXTADDR_LEN], &sinkNwkAddr, sizeof( uint16 ) );
        ; Setup parameters for call to function osal_memcpy
        MOV       R0,#?V0
        LCALL     ?PUSH_XSTACK_I_THREE
          CFI CFA_XSP16 add(XSP16, 88)
        MOV       R4,#0x2
        MOV       R5,#0x0
        MOV       A,#0x31
        SJMP      ??gp_CheckAnnouncedDevice_7
          CFI CFA_XSP16 add(XSP16, 85)
//  692         }
//  693       }
//  694       else if ( osal_memcmp( sinkIEEE, &ProxyTableEntry[PROXY_TBL_ENTRY_2ND_LSINK_ADDR], Z_EXTADDR_LEN ) )
??gp_CheckAnnouncedDevice_6:
        ; Setup parameters for call to function osal_memcmp
        MOV       A,#0x30
        LCALL     ?XSTACK_DISP0_8
        MOV       R1,DPL
        MOV       R2,DPH
        MOV       ?V4,R1
        MOV       ?V5,R2
        MOV       R0,#?V4
        LCALL     ?PUSH_XSTACK_I_THREE
          CFI CFA_XSP16 add(XSP16, 88)
        MOV       R4,#0x8
        MOV       R5,#0x0
        MOV       A,#0x5
        LCALL     ?XSTACK_DISP0_8
        LCALL     ?Subroutine6 & 0xFFFF
??CrossCallReturnLabel_12:
        LCALL     `??osal_memcmp::?relay`; Banked call to: osal_memcmp
        MOV       A,#0x3
        LCALL     ?DEALLOC_XSTACK8
          CFI CFA_XSP16 add(XSP16, 85)
        MOV       A,R1
        JZ        ??gp_CheckAnnouncedDevice_3
//  695       {
//  696         // If Nwk address is different, then update the new address
//  697         if ( !osal_memcmp( &sinkNwkAddr, &ProxyTableEntry[PROXY_TBL_ENTRY_2ND_LSINK_ADDR + Z_EXTADDR_LEN], sizeof( uint16 ) ) )
        ; Setup parameters for call to function osal_memcmp
        MOV       A,#0x38
        LCALL     ?XSTACK_DISP0_8
        MOV       R1,DPL
        MOV       R2,DPH
        MOV       ?V4,R1
        MOV       ?V5,R2
        MOV       R0,#?V4
        LCALL     ?PUSH_XSTACK_I_THREE
          CFI CFA_XSP16 add(XSP16, 88)
        MOV       R4,#0x2
        MOV       R5,#0x0
        MOV       R1,?V0
        MOV       R2,?V1
        MOV       R3,?V2
        LCALL     `??osal_memcmp::?relay`; Banked call to: osal_memcmp
        MOV       A,#0x3
        LCALL     ?DEALLOC_XSTACK8
          CFI CFA_XSP16 add(XSP16, 85)
        MOV       A,R1
        JNZ       ??gp_CheckAnnouncedDevice_3
//  698         {
//  699           osal_memcpy( &ProxyTableEntry[PROXY_TBL_ENTRY_2ND_LSINK_ADDR + Z_EXTADDR_LEN], &sinkNwkAddr, sizeof( uint16 ) );
        ; Setup parameters for call to function osal_memcpy
        MOV       R0,#?V0
        LCALL     ?PUSH_XSTACK_I_THREE
          CFI CFA_XSP16 add(XSP16, 88)
        MOV       R4,#0x2
        MOV       R5,#0x0
        MOV       A,#0x3b
??gp_CheckAnnouncedDevice_7:
        LCALL     ?XSTACK_DISP0_8
        MOV       R2,DPL
        MOV       R3,DPH
        LCALL     `??osal_memcpy::?relay`; Banked call to: osal_memcpy
        MOV       A,#0x3
        LCALL     ?DEALLOC_XSTACK8
          CFI CFA_XSP16 add(XSP16, 85)
//  700         }
//  701       }
//  702     }
//  703   }
??gp_CheckAnnouncedDevice_3:
        INC       R6
        MOV       A,R6
        CLR       C
        SUBB      A,#0x6
        JNC       $+5
        LJMP      ??gp_CheckAnnouncedDevice_0 & 0xFFFF
//  704     
//  705   return ZSuccess;
        MOV       R1,#0x0
??gp_CheckAnnouncedDevice_2:
        MOV       A,#0x45
        LJMP      ?Subroutine0 & 0xFFFF
//  706 }
          CFI EndBlock cfiBlock23

        RSEG BANKED_CODE:HUGECODE:NOROOT(0)
?Subroutine6:
          CFI Block cfiCond24 Using cfiCommon0
          CFI Function gp_CheckAnnouncedDevice
          CFI Conditional ??CrossCallReturnLabel_11
          CFI R6 load(1, XDATA, add(CFA_XSP16, literal(-16)))
          CFI VB load(1, XDATA, add(CFA_XSP16, literal(-15)))
          CFI V0 load(1, XDATA, add(CFA_XSP16, literal(-14)))
          CFI V1 load(1, XDATA, add(CFA_XSP16, literal(-13)))
          CFI V2 load(1, XDATA, add(CFA_XSP16, literal(-12)))
          CFI V3 load(1, XDATA, add(CFA_XSP16, literal(-11)))
          CFI V4 load(1, XDATA, add(CFA_XSP16, literal(-10)))
          CFI V5 load(1, XDATA, add(CFA_XSP16, literal(-9)))
          CFI V6 load(1, XDATA, add(CFA_XSP16, literal(-8)))
          CFI V7 load(1, XDATA, add(CFA_XSP16, literal(-7)))
          CFI R7 load(1, XDATA, add(CFA_XSP16, literal(-6)))
          CFI ?RET_LOW load(1, XDATA, add(CFA_XSP16, literal(-5)))
          CFI ?RET_HIGH load(1, XDATA, add(CFA_XSP16, literal(-4)))
          CFI ?BRET_EXT load(1, XDATA, add(CFA_XSP16, literal(-3)))
          CFI DPL0 load(1, XDATA, add(CFA_XSP16, literal(-2)))
          CFI DPH0 load(1, XDATA, add(CFA_XSP16, literal(-1)))
          CFI CFA_SP SP+-2
          CFI CFA_XSP16 add(XSP16, 88)
          CFI Block cfiCond25 Using cfiCommon0
          CFI (cfiCond25) Function gp_CheckAnnouncedDevice
          CFI (cfiCond25) Conditional ??CrossCallReturnLabel_12
          CFI (cfiCond25) R6 load(1, XDATA, add(CFA_XSP16, literal(-16)))
          CFI (cfiCond25) VB load(1, XDATA, add(CFA_XSP16, literal(-15)))
          CFI (cfiCond25) V0 load(1, XDATA, add(CFA_XSP16, literal(-14)))
          CFI (cfiCond25) V1 load(1, XDATA, add(CFA_XSP16, literal(-13)))
          CFI (cfiCond25) V2 load(1, XDATA, add(CFA_XSP16, literal(-12)))
          CFI (cfiCond25) V3 load(1, XDATA, add(CFA_XSP16, literal(-11)))
          CFI (cfiCond25) V4 load(1, XDATA, add(CFA_XSP16, literal(-10)))
          CFI (cfiCond25) V5 load(1, XDATA, add(CFA_XSP16, literal(-9)))
          CFI (cfiCond25) V6 load(1, XDATA, add(CFA_XSP16, literal(-8)))
          CFI (cfiCond25) V7 load(1, XDATA, add(CFA_XSP16, literal(-7)))
          CFI (cfiCond25) R7 load(1, XDATA, add(CFA_XSP16, literal(-6)))
          CFI (cfiCond25) ?RET_LOW load(1, XDATA, add(CFA_XSP16, literal(-5)))
          CFI (cfiCond25) ?RET_HIGH load(1, XDATA, add(CFA_XSP16, literal(-4)))
          CFI (cfiCond25) ?BRET_EXT load(1, XDATA, add(CFA_XSP16, literal(-3)))
          CFI (cfiCond25) DPL0 load(1, XDATA, add(CFA_XSP16, literal(-2)))
          CFI (cfiCond25) DPH0 load(1, XDATA, add(CFA_XSP16, literal(-1)))
          CFI (cfiCond25) CFA_SP SP+-2
          CFI (cfiCond25) CFA_XSP16 add(XSP16, 88)
          CFI Block cfiPicker26 Using cfiCommon1
          CFI (cfiPicker26) NoFunction
          CFI (cfiPicker26) Picker
        MOVX      A,@DPTR
        MOV       R0,A
        INC       DPTR
        MOVX      A,@DPTR
        MOV       DPH,A
        MOV       DPL,R0
        MOV       R1,DPL
        MOV       R2,DPH
        MOV       R3,#0x0
        RET
          CFI EndBlock cfiCond24
          CFI EndBlock cfiCond25
          CFI EndBlock cfiPicker26
//  707 
//  708  /*********************************************************************
//  709  * PRIVATE FUNCTIONS
//  710  *********************************************************************/
//  711 
//  712 /*********************************************************************
//  713  * @fn          gp_PopulateProxyTblEntry
//  714  *
//  715  * @brief       Populate the given item data
//  716  *
//  717  * @param       pData - Pointer to the new data
//  718  *              size - size of the new data
//  719  *              pTblEntryVector - Pointer to the new vector
//  720  *              vectorLen - Position in the vector to write the data
//  721  *
//  722  * @return
//  723  */

        RSEG BANKED_CODE:HUGECODE:NOROOT(0)
//  724 static void gp_PopulateProxyTblEntry( uint8* pData, uint8 size, uint8* pTblEntryVector, uint8* vectorLen )
gp_PopulateProxyTblEntry:
          CFI Block cfiBlock27 Using cfiCommon0
          CFI Function gp_PopulateProxyTblEntry
        CODE
//  725 {
        FUNCALL gp_PopulateProxyTblEntry, osal_memcpy
        LOCFRAME ISTACK, 0, STACK
        LOCFRAME PSTACK, 0, STACK
        LOCFRAME XSTACK, 15, STACK
        LOCFRAME IOVERLAY, 0, STATIC
        LOCFRAME DOVERLAY, 0, STATIC
        ARGFRAME ISTACK, 0, STACK
        ARGFRAME PSTACK, 0, STACK
        ARGFRAME XSTACK, 15, STACK
        ARGFRAME IOVERLAY, 0, STATIC
        ARGFRAME DOVERLAY, 0, STATIC
        REQUIRE ?V0
        REQUIRE ?V1
        REQUIRE ?V2
        REQUIRE ?V3
        MOV       A,#-0xc
        LCALL     ?BANKED_ENTER_XDATA
          CFI DPH0 load(1, XDATA, add(CFA_XSP16, literal(-1)))
          CFI DPL0 load(1, XDATA, add(CFA_XSP16, literal(-2)))
          CFI ?BRET_EXT load(1, XDATA, add(CFA_XSP16, literal(-3)))
          CFI ?RET_HIGH load(1, XDATA, add(CFA_XSP16, literal(-4)))
          CFI ?RET_LOW load(1, XDATA, add(CFA_XSP16, literal(-5)))
          CFI R7 load(1, XDATA, add(CFA_XSP16, literal(-6)))
          CFI V3 load(1, XDATA, add(CFA_XSP16, literal(-7)))
          CFI V2 load(1, XDATA, add(CFA_XSP16, literal(-8)))
          CFI V1 load(1, XDATA, add(CFA_XSP16, literal(-9)))
          CFI V0 load(1, XDATA, add(CFA_XSP16, literal(-10)))
          CFI VB load(1, XDATA, add(CFA_XSP16, literal(-11)))
          CFI R6 load(1, XDATA, add(CFA_XSP16, literal(-12)))
          CFI CFA_SP SP+0
          CFI CFA_XSP16 add(XSP16, 12)
        ; Saved register size: 12
        ; Auto size: 0
        MOV       ?V0,R2
        MOV       ?V1,R3
        MOV       ?V3,R1
        MOV       A,R4
        MOV       R2,A
        MOV       A,R5
        MOV       R3,A
        MOV       A,#0xc
        LCALL     ?XSTACK_DISP0_8
        MOVX      A,@DPTR
        MOV       R6,A
        INC       DPTR
        MOVX      A,@DPTR
        MOV       R7,A
//  726   pTblEntryVector += *(uint8*)vectorLen;
//  727   
//  728   osal_memcpy( pTblEntryVector, pData, size );
        ; Setup parameters for call to function osal_memcpy
        MOV       ?V2,#0x0
        MOV       R0,#?V0
        LCALL     ?PUSH_XSTACK_I_THREE
          CFI CFA_XSP16 add(XSP16, 15)
        MOV       R4,?V3
        MOV       R5,#0x0
        MOV       DPL,R6
        MOV       DPH,R7
        MOVX      A,@DPTR
        MOV       R0,A
        MOV       A,R2
        ADD       A,R0
        MOV       R2,A
        CLR       A
        ADDC      A,R3
        MOV       R3,A
        LCALL     `??osal_memcpy::?relay`; Banked call to: osal_memcpy
        MOV       A,#0x3
        LCALL     ?DEALLOC_XSTACK8
          CFI CFA_XSP16 add(XSP16, 12)
//  729   *(uint8*)vectorLen += size;
        MOV       DPL,R6
        MOV       DPH,R7
        MOVX      A,@DPTR
        ADD       A,?V3
        MOVX      @DPTR,A
//  730 }
        LJMP      ?Subroutine1 & 0xFFFF
          CFI EndBlock cfiBlock27
//  731 
//  732 /*********************************************************************
//  733  * @fn          pt_getAlias
//  734  *
//  735  * @brief       Get Bit to update assigned alias field or not
//  736  *
//  737  * @param       pNew - New entry array to be added
//  738  *
//  739  * @return      newAlias - TRUE if assigned alias bit is set
//  740  */
//  741 static uint8 pt_getAlias( uint8* pNew )
//  742 {
//  743   bool newAlias;
//  744   
//  745   newAlias = PROXY_TBL_GET_ASSIGNED_ALIAS( pNew[PROXY_TBL_ENTRY_OPT + 1] );
//  746   
//  747   return newAlias;
//  748 }
//  749 
//  750 /*********************************************************************
//  751  * @fn          pt_getSecurity
//  752  *
//  753  * @brief       Get Bit to update security options field or not
//  754  *
//  755  * @param       pNew - New entry array to be added
//  756  *
//  757  * @return      secUse - TRUE if security use bit is set
//  758  */
//  759 static uint8 pt_getSecurity( uint8* pNew )
//  760 {
//  761   bool secUse;
//  762   
//  763   secUse = PROXY_TBL_GET_SEC_USE( pNew[PROXY_TBL_ENTRY_OPT + 1] );
//  764 
//  765   return secUse;
//  766 }
//  767 
//  768 /*********************************************************************
//  769  * @fn          pt_getSecFrameCounterCapabilities
//  770  *
//  771  * @brief       Get Bit to update security frame counter capabilities
//  772  *
//  773  * @param       pNew - New entry array to be added
//  774  *
//  775  * @return      secCap - TRUE if security frame counter capabilities bit is set
//  776  */
//  777 static uint8 pt_getSecFrameCounterCapabilities( uint8* pNew )
//  778 {
//  779   bool secCap;
//  780   
//  781   secCap = PROXY_TBL_GET_SEC_CAP( pNew[PROXY_TBL_ENTRY_OPT] );
//  782   
//  783   return secCap;
//  784 }
//  785 
//  786 /*********************************************************************
//  787  * @fn          pt_updateLightweightUnicastSink
//  788  *
//  789  * @brief       To add new sink entry
//  790  *
//  791  * @param       pNew - New entry array to be added
//  792  *              pCurr - The current entry array in the proxy table
//  793  *
//  794  * @return      TRUE new entry added, FALSE if not
//  795  */

        RSEG BANKED_CODE:HUGECODE:NOROOT(0)
//  796 static uint8 pt_updateLightweightUnicastSink( uint8* pNew, uint8* pCurr, uint8 addSink )
pt_updateLightweightUnicastSink:
          CFI Block cfiBlock28 Using cfiCommon0
          CFI Function pt_updateLightweightUnicastSink
        CODE
//  797 {
        FUNCALL pt_updateLightweightUnicastSink, osal_memcpy
        LOCFRAME ISTACK, 0, STACK
        LOCFRAME PSTACK, 0, STACK
        LOCFRAME XSTACK, 169, STACK
        LOCFRAME IOVERLAY, 0, STATIC
        LOCFRAME DOVERLAY, 0, STATIC
        ARGFRAME ISTACK, 0, STACK
        ARGFRAME PSTACK, 0, STACK
        ARGFRAME XSTACK, 169, STACK
        ARGFRAME IOVERLAY, 0, STATIC
        ARGFRAME DOVERLAY, 0, STATIC
        FUNCALL pt_updateLightweightUnicastSink, osal_memcpy
        LOCFRAME ISTACK, 0, STACK
        LOCFRAME PSTACK, 0, STACK
        LOCFRAME XSTACK, 169, STACK
        LOCFRAME IOVERLAY, 0, STATIC
        LOCFRAME DOVERLAY, 0, STATIC
        ARGFRAME ISTACK, 0, STACK
        ARGFRAME PSTACK, 0, STACK
        ARGFRAME XSTACK, 169, STACK
        ARGFRAME IOVERLAY, 0, STATIC
        ARGFRAME DOVERLAY, 0, STATIC
        FUNCALL pt_updateLightweightUnicastSink, osal_memcmp
        LOCFRAME ISTACK, 0, STACK
        LOCFRAME PSTACK, 0, STACK
        LOCFRAME XSTACK, 169, STACK
        LOCFRAME IOVERLAY, 0, STATIC
        LOCFRAME DOVERLAY, 0, STATIC
        ARGFRAME ISTACK, 0, STACK
        ARGFRAME PSTACK, 0, STACK
        ARGFRAME XSTACK, 169, STACK
        ARGFRAME IOVERLAY, 0, STATIC
        ARGFRAME DOVERLAY, 0, STATIC
        FUNCALL pt_updateLightweightUnicastSink, osal_memcmp
        LOCFRAME ISTACK, 0, STACK
        LOCFRAME PSTACK, 0, STACK
        LOCFRAME XSTACK, 169, STACK
        LOCFRAME IOVERLAY, 0, STATIC
        LOCFRAME DOVERLAY, 0, STATIC
        ARGFRAME ISTACK, 0, STACK
        ARGFRAME PSTACK, 0, STACK
        ARGFRAME XSTACK, 169, STACK
        ARGFRAME IOVERLAY, 0, STATIC
        ARGFRAME DOVERLAY, 0, STATIC
        FUNCALL pt_updateLightweightUnicastSink, osal_memcpy
        LOCFRAME ISTACK, 0, STACK
        LOCFRAME PSTACK, 0, STACK
        LOCFRAME XSTACK, 169, STACK
        LOCFRAME IOVERLAY, 0, STATIC
        LOCFRAME DOVERLAY, 0, STATIC
        ARGFRAME ISTACK, 0, STACK
        ARGFRAME PSTACK, 0, STACK
        ARGFRAME XSTACK, 169, STACK
        ARGFRAME IOVERLAY, 0, STATIC
        ARGFRAME DOVERLAY, 0, STATIC
        FUNCALL pt_updateLightweightUnicastSink, osal_memcmp
        LOCFRAME ISTACK, 0, STACK
        LOCFRAME PSTACK, 0, STACK
        LOCFRAME XSTACK, 169, STACK
        LOCFRAME IOVERLAY, 0, STATIC
        LOCFRAME DOVERLAY, 0, STATIC
        ARGFRAME ISTACK, 0, STACK
        ARGFRAME PSTACK, 0, STACK
        ARGFRAME XSTACK, 169, STACK
        ARGFRAME IOVERLAY, 0, STATIC
        ARGFRAME DOVERLAY, 0, STATIC
        FUNCALL pt_updateLightweightUnicastSink, osal_memcmp
        LOCFRAME ISTACK, 0, STACK
        LOCFRAME PSTACK, 0, STACK
        LOCFRAME XSTACK, 169, STACK
        LOCFRAME IOVERLAY, 0, STATIC
        LOCFRAME DOVERLAY, 0, STATIC
        ARGFRAME ISTACK, 0, STACK
        ARGFRAME PSTACK, 0, STACK
        ARGFRAME XSTACK, 169, STACK
        ARGFRAME IOVERLAY, 0, STATIC
        ARGFRAME DOVERLAY, 0, STATIC
        FUNCALL pt_updateLightweightUnicastSink, osal_memcpy
        LOCFRAME ISTACK, 0, STACK
        LOCFRAME PSTACK, 0, STACK
        LOCFRAME XSTACK, 169, STACK
        LOCFRAME IOVERLAY, 0, STATIC
        LOCFRAME DOVERLAY, 0, STATIC
        ARGFRAME ISTACK, 0, STACK
        ARGFRAME PSTACK, 0, STACK
        ARGFRAME XSTACK, 169, STACK
        ARGFRAME IOVERLAY, 0, STATIC
        ARGFRAME DOVERLAY, 0, STATIC
        FUNCALL pt_updateLightweightUnicastSink, osal_memcpy
        LOCFRAME ISTACK, 0, STACK
        LOCFRAME PSTACK, 0, STACK
        LOCFRAME XSTACK, 169, STACK
        LOCFRAME IOVERLAY, 0, STATIC
        LOCFRAME DOVERLAY, 0, STATIC
        ARGFRAME ISTACK, 0, STACK
        ARGFRAME PSTACK, 0, STACK
        ARGFRAME XSTACK, 169, STACK
        ARGFRAME IOVERLAY, 0, STATIC
        ARGFRAME DOVERLAY, 0, STATIC
        FUNCALL pt_updateLightweightUnicastSink, osal_memcmp
        LOCFRAME ISTACK, 0, STACK
        LOCFRAME PSTACK, 0, STACK
        LOCFRAME XSTACK, 169, STACK
        LOCFRAME IOVERLAY, 0, STATIC
        LOCFRAME DOVERLAY, 0, STATIC
        ARGFRAME ISTACK, 0, STACK
        ARGFRAME PSTACK, 0, STACK
        ARGFRAME XSTACK, 169, STACK
        ARGFRAME IOVERLAY, 0, STATIC
        ARGFRAME DOVERLAY, 0, STATIC
        FUNCALL pt_updateLightweightUnicastSink, gp_ResetProxyBasicTblEntry
        LOCFRAME ISTACK, 0, STACK
        LOCFRAME PSTACK, 0, STACK
        LOCFRAME XSTACK, 166, STACK
        LOCFRAME IOVERLAY, 0, STATIC
        LOCFRAME DOVERLAY, 0, STATIC
        ARGFRAME ISTACK, 0, STACK
        ARGFRAME PSTACK, 0, STACK
        ARGFRAME XSTACK, 166, STACK
        ARGFRAME IOVERLAY, 0, STATIC
        ARGFRAME DOVERLAY, 0, STATIC
        FUNCALL pt_updateLightweightUnicastSink, osal_memcpy
        LOCFRAME ISTACK, 0, STACK
        LOCFRAME PSTACK, 0, STACK
        LOCFRAME XSTACK, 169, STACK
        LOCFRAME IOVERLAY, 0, STATIC
        LOCFRAME DOVERLAY, 0, STATIC
        ARGFRAME ISTACK, 0, STACK
        ARGFRAME PSTACK, 0, STACK
        ARGFRAME XSTACK, 169, STACK
        ARGFRAME IOVERLAY, 0, STATIC
        ARGFRAME DOVERLAY, 0, STATIC
        FUNCALL pt_updateLightweightUnicastSink, osal_memcmp
        LOCFRAME ISTACK, 0, STACK
        LOCFRAME PSTACK, 0, STACK
        LOCFRAME XSTACK, 169, STACK
        LOCFRAME IOVERLAY, 0, STATIC
        LOCFRAME DOVERLAY, 0, STATIC
        ARGFRAME ISTACK, 0, STACK
        ARGFRAME PSTACK, 0, STACK
        ARGFRAME XSTACK, 169, STACK
        ARGFRAME IOVERLAY, 0, STATIC
        ARGFRAME DOVERLAY, 0, STATIC
        FUNCALL pt_updateLightweightUnicastSink, osal_memcpy
        LOCFRAME ISTACK, 0, STACK
        LOCFRAME PSTACK, 0, STACK
        LOCFRAME XSTACK, 169, STACK
        LOCFRAME IOVERLAY, 0, STATIC
        LOCFRAME DOVERLAY, 0, STATIC
        ARGFRAME ISTACK, 0, STACK
        ARGFRAME PSTACK, 0, STACK
        ARGFRAME XSTACK, 169, STACK
        ARGFRAME IOVERLAY, 0, STATIC
        ARGFRAME DOVERLAY, 0, STATIC
        REQUIRE ?V0
        REQUIRE ?V1
        REQUIRE ?V2
        REQUIRE ?V4
        REQUIRE ?V5
        REQUIRE ?V6
        MOV       A,#-0xf
        LCALL     ?BANKED_ENTER_XDATA
          CFI DPH0 load(1, XDATA, add(CFA_XSP16, literal(-1)))
          CFI DPL0 load(1, XDATA, add(CFA_XSP16, literal(-2)))
          CFI ?BRET_EXT load(1, XDATA, add(CFA_XSP16, literal(-3)))
          CFI ?RET_HIGH load(1, XDATA, add(CFA_XSP16, literal(-4)))
          CFI ?RET_LOW load(1, XDATA, add(CFA_XSP16, literal(-5)))
          CFI R7 load(1, XDATA, add(CFA_XSP16, literal(-6)))
          CFI V6 load(1, XDATA, add(CFA_XSP16, literal(-7)))
          CFI V5 load(1, XDATA, add(CFA_XSP16, literal(-8)))
          CFI V4 load(1, XDATA, add(CFA_XSP16, literal(-9)))
          CFI V3 load(1, XDATA, add(CFA_XSP16, literal(-10)))
          CFI V2 load(1, XDATA, add(CFA_XSP16, literal(-11)))
          CFI V1 load(1, XDATA, add(CFA_XSP16, literal(-12)))
          CFI V0 load(1, XDATA, add(CFA_XSP16, literal(-13)))
          CFI VB load(1, XDATA, add(CFA_XSP16, literal(-14)))
          CFI R6 load(1, XDATA, add(CFA_XSP16, literal(-15)))
          CFI CFA_SP SP+0
          CFI CFA_XSP16 add(XSP16, 15)
        ; Saved register size: 15
        ; Auto size: 151
        MOV       A,#0x69
        LCALL     ?ALLOC_XSTACK8
          CFI CFA_XSP16 add(XSP16, 166)
        MOV       A,#0x6
        LCALL     ?XSTACK_DISP0_8
        MOV       A,R4
        MOVX      @DPTR,A
        INC       DPTR
        MOV       A,R5
        MOVX      @DPTR,A
        MOV       A,R1
        MOV       R6,A
//  798   uint8 newEntry[PROXY_TBL_ENTRY_LEN] = PROXY_BASIC_TBL_EMPTY_ENTRY;
        MOV       DPTR,#`?<Constant {255, 255, 255, 255, 255, 255, 255,_6`
        MOV       A,#0x56
        LCALL     ?XSTACK_DISP102_8
        MOV       A,#0x41
        LCALL     ?MOVE_LONG8_XDATA_XDATA
//  799   uint8 currEntry[PROXY_TBL_ENTRY_LEN] = PROXY_BASIC_TBL_EMPTY_ENTRY;
        MOV       DPTR,#`?<Constant {255, 255, 255, 255, 255, 255, 255,_7`
        MOV       A,#0x15
        LCALL     ?XSTACK_DISP102_8
        MOV       A,#0x41
        LCALL     ?MOVE_LONG8_XDATA_XDATA
//  800   uint8 freeSinkEntry[LSINK_ADDR_LEN] = {0xFF, 0xFF, 0xFF, 0xFF, 0xFF, 0xFF, 0xFF, 0xFF, 0xFF, 0xFF};
        MOV       DPTR,#`?<Constant {255, 255, 255, 255, 255, 255, 255,_8`
        MOV       A,#0xb
        LCALL     ?XSTACK_DISP102_8
        MOV       A,#0xa
        LCALL     ?MOVE_LONG8_XDATA_XDATA
//  801   
//  802   osal_memcpy( &newEntry, pNew, PROXY_TBL_ENTRY_LEN );
        ; Setup parameters for call to function osal_memcpy
        MOV       ?V0,R2
        MOV       ?V1,R3
        MOV       ?V2,A
        MOV       R0,#?V0
        LCALL     ?PUSH_XSTACK_I_THREE
          CFI CFA_XSP16 add(XSP16, 169)
        MOV       R4,#0x41
        MOV       R5,#0x0
        MOV       A,#0x59
        LCALL     ?XSTACK_DISP101_8
        LCALL     `??osal_memcpy::?relay`; Banked call to: osal_memcpy
        MOV       A,#0x3
        LCALL     ?DEALLOC_XSTACK8
          CFI CFA_XSP16 add(XSP16, 166)
//  803   osal_memcpy( &currEntry, pCurr, PROXY_TBL_ENTRY_LEN );
        ; Setup parameters for call to function osal_memcpy
        MOV       A,#0x6
        LCALL     ?XSTACK_DISP0_8
        MOVX      A,@DPTR
        MOV       ?V0,A
        INC       DPTR
        MOVX      A,@DPTR
        MOV       ?V1,A
        MOV       R0,#?V0
        LCALL     ?PUSH_XSTACK_I_THREE
          CFI CFA_XSP16 add(XSP16, 169)
        MOV       R4,#0x41
        MOV       R5,#0x0
        MOV       A,#0x18
        LCALL     ?XSTACK_DISP101_8
        LCALL     `??osal_memcpy::?relay`; Banked call to: osal_memcpy
        MOV       A,#0x3
        LCALL     ?DEALLOC_XSTACK8
          CFI CFA_XSP16 add(XSP16, 166)
//  804   
//  805   
//  806   // if addSink is TRUE then add the sink to current entry
//  807   if ( addSink ) 
        MOV       A,#0x41
        LCALL     ?XSTACK_DISP0_8
        MOV       R1,DPL
        MOV       R2,DPH
        MOV       A,#0x3
        LCALL     ?XSTACK_DISP0_8
        MOV       A,R1
        MOVX      @DPTR,A
        INC       DPTR
        MOV       A,R2
        MOVX      @DPTR,A
        INC       DPTR
        CLR       A
        MOVX      @DPTR,A
        MOV       A,#0x37
        LCALL     ?XSTACK_DISP0_8
        MOV       R1,DPL
        MOV       R2,DPH
        MOV       A,#0x8
        LCALL     ?XSTACK_DISP0_8
        MOV       A,R1
        MOVX      @DPTR,A
        INC       DPTR
        MOV       A,R2
        MOVX      @DPTR,A
        INC       DPTR
        CLR       A
        MOVX      @DPTR,A
        MOV       A,#0x78
        LCALL     ?XSTACK_DISP0_8
        MOV       R1,DPL
        MOV       R2,DPH
        MOV       ?V0,R1
        MOV       ?V1,R2
        MOV       A,#0xb
        LCALL     ?XSTACK_DISP100_8
        MOV       DPL,?XSP + 0
        MOV       DPH,?XSP + 1
        MOV       A,R0
        MOVX      @DPTR,A
        INC       DPTR
        MOV       A,R1
        MOVX      @DPTR,A
        INC       DPTR
        CLR       A
        MOVX      @DPTR,A
        MOV       A,R6
        MOV       R0,#?V0
        JZ        ??pt_updateLightweightUnicastSink_0
//  808   {
//  809     // if the incomming Sink entry is different to the current entry
//  810     if ( !osal_memcmp( &currEntry[PROXY_TBL_ENTRY_1ST_LSINK_ADDR], &newEntry[PROXY_TBL_ENTRY_1ST_LSINK_ADDR], LSINK_ADDR_LEN ) )
        ; Setup parameters for call to function osal_memcmp
        LCALL     ?PUSH_XSTACK_I_THREE
          CFI CFA_XSP16 add(XSP16, 169)
        MOV       R4,#0xa
        MOV       R5,#0x0
        MOV       A,#0xb
        LCALL     ?XSTACK_DISP0_8
        LCALL     ?Subroutine5 & 0xFFFF
??CrossCallReturnLabel_5:
        LCALL     `??osal_memcmp::?relay`; Banked call to: osal_memcmp
        MOV       A,#0x3
        LCALL     ?DEALLOC_XSTACK8
          CFI CFA_XSP16 add(XSP16, 166)
        MOV       A,R1
        JZ        $+5
        LJMP      ??pt_updateLightweightUnicastSink_1 & 0xFFFF
//  811     {
//  812       // add the sink entry in the next slot if empty
//  813       if ( osal_memcmp( freeSinkEntry, &currEntry[PROXY_TBL_ENTRY_2ND_LSINK_ADDR], LSINK_ADDR_LEN ) )
        ; Setup parameters for call to function osal_memcmp
        MOV       A,#0x3
        LCALL     ?XSTACK_DISP0_8
        LCALL     ?PUSH_XSTACK8_X_THREE
          CFI CFA_XSP16 add(XSP16, 169)
        MOV       R4,#0xa
        MOV       R5,#0x0
        MOV       A,#0x3
        LCALL     ?XSTACK_DISP0_8
        LCALL     ?Subroutine5 & 0xFFFF
??CrossCallReturnLabel_6:
        LCALL     `??osal_memcmp::?relay`; Banked call to: osal_memcmp
        MOV       A,#0x3
        LCALL     ?DEALLOC_XSTACK8
          CFI CFA_XSP16 add(XSP16, 166)
        MOV       A,R1
        MOV       R0,#?V0
        JZ        ??pt_updateLightweightUnicastSink_2
//  814       {
//  815         osal_memcpy( &currEntry[PROXY_TBL_ENTRY_2ND_LSINK_ADDR], &newEntry[PROXY_TBL_ENTRY_1ST_LSINK_ADDR], LSINK_ADDR_LEN );
        ; Setup parameters for call to function osal_memcpy
        LCALL     ?PUSH_XSTACK_I_THREE
          CFI CFA_XSP16 add(XSP16, 169)
        LJMP      ??pt_updateLightweightUnicastSink_3 & 0xFFFF
          CFI CFA_XSP16 add(XSP16, 166)
//  816         osal_memcpy( pCurr, &currEntry, PROXY_TBL_ENTRY_LEN );
//  817         return TRUE;
//  818       }
//  819     }
//  820     else 
//  821     {
//  822       osal_memcpy( pCurr, &currEntry, PROXY_TBL_ENTRY_LEN );
//  823      return TRUE;
//  824     }
//  825     // if the incomming Sink entry is different to the current entry
//  826     if ( !osal_memcmp( &currEntry[PROXY_TBL_ENTRY_2ND_LSINK_ADDR], &newEntry[PROXY_TBL_ENTRY_1ST_LSINK_ADDR], LSINK_ADDR_LEN ) )
??pt_updateLightweightUnicastSink_2:
        ; Setup parameters for call to function osal_memcmp
        LCALL     ?PUSH_XSTACK_I_THREE
          CFI CFA_XSP16 add(XSP16, 169)
        MOV       R4,#0xa
        MOV       R5,#0x0
        MOV       A,#0x6
        LCALL     ?XSTACK_DISP0_8
        LCALL     ?Subroutine5 & 0xFFFF
//  827     {
//  828       return FALSE;
//  829     }
//  830   }
??CrossCallReturnLabel_7:
        LCALL     `??osal_memcmp::?relay`; Banked call to: osal_memcmp
        MOV       A,#0x3
        LCALL     ?DEALLOC_XSTACK8
          CFI CFA_XSP16 add(XSP16, 166)
//  831   else
//  832   {
//  833     // if the incomming Sink entry is the same to the current entry
//  834     if ( osal_memcmp( &currEntry[PROXY_TBL_ENTRY_1ST_LSINK_ADDR], &newEntry[PROXY_TBL_ENTRY_1ST_LSINK_ADDR], LSINK_ADDR_LEN ) )
//  835     {
//  836       // Move the next sink entry to current
//  837       osal_memcpy( &currEntry[PROXY_TBL_ENTRY_1ST_LSINK_ADDR], &currEntry[PROXY_TBL_ENTRY_2ND_LSINK_ADDR], LSINK_ADDR_LEN );
//  838       // Invalidate the sink entry
//  839       osal_memcpy( &currEntry[PROXY_TBL_ENTRY_2ND_LSINK_ADDR], freeSinkEntry, LSINK_ADDR_LEN );
//  840       
//  841       // if the sink entry is empty then remove the proxy table entry
//  842       if ( osal_memcmp( freeSinkEntry, &currEntry[PROXY_TBL_ENTRY_1ST_LSINK_ADDR], LSINK_ADDR_LEN ) )
//  843       {
//  844         gp_ResetProxyBasicTblEntry( currEntry );
//  845       }
//  846       osal_memcpy( pCurr, &currEntry, PROXY_TBL_ENTRY_LEN );
//  847       return TRUE;
//  848     }
//  849     // if the incomming Sink entry is the same to the current entry
//  850     else if ( osal_memcmp( &currEntry[PROXY_TBL_ENTRY_2ND_LSINK_ADDR], &newEntry[PROXY_TBL_ENTRY_1ST_LSINK_ADDR], LSINK_ADDR_LEN ) )
//  851     {
//  852       // Invalidate the sink entry
//  853       osal_memcpy( &currEntry[PROXY_TBL_ENTRY_2ND_LSINK_ADDR], freeSinkEntry, LSINK_ADDR_LEN );
//  854       osal_memcpy( pCurr, &currEntry, PROXY_TBL_ENTRY_LEN );
//  855       return TRUE;
//  856     }
//  857   }
//  858   return FALSE;
??pt_updateLightweightUnicastSink_4:
        MOV       R1,#0x0
??pt_updateLightweightUnicastSink_5:
        MOV       A,#-0x69
        LJMP      ?Subroutine2 & 0xFFFF
??pt_updateLightweightUnicastSink_0:
        ; Setup parameters for call to function osal_memcmp
        LCALL     ?PUSH_XSTACK_I_THREE
          CFI CFA_XSP16 add(XSP16, 169)
        MOV       R4,#0xa
        MOV       R5,#0x0
        MOV       A,#0xb
        LCALL     ?XSTACK_DISP0_8
        LCALL     ?Subroutine5 & 0xFFFF
??CrossCallReturnLabel_8:
        LCALL     `??osal_memcmp::?relay`; Banked call to: osal_memcmp
        MOV       A,#0x3
        LCALL     ?DEALLOC_XSTACK8
          CFI CFA_XSP16 add(XSP16, 166)
        MOV       A,R1
        JNZ       $+5
        LJMP      ??pt_updateLightweightUnicastSink_6 & 0xFFFF
        ; Setup parameters for call to function osal_memcpy
        MOV       A,#0x3
        LCALL     ?XSTACK_DISP0_8
        LCALL     ?PUSH_XSTACK8_X_THREE
          CFI CFA_XSP16 add(XSP16, 169)
        MOV       R4,#0xa
        MOV       R5,#0x0
        MOV       A,#0x3a
        LCALL     ?XSTACK_DISP0_8
        MOV       R2,DPL
        MOV       R3,DPH
        LCALL     `??osal_memcpy::?relay`; Banked call to: osal_memcpy
        MOV       A,#0x3
        LCALL     ?DEALLOC_XSTACK8
          CFI CFA_XSP16 add(XSP16, 166)
        ; Setup parameters for call to function osal_memcpy
        MOV       DPL,?XSP + 0
        MOV       DPH,?XSP + 1
        LCALL     ?PUSH_XSTACK8_X_THREE
          CFI CFA_XSP16 add(XSP16, 169)
        MOV       R4,#0xa
        MOV       R5,#0x0
        MOV       A,#0x44
        LCALL     ?XSTACK_DISP0_8
        MOV       R2,DPL
        MOV       R3,DPH
        LCALL     `??osal_memcpy::?relay`; Banked call to: osal_memcpy
        MOV       A,#0x3
        LCALL     ?DEALLOC_XSTACK8
          CFI CFA_XSP16 add(XSP16, 166)
        ; Setup parameters for call to function osal_memcmp
        MOV       A,#0x8
        LCALL     ?XSTACK_DISP0_8
        LCALL     ?PUSH_XSTACK8_X_THREE
          CFI CFA_XSP16 add(XSP16, 169)
        MOV       R4,#0xa
        MOV       R5,#0x0
        MOV       A,#0x3
        LCALL     ?XSTACK_DISP0_8
        LCALL     ?Subroutine5 & 0xFFFF
??CrossCallReturnLabel_9:
        LCALL     `??osal_memcmp::?relay`; Banked call to: osal_memcmp
        MOV       A,#0x3
        LCALL     ?DEALLOC_XSTACK8
          CFI CFA_XSP16 add(XSP16, 166)
        MOV       A,R1
        JZ        ??pt_updateLightweightUnicastSink_1
        ; Setup parameters for call to function gp_ResetProxyBasicTblEntry
        MOV       A,#0x15
        LCALL     ?XSTACK_DISP101_8
        LCALL     `??gp_ResetProxyBasicTblEntry::?relay`; Banked call to: gp_ResetProxyBasicTblEntry
??pt_updateLightweightUnicastSink_1:
        ; Setup parameters for call to function osal_memcpy
        MOV       A,#0x15
        LCALL     ?XSTACK_DISP100_8
        MOV       ?V0,R0
        MOV       ?V1,R1
        MOV       R0,#?V0
        LCALL     ?PUSH_XSTACK_I_THREE
          CFI CFA_XSP16 add(XSP16, 169)
        MOV       R4,#0x41
        MOV       R5,#0x0
        MOV       A,#0x9
        LCALL     ?XSTACK_DISP0_8
        LCALL     ?Subroutine9 & 0xFFFF
??CrossCallReturnLabel_20:
        LCALL     `??osal_memcpy::?relay`; Banked call to: osal_memcpy
        MOV       A,#0x3
        LCALL     ?DEALLOC_XSTACK8
          CFI CFA_XSP16 add(XSP16, 166)
        MOV       R1,#0x1
        LJMP      ??pt_updateLightweightUnicastSink_5 & 0xFFFF
??pt_updateLightweightUnicastSink_6:
        ; Setup parameters for call to function osal_memcmp
        MOV       R0,#?V0
        LCALL     ?PUSH_XSTACK_I_THREE
          CFI CFA_XSP16 add(XSP16, 169)
        MOV       R4,#0xa
        MOV       R5,#0x0
        MOV       A,#0x6
        LCALL     ?XSTACK_DISP0_8
        LCALL     ?Subroutine5 & 0xFFFF
??CrossCallReturnLabel_10:
        LCALL     `??osal_memcmp::?relay`; Banked call to: osal_memcmp
        MOV       A,#0x3
        LCALL     ?DEALLOC_XSTACK8
          CFI CFA_XSP16 add(XSP16, 166)
        MOV       A,R1
        JNZ       $+5
        LJMP      ??pt_updateLightweightUnicastSink_4 & 0xFFFF
        ; Setup parameters for call to function osal_memcpy
        MOV       DPL,?XSP + 0
        MOV       DPH,?XSP + 1
        LCALL     ?PUSH_XSTACK8_X_THREE
          CFI CFA_XSP16 add(XSP16, 169)
??pt_updateLightweightUnicastSink_3:
        MOV       R4,#0xa
        MOV       R5,#0x0
        MOV       A,#0x44
        LCALL     ?XSTACK_DISP0_8
        MOV       R2,DPL
        MOV       R3,DPH
        LCALL     `??osal_memcpy::?relay`; Banked call to: osal_memcpy
        MOV       A,#0x3
        LCALL     ?DEALLOC_XSTACK8
          CFI CFA_XSP16 add(XSP16, 166)
        SJMP      ??pt_updateLightweightUnicastSink_1
//  859 }
          CFI EndBlock cfiBlock28

        RSEG BANKED_CODE:HUGECODE:NOROOT(0)
?Subroutine5:
          CFI Block cfiCond29 Using cfiCommon0
          CFI Function pt_updateLightweightUnicastSink
          CFI Conditional ??CrossCallReturnLabel_5
          CFI R6 load(1, XDATA, add(CFA_XSP16, literal(-15)))
          CFI VB load(1, XDATA, add(CFA_XSP16, literal(-14)))
          CFI V0 load(1, XDATA, add(CFA_XSP16, literal(-13)))
          CFI V1 load(1, XDATA, add(CFA_XSP16, literal(-12)))
          CFI V2 load(1, XDATA, add(CFA_XSP16, literal(-11)))
          CFI V3 load(1, XDATA, add(CFA_XSP16, literal(-10)))
          CFI V4 load(1, XDATA, add(CFA_XSP16, literal(-9)))
          CFI V5 load(1, XDATA, add(CFA_XSP16, literal(-8)))
          CFI V6 load(1, XDATA, add(CFA_XSP16, literal(-7)))
          CFI R7 load(1, XDATA, add(CFA_XSP16, literal(-6)))
          CFI ?RET_LOW load(1, XDATA, add(CFA_XSP16, literal(-5)))
          CFI ?RET_HIGH load(1, XDATA, add(CFA_XSP16, literal(-4)))
          CFI ?BRET_EXT load(1, XDATA, add(CFA_XSP16, literal(-3)))
          CFI DPL0 load(1, XDATA, add(CFA_XSP16, literal(-2)))
          CFI DPH0 load(1, XDATA, add(CFA_XSP16, literal(-1)))
          CFI CFA_SP SP+-2
          CFI CFA_XSP16 add(XSP16, 169)
          CFI Block cfiCond30 Using cfiCommon0
          CFI (cfiCond30) Function pt_updateLightweightUnicastSink
          CFI (cfiCond30) Conditional ??CrossCallReturnLabel_6
          CFI (cfiCond30) R6 load(1, XDATA, add(CFA_XSP16, literal(-15)))
          CFI (cfiCond30) VB load(1, XDATA, add(CFA_XSP16, literal(-14)))
          CFI (cfiCond30) V0 load(1, XDATA, add(CFA_XSP16, literal(-13)))
          CFI (cfiCond30) V1 load(1, XDATA, add(CFA_XSP16, literal(-12)))
          CFI (cfiCond30) V2 load(1, XDATA, add(CFA_XSP16, literal(-11)))
          CFI (cfiCond30) V3 load(1, XDATA, add(CFA_XSP16, literal(-10)))
          CFI (cfiCond30) V4 load(1, XDATA, add(CFA_XSP16, literal(-9)))
          CFI (cfiCond30) V5 load(1, XDATA, add(CFA_XSP16, literal(-8)))
          CFI (cfiCond30) V6 load(1, XDATA, add(CFA_XSP16, literal(-7)))
          CFI (cfiCond30) R7 load(1, XDATA, add(CFA_XSP16, literal(-6)))
          CFI (cfiCond30) ?RET_LOW load(1, XDATA, add(CFA_XSP16, literal(-5)))
          CFI (cfiCond30) ?RET_HIGH load(1, XDATA, add(CFA_XSP16, literal(-4)))
          CFI (cfiCond30) ?BRET_EXT load(1, XDATA, add(CFA_XSP16, literal(-3)))
          CFI (cfiCond30) DPL0 load(1, XDATA, add(CFA_XSP16, literal(-2)))
          CFI (cfiCond30) DPH0 load(1, XDATA, add(CFA_XSP16, literal(-1)))
          CFI (cfiCond30) CFA_SP SP+-2
          CFI (cfiCond30) CFA_XSP16 add(XSP16, 169)
          CFI Block cfiCond31 Using cfiCommon0
          CFI (cfiCond31) Function pt_updateLightweightUnicastSink
          CFI (cfiCond31) Conditional ??CrossCallReturnLabel_7
          CFI (cfiCond31) R6 load(1, XDATA, add(CFA_XSP16, literal(-15)))
          CFI (cfiCond31) VB load(1, XDATA, add(CFA_XSP16, literal(-14)))
          CFI (cfiCond31) V0 load(1, XDATA, add(CFA_XSP16, literal(-13)))
          CFI (cfiCond31) V1 load(1, XDATA, add(CFA_XSP16, literal(-12)))
          CFI (cfiCond31) V2 load(1, XDATA, add(CFA_XSP16, literal(-11)))
          CFI (cfiCond31) V3 load(1, XDATA, add(CFA_XSP16, literal(-10)))
          CFI (cfiCond31) V4 load(1, XDATA, add(CFA_XSP16, literal(-9)))
          CFI (cfiCond31) V5 load(1, XDATA, add(CFA_XSP16, literal(-8)))
          CFI (cfiCond31) V6 load(1, XDATA, add(CFA_XSP16, literal(-7)))
          CFI (cfiCond31) R7 load(1, XDATA, add(CFA_XSP16, literal(-6)))
          CFI (cfiCond31) ?RET_LOW load(1, XDATA, add(CFA_XSP16, literal(-5)))
          CFI (cfiCond31) ?RET_HIGH load(1, XDATA, add(CFA_XSP16, literal(-4)))
          CFI (cfiCond31) ?BRET_EXT load(1, XDATA, add(CFA_XSP16, literal(-3)))
          CFI (cfiCond31) DPL0 load(1, XDATA, add(CFA_XSP16, literal(-2)))
          CFI (cfiCond31) DPH0 load(1, XDATA, add(CFA_XSP16, literal(-1)))
          CFI (cfiCond31) CFA_SP SP+-2
          CFI (cfiCond31) CFA_XSP16 add(XSP16, 169)
          CFI Block cfiCond32 Using cfiCommon0
          CFI (cfiCond32) Function pt_updateLightweightUnicastSink
          CFI (cfiCond32) Conditional ??CrossCallReturnLabel_8
          CFI (cfiCond32) R6 load(1, XDATA, add(CFA_XSP16, literal(-15)))
          CFI (cfiCond32) VB load(1, XDATA, add(CFA_XSP16, literal(-14)))
          CFI (cfiCond32) V0 load(1, XDATA, add(CFA_XSP16, literal(-13)))
          CFI (cfiCond32) V1 load(1, XDATA, add(CFA_XSP16, literal(-12)))
          CFI (cfiCond32) V2 load(1, XDATA, add(CFA_XSP16, literal(-11)))
          CFI (cfiCond32) V3 load(1, XDATA, add(CFA_XSP16, literal(-10)))
          CFI (cfiCond32) V4 load(1, XDATA, add(CFA_XSP16, literal(-9)))
          CFI (cfiCond32) V5 load(1, XDATA, add(CFA_XSP16, literal(-8)))
          CFI (cfiCond32) V6 load(1, XDATA, add(CFA_XSP16, literal(-7)))
          CFI (cfiCond32) R7 load(1, XDATA, add(CFA_XSP16, literal(-6)))
          CFI (cfiCond32) ?RET_LOW load(1, XDATA, add(CFA_XSP16, literal(-5)))
          CFI (cfiCond32) ?RET_HIGH load(1, XDATA, add(CFA_XSP16, literal(-4)))
          CFI (cfiCond32) ?BRET_EXT load(1, XDATA, add(CFA_XSP16, literal(-3)))
          CFI (cfiCond32) DPL0 load(1, XDATA, add(CFA_XSP16, literal(-2)))
          CFI (cfiCond32) DPH0 load(1, XDATA, add(CFA_XSP16, literal(-1)))
          CFI (cfiCond32) CFA_SP SP+-2
          CFI (cfiCond32) CFA_XSP16 add(XSP16, 169)
          CFI Block cfiCond33 Using cfiCommon0
          CFI (cfiCond33) Function pt_updateLightweightUnicastSink
          CFI (cfiCond33) Conditional ??CrossCallReturnLabel_9
          CFI (cfiCond33) R6 load(1, XDATA, add(CFA_XSP16, literal(-15)))
          CFI (cfiCond33) VB load(1, XDATA, add(CFA_XSP16, literal(-14)))
          CFI (cfiCond33) V0 load(1, XDATA, add(CFA_XSP16, literal(-13)))
          CFI (cfiCond33) V1 load(1, XDATA, add(CFA_XSP16, literal(-12)))
          CFI (cfiCond33) V2 load(1, XDATA, add(CFA_XSP16, literal(-11)))
          CFI (cfiCond33) V3 load(1, XDATA, add(CFA_XSP16, literal(-10)))
          CFI (cfiCond33) V4 load(1, XDATA, add(CFA_XSP16, literal(-9)))
          CFI (cfiCond33) V5 load(1, XDATA, add(CFA_XSP16, literal(-8)))
          CFI (cfiCond33) V6 load(1, XDATA, add(CFA_XSP16, literal(-7)))
          CFI (cfiCond33) R7 load(1, XDATA, add(CFA_XSP16, literal(-6)))
          CFI (cfiCond33) ?RET_LOW load(1, XDATA, add(CFA_XSP16, literal(-5)))
          CFI (cfiCond33) ?RET_HIGH load(1, XDATA, add(CFA_XSP16, literal(-4)))
          CFI (cfiCond33) ?BRET_EXT load(1, XDATA, add(CFA_XSP16, literal(-3)))
          CFI (cfiCond33) DPL0 load(1, XDATA, add(CFA_XSP16, literal(-2)))
          CFI (cfiCond33) DPH0 load(1, XDATA, add(CFA_XSP16, literal(-1)))
          CFI (cfiCond33) CFA_SP SP+-2
          CFI (cfiCond33) CFA_XSP16 add(XSP16, 169)
          CFI Block cfiCond34 Using cfiCommon0
          CFI (cfiCond34) Function pt_updateLightweightUnicastSink
          CFI (cfiCond34) Conditional ??CrossCallReturnLabel_10
          CFI (cfiCond34) R6 load(1, XDATA, add(CFA_XSP16, literal(-15)))
          CFI (cfiCond34) VB load(1, XDATA, add(CFA_XSP16, literal(-14)))
          CFI (cfiCond34) V0 load(1, XDATA, add(CFA_XSP16, literal(-13)))
          CFI (cfiCond34) V1 load(1, XDATA, add(CFA_XSP16, literal(-12)))
          CFI (cfiCond34) V2 load(1, XDATA, add(CFA_XSP16, literal(-11)))
          CFI (cfiCond34) V3 load(1, XDATA, add(CFA_XSP16, literal(-10)))
          CFI (cfiCond34) V4 load(1, XDATA, add(CFA_XSP16, literal(-9)))
          CFI (cfiCond34) V5 load(1, XDATA, add(CFA_XSP16, literal(-8)))
          CFI (cfiCond34) V6 load(1, XDATA, add(CFA_XSP16, literal(-7)))
          CFI (cfiCond34) R7 load(1, XDATA, add(CFA_XSP16, literal(-6)))
          CFI (cfiCond34) ?RET_LOW load(1, XDATA, add(CFA_XSP16, literal(-5)))
          CFI (cfiCond34) ?RET_HIGH load(1, XDATA, add(CFA_XSP16, literal(-4)))
          CFI (cfiCond34) ?BRET_EXT load(1, XDATA, add(CFA_XSP16, literal(-3)))
          CFI (cfiCond34) DPL0 load(1, XDATA, add(CFA_XSP16, literal(-2)))
          CFI (cfiCond34) DPH0 load(1, XDATA, add(CFA_XSP16, literal(-1)))
          CFI (cfiCond34) CFA_SP SP+-2
          CFI (cfiCond34) CFA_XSP16 add(XSP16, 169)
          CFI Block cfiPicker35 Using cfiCommon1
          CFI (cfiPicker35) NoFunction
          CFI (cfiPicker35) Picker
        MOVX      A,@DPTR
        MOV       R1,A
        INC       DPTR
        LCALL     ?Subroutine9 & 0xFFFF
??CrossCallReturnLabel_21:
        RET
          CFI EndBlock cfiCond29
          CFI EndBlock cfiCond30
          CFI EndBlock cfiCond31
          CFI EndBlock cfiCond32
          CFI EndBlock cfiCond33
          CFI EndBlock cfiCond34
          CFI EndBlock cfiPicker35

        RSEG BANKED_CODE:HUGECODE:NOROOT(0)
?Subroutine9:
          CFI Block cfiCond36 Using cfiCommon0
          CFI Function pt_ZclReadGetProxyEntry
          CFI Conditional ??CrossCallReturnLabel_18
          CFI R6 load(1, XDATA, add(CFA_XSP16, literal(-16)))
          CFI VB load(1, XDATA, add(CFA_XSP16, literal(-15)))
          CFI V0 load(1, XDATA, add(CFA_XSP16, literal(-14)))
          CFI V1 load(1, XDATA, add(CFA_XSP16, literal(-13)))
          CFI V2 load(1, XDATA, add(CFA_XSP16, literal(-12)))
          CFI V3 load(1, XDATA, add(CFA_XSP16, literal(-11)))
          CFI V4 load(1, XDATA, add(CFA_XSP16, literal(-10)))
          CFI V5 load(1, XDATA, add(CFA_XSP16, literal(-9)))
          CFI V6 load(1, XDATA, add(CFA_XSP16, literal(-8)))
          CFI V7 load(1, XDATA, add(CFA_XSP16, literal(-7)))
          CFI R7 load(1, XDATA, add(CFA_XSP16, literal(-6)))
          CFI ?RET_LOW load(1, XDATA, add(CFA_XSP16, literal(-5)))
          CFI ?RET_HIGH load(1, XDATA, add(CFA_XSP16, literal(-4)))
          CFI ?BRET_EXT load(1, XDATA, add(CFA_XSP16, literal(-3)))
          CFI DPL0 load(1, XDATA, add(CFA_XSP16, literal(-2)))
          CFI DPH0 load(1, XDATA, add(CFA_XSP16, literal(-1)))
          CFI CFA_SP SP+-2
          CFI CFA_XSP16 add(XSP16, 170)
          CFI Block cfiCond37 Using cfiCommon0
          CFI (cfiCond37) Function gp_UpdateProxyTlb
          CFI (cfiCond37) Conditional ??CrossCallReturnLabel_19
          CFI (cfiCond37) R6 load(1, XDATA, add(CFA_XSP16, literal(-16)))
          CFI (cfiCond37) VB load(1, XDATA, add(CFA_XSP16, literal(-15)))
          CFI (cfiCond37) V0 load(1, XDATA, add(CFA_XSP16, literal(-14)))
          CFI (cfiCond37) V1 load(1, XDATA, add(CFA_XSP16, literal(-13)))
          CFI (cfiCond37) V2 load(1, XDATA, add(CFA_XSP16, literal(-12)))
          CFI (cfiCond37) V3 load(1, XDATA, add(CFA_XSP16, literal(-11)))
          CFI (cfiCond37) V4 load(1, XDATA, add(CFA_XSP16, literal(-10)))
          CFI (cfiCond37) V5 load(1, XDATA, add(CFA_XSP16, literal(-9)))
          CFI (cfiCond37) V6 load(1, XDATA, add(CFA_XSP16, literal(-8)))
          CFI (cfiCond37) V7 load(1, XDATA, add(CFA_XSP16, literal(-7)))
          CFI (cfiCond37) R7 load(1, XDATA, add(CFA_XSP16, literal(-6)))
          CFI (cfiCond37) ?RET_LOW load(1, XDATA, add(CFA_XSP16, literal(-5)))
          CFI (cfiCond37) ?RET_HIGH load(1, XDATA, add(CFA_XSP16, literal(-4)))
          CFI (cfiCond37) ?BRET_EXT load(1, XDATA, add(CFA_XSP16, literal(-3)))
          CFI (cfiCond37) DPL0 load(1, XDATA, add(CFA_XSP16, literal(-2)))
          CFI (cfiCond37) DPH0 load(1, XDATA, add(CFA_XSP16, literal(-1)))
          CFI (cfiCond37) CFA_SP SP+-2
          CFI (cfiCond37) CFA_XSP16 add(XSP16, 277)
          CFI Block cfiCond38 Using cfiCommon0
          CFI (cfiCond38) Function pt_updateLightweightUnicastSink
          CFI (cfiCond38) Conditional ??CrossCallReturnLabel_20
          CFI (cfiCond38) R6 load(1, XDATA, add(CFA_XSP16, literal(-15)))
          CFI (cfiCond38) VB load(1, XDATA, add(CFA_XSP16, literal(-14)))
          CFI (cfiCond38) V0 load(1, XDATA, add(CFA_XSP16, literal(-13)))
          CFI (cfiCond38) V1 load(1, XDATA, add(CFA_XSP16, literal(-12)))
          CFI (cfiCond38) V2 load(1, XDATA, add(CFA_XSP16, literal(-11)))
          CFI (cfiCond38) V3 load(1, XDATA, add(CFA_XSP16, literal(-10)))
          CFI (cfiCond38) V4 load(1, XDATA, add(CFA_XSP16, literal(-9)))
          CFI (cfiCond38) V5 load(1, XDATA, add(CFA_XSP16, literal(-8)))
          CFI (cfiCond38) V6 load(1, XDATA, add(CFA_XSP16, literal(-7)))
          CFI (cfiCond38) R7 load(1, XDATA, add(CFA_XSP16, literal(-6)))
          CFI (cfiCond38) ?RET_LOW load(1, XDATA, add(CFA_XSP16, literal(-5)))
          CFI (cfiCond38) ?RET_HIGH load(1, XDATA, add(CFA_XSP16, literal(-4)))
          CFI (cfiCond38) ?BRET_EXT load(1, XDATA, add(CFA_XSP16, literal(-3)))
          CFI (cfiCond38) DPL0 load(1, XDATA, add(CFA_XSP16, literal(-2)))
          CFI (cfiCond38) DPH0 load(1, XDATA, add(CFA_XSP16, literal(-1)))
          CFI (cfiCond38) CFA_SP SP+-2
          CFI (cfiCond38) CFA_XSP16 add(XSP16, 169)
          CFI Block cfiCond39 Using cfiCommon0
          CFI (cfiCond39) Function pt_updateLightweightUnicastSink
          CFI (cfiCond39) Conditional ??CrossCallReturnLabel_21, ??CrossCallReturnLabel_5
          CFI (cfiCond39) R6 load(1, XDATA, add(CFA_XSP16, literal(-15)))
          CFI (cfiCond39) VB load(1, XDATA, add(CFA_XSP16, literal(-14)))
          CFI (cfiCond39) V0 load(1, XDATA, add(CFA_XSP16, literal(-13)))
          CFI (cfiCond39) V1 load(1, XDATA, add(CFA_XSP16, literal(-12)))
          CFI (cfiCond39) V2 load(1, XDATA, add(CFA_XSP16, literal(-11)))
          CFI (cfiCond39) V3 load(1, XDATA, add(CFA_XSP16, literal(-10)))
          CFI (cfiCond39) V4 load(1, XDATA, add(CFA_XSP16, literal(-9)))
          CFI (cfiCond39) V5 load(1, XDATA, add(CFA_XSP16, literal(-8)))
          CFI (cfiCond39) V6 load(1, XDATA, add(CFA_XSP16, literal(-7)))
          CFI (cfiCond39) R7 load(1, XDATA, add(CFA_XSP16, literal(-6)))
          CFI (cfiCond39) ?RET_LOW load(1, XDATA, add(CFA_XSP16, literal(-5)))
          CFI (cfiCond39) ?RET_HIGH load(1, XDATA, add(CFA_XSP16, literal(-4)))
          CFI (cfiCond39) ?BRET_EXT load(1, XDATA, add(CFA_XSP16, literal(-3)))
          CFI (cfiCond39) DPL0 load(1, XDATA, add(CFA_XSP16, literal(-2)))
          CFI (cfiCond39) DPH0 load(1, XDATA, add(CFA_XSP16, literal(-1)))
          CFI (cfiCond39) CFA_SP SP+-4
          CFI (cfiCond39) CFA_XSP16 add(XSP16, 169)
          CFI Block cfiCond40 Using cfiCommon0
          CFI (cfiCond40) Function pt_updateLightweightUnicastSink
          CFI (cfiCond40) Conditional ??CrossCallReturnLabel_21, ??CrossCallReturnLabel_6
          CFI (cfiCond40) R6 load(1, XDATA, add(CFA_XSP16, literal(-15)))
          CFI (cfiCond40) VB load(1, XDATA, add(CFA_XSP16, literal(-14)))
          CFI (cfiCond40) V0 load(1, XDATA, add(CFA_XSP16, literal(-13)))
          CFI (cfiCond40) V1 load(1, XDATA, add(CFA_XSP16, literal(-12)))
          CFI (cfiCond40) V2 load(1, XDATA, add(CFA_XSP16, literal(-11)))
          CFI (cfiCond40) V3 load(1, XDATA, add(CFA_XSP16, literal(-10)))
          CFI (cfiCond40) V4 load(1, XDATA, add(CFA_XSP16, literal(-9)))
          CFI (cfiCond40) V5 load(1, XDATA, add(CFA_XSP16, literal(-8)))
          CFI (cfiCond40) V6 load(1, XDATA, add(CFA_XSP16, literal(-7)))
          CFI (cfiCond40) R7 load(1, XDATA, add(CFA_XSP16, literal(-6)))
          CFI (cfiCond40) ?RET_LOW load(1, XDATA, add(CFA_XSP16, literal(-5)))
          CFI (cfiCond40) ?RET_HIGH load(1, XDATA, add(CFA_XSP16, literal(-4)))
          CFI (cfiCond40) ?BRET_EXT load(1, XDATA, add(CFA_XSP16, literal(-3)))
          CFI (cfiCond40) DPL0 load(1, XDATA, add(CFA_XSP16, literal(-2)))
          CFI (cfiCond40) DPH0 load(1, XDATA, add(CFA_XSP16, literal(-1)))
          CFI (cfiCond40) CFA_SP SP+-4
          CFI (cfiCond40) CFA_XSP16 add(XSP16, 169)
          CFI Block cfiCond41 Using cfiCommon0
          CFI (cfiCond41) Function pt_updateLightweightUnicastSink
          CFI (cfiCond41) Conditional ??CrossCallReturnLabel_21, ??CrossCallReturnLabel_7
          CFI (cfiCond41) R6 load(1, XDATA, add(CFA_XSP16, literal(-15)))
          CFI (cfiCond41) VB load(1, XDATA, add(CFA_XSP16, literal(-14)))
          CFI (cfiCond41) V0 load(1, XDATA, add(CFA_XSP16, literal(-13)))
          CFI (cfiCond41) V1 load(1, XDATA, add(CFA_XSP16, literal(-12)))
          CFI (cfiCond41) V2 load(1, XDATA, add(CFA_XSP16, literal(-11)))
          CFI (cfiCond41) V3 load(1, XDATA, add(CFA_XSP16, literal(-10)))
          CFI (cfiCond41) V4 load(1, XDATA, add(CFA_XSP16, literal(-9)))
          CFI (cfiCond41) V5 load(1, XDATA, add(CFA_XSP16, literal(-8)))
          CFI (cfiCond41) V6 load(1, XDATA, add(CFA_XSP16, literal(-7)))
          CFI (cfiCond41) R7 load(1, XDATA, add(CFA_XSP16, literal(-6)))
          CFI (cfiCond41) ?RET_LOW load(1, XDATA, add(CFA_XSP16, literal(-5)))
          CFI (cfiCond41) ?RET_HIGH load(1, XDATA, add(CFA_XSP16, literal(-4)))
          CFI (cfiCond41) ?BRET_EXT load(1, XDATA, add(CFA_XSP16, literal(-3)))
          CFI (cfiCond41) DPL0 load(1, XDATA, add(CFA_XSP16, literal(-2)))
          CFI (cfiCond41) DPH0 load(1, XDATA, add(CFA_XSP16, literal(-1)))
          CFI (cfiCond41) CFA_SP SP+-4
          CFI (cfiCond41) CFA_XSP16 add(XSP16, 169)
          CFI Block cfiCond42 Using cfiCommon0
          CFI (cfiCond42) Function pt_updateLightweightUnicastSink
          CFI (cfiCond42) Conditional ??CrossCallReturnLabel_21, ??CrossCallReturnLabel_8
          CFI (cfiCond42) R6 load(1, XDATA, add(CFA_XSP16, literal(-15)))
          CFI (cfiCond42) VB load(1, XDATA, add(CFA_XSP16, literal(-14)))
          CFI (cfiCond42) V0 load(1, XDATA, add(CFA_XSP16, literal(-13)))
          CFI (cfiCond42) V1 load(1, XDATA, add(CFA_XSP16, literal(-12)))
          CFI (cfiCond42) V2 load(1, XDATA, add(CFA_XSP16, literal(-11)))
          CFI (cfiCond42) V3 load(1, XDATA, add(CFA_XSP16, literal(-10)))
          CFI (cfiCond42) V4 load(1, XDATA, add(CFA_XSP16, literal(-9)))
          CFI (cfiCond42) V5 load(1, XDATA, add(CFA_XSP16, literal(-8)))
          CFI (cfiCond42) V6 load(1, XDATA, add(CFA_XSP16, literal(-7)))
          CFI (cfiCond42) R7 load(1, XDATA, add(CFA_XSP16, literal(-6)))
          CFI (cfiCond42) ?RET_LOW load(1, XDATA, add(CFA_XSP16, literal(-5)))
          CFI (cfiCond42) ?RET_HIGH load(1, XDATA, add(CFA_XSP16, literal(-4)))
          CFI (cfiCond42) ?BRET_EXT load(1, XDATA, add(CFA_XSP16, literal(-3)))
          CFI (cfiCond42) DPL0 load(1, XDATA, add(CFA_XSP16, literal(-2)))
          CFI (cfiCond42) DPH0 load(1, XDATA, add(CFA_XSP16, literal(-1)))
          CFI (cfiCond42) CFA_SP SP+-4
          CFI (cfiCond42) CFA_XSP16 add(XSP16, 169)
          CFI Block cfiCond43 Using cfiCommon0
          CFI (cfiCond43) Function pt_updateLightweightUnicastSink
          CFI (cfiCond43) Conditional ??CrossCallReturnLabel_21, ??CrossCallReturnLabel_9
          CFI (cfiCond43) R6 load(1, XDATA, add(CFA_XSP16, literal(-15)))
          CFI (cfiCond43) VB load(1, XDATA, add(CFA_XSP16, literal(-14)))
          CFI (cfiCond43) V0 load(1, XDATA, add(CFA_XSP16, literal(-13)))
          CFI (cfiCond43) V1 load(1, XDATA, add(CFA_XSP16, literal(-12)))
          CFI (cfiCond43) V2 load(1, XDATA, add(CFA_XSP16, literal(-11)))
          CFI (cfiCond43) V3 load(1, XDATA, add(CFA_XSP16, literal(-10)))
          CFI (cfiCond43) V4 load(1, XDATA, add(CFA_XSP16, literal(-9)))
          CFI (cfiCond43) V5 load(1, XDATA, add(CFA_XSP16, literal(-8)))
          CFI (cfiCond43) V6 load(1, XDATA, add(CFA_XSP16, literal(-7)))
          CFI (cfiCond43) R7 load(1, XDATA, add(CFA_XSP16, literal(-6)))
          CFI (cfiCond43) ?RET_LOW load(1, XDATA, add(CFA_XSP16, literal(-5)))
          CFI (cfiCond43) ?RET_HIGH load(1, XDATA, add(CFA_XSP16, literal(-4)))
          CFI (cfiCond43) ?BRET_EXT load(1, XDATA, add(CFA_XSP16, literal(-3)))
          CFI (cfiCond43) DPL0 load(1, XDATA, add(CFA_XSP16, literal(-2)))
          CFI (cfiCond43) DPH0 load(1, XDATA, add(CFA_XSP16, literal(-1)))
          CFI (cfiCond43) CFA_SP SP+-4
          CFI (cfiCond43) CFA_XSP16 add(XSP16, 169)
          CFI Block cfiCond44 Using cfiCommon0
          CFI (cfiCond44) Function pt_updateLightweightUnicastSink
          CFI (cfiCond44) Conditional ??CrossCallReturnLabel_21, ??CrossCallReturnLabel_10
          CFI (cfiCond44) R6 load(1, XDATA, add(CFA_XSP16, literal(-15)))
          CFI (cfiCond44) VB load(1, XDATA, add(CFA_XSP16, literal(-14)))
          CFI (cfiCond44) V0 load(1, XDATA, add(CFA_XSP16, literal(-13)))
          CFI (cfiCond44) V1 load(1, XDATA, add(CFA_XSP16, literal(-12)))
          CFI (cfiCond44) V2 load(1, XDATA, add(CFA_XSP16, literal(-11)))
          CFI (cfiCond44) V3 load(1, XDATA, add(CFA_XSP16, literal(-10)))
          CFI (cfiCond44) V4 load(1, XDATA, add(CFA_XSP16, literal(-9)))
          CFI (cfiCond44) V5 load(1, XDATA, add(CFA_XSP16, literal(-8)))
          CFI (cfiCond44) V6 load(1, XDATA, add(CFA_XSP16, literal(-7)))
          CFI (cfiCond44) R7 load(1, XDATA, add(CFA_XSP16, literal(-6)))
          CFI (cfiCond44) ?RET_LOW load(1, XDATA, add(CFA_XSP16, literal(-5)))
          CFI (cfiCond44) ?RET_HIGH load(1, XDATA, add(CFA_XSP16, literal(-4)))
          CFI (cfiCond44) ?BRET_EXT load(1, XDATA, add(CFA_XSP16, literal(-3)))
          CFI (cfiCond44) DPL0 load(1, XDATA, add(CFA_XSP16, literal(-2)))
          CFI (cfiCond44) DPH0 load(1, XDATA, add(CFA_XSP16, literal(-1)))
          CFI (cfiCond44) CFA_SP SP+-4
          CFI (cfiCond44) CFA_XSP16 add(XSP16, 169)
          CFI Block cfiPicker45 Using cfiCommon1
          CFI (cfiPicker45) NoFunction
          CFI (cfiPicker45) Picker
        MOVX      A,@DPTR
        MOV       R2,A
        INC       DPTR
        MOVX      A,@DPTR
        MOV       R3,A
        RET
          CFI EndBlock cfiCond36
          CFI EndBlock cfiCond37
          CFI EndBlock cfiCond38
          CFI EndBlock cfiCond39
          CFI EndBlock cfiCond40
          CFI EndBlock cfiCond41
          CFI EndBlock cfiCond42
          CFI EndBlock cfiCond43
          CFI EndBlock cfiCond44
          CFI EndBlock cfiPicker45
//  860 
//  861 /*********************************************************************
//  862  * @fn          pt_addSinkGroup
//  863  *
//  864  * @brief       To add new sink group entry
//  865  *
//  866  * @param       pNew - New entry array to be added
//  867  *              pCurr - The current entry array in the proxy table
//  868  *
//  869  * @return      TRUE new entry added, FALSE if not
//  870  */

        RSEG BANKED_CODE:HUGECODE:NOROOT(0)
//  871 static uint8 pt_addSinkGroup( uint8* pNew, uint8* pCurr )
pt_addSinkGroup:
          CFI Block cfiBlock46 Using cfiCommon0
          CFI Function pt_addSinkGroup
        CODE
//  872 {
        FUNCALL pt_addSinkGroup, osal_memcpy
        LOCFRAME ISTACK, 0, STACK
        LOCFRAME PSTACK, 0, STACK
        LOCFRAME XSTACK, 148, STACK
        LOCFRAME IOVERLAY, 0, STATIC
        LOCFRAME DOVERLAY, 0, STATIC
        ARGFRAME ISTACK, 0, STACK
        ARGFRAME PSTACK, 0, STACK
        ARGFRAME XSTACK, 148, STACK
        ARGFRAME IOVERLAY, 0, STATIC
        ARGFRAME DOVERLAY, 0, STATIC
        FUNCALL pt_addSinkGroup, osal_memcpy
        LOCFRAME ISTACK, 0, STACK
        LOCFRAME PSTACK, 0, STACK
        LOCFRAME XSTACK, 148, STACK
        LOCFRAME IOVERLAY, 0, STATIC
        LOCFRAME DOVERLAY, 0, STATIC
        ARGFRAME ISTACK, 0, STACK
        ARGFRAME PSTACK, 0, STACK
        ARGFRAME XSTACK, 148, STACK
