###############################################################################
#
# IAR C/C++ Compiler V10.10.1.4655 for 8051               22/Nov/2023  15:42:41
# Copyright 2004-2017 IAR Systems AB.
# Standalone license - IAR Embedded Workbench for 8051
#
#    Core               =  plain
#    Code model         =  banked
#    Data model         =  large
#    Calling convention =  xdata reentrant
#    Constant location  =  data_rom
#    Dptr setup         =  1,16
#                          
#    Source file        =  
#        D:\fuzzing-coordinator-response-collection\Components\hal\target\CC2530EB\HW_LCD\HAL_TFT\hal_tft.c
#    Command line       =  
#        -f C:\Users\ADMINI~1\AppData\Local\Temp\EWA1E6.tmp
#        (D:\fuzzing-coordinator-response-collection\Components\hal\target\CC2530EB\HW_LCD\HAL_TFT\hal_tft.c
#        -D SECURE=1 -D TC_LINKKEY_JOIN -D NV_INIT -D NV_RESTORE -D
#        MULTICAST_ENABLED=FALSE -D ZCL_READ -D ZCL_DISCOVER -D ZCL_WRITE -D
#        ZCL_BASIC -D ZCL_IDENTIFY -D ISR_KEYINTERRUPT -D HAL_UART=TRUE -D
#        HAL_LCD=FALSE -D ZCL_ON_OFF -D INT_HEAP_LEN=2800 -D
#        HAL_UART_DMA_RX_MAX=256 -D HAL_UART_DMA_TX_MAX=256 -lC
#        D:\fuzzing-coordinator-response-collection\Projects\zstack\HomeAutomation\SampleSwitch\CC2530DB\CoordinatorEB\List
#        -lA
#        D:\fuzzing-coordinator-response-collection\Projects\zstack\HomeAutomation\SampleSwitch\CC2530DB\CoordinatorEB\List
#        --diag_suppress Pe001,Pa010 -o
#        D:\fuzzing-coordinator-response-collection\Projects\zstack\HomeAutomation\SampleSwitch\CC2530DB\CoordinatorEB\Obj
#        -e --debug --core=plain --dptr=16,1 --data_model=large
#        --code_model=banked --calling_convention=xdata_reentrant
#        --place_constants=data_rom --nr_virtual_regs 8 -f
#        D:\fuzzing-coordinator-response-collection\Projects\zstack\HomeAutomation\SampleSwitch\CC2530DB\..\..\..\Tools\CC2530DB\f8wCoord.cfg
#        (-DCPU32MHZ -DROOT=__near_func -DMAC_CFG_APP_PENDING_QUEUE=TRUE
#        -DMAC_CFG_TX_DATA_MAX=5 -DMAC_CFG_TX_MAX=8 -DMAC_CFG_RX_MAX=5
#        -DZDO_COORDINATOR -DRTR_NWK) -f
#        D:\fuzzing-coordinator-response-collection\Projects\zstack\HomeAutomation\SampleSwitch\CC2530DB\..\..\..\Tools\CC2530DB\f8wConfig.cfg
#        (-DZIGBEEPRO -DSECURE=1 -DZG_SECURE_DYNAMIC=0 -DREFLECTOR
#        -DDEFAULT_CHANLIST=0x00000800 -DZDAPP_CONFIG_PAN_ID=0xFFFF
#        -DNWK_START_DELAY=100 -DEXTENDED_JOINING_RANDOM_MASK=0x007F
#        -DBEACON_REQUEST_DELAY=100 -DBEACON_REQ_DELAY_MASK=0x00FF
#        -DLINK_STATUS_JITTER_MASK=0x007F -DROUTE_EXPIRY_TIME=30
#        -DAPSC_ACK_WAIT_DURATION_POLLED=3000 -DNWK_INDIRECT_MSG_TIMEOUT=7
#        -DMAX_RREQ_ENTRIES=8 -DAPSC_MAX_FRAME_RETRIES=3
#        -DNWK_MAX_DATA_RETRIES=2 -DMAX_POLL_FAILURE_RETRIES=2 -DMAX_BCAST=9
#        -DAPS_MAX_GROUPS=16 -DMAX_RTG_ENTRIES=40 -DNWK_MAX_BINDING_ENTRIES=4
#        -DMAX_BINDING_CLUSTER_IDS=4 "-DDEFAULT_KEY={0x00, 0x01, 0x02, 0x03,
#        0x04, 0x05, 0x06, 0x07, 0x08, 0x09, 0x0A, 0x0B, 0x0C, 0x0D, 0x0E,
#        0x0F}" -DMAC_MAX_FRAME_SIZE=116 -DZDNWKMGR_MIN_TRANSMISSIONS=20
#        "-DCONST=const __code" -DGENERIC=__generic -DRFD_RCVC_ALWAYS_ON=FALSE
#        -DPOLL_RATE=1000 -DQUEUED_POLL_RATE=100 -DRESPONSE_POLL_RATE=100
#        -DREJOIN_POLL_RATE=440 -DREJOIN_BACKOFF=900000 -DREJOIN_SCAN=900000
#        -DENABLE_LED4_DISABLE_S1) -f
#        D:\fuzzing-coordinator-response-collection\Projects\zstack\HomeAutomation\SampleSwitch\CC2530DB\..\..\..\Tools\CC2530DB\f8wZCL.cfg
#        -I
#        D:\fuzzing-coordinator-response-collection\Projects\zstack\HomeAutomation\SampleSwitch\CC2530DB\
#        -I
#        D:\fuzzing-coordinator-response-collection\Projects\zstack\HomeAutomation\SampleSwitch\CC2530DB\..\Source\
#        -I
#        D:\fuzzing-coordinator-response-collection\Projects\zstack\HomeAutomation\SampleSwitch\CC2530DB\..\..\Source\
#        -I
#        D:\fuzzing-coordinator-response-collection\Projects\zstack\HomeAutomation\SampleSwitch\CC2530DB\..\..\..\ZMain\TI2530DB\
#        -I
#        D:\fuzzing-coordinator-response-collection\Projects\zstack\HomeAutomation\SampleSwitch\CC2530DB\..\..\..\..\..\Components\hal\include\
#        -I
#        D:\fuzzing-coordinator-response-collection\Projects\zstack\HomeAutomation\SampleSwitch\CC2530DB\..\..\..\..\..\Components\hal\target\CC2530EB\
#        -I
#        D:\fuzzing-coordinator-response-collection\Projects\zstack\HomeAutomation\SampleSwitch\CC2530DB\..\..\..\..\..\Components\mac\include\
#        -I
#        D:\fuzzing-coordinator-response-collection\Projects\zstack\HomeAutomation\SampleSwitch\CC2530DB\..\..\..\..\..\Components\mac\high_level\
#        -I
#        D:\fuzzing-coordinator-response-collection\Projects\zstack\HomeAutomation\SampleSwitch\CC2530DB\..\..\..\..\..\Components\mac\low_level\srf04\
#        -I
#        D:\fuzzing-coordinator-response-collection\Projects\zstack\HomeAutomation\SampleSwitch\CC2530DB\..\..\..\..\..\Components\mac\low_level\srf04\single_chip\
#        -I
#        D:\fuzzing-coordinator-response-collection\Projects\zstack\HomeAutomation\SampleSwitch\CC2530DB\..\..\..\..\..\Components\mt\
#        -I
#        D:\fuzzing-coordinator-response-collection\Projects\zstack\HomeAutomation\SampleSwitch\CC2530DB\..\..\..\..\..\Components\osal\include\
#        -I
#        D:\fuzzing-coordinator-response-collection\Projects\zstack\HomeAutomation\SampleSwitch\CC2530DB\..\..\..\..\..\Components\services\saddr\
#        -I
#        D:\fuzzing-coordinator-response-collection\Projects\zstack\HomeAutomation\SampleSwitch\CC2530DB\..\..\..\..\..\Components\services\sdata\
#        -I
#        D:\fuzzing-coordinator-response-collection\Projects\zstack\HomeAutomation\SampleSwitch\CC2530DB\..\..\..\..\..\Components\stack\af\
#        -I
#        D:\fuzzing-coordinator-response-collection\Projects\zstack\HomeAutomation\SampleSwitch\CC2530DB\..\..\..\..\..\Components\stack\bdb\
#        -I
#        D:\fuzzing-coordinator-response-collection\Projects\zstack\HomeAutomation\SampleSwitch\CC2530DB\..\..\..\..\..\Components\stack\gp\
#        -I
#        D:\fuzzing-coordinator-response-collection\Projects\zstack\HomeAutomation\SampleSwitch\CC2530DB\..\..\..\..\..\Components\stack\nwk\
#        -I
#        D:\fuzzing-coordinator-response-collection\Projects\zstack\HomeAutomation\SampleSwitch\CC2530DB\..\..\..\..\..\Components\stack\sapi\
#        -I
#        D:\fuzzing-coordinator-response-collection\Projects\zstack\HomeAutomation\SampleSwitch\CC2530DB\..\..\..\..\..\Components\stack\sec\
#        -I
#        D:\fuzzing-coordinator-response-collection\Projects\zstack\HomeAutomation\SampleSwitch\CC2530DB\..\..\..\..\..\Components\stack\sys\
#        -I
#        D:\fuzzing-coordinator-response-collection\Projects\zstack\HomeAutomation\SampleSwitch\CC2530DB\..\..\..\..\..\Components\stack\zcl\
#        -I
#        D:\fuzzing-coordinator-response-collection\Projects\zstack\HomeAutomation\SampleSwitch\CC2530DB\..\..\..\..\..\Components\stack\zdo\
#        -I
#        D:\fuzzing-coordinator-response-collection\Projects\zstack\HomeAutomation\SampleSwitch\CC2530DB\..\..\..\..\..\Components\zmac\
#        -I
#        D:\fuzzing-coordinator-response-collection\Projects\zstack\HomeAutomation\SampleSwitch\CC2530DB\..\..\..\..\..\Components\zmac\f8w\
#        -I
#        D:\fuzzing-coordinator-response-collection\Projects\zstack\HomeAutomation\SampleSwitch\CC2530DB\..\..\..\..\..\Components\hal\target\CC2530EB\Common\
#        -I
#        D:\fuzzing-coordinator-response-collection\Projects\zstack\HomeAutomation\SampleSwitch\CC2530DB\..\..\..\..\..\Components\hal\target\CC2530EB\SPI\
#        -I
#        D:\fuzzing-coordinator-response-collection\Projects\zstack\HomeAutomation\SampleSwitch\CC2530DB\..\..\..\..\..\Components\hal\target\CC2530EB\HW_LCD\Font\
#        -I
#        D:\fuzzing-coordinator-response-collection\Projects\zstack\HomeAutomation\SampleSwitch\CC2530DB\..\..\..\..\..\Components\hal\target\CC2530EB\HW_LCD\HAL_LCD_SPI\
#        -I
#        D:\fuzzing-coordinator-response-collection\Projects\zstack\HomeAutomation\SampleSwitch\CC2530DB\..\..\..\..\..\Components\hal\target\CC2530EB\HW_LCD\HAL_OLED\
#        -I
#        D:\fuzzing-coordinator-response-collection\Projects\zstack\HomeAutomation\SampleSwitch\CC2530DB\..\..\..\..\..\Components\hal\target\CC2530EB\HW_LCD\HAL_TFT\
#        -Ohz --require_prototypes)
#    Locale             =  Chinese (Simplified)_China.936
#    List file          =  
#        D:\fuzzing-coordinator-response-collection\Projects\zstack\HomeAutomation\SampleSwitch\CC2530DB\CoordinatorEB\List\hal_tft.lst
#    Object file        =  
#        D:\fuzzing-coordinator-response-collection\Projects\zstack\HomeAutomation\SampleSwitch\CC2530DB\CoordinatorEB\Obj\hal_tft.r51
#
###############################################################################

D:\fuzzing-coordinator-response-collection\Components\hal\target\CC2530EB\HW_LCD\HAL_TFT\hal_tft.c
      1          /**
      2           * Copyright (c) 2020~2022 iotlucker.com, All Rights Reserved.
      3           *
      4           * @Official Store: https://shop233815998.taobao.com
      5           * @Official Website & Online document: http://www.iotlucker.com
      6           * @WeChat Official Accounts: shanxuefang_iot
      7           * @Support: 1915912696@qq.com
      8           */
      9          #include "hal_tft.h"

   \                                 In  segment SFR_AN, at 0x90
   \   union <unnamed> volatile __sfr _A_P1
   \                     _A_P1:
   \   000000                DS 1
     10          #include "font_h_8x16.h"

   \                                 In  segment XDATA_ROM_C, align 1
   \   static unsigned char const __xdata_rom FontTable_H_8X16[1520]
   \                     FontTable_H_8X16:
   \   000000   00           DB 0
   \   000001   00           DB 0
   \   000002   00           DB 0
   \   000003   00           DB 0
   \   000004   00           DB 0
   \   000005   00           DB 0
   \   000006   00           DB 0
   \   000007   00           DB 0
   \   000008   00           DB 0
   \   000009   00           DB 0
   \   00000A   00           DB 0
   \   00000B   00           DB 0
   \   00000C   00           DB 0
   \   00000D   00           DB 0
   \   00000E   00           DB 0
   \   00000F   00           DB 0
   \   000010   00           DB 0
   \   000011   10           DB 16
   \   000012   10           DB 16
   \   000013   10           DB 16
   \   000014   10           DB 16
   \   000015   10           DB 16
   \   000016   10           DB 16
   \   000017   10           DB 16
   \   000018   10           DB 16
   \   000019   10           DB 16
   \   00001A   00           DB 0
   \   00001B   00           DB 0
   \   00001C   10           DB 16
   \   00001D   10           DB 16
   \   00001E   00           DB 0
   \   00001F   00           DB 0
   \   000020   00           DB 0
   \   000021   00           DB 0
   \   000022   6C           DB 108
   \   000023   6C           DB 108
   \   000024   24           DB 36
   \   000025   24           DB 36
   \   000026   00           DB 0
   \   000027   00           DB 0
   \   000028   00           DB 0
   \   000029   00           DB 0
   \   00002A   01           DB 1
   \   00002B   00           DB 0
   \   00002C   00           DB 0
   \   00002D   00           DB 0
   \   00002E   00           DB 0
   \   00002F   00           DB 0
   \   000030   00           DB 0
   \   000031   24           DB 36
   \   000032   24           DB 36
   \   000033   24           DB 36
   \   000034   24           DB 36
   \   000035   FE           DB 254
   \   000036   48           DB 72
   \   000037   48           DB 72
   \   000038   48           DB 72
   \   000039   48           DB 72
   \   00003A   FC           DB 252
   \   00003B   90           DB 144
   \   00003C   90           DB 144
   \   00003D   90           DB 144
   \   00003E   90           DB 144
   \   00003F   00           DB 0
   \   000040   00           DB 0
   \   000041   10           DB 16
   \   000042   3C           DB 60
   \   000043   54           DB 84
   \   000044   92           DB 146
   \   000045   90           DB 144
   \   000046   50           DB 80
   \   000047   38           DB 56
   \   000048   14           DB 20
   \   000049   12           DB 18
   \   00004A   12           DB 18
   \   00004B   92           DB 146
   \   00004C   54           DB 84
   \   00004D   78           DB 120
   \   00004E   10           DB 16
   \   00004F   00           DB 0
   \   000050   00           DB 0
   \   000051   00           DB 0
   \   000052   22           DB 34
   \   000053   5C           DB 92
   \   000054   94           DB 148
   \   000055   A8           DB 168
   \   000056   48           DB 72
   \   000057   10           DB 16
   \   000058   10           DB 16
   \   000059   24           DB 36
   \   00005A   2A           DB 42
   \   00005B   52           DB 82
   \   00005C   54           DB 84
   \   00005D   88           DB 136
   \   00005E   00           DB 0
   \   00005F   00           DB 0
   \   000060   00           DB 0
   \   000061   00           DB 0
   \   000062   30           DB 48
   \   000063   48           DB 72
   \   000064   48           DB 72
   \   000065   50           DB 80
   \   000066   20           DB 32
   \   000067   6E           DB 110
   \   000068   54           DB 84
   \   000069   94           DB 148
   \   00006A   8C           DB 140
   \   00006B   88           DB 136
   \   00006C   8A           DB 138
   \   00006D   74           DB 116
   \   00006E   00           DB 0
   \   00006F   00           DB 0
   \   000070   00           DB 0
   \   000071   00           DB 0
   \   000072   30           DB 48
   \   000073   30           DB 48
   \   000074   10           DB 16
   \   000075   10           DB 16
   \   000076   00           DB 0
   \   000077   00           DB 0
   \   000078   00           DB 0
   \   000079   00           DB 0
   \   00007A   00           DB 0
   \   00007B   00           DB 0
   \   00007C   00           DB 0
   \   00007D   00           DB 0
   \   00007E   00           DB 0
   \   00007F   00           DB 0
   \   000080   00           DB 0
   \   000081   04           DB 4
   \   000082   08           DB 8
   \   000083   10           DB 16
   \   000084   10           DB 16
   \   000085   20           DB 32
   \   000086   20           DB 32
   \   000087   20           DB 32
   \   000088   20           DB 32
   \   000089   20           DB 32
   \   00008A   20           DB 32
   \   00008B   10           DB 16
   \   00008C   10           DB 16
   \   00008D   08           DB 8
   \   00008E   04           DB 4
   \   00008F   00           DB 0
   \   000090   00           DB 0
   \   000091   80           DB 128
   \   000092   40           DB 64
   \   000093   20           DB 32
   \   000094   20           DB 32
   \   000095   10           DB 16
   \   000096   10           DB 16
   \   000097   10           DB 16
   \   000098   10           DB 16
   \   000099   10           DB 16
   \   00009A   10           DB 16
   \   00009B   20           DB 32
   \   00009C   20           DB 32
   \   00009D   40           DB 64
   \   00009E   80           DB 128
   \   00009F   00           DB 0
   \   0000A0   00           DB 0
   \   0000A1   00           DB 0
   \   0000A2   00           DB 0
   \   0000A3   00           DB 0
   \   0000A4   10           DB 16
   \   0000A5   54           DB 84
   \   0000A6   38           DB 56
   \   0000A7   10           DB 16
   \   0000A8   38           DB 56
   \   0000A9   54           DB 84
   \   0000AA   10           DB 16
   \   0000AB   00           DB 0
   \   0000AC   00           DB 0
   \   0000AD   00           DB 0
   \   0000AE   00           DB 0
   \   0000AF   00           DB 0
   \   0000B0   00           DB 0
   \   0000B1   00           DB 0
   \   0000B2   00           DB 0
   \   0000B3   10           DB 16
   \   0000B4   10           DB 16
   \   0000B5   10           DB 16
   \   0000B6   10           DB 16
   \   0000B7   FE           DB 254
   \   0000B8   10           DB 16
   \   0000B9   10           DB 16
   \   0000BA   10           DB 16
   \   0000BB   10           DB 16
   \   0000BC   00           DB 0
   \   0000BD   00           DB 0
   \   0000BE   00           DB 0
   \   0000BF   00           DB 0
   \   0000C0   00           DB 0
   \   0000C1   00           DB 0
   \   0000C2   00           DB 0
   \   0000C3   00           DB 0
   \   0000C4   00           DB 0
   \   0000C5   00           DB 0
   \   0000C6   00           DB 0
   \   0000C7   00           DB 0
   \   0000C8   00           DB 0
   \   0000C9   00           DB 0
   \   0000CA   00           DB 0
   \   0000CB   00           DB 0
   \   0000CC   10           DB 16
   \   0000CD   10           DB 16
   \   0000CE   20           DB 32
   \   0000CF   00           DB 0
   \   0000D0   00           DB 0
   \   0000D1   00           DB 0
   \   0000D2   00           DB 0
   \   0000D3   00           DB 0
   \   0000D4   00           DB 0
   \   0000D5   00           DB 0
   \   0000D6   00           DB 0
   \   0000D7   FE           DB 254
   \   0000D8   00           DB 0
   \   0000D9   00           DB 0
   \   0000DA   00           DB 0
   \   0000DB   00           DB 0
   \   0000DC   00           DB 0
   \   0000DD   00           DB 0
   \   0000DE   00           DB 0
   \   0000DF   00           DB 0
   \   0000E0   00           DB 0
   \   0000E1   00           DB 0
   \   0000E2   00           DB 0
   \   0000E3   00           DB 0
   \   0000E4   00           DB 0
   \   0000E5   00           DB 0
   \   0000E6   00           DB 0
   \   0000E7   00           DB 0
   \   0000E8   00           DB 0
   \   0000E9   00           DB 0
   \   0000EA   00           DB 0
   \   0000EB   00           DB 0
   \   0000EC   10           DB 16
   \   0000ED   10           DB 16
   \   0000EE   00           DB 0
   \   0000EF   00           DB 0
   \   0000F0   00           DB 0
   \   0000F1   00           DB 0
   \   0000F2   04           DB 4
   \   0000F3   04           DB 4
   \   0000F4   08           DB 8
   \   0000F5   08           DB 8
   \   0000F6   10           DB 16
   \   0000F7   10           DB 16
   \   0000F8   20           DB 32
   \   0000F9   20           DB 32
   \   0000FA   40           DB 64
   \   0000FB   40           DB 64
   \   0000FC   80           DB 128
   \   0000FD   80           DB 128
   \   0000FE   00           DB 0
   \   0000FF   00           DB 0
   \   000100   00           DB 0
   \   000101   00           DB 0
   \   000102   38           DB 56
   \   000103   44           DB 68
   \   000104   82           DB 130
   \   000105   82           DB 130
   \   000106   82           DB 130
   \   000107   82           DB 130
   \   000108   82           DB 130
   \   000109   82           DB 130
   \   00010A   82           DB 130
   \   00010B   82           DB 130
   \   00010C   44           DB 68
   \   00010D   38           DB 56
   \   00010E   00           DB 0
   \   00010F   00           DB 0
   \   000110   00           DB 0
   \   000111   00           DB 0
   \   000112   10           DB 16
   \   000113   70           DB 112
   \   000114   10           DB 16
   \   000115   10           DB 16
   \   000116   10           DB 16
   \   000117   10           DB 16
   \   000118   10           DB 16
   \   000119   10           DB 16
   \   00011A   10           DB 16
   \   00011B   10           DB 16
   \   00011C   10           DB 16
   \   00011D   7C           DB 124
   \   00011E   00           DB 0
   \   00011F   00           DB 0
   \   000120   00           DB 0
   \   000121   00           DB 0
   \   000122   38           DB 56
   \   000123   44           DB 68
   \   000124   82           DB 130
   \   000125   82           DB 130
   \   000126   04           DB 4
   \   000127   08           DB 8
   \   000128   10           DB 16
   \   000129   20           DB 32
   \   00012A   40           DB 64
   \   00012B   82           DB 130
   \   00012C   84           DB 132
   \   00012D   FC           DB 252
   \   00012E   00           DB 0
   \   00012F   00           DB 0
   \   000130   00           DB 0
   \   000131   00           DB 0
   \   000132   38           DB 56
   \   000133   44           DB 68
   \   000134   82           DB 130
   \   000135   02           DB 2
   \   000136   04           DB 4
   \   000137   38           DB 56
   \   000138   04           DB 4
   \   000139   02           DB 2
   \   00013A   02           DB 2
   \   00013B   82           DB 130
   \   00013C   44           DB 68
   \   00013D   38           DB 56
   \   00013E   00           DB 0
   \   00013F   00           DB 0
   \   000140   00           DB 0
   \   000141   00           DB 0
   \   000142   04           DB 4
   \   000143   0C           DB 12
   \   000144   14           DB 20
   \   000145   14           DB 20
   \   000146   24           DB 36
   \   000147   24           DB 36
   \   000148   44           DB 68
   \   000149   44           DB 68
   \   00014A   FE           DB 254
   \   00014B   04           DB 4
   \   00014C   04           DB 4
   \   00014D   0E           DB 14
   \   00014E   00           DB 0
   \   00014F   00           DB 0
   \   000150   00           DB 0
   \   000151   00           DB 0
   \   000152   FC           DB 252
   \   000153   80           DB 128
   \   000154   80           DB 128
   \   000155   80           DB 128
   \   000156   B8           DB 184
   \   000157   C4           DB 196
   \   000158   82           DB 130
   \   000159   02           DB 2
   \   00015A   02           DB 2
   \   00015B   82           DB 130
   \   00015C   84           DB 132
   \   00015D   78           DB 120
   \   00015E   00           DB 0
   \   00015F   00           DB 0
   \   000160   00           DB 0
   \   000161   00           DB 0
   \   000162   3C           DB 60
   \   000163   42           DB 66
   \   000164   82           DB 130
   \   000165   80           DB 128
   \   000166   B8           DB 184
   \   000167   C4           DB 196
   \   000168   82           DB 130
   \   000169   82           DB 130
   \   00016A   82           DB 130
   \   00016B   82           DB 130
   \   00016C   44           DB 68
   \   00016D   38           DB 56
   \   00016E   00           DB 0
   \   00016F   00           DB 0
   \   000170   00           DB 0
   \   000171   00           DB 0
   \   000172   7E           DB 126
   \   000173   42           DB 66
   \   000174   82           DB 130
   \   000175   04           DB 4
   \   000176   04           DB 4
   \   000177   08           DB 8
   \   000178   08           DB 8
   \   000179   08           DB 8
   \   00017A   10           DB 16
   \   00017B   10           DB 16
   \   00017C   10           DB 16
   \   00017D   10           DB 16
   \   00017E   00           DB 0
   \   00017F   00           DB 0
   \   000180   00           DB 0
   \   000181   00           DB 0
   \   000182   38           DB 56
   \   000183   44           DB 68
   \   000184   82           DB 130
   \   000185   82           DB 130
   \   000186   44           DB 68
   \   000187   38           DB 56
   \   000188   44           DB 68
   \   000189   82           DB 130
   \   00018A   82           DB 130
   \   00018B   82           DB 130
   \   00018C   44           DB 68
   \   00018D   38           DB 56
   \   00018E   00           DB 0
   \   00018F   00           DB 0
   \   000190   00           DB 0
   \   000191   00           DB 0
   \   000192   38           DB 56
   \   000193   44           DB 68
   \   000194   82           DB 130
   \   000195   82           DB 130
   \   000196   82           DB 130
   \   000197   82           DB 130
   \   000198   46           DB 70
   \   000199   3A           DB 58
   \   00019A   02           DB 2
   \   00019B   82           DB 130
   \   00019C   44           DB 68
   \   00019D   38           DB 56
   \   00019E   00           DB 0
   \   00019F   00           DB 0
   \   0001A0   00           DB 0
   \   0001A1   00           DB 0
   \   0001A2   00           DB 0
   \   0001A3   00           DB 0
   \   0001A4   10           DB 16
   \   0001A5   10           DB 16
   \   0001A6   00           DB 0
   \   0001A7   00           DB 0
   \   0001A8   00           DB 0
   \   0001A9   00           DB 0
   \   0001AA   10           DB 16
   \   0001AB   10           DB 16
   \   0001AC   00           DB 0
   \   0001AD   00           DB 0
   \   0001AE   00           DB 0
   \   0001AF   00           DB 0
   \   0001B0   00           DB 0
   \   0001B1   00           DB 0
   \   0001B2   00           DB 0
   \   0001B3   00           DB 0
   \   0001B4   10           DB 16
   \   0001B5   10           DB 16
   \   0001B6   00           DB 0
   \   0001B7   00           DB 0
   \   0001B8   00           DB 0
   \   0001B9   00           DB 0
   \   0001BA   00           DB 0
   \   0001BB   10           DB 16
   \   0001BC   10           DB 16
   \   0001BD   20           DB 32
   \   0001BE   00           DB 0
   \   0001BF   00           DB 0
   \   0001C0   00           DB 0
   \   0001C1   00           DB 0
   \   0001C2   00           DB 0
   \   0001C3   00           DB 0
   \   0001C4   06           DB 6
   \   0001C5   18           DB 24
   \   0001C6   60           DB 96
   \   0001C7   80           DB 128
   \   0001C8   60           DB 96
   \   0001C9   18           DB 24
   \   0001CA   06           DB 6
   \   0001CB   00           DB 0
   \   0001CC   00           DB 0
   \   0001CD   00           DB 0
   \   0001CE   00           DB 0
   \   0001CF   00           DB 0
   \   0001D0   00           DB 0
   \   0001D1   00           DB 0
   \   0001D2   00           DB 0
   \   0001D3   00           DB 0
   \   0001D4   00           DB 0
   \   0001D5   00           DB 0
   \   0001D6   FE           DB 254
   \   0001D7   00           DB 0
   \   0001D8   00           DB 0
   \   0001D9   FE           DB 254
   \   0001DA   00           DB 0
   \   0001DB   00           DB 0
   \   0001DC   00           DB 0
   \   0001DD   00           DB 0
   \   0001DE   00           DB 0
   \   0001DF   00           DB 0
   \   0001E0   00           DB 0
   \   0001E1   00           DB 0
   \   0001E2   00           DB 0
   \   0001E3   00           DB 0
   \   0001E4   C0           DB 192
   \   0001E5   30           DB 48
   \   0001E6   0C           DB 12
   \   0001E7   02           DB 2
   \   0001E8   0C           DB 12
   \   0001E9   30           DB 48
   \   0001EA   C0           DB 192
   \   0001EB   00           DB 0
   \   0001EC   00           DB 0
   \   0001ED   00           DB 0
   \   0001EE   00           DB 0
   \   0001EF   00           DB 0
   \   0001F0   00           DB 0
   \   0001F1   38           DB 56
   \   0001F2   44           DB 68
   \   0001F3   82           DB 130
   \   0001F4   82           DB 130
   \   0001F5   02           DB 2
   \   0001F6   04           DB 4
   \   0001F7   08           DB 8
   \   0001F8   10           DB 16
   \   0001F9   10           DB 16
   \   0001FA   10           DB 16
   \   0001FB   00           DB 0
   \   0001FC   10           DB 16
   \   0001FD   10           DB 16
   \   0001FE   00           DB 0
   \   0001FF   00           DB 0
   \   000200   00           DB 0
   \   000201   00           DB 0
   \   000202   38           DB 56
   \   000203   44           DB 68
   \   000204   82           DB 130
   \   000205   9A           DB 154
   \   000206   AA           DB 170
   \   000207   AA           DB 170
   \   000208   AA           DB 170
   \   000209   AA           DB 170
   \   00020A   AA           DB 170
   \   00020B   96           DB 150
   \   00020C   80           DB 128
   \   00020D   42           DB 66
   \   00020E   3C           DB 60
   \   00020F   00           DB 0
   \   000210   00           DB 0
   \   000211   00           DB 0
   \   000212   10           DB 16
   \   000213   10           DB 16
   \   000214   10           DB 16
   \   000215   28           DB 40
   \   000216   28           DB 40
   \   000217   28           DB 40
   \   000218   44           DB 68
   \   000219   44           DB 68
   \   00021A   7C           DB 124
   \   00021B   44           DB 68
   \   00021C   44           DB 68
   \   00021D   EE           DB 238
   \   00021E   00           DB 0
   \   00021F   00           DB 0
   \   000220   00           DB 0
   \   000221   00           DB 0
   \   000222   FC           DB 252
   \   000223   42           DB 66
   \   000224   42           DB 66
   \   000225   42           DB 66
   \   000226   42           DB 66
   \   000227   7C           DB 124
   \   000228   42           DB 66
   \   000229   42           DB 66
   \   00022A   42           DB 66
   \   00022B   42           DB 66
   \   00022C   42           DB 66
   \   00022D   FC           DB 252
   \   00022E   00           DB 0
   \   00022F   00           DB 0
   \   000230   00           DB 0
   \   000231   00           DB 0
   \   000232   3C           DB 60
   \   000233   44           DB 68
   \   000234   82           DB 130
   \   000235   80           DB 128
   \   000236   80           DB 128
   \   000237   80           DB 128
   \   000238   80           DB 128
   \   000239   80           DB 128
   \   00023A   82           DB 130
   \   00023B   82           DB 130
   \   00023C   44           DB 68
   \   00023D   38           DB 56
   \   00023E   00           DB 0
   \   00023F   00           DB 0
   \   000240   00           DB 0
   \   000241   00           DB 0
   \   000242   F8           DB 248
   \   000243   44           DB 68
   \   000244   42           DB 66
   \   000245   42           DB 66
   \   000246   42           DB 66
   \   000247   42           DB 66
   \   000248   42           DB 66
   \   000249   42           DB 66
   \   00024A   42           DB 66
   \   00024B   42           DB 66
   \   00024C   44           DB 68
   \   00024D   F8           DB 248
   \   00024E   00           DB 0
   \   00024F   00           DB 0
   \   000250   00           DB 0
   \   000251   00           DB 0
   \   000252   FC           DB 252
   \   000253   44           DB 68
   \   000254   42           DB 66
   \   000255   40           DB 64
   \   000256   44           DB 68
   \   000257   7C           DB 124
   \   000258   44           DB 68
   \   000259   40           DB 64
   \   00025A   40           DB 64
   \   00025B   42           DB 66
   \   00025C   44           DB 68
   \   00025D   FC           DB 252
   \   00025E   00           DB 0
   \   00025F   00           DB 0
   \   000260   00           DB 0
   \   000261   00           DB 0
   \   000262   FC           DB 252
   \   000263   44           DB 68
   \   000264   42           DB 66
   \   000265   40           DB 64
   \   000266   44           DB 68
   \   000267   7C           DB 124
   \   000268   44           DB 68
   \   000269   40           DB 64
   \   00026A   40           DB 64
   \   00026B   40           DB 64
   \   00026C   40           DB 64
   \   00026D   F0           DB 240
   \   00026E   00           DB 0
   \   00026F   00           DB 0
   \   000270   00           DB 0
   \   000271   00           DB 0
   \   000272   34           DB 52
   \   000273   4C           DB 76
   \   000274   82           DB 130
   \   000275   80           DB 128
   \   000276   80           DB 128
   \   000277   80           DB 128
   \   000278   8E           DB 142
   \   000279   84           DB 132
   \   00027A   84           DB 132
   \   00027B   84           DB 132
   \   00027C   4C           DB 76
   \   00027D   34           DB 52
   \   00027E   00           DB 0
   \   00027F   00           DB 0
   \   000280   00           DB 0
   \   000281   00           DB 0
   \   000282   EE           DB 238
   \   000283   44           DB 68
   \   000284   44           DB 68
   \   000285   44           DB 68
   \   000286   44           DB 68
   \   000287   7C           DB 124
   \   000288   44           DB 68
   \   000289   44           DB 68
   \   00028A   44           DB 68
   \   00028B   44           DB 68
   \   00028C   44           DB 68
   \   00028D   EE           DB 238
   \   00028E   00           DB 0
   \   00028F   00           DB 0
   \   000290   00           DB 0
   \   000291   00           DB 0
   \   000292   7C           DB 124
   \   000293   10           DB 16
   \   000294   10           DB 16
   \   000295   10           DB 16
   \   000296   10           DB 16
   \   000297   10           DB 16
   \   000298   10           DB 16
   \   000299   10           DB 16
   \   00029A   10           DB 16
   \   00029B   10           DB 16
   \   00029C   10           DB 16
   \   00029D   7C           DB 124
   \   00029E   00           DB 0
   \   00029F   00           DB 0
   \   0002A0   00           DB 0
   \   0002A1   00           DB 0
   \   0002A2   3E           DB 62
   \   0002A3   08           DB 8
   \   0002A4   08           DB 8
   \   0002A5   08           DB 8
   \   0002A6   08           DB 8
   \   0002A7   08           DB 8
   \   0002A8   08           DB 8
   \   0002A9   08           DB 8
   \   0002AA   08           DB 8
   \   0002AB   88           DB 136
   \   0002AC   88           DB 136
   \   0002AD   70           DB 112
   \   0002AE   00           DB 0
   \   0002AF   00           DB 0
   \   0002B0   00           DB 0
   \   0002B1   00           DB 0
   \   0002B2   EE           DB 238
   \   0002B3   44           DB 68
   \   0002B4   48           DB 72
   \   0002B5   48           DB 72
   \   0002B6   50           DB 80
   \   0002B7   60           DB 96
   \   0002B8   50           DB 80
   \   0002B9   48           DB 72
   \   0002BA   48           DB 72
   \   0002BB   44           DB 68
   \   0002BC   44           DB 68
   \   0002BD   EE           DB 238
   \   0002BE   00           DB 0
   \   0002BF   00           DB 0
   \   0002C0   00           DB 0
   \   0002C1   00           DB 0
   \   0002C2   E0           DB 224
   \   0002C3   40           DB 64
   \   0002C4   40           DB 64
   \   0002C5   40           DB 64
   \   0002C6   40           DB 64
   \   0002C7   40           DB 64
   \   0002C8   40           DB 64
   \   0002C9   40           DB 64
   \   0002CA   40           DB 64
   \   0002CB   42           DB 66
   \   0002CC   44           DB 68
   \   0002CD   FC           DB 252
   \   0002CE   00           DB 0
   \   0002CF   00           DB 0
   \   0002D0   00           DB 0
   \   0002D1   00           DB 0
   \   0002D2   C6           DB 198
   \   0002D3   44           DB 68
   \   0002D4   6C           DB 108
   \   0002D5   6C           DB 108
   \   0002D6   6C           DB 108
   \   0002D7   54           DB 84
   \   0002D8   54           DB 84
   \   0002D9   54           DB 84
   \   0002DA   44           DB 68
   \   0002DB   44           DB 68
   \   0002DC   44           DB 68
   \   0002DD   EE           DB 238
   \   0002DE   00           DB 0
   \   0002DF   00           DB 0
   \   0002E0   00           DB 0
   \   0002E1   00           DB 0
   \   0002E2   CE           DB 206
   \   0002E3   44           DB 68
   \   0002E4   64           DB 100
   \   0002E5   64           DB 100
   \   0002E6   64           DB 100
   \   0002E7   54           DB 84
   \   0002E8   54           DB 84
   \   0002E9   4C           DB 76
   \   0002EA   4C           DB 76
   \   0002EB   4C           DB 76
   \   0002EC   44           DB 68
   \   0002ED   E4           DB 228
   \   0002EE   00           DB 0
   \   0002EF   00           DB 0
   \   0002F0   00           DB 0
   \   0002F1   00           DB 0
   \   0002F2   38           DB 56
   \   0002F3   44           DB 68
   \   0002F4   82           DB 130
   \   0002F5   82           DB 130
   \   0002F6   82           DB 130
   \   0002F7   82           DB 130
   \   0002F8   82           DB 130
   \   0002F9   82           DB 130
   \   0002FA   82           DB 130
   \   0002FB   82           DB 130
   \   0002FC   44           DB 68
   \   0002FD   38           DB 56
   \   0002FE   00           DB 0
   \   0002FF   00           DB 0
   \   000300   00           DB 0
   \   000301   00           DB 0
   \   000302   F8           DB 248
   \   000303   44           DB 68
   \   000304   42           DB 66
   \   000305   42           DB 66
   \   000306   42           DB 66
   \   000307   44           DB 68
   \   000308   78           DB 120
   \   000309   40           DB 64
   \   00030A   40           DB 64
   \   00030B   40           DB 64
   \   00030C   40           DB 64
   \   00030D   E0           DB 224
   \   00030E   00           DB 0
   \   00030F   00           DB 0
   \   000310   00           DB 0
   \   000311   00           DB 0
   \   000312   38           DB 56
   \   000313   44           DB 68
   \   000314   82           DB 130
   \   000315   82           DB 130
   \   000316   82           DB 130
   \   000317   82           DB 130
   \   000318   82           DB 130
   \   000319   82           DB 130
   \   00031A   82           DB 130
   \   00031B   BA           DB 186
   \   00031C   44           DB 68
   \   00031D   3C           DB 60
   \   00031E   02           DB 2
   \   00031F   00           DB 0
   \   000320   00           DB 0
   \   000321   00           DB 0
   \   000322   F0           DB 240
   \   000323   48           DB 72
   \   000324   44           DB 68
   \   000325   44           DB 68
   \   000326   44           DB 68
   \   000327   48           DB 72
   \   000328   70           DB 112
   \   000329   48           DB 72
   \   00032A   44           DB 68
   \   00032B   44           DB 68
   \   00032C   44           DB 68
   \   00032D   E6           DB 230
   \   00032E   00           DB 0
   \   00032F   00           DB 0
   \   000330   00           DB 0
   \   000331   00           DB 0
   \   000332   3C           DB 60
   \   000333   44           DB 68
   \   000334   82           DB 130
   \   000335   80           DB 128
   \   000336   40           DB 64
   \   000337   30           DB 48
   \   000338   0C           DB 12
   \   000339   02           DB 2
   \   00033A   02           DB 2
   \   00033B   82           DB 130
   \   00033C   44           DB 68
   \   00033D   78           DB 120
   \   00033E   00           DB 0
   \   00033F   00           DB 0
   \   000340   00           DB 0
   \   000341   00           DB 0
   \   000342   7C           DB 124
   \   000343   54           DB 84
   \   000344   92           DB 146
   \   000345   10           DB 16
   \   000346   10           DB 16
   \   000347   10           DB 16
   \   000348   10           DB 16
   \   000349   10           DB 16
   \   00034A   10           DB 16
   \   00034B   10           DB 16
   \   00034C   10           DB 16
   \   00034D   38           DB 56
   \   00034E   00           DB 0
   \   00034F   00           DB 0
   \   000350   00           DB 0
   \   000351   00           DB 0
   \   000352   EE           DB 238
   \   000353   44           DB 68
   \   000354   44           DB 68
   \   000355   44           DB 68
   \   000356   44           DB 68
   \   000357   44           DB 68
   \   000358   44           DB 68
   \   000359   44           DB 68
   \   00035A   44           DB 68
   \   00035B   44           DB 68
   \   00035C   44           DB 68
   \   00035D   38           DB 56
   \   00035E   00           DB 0
   \   00035F   00           DB 0
   \   000360   00           DB 0
   \   000361   00           DB 0
   \   000362   EE           DB 238
   \   000363   44           DB 68
   \   000364   44           DB 68
   \   000365   44           DB 68
   \   000366   44           DB 68
   \   000367   28           DB 40
   \   000368   28           DB 40
   \   000369   28           DB 40
   \   00036A   28           DB 40
   \   00036B   10           DB 16
   \   00036C   10           DB 16
   \   00036D   10           DB 16
   \   00036E   00           DB 0
   \   00036F   00           DB 0
   \   000370   00           DB 0
   \   000371   00           DB 0
   \   000372   EE           DB 238
   \   000373   44           DB 68
   \   000374   54           DB 84
   \   000375   54           DB 84
   \   000376   54           DB 84
   \   000377   54           DB 84
   \   000378   54           DB 84
   \   000379   54           DB 84
   \   00037A   28           DB 40
   \   00037B   28           DB 40
   \   00037C   28           DB 40
   \   00037D   28           DB 40
   \   00037E   00           DB 0
   \   00037F   00           DB 0
   \   000380   00           DB 0
   \   000381   00           DB 0
   \   000382   EE           DB 238
   \   000383   44           DB 68
   \   000384   44           DB 68
   \   000385   28           DB 40
   \   000386   28           DB 40
   \   000387   10           DB 16
   \   000388   10           DB 16
   \   000389   28           DB 40
   \   00038A   28           DB 40
   \   00038B   44           DB 68
   \   00038C   44           DB 68
   \   00038D   EE           DB 238
   \   00038E   00           DB 0
   \   00038F   00           DB 0
   \   000390   00           DB 0
   \   000391   00           DB 0
   \   000392   EE           DB 238
   \   000393   44           DB 68
   \   000394   44           DB 68
   \   000395   28           DB 40
   \   000396   28           DB 40
   \   000397   28           DB 40
   \   000398   10           DB 16
   \   000399   10           DB 16
   \   00039A   10           DB 16
   \   00039B   10           DB 16
   \   00039C   10           DB 16
   \   00039D   38           DB 56
   \   00039E   00           DB 0
   \   00039F   00           DB 0
   \   0003A0   00           DB 0
   \   0003A1   00           DB 0
   \   0003A2   7E           DB 126
   \   0003A3   44           DB 68
   \   0003A4   84           DB 132
   \   0003A5   08           DB 8
   \   0003A6   08           DB 8
   \   0003A7   10           DB 16
   \   0003A8   20           DB 32
   \   0003A9   20           DB 32
   \   0003AA   40           DB 64
   \   0003AB   82           DB 130
   \   0003AC   84           DB 132
   \   0003AD   FC           DB 252
   \   0003AE   00           DB 0
   \   0003AF   00           DB 0
   \   0003B0   00           DB 0
   \   0003B1   1C           DB 28
   \   0003B2   10           DB 16
   \   0003B3   10           DB 16
   \   0003B4   10           DB 16
   \   0003B5   10           DB 16
   \   0003B6   10           DB 16
   \   0003B7   10           DB 16
   \   0003B8   10           DB 16
   \   0003B9   10           DB 16
   \   0003BA   10           DB 16
   \   0003BB   10           DB 16
   \   0003BC   10           DB 16
   \   0003BD   10           DB 16
   \   0003BE   1C           DB 28
   \   0003BF   00           DB 0
   \   0003C0   00           DB 0
   \   0003C1   00           DB 0
   \   0003C2   EE           DB 238
   \   0003C3   44           DB 68
   \   0003C4   54           DB 84
   \   0003C5   54           DB 84
   \   0003C6   FE           DB 254
   \   0003C7   54           DB 84
   \   0003C8   54           DB 84
   \   0003C9   54           DB 84
   \   0003CA   28           DB 40
   \   0003CB   28           DB 40
   \   0003CC   28           DB 40
   \   0003CD   28           DB 40
   \   0003CE   00           DB 0
   \   0003CF   00           DB 0
   \   0003D0   00           DB 0
   \   0003D1   70           DB 112
   \   0003D2   10           DB 16
   \   0003D3   10           DB 16
   \   0003D4   10           DB 16
   \   0003D5   10           DB 16
   \   0003D6   10           DB 16
   \   0003D7   10           DB 16
   \   0003D8   10           DB 16
   \   0003D9   10           DB 16
   \   0003DA   10           DB 16
   \   0003DB   10           DB 16
   \   0003DC   10           DB 16
   \   0003DD   10           DB 16
   \   0003DE   70           DB 112
   \   0003DF   00           DB 0
   \   0003E0   00           DB 0
   \   0003E1   30           DB 48
   \   0003E2   48           DB 72
   \   0003E3   84           DB 132
   \   0003E4   00           DB 0
   \   0003E5   00           DB 0
   \   0003E6   00           DB 0
   \   0003E7   00           DB 0
   \   0003E8   00           DB 0
   \   0003E9   00           DB 0
   \   0003EA   00           DB 0
   \   0003EB   00           DB 0
   \   0003EC   00           DB 0
   \   0003ED   00           DB 0
   \   0003EE   00           DB 0
   \   0003EF   00           DB 0
   \   0003F0   00           DB 0
   \   0003F1   00           DB 0
   \   0003F2   00           DB 0
   \   0003F3   00           DB 0
   \   0003F4   00           DB 0
   \   0003F5   00           DB 0
   \   0003F6   00           DB 0
   \   0003F7   00           DB 0
   \   0003F8   00           DB 0
   \   0003F9   00           DB 0
   \   0003FA   00           DB 0
   \   0003FB   00           DB 0
   \   0003FC   00           DB 0
   \   0003FD   00           DB 0
   \   0003FE   FE           DB 254
   \   0003FF   00           DB 0
   \   000400   00           DB 0
   \   000401   40           DB 64
   \   000402   20           DB 32
   \   000403   00           DB 0
   \   000404   00           DB 0
   \   000405   00           DB 0
   \   000406   00           DB 0
   \   000407   00           DB 0
   \   000408   00           DB 0
   \   000409   00           DB 0
   \   00040A   00           DB 0
   \   00040B   00           DB 0
   \   00040C   00           DB 0
   \   00040D   00           DB 0
   \   00040E   00           DB 0
   \   00040F   00           DB 0
   \   000410   00           DB 0
   \   000411   00           DB 0
   \   000412   00           DB 0
   \   000413   00           DB 0
   \   000414   00           DB 0
   \   000415   00           DB 0
   \   000416   78           DB 120
   \   000417   84           DB 132
   \   000418   04           DB 4
   \   000419   7C           DB 124
   \   00041A   84           DB 132
   \   00041B   84           DB 132
   \   00041C   8C           DB 140
   \   00041D   76           DB 118
   \   00041E   00           DB 0
   \   00041F   00           DB 0
   \   000420   00           DB 0
   \   000421   00           DB 0
   \   000422   C0           DB 192
   \   000423   40           DB 64
   \   000424   40           DB 64
   \   000425   40           DB 64
   \   000426   58           DB 88
   \   000427   64           DB 100
   \   000428   42           DB 66
   \   000429   42           DB 66
   \   00042A   42           DB 66
   \   00042B   42           DB 66
   \   00042C   64           DB 100
   \   00042D   58           DB 88
   \   00042E   00           DB 0
   \   00042F   00           DB 0
   \   000430   00           DB 0
   \   000431   00           DB 0
   \   000432   00           DB 0
   \   000433   00           DB 0
   \   000434   00           DB 0
   \   000435   00           DB 0
   \   000436   38           DB 56
   \   000437   44           DB 68
   \   000438   80           DB 128
   \   000439   80           DB 128
   \   00043A   80           DB 128
   \   00043B   80           DB 128
   \   00043C   44           DB 68
   \   00043D   38           DB 56
   \   00043E   00           DB 0
   \   00043F   00           DB 0
   \   000440   00           DB 0
   \   000441   00           DB 0
   \   000442   0C           DB 12
   \   000443   04           DB 4
   \   000444   04           DB 4
   \   000445   04           DB 4
   \   000446   34           DB 52
   \   000447   4C           DB 76
   \   000448   84           DB 132
   \   000449   84           DB 132
   \   00044A   84           DB 132
   \   00044B   84           DB 132
   \   00044C   4C           DB 76
   \   00044D   36           DB 54
   \   00044E   00           DB 0
   \   00044F   00           DB 0
   \   000450   00           DB 0
   \   000451   00           DB 0
   \   000452   00           DB 0
   \   000453   00           DB 0
   \   000454   00           DB 0
   \   000455   00           DB 0
   \   000456   78           DB 120
   \   000457   84           DB 132
   \   000458   84           DB 132
   \   000459   FC           DB 252
   \   00045A   80           DB 128
   \   00045B   80           DB 128
   \   00045C   84           DB 132
   \   00045D   78           DB 120
   \   00045E   00           DB 0
   \   00045F   00           DB 0
   \   000460   00           DB 0
   \   000461   00           DB 0
   \   000462   18           DB 24
   \   000463   24           DB 36
   \   000464   20           DB 32
   \   000465   20           DB 32
   \   000466   F8           DB 248
   \   000467   20           DB 32
   \   000468   20           DB 32
   \   000469   20           DB 32
   \   00046A   20           DB 32
   \   00046B   20           DB 32
   \   00046C   20           DB 32
   \   00046D   70           DB 112
   \   00046E   00           DB 0
   \   00046F   00           DB 0
   \   000470   00           DB 0
   \   000471   00           DB 0
   \   000472   00           DB 0
   \   000473   00           DB 0
   \   000474   00           DB 0
   \   000475   00           DB 0
   \   000476   3A           DB 58
   \   000477   44           DB 68
   \   000478   44           DB 68
   \   000479   78           DB 120
   \   00047A   80           DB 128
   \   00047B   7C           DB 124
   \   00047C   82           DB 130
   \   00047D   82           DB 130
   \   00047E   7C           DB 124
   \   00047F   00           DB 0
   \   000480   00           DB 0
   \   000481   00           DB 0
   \   000482   C0           DB 192
   \   000483   40           DB 64
   \   000484   40           DB 64
   \   000485   40           DB 64
   \   000486   58           DB 88
   \   000487   64           DB 100
   \   000488   44           DB 68
   \   000489   44           DB 68
   \   00048A   44           DB 68
   \   00048B   44           DB 68
   \   00048C   44           DB 68
   \   00048D   EE           DB 238
   \   00048E   00           DB 0
   \   00048F   00           DB 0
   \   000490   00           DB 0
   \   000491   00           DB 0
   \   000492   10           DB 16
   \   000493   10           DB 16
   \   000494   00           DB 0
   \   000495   00           DB 0
   \   000496   30           DB 48
   \   000497   10           DB 16
   \   000498   10           DB 16
   \   000499   10           DB 16
   \   00049A   10           DB 16
   \   00049B   10           DB 16
   \   00049C   10           DB 16
   \   00049D   38           DB 56
   \   00049E   00           DB 0
   \   00049F   00           DB 0
   \   0004A0   00           DB 0
   \   0004A1   00           DB 0
   \   0004A2   10           DB 16
   \   0004A3   10           DB 16
   \   0004A4   00           DB 0
   \   0004A5   00           DB 0
   \   0004A6   30           DB 48
   \   0004A7   10           DB 16
   \   0004A8   10           DB 16
   \   0004A9   10           DB 16
   \   0004AA   10           DB 16
   \   0004AB   10           DB 16
   \   0004AC   10           DB 16
   \   0004AD   90           DB 144
   \   0004AE   60           DB 96
   \   0004AF   00           DB 0
   \   0004B0   00           DB 0
   \   0004B1   00           DB 0
   \   0004B2   C0           DB 192
   \   0004B3   40           DB 64
   \   0004B4   40           DB 64
   \   0004B5   40           DB 64
   \   0004B6   5C           DB 92
   \   0004B7   48           DB 72
   \   0004B8   50           DB 80
   \   0004B9   60           DB 96
   \   0004BA   50           DB 80
   \   0004BB   48           DB 72
   \   0004BC   44           DB 68
   \   0004BD   EE           DB 238
   \   0004BE   00           DB 0
   \   0004BF   00           DB 0
   \   0004C0   00           DB 0
   \   0004C1   00           DB 0
   \   0004C2   30           DB 48
   \   0004C3   10           DB 16
   \   0004C4   10           DB 16
   \   0004C5   10           DB 16
   \   0004C6   10           DB 16
   \   0004C7   11           DB 17
   \   0004C8   10           DB 16
   \   0004C9   10           DB 16
   \   0004CA   10           DB 16
   \   0004CB   10           DB 16
   \   0004CC   10           DB 16
   \   0004CD   39           DB 57
   \   0004CE   00           DB 0
   \   0004CF   00           DB 0
   \   0004D0   00           DB 0
   \   0004D1   00           DB 0
   \   0004D2   00           DB 0
   \   0004D3   00           DB 0
   \   0004D4   00           DB 0
   \   0004D5   00           DB 0
   \   0004D6   AC           DB 172
   \   0004D7   D2           DB 210
   \   0004D8   92           DB 146
   \   0004D9   92           DB 146
   \   0004DA   92           DB 146
   \   0004DB   92           DB 146
   \   0004DC   92           DB 146
   \   0004DD   D6           DB 214
   \   0004DE   00           DB 0
   \   0004DF   00           DB 0
   \   0004E0   00           DB 0
   \   0004E1   00           DB 0
   \   0004E2   00           DB 0
   \   0004E3   00           DB 0
   \   0004E4   00           DB 0
   \   0004E5   00           DB 0
   \   0004E6   58           DB 88
   \   0004E7   E4           DB 228
   \   0004E8   44           DB 68
   \   0004E9   44           DB 68
   \   0004EA   44           DB 68
   \   0004EB   44           DB 68
   \   0004EC   44           DB 68
   \   0004ED   EE           DB 238
   \   0004EE   00           DB 0
   \   0004EF   00           DB 0
   \   0004F0   00           DB 0
   \   0004F1   00           DB 0
   \   0004F2   00           DB 0
   \   0004F3   00           DB 0
   \   0004F4   00           DB 0
   \   0004F5   00           DB 0
   \   0004F6   38           DB 56
   \   0004F7   44           DB 68
   \   0004F8   82           DB 130
   \   0004F9   82           DB 130
   \   0004FA   82           DB 130
   \   0004FB   82           DB 130
   \   0004FC   44           DB 68
   \   0004FD   38           DB 56
   \   0004FE   00           DB 0
   \   0004FF   00           DB 0
   \   000500   00           DB 0
   \   000501   00           DB 0
   \   000502   00           DB 0
   \   000503   00           DB 0
   \   000504   00           DB 0
   \   000505   00           DB 0
   \   000506   D8           DB 216
   \   000507   64           DB 100
   \   000508   42           DB 66
   \   000509   42           DB 66
   \   00050A   42           DB 66
   \   00050B   64           DB 100
   \   00050C   58           DB 88
   \   00050D   40           DB 64
   \   00050E   E0           DB 224
   \   00050F   00           DB 0
   \   000510   00           DB 0
   \   000511   00           DB 0
   \   000512   00           DB 0
   \   000513   00           DB 0
   \   000514   00           DB 0
   \   000515   00           DB 0
   \   000516   36           DB 54
   \   000517   4C           DB 76
   \   000518   84           DB 132
   \   000519   84           DB 132
   \   00051A   84           DB 132
   \   00051B   4C           DB 76
   \   00051C   34           DB 52
   \   00051D   04           DB 4
   \   00051E   0E           DB 14
   \   00051F   00           DB 0
   \   000520   00           DB 0
   \   000521   00           DB 0
   \   000522   00           DB 0
   \   000523   00           DB 0
   \   000524   00           DB 0
   \   000525   00           DB 0
   \   000526   6C           DB 108
   \   000527   30           DB 48
   \   000528   20           DB 32
   \   000529   20           DB 32
   \   00052A   20           DB 32
   \   00052B   20           DB 32
   \   00052C   20           DB 32
   \   00052D   70           DB 112
   \   00052E   00           DB 0
   \   00052F   00           DB 0
   \   000530   00           DB 0
   \   000531   00           DB 0
   \   000532   00           DB 0
   \   000533   00           DB 0
   \   000534   00           DB 0
   \   000535   00           DB 0
   \   000536   78           DB 120
   \   000537   88           DB 136
   \   000538   84           DB 132
   \   000539   60           DB 96
   \   00053A   18           DB 24
   \   00053B   84           DB 132
   \   00053C   44           DB 68
   \   00053D   78           DB 120
   \   00053E   00           DB 0
   \   00053F   00           DB 0
   \   000540   00           DB 0
   \   000541   00           DB 0
   \   000542   00           DB 0
   \   000543   20           DB 32
   \   000544   20           DB 32
   \   000545   20           DB 32
   \   000546   F8           DB 248
   \   000547   20           DB 32
   \   000548   20           DB 32
   \   000549   20           DB 32
   \   00054A   20           DB 32
   \   00054B   20           DB 32
   \   00054C   24           DB 36
   \   00054D   18           DB 24
   \   00054E   00           DB 0
   \   00054F   00           DB 0
   \   000550   00           DB 0
   \   000551   00           DB 0
   \   000552   00           DB 0
   \   000553   00           DB 0
   \   000554   00           DB 0
   \   000555   00           DB 0
   \   000556   C6           DB 198
   \   000557   42           DB 66
   \   000558   42           DB 66
   \   000559   42           DB 66
   \   00055A   42           DB 66
   \   00055B   42           DB 66
   \   00055C   46           DB 70
   \   00055D   3A           DB 58
   \   00055E   00           DB 0
   \   00055F   00           DB 0
   \   000560   00           DB 0
   \   000561   00           DB 0
   \   000562   00           DB 0
   \   000563   00           DB 0
   \   000564   00           DB 0
   \   000565   00           DB 0
   \   000566   EE           DB 238
   \   000567   44           DB 68
   \   000568   44           DB 68
   \   000569   28           DB 40
   \   00056A   28           DB 40
   \   00056B   28           DB 40
   \   00056C   10           DB 16
   \   00056D   10           DB 16
   \   00056E   00           DB 0
   \   00056F   00           DB 0
   \   000570   00           DB 0
   \   000571   00           DB 0
   \   000572   00           DB 0
   \   000573   00           DB 0
   \   000574   00           DB 0
   \   000575   00           DB 0
   \   000576   EE           DB 238
   \   000577   44           DB 68
   \   000578   44           DB 68
   \   000579   54           DB 84
   \   00057A   54           DB 84
   \   00057B   28           DB 40
   \   00057C   28           DB 40
   \   00057D   28           DB 40
   \   00057E   00           DB 0
   \   00057F   00           DB 0
   \   000580   00           DB 0
   \   000581   00           DB 0
   \   000582   00           DB 0
   \   000583   00           DB 0
   \   000584   00           DB 0
   \   000585   00           DB 0
   \   000586   EE           DB 238
   \   000587   44           DB 68
   \   000588   28           DB 40
   \   000589   10           DB 16
   \   00058A   10           DB 16
   \   00058B   28           DB 40
   \   00058C   44           DB 68
   \   00058D   EE           DB 238
   \   00058E   00           DB 0
   \   00058F   00           DB 0
   \   000590   00           DB 0
   \   000591   00           DB 0
   \   000592   00           DB 0
   \   000593   00           DB 0
   \   000594   00           DB 0
   \   000595   00           DB 0
   \   000596   EE           DB 238
   \   000597   44           DB 68
   \   000598   44           DB 68
   \   000599   28           DB 40
   \   00059A   28           DB 40
   \   00059B   10           DB 16
   \   00059C   10           DB 16
   \   00059D   A0           DB 160
   \   00059E   C0           DB 192
   \   00059F   00           DB 0
   \   0005A0   00           DB 0
   \   0005A1   00           DB 0
   \   0005A2   00           DB 0
   \   0005A3   00           DB 0
   \   0005A4   00           DB 0
   \   0005A5   00           DB 0
   \   0005A6   7E           DB 126
   \   0005A7   44           DB 68
   \   0005A8   88           DB 136
   \   0005A9   10           DB 16
   \   0005AA   20           DB 32
   \   0005AB   42           DB 66
   \   0005AC   84           DB 132
   \   0005AD   FC           DB 252
   \   0005AE   00           DB 0
   \   0005AF   00           DB 0
   \   0005B0   00           DB 0
   \   0005B1   0C           DB 12
   \   0005B2   10           DB 16
   \   0005B3   10           DB 16
   \   0005B4   10           DB 16
   \   0005B5   10           DB 16
   \   0005B6   10           DB 16
   \   0005B7   60           DB 96
   \   0005B8   10           DB 16
   \   0005B9   10           DB 16
   \   0005BA   10           DB 16
   \   0005BB   10           DB 16
   \   0005BC   10           DB 16
   \   0005BD   10           DB 16
   \   0005BE   0C           DB 12
   \   0005BF   00           DB 0
   \   0005C0   00           DB 0
   \   0005C1   10           DB 16
   \   0005C2   10           DB 16
   \   0005C3   10           DB 16
   \   0005C4   10           DB 16
   \   0005C5   10           DB 16
   \   0005C6   10           DB 16
   \   0005C7   10           DB 16
   \   0005C8   10           DB 16
   \   0005C9   10           DB 16
   \   0005CA   10           DB 16
   \   0005CB   10           DB 16
   \   0005CC   10           DB 16
   \   0005CD   10           DB 16
   \   0005CE   10           DB 16
   \   0005CF   00           DB 0
   \   0005D0   00           DB 0
   \   0005D1   C0           DB 192
   \   0005D2   20           DB 32
   \   0005D3   20           DB 32
   \   0005D4   20           DB 32
   \   0005D5   20           DB 32
   \   0005D6   20           DB 32
   \   0005D7   18           DB 24
   \   0005D8   20           DB 32
   \   0005D9   20           DB 32
   \   0005DA   20           DB 32
   \   0005DB   20           DB 32
   \   0005DC   20           DB 32
   \   0005DD   20           DB 32
   \   0005DE   C0           DB 192
   \   0005DF   00           DB 0
   \   0005E0   00           DB 0
   \   0005E1   00           DB 0
   \   0005E2   00           DB 0
   \   0005E3   00           DB 0
   \   0005E4   00           DB 0
   \   0005E5   00           DB 0
   \   0005E6   00           DB 0
   \   0005E7   72           DB 114
   \   0005E8   8C           DB 140
   \   0005E9   00           DB 0
   \   0005EA   00           DB 0
   \   0005EB   00           DB 0
   \   0005EC   00           DB 0
   \   0005ED   00           DB 0
   \   0005EE   00           DB 0
   \   0005EF   00           DB 0
     11          #include "font_chinese_h_16x16.h"

   \                                 In  segment XDATA_ROM_C, align 1
   \   static struct <unnamed> const __xdata_rom FontTable_Chinese_H_16X16[4]
   \                     FontTable_Chinese_H_16X16:
   \   000000   BDF1         DB 0BDH, 0F1H
   \   000002   01           DB 1
   \   000003   00           DB 0
   \   000004   01           DB 1
   \   000005   00           DB 0
   \   000006   02           DB 2
   \   000007   80           DB 128
   \   000008   04           DB 4
   \   000009   40           DB 64
   \   00000A   08           DB 8
   \   00000B   20           DB 32
   \   00000C   12           DB 18
   \   00000D   10           DB 16
   \   00000E   21           DB 33
   \   00000F   08           DB 8
   \   000010   C1           DB 193
   \   000011   06           DB 6
   \   000012   00           DB 0
   \   000013   00           DB 0
   \   000014   1F           DB 31
   \   000015   F0           DB 240
   \   000016   00           DB 0
   \   000017   10           DB 16
   \   000018   00           DB 0
   \   000019   20           DB 32
   \   00001A   00           DB 0
   \   00001B   20           DB 32
   \   00001C   00           DB 0
   \   00001D   40           DB 64
   \   00001E   00           DB 0
   \   00001F   80           DB 128
   \   000020   01           DB 1
   \   000021   00           DB 0
   \   000022   CCEC         DB 0CCH, 0ECH
   \   000024   00           DB 0
   \   000025   00           DB 0
   \   000026   3F           DB 63
   \   000027   F8           DB 248
   \   000028   01           DB 1
   \   000029   00           DB 0
   \   00002A   01           DB 1
   \   00002B   00           DB 0
   \   00002C   01           DB 1
   \   00002D   00           DB 0
   \   00002E   01           DB 1
   \   00002F   00           DB 0
   \   000030   FF           DB 255
   \   000031   FE           DB 254
   \   000032   01           DB 1
   \   000033   00           DB 0
   \   000034   02           DB 2
   \   000035   80           DB 128
   \   000036   02           DB 2
   \   000037   80           DB 128
   \   000038   04           DB 4
   \   000039   40           DB 64
   \   00003A   04           DB 4
   \   00003B   40           DB 64
   \   00003C   08           DB 8
   \   00003D   20           DB 32
   \   00003E   10           DB 16
   \   00003F   10           DB 16
   \   000040   20           DB 32
   \   000041   08           DB 8
   \   000042   C0           DB 192
   \   000043   06           DB 6
   \   000044   C6F8         DB 0C6H, 0F8H
   \   000046   10           DB 16
   \   000047   00           DB 0
   \   000048   10           DB 16
   \   000049   00           DB 0
   \   00004A   3F           DB 63
   \   00004B   FC           DB 252
   \   00004C   20           DB 32
   \   00004D   00           DB 0
   \   00004E   4F           DB 79
   \   00004F   F0           DB 240
   \   000050   80           DB 128
   \   000051   00           DB 0
   \   000052   3F           DB 63
   \   000053   F0           DB 240
   \   000054   00           DB 0
   \   000055   10           DB 16
   \   000056   00           DB 0
   \   000057   10           DB 16
   \   000058   00           DB 0
   \   000059   10           DB 16
   \   00005A   00           DB 0
   \   00005B   10           DB 16
   \   00005C   00           DB 0
   \   00005D   10           DB 16
   \   00005E   00           DB 0
   \   00005F   0A           DB 10
   \   000060   00           DB 0
   \   000061   0A           DB 10
   \   000062   00           DB 0
   \   000063   06           DB 6
   \   000064   00           DB 0
   \   000065   02           DB 2
   \   000066   CEC2         DB 0CEH, 0C2H
   \   000068   00           DB 0
   \   000069   00           DB 0
   \   00006A   23           DB 35
   \   00006B   F8           DB 248
   \   00006C   12           DB 18
   \   00006D   08           DB 8
   \   00006E   12           DB 18
   \   00006F   08           DB 8
   \   000070   83           DB 131
   \   000071   F8           DB 248
   \   000072   42           DB 66
   \   000073   08           DB 8
   \   000074   42           DB 66
   \   000075   08           DB 8
   \   000076   13           DB 19
   \   000077   F8           DB 248
   \   000078   10           DB 16
   \   000079   00           DB 0
   \   00007A   27           DB 39
   \   00007B   FC           DB 252
   \   00007C   E4           DB 228
   \   00007D   A4           DB 164
   \   00007E   24           DB 36
   \   00007F   A4           DB 164
   \   000080   24           DB 36
   \   000081   A4           DB 164
   \   000082   24           DB 36
   \   000083   A4           DB 164
   \   000084   2F           DB 47
   \   000085   FE           DB 254
   \   000086   00           DB 0
   \   000087   00           DB 0
     12          #include "hal_delay.h"
     13          
     14          /* Write a uint16 data to TFT. */
     15          #define HAL_TFT_WRITE_UINT16(val) do {    \
     16              halLcdSpiTxData((uint8)((val) >> 8)); \
     17              halLcdSpiTxData((uint8)(val));        \
     18          } while(0)
     19                            
     20          static void halTFTReset(void);   
     21          
     22          #if (defined LCD_TYPE) && (LCD_TYPE == LCD_TFT096)
     23          static void ST7735RInit(void);
     24          
     25          static void halTFTSetRegion(uint16 xs, uint16 ys, uint16 xe, uint16 ye);
     26          #define HAL_TFT_SET_REGION(xs, ys, xe, ye)  halTFTSetRegion(xs, ys, xe, ye)
     27          #endif
     28          
     29          #if (defined LCD_TYPE) && (LCD_TYPE == LCD_IPS096_T1)
     30          #define ST7735S_FLAG_MY     (1 << 7)
     31          #define ST7735S_FLAG_MX     (1 << 6)
     32          #define ST7735S_FLAG_MV     (1 << 5)
     33          #define ST7735S_FLAG_ML     (1 << 4)
     34          #define ST7735S_FLAG_RGB    (1 << 3)
     35          #define ST7735S_FLAG_MH     (1 << 2)
     36          
     37          #define ST7735S_MADCTL_RGB           (ST7735S_FLAG_RGB)
     38          #define ST7735S_MADCTL_MY_MV_RGB     (ST7735S_FLAG_MY | ST7735S_FLAG_MV | ST7735S_FLAG_RGB)
     39          #define ST7735S_MADCTL_MY_MX_RGB     (ST7735S_FLAG_MY | ST7735S_FLAG_MX | ST7735S_FLAG_RGB)
     40          #define ST7735S_MADCTL_MX_MV_ML_RGB  (ST7735S_FLAG_MX | ST7735S_FLAG_MV | ST7735S_FLAG_ML | ST7735S_FLAG_RGB)
     41          
     42          #define ST7735S_MADCTL  ST7735S_MADCTL_MX_MV_ML_RGB
     43          
     44          static void ST7735SInit(uint8 madctl);
     45          
     46          static void halTFTSetRegion(uint8 madctl, uint16 xs, uint16 ys, uint16 xe, uint16 ye);
     47          #define HAL_TFT_SET_REGION(xs, ys, xe, ye)  halTFTSetRegion(ST7735S_MADCTL, xs, ys, xe, ye)
     48          #endif
     49          
     50          
     51          static void halTFTSetPosition(uint16 x, uint16 y);
     52          static void halTFTDrawPixel(uint16 xs, uint16 ys, uint16 color);
     53          static void halTFTShowChar8x16(uint16 x, uint16 y, uint16 fontColor, uint16 backgroundColor, uint8 ch);
     54          static void halTFTShowChineseChar16x16(uint16 x, uint16 y, uint16 fontColor, uint16 backgroundColor, uint8 chL, uint8 chR);
     55          

   \                                 In  segment BANKED_CODE, align 1, keep-with-next
     56          void halTFTInit(uint16 screenColor)
   \                     halTFTInit:
     57          {    
   \   000000                REQUIRE ?V0
   \   000000                REQUIRE ?V1
   \   000000   74F6         MOV       A,#-0xa
   \   000002   12....       LCALL     ?BANKED_ENTER_XDATA
   \   000005                ; Saved register size: 10
   \   000005                ; Auto size: 0
   \   000005   EA           MOV       A,R2
   \   000006   FE           MOV       R6,A
   \   000007   EB           MOV       A,R3
   \   000008   FF           MOV       R7,A
     58              /* Init SPI-GPIO */
     59              halLcdSpiInit();
   \   000009                ; Setup parameters for call to function halLcdSpiInit
   \   000009   12....       LCALL     `??halLcdSpiInit::?relay`; Banked call to: halLcdSpiInit
     60              
     61          #if (defined LCD_TYPE) && (LCD_TYPE == LCD_TFT096)
     62              ST7735RInit();
     63          #elif (defined LCD_TYPE) && (LCD_TYPE == LCD_IPS096_T1)
     64              ST7735SInit(ST7735S_MADCTL);
   \   00000C                ; Setup parameters for call to function ST7735SInit
   \   00000C   7978         MOV       R1,#0x78
   \   00000E   12....       LCALL     `??ST7735SInit::?relay`; Banked call to: ST7735SInit
     65          #else
     66              #error "Unknow LCD_TYPE."
     67          #endif
     68              
     69              /* Setting */
     70              halTFTSetPosition(0, 0);
   \   000011                ; Setup parameters for call to function halTFTSetRegion
   \   000011   E4           CLR       A
   \   000012   F5..         MOV       ?V0,A
   \   000014   F5..         MOV       ?V1,A
   \   000016   78..         MOV       R0,#?V0
   \   000018   12....       LCALL     ?PUSH_XSTACK_I_TWO
   \   00001B   78..         MOV       R0,#?V0
   \   00001D   12....       LCALL     ?PUSH_XSTACK_I_TWO
   \   000020   7C00         MOV       R4,#0x0
   \   000022   7D00         MOV       R5,#0x0
   \   000024   7A00         MOV       R2,#0x0
   \   000026   7B00         MOV       R3,#0x0
   \   000028   7978         MOV       R1,#0x78
   \   00002A   12....       LCALL     `??halTFTSetRegion::?relay`; Banked call to: halTFTSetRegion
   \   00002D   7404         MOV       A,#0x4
   \   00002F   12....       LCALL     ?DEALLOC_XSTACK8
     71              halTFTSetScreen(screenColor);
   \   000032                ; Setup parameters for call to function halTFTSetScreen
   \   000032   EE           MOV       A,R6
   \   000033   FA           MOV       R2,A
   \   000034   EF           MOV       A,R7
   \   000035   FB           MOV       R3,A
   \   000036   12....       LCALL     `??halTFTSetScreen::?relay`; Banked call to: halTFTSetScreen
     72          }
   \   000039                REQUIRE ?Subroutine0
   \   000039                ; // Fall through to label ?Subroutine0

   \                                 In  segment BANKED_CODE, align 1, keep-with-next
   \                     ?Subroutine0:
   \   000000   7F02         MOV       R7,#0x2
   \   000002   02....       LJMP      ?BANKED_LEAVE_XDATA
     73          

   \                                 In  segment BANKED_CODE, align 1, keep-with-next
     74          void halTFTSetScreen(uint16 pixelVal)
   \                     halTFTSetScreen:
     75          {
   \   000000                REQUIRE ?V0
   \   000000                REQUIRE ?V1
   \   000000   74F6         MOV       A,#-0xa
   \   000002   12....       LCALL     ?BANKED_ENTER_XDATA
   \   000005                ; Saved register size: 10
   \   000005                ; Auto size: 0
   \   000005   EA           MOV       A,R2
   \   000006   FE           MOV       R6,A
   \   000007   EB           MOV       A,R3
   \   000008   FF           MOV       R7,A
     76              uint16 x, y;
     77              
     78              HAL_TFT_SET_REGION(0, HAL_TFT_Y_OFFSET, HAL_TFT_X-1, HAL_TFT_Y-1);
   \   000009                ; Setup parameters for call to function halTFTSetRegion
   \   000009   75..4F       MOV       ?V0,#0x4f
   \   00000C   75..00       MOV       ?V1,#0x0
   \   00000F   78..         MOV       R0,#?V0
   \   000011   12....       LCALL     ?PUSH_XSTACK_I_TWO
   \   000014   75..9F       MOV       ?V0,#-0x61
   \   000017   78..         MOV       R0,#?V0
   \   000019   12....       LCALL     ?PUSH_XSTACK_I_TWO
   \   00001C   7C00         MOV       R4,#0x0
   \   00001E   7D00         MOV       R5,#0x0
   \   000020   7A00         MOV       R2,#0x0
   \   000022   7B00         MOV       R3,#0x0
   \   000024   7978         MOV       R1,#0x78
   \   000026   12....       LCALL     `??halTFTSetRegion::?relay`; Banked call to: halTFTSetRegion
   \   000029   7404         MOV       A,#0x4
   \   00002B   12....       LCALL     ?DEALLOC_XSTACK8
     79              
     80              for (x = 0; x < HAL_TFT_X; x++)
   \   00002E   75..A0       MOV       ?V1,#-0x60
     81                  for (y = HAL_TFT_Y_OFFSET; y < HAL_TFT_Y; y++) HAL_TFT_WRITE_UINT16(pixelVal);
   \                     ??halTFTSetScreen_0:
   \   000031   75..50       MOV       ?V0,#0x50
   \                     ??halTFTSetScreen_1:
   \   000034                ; Setup parameters for call to function halLcdSpiTxData
   \   000034   EF           MOV       A,R7
   \   000035   F9           MOV       R1,A
   \   000036   12....       LCALL     `??halLcdSpiTxData::?relay`; Banked call to: halLcdSpiTxData
   \   000039                ; Setup parameters for call to function halLcdSpiTxData
   \   000039   EE           MOV       A,R6
   \   00003A   F9           MOV       R1,A
   \   00003B   12....       LCALL     `??halLcdSpiTxData::?relay`; Banked call to: halLcdSpiTxData
   \   00003E   15..         DEC       ?V0
   \   000040   E5..         MOV       A,?V0
   \   000042   70F0         JNZ       ??halTFTSetScreen_1
   \   000044   15..         DEC       ?V1
   \   000046   E5..         MOV       A,?V1
   \   000048   70E7         JNZ       ??halTFTSetScreen_0
     82          }
   \   00004A   80..         SJMP      ?Subroutine0
     83          

   \                                 In  segment BANKED_CODE, align 1, keep-with-next
     84          void halTFTShowX16(uint16 x, uint16 y, uint16 fontColor, uint16 backgroundColor, const uint8 *str)
   \                     halTFTShowX16:
     85          {
   \   000000                REQUIRE ?V0
   \   000000                REQUIRE ?V1
   \   000000                REQUIRE ?V2
   \   000000                REQUIRE ?V3
   \   000000                REQUIRE ?V4
   \   000000                REQUIRE ?V5
   \   000000                REQUIRE ?V6
   \   000000                REQUIRE ?V7
   \   000000   74F0         MOV       A,#-0x10
   \   000002   12....       LCALL     ?BANKED_ENTER_XDATA
   \   000005                ; Saved register size: 16
   \   000005                ; Auto size: 2
   \   000005   74FE         MOV       A,#-0x2
   \   000007   12....       LCALL     ?ALLOC_XSTACK8
   \   00000A   85..82       MOV       DPL,?XSP + 0
   \   00000D   85..83       MOV       DPH,?XSP + 1
   \   000010   EC           MOV       A,R4
   \   000011   F0           MOVX      @DPTR,A
   \   000012   A3           INC       DPTR
   \   000013   ED           MOV       A,R5
   \   000014   F0           MOVX      @DPTR,A
   \   000015   8A..         MOV       ?V2,R2
   \   000017   8B..         MOV       ?V3,R3
   \   000019   7416         MOV       A,#0x16
   \   00001B   12....       LCALL     ?XSTACK_DISP0_8
   \   00001E   12....       LCALL     ?Subroutine3 & 0xFFFF
     86              if (!str) return;
   \                     ??CrossCallReturnLabel_2:
   \   000021   7003         JNZ       $+5
   \   000023   02....       LJMP      ??halTFTShowX16_0 & 0xFFFF
     87              
     88              y += HAL_TFT_Y_OFFSET;
     89              const uint8 *ptext = str; // text
   \   000026   7412         MOV       A,#0x12
   \   000028   12....       LCALL     ?XSTACK_DISP0_8
   \   00002B   12....       LCALL     ?Subroutine4 & 0xFFFF
   \                     ??CrossCallReturnLabel_4:
   \   00002E   7414         MOV       A,#0x14
   \   000030   12....       LCALL     ?XSTACK_DISP0_8
   \   000033   E0           MOVX      A,@DPTR
   \   000034   FE           MOV       R6,A
   \   000035   A3           INC       DPTR
   \   000036   E0           MOVX      A,@DPTR
   \   000037   FF           MOV       R7,A
   \   000038   802F         SJMP      ??halTFTShowX16_1
     90          
     91              /* Show text */
     92              while(*ptext != 0) {
     93                  /* ASCII Code: 0~127 */
     94                  if ((*ptext) < 128) {
     95                      /* End of line */
     96                      if((x + 8) > HAL_TFT_X) return;
     97                    
     98                      /* Show 8x16 ASCII Char. */
     99                      halTFTShowChar8x16(x, y, fontColor, backgroundColor, *ptext);
   \                     ??halTFTShowX16_2:
   \   00003A                ; Setup parameters for call to function halTFTShowChar8x16
   \   00003A   8E..         MOV       ?V6,R6
   \   00003C   8F..         MOV       ?V7,R7
   \   00003E   78..         MOV       R0,#?V6
   \   000040   12....       LCALL     ?PUSH_XSTACK_I_TWO
   \   000043   78..         MOV       R0,#?V0
   \   000045   12....       LCALL     ?PUSH_XSTACK_I_TWO
   \   000048   7404         MOV       A,#0x4
   \   00004A   12....       LCALL     ?XSTACK_DISP0_8
   \   00004D   12....       LCALL     ?Subroutine6 & 0xFFFF
   \                     ??CrossCallReturnLabel_9:
   \   000050   12....       LCALL     `??halTFTShowChar8x16::?relay`; Banked call to: halTFTShowChar8x16
   \   000053   7404         MOV       A,#0x4
   \   000055   12....       LCALL     ?DEALLOC_XSTACK8
    100                      x += 8;
   \   000058   E5..         MOV       A,?V2
   \   00005A   2408         ADD       A,#0x8
   \   00005C   F5..         MOV       ?V2,A
   \   00005E   E4           CLR       A
   \   00005F   35..         ADDC      A,?V3
   \   000061   F5..         MOV       ?V3,A
    101                      
    102                      ptext++;
   \   000063   85....       MOV       ?V6,?V4
   \   000066   85....       MOV       ?V7,?V5
   \                     ??halTFTShowX16_1:
   \   000069   85..82       MOV       DPL,?V6
   \   00006C   85..83       MOV       DPH,?V7
   \   00006F   E0           MOVX      A,@DPTR
   \   000070   F9           MOV       R1,A
   \   000071   605B         JZ        ??halTFTShowX16_0
   \   000073   A3           INC       DPTR
   \   000074   8582..       MOV       ?V4,DPL
   \   000077   8583..       MOV       ?V5,DPH
   \   00007A   C3           CLR       C
   \   00007B   9480         SUBB      A,#-0x80
   \   00007D   E5..         MOV       A,?V2
   \   00007F   5009         JNC       ??halTFTShowX16_3
   \   000081   2408         ADD       A,#0x8
   \   000083   12....       LCALL     ?Subroutine8 & 0xFFFF
   \                     ??CrossCallReturnLabel_13:
   \   000086   40B2         JC        ??halTFTShowX16_2
   \   000088   8044         SJMP      ??halTFTShowX16_0
    103                  }
    104                  /* Chinese 16x16 characters */
    105                  else {
    106                      /* End of line */
    107                      if((x + 16) > HAL_TFT_X) return;
   \                     ??halTFTShowX16_3:
   \   00008A   2410         ADD       A,#0x10
   \   00008C   12....       LCALL     ?Subroutine8 & 0xFFFF
   \                     ??CrossCallReturnLabel_14:
   \   00008F   503D         JNC       ??halTFTShowX16_0
    108                      
    109                      halTFTShowChineseChar16x16(x, y, fontColor, backgroundColor, *ptext, *(ptext + 1));
   \   000091                ; Setup parameters for call to function halTFTShowChineseChar16x16
   \   000091   E0           MOVX      A,@DPTR
   \   000092   F5..         MOV       ?V4,A
   \   000094   78..         MOV       R0,#?V4
   \   000096   12....       LCALL     ?PUSH_XSTACK_I_ONE
   \   000099   8E..         MOV       ?V4,R6
   \   00009B   8F..         MOV       ?V5,R7
   \   00009D   78..         MOV       R0,#?V4
   \   00009F   12....       LCALL     ?PUSH_XSTACK_I_TWO
   \   0000A2   78..         MOV       R0,#?V0
   \   0000A4   12....       LCALL     ?PUSH_XSTACK_I_TWO
   \   0000A7   7405         MOV       A,#0x5
   \   0000A9   12....       LCALL     ?XSTACK_DISP0_8
   \   0000AC   12....       LCALL     ?Subroutine6 & 0xFFFF
   \                     ??CrossCallReturnLabel_10:
   \   0000AF   12....       LCALL     `??halTFTShowChineseChar16x16::?relay`; Banked call to: halTFTShowChineseChar16x16
   \   0000B2   7405         MOV       A,#0x5
   \   0000B4   12....       LCALL     ?DEALLOC_XSTACK8
    110                      
    111                      x += 16;
   \   0000B7   E5..         MOV       A,?V2
   \   0000B9   2410         ADD       A,#0x10
   \   0000BB   F5..         MOV       ?V2,A
   \   0000BD   E4           CLR       A
   \   0000BE   35..         ADDC      A,?V3
   \   0000C0   F5..         MOV       ?V3,A
    112                      
    113                      ptext += 2;
   \   0000C2   E5..         MOV       A,?V6
   \   0000C4   2402         ADD       A,#0x2
   \   0000C6   F5..         MOV       ?V6,A
   \   0000C8   509F         JNC       ??halTFTShowX16_1
   \   0000CA   05..         INC       ?V7
   \   0000CC   809B         SJMP      ??halTFTShowX16_1
    114                  }
    115              } /* while(*ptext != 0) */
    116          }
   \                     ??halTFTShowX16_0:
   \   0000CE   02....       LJMP      ?Subroutine1 & 0xFFFF

   \                                 In  segment BANKED_CODE, align 1, keep-with-next
   \                     ?Subroutine8:
   \   000000   FA           MOV       R2,A
   \   000001   E4           CLR       A
   \   000002   35..         ADDC      A,?V3
   \   000004   FB           MOV       R3,A
   \   000005   C3           CLR       C
   \   000006   EA           MOV       A,R2
   \   000007   94A1         SUBB      A,#-0x5f
   \   000009   EB           MOV       A,R3
   \   00000A   9400         SUBB      A,#0x0
   \   00000C   22           RET

   \                                 In  segment BANKED_CODE, align 1, keep-with-next
   \                     ?Subroutine6:
   \   000000   E0           MOVX      A,@DPTR
   \   000001   FC           MOV       R4,A
   \   000002   A3           INC       DPTR
   \   000003   E0           MOVX      A,@DPTR
   \   000004   FD           MOV       R5,A
   \   000005   AA..         MOV       R2,?V2
   \   000007   AB..         MOV       R3,?V3
   \   000009   22           RET

   \                                 In  segment BANKED_CODE, align 1, keep-with-next
   \                     ?Subroutine3:
   \   000000   E0           MOVX      A,@DPTR
   \   000001   F5..         MOV       ?V6,A
   \   000003   A3           INC       DPTR
   \   000004   E0           MOVX      A,@DPTR
   \   000005   F5..         MOV       ?V7,A
   \   000007   E5..         MOV       A,?V6
   \   000009   45..         ORL       A,?V7
   \   00000B   22           RET

   \                                 In  segment BANKED_CODE, align 1, keep-with-next
   \                     ?Subroutine4:
   \   000000   E0           MOVX      A,@DPTR
   \   000001   F5..         MOV       ?V0,A
   \   000003   A3           INC       DPTR
   \   000004   E0           MOVX      A,@DPTR
   \   000005   F5..         MOV       ?V1,A
   \   000007   22           RET

   \                                 In  segment BANKED_CODE, align 1, keep-with-next
   \                     ?Subroutine1:
   \   000000   7402         MOV       A,#0x2
   \   000002                REQUIRE ??Subroutine9_0
   \   000002                ; // Fall through to label ??Subroutine9_0

   \                                 In  segment BANKED_CODE, align 1, keep-with-next
   \                     ??Subroutine9_0:
   \   000000   12....       LCALL     ?DEALLOC_XSTACK8
   \   000003   7F08         MOV       R7,#0x8
   \   000005   02....       LJMP      ?BANKED_LEAVE_XDATA
    117          

   \                                 In  segment BANKED_CODE, align 1, keep-with-next
    118          void halTFTShowPicture(uint8 x, uint8 y, uint8 picWidth, uint8 picHeight, const uint8 *pic)
   \                     halTFTShowPicture:
    119          {
   \   000000                REQUIRE ?V0
   \   000000                REQUIRE ?V1
   \   000000                REQUIRE ?V2
   \   000000                REQUIRE ?V3
   \   000000                REQUIRE ?V4
   \   000000                REQUIRE ?V5
   \   000000                REQUIRE ?V6
   \   000000                REQUIRE ?V7
   \   000000   74F0         MOV       A,#-0x10
   \   000002   12....       LCALL     ?BANKED_ENTER_XDATA
   \   000005                ; Saved register size: 16
   \   000005                ; Auto size: 2
   \   000005   74FE         MOV       A,#-0x2
   \   000007   12....       LCALL     ?ALLOC_XSTACK8
   \   00000A   89..         MOV       ?V3,R1
   \   00000C   8A..         MOV       ?V2,R2
    120              uint8 picL, picH;
    121              const uint8 *pPic = pic;
    122              uint16 picSize = (uint16)picWidth * picHeight;
   \   00000E   EB           MOV       A,R3
   \   00000F   8CF0         MOV       B,R4
   \   000011   A4           MUL       AB
   \   000012   85..82       MOV       DPL,?XSP + 0
   \   000015   85..83       MOV       DPH,?XSP + 1
   \   000018   F0           MOVX      @DPTR,A
   \   000019   A3           INC       DPTR
   \   00001A   E5F0         MOV       A,B
   \   00001C   F0           MOVX      @DPTR,A
   \   00001D   7412         MOV       A,#0x12
   \   00001F   12....       LCALL     ?XSTACK_DISP0_8
   \   000022   12....       LCALL     ?Subroutine3 & 0xFFFF
    123          
    124              y += HAL_TFT_Y_OFFSET;
    125              
    126              if (!pPic || (x + picWidth)  > HAL_TFT_X ||  (y + picHeight) > HAL_TFT_Y) return;
   \                     ??CrossCallReturnLabel_3:
   \   000025   6027         JZ        ??halTFTShowPicture_0
   \   000027   E9           MOV       A,R1
   \   000028   2B           ADD       A,R3
   \   000029   FA           MOV       R2,A
   \   00002A   E4           CLR       A
   \   00002B   3400         ADDC      A,#0x0
   \   00002D   FB           MOV       R3,A
   \   00002E   EA           MOV       A,R2
   \   00002F   94A1         SUBB      A,#-0x5f
   \   000031   EB           MOV       A,R3
   \   000032   9400         SUBB      A,#0x0
   \   000034   C3           CLR       C
   \   000035   65D0         XRL       A,PSW
   \   000037   33           RLC       A
   \   000038   5014         JNC       ??halTFTShowPicture_0
   \   00003A   E5..         MOV       A,?V2
   \   00003C   2C           ADD       A,R4
   \   00003D   F8           MOV       R0,A
   \   00003E   E4           CLR       A
   \   00003F   3400         ADDC      A,#0x0
   \   000041   F9           MOV       R1,A
   \   000042   E8           MOV       A,R0
   \   000043   9451         SUBB      A,#0x51
   \   000045   E9           MOV       A,R1
   \   000046   9400         SUBB      A,#0x0
   \   000048   C3           CLR       C
   \   000049   65D0         XRL       A,PSW
   \   00004B   33           RLC       A
   \   00004C   4002         JC        ??halTFTShowPicture_1
   \                     ??halTFTShowPicture_0:
   \   00004E   806F         SJMP      ??halTFTShowPicture_2
    127          
    128              /* Set region */
    129              HAL_TFT_SET_REGION(x, y, x + picWidth - 1, y + picHeight - 1);
   \                     ??halTFTShowPicture_1:
   \   000050                ; Setup parameters for call to function halTFTSetRegion
   \   000050   E8           MOV       A,R0
   \   000051   24FF         ADD       A,#-0x1
   \   000053   F5..         MOV       ?V4,A
   \   000055   E9           MOV       A,R1
   \   000056   34FF         ADDC      A,#-0x1
   \   000058   F5..         MOV       ?V5,A
   \   00005A   78..         MOV       R0,#?V4
   \   00005C   12....       LCALL     ?PUSH_XSTACK_I_TWO
   \   00005F   EA           MOV       A,R2
   \   000060   24FF         ADD       A,#-0x1
   \   000062   F5..         MOV       ?V4,A
   \   000064   EB           MOV       A,R3
   \   000065   34FF         ADDC      A,#-0x1
   \   000067   F5..         MOV       ?V5,A
   \   000069   78..         MOV       R0,#?V4
   \   00006B   12....       LCALL     ?PUSH_XSTACK_I_TWO
   \   00006E   AC..         MOV       R4,?V2
   \   000070   7D00         MOV       R5,#0x0
   \   000072   AA..         MOV       R2,?V3
   \   000074   7B00         MOV       R3,#0x0
   \   000076   7978         MOV       R1,#0x78
   \   000078   12....       LCALL     `??halTFTSetRegion::?relay`; Banked call to: halTFTSetRegion
   \   00007B   7404         MOV       A,#0x4
   \   00007D   12....       LCALL     ?DEALLOC_XSTACK8
    130          
    131              /* Show Picture */
    132              for (uint16 i = 0; i < picSize; i++) {  
   \   000080   7E00         MOV       R6,#0x0
   \   000082   7F00         MOV       R7,#0x0
   \   000084   8027         SJMP      ??halTFTShowPicture_3
    133              #ifdef HAL_TFT_PIC_MSB
    134                  picH = *(pPic + i*2);     // High 8Bit
    135                  picL = *(pPic + i*2 + 1); // Low 8Bit
    136              #else
    137                  picL = *(pPic + i*2);     // Low 8Bit
   \                     ??halTFTShowPicture_4:
   \   000086   EE           MOV       A,R6
   \   000087   F8           MOV       R0,A
   \   000088   EF           MOV       A,R7
   \   000089   F9           MOV       R1,A
   \   00008A   E8           MOV       A,R0
   \   00008B   28           ADD       A,R0
   \   00008C   F8           MOV       R0,A
   \   00008D   E9           MOV       A,R1
   \   00008E   33           RLC       A
   \   00008F   F9           MOV       R1,A
   \   000090   E5..         MOV       A,?V6
   \   000092   28           ADD       A,R0
   \   000093   F582         MOV       DPL,A
   \   000095   E5..         MOV       A,?V7
   \   000097   39           ADDC      A,R1
   \   000098   F583         MOV       DPH,A
   \   00009A   E0           MOVX      A,@DPTR
   \   00009B   F5..         MOV       ?V4,A
    138                  picH = *(pPic + i*2 + 1); // High 8Bit
    139              #endif
    140                    
    141                  HAL_TFT_WRITE_UINT16((uint16)picH<<8 | picL);                       
   \   00009D                ; Setup parameters for call to function halLcdSpiTxData
   \   00009D   A3           INC       DPTR
   \   00009E   E0           MOVX      A,@DPTR
   \   00009F   F9           MOV       R1,A
   \   0000A0   12....       LCALL     `??halLcdSpiTxData::?relay`; Banked call to: halLcdSpiTxData
   \   0000A3                ; Setup parameters for call to function halLcdSpiTxData
   \   0000A3   A9..         MOV       R1,?V4
   \   0000A5   12....       LCALL     `??halLcdSpiTxData::?relay`; Banked call to: halLcdSpiTxData
    142              }
   \   0000A8   0E           INC       R6
   \   0000A9   EE           MOV       A,R6
   \   0000AA   7001         JNZ       ??halTFTShowPicture_3
   \   0000AC   0F           INC       R7
   \                     ??halTFTShowPicture_3:
   \   0000AD   85..82       MOV       DPL,?XSP + 0
   \   0000B0   85..83       MOV       DPH,?XSP + 1
   \   0000B3   E0           MOVX      A,@DPTR
   \   0000B4   F8           MOV       R0,A
   \   0000B5   A3           INC       DPTR
   \   0000B6   E0           MOVX      A,@DPTR
   \   0000B7   F9           MOV       R1,A
   \   0000B8   C3           CLR       C
   \   0000B9   EE           MOV       A,R6
   \   0000BA   98           SUBB      A,R0
   \   0000BB   EF           MOV       A,R7
   \   0000BC   99           SUBB      A,R1
   \   0000BD   40C7         JC        ??halTFTShowPicture_4
    143          }
   \                     ??halTFTShowPicture_2:
   \   0000BF   02....       LJMP      ?Subroutine1 & 0xFFFF
    144          
    145          static void halTFTReset(void)
    146          {
    147              SPI_GPIO_SET(HAL_LCD_SPI_RST_PORT, HAL_LCD_SPI_RST_PIN);
    148              delayMs(SYSCLK_32MHZ, 100);
    149              
    150              SPI_GPIO_CLEAR(HAL_LCD_SPI_RST_PORT, HAL_LCD_SPI_RST_PIN);
    151              delayMs(SYSCLK_32MHZ, 100);
    152              
    153              SPI_GPIO_SET(HAL_LCD_SPI_RST_PORT, HAL_LCD_SPI_RST_PIN);
    154              delayMs(SYSCLK_32MHZ, 100);
    155          }
    156          
    157          #if (defined LCD_TYPE) && (LCD_TYPE == LCD_TFT096)
    158          static void ST7735RInit(void)
    159          {
    160              /* Reset TFT */
    161              halTFTReset();
    162              
    163              /* Sleep Exit */
    164              halLcdSpiTxCmd(0x11);
    165              delayMs(SYSCLK_32MHZ, 120);
    166              
    167              /* Frame Rate */
    168              halLcdSpiTxCmd(0xB1); 
    169              halLcdSpiTxData(0x01); 
    170              halLcdSpiTxData(0x2C); 
    171              halLcdSpiTxData(0x2D); 
    172          
    173              halLcdSpiTxCmd(0xB2); 
    174              halLcdSpiTxData(0x01);
    175              halLcdSpiTxData(0x2C);
    176              halLcdSpiTxData(0x2D);
    177          
    178              halLcdSpiTxCmd(0xB3);
    179              halLcdSpiTxData(0x01);
    180              halLcdSpiTxData(0x2C);
    181              halLcdSpiTxData(0x2D);
    182              halLcdSpiTxData(0x01);
    183              halLcdSpiTxData(0x2C);
    184              halLcdSpiTxData(0x2D);
    185              
    186              halLcdSpiTxCmd(0xB4);
    187              halLcdSpiTxData(0x07); 
    188              
    189              /* Power Sequence */
    190              halLcdSpiTxCmd(0xC0); 
    191              halLcdSpiTxData(0xA2);
    192              halLcdSpiTxData(0x02);
    193              halLcdSpiTxData(0x84);
    194              halLcdSpiTxData(0xC1);
    195              halLcdSpiTxData(0xC5);
    196          
    197              halLcdSpiTxCmd(0xC2); 
    198              halLcdSpiTxData(0x0A); 
    199              halLcdSpiTxData(0x00); 
    200          
    201              halLcdSpiTxCmd(0xC3); 
    202              halLcdSpiTxData(0x8A);
    203              halLcdSpiTxData(0x2A);
    204              halLcdSpiTxData(0xC4);
    205              halLcdSpiTxData(0x8A);
    206              halLcdSpiTxData(0xEE);
    207              
    208              halLcdSpiTxCmd(0xC5);
    209              halLcdSpiTxData(0x0E); 
    210              
    211              /* MX, MY, RGB mode */
    212              halLcdSpiTxCmd(0x36);
    213              halLcdSpiTxData(0xC8); 
    214              
    215              /* Gamma Sequence */
    216              halLcdSpiTxCmd(0xe0); 
    217              halLcdSpiTxData(0x0f); 
    218              halLcdSpiTxData(0x1a); 
    219              halLcdSpiTxData(0x0f); 
    220              halLcdSpiTxData(0x18); 
    221              halLcdSpiTxData(0x2f); 
    222              halLcdSpiTxData(0x28); 
    223              halLcdSpiTxData(0x20); 
    224              halLcdSpiTxData(0x22); 
    225              halLcdSpiTxData(0x1f); 
    226              halLcdSpiTxData(0x1b); 
    227              halLcdSpiTxData(0x23);
    228              halLcdSpiTxData(0x37); 
    229              halLcdSpiTxData(0x00); 
    230              halLcdSpiTxData(0x07); 
    231              halLcdSpiTxData(0x02); 
    232              halLcdSpiTxData(0x10);
    233          
    234              halLcdSpiTxCmd(0xe1); 
    235              halLcdSpiTxData(0x0f); 
    236              halLcdSpiTxData(0x1b);
    237              halLcdSpiTxData(0x0f);
    238              halLcdSpiTxData(0x17);
    239              halLcdSpiTxData(0x33);
    240              halLcdSpiTxData(0x2c);
    241              halLcdSpiTxData(0x29);
    242              halLcdSpiTxData(0x2e);
    243              halLcdSpiTxData(0x30);
    244              halLcdSpiTxData(0x30);
    245              halLcdSpiTxData(0x39);
    246              halLcdSpiTxData(0x3f);
    247              halLcdSpiTxData(0x00);
    248              halLcdSpiTxData(0x07);
    249              halLcdSpiTxData(0x03);
    250              halLcdSpiTxData(0x10);
    251              
    252              halLcdSpiTxCmd(0x2a);
    253              halLcdSpiTxData(0x00);
    254              halLcdSpiTxData(0x00);
    255              halLcdSpiTxData(0x00);
    256              halLcdSpiTxData(0x7f);
    257          
    258              halLcdSpiTxCmd(0x2b);
    259              halLcdSpiTxData(0x00);
    260              halLcdSpiTxData(0x00);
    261              halLcdSpiTxData(0x00);
    262              halLcdSpiTxData(0x9f);
    263              
    264              /* Enable test command */
    265              halLcdSpiTxCmd(0xF0);  
    266              halLcdSpiTxData(0x01); 
    267              
    268              /* Disable ram power save mode */
    269              halLcdSpiTxCmd(0xF6);  
    270              halLcdSpiTxData(0x00); 
    271              
    272              /* 65k mode */
    273              halLcdSpiTxCmd(0x3A);
    274              halLcdSpiTxData(0x05); 
    275              
    276              /* Display on */
    277              halLcdSpiTxCmd(0x29);
    278          }
    279          #endif
    280          
    281          #if (defined LCD_TYPE) && (LCD_TYPE == LCD_IPS096_T1)

   \                                 In  segment BANKED_CODE, align 1, keep-with-next
    282          static void ST7735SInit(uint8 madctl)
   \                     ST7735SInit:
    283          {
   \   000000   74F7         MOV       A,#-0x9
   \   000002   12....       LCALL     ?BANKED_ENTER_XDATA
   \   000005                ; Saved register size: 9
   \   000005                ; Auto size: 0
   \   000005   E9           MOV       A,R1
   \   000006   FE           MOV       R6,A
    284              /* Reset TFT */
    285              halTFTReset();
   \   000007   D290         SETB      0x90.0
   \   000009                ; Setup parameters for call to function delayMs
   \   000009   7A64         MOV       R2,#0x64
   \   00000B   7B00         MOV       R3,#0x0
   \   00000D   7901         MOV       R1,#0x1
   \   00000F   12....       LCALL     `??delayMs::?relay`; Banked call to: delayMs
   \   000012   C290         CLR       0x90.0
   \   000014                ; Setup parameters for call to function delayMs
   \   000014   7A64         MOV       R2,#0x64
   \   000016   7B00         MOV       R3,#0x0
   \   000018   7901         MOV       R1,#0x1
   \   00001A   12....       LCALL     `??delayMs::?relay`; Banked call to: delayMs
   \   00001D   D290         SETB      0x90.0
   \   00001F                ; Setup parameters for call to function delayMs
   \   00001F   7A64         MOV       R2,#0x64
   \   000021   7B00         MOV       R3,#0x0
   \   000023   7901         MOV       R1,#0x1
   \   000025   12....       LCALL     `??delayMs::?relay`; Banked call to: delayMs
    286          
    287              halLcdSpiTxCmd(0x11);
   \   000028                ; Setup parameters for call to function halLcdSpiTxCmd
   \   000028   7911         MOV       R1,#0x11
   \   00002A   12....       LCALL     `??halLcdSpiTxCmd::?relay`; Banked call to: halLcdSpiTxCmd
    288              delayMs(SYSCLK_32MHZ, 120);
   \   00002D                ; Setup parameters for call to function delayMs
   \   00002D   7A78         MOV       R2,#0x78
   \   00002F   7B00         MOV       R3,#0x0
   \   000031   7901         MOV       R1,#0x1
   \   000033   12....       LCALL     `??delayMs::?relay`; Banked call to: delayMs
    289              
    290              halLcdSpiTxCmd(0xB1);
   \   000036                ; Setup parameters for call to function halLcdSpiTxCmd
   \   000036   79B1         MOV       R1,#-0x4f
   \   000038   12....       LCALL     `??halLcdSpiTxCmd::?relay`; Banked call to: halLcdSpiTxCmd
    291              halLcdSpiTxData(0x05);
   \   00003B                ; Setup parameters for call to function halLcdSpiTxData
   \   00003B   7905         MOV       R1,#0x5
   \   00003D   12....       LCALL     `??halLcdSpiTxData::?relay`; Banked call to: halLcdSpiTxData
    292              halLcdSpiTxData(0x3C);
   \   000040                ; Setup parameters for call to function halLcdSpiTxData
   \   000040   793C         MOV       R1,#0x3c
   \   000042   12....       LCALL     `??halLcdSpiTxData::?relay`; Banked call to: halLcdSpiTxData
    293              halLcdSpiTxData(0x3C);
   \   000045                ; Setup parameters for call to function halLcdSpiTxData
   \   000045   793C         MOV       R1,#0x3c
   \   000047   12....       LCALL     `??halLcdSpiTxData::?relay`; Banked call to: halLcdSpiTxData
    294          
    295              halLcdSpiTxCmd(0xB2);
   \   00004A                ; Setup parameters for call to function halLcdSpiTxCmd
   \   00004A   79B2         MOV       R1,#-0x4e
   \   00004C   12....       LCALL     `??halLcdSpiTxCmd::?relay`; Banked call to: halLcdSpiTxCmd
    296              halLcdSpiTxData(0x05);
   \   00004F                ; Setup parameters for call to function halLcdSpiTxData
   \   00004F   7905         MOV       R1,#0x5
   \   000051   12....       LCALL     `??halLcdSpiTxData::?relay`; Banked call to: halLcdSpiTxData
    297              halLcdSpiTxData(0x3C);
   \   000054                ; Setup parameters for call to function halLcdSpiTxData
   \   000054   793C         MOV       R1,#0x3c
   \   000056   12....       LCALL     `??halLcdSpiTxData::?relay`; Banked call to: halLcdSpiTxData
    298              halLcdSpiTxData(0x3C);
   \   000059                ; Setup parameters for call to function halLcdSpiTxData
   \   000059   793C         MOV       R1,#0x3c
   \   00005B   12....       LCALL     `??halLcdSpiTxData::?relay`; Banked call to: halLcdSpiTxData
    299          
    300              halLcdSpiTxCmd(0xB3);
   \   00005E                ; Setup parameters for call to function halLcdSpiTxCmd
   \   00005E   79B3         MOV       R1,#-0x4d
   \   000060   12....       LCALL     `??halLcdSpiTxCmd::?relay`; Banked call to: halLcdSpiTxCmd
    301              halLcdSpiTxData(0x05);
   \   000063                ; Setup parameters for call to function halLcdSpiTxData
   \   000063   7905         MOV       R1,#0x5
   \   000065   12....       LCALL     `??halLcdSpiTxData::?relay`; Banked call to: halLcdSpiTxData
    302              halLcdSpiTxData(0x3C);
   \   000068                ; Setup parameters for call to function halLcdSpiTxData
   \   000068   793C         MOV       R1,#0x3c
   \   00006A   12....       LCALL     `??halLcdSpiTxData::?relay`; Banked call to: halLcdSpiTxData
    303              halLcdSpiTxData(0x3C);
   \   00006D                ; Setup parameters for call to function halLcdSpiTxData
   \   00006D   793C         MOV       R1,#0x3c
   \   00006F   12....       LCALL     `??halLcdSpiTxData::?relay`; Banked call to: halLcdSpiTxData
    304              halLcdSpiTxData(0x05);
   \   000072                ; Setup parameters for call to function halLcdSpiTxData
   \   000072   7905         MOV       R1,#0x5
   \   000074   12....       LCALL     `??halLcdSpiTxData::?relay`; Banked call to: halLcdSpiTxData
    305              halLcdSpiTxData(0x3C);
   \   000077                ; Setup parameters for call to function halLcdSpiTxData
   \   000077   793C         MOV       R1,#0x3c
   \   000079   12....       LCALL     `??halLcdSpiTxData::?relay`; Banked call to: halLcdSpiTxData
    306              halLcdSpiTxData(0x3C);
   \   00007C                ; Setup parameters for call to function halLcdSpiTxData
   \   00007C   793C         MOV       R1,#0x3c
   \   00007E   12....       LCALL     `??halLcdSpiTxData::?relay`; Banked call to: halLcdSpiTxData
    307          
    308              halLcdSpiTxCmd(0xB4);
   \   000081                ; Setup parameters for call to function halLcdSpiTxCmd
   \   000081   79B4         MOV       R1,#-0x4c
   \   000083   12....       LCALL     `??halLcdSpiTxCmd::?relay`; Banked call to: halLcdSpiTxCmd
    309              halLcdSpiTxData(0x03);
   \   000086                ; Setup parameters for call to function halLcdSpiTxData
   \   000086   7903         MOV       R1,#0x3
   \   000088   12....       LCALL     `??halLcdSpiTxData::?relay`; Banked call to: halLcdSpiTxData
    310          
    311              halLcdSpiTxCmd(0xC0);
   \   00008B                ; Setup parameters for call to function halLcdSpiTxCmd
   \   00008B   79C0         MOV       R1,#-0x40
   \   00008D   12....       LCALL     `??halLcdSpiTxCmd::?relay`; Banked call to: halLcdSpiTxCmd
    312              halLcdSpiTxData(0x0E);
   \   000090                ; Setup parameters for call to function halLcdSpiTxData
   \   000090   790E         MOV       R1,#0xe
   \   000092   12....       LCALL     `??halLcdSpiTxData::?relay`; Banked call to: halLcdSpiTxData
    313              halLcdSpiTxData(0x0E);
   \   000095                ; Setup parameters for call to function halLcdSpiTxData
   \   000095   790E         MOV       R1,#0xe
   \   000097   12....       LCALL     `??halLcdSpiTxData::?relay`; Banked call to: halLcdSpiTxData
    314              halLcdSpiTxData(0x04);
   \   00009A                ; Setup parameters for call to function halLcdSpiTxData
   \   00009A   7904         MOV       R1,#0x4
   \   00009C   12....       LCALL     `??halLcdSpiTxData::?relay`; Banked call to: halLcdSpiTxData
    315          
    316              halLcdSpiTxCmd(0xC1);
   \   00009F                ; Setup parameters for call to function halLcdSpiTxCmd
   \   00009F   79C1         MOV       R1,#-0x3f
   \   0000A1   12....       LCALL     `??halLcdSpiTxCmd::?relay`; Banked call to: halLcdSpiTxCmd
    317              halLcdSpiTxData(0xC5);
   \   0000A4                ; Setup parameters for call to function halLcdSpiTxData
   \   0000A4   79C5         MOV       R1,#-0x3b
   \   0000A6   12....       LCALL     `??halLcdSpiTxData::?relay`; Banked call to: halLcdSpiTxData
    318          
    319              halLcdSpiTxCmd(0xC2);
   \   0000A9                ; Setup parameters for call to function halLcdSpiTxCmd
   \   0000A9   79C2         MOV       R1,#-0x3e
   \   0000AB   12....       LCALL     `??halLcdSpiTxCmd::?relay`; Banked call to: halLcdSpiTxCmd
    320              halLcdSpiTxData(0x0D);
   \   0000AE                ; Setup parameters for call to function halLcdSpiTxData
   \   0000AE   790D         MOV       R1,#0xd
   \   0000B0   12....       LCALL     `??halLcdSpiTxData::?relay`; Banked call to: halLcdSpiTxData
    321              halLcdSpiTxData(0x00);
   \   0000B3                ; Setup parameters for call to function halLcdSpiTxData
   \   0000B3   7900         MOV       R1,#0x0
   \   0000B5   12....       LCALL     `??halLcdSpiTxData::?relay`; Banked call to: halLcdSpiTxData
    322          
    323              halLcdSpiTxCmd(0xC3);
   \   0000B8                ; Setup parameters for call to function halLcdSpiTxCmd
   \   0000B8   79C3         MOV       R1,#-0x3d
   \   0000BA   12....       LCALL     `??halLcdSpiTxCmd::?relay`; Banked call to: halLcdSpiTxCmd
    324              halLcdSpiTxData(0x8D);
   \   0000BD                ; Setup parameters for call to function halLcdSpiTxData
   \   0000BD   798D         MOV       R1,#-0x73
   \   0000BF   12....       LCALL     `??halLcdSpiTxData::?relay`; Banked call to: halLcdSpiTxData
    325              halLcdSpiTxData(0x2A);
   \   0000C2                ; Setup parameters for call to function halLcdSpiTxData
   \   0000C2   792A         MOV       R1,#0x2a
   \   0000C4   12....       LCALL     `??halLcdSpiTxData::?relay`; Banked call to: halLcdSpiTxData
    326          
    327              halLcdSpiTxCmd(0xC4);
   \   0000C7                ; Setup parameters for call to function halLcdSpiTxCmd
   \   0000C7   79C4         MOV       R1,#-0x3c
   \   0000C9   12....       LCALL     `??halLcdSpiTxCmd::?relay`; Banked call to: halLcdSpiTxCmd
    328              halLcdSpiTxData(0x8D);
   \   0000CC                ; Setup parameters for call to function halLcdSpiTxData
   \   0000CC   798D         MOV       R1,#-0x73
   \   0000CE   12....       LCALL     `??halLcdSpiTxData::?relay`; Banked call to: halLcdSpiTxData
    329              halLcdSpiTxData(0xEE);
   \   0000D1                ; Setup parameters for call to function halLcdSpiTxData
   \   0000D1   79EE         MOV       R1,#-0x12
   \   0000D3   12....       LCALL     `??halLcdSpiTxData::?relay`; Banked call to: halLcdSpiTxData
    330          
    331              halLcdSpiTxCmd(0xC5);
   \   0000D6                ; Setup parameters for call to function halLcdSpiTxCmd
   \   0000D6   79C5         MOV       R1,#-0x3b
   \   0000D8   12....       LCALL     `??halLcdSpiTxCmd::?relay`; Banked call to: halLcdSpiTxCmd
    332              halLcdSpiTxData(0x06);
   \   0000DB                ; Setup parameters for call to function halLcdSpiTxData
   \   0000DB   7906         MOV       R1,#0x6
   \   0000DD   12....       LCALL     `??halLcdSpiTxData::?relay`; Banked call to: halLcdSpiTxData
    333          
    334              halLcdSpiTxCmd(0x36);
   \   0000E0                ; Setup parameters for call to function halLcdSpiTxCmd
   \   0000E0   7936         MOV       R1,#0x36
   \   0000E2   12....       LCALL     `??halLcdSpiTxCmd::?relay`; Banked call to: halLcdSpiTxCmd
    335              halLcdSpiTxData(madctl);
   \   0000E5                ; Setup parameters for call to function halLcdSpiTxData
   \   0000E5   EE           MOV       A,R6
   \   0000E6   F9           MOV       R1,A
   \   0000E7   12....       LCALL     `??halLcdSpiTxData::?relay`; Banked call to: halLcdSpiTxData
    336          
    337              halLcdSpiTxCmd(0x3A);
   \   0000EA                ; Setup parameters for call to function halLcdSpiTxCmd
   \   0000EA   793A         MOV       R1,#0x3a
   \   0000EC   12....       LCALL     `??halLcdSpiTxCmd::?relay`; Banked call to: halLcdSpiTxCmd
    338              halLcdSpiTxData(0x55);
   \   0000EF                ; Setup parameters for call to function halLcdSpiTxData
   \   0000EF   7955         MOV       R1,#0x55
   \   0000F1   12....       LCALL     `??halLcdSpiTxData::?relay`; Banked call to: halLcdSpiTxData
    339                  
    340              halLcdSpiTxCmd(0xE0);
   \   0000F4                ; Setup parameters for call to function halLcdSpiTxCmd
   \   0000F4   79E0         MOV       R1,#-0x20
   \   0000F6   12....       LCALL     `??halLcdSpiTxCmd::?relay`; Banked call to: halLcdSpiTxCmd
    341              halLcdSpiTxData(0x0B);
   \   0000F9                ; Setup parameters for call to function halLcdSpiTxData
   \   0000F9   790B         MOV       R1,#0xb
   \   0000FB   12....       LCALL     `??halLcdSpiTxData::?relay`; Banked call to: halLcdSpiTxData
    342              halLcdSpiTxData(0x17);
   \   0000FE                ; Setup parameters for call to function halLcdSpiTxData
   \   0000FE   7917         MOV       R1,#0x17
   \   000100   12....       LCALL     `??halLcdSpiTxData::?relay`; Banked call to: halLcdSpiTxData
    343              halLcdSpiTxData(0x0A);
   \   000103                ; Setup parameters for call to function halLcdSpiTxData
   \   000103   790A         MOV       R1,#0xa
   \   000105   12....       LCALL     `??halLcdSpiTxData::?relay`; Banked call to: halLcdSpiTxData
    344              halLcdSpiTxData(0x0D);
   \   000108                ; Setup parameters for call to function halLcdSpiTxData
   \   000108   790D         MOV       R1,#0xd
   \   00010A   12....       LCALL     `??halLcdSpiTxData::?relay`; Banked call to: halLcdSpiTxData
    345              halLcdSpiTxData(0x1A);
   \   00010D                ; Setup parameters for call to function halLcdSpiTxData
   \   00010D   791A         MOV       R1,#0x1a
   \   00010F   12....       LCALL     `??halLcdSpiTxData::?relay`; Banked call to: halLcdSpiTxData
    346              halLcdSpiTxData(0x19);
   \   000112                ; Setup parameters for call to function halLcdSpiTxData
   \   000112   7919         MOV       R1,#0x19
   \   000114   12....       LCALL     `??halLcdSpiTxData::?relay`; Banked call to: halLcdSpiTxData
    347              halLcdSpiTxData(0x16);
   \   000117                ; Setup parameters for call to function halLcdSpiTxData
   \   000117   7916         MOV       R1,#0x16
   \   000119   12....       LCALL     `??halLcdSpiTxData::?relay`; Banked call to: halLcdSpiTxData
    348              halLcdSpiTxData(0x1D);
   \   00011C                ; Setup parameters for call to function halLcdSpiTxData
   \   00011C   791D         MOV       R1,#0x1d
   \   00011E   12....       LCALL     `??halLcdSpiTxData::?relay`; Banked call to: halLcdSpiTxData
    349              halLcdSpiTxData(0x21);
   \   000121                ; Setup parameters for call to function halLcdSpiTxData
   \   000121   7921         MOV       R1,#0x21
   \   000123   12....       LCALL     `??halLcdSpiTxData::?relay`; Banked call to: halLcdSpiTxData
    350              halLcdSpiTxData(0x26);
   \   000126                ; Setup parameters for call to function halLcdSpiTxData
   \   000126   7926         MOV       R1,#0x26
   \   000128   12....       LCALL     `??halLcdSpiTxData::?relay`; Banked call to: halLcdSpiTxData
    351              halLcdSpiTxData(0x37);
   \   00012B                ; Setup parameters for call to function halLcdSpiTxData
   \   00012B   7937         MOV       R1,#0x37
   \   00012D   12....       LCALL     `??halLcdSpiTxData::?relay`; Banked call to: halLcdSpiTxData
    352              halLcdSpiTxData(0x3C);
   \   000130                ; Setup parameters for call to function halLcdSpiTxData
   \   000130   793C         MOV       R1,#0x3c
   \   000132   12....       LCALL     `??halLcdSpiTxData::?relay`; Banked call to: halLcdSpiTxData
    353              halLcdSpiTxData(0x00);
   \   000135                ; Setup parameters for call to function halLcdSpiTxData
   \   000135   7900         MOV       R1,#0x0
   \   000137   12....       LCALL     `??halLcdSpiTxData::?relay`; Banked call to: halLcdSpiTxData
    354              halLcdSpiTxData(0x09);
   \   00013A                ; Setup parameters for call to function halLcdSpiTxData
   \   00013A   7909         MOV       R1,#0x9
   \   00013C   12....       LCALL     `??halLcdSpiTxData::?relay`; Banked call to: halLcdSpiTxData
    355              halLcdSpiTxData(0x05);
   \   00013F                ; Setup parameters for call to function halLcdSpiTxData
   \   00013F   7905         MOV       R1,#0x5
   \   000141   12....       LCALL     `??halLcdSpiTxData::?relay`; Banked call to: halLcdSpiTxData
    356              halLcdSpiTxData(0x10);
   \   000144                ; Setup parameters for call to function halLcdSpiTxData
   \   000144   7910         MOV       R1,#0x10
   \   000146   12....       LCALL     `??halLcdSpiTxData::?relay`; Banked call to: halLcdSpiTxData
    357          
    358              halLcdSpiTxCmd(0xE1);
   \   000149                ; Setup parameters for call to function halLcdSpiTxCmd
   \   000149   79E1         MOV       R1,#-0x1f
   \   00014B   12....       LCALL     `??halLcdSpiTxCmd::?relay`; Banked call to: halLcdSpiTxCmd
    359              halLcdSpiTxData(0x0C);
   \   00014E                ; Setup parameters for call to function halLcdSpiTxData
   \   00014E   790C         MOV       R1,#0xc
   \   000150   12....       LCALL     `??halLcdSpiTxData::?relay`; Banked call to: halLcdSpiTxData
    360              halLcdSpiTxData(0x19);
   \   000153                ; Setup parameters for call to function halLcdSpiTxData
   \   000153   7919         MOV       R1,#0x19
   \   000155   12....       LCALL     `??halLcdSpiTxData::?relay`; Banked call to: halLcdSpiTxData
    361              halLcdSpiTxData(0x09);
   \   000158                ; Setup parameters for call to function halLcdSpiTxData
   \   000158   7909         MOV       R1,#0x9
   \   00015A   12....       LCALL     `??halLcdSpiTxData::?relay`; Banked call to: halLcdSpiTxData
    362              halLcdSpiTxData(0x0D);
   \   00015D                ; Setup parameters for call to function halLcdSpiTxData
   \   00015D   790D         MOV       R1,#0xd
   \   00015F   12....       LCALL     `??halLcdSpiTxData::?relay`; Banked call to: halLcdSpiTxData
    363              halLcdSpiTxData(0x1B);
   \   000162                ; Setup parameters for call to function halLcdSpiTxData
   \   000162   791B         MOV       R1,#0x1b
   \   000164   12....       LCALL     `??halLcdSpiTxData::?relay`; Banked call to: halLcdSpiTxData
    364              halLcdSpiTxData(0x19);
   \   000167                ; Setup parameters for call to function halLcdSpiTxData
   \   000167   7919         MOV       R1,#0x19
   \   000169   12....       LCALL     `??halLcdSpiTxData::?relay`; Banked call to: halLcdSpiTxData
    365              halLcdSpiTxData(0x15);
   \   00016C                ; Setup parameters for call to function halLcdSpiTxData
   \   00016C   7915         MOV       R1,#0x15
   \   00016E   12....       LCALL     `??halLcdSpiTxData::?relay`; Banked call to: halLcdSpiTxData
    366              halLcdSpiTxData(0x1D);
   \   000171                ; Setup parameters for call to function halLcdSpiTxData
   \   000171   791D         MOV       R1,#0x1d
   \   000173   12....       LCALL     `??halLcdSpiTxData::?relay`; Banked call to: halLcdSpiTxData
    367              halLcdSpiTxData(0x21);
   \   000176                ; Setup parameters for call to function halLcdSpiTxData
   \   000176   7921         MOV       R1,#0x21
   \   000178   12....       LCALL     `??halLcdSpiTxData::?relay`; Banked call to: halLcdSpiTxData
    368              halLcdSpiTxData(0x26);
   \   00017B                ; Setup parameters for call to function halLcdSpiTxData
   \   00017B   7926         MOV       R1,#0x26
   \   00017D   12....       LCALL     `??halLcdSpiTxData::?relay`; Banked call to: halLcdSpiTxData
    369              halLcdSpiTxData(0x39);
   \   000180                ; Setup parameters for call to function halLcdSpiTxData
   \   000180   7939         MOV       R1,#0x39
   \   000182   12....       LCALL     `??halLcdSpiTxData::?relay`; Banked call to: halLcdSpiTxData
    370              halLcdSpiTxData(0x3E);
   \   000185                ; Setup parameters for call to function halLcdSpiTxData
   \   000185   793E         MOV       R1,#0x3e
   \   000187   12....       LCALL     `??halLcdSpiTxData::?relay`; Banked call to: halLcdSpiTxData
    371              halLcdSpiTxData(0x00);
   \   00018A                ; Setup parameters for call to function halLcdSpiTxData
   \   00018A   7900         MOV       R1,#0x0
   \   00018C   12....       LCALL     `??halLcdSpiTxData::?relay`; Banked call to: halLcdSpiTxData
    372              halLcdSpiTxData(0x09);
   \   00018F                ; Setup parameters for call to function halLcdSpiTxData
   \   00018F   7909         MOV       R1,#0x9
   \   000191   12....       LCALL     `??halLcdSpiTxData::?relay`; Banked call to: halLcdSpiTxData
    373              halLcdSpiTxData(0x05);
   \   000194                ; Setup parameters for call to function halLcdSpiTxData
   \   000194   7905         MOV       R1,#0x5
   \   000196   12....       LCALL     `??halLcdSpiTxData::?relay`; Banked call to: halLcdSpiTxData
    374              halLcdSpiTxData(0x10);
   \   000199                ; Setup parameters for call to function halLcdSpiTxData
   \   000199   7910         MOV       R1,#0x10
   \   00019B   12....       LCALL     `??halLcdSpiTxData::?relay`; Banked call to: halLcdSpiTxData
    375              halLcdSpiTxCmd(0x29);
   \   00019E                ; Setup parameters for call to function halLcdSpiTxCmd
   \   00019E   7929         MOV       R1,#0x29
   \   0001A0   12....       LCALL     `??halLcdSpiTxCmd::?relay`; Banked call to: halLcdSpiTxCmd
    376          }
   \   0001A3   7F01         MOV       R7,#0x1
   \   0001A5   02....       LJMP      ?BANKED_LEAVE_XDATA
   \   0001A8                REQUIRE _A_P1
    377          #endif
    378          
    379          #if (defined LCD_TYPE) && (LCD_TYPE == LCD_TFT096)
    380          static void halTFTSetRegion(uint16 xs, uint16 ys, uint16 xe, uint16 ye)
    381          {
    382              halLcdSpiTxCmd(0x2a);
    383              halLcdSpiTxData(0x00); 
    384              halLcdSpiTxData(xs + 2); 
    385              halLcdSpiTxData(0x00); 
    386              halLcdSpiTxData(xe + 2);
    387          
    388              halLcdSpiTxCmd(0x2b);
    389              halLcdSpiTxData(0x00); 
    390              halLcdSpiTxData(ys + 3); 
    391              halLcdSpiTxData(0x00); 
    392              halLcdSpiTxData(ye + 3);
    393              
    394              halLcdSpiTxCmd(0x2c);
    395          }
    396          #endif
    397          
    398          #if (defined LCD_TYPE) && (LCD_TYPE == LCD_IPS096_T1)

   \                                 In  segment BANKED_CODE, align 1, keep-with-next
    399          static void halTFTSetRegion(uint8 madctl, uint16 xs, uint16 ys, uint16 xe, uint16 ye)
   \                     halTFTSetRegion:
    400          {
   \   000000                REQUIRE ?V0
   \   000000                REQUIRE ?V1
   \   000000                REQUIRE ?V2
   \   000000                REQUIRE ?V3
   \   000000                REQUIRE ?V4
   \   000000                REQUIRE ?V5
   \   000000                REQUIRE ?V6
   \   000000   74F1         MOV       A,#-0xf
   \   000002   12....       LCALL     ?BANKED_ENTER_XDATA
   \   000005                ; Saved register size: 15
   \   000005                ; Auto size: 0
   \   000005   89..         MOV       ?V6,R1
   \   000007   8A..         MOV       ?V4,R2
   \   000009   8B..         MOV       ?V5,R3
   \   00000B   8C..         MOV       ?V2,R4
   \   00000D   8D..         MOV       ?V3,R5
   \   00000F   740F         MOV       A,#0xf
   \   000011   12....       LCALL     ?XSTACK_DISP0_8
   \   000014   E0           MOVX      A,@DPTR
   \   000015   FE           MOV       R6,A
   \   000016   A3           INC       DPTR
   \   000017   E0           MOVX      A,@DPTR
   \   000018   FF           MOV       R7,A
   \   000019   7411         MOV       A,#0x11
   \   00001B   12....       LCALL     ?XSTACK_DISP0_8
   \   00001E   12....       LCALL     ?Subroutine4 & 0xFFFF
    401              if (madctl == ST7735S_MADCTL_RGB) {
   \                     ??CrossCallReturnLabel_5:
   \   000021   7408         MOV       A,#0x8
   \   000023   65..         XRL       A,?V6
   \   000025   6006         JZ        ??halTFTSetRegion_0
    402                  halLcdSpiTxCmd(0x2a);
    403                  HAL_TFT_WRITE_UINT16(xs+24);
    404                  HAL_TFT_WRITE_UINT16(xe+24);
    405                  halLcdSpiTxCmd(0x2b);
    406                  HAL_TFT_WRITE_UINT16(ys);
    407                  HAL_TFT_WRITE_UINT16(ye);
    408                  halLcdSpiTxCmd(0x2c);
    409              }
    410              else if (madctl == ST7735S_MADCTL_MY_MX_RGB) {
   \   000027   74C8         MOV       A,#-0x38
   \   000029   65..         XRL       A,?V6
   \   00002B   7040         JNZ       ??halTFTSetRegion_1
    411                  halLcdSpiTxCmd(0x2a);
   \                     ??halTFTSetRegion_0:
   \   00002D                ; Setup parameters for call to function halLcdSpiTxCmd
   \   00002D   792A         MOV       R1,#0x2a
   \   00002F   12....       LCALL     `??halLcdSpiTxCmd::?relay`; Banked call to: halLcdSpiTxCmd
    412                  HAL_TFT_WRITE_UINT16(xs+24);
   \   000032                ; Setup parameters for call to function halLcdSpiTxData
   \   000032   E5..         MOV       A,?V4
   \   000034   2418         ADD       A,#0x18
   \   000036   E4           CLR       A
   \   000037   35..         ADDC      A,?V5
   \   000039   F9           MOV       R1,A
   \   00003A   12....       LCALL     `??halLcdSpiTxData::?relay`; Banked call to: halLcdSpiTxData
   \   00003D                ; Setup parameters for call to function halLcdSpiTxData
   \   00003D   E5..         MOV       A,?V4
   \   00003F   2418         ADD       A,#0x18
   \   000041   F9           MOV       R1,A
   \   000042   12....       LCALL     `??halLcdSpiTxData::?relay`; Banked call to: halLcdSpiTxData
    413                  HAL_TFT_WRITE_UINT16(xe+24);
   \   000045                ; Setup parameters for call to function halLcdSpiTxData
   \   000045   EE           MOV       A,R6
   \   000046   2418         ADD       A,#0x18
   \   000048   E4           CLR       A
   \   000049   3F           ADDC      A,R7
   \   00004A   F9           MOV       R1,A
   \   00004B   12....       LCALL     `??halLcdSpiTxData::?relay`; Banked call to: halLcdSpiTxData
   \   00004E                ; Setup parameters for call to function halLcdSpiTxData
   \   00004E   EE           MOV       A,R6
   \   00004F   2418         ADD       A,#0x18
   \   000051   F9           MOV       R1,A
   \   000052   12....       LCALL     `??halLcdSpiTxData::?relay`; Banked call to: halLcdSpiTxData
    414                  halLcdSpiTxCmd(0x2b);
   \   000055                ; Setup parameters for call to function halLcdSpiTxCmd
   \   000055   792B         MOV       R1,#0x2b
   \   000057   12....       LCALL     `??halLcdSpiTxCmd::?relay`; Banked call to: halLcdSpiTxCmd
    415                  HAL_TFT_WRITE_UINT16(ys);
   \   00005A                ; Setup parameters for call to function halLcdSpiTxData
   \   00005A   A9..         MOV       R1,?V3
   \   00005C   12....       LCALL     `??halLcdSpiTxData::?relay`; Banked call to: halLcdSpiTxData
   \   00005F                ; Setup parameters for call to function halLcdSpiTxData
   \   00005F   A9..         MOV       R1,?V2
   \   000061   12....       LCALL     `??halLcdSpiTxData::?relay`; Banked call to: halLcdSpiTxData
    416                  HAL_TFT_WRITE_UINT16(ye);
   \   000064                ; Setup parameters for call to function halLcdSpiTxData
   \   000064   A9..         MOV       R1,?V1
   \   000066   12....       LCALL     `??halLcdSpiTxData::?relay`; Banked call to: halLcdSpiTxData
   \   000069                ; Setup parameters for call to function halLcdSpiTxData
   \   000069   A9..         MOV       R1,?V0
   \   00006B   8041         SJMP      ??halTFTSetRegion_2
    417                  halLcdSpiTxCmd(0x2c);
    418              }
    419              else if(madctl == ST7735S_MADCTL_MX_MV_ML_RGB) {
    420                  halLcdSpiTxCmd(0x2a);
    421                  HAL_TFT_WRITE_UINT16(xs);
    422                  HAL_TFT_WRITE_UINT16(xe);
    423                  halLcdSpiTxCmd(0x2b);
    424                  HAL_TFT_WRITE_UINT16(ys+24);
    425                  HAL_TFT_WRITE_UINT16(ye+24);
    426                  halLcdSpiTxCmd(0x2c);
    427              }
    428              else {
    429                  halLcdSpiTxCmd(0x2a);
   \                     ??halTFTSetRegion_1:
   \   00006D                ; Setup parameters for call to function halLcdSpiTxCmd
   \   00006D   792A         MOV       R1,#0x2a
   \   00006F   12....       LCALL     `??halLcdSpiTxCmd::?relay`; Banked call to: halLcdSpiTxCmd
    430                  HAL_TFT_WRITE_UINT16(xs);
   \   000072                ; Setup parameters for call to function halLcdSpiTxData
   \   000072   A9..         MOV       R1,?V5
   \   000074   12....       LCALL     `??halLcdSpiTxData::?relay`; Banked call to: halLcdSpiTxData
   \   000077                ; Setup parameters for call to function halLcdSpiTxData
   \   000077   A9..         MOV       R1,?V4
   \   000079   12....       LCALL     `??halLcdSpiTxData::?relay`; Banked call to: halLcdSpiTxData
    431                  HAL_TFT_WRITE_UINT16(xe);
   \   00007C                ; Setup parameters for call to function halLcdSpiTxData
   \   00007C   EF           MOV       A,R7
   \   00007D   F9           MOV       R1,A
   \   00007E   12....       LCALL     `??halLcdSpiTxData::?relay`; Banked call to: halLcdSpiTxData
   \   000081                ; Setup parameters for call to function halLcdSpiTxData
   \   000081   EE           MOV       A,R6
   \   000082   F9           MOV       R1,A
   \   000083   12....       LCALL     `??halLcdSpiTxData::?relay`; Banked call to: halLcdSpiTxData
    432                  halLcdSpiTxCmd(0x2b);
   \   000086                ; Setup parameters for call to function halLcdSpiTxCmd
   \   000086   792B         MOV       R1,#0x2b
   \   000088   12....       LCALL     `??halLcdSpiTxCmd::?relay`; Banked call to: halLcdSpiTxCmd
    433                  HAL_TFT_WRITE_UINT16(ys+24);
   \   00008B                ; Setup parameters for call to function halLcdSpiTxData
   \   00008B   E5..         MOV       A,?V2
   \   00008D   2418         ADD       A,#0x18
   \   00008F   E4           CLR       A
   \   000090   35..         ADDC      A,?V3
   \   000092   F9           MOV       R1,A
   \   000093   12....       LCALL     `??halLcdSpiTxData::?relay`; Banked call to: halLcdSpiTxData
   \   000096                ; Setup parameters for call to function halLcdSpiTxData
   \   000096   E5..         MOV       A,?V2
   \   000098   2418         ADD       A,#0x18
   \   00009A   F9           MOV       R1,A
   \   00009B   12....       LCALL     `??halLcdSpiTxData::?relay`; Banked call to: halLcdSpiTxData
    434                  HAL_TFT_WRITE_UINT16(ye+24);
   \   00009E                ; Setup parameters for call to function halLcdSpiTxData
   \   00009E   E5..         MOV       A,?V0
   \   0000A0   2418         ADD       A,#0x18
   \   0000A2   E4           CLR       A
   \   0000A3   35..         ADDC      A,?V1
   \   0000A5   F9           MOV       R1,A
   \   0000A6   12....       LCALL     `??halLcdSpiTxData::?relay`; Banked call to: halLcdSpiTxData
   \   0000A9                ; Setup parameters for call to function halLcdSpiTxData
   \   0000A9   E5..         MOV       A,?V0
   \   0000AB   2418         ADD       A,#0x18
   \   0000AD   F9           MOV       R1,A
   \                     ??halTFTSetRegion_2:
   \   0000AE   12....       LCALL     `??halLcdSpiTxData::?relay`; Banked call to: halLcdSpiTxData
    435                  halLcdSpiTxCmd(0x2c);
   \   0000B1                ; Setup parameters for call to function halLcdSpiTxCmd
   \   0000B1   792C         MOV       R1,#0x2c
   \   0000B3   12....       LCALL     `??halLcdSpiTxCmd::?relay`; Banked call to: halLcdSpiTxCmd
    436              }
    437          }
   \   0000B6   7F07         MOV       R7,#0x7
   \   0000B8   02....       LJMP      ?BANKED_LEAVE_XDATA
    438          #endif
    439          
    440          static void halTFTSetPosition(uint16 x, uint16 y)
    441          {
    442              HAL_TFT_SET_REGION(x, y, x, y);
    443          }
    444          

   \                                 In  segment BANKED_CODE, align 1, keep-with-next
    445          static void halTFTDrawPixel(uint16 xs, uint16 ys, uint16 color)
   \                     halTFTDrawPixel:
    446          {
   \   000000                REQUIRE ?V0
   \   000000                REQUIRE ?V1
   \   000000   74F6         MOV       A,#-0xa
   \   000002   12....       LCALL     ?BANKED_ENTER_XDATA
   \   000005                ; Saved register size: 10
   \   000005                ; Auto size: 0
    447              HAL_TFT_SET_REGION(xs, ys, xs+1, ys+1);
   \   000005                ; Setup parameters for call to function halTFTSetRegion
   \   000005   EC           MOV       A,R4
   \   000006   2401         ADD       A,#0x1
   \   000008   F5..         MOV       ?V0,A
   \   00000A   E4           CLR       A
   \   00000B   3D           ADDC      A,R5
   \   00000C   F5..         MOV       ?V1,A
   \   00000E   78..         MOV       R0,#?V0
   \   000010   12....       LCALL     ?PUSH_XSTACK_I_TWO
   \   000013   EA           MOV       A,R2
   \   000014   2401         ADD       A,#0x1
   \   000016   F5..         MOV       ?V0,A
   \   000018   E4           CLR       A
   \   000019   3B           ADDC      A,R3
   \   00001A   F5..         MOV       ?V1,A
   \   00001C   78..         MOV       R0,#?V0
   \   00001E   12....       LCALL     ?PUSH_XSTACK_I_TWO
   \   000021   7978         MOV       R1,#0x78
   \   000023   12....       LCALL     `??halTFTSetRegion::?relay`; Banked call to: halTFTSetRegion
   \   000026   7404         MOV       A,#0x4
   \   000028   12....       LCALL     ?DEALLOC_XSTACK8
   \   00002B   740A         MOV       A,#0xa
   \   00002D   12....       LCALL     ?XSTACK_DISP0_8
   \   000030   E0           MOVX      A,@DPTR
   \   000031   FE           MOV       R6,A
   \   000032   A3           INC       DPTR
   \   000033   E0           MOVX      A,@DPTR
    448              HAL_TFT_WRITE_UINT16(color);
   \   000034                ; Setup parameters for call to function halLcdSpiTxData
   \   000034   F9           MOV       R1,A
   \   000035   12....       LCALL     `??halLcdSpiTxData::?relay`; Banked call to: halLcdSpiTxData
   \   000038                ; Setup parameters for call to function halLcdSpiTxData
   \   000038   EE           MOV       A,R6
   \   000039   F9           MOV       R1,A
   \   00003A   12....       LCALL     `??halLcdSpiTxData::?relay`; Banked call to: halLcdSpiTxData
    449          }
   \   00003D   02....       LJMP      ?Subroutine0 & 0xFFFF
    450          

   \                                 In  segment BANKED_CODE, align 1, keep-with-next
    451          static void halTFTShowChar8x16(uint16 x, uint16 y, uint16 fontColor, uint16 backgroundColor, uint8 ch)
   \                     halTFTShowChar8x16:
    452          {
   \   000000                REQUIRE ?V0
   \   000000                REQUIRE ?V1
   \   000000                REQUIRE ?V2
   \   000000                REQUIRE ?V3
   \   000000                REQUIRE ?V4
   \   000000                REQUIRE ?V5
   \   000000                REQUIRE ?V6
   \   000000                REQUIRE ?V7
   \   000000   74F0         MOV       A,#-0x10
   \   000002   12....       LCALL     ?BANKED_ENTER_XDATA
   \   000005                ; Saved register size: 16
   \   000005                ; Auto size: 8
   \   000005   74F8         MOV       A,#-0x8
   \   000007   12....       LCALL     ?ALLOC_XSTACK8
   \   00000A   7406         MOV       A,#0x6
   \   00000C   12....       LCALL     ?XSTACK_DISP0_8
   \   00000F   EA           MOV       A,R2
   \   000010   F0           MOVX      @DPTR,A
   \   000011   A3           INC       DPTR
   \   000012   EB           MOV       A,R3
   \   000013   F0           MOVX      @DPTR,A
   \   000014   7404         MOV       A,#0x4
   \   000016   12....       LCALL     ?XSTACK_DISP0_8
   \   000019   EC           MOV       A,R4
   \   00001A   F0           MOVX      @DPTR,A
   \   00001B   A3           INC       DPTR
   \   00001C   ED           MOV       A,R5
   \   00001D   F0           MOVX      @DPTR,A
   \   00001E   E9           MOV       A,R1
   \   00001F   85..82       MOV       DPL,?XSP + 0
   \   000022   85..83       MOV       DPH,?XSP + 1
   \   000025   F0           MOVX      @DPTR,A
    453              uint16 charIndex;
    454              
    455              /* index of font table, height: 16 */
    456              if(ch > 32) charIndex = (ch - 32) * 16;
   \   000026   C3           CLR       C
   \   000027   9421         SUBB      A,#0x21
   \   000029   401E         JC        ??halTFTShowChar8x16_0
   \   00002B   E0           MOVX      A,@DPTR
   \   00002C   24E0         ADD       A,#-0x20
   \   00002E   F5..         MOV       ?V0,A
   \   000030   E4           CLR       A
   \   000031   34FF         ADDC      A,#-0x1
   \   000033   F5..         MOV       ?V1,A
   \   000035   7404         MOV       A,#0x4
   \   000037   78..         MOV       R0,#?V0
   \   000039   12....       LCALL     ?S_SHL
   \   00003C   7402         MOV       A,#0x2
   \   00003E   12....       LCALL     ?XSTACK_DISP0_8
   \   000041   E5..         MOV       A,?V0
   \   000043   F0           MOVX      @DPTR,A
   \   000044   A3           INC       DPTR
   \   000045   E5..         MOV       A,?V1
   \   000047   8008         SJMP      ??halTFTShowChar8x16_1
    457              else charIndex = 0;
   \                     ??halTFTShowChar8x16_0:
   \   000049   7402         MOV       A,#0x2
   \   00004B   12....       LCALL     ?XSTACK_DISP0_8
   \   00004E   E4           CLR       A
   \   00004F   F0           MOVX      @DPTR,A
   \   000050   A3           INC       DPTR
   \                     ??halTFTShowChar8x16_1:
   \   000051   F0           MOVX      @DPTR,A
    458              
    459              /* Show Line */
    460              for (uint8 l = 0; l < 16; l++)
   \   000052   7401         MOV       A,#0x1
   \   000054   12....       LCALL     ?XSTACK_DISP0_8
   \   000057   E4           CLR       A
   \   000058   F0           MOVX      @DPTR,A
   \   000059   7418         MOV       A,#0x18
   \   00005B   12....       LCALL     ?XSTACK_DISP0_8
   \   00005E   E0           MOVX      A,@DPTR
   \   00005F   F5..         MOV       ?V6,A
   \   000061   A3           INC       DPTR
   \   000062   E0           MOVX      A,@DPTR
   \   000063   F5..         MOV       ?V7,A
   \   000065   741A         MOV       A,#0x1a
   \   000067   12....       LCALL     ?XSTACK_DISP0_8
   \   00006A   E0           MOVX      A,@DPTR
   \   00006B   F5..         MOV       ?V2,A
   \   00006D   A3           INC       DPTR
   \   00006E   E0           MOVX      A,@DPTR
   \   00006F   F5..         MOV       ?V3,A
    461                  /* Show Column: 8column per line */
    462                for(uint8 c = 0; c < 8; c++) {
   \                     ??halTFTShowChar8x16_2:
   \   000071   85..82       MOV       DPL,?XSP + 0
   \   000074   85..83       MOV       DPH,?XSP + 1
   \   000077   E4           CLR       A
   \   000078   F0           MOVX      @DPTR,A
   \   000079   04           INC       A
   \   00007A   12....       LCALL     ?XSTACK_DISP0_8
   \   00007D   E0           MOVX      A,@DPTR
   \   00007E   F5..         MOV       ?V0,A
   \   000080   7404         MOV       A,#0x4
   \   000082   12....       LCALL     ?XSTACK_DISP0_8
   \   000085   E0           MOVX      A,@DPTR
   \   000086   25..         ADD       A,?V0
   \   000088   FE           MOV       R6,A
   \   000089   A3           INC       DPTR
   \   00008A   E0           MOVX      A,@DPTR
   \   00008B   3400         ADDC      A,#0x0
   \   00008D   FF           MOV       R7,A
    463                      if(HAL_TFT_FONT_TBL_8x16[charIndex + l] & (0x80 >> c)) halTFTDrawPixel(x + c, y + l, fontColor);
   \                     ??halTFTShowChar8x16_3:
   \   00008E   7406         MOV       A,#0x6
   \   000090   12....       LCALL     ?XSTACK_DISP0_8
   \   000093   C082         PUSH      DPL
   \   000095   C083         PUSH      DPH
   \   000097   85..82       MOV       DPL,?XSP + 0
   \   00009A   85..83       MOV       DPH,?XSP + 1
   \   00009D   E0           MOVX      A,@DPTR
   \   00009E   F8           MOV       R0,A
   \   00009F   D083         POP       DPH
   \   0000A1   D082         POP       DPL
   \   0000A3   12....       LCALL     ?Subroutine2 & 0xFFFF
   \                     ??CrossCallReturnLabel_0:
   \   0000A6   85..82       MOV       DPL,?XSP + 0
   \   0000A9   85..83       MOV       DPH,?XSP + 1
   \   0000AC   E0           MOVX      A,@DPTR
   \   0000AD   78..         MOV       R0,#?V4
   \   0000AF   12....       LCALL     ?SS_SHR
   \   0000B2   7402         MOV       A,#0x2
   \   0000B4   12....       LCALL     ?XSTACK_DISP0_8
   \   0000B7   E0           MOVX      A,@DPTR
   \   0000B8   25..         ADD       A,?V0
   \   0000BA   F8           MOV       R0,A
   \   0000BB   A3           INC       DPTR
   \   0000BC   E0           MOVX      A,@DPTR
   \   0000BD   3400         ADDC      A,#0x0
   \   0000BF   F9           MOV       R1,A
   \   0000C0   74..         MOV       A,#FontTable_H_8X16 & 0xff
   \   0000C2   28           ADD       A,R0
   \   0000C3   F582         MOV       DPL,A
   \   0000C5   74..         MOV       A,#(FontTable_H_8X16 >> 8) & 0xff
   \   0000C7   39           ADDC      A,R1
   \   0000C8   F583         MOV       DPH,A
   \   0000CA   E0           MOVX      A,@DPTR
   \   0000CB   55..         ANL       A,?V4
   \   0000CD   600D         JZ        ??halTFTShowChar8x16_4
   \   0000CF                ; Setup parameters for call to function halTFTDrawPixel
   \   0000CF   85....       MOV       ?V4,?V6
   \   0000D2   85....       MOV       ?V5,?V7
   \   0000D5   78..         MOV       R0,#?V4
   \   0000D7   12....       LCALL     ?PUSH_XSTACK_I_TWO
   \   0000DA   8005         SJMP      ??halTFTShowChar8x16_5
    464                      else halTFTDrawPixel(x + c, y + l, backgroundColor);
   \                     ??halTFTShowChar8x16_4:
   \   0000DC                ; Setup parameters for call to function halTFTDrawPixel
   \   0000DC   78..         MOV       R0,#?V2
   \   0000DE   12....       LCALL     ?PUSH_XSTACK_I_TWO
   \                     ??halTFTShowChar8x16_5:
   \   0000E1   EE           MOV       A,R6
   \   0000E2   FC           MOV       R4,A
   \   0000E3   EF           MOV       A,R7
   \   0000E4   FD           MOV       R5,A
   \   0000E5   12....       LCALL     `??halTFTDrawPixel::?relay`; Banked call to: halTFTDrawPixel
   \   0000E8   7402         MOV       A,#0x2
   \   0000EA   12....       LCALL     ?DEALLOC_XSTACK8
    465                }
   \   0000ED   85..82       MOV       DPL,?XSP + 0
   \   0000F0   85..83       MOV       DPH,?XSP + 1
   \   0000F3   E0           MOVX      A,@DPTR
   \   0000F4   04           INC       A
   \   0000F5   F0           MOVX      @DPTR,A
   \   0000F6   C3           CLR       C
   \   0000F7   9408         SUBB      A,#0x8
   \   0000F9   4093         JC        ??halTFTShowChar8x16_3
   \   0000FB   7401         MOV       A,#0x1
   \   0000FD   12....       LCALL     ?XSTACK_DISP0_8
   \   000100   E0           MOVX      A,@DPTR
   \   000101   04           INC       A
   \   000102   F0           MOVX      @DPTR,A
   \   000103   C3           CLR       C
   \   000104   9410         SUBB      A,#0x10
   \   000106   5003         JNC       $+5
   \   000108   02....       LJMP      ??halTFTShowChar8x16_2 & 0xFFFF
    466          }
   \   00010B   7408         MOV       A,#0x8
   \   00010D   80..         SJMP      ??Subroutine9_0

   \                                 In  segment BANKED_CODE, align 1, keep-with-next
   \                     ?Subroutine2:
   \   000000   E0           MOVX      A,@DPTR
   \   000001   28           ADD       A,R0
   \   000002   FA           MOV       R2,A
   \   000003   A3           INC       DPTR
   \   000004   E0           MOVX      A,@DPTR
   \   000005   3400         ADDC      A,#0x0
   \   000007   FB           MOV       R3,A
   \   000008   75..80       MOV       ?V4,#-0x80
   \   00000B   75..00       MOV       ?V5,#0x0
   \   00000E   22           RET
    467          

   \                                 In  segment BANKED_CODE, align 1, keep-with-next
    468          static void halTFTShowChineseChar16x16(uint16 x, uint16 y, uint16 fontColor, uint16 backgroundColor, uint8 chL, uint8 chR)
   \                     halTFTShowChineseChar16x16:
    469          {
   \   000000                REQUIRE ?V0
   \   000000                REQUIRE ?V1
   \   000000                REQUIRE ?V2
   \   000000                REQUIRE ?V3
   \   000000                REQUIRE ?V4
   \   000000                REQUIRE ?V5
   \   000000                REQUIRE ?V6
   \   000000                REQUIRE ?V7
   \   000000   74F0         MOV       A,#-0x10
   \   000002   12....       LCALL     ?BANKED_ENTER_XDATA
   \   000005                ; Saved register size: 16
   \   000005                ; Auto size: 9
   \   000005   74F7         MOV       A,#-0x9
   \   000007   12....       LCALL     ?ALLOC_XSTACK8
   \   00000A   7405         MOV       A,#0x5
   \   00000C   12....       LCALL     ?XSTACK_DISP0_8
   \   00000F   EA           MOV       A,R2
   \   000010   F0           MOVX      @DPTR,A
   \   000011   A3           INC       DPTR
   \   000012   EB           MOV       A,R3
   \   000013   F0           MOVX      @DPTR,A
   \   000014   7407         MOV       A,#0x7
   \   000016   12....       LCALL     ?XSTACK_DISP0_8
   \   000019   EC           MOV       A,R4
   \   00001A   F0           MOVX      @DPTR,A
   \   00001B   A3           INC       DPTR
   \   00001C   ED           MOV       A,R5
   \   00001D   F0           MOVX      @DPTR,A
   \   00001E   7402         MOV       A,#0x2
   \   000020   12....       LCALL     ?XSTACK_DISP0_8
   \   000023   E9           MOV       A,R1
   \   000024   F0           MOVX      @DPTR,A
    470              for (uint16 i = 0; i < HAL_TFT_FONT_TBL_CHINESE_SIZE; i++) {
   \   000025   7800         MOV       R0,#0x0
   \   000027   7900         MOV       R1,#0x0
   \   000029   741D         MOV       A,#0x1d
   \   00002B   12....       LCALL     ?XSTACK_DISP0_8
   \   00002E   E0           MOVX      A,@DPTR
   \   00002F   FC           MOV       R4,A
    471                  if (HAL_TFT_FONT_TBL_CHINESE_16x16[i].Char16x16[0] != chL || HAL_TFT_FONT_TBL_CHINESE_16x16[i].Char16x16[1] != chR) continue;
   \                     ??halTFTShowChineseChar16x16_0:
   \   000030   E8           MOV       A,R0
   \   000031   FA           MOV       R2,A
   \   000032   E9           MOV       A,R1
   \   000033   FB           MOV       R3,A
   \   000034   EA           MOV       A,R2
   \   000035   75F022       MOV       B,#0x22
   \   000038   A4           MUL       AB
   \   000039   FA           MOV       R2,A
   \   00003A   ADF0         MOV       R5,B
   \   00003C   75F022       MOV       B,#0x22
   \   00003F   EB           MOV       A,R3
   \   000040   A4           MUL       AB
   \   000041   2D           ADD       A,R5
   \   000042   FB           MOV       R3,A
   \   000043   74..         MOV       A,#FontTable_Chinese_H_16X16 & 0xff
   \   000045   2A           ADD       A,R2
   \   000046   FA           MOV       R2,A
   \   000047   74..         MOV       A,#(FontTable_Chinese_H_16X16 >> 8) & 0xff
   \   000049   3B           ADDC      A,R3
   \   00004A   FB           MOV       R3,A
   \   00004B   85..82       MOV       DPL,?XSP + 0
   \   00004E   85..83       MOV       DPH,?XSP + 1
   \   000051   EA           MOV       A,R2
   \   000052   F0           MOVX      @DPTR,A
   \   000053   A3           INC       DPTR
   \   000054   EB           MOV       A,R3
   \   000055   F0           MOVX      @DPTR,A
   \   000056   12....       LCALL     ?Subroutine7 & 0xFFFF
   \                     ??CrossCallReturnLabel_11:
   \   000059   E0           MOVX      A,@DPTR
   \   00005A   FA           MOV       R2,A
   \   00005B   7402         MOV       A,#0x2
   \   00005D   12....       LCALL     ?XSTACK_DISP0_8
   \   000060   E0           MOVX      A,@DPTR
   \   000061   6A           XRL       A,R2
   \   000062   7008         JNZ       ??halTFTShowChineseChar16x16_1
   \   000064   12....       LCALL     ?Subroutine7 & 0xFFFF
   \                     ??CrossCallReturnLabel_12:
   \   000067   A3           INC       DPTR
   \   000068   E0           MOVX      A,@DPTR
   \   000069   6C           XRL       A,R4
   \   00006A   6012         JZ        ??halTFTShowChineseChar16x16_2
   \                     ??halTFTShowChineseChar16x16_1:
   \   00006C   08           INC       R0
   \   00006D   E8           MOV       A,R0
   \   00006E   7001         JNZ       ??halTFTShowChineseChar16x16_3
   \   000070   09           INC       R1
   \                     ??halTFTShowChineseChar16x16_3:
   \   000071   C3           CLR       C
   \   000072   9404         SUBB      A,#0x4
   \   000074   E9           MOV       A,R1
   \   000075   9400         SUBB      A,#0x0
   \   000077   4003         JC        $+5
   \   000079   02....       LJMP      ??halTFTShowChineseChar16x16_4 & 0xFFFF
   \   00007C   80B2         SJMP      ??halTFTShowChineseChar16x16_0
    472                  
    473                  /* Show Line */
    474                  for (uint8 l = 0; l < 16; l++) {
   \                     ??halTFTShowChineseChar16x16_2:
   \   00007E   75..00       MOV       ?V7,#0x0
   \   000081   7419         MOV       A,#0x19
   \   000083   12....       LCALL     ?XSTACK_DISP0_8
   \   000086   E0           MOVX      A,@DPTR
   \   000087   F5..         MOV       ?V2,A
   \   000089   A3           INC       DPTR
   \   00008A   E0           MOVX      A,@DPTR
   \   00008B   F5..         MOV       ?V3,A
   \   00008D   741B         MOV       A,#0x1b
   \   00008F   12....       LCALL     ?XSTACK_DISP0_8
   \   000092   12....       LCALL     ?Subroutine4 & 0xFFFF
    475                      /* Show Column: 16column per line */
    476                      // First 8column
    477                      for (uint8 c1 = 0; c1 < 8; c1++) {
   \                     ??CrossCallReturnLabel_6:
   \   000095   75..00       MOV       ?V6,#0x0
   \   000098   A8..         MOV       R0,?V7
   \   00009A   E8           MOV       A,R0
   \   00009B   28           ADD       A,R0
   \   00009C   F8           MOV       R0,A
   \   00009D   E4           CLR       A
   \   00009E   33           RLC       A
   \   00009F   F9           MOV       R1,A
   \   0000A0   85..82       MOV       DPL,?XSP + 0
   \   0000A3   85..83       MOV       DPH,?XSP + 1
   \   0000A6   E0           MOVX      A,@DPTR
   \   0000A7   28           ADD       A,R0
   \   0000A8   F8           MOV       R0,A
   \   0000A9   A3           INC       DPTR
   \   0000AA   E0           MOVX      A,@DPTR
   \   0000AB   39           ADDC      A,R1
   \   0000AC   F9           MOV       R1,A
   \   0000AD   7403         MOV       A,#0x3
   \   0000AF   12....       LCALL     ?XSTACK_DISP0_8
   \   0000B2   E8           MOV       A,R0
   \   0000B3   F0           MOVX      @DPTR,A
   \   0000B4   A3           INC       DPTR
   \   0000B5   E9           MOV       A,R1
   \   0000B6   F0           MOVX      @DPTR,A
   \   0000B7   7407         MOV       A,#0x7
   \   0000B9   12....       LCALL     ?XSTACK_DISP0_8
   \   0000BC   A8..         MOV       R0,?V7
   \   0000BE   E0           MOVX      A,@DPTR
   \   0000BF   28           ADD       A,R0
   \   0000C0   FE           MOV       R6,A
   \   0000C1   A3           INC       DPTR
   \   0000C2   E0           MOVX      A,@DPTR
   \   0000C3   3400         ADDC      A,#0x0
   \   0000C5   FF           MOV       R7,A
    478                          if(HAL_TFT_FONT_TBL_CHINESE_16x16[i].code[l*2] & (0x80>>c1))
   \                     ??halTFTShowChineseChar16x16_5:
   \   0000C6   7405         MOV       A,#0x5
   \   0000C8   12....       LCALL     ?XSTACK_DISP0_8
   \   0000CB   A8..         MOV       R0,?V6
   \   0000CD   12....       LCALL     ?Subroutine2 & 0xFFFF
   \                     ??CrossCallReturnLabel_1:
   \   0000D0   E8           MOV       A,R0
   \   0000D1   78..         MOV       R0,#?V4
   \   0000D3   12....       LCALL     ?SS_SHR
   \   0000D6   7403         MOV       A,#0x3
   \   0000D8   12....       LCALL     ?XSTACK_DISP0_8
   \   0000DB   12....       LCALL     ?Subroutine5 & 0xFFFF
   \                     ??CrossCallReturnLabel_7:
   \   0000DE   E0           MOVX      A,@DPTR
   \   0000DF   55..         ANL       A,?V4
   \   0000E1   6007         JZ        ??halTFTShowChineseChar16x16_6
    479                              halTFTDrawPixel(x + c1, y + l, fontColor);
   \   0000E3                ; Setup parameters for call to function halTFTDrawPixel
   \   0000E3   78..         MOV       R0,#?V2
   \   0000E5   12....       LCALL     ?PUSH_XSTACK_I_TWO
   \   0000E8   8005         SJMP      ??halTFTShowChineseChar16x16_7
    480                          else
    481                              halTFTDrawPixel(x + c1, y + l, backgroundColor);
   \                     ??halTFTShowChineseChar16x16_6:
   \   0000EA                ; Setup parameters for call to function halTFTDrawPixel
   \   0000EA   78..         MOV       R0,#?V0
   \   0000EC   12....       LCALL     ?PUSH_XSTACK_I_TWO
   \                     ??halTFTShowChineseChar16x16_7:
   \   0000EF   EE           MOV       A,R6
   \   0000F0   FC           MOV       R4,A
   \   0000F1   EF           MOV       A,R7
   \   0000F2   FD           MOV       R5,A
   \   0000F3   12....       LCALL     `??halTFTDrawPixel::?relay`; Banked call to: halTFTDrawPixel
   \   0000F6   7402         MOV       A,#0x2
   \   0000F8   12....       LCALL     ?DEALLOC_XSTACK8
    482                      }
   \   0000FB   05..         INC       ?V6
   \   0000FD   E5..         MOV       A,?V6
   \   0000FF   C3           CLR       C
   \   000100   9408         SUBB      A,#0x8
   \   000102   40C2         JC        ??halTFTShowChineseChar16x16_5
    483                      // Last 8column
    484                      for (uint8 c2 = 0; c2 < 8; c2++) {
   \   000104   75..00       MOV       ?V6,#0x0
    485                          if(HAL_TFT_FONT_TBL_CHINESE_16x16[i].code[l*2+1] & (0x80>>c2))
   \                     ??halTFTShowChineseChar16x16_8:
   \   000107   7405         MOV       A,#0x5
   \   000109   12....       LCALL     ?XSTACK_DISP0_8
   \   00010C   A8..         MOV       R0,?V6
   \   00010E   E0           MOVX      A,@DPTR
   \   00010F   28           ADD       A,R0
   \   000110   F8           MOV       R0,A
   \   000111   A3           INC       DPTR
   \   000112   E0           MOVX      A,@DPTR
   \   000113   3400         ADDC      A,#0x0
   \   000115   F9           MOV       R1,A
   \   000116   E8           MOV       A,R0
   \   000117   2408         ADD       A,#0x8
   \   000119   FA           MOV       R2,A
   \   00011A   E4           CLR       A
   \   00011B   39           ADDC      A,R1
   \   00011C   FB           MOV       R3,A
   \   00011D   75..80       MOV       ?V4,#-0x80
   \   000120   75..00       MOV       ?V5,#0x0
   \   000123   E5..         MOV       A,?V6
   \   000125   78..         MOV       R0,#?V4
   \   000127   12....       LCALL     ?SS_SHR
   \   00012A   7403         MOV       A,#0x3
   \   00012C   12....       LCALL     ?XSTACK_DISP0_8
   \   00012F   12....       LCALL     ?Subroutine5 & 0xFFFF
   \                     ??CrossCallReturnLabel_8:
   \   000132   A3           INC       DPTR
   \   000133   E0           MOVX      A,@DPTR
   \   000134   55..         ANL       A,?V4
   \   000136   6007         JZ        ??halTFTShowChineseChar16x16_9
    486                              halTFTDrawPixel(x + c2 + 8, y + l, fontColor);
   \   000138                ; Setup parameters for call to function halTFTDrawPixel
   \   000138   78..         MOV       R0,#?V2
   \   00013A   12....       LCALL     ?PUSH_XSTACK_I_TWO
   \   00013D   8005         SJMP      ??halTFTShowChineseChar16x16_10
    487                          else
    488                              halTFTDrawPixel(x + c2 + 8, y + l, backgroundColor);
   \                     ??halTFTShowChineseChar16x16_9:
   \   00013F                ; Setup parameters for call to function halTFTDrawPixel
   \   00013F   78..         MOV       R0,#?V0
   \   000141   12....       LCALL     ?PUSH_XSTACK_I_TWO
   \                     ??halTFTShowChineseChar16x16_10:
   \   000144   EE           MOV       A,R6
   \   000145   FC           MOV       R4,A
   \   000146   EF           MOV       A,R7
   \   000147   FD           MOV       R5,A
   \   000148   12....       LCALL     `??halTFTDrawPixel::?relay`; Banked call to: halTFTDrawPixel
   \   00014B   7402         MOV       A,#0x2
   \   00014D   12....       LCALL     ?DEALLOC_XSTACK8
    489                      }
   \   000150   05..         INC       ?V6
   \   000152   E5..         MOV       A,?V6
   \   000154   C3           CLR       C
   \   000155   9408         SUBB      A,#0x8
   \   000157   40AE         JC        ??halTFTShowChineseChar16x16_8
    490                  }
   \   000159   05..         INC       ?V7
   \   00015B   E5..         MOV       A,?V7
   \   00015D   C3           CLR       C
   \   00015E   9410         SUBB      A,#0x10
   \   000160   5003         JNC       $+5
   \   000162   02....       LJMP      ??CrossCallReturnLabel_6 & 0xFFFF
    491          
    492                  break;
    493              }
    494          }
   \                     ??halTFTShowChineseChar16x16_4:
   \   000165   7409         MOV       A,#0x9
   \   000167   02....       LJMP      ??Subroutine9_0 & 0xFFFF

   \                                 In  segment BANKED_CODE, align 1, keep-with-next
   \                     ?Subroutine7:
   \   000000   85..82       MOV       DPL,?XSP + 0
   \   000003   85..83       MOV       DPH,?XSP + 1
   \   000006   E0           MOVX      A,@DPTR
   \   000007   FA           MOV       R2,A
   \   000008   A3           INC       DPTR
   \   000009   E0           MOVX      A,@DPTR
   \   00000A   F583         MOV       DPH,A
   \   00000C   8A82         MOV       DPL,R2
   \   00000E   22           RET

   \                                 In  segment BANKED_CODE, align 1, keep-with-next
   \                     ?Subroutine5:
   \   000000   E0           MOVX      A,@DPTR
   \   000001   F8           MOV       R0,A
   \   000002   A3           INC       DPTR
   \   000003   E0           MOVX      A,@DPTR
   \   000004   F583         MOV       DPH,A
   \   000006   8882         MOV       DPL,R0
   \   000008   A3           INC       DPTR
   \   000009   A3           INC       DPTR
   \   00000A   22           RET

   \                                 In  segment BANK_RELAYS, align 1
   \                     `??halTFTInit::?relay`:
   \   000000   12....       LCALL   ?BDISPATCH
   \   000003   ......       DC24    halTFTInit

   \                                 In  segment BANK_RELAYS, align 1
   \                     `??halTFTSetScreen::?relay`:
   \   000000   12....       LCALL   ?BDISPATCH
   \   000003   ......       DC24    halTFTSetScreen

   \                                 In  segment BANK_RELAYS, align 1
   \                     `??halTFTShowX16::?relay`:
   \   000000   12....       LCALL   ?BDISPATCH
   \   000003   ......       DC24    halTFTShowX16

   \                                 In  segment BANK_RELAYS, align 1
   \                     `??halTFTShowPicture::?relay`:
   \   000000   12....       LCALL   ?BDISPATCH
   \   000003   ......       DC24    halTFTShowPicture

   \                                 In  segment BANK_RELAYS, align 1
   \                     `??ST7735SInit::?relay`:
   \   000000   12....       LCALL   ?BDISPATCH
   \   000003   ......       DC24    ST7735SInit

   \                                 In  segment BANK_RELAYS, align 1
   \                     `??halTFTSetRegion::?relay`:
   \   000000   12....       LCALL   ?BDISPATCH
   \   000003   ......       DC24    halTFTSetRegion

   \                                 In  segment BANK_RELAYS, align 1
   \                     `??halTFTDrawPixel::?relay`:
   \   000000   12....       LCALL   ?BDISPATCH
   \   000003   ......       DC24    halTFTDrawPixel

   \                                 In  segment BANK_RELAYS, align 1
   \                     `??halTFTShowChar8x16::?relay`:
   \   000000   12....       LCALL   ?BDISPATCH
   \   000003   ......       DC24    halTFTShowChar8x16

   \                                 In  segment BANK_RELAYS, align 1
   \                     `??halTFTShowChineseChar16x16::?relay`:
   \   000000   12....       LCALL   ?BDISPATCH
   \   000003   ......       DC24    halTFTShowChineseChar16x16

   Maximum stack usage in bytes:

   ISTACK XSTACK Function
   ------ ------ --------
      0     19   ST7735SInit
        0      9   -> delayMs
        0      9   -> halLcdSpiTxCmd
        0      9   -> halLcdSpiTxData
      0     41   halTFTDrawPixel
        0     10   -> halLcdSpiTxData
        0     14   -> halTFTSetRegion
      0     14   halTFTInit
        0     10   -> ST7735SInit
        0     10   -> halLcdSpiInit
        0     14   -> halTFTSetRegion
        0     10   -> halTFTSetScreen
      0     37   halTFTSetRegion
        0     15   -> halLcdSpiTxCmd
        0     15   -> halLcdSpiTxData
      0     24   halTFTSetScreen
        0     10   -> halLcdSpiTxData
        0     14   -> halTFTSetRegion
      2     48   halTFTShowChar8x16
        0     26   -> halTFTDrawPixel
      1     50   halTFTShowChineseChar16x16
        0     27   -> halTFTDrawPixel
      0     24   halTFTShowPicture
        0     18   -> halLcdSpiTxData
        0     22   -> halTFTSetRegion
      0     29   halTFTShowX16
        0     22   -> halTFTShowChar8x16
        0     23   -> halTFTShowChineseChar16x16


   Segment part sizes:

   Bytes  Function/Label
   -----  --------------
       8  ??Subroutine9_0
       5  ?Subroutine0
       2  ?Subroutine1
      15  ?Subroutine2
      12  ?Subroutine3
       8  ?Subroutine4
      11  ?Subroutine5
      10  ?Subroutine6
      15  ?Subroutine7
      13  ?Subroutine8
     136  FontTable_Chinese_H_16X16
    1520  FontTable_H_8X16
     424  ST7735SInit
       6  ST7735SInit::?relay
       1  _A_P1
      64  halTFTDrawPixel
       6  halTFTDrawPixel::?relay
      57  halTFTInit
       6  halTFTInit::?relay
     187  halTFTSetRegion
       6  halTFTSetRegion::?relay
      76  halTFTSetScreen
       6  halTFTSetScreen::?relay
     271  halTFTShowChar8x16
       6  halTFTShowChar8x16::?relay
     362  halTFTShowChineseChar16x16
       6  halTFTShowChineseChar16x16::?relay
     194  halTFTShowPicture
       6  halTFTShowPicture::?relay
     209  halTFTShowX16
       6  halTFTShowX16::?relay

 
 1 943 bytes in segment BANKED_CODE
    54 bytes in segment BANK_RELAYS
     1 byte  in segment SFR_AN
 1 656 bytes in segment XDATA_ROM_C
 
    54 bytes of CODE     memory
 1 656 bytes of CONST    memory
     0 bytes of DATA     memory (+ 1 byte shared)
 1 943 bytes of HUGECODE memory

Errors: none
Warnings: none
