###############################################################################
#
# IAR C/C++ Compiler V10.10.1.4655 for 8051               22/Nov/2023  15:42:41
# Copyright 2004-2017 IAR Systems AB.
# Standalone license - IAR Embedded Workbench for 8051
#
#    Core               =  plain
#    Code model         =  banked
#    Data model         =  large
#    Calling convention =  xdata reentrant
#    Constant location  =  data_rom
#    Dptr setup         =  1,16
#                          
#    Source file        =  
#        D:\fuzzing-coordinator-response-collection\Components\hal\target\CC2530EB\HW_LCD\HAL_OLED\hal_oled12864.c
#    Command line       =  
#        -f C:\Users\ADMINI~1\AppData\Local\Temp\EWA118.tmp
#        (D:\fuzzing-coordinator-response-collection\Components\hal\target\CC2530EB\HW_LCD\HAL_OLED\hal_oled12864.c
#        -D SECURE=1 -D TC_LINKKEY_JOIN -D NV_INIT -D NV_RESTORE -D
#        MULTICAST_ENABLED=FALSE -D ZCL_READ -D ZCL_DISCOVER -D ZCL_WRITE -D
#        ZCL_BASIC -D ZCL_IDENTIFY -D ISR_KEYINTERRUPT -D HAL_UART=TRUE -D
#        HAL_LCD=FALSE -D ZCL_ON_OFF -D INT_HEAP_LEN=2800 -D
#        HAL_UART_DMA_RX_MAX=256 -D HAL_UART_DMA_TX_MAX=256 -lC
#        D:\fuzzing-coordinator-response-collection\Projects\zstack\HomeAutomation\SampleSwitch\CC2530DB\CoordinatorEB\List
#        -lA
#        D:\fuzzing-coordinator-response-collection\Projects\zstack\HomeAutomation\SampleSwitch\CC2530DB\CoordinatorEB\List
#        --diag_suppress Pe001,Pa010 -o
#        D:\fuzzing-coordinator-response-collection\Projects\zstack\HomeAutomation\SampleSwitch\CC2530DB\CoordinatorEB\Obj
#        -e --debug --core=plain --dptr=16,1 --data_model=large
#        --code_model=banked --calling_convention=xdata_reentrant
#        --place_constants=data_rom --nr_virtual_regs 8 -f
#        D:\fuzzing-coordinator-response-collection\Projects\zstack\HomeAutomation\SampleSwitch\CC2530DB\..\..\..\Tools\CC2530DB\f8wCoord.cfg
#        (-DCPU32MHZ -DROOT=__near_func -DMAC_CFG_APP_PENDING_QUEUE=TRUE
#        -DMAC_CFG_TX_DATA_MAX=5 -DMAC_CFG_TX_MAX=8 -DMAC_CFG_RX_MAX=5
#        -DZDO_COORDINATOR -DRTR_NWK) -f
#        D:\fuzzing-coordinator-response-collection\Projects\zstack\HomeAutomation\SampleSwitch\CC2530DB\..\..\..\Tools\CC2530DB\f8wConfig.cfg
#        (-DZIGBEEPRO -DSECURE=1 -DZG_SECURE_DYNAMIC=0 -DREFLECTOR
#        -DDEFAULT_CHANLIST=0x00000800 -DZDAPP_CONFIG_PAN_ID=0xFFFF
#        -DNWK_START_DELAY=100 -DEXTENDED_JOINING_RANDOM_MASK=0x007F
#        -DBEACON_REQUEST_DELAY=100 -DBEACON_REQ_DELAY_MASK=0x00FF
#        -DLINK_STATUS_JITTER_MASK=0x007F -DROUTE_EXPIRY_TIME=30
#        -DAPSC_ACK_WAIT_DURATION_POLLED=3000 -DNWK_INDIRECT_MSG_TIMEOUT=7
#        -DMAX_RREQ_ENTRIES=8 -DAPSC_MAX_FRAME_RETRIES=3
#        -DNWK_MAX_DATA_RETRIES=2 -DMAX_POLL_FAILURE_RETRIES=2 -DMAX_BCAST=9
#        -DAPS_MAX_GROUPS=16 -DMAX_RTG_ENTRIES=40 -DNWK_MAX_BINDING_ENTRIES=4
#        -DMAX_BINDING_CLUSTER_IDS=4 "-DDEFAULT_KEY={0x00, 0x01, 0x02, 0x03,
#        0x04, 0x05, 0x06, 0x07, 0x08, 0x09, 0x0A, 0x0B, 0x0C, 0x0D, 0x0E,
#        0x0F}" -DMAC_MAX_FRAME_SIZE=116 -DZDNWKMGR_MIN_TRANSMISSIONS=20
#        "-DCONST=const __code" -DGENERIC=__generic -DRFD_RCVC_ALWAYS_ON=FALSE
#        -DPOLL_RATE=1000 -DQUEUED_POLL_RATE=100 -DRESPONSE_POLL_RATE=100
#        -DREJOIN_POLL_RATE=440 -DREJOIN_BACKOFF=900000 -DREJOIN_SCAN=900000
#        -DENABLE_LED4_DISABLE_S1) -f
#        D:\fuzzing-coordinator-response-collection\Projects\zstack\HomeAutomation\SampleSwitch\CC2530DB\..\..\..\Tools\CC2530DB\f8wZCL.cfg
#        -I
#        D:\fuzzing-coordinator-response-collection\Projects\zstack\HomeAutomation\SampleSwitch\CC2530DB\
#        -I
#        D:\fuzzing-coordinator-response-collection\Projects\zstack\HomeAutomation\SampleSwitch\CC2530DB\..\Source\
#        -I
#        D:\fuzzing-coordinator-response-collection\Projects\zstack\HomeAutomation\SampleSwitch\CC2530DB\..\..\Source\
#        -I
#        D:\fuzzing-coordinator-response-collection\Projects\zstack\HomeAutomation\SampleSwitch\CC2530DB\..\..\..\ZMain\TI2530DB\
#        -I
#        D:\fuzzing-coordinator-response-collection\Projects\zstack\HomeAutomation\SampleSwitch\CC2530DB\..\..\..\..\..\Components\hal\include\
#        -I
#        D:\fuzzing-coordinator-response-collection\Projects\zstack\HomeAutomation\SampleSwitch\CC2530DB\..\..\..\..\..\Components\hal\target\CC2530EB\
#        -I
#        D:\fuzzing-coordinator-response-collection\Projects\zstack\HomeAutomation\SampleSwitch\CC2530DB\..\..\..\..\..\Components\mac\include\
#        -I
#        D:\fuzzing-coordinator-response-collection\Projects\zstack\HomeAutomation\SampleSwitch\CC2530DB\..\..\..\..\..\Components\mac\high_level\
#        -I
#        D:\fuzzing-coordinator-response-collection\Projects\zstack\HomeAutomation\SampleSwitch\CC2530DB\..\..\..\..\..\Components\mac\low_level\srf04\
#        -I
#        D:\fuzzing-coordinator-response-collection\Projects\zstack\HomeAutomation\SampleSwitch\CC2530DB\..\..\..\..\..\Components\mac\low_level\srf04\single_chip\
#        -I
#        D:\fuzzing-coordinator-response-collection\Projects\zstack\HomeAutomation\SampleSwitch\CC2530DB\..\..\..\..\..\Components\mt\
#        -I
#        D:\fuzzing-coordinator-response-collection\Projects\zstack\HomeAutomation\SampleSwitch\CC2530DB\..\..\..\..\..\Components\osal\include\
#        -I
#        D:\fuzzing-coordinator-response-collection\Projects\zstack\HomeAutomation\SampleSwitch\CC2530DB\..\..\..\..\..\Components\services\saddr\
#        -I
#        D:\fuzzing-coordinator-response-collection\Projects\zstack\HomeAutomation\SampleSwitch\CC2530DB\..\..\..\..\..\Components\services\sdata\
#        -I
#        D:\fuzzing-coordinator-response-collection\Projects\zstack\HomeAutomation\SampleSwitch\CC2530DB\..\..\..\..\..\Components\stack\af\
#        -I
#        D:\fuzzing-coordinator-response-collection\Projects\zstack\HomeAutomation\SampleSwitch\CC2530DB\..\..\..\..\..\Components\stack\bdb\
#        -I
#        D:\fuzzing-coordinator-response-collection\Projects\zstack\HomeAutomation\SampleSwitch\CC2530DB\..\..\..\..\..\Components\stack\gp\
#        -I
#        D:\fuzzing-coordinator-response-collection\Projects\zstack\HomeAutomation\SampleSwitch\CC2530DB\..\..\..\..\..\Components\stack\nwk\
#        -I
#        D:\fuzzing-coordinator-response-collection\Projects\zstack\HomeAutomation\SampleSwitch\CC2530DB\..\..\..\..\..\Components\stack\sapi\
#        -I
#        D:\fuzzing-coordinator-response-collection\Projects\zstack\HomeAutomation\SampleSwitch\CC2530DB\..\..\..\..\..\Components\stack\sec\
#        -I
#        D:\fuzzing-coordinator-response-collection\Projects\zstack\HomeAutomation\SampleSwitch\CC2530DB\..\..\..\..\..\Components\stack\sys\
#        -I
#        D:\fuzzing-coordinator-response-collection\Projects\zstack\HomeAutomation\SampleSwitch\CC2530DB\..\..\..\..\..\Components\stack\zcl\
#        -I
#        D:\fuzzing-coordinator-response-collection\Projects\zstack\HomeAutomation\SampleSwitch\CC2530DB\..\..\..\..\..\Components\stack\zdo\
#        -I
#        D:\fuzzing-coordinator-response-collection\Projects\zstack\HomeAutomation\SampleSwitch\CC2530DB\..\..\..\..\..\Components\zmac\
#        -I
#        D:\fuzzing-coordinator-response-collection\Projects\zstack\HomeAutomation\SampleSwitch\CC2530DB\..\..\..\..\..\Components\zmac\f8w\
#        -I
#        D:\fuzzing-coordinator-response-collection\Projects\zstack\HomeAutomation\SampleSwitch\CC2530DB\..\..\..\..\..\Components\hal\target\CC2530EB\Common\
#        -I
#        D:\fuzzing-coordinator-response-collection\Projects\zstack\HomeAutomation\SampleSwitch\CC2530DB\..\..\..\..\..\Components\hal\target\CC2530EB\SPI\
#        -I
#        D:\fuzzing-coordinator-response-collection\Projects\zstack\HomeAutomation\SampleSwitch\CC2530DB\..\..\..\..\..\Components\hal\target\CC2530EB\HW_LCD\Font\
#        -I
#        D:\fuzzing-coordinator-response-collection\Projects\zstack\HomeAutomation\SampleSwitch\CC2530DB\..\..\..\..\..\Components\hal\target\CC2530EB\HW_LCD\HAL_LCD_SPI\
#        -I
#        D:\fuzzing-coordinator-response-collection\Projects\zstack\HomeAutomation\SampleSwitch\CC2530DB\..\..\..\..\..\Components\hal\target\CC2530EB\HW_LCD\HAL_OLED\
#        -I
#        D:\fuzzing-coordinator-response-collection\Projects\zstack\HomeAutomation\SampleSwitch\CC2530DB\..\..\..\..\..\Components\hal\target\CC2530EB\HW_LCD\HAL_TFT\
#        -Ohz --require_prototypes)
#    Locale             =  Chinese (Simplified)_China.936
#    List file          =  
#        D:\fuzzing-coordinator-response-collection\Projects\zstack\HomeAutomation\SampleSwitch\CC2530DB\CoordinatorEB\List\hal_oled12864.lst
#    Object file        =  
#        D:\fuzzing-coordinator-response-collection\Projects\zstack\HomeAutomation\SampleSwitch\CC2530DB\CoordinatorEB\Obj\hal_oled12864.r51
#
###############################################################################

D:\fuzzing-coordinator-response-collection\Components\hal\target\CC2530EB\HW_LCD\HAL_OLED\hal_oled12864.c
      1          /**
      2           * Copyright (c) 2020~2022 iotlucker.com, All Rights Reserved.
      3           *
      4           * @Official Store: https://shop233815998.taobao.com
      5           * @Official Website & Online document: http://www.iotlucker.com
      6           * @WeChat Official Accounts: shanxuefang_iot
      7           * @Support: 1915912696@qq.com
      8           */
      9          #include "hal_oled12864.h"
     10          #include "font_chinese_v_16x16.h"

   \                                 In  segment XDATA_ROM_C, align 1
   \   static struct <unnamed> const __xdata_rom FontTable_Chinese_V_16X16[8]
   \                     FontTable_Chinese_V_16X16:
   \   000000   BDF1         DB 0BDH, 0F1H
   \   000002   80           DB 128
   \   000003   80           DB 128
   \   000004   40           DB 64
   \   000005   20           DB 32
   \   000006   10           DB 16
   \   000007   08           DB 8
   \   000008   24           DB 36
   \   000009   C3           DB 195
   \   00000A   04           DB 4
   \   00000B   08           DB 8
   \   00000C   10           DB 16
   \   00000D   20           DB 32
   \   00000E   40           DB 64
   \   00000F   80           DB 128
   \   000010   80           DB 128
   \   000011   00           DB 0
   \   000012   00           DB 0
   \   000013   00           DB 0
   \   000014   00           DB 0
   \   000015   02           DB 2
   \   000016   02           DB 2
   \   000017   02           DB 2
   \   000018   02           DB 2
   \   000019   82           DB 130
   \   00001A   42           DB 66
   \   00001B   22           DB 34
   \   00001C   1A           DB 26
   \   00001D   06           DB 6
   \   00001E   00           DB 0
   \   00001F   00           DB 0
   \   000020   00           DB 0
   \   000021   00           DB 0
   \   000022   CCEC         DB 0CCH, 0ECH
   \   000024   40           DB 64
   \   000025   40           DB 64
   \   000026   42           DB 66
   \   000027   42           DB 66
   \   000028   42           DB 66
   \   000029   42           DB 66
   \   00002A   42           DB 66
   \   00002B   FE           DB 254
   \   00002C   42           DB 66
   \   00002D   42           DB 66
   \   00002E   42           DB 66
   \   00002F   42           DB 66
   \   000030   42           DB 66
   \   000031   40           DB 64
   \   000032   40           DB 64
   \   000033   00           DB 0
   \   000034   80           DB 128
   \   000035   80           DB 128
   \   000036   40           DB 64
   \   000037   20           DB 32
   \   000038   10           DB 16
   \   000039   0C           DB 12
   \   00003A   03           DB 3
   \   00003B   00           DB 0
   \   00003C   03           DB 3
   \   00003D   0C           DB 12
   \   00003E   10           DB 16
   \   00003F   20           DB 32
   \   000040   40           DB 64
   \   000041   80           DB 128
   \   000042   80           DB 128
   \   000043   00           DB 0
   \   000044   C6F8         DB 0C6H, 0F8H
   \   000046   20           DB 32
   \   000047   10           DB 16
   \   000048   4C           DB 76
   \   000049   47           DB 71
   \   00004A   54           DB 84
   \   00004B   54           DB 84
   \   00004C   54           DB 84
   \   00004D   54           DB 84
   \   00004E   54           DB 84
   \   00004F   54           DB 84
   \   000050   54           DB 84
   \   000051   D4           DB 212
   \   000052   04           DB 4
   \   000053   04           DB 4
   \   000054   00           DB 0
   \   000055   00           DB 0
   \   000056   00           DB 0
   \   000057   00           DB 0
   \   000058   00           DB 0
   \   000059   00           DB 0
   \   00005A   00           DB 0
   \   00005B   00           DB 0
   \   00005C   00           DB 0
   \   00005D   00           DB 0
   \   00005E   00           DB 0
   \   00005F   00           DB 0
   \   000060   00           DB 0
   \   000061   0F           DB 15
   \   000062   30           DB 48
   \   000063   40           DB 64
   \   000064   F0           DB 240
   \   000065   00           DB 0
   \   000066   CEC2         DB 0CEH, 0C2H
   \   000068   10           DB 16
   \   000069   60           DB 96
   \   00006A   02           DB 2
   \   00006B   8C           DB 140
   \   00006C   00           DB 0
   \   00006D   00           DB 0
   \   00006E   FE           DB 254
   \   00006F   92           DB 146
   \   000070   92           DB 146
   \   000071   92           DB 146
   \   000072   92           DB 146
   \   000073   92           DB 146
   \   000074   FE           DB 254
   \   000075   00           DB 0
   \   000076   00           DB 0
   \   000077   00           DB 0
   \   000078   04           DB 4
   \   000079   04           DB 4
   \   00007A   7E           DB 126
   \   00007B   01           DB 1
   \   00007C   40           DB 64
   \   00007D   7E           DB 126
   \   00007E   42           DB 66
   \   00007F   42           DB 66
   \   000080   7E           DB 126
   \   000081   42           DB 66
   \   000082   7E           DB 126
   \   000083   42           DB 66
   \   000084   42           DB 66
   \   000085   7E           DB 126
   \   000086   40           DB 64
   \   000087   00           DB 0
   \   000088   B6C8         DB 0B6H, 0C8H
   \   00008A   00           DB 0
   \   00008B   00           DB 0
   \   00008C   FC           DB 252
   \   00008D   24           DB 36
   \   00008E   24           DB 36
   \   00008F   24           DB 36
   \   000090   FC           DB 252
   \   000091   25           DB 37
   \   000092   26           DB 38
   \   000093   24           DB 36
   \   000094   FC           DB 252
   \   000095   24           DB 36
   \   000096   24           DB 36
   \   000097   24           DB 36
   \   000098   04           DB 4
   \   000099   00           DB 0
   \   00009A   40           DB 64
   \   00009B   30           DB 48
   \   00009C   8F           DB 143
   \   00009D   80           DB 128
   \   00009E   84           DB 132
   \   00009F   4C           DB 76
   \   0000A0   55           DB 85
   \   0000A1   25           DB 37
   \   0000A2   25           DB 37
   \   0000A3   25           DB 37
   \   0000A4   55           DB 85
   \   0000A5   4C           DB 76
   \   0000A6   80           DB 128
   \   0000A7   80           DB 128
   \   0000A8   80           DB 128
   \   0000A9   00           DB 0
   \   0000AA   A3BA         DB 0A3H, 0BAH
   \   0000AC   00           DB 0
   \   0000AD   00           DB 0
   \   0000AE   00           DB 0
   \   0000AF   00           DB 0
   \   0000B0   00           DB 0
   \   0000B1   00           DB 0
   \   0000B2   00           DB 0
   \   0000B3   00           DB 0
   \   0000B4   00           DB 0
   \   0000B5   00           DB 0
   \   0000B6   00           DB 0
   \   0000B7   00           DB 0
   \   0000B8   00           DB 0
   \   0000B9   00           DB 0
   \   0000BA   00           DB 0
   \   0000BB   00           DB 0
   \   0000BC   00           DB 0
   \   0000BD   00           DB 0
   \   0000BE   36           DB 54
   \   0000BF   36           DB 54
   \   0000C0   00           DB 0
   \   0000C1   00           DB 0
   \   0000C2   00           DB 0
   \   0000C3   00           DB 0
   \   0000C4   00           DB 0
   \   0000C5   00           DB 0
   \   0000C6   00           DB 0
   \   0000C7   00           DB 0
   \   0000C8   00           DB 0
   \   0000C9   00           DB 0
   \   0000CA   00           DB 0
   \   0000CB   00           DB 0
   \   0000CC   A1E6         DB 0A1H, 0E6H
   \   0000CE   06           DB 6
   \   0000CF   09           DB 9
   \   0000D0   09           DB 9
   \   0000D1   E6           DB 230
   \   0000D2   F8           DB 248
   \   0000D3   0C           DB 12
   \   0000D4   04           DB 4
   \   0000D5   02           DB 2
   \   0000D6   02           DB 2
   \   0000D7   02           DB 2
   \   0000D8   02           DB 2
   \   0000D9   02           DB 2
   \   0000DA   04           DB 4
   \   0000DB   1E           DB 30
   \   0000DC   00           DB 0
   \   0000DD   00           DB 0
   \   0000DE   00           DB 0
   \   0000DF   00           DB 0
   \   0000E0   00           DB 0
   \   0000E1   07           DB 7
   \   0000E2   1F           DB 31
   \   0000E3   30           DB 48
   \   0000E4   20           DB 32
   \   0000E5   40           DB 64
   \   0000E6   40           DB 64
   \   0000E7   40           DB 64
   \   0000E8   40           DB 64
   \   0000E9   40           DB 64
   \   0000EA   20           DB 32
   \   0000EB   10           DB 16
   \   0000EC   00           DB 0
   \   0000ED   00           DB 0
   \   0000EE   CAAA         DB 0CAH, 0AAH
   \   0000F0   10           DB 16
   \   0000F1   60           DB 96
   \   0000F2   02           DB 2
   \   0000F3   8C           DB 140
   \   0000F4   00           DB 0
   \   0000F5   FE           DB 254
   \   0000F6   92           DB 146
   \   0000F7   92           DB 146
   \   0000F8   92           DB 146
   \   0000F9   92           DB 146
   \   0000FA   92           DB 146
   \   0000FB   92           DB 146
   \   0000FC   FE           DB 254
   \   0000FD   00           DB 0
   \   0000FE   00           DB 0
   \   0000FF   00           DB 0
   \   000100   04           DB 4
   \   000101   04           DB 4
   \   000102   7E           DB 126
   \   000103   01           DB 1
   \   000104   44           DB 68
   \   000105   48           DB 72
   \   000106   50           DB 80
   \   000107   7F           DB 127
   \   000108   40           DB 64
   \   000109   40           DB 64
   \   00010A   7F           DB 127
   \   00010B   50           DB 80
   \   00010C   48           DB 72
   \   00010D   44           DB 68
   \   00010E   40           DB 64
   \   00010F   00           DB 0
     11          #include "font_v_8x16.h"

   \                                 In  segment XDATA_ROM_C, align 1
   \   static unsigned char const __xdata_rom FontTable_V_8X16[1520]
   \                     FontTable_V_8X16:
   \   000000   00           DB 0
   \   000001   00           DB 0
   \   000002   00           DB 0
   \   000003   00           DB 0
   \   000004   00           DB 0
   \   000005   00           DB 0
   \   000006   00           DB 0
   \   000007   00           DB 0
   \   000008   00           DB 0
   \   000009   00           DB 0
   \   00000A   00           DB 0
   \   00000B   00           DB 0
   \   00000C   00           DB 0
   \   00000D   00           DB 0
   \   00000E   00           DB 0
   \   00000F   00           DB 0
   \   000010   00           DB 0
   \   000011   00           DB 0
   \   000012   00           DB 0
   \   000013   F8           DB 248
   \   000014   00           DB 0
   \   000015   00           DB 0
   \   000016   00           DB 0
   \   000017   00           DB 0
   \   000018   00           DB 0
   \   000019   00           DB 0
   \   00001A   00           DB 0
   \   00001B   33           DB 51
   \   00001C   30           DB 48
   \   00001D   00           DB 0
   \   00001E   00           DB 0
   \   00001F   00           DB 0
   \   000020   00           DB 0
   \   000021   10           DB 16
   \   000022   0C           DB 12
   \   000023   06           DB 6
   \   000024   10           DB 16
   \   000025   0C           DB 12
   \   000026   06           DB 6
   \   000027   00           DB 0
   \   000028   00           DB 0
   \   000029   00           DB 0
   \   00002A   00           DB 0
   \   00002B   00           DB 0
   \   00002C   00           DB 0
   \   00002D   00           DB 0
   \   00002E   00           DB 0
   \   00002F   00           DB 0
   \   000030   40           DB 64
   \   000031   C0           DB 192
   \   000032   78           DB 120
   \   000033   40           DB 64
   \   000034   C0           DB 192
   \   000035   78           DB 120
   \   000036   40           DB 64
   \   000037   00           DB 0
   \   000038   04           DB 4
   \   000039   3F           DB 63
   \   00003A   04           DB 4
   \   00003B   04           DB 4
   \   00003C   3F           DB 63
   \   00003D   04           DB 4
   \   00003E   04           DB 4
   \   00003F   00           DB 0
   \   000040   00           DB 0
   \   000041   70           DB 112
   \   000042   88           DB 136
   \   000043   FC           DB 252
   \   000044   08           DB 8
   \   000045   30           DB 48
   \   000046   00           DB 0
   \   000047   00           DB 0
   \   000048   00           DB 0
   \   000049   18           DB 24
   \   00004A   20           DB 32
   \   00004B   FF           DB 255
   \   00004C   21           DB 33
   \   00004D   1E           DB 30
   \   00004E   00           DB 0
   \   00004F   00           DB 0
   \   000050   F0           DB 240
   \   000051   08           DB 8
   \   000052   F0           DB 240
   \   000053   00           DB 0
   \   000054   E0           DB 224
   \   000055   18           DB 24
   \   000056   00           DB 0
   \   000057   00           DB 0
   \   000058   00           DB 0
   \   000059   21           DB 33
   \   00005A   1C           DB 28
   \   00005B   03           DB 3
   \   00005C   1E           DB 30
   \   00005D   21           DB 33
   \   00005E   1E           DB 30
   \   00005F   00           DB 0
   \   000060   00           DB 0
   \   000061   F0           DB 240
   \   000062   08           DB 8
   \   000063   88           DB 136
   \   000064   70           DB 112
   \   000065   00           DB 0
   \   000066   00           DB 0
   \   000067   00           DB 0
   \   000068   1E           DB 30
   \   000069   21           DB 33
   \   00006A   23           DB 35
   \   00006B   24           DB 36
   \   00006C   19           DB 25
   \   00006D   27           DB 39
   \   00006E   21           DB 33
   \   00006F   10           DB 16
   \   000070   10           DB 16
   \   000071   16           DB 22
   \   000072   0E           DB 14
   \   000073   00           DB 0
   \   000074   00           DB 0
   \   000075   00           DB 0
   \   000076   00           DB 0
   \   000077   00           DB 0
   \   000078   00           DB 0
   \   000079   00           DB 0
   \   00007A   00           DB 0
   \   00007B   00           DB 0
   \   00007C   00           DB 0
   \   00007D   00           DB 0
   \   00007E   00           DB 0
   \   00007F   00           DB 0
   \   000080   00           DB 0
   \   000081   00           DB 0
   \   000082   00           DB 0
   \   000083   E0           DB 224
   \   000084   18           DB 24
   \   000085   04           DB 4
   \   000086   02           DB 2
   \   000087   00           DB 0
   \   000088   00           DB 0
   \   000089   00           DB 0
   \   00008A   00           DB 0
   \   00008B   07           DB 7
   \   00008C   18           DB 24
   \   00008D   20           DB 32
   \   00008E   40           DB 64
   \   00008F   00           DB 0
   \   000090   00           DB 0
   \   000091   02           DB 2
   \   000092   04           DB 4
   \   000093   18           DB 24
   \   000094   E0           DB 224
   \   000095   00           DB 0
   \   000096   00           DB 0
   \   000097   00           DB 0
   \   000098   00           DB 0
   \   000099   40           DB 64
   \   00009A   20           DB 32
   \   00009B   18           DB 24
   \   00009C   07           DB 7
   \   00009D   00           DB 0
   \   00009E   00           DB 0
   \   00009F   00           DB 0
   \   0000A0   40           DB 64
   \   0000A1   40           DB 64
   \   0000A2   80           DB 128
   \   0000A3   F0           DB 240
   \   0000A4   80           DB 128
   \   0000A5   40           DB 64
   \   0000A6   40           DB 64
   \   0000A7   00           DB 0
   \   0000A8   02           DB 2
   \   0000A9   02           DB 2
   \   0000AA   01           DB 1
   \   0000AB   0F           DB 15
   \   0000AC   01           DB 1
   \   0000AD   02           DB 2
   \   0000AE   02           DB 2
   \   0000AF   00           DB 0
   \   0000B0   00           DB 0
   \   0000B1   00           DB 0
   \   0000B2   00           DB 0
   \   0000B3   F0           DB 240
   \   0000B4   00           DB 0
   \   0000B5   00           DB 0
   \   0000B6   00           DB 0
   \   0000B7   00           DB 0
   \   0000B8   01           DB 1
   \   0000B9   01           DB 1
   \   0000BA   01           DB 1
   \   0000BB   1F           DB 31
   \   0000BC   01           DB 1
   \   0000BD   01           DB 1
   \   0000BE   01           DB 1
   \   0000BF   00           DB 0
   \   0000C0   00           DB 0
   \   0000C1   00           DB 0
   \   0000C2   00           DB 0
   \   0000C3   00           DB 0
   \   0000C4   00           DB 0
   \   0000C5   00           DB 0
   \   0000C6   00           DB 0
   \   0000C7   00           DB 0
   \   0000C8   80           DB 128
   \   0000C9   B0           DB 176
   \   0000CA   70           DB 112
   \   0000CB   00           DB 0
   \   0000CC   00           DB 0
   \   0000CD   00           DB 0
   \   0000CE   00           DB 0
   \   0000CF   00           DB 0
   \   0000D0   00           DB 0
   \   0000D1   00           DB 0
   \   0000D2   00           DB 0
   \   0000D3   00           DB 0
   \   0000D4   00           DB 0
   \   0000D5   00           DB 0
   \   0000D6   00           DB 0
   \   0000D7   00           DB 0
   \   0000D8   00           DB 0
   \   0000D9   01           DB 1
   \   0000DA   01           DB 1
   \   0000DB   01           DB 1
   \   0000DC   01           DB 1
   \   0000DD   01           DB 1
   \   0000DE   01           DB 1
   \   0000DF   01           DB 1
   \   0000E0   00           DB 0
   \   0000E1   00           DB 0
   \   0000E2   00           DB 0
   \   0000E3   00           DB 0
   \   0000E4   00           DB 0
   \   0000E5   00           DB 0
   \   0000E6   00           DB 0
   \   0000E7   00           DB 0
   \   0000E8   00           DB 0
   \   0000E9   30           DB 48
   \   0000EA   30           DB 48
   \   0000EB   00           DB 0
   \   0000EC   00           DB 0
   \   0000ED   00           DB 0
   \   0000EE   00           DB 0
   \   0000EF   00           DB 0
   \   0000F0   00           DB 0
   \   0000F1   00           DB 0
   \   0000F2   00           DB 0
   \   0000F3   00           DB 0
   \   0000F4   80           DB 128
   \   0000F5   60           DB 96
   \   0000F6   18           DB 24
   \   0000F7   04           DB 4
   \   0000F8   00           DB 0
   \   0000F9   60           DB 96
   \   0000FA   18           DB 24
   \   0000FB   06           DB 6
   \   0000FC   01           DB 1
   \   0000FD   00           DB 0
   \   0000FE   00           DB 0
   \   0000FF   00           DB 0
   \   000100   00           DB 0
   \   000101   E0           DB 224
   \   000102   10           DB 16
   \   000103   08           DB 8
   \   000104   08           DB 8
   \   000105   10           DB 16
   \   000106   E0           DB 224
   \   000107   00           DB 0
   \   000108   00           DB 0
   \   000109   0F           DB 15
   \   00010A   10           DB 16
   \   00010B   20           DB 32
   \   00010C   20           DB 32
   \   00010D   10           DB 16
   \   00010E   0F           DB 15
   \   00010F   00           DB 0
   \   000110   00           DB 0
   \   000111   10           DB 16
   \   000112   10           DB 16
   \   000113   F8           DB 248
   \   000114   00           DB 0
   \   000115   00           DB 0
   \   000116   00           DB 0
   \   000117   00           DB 0
   \   000118   00           DB 0
   \   000119   20           DB 32
   \   00011A   20           DB 32
   \   00011B   3F           DB 63
   \   00011C   20           DB 32
   \   00011D   20           DB 32
   \   00011E   00           DB 0
   \   00011F   00           DB 0
   \   000120   00           DB 0
   \   000121   70           DB 112
   \   000122   08           DB 8
   \   000123   08           DB 8
   \   000124   08           DB 8
   \   000125   88           DB 136
   \   000126   70           DB 112
   \   000127   00           DB 0
   \   000128   00           DB 0
   \   000129   30           DB 48
   \   00012A   28           DB 40
   \   00012B   24           DB 36
   \   00012C   22           DB 34
   \   00012D   21           DB 33
   \   00012E   30           DB 48
   \   00012F   00           DB 0
   \   000130   00           DB 0
   \   000131   30           DB 48
   \   000132   08           DB 8
   \   000133   88           DB 136
   \   000134   88           DB 136
   \   000135   48           DB 72
   \   000136   30           DB 48
   \   000137   00           DB 0
   \   000138   00           DB 0
   \   000139   18           DB 24
   \   00013A   20           DB 32
   \   00013B   20           DB 32
   \   00013C   20           DB 32
   \   00013D   11           DB 17
   \   00013E   0E           DB 14
   \   00013F   00           DB 0
   \   000140   00           DB 0
   \   000141   00           DB 0
   \   000142   C0           DB 192
   \   000143   20           DB 32
   \   000144   10           DB 16
   \   000145   F8           DB 248
   \   000146   00           DB 0
   \   000147   00           DB 0
   \   000148   00           DB 0
   \   000149   07           DB 7
   \   00014A   04           DB 4
   \   00014B   24           DB 36
   \   00014C   24           DB 36
   \   00014D   3F           DB 63
   \   00014E   24           DB 36
   \   00014F   00           DB 0
   \   000150   00           DB 0
   \   000151   F8           DB 248
   \   000152   08           DB 8
   \   000153   88           DB 136
   \   000154   88           DB 136
   \   000155   08           DB 8
   \   000156   08           DB 8
   \   000157   00           DB 0
   \   000158   00           DB 0
   \   000159   19           DB 25
   \   00015A   21           DB 33
   \   00015B   20           DB 32
   \   00015C   20           DB 32
   \   00015D   11           DB 17
   \   00015E   0E           DB 14
   \   00015F   00           DB 0
   \   000160   00           DB 0
   \   000161   E0           DB 224
   \   000162   10           DB 16
   \   000163   88           DB 136
   \   000164   88           DB 136
   \   000165   18           DB 24
   \   000166   00           DB 0
   \   000167   00           DB 0
   \   000168   00           DB 0
   \   000169   0F           DB 15
   \   00016A   11           DB 17
   \   00016B   20           DB 32
   \   00016C   20           DB 32
   \   00016D   11           DB 17
   \   00016E   0E           DB 14
   \   00016F   00           DB 0
   \   000170   00           DB 0
   \   000171   38           DB 56
   \   000172   08           DB 8
   \   000173   08           DB 8
   \   000174   C8           DB 200
   \   000175   38           DB 56
   \   000176   08           DB 8
   \   000177   00           DB 0
   \   000178   00           DB 0
   \   000179   00           DB 0
   \   00017A   00           DB 0
   \   00017B   3F           DB 63
   \   00017C   00           DB 0
   \   00017D   00           DB 0
   \   00017E   00           DB 0
   \   00017F   00           DB 0
   \   000180   00           DB 0
   \   000181   70           DB 112
   \   000182   88           DB 136
   \   000183   08           DB 8
   \   000184   08           DB 8
   \   000185   88           DB 136
   \   000186   70           DB 112
   \   000187   00           DB 0
   \   000188   00           DB 0
   \   000189   1C           DB 28
   \   00018A   22           DB 34
   \   00018B   21           DB 33
   \   00018C   21           DB 33
   \   00018D   22           DB 34
   \   00018E   1C           DB 28
   \   00018F   00           DB 0
   \   000190   00           DB 0
   \   000191   E0           DB 224
   \   000192   10           DB 16
   \   000193   08           DB 8
   \   000194   08           DB 8
   \   000195   10           DB 16
   \   000196   E0           DB 224
   \   000197   00           DB 0
   \   000198   00           DB 0
   \   000199   00           DB 0
   \   00019A   31           DB 49
   \   00019B   22           DB 34
   \   00019C   22           DB 34
   \   00019D   11           DB 17
   \   00019E   0F           DB 15
   \   00019F   00           DB 0
   \   0001A0   00           DB 0
   \   0001A1   00           DB 0
   \   0001A2   00           DB 0
   \   0001A3   C0           DB 192
   \   0001A4   C0           DB 192
   \   0001A5   00           DB 0
   \   0001A6   00           DB 0
   \   0001A7   00           DB 0
   \   0001A8   00           DB 0
   \   0001A9   00           DB 0
   \   0001AA   00           DB 0
   \   0001AB   30           DB 48
   \   0001AC   30           DB 48
   \   0001AD   00           DB 0
   \   0001AE   00           DB 0
   \   0001AF   00           DB 0
   \   0001B0   00           DB 0
   \   0001B1   00           DB 0
   \   0001B2   00           DB 0
   \   0001B3   80           DB 128
   \   0001B4   00           DB 0
   \   0001B5   00           DB 0
   \   0001B6   00           DB 0
   \   0001B7   00           DB 0
   \   0001B8   00           DB 0
   \   0001B9   00           DB 0
   \   0001BA   80           DB 128
   \   0001BB   60           DB 96
   \   0001BC   00           DB 0
   \   0001BD   00           DB 0
   \   0001BE   00           DB 0
   \   0001BF   00           DB 0
   \   0001C0   00           DB 0
   \   0001C1   00           DB 0
   \   0001C2   80           DB 128
   \   0001C3   40           DB 64
   \   0001C4   20           DB 32
   \   0001C5   10           DB 16
   \   0001C6   08           DB 8
   \   0001C7   00           DB 0
   \   0001C8   00           DB 0
   \   0001C9   01           DB 1
   \   0001CA   02           DB 2
   \   0001CB   04           DB 4
   \   0001CC   08           DB 8
   \   0001CD   10           DB 16
   \   0001CE   20           DB 32
   \   0001CF   00           DB 0
   \   0001D0   40           DB 64
   \   0001D1   40           DB 64
   \   0001D2   40           DB 64
   \   0001D3   40           DB 64
   \   0001D4   40           DB 64
   \   0001D5   40           DB 64
   \   0001D6   40           DB 64
   \   0001D7   00           DB 0
   \   0001D8   04           DB 4
   \   0001D9   04           DB 4
   \   0001DA   04           DB 4
   \   0001DB   04           DB 4
   \   0001DC   04           DB 4
   \   0001DD   04           DB 4
   \   0001DE   04           DB 4
   \   0001DF   00           DB 0
   \   0001E0   00           DB 0
   \   0001E1   08           DB 8
   \   0001E2   10           DB 16
   \   0001E3   20           DB 32
   \   0001E4   40           DB 64
   \   0001E5   80           DB 128
   \   0001E6   00           DB 0
   \   0001E7   00           DB 0
   \   0001E8   00           DB 0
   \   0001E9   20           DB 32
   \   0001EA   10           DB 16
   \   0001EB   08           DB 8
   \   0001EC   04           DB 4
   \   0001ED   02           DB 2
   \   0001EE   01           DB 1
   \   0001EF   00           DB 0
   \   0001F0   00           DB 0
   \   0001F1   70           DB 112
   \   0001F2   48           DB 72
   \   0001F3   08           DB 8
   \   0001F4   08           DB 8
   \   0001F5   08           DB 8
   \   0001F6   F0           DB 240
   \   0001F7   00           DB 0
   \   0001F8   00           DB 0
   \   0001F9   00           DB 0
   \   0001FA   00           DB 0
   \   0001FB   30           DB 48
   \   0001FC   36           DB 54
   \   0001FD   01           DB 1
   \   0001FE   00           DB 0
   \   0001FF   00           DB 0
   \   000200   C0           DB 192
   \   000201   30           DB 48
   \   000202   C8           DB 200
   \   000203   28           DB 40
   \   000204   E8           DB 232
   \   000205   10           DB 16
   \   000206   E0           DB 224
   \   000207   00           DB 0
   \   000208   07           DB 7
   \   000209   18           DB 24
   \   00020A   27           DB 39
   \   00020B   24           DB 36
   \   00020C   23           DB 35
   \   00020D   14           DB 20
   \   00020E   0B           DB 11
   \   00020F   00           DB 0
   \   000210   00           DB 0
   \   000211   00           DB 0
   \   000212   C0           DB 192
   \   000213   38           DB 56
   \   000214   E0           DB 224
   \   000215   00           DB 0
   \   000216   00           DB 0
   \   000217   00           DB 0
   \   000218   20           DB 32
   \   000219   3C           DB 60
   \   00021A   23           DB 35
   \   00021B   02           DB 2
   \   00021C   02           DB 2
   \   00021D   27           DB 39
   \   00021E   38           DB 56
   \   00021F   20           DB 32
   \   000220   08           DB 8
   \   000221   F8           DB 248
   \   000222   88           DB 136
   \   000223   88           DB 136
   \   000224   88           DB 136
   \   000225   70           DB 112
   \   000226   00           DB 0
   \   000227   00           DB 0
   \   000228   20           DB 32
   \   000229   3F           DB 63
   \   00022A   20           DB 32
   \   00022B   20           DB 32
   \   00022C   20           DB 32
   \   00022D   11           DB 17
   \   00022E   0E           DB 14
   \   00022F   00           DB 0
   \   000230   C0           DB 192
   \   000231   30           DB 48
   \   000232   08           DB 8
   \   000233   08           DB 8
   \   000234   08           DB 8
   \   000235   08           DB 8
   \   000236   38           DB 56
   \   000237   00           DB 0
   \   000238   07           DB 7
   \   000239   18           DB 24
   \   00023A   20           DB 32
   \   00023B   20           DB 32
   \   00023C   20           DB 32
   \   00023D   10           DB 16
   \   00023E   08           DB 8
   \   00023F   00           DB 0
   \   000240   08           DB 8
   \   000241   F8           DB 248
   \   000242   08           DB 8
   \   000243   08           DB 8
   \   000244   08           DB 8
   \   000245   10           DB 16
   \   000246   E0           DB 224
   \   000247   00           DB 0
   \   000248   20           DB 32
   \   000249   3F           DB 63
   \   00024A   20           DB 32
   \   00024B   20           DB 32
   \   00024C   20           DB 32
   \   00024D   10           DB 16
   \   00024E   0F           DB 15
   \   00024F   00           DB 0
   \   000250   08           DB 8
   \   000251   F8           DB 248
   \   000252   88           DB 136
   \   000253   88           DB 136
   \   000254   E8           DB 232
   \   000255   08           DB 8
   \   000256   10           DB 16
   \   000257   00           DB 0
   \   000258   20           DB 32
   \   000259   3F           DB 63
   \   00025A   20           DB 32
   \   00025B   20           DB 32
   \   00025C   23           DB 35
   \   00025D   20           DB 32
   \   00025E   18           DB 24
   \   00025F   00           DB 0
   \   000260   08           DB 8
   \   000261   F8           DB 248
   \   000262   88           DB 136
   \   000263   88           DB 136
   \   000264   E8           DB 232
   \   000265   08           DB 8
   \   000266   10           DB 16
   \   000267   00           DB 0
   \   000268   20           DB 32
   \   000269   3F           DB 63
   \   00026A   20           DB 32
   \   00026B   00           DB 0
   \   00026C   03           DB 3
   \   00026D   00           DB 0
   \   00026E   00           DB 0
   \   00026F   00           DB 0
   \   000270   C0           DB 192
   \   000271   30           DB 48
   \   000272   08           DB 8
   \   000273   08           DB 8
   \   000274   08           DB 8
   \   000275   38           DB 56
   \   000276   00           DB 0
   \   000277   00           DB 0
   \   000278   07           DB 7
   \   000279   18           DB 24
   \   00027A   20           DB 32
   \   00027B   20           DB 32
   \   00027C   22           DB 34
   \   00027D   1E           DB 30
   \   00027E   02           DB 2
   \   00027F   00           DB 0
   \   000280   08           DB 8
   \   000281   F8           DB 248
   \   000282   08           DB 8
   \   000283   00           DB 0
   \   000284   00           DB 0
   \   000285   08           DB 8
   \   000286   F8           DB 248
   \   000287   08           DB 8
   \   000288   20           DB 32
   \   000289   3F           DB 63
   \   00028A   21           DB 33
   \   00028B   01           DB 1
   \   00028C   01           DB 1
   \   00028D   21           DB 33
   \   00028E   3F           DB 63
   \   00028F   20           DB 32
   \   000290   00           DB 0
   \   000291   08           DB 8
   \   000292   08           DB 8
   \   000293   F8           DB 248
   \   000294   08           DB 8
   \   000295   08           DB 8
   \   000296   00           DB 0
   \   000297   00           DB 0
   \   000298   00           DB 0
   \   000299   20           DB 32
   \   00029A   20           DB 32
   \   00029B   3F           DB 63
   \   00029C   20           DB 32
   \   00029D   20           DB 32
   \   00029E   00           DB 0
   \   00029F   00           DB 0
   \   0002A0   00           DB 0
   \   0002A1   00           DB 0
   \   0002A2   08           DB 8
   \   0002A3   08           DB 8
   \   0002A4   F8           DB 248
   \   0002A5   08           DB 8
   \   0002A6   08           DB 8
   \   0002A7   00           DB 0
   \   0002A8   C0           DB 192
   \   0002A9   80           DB 128
   \   0002AA   80           DB 128
   \   0002AB   80           DB 128
   \   0002AC   7F           DB 127
   \   0002AD   00           DB 0
   \   0002AE   00           DB 0
   \   0002AF   00           DB 0
   \   0002B0   08           DB 8
   \   0002B1   F8           DB 248
   \   0002B2   88           DB 136
   \   0002B3   C0           DB 192
   \   0002B4   28           DB 40
   \   0002B5   18           DB 24
   \   0002B6   08           DB 8
   \   0002B7   00           DB 0
   \   0002B8   20           DB 32
   \   0002B9   3F           DB 63
   \   0002BA   20           DB 32
   \   0002BB   01           DB 1
   \   0002BC   26           DB 38
   \   0002BD   38           DB 56
   \   0002BE   20           DB 32
   \   0002BF   00           DB 0
   \   0002C0   08           DB 8
   \   0002C1   F8           DB 248
   \   0002C2   08           DB 8
   \   0002C3   00           DB 0
   \   0002C4   00           DB 0
   \   0002C5   00           DB 0
   \   0002C6   00           DB 0
   \   0002C7   00           DB 0
   \   0002C8   20           DB 32
   \   0002C9   3F           DB 63
   \   0002CA   20           DB 32
   \   0002CB   20           DB 32
   \   0002CC   20           DB 32
   \   0002CD   20           DB 32
   \   0002CE   30           DB 48
   \   0002CF   00           DB 0
   \   0002D0   08           DB 8
   \   0002D1   F8           DB 248
   \   0002D2   F8           DB 248
   \   0002D3   00           DB 0
   \   0002D4   F8           DB 248
   \   0002D5   F8           DB 248
   \   0002D6   08           DB 8
   \   0002D7   00           DB 0
   \   0002D8   20           DB 32
   \   0002D9   3F           DB 63
   \   0002DA   00           DB 0
   \   0002DB   3F           DB 63
   \   0002DC   00           DB 0
   \   0002DD   3F           DB 63
   \   0002DE   20           DB 32
   \   0002DF   00           DB 0
   \   0002E0   08           DB 8
   \   0002E1   F8           DB 248
   \   0002E2   30           DB 48
   \   0002E3   C0           DB 192
   \   0002E4   00           DB 0
   \   0002E5   08           DB 8
   \   0002E6   F8           DB 248
   \   0002E7   08           DB 8
   \   0002E8   20           DB 32
   \   0002E9   3F           DB 63
   \   0002EA   20           DB 32
   \   0002EB   00           DB 0
   \   0002EC   07           DB 7
   \   0002ED   18           DB 24
   \   0002EE   3F           DB 63
   \   0002EF   00           DB 0
   \   0002F0   E0           DB 224
   \   0002F1   10           DB 16
   \   0002F2   08           DB 8
   \   0002F3   08           DB 8
   \   0002F4   08           DB 8
   \   0002F5   10           DB 16
   \   0002F6   E0           DB 224
   \   0002F7   00           DB 0
   \   0002F8   0F           DB 15
   \   0002F9   10           DB 16
   \   0002FA   20           DB 32
   \   0002FB   20           DB 32
   \   0002FC   20           DB 32
   \   0002FD   10           DB 16
   \   0002FE   0F           DB 15
   \   0002FF   00           DB 0
   \   000300   08           DB 8
   \   000301   F8           DB 248
   \   000302   08           DB 8
   \   000303   08           DB 8
   \   000304   08           DB 8
   \   000305   08           DB 8
   \   000306   F0           DB 240
   \   000307   00           DB 0
   \   000308   20           DB 32
   \   000309   3F           DB 63
   \   00030A   21           DB 33
   \   00030B   01           DB 1
   \   00030C   01           DB 1
   \   00030D   01           DB 1
   \   00030E   00           DB 0
   \   00030F   00           DB 0
   \   000310   E0           DB 224
   \   000311   10           DB 16
   \   000312   08           DB 8
   \   000313   08           DB 8
   \   000314   08           DB 8
   \   000315   10           DB 16
   \   000316   E0           DB 224
   \   000317   00           DB 0
   \   000318   0F           DB 15
   \   000319   18           DB 24
   \   00031A   24           DB 36
   \   00031B   24           DB 36
   \   00031C   38           DB 56
   \   00031D   50           DB 80
   \   00031E   4F           DB 79
   \   00031F   00           DB 0
   \   000320   08           DB 8
   \   000321   F8           DB 248
   \   000322   88           DB 136
   \   000323   88           DB 136
   \   000324   88           DB 136
   \   000325   88           DB 136
   \   000326   70           DB 112
   \   000327   00           DB 0
   \   000328   20           DB 32
   \   000329   3F           DB 63
   \   00032A   20           DB 32
   \   00032B   00           DB 0
   \   00032C   03           DB 3
   \   00032D   0C           DB 12
   \   00032E   30           DB 48
   \   00032F   20           DB 32
   \   000330   00           DB 0
   \   000331   70           DB 112
   \   000332   88           DB 136
   \   000333   08           DB 8
   \   000334   08           DB 8
   \   000335   08           DB 8
   \   000336   38           DB 56
   \   000337   00           DB 0
   \   000338   00           DB 0
   \   000339   38           DB 56
   \   00033A   20           DB 32
   \   00033B   21           DB 33
   \   00033C   21           DB 33
   \   00033D   22           DB 34
   \   00033E   1C           DB 28
   \   00033F   00           DB 0
   \   000340   18           DB 24
   \   000341   08           DB 8
   \   000342   08           DB 8
   \   000343   F8           DB 248
   \   000344   08           DB 8
   \   000345   08           DB 8
   \   000346   18           DB 24
   \   000347   00           DB 0
   \   000348   00           DB 0
   \   000349   00           DB 0
   \   00034A   20           DB 32
   \   00034B   3F           DB 63
   \   00034C   20           DB 32
   \   00034D   00           DB 0
   \   00034E   00           DB 0
   \   00034F   00           DB 0
   \   000350   08           DB 8
   \   000351   F8           DB 248
   \   000352   08           DB 8
   \   000353   00           DB 0
   \   000354   00           DB 0
   \   000355   08           DB 8
   \   000356   F8           DB 248
   \   000357   08           DB 8
   \   000358   00           DB 0
   \   000359   1F           DB 31
   \   00035A   20           DB 32
   \   00035B   20           DB 32
   \   00035C   20           DB 32
   \   00035D   20           DB 32
   \   00035E   1F           DB 31
   \   00035F   00           DB 0
   \   000360   08           DB 8
   \   000361   78           DB 120
   \   000362   88           DB 136
   \   000363   00           DB 0
   \   000364   00           DB 0
   \   000365   C8           DB 200
   \   000366   38           DB 56
   \   000367   08           DB 8
   \   000368   00           DB 0
   \   000369   00           DB 0
   \   00036A   07           DB 7
   \   00036B   38           DB 56
   \   00036C   0E           DB 14
   \   00036D   01           DB 1
   \   00036E   00           DB 0
   \   00036F   00           DB 0
   \   000370   F8           DB 248
   \   000371   08           DB 8
   \   000372   00           DB 0
   \   000373   F8           DB 248
   \   000374   00           DB 0
   \   000375   08           DB 8
   \   000376   F8           DB 248
   \   000377   00           DB 0
   \   000378   03           DB 3
   \   000379   3C           DB 60
   \   00037A   07           DB 7
   \   00037B   00           DB 0
   \   00037C   07           DB 7
   \   00037D   3C           DB 60
   \   00037E   03           DB 3
   \   00037F   00           DB 0
   \   000380   08           DB 8
   \   000381   18           DB 24
   \   000382   68           DB 104
   \   000383   80           DB 128
   \   000384   80           DB 128
   \   000385   68           DB 104
   \   000386   18           DB 24
   \   000387   08           DB 8
   \   000388   20           DB 32
   \   000389   30           DB 48
   \   00038A   2C           DB 44
   \   00038B   03           DB 3
   \   00038C   03           DB 3
   \   00038D   2C           DB 44
   \   00038E   30           DB 48
   \   00038F   20           DB 32
   \   000390   08           DB 8
   \   000391   38           DB 56
   \   000392   C8           DB 200
   \   000393   00           DB 0
   \   000394   C8           DB 200
   \   000395   38           DB 56
   \   000396   08           DB 8
   \   000397   00           DB 0
   \   000398   00           DB 0
   \   000399   00           DB 0
   \   00039A   20           DB 32
   \   00039B   3F           DB 63
   \   00039C   20           DB 32
   \   00039D   00           DB 0
   \   00039E   00           DB 0
   \   00039F   00           DB 0
   \   0003A0   10           DB 16
   \   0003A1   08           DB 8
   \   0003A2   08           DB 8
   \   0003A3   08           DB 8
   \   0003A4   C8           DB 200
   \   0003A5   38           DB 56
   \   0003A6   08           DB 8
   \   0003A7   00           DB 0
   \   0003A8   20           DB 32
   \   0003A9   38           DB 56
   \   0003AA   26           DB 38
   \   0003AB   21           DB 33
   \   0003AC   20           DB 32
   \   0003AD   20           DB 32
   \   0003AE   18           DB 24
   \   0003AF   00           DB 0
   \   0003B0   00           DB 0
   \   0003B1   00           DB 0
   \   0003B2   00           DB 0
   \   0003B3   FE           DB 254
   \   0003B4   02           DB 2
   \   0003B5   02           DB 2
   \   0003B6   02           DB 2
   \   0003B7   00           DB 0
   \   0003B8   00           DB 0
   \   0003B9   00           DB 0
   \   0003BA   00           DB 0
   \   0003BB   7F           DB 127
   \   0003BC   40           DB 64
   \   0003BD   40           DB 64
   \   0003BE   40           DB 64
   \   0003BF   00           DB 0
   \   0003C0   00           DB 0
   \   0003C1   0C           DB 12
   \   0003C2   30           DB 48
   \   0003C3   C0           DB 192
   \   0003C4   00           DB 0
   \   0003C5   00           DB 0
   \   0003C6   00           DB 0
   \   0003C7   00           DB 0
   \   0003C8   00           DB 0
   \   0003C9   00           DB 0
   \   0003CA   00           DB 0
   \   0003CB   01           DB 1
   \   0003CC   06           DB 6
   \   0003CD   38           DB 56
   \   0003CE   C0           DB 192
   \   0003CF   00           DB 0
   \   0003D0   00           DB 0
   \   0003D1   02           DB 2
   \   0003D2   02           DB 2
   \   0003D3   02           DB 2
   \   0003D4   FE           DB 254
   \   0003D5   00           DB 0
   \   0003D6   00           DB 0
   \   0003D7   00           DB 0
   \   0003D8   00           DB 0
   \   0003D9   40           DB 64
   \   0003DA   40           DB 64
   \   0003DB   40           DB 64
   \   0003DC   7F           DB 127
   \   0003DD   00           DB 0
   \   0003DE   00           DB 0
   \   0003DF   00           DB 0
   \   0003E0   00           DB 0
   \   0003E1   00           DB 0
   \   0003E2   04           DB 4
   \   0003E3   02           DB 2
   \   0003E4   02           DB 2
   \   0003E5   02           DB 2
   \   0003E6   04           DB 4
   \   0003E7   00           DB 0
   \   0003E8   00           DB 0
   \   0003E9   00           DB 0
   \   0003EA   00           DB 0
   \   0003EB   00           DB 0
   \   0003EC   00           DB 0
   \   0003ED   00           DB 0
   \   0003EE   00           DB 0
   \   0003EF   00           DB 0
   \   0003F0   00           DB 0
   \   0003F1   00           DB 0
   \   0003F2   00           DB 0
   \   0003F3   00           DB 0
   \   0003F4   00           DB 0
   \   0003F5   00           DB 0
   \   0003F6   00           DB 0
   \   0003F7   00           DB 0
   \   0003F8   80           DB 128
   \   0003F9   80           DB 128
   \   0003FA   80           DB 128
   \   0003FB   80           DB 128
   \   0003FC   80           DB 128
   \   0003FD   80           DB 128
   \   0003FE   80           DB 128
   \   0003FF   80           DB 128
   \   000400   00           DB 0
   \   000401   02           DB 2
   \   000402   02           DB 2
   \   000403   04           DB 4
   \   000404   00           DB 0
   \   000405   00           DB 0
   \   000406   00           DB 0
   \   000407   00           DB 0
   \   000408   00           DB 0
   \   000409   00           DB 0
   \   00040A   00           DB 0
   \   00040B   00           DB 0
   \   00040C   00           DB 0
   \   00040D   00           DB 0
   \   00040E   00           DB 0
   \   00040F   00           DB 0
   \   000410   00           DB 0
   \   000411   00           DB 0
   \   000412   80           DB 128
   \   000413   80           DB 128
   \   000414   80           DB 128
   \   000415   80           DB 128
   \   000416   00           DB 0
   \   000417   00           DB 0
   \   000418   00           DB 0
   \   000419   19           DB 25
   \   00041A   24           DB 36
   \   00041B   22           DB 34
   \   00041C   22           DB 34
   \   00041D   22           DB 34
   \   00041E   3F           DB 63
   \   00041F   20           DB 32
   \   000420   08           DB 8
   \   000421   F8           DB 248
   \   000422   00           DB 0
   \   000423   80           DB 128
   \   000424   80           DB 128
   \   000425   00           DB 0
   \   000426   00           DB 0
   \   000427   00           DB 0
   \   000428   00           DB 0
   \   000429   3F           DB 63
   \   00042A   11           DB 17
   \   00042B   20           DB 32
   \   00042C   20           DB 32
   \   00042D   11           DB 17
   \   00042E   0E           DB 14
   \   00042F   00           DB 0
   \   000430   00           DB 0
   \   000431   00           DB 0
   \   000432   00           DB 0
   \   000433   80           DB 128
   \   000434   80           DB 128
   \   000435   80           DB 128
   \   000436   00           DB 0
   \   000437   00           DB 0
   \   000438   00           DB 0
   \   000439   0E           DB 14
   \   00043A   11           DB 17
   \   00043B   20           DB 32
   \   00043C   20           DB 32
   \   00043D   20           DB 32
   \   00043E   11           DB 17
   \   00043F   00           DB 0
   \   000440   00           DB 0
   \   000441   00           DB 0
   \   000442   00           DB 0
   \   000443   80           DB 128
   \   000444   80           DB 128
   \   000445   88           DB 136
   \   000446   F8           DB 248
   \   000447   00           DB 0
   \   000448   00           DB 0
   \   000449   0E           DB 14
   \   00044A   11           DB 17
   \   00044B   20           DB 32
   \   00044C   20           DB 32
   \   00044D   10           DB 16
   \   00044E   3F           DB 63
   \   00044F   20           DB 32
   \   000450   00           DB 0
   \   000451   00           DB 0
   \   000452   80           DB 128
   \   000453   80           DB 128
   \   000454   80           DB 128
   \   000455   80           DB 128
   \   000456   00           DB 0
   \   000457   00           DB 0
   \   000458   00           DB 0
   \   000459   1F           DB 31
   \   00045A   22           DB 34
   \   00045B   22           DB 34
   \   00045C   22           DB 34
   \   00045D   22           DB 34
   \   00045E   13           DB 19
   \   00045F   00           DB 0
   \   000460   00           DB 0
   \   000461   80           DB 128
   \   000462   80           DB 128
   \   000463   F0           DB 240
   \   000464   88           DB 136
   \   000465   88           DB 136
   \   000466   88           DB 136
   \   000467   18           DB 24
   \   000468   00           DB 0
   \   000469   20           DB 32
   \   00046A   20           DB 32
   \   00046B   3F           DB 63
   \   00046C   20           DB 32
   \   00046D   20           DB 32
   \   00046E   00           DB 0
   \   00046F   00           DB 0
   \   000470   00           DB 0
   \   000471   00           DB 0
   \   000472   80           DB 128
   \   000473   80           DB 128
   \   000474   80           DB 128
   \   000475   80           DB 128
   \   000476   80           DB 128
   \   000477   00           DB 0
   \   000478   00           DB 0
   \   000479   6B           DB 107
   \   00047A   94           DB 148
   \   00047B   94           DB 148
   \   00047C   94           DB 148
   \   00047D   93           DB 147
   \   00047E   60           DB 96
   \   00047F   00           DB 0
   \   000480   08           DB 8
   \   000481   F8           DB 248
   \   000482   00           DB 0
   \   000483   80           DB 128
   \   000484   80           DB 128
   \   000485   80           DB 128
   \   000486   00           DB 0
   \   000487   00           DB 0
   \   000488   20           DB 32
   \   000489   3F           DB 63
   \   00048A   21           DB 33
   \   00048B   00           DB 0
   \   00048C   00           DB 0
   \   00048D   20           DB 32
   \   00048E   3F           DB 63
   \   00048F   20           DB 32
   \   000490   00           DB 0
   \   000491   80           DB 128
   \   000492   98           DB 152
   \   000493   98           DB 152
   \   000494   00           DB 0
   \   000495   00           DB 0
   \   000496   00           DB 0
   \   000497   00           DB 0
   \   000498   00           DB 0
   \   000499   20           DB 32
   \   00049A   20           DB 32
   \   00049B   3F           DB 63
   \   00049C   20           DB 32
   \   00049D   20           DB 32
   \   00049E   00           DB 0
   \   00049F   00           DB 0
   \   0004A0   00           DB 0
   \   0004A1   00           DB 0
   \   0004A2   00           DB 0
   \   0004A3   80           DB 128
   \   0004A4   98           DB 152
   \   0004A5   98           DB 152
   \   0004A6   00           DB 0
   \   0004A7   00           DB 0
   \   0004A8   00           DB 0
   \   0004A9   C0           DB 192
   \   0004AA   80           DB 128
   \   0004AB   80           DB 128
   \   0004AC   80           DB 128
   \   0004AD   7F           DB 127
   \   0004AE   00           DB 0
   \   0004AF   00           DB 0
   \   0004B0   08           DB 8
   \   0004B1   F8           DB 248
   \   0004B2   00           DB 0
   \   0004B3   00           DB 0
   \   0004B4   80           DB 128
   \   0004B5   80           DB 128
   \   0004B6   80           DB 128
   \   0004B7   00           DB 0
   \   0004B8   20           DB 32
   \   0004B9   3F           DB 63
   \   0004BA   24           DB 36
   \   0004BB   02           DB 2
   \   0004BC   2D           DB 45
   \   0004BD   30           DB 48
   \   0004BE   20           DB 32
   \   0004BF   00           DB 0
   \   0004C0   00           DB 0
   \   0004C1   08           DB 8
   \   0004C2   08           DB 8
   \   0004C3   F8           DB 248
   \   0004C4   00           DB 0
   \   0004C5   00           DB 0
   \   0004C6   00           DB 0
   \   0004C7   00           DB 0
   \   0004C8   00           DB 0
   \   0004C9   20           DB 32
   \   0004CA   20           DB 32
   \   0004CB   3F           DB 63
   \   0004CC   20           DB 32
   \   0004CD   20           DB 32
   \   0004CE   00           DB 0
   \   0004CF   00           DB 0
   \   0004D0   80           DB 128
   \   0004D1   80           DB 128
   \   0004D2   80           DB 128
   \   0004D3   80           DB 128
   \   0004D4   80           DB 128
   \   0004D5   80           DB 128
   \   0004D6   80           DB 128
   \   0004D7   00           DB 0
   \   0004D8   20           DB 32
   \   0004D9   3F           DB 63
   \   0004DA   20           DB 32
   \   0004DB   00           DB 0
   \   0004DC   3F           DB 63
   \   0004DD   20           DB 32
   \   0004DE   00           DB 0
   \   0004DF   3F           DB 63
   \   0004E0   80           DB 128
   \   0004E1   80           DB 128
   \   0004E2   00           DB 0
   \   0004E3   80           DB 128
   \   0004E4   80           DB 128
   \   0004E5   80           DB 128
   \   0004E6   00           DB 0
   \   0004E7   00           DB 0
   \   0004E8   20           DB 32
   \   0004E9   3F           DB 63
   \   0004EA   21           DB 33
   \   0004EB   00           DB 0
   \   0004EC   00           DB 0
   \   0004ED   20           DB 32
   \   0004EE   3F           DB 63
   \   0004EF   20           DB 32
   \   0004F0   00           DB 0
   \   0004F1   00           DB 0
   \   0004F2   80           DB 128
   \   0004F3   80           DB 128
   \   0004F4   80           DB 128
   \   0004F5   80           DB 128
   \   0004F6   00           DB 0
   \   0004F7   00           DB 0
   \   0004F8   00           DB 0
   \   0004F9   1F           DB 31
   \   0004FA   20           DB 32
   \   0004FB   20           DB 32
   \   0004FC   20           DB 32
   \   0004FD   20           DB 32
   \   0004FE   1F           DB 31
   \   0004FF   00           DB 0
   \   000500   80           DB 128
   \   000501   80           DB 128
   \   000502   00           DB 0
   \   000503   80           DB 128
   \   000504   80           DB 128
   \   000505   00           DB 0
   \   000506   00           DB 0
   \   000507   00           DB 0
   \   000508   80           DB 128
   \   000509   FF           DB 255
   \   00050A   A1           DB 161
   \   00050B   20           DB 32
   \   00050C   20           DB 32
   \   00050D   11           DB 17
   \   00050E   0E           DB 14
   \   00050F   00           DB 0
   \   000510   00           DB 0
   \   000511   00           DB 0
   \   000512   00           DB 0
   \   000513   80           DB 128
   \   000514   80           DB 128
   \   000515   80           DB 128
   \   000516   80           DB 128
   \   000517   00           DB 0
   \   000518   00           DB 0
   \   000519   0E           DB 14
   \   00051A   11           DB 17
   \   00051B   20           DB 32
   \   00051C   20           DB 32
   \   00051D   A0           DB 160
   \   00051E   FF           DB 255
   \   00051F   80           DB 128
   \   000520   80           DB 128
   \   000521   80           DB 128
   \   000522   80           DB 128
   \   000523   00           DB 0
   \   000524   80           DB 128
   \   000525   80           DB 128
   \   000526   80           DB 128
   \   000527   00           DB 0
   \   000528   20           DB 32
   \   000529   20           DB 32
   \   00052A   3F           DB 63
   \   00052B   21           DB 33
   \   00052C   20           DB 32
   \   00052D   00           DB 0
   \   00052E   01           DB 1
   \   00052F   00           DB 0
   \   000530   00           DB 0
   \   000531   00           DB 0
   \   000532   80           DB 128
   \   000533   80           DB 128
   \   000534   80           DB 128
   \   000535   80           DB 128
   \   000536   80           DB 128
   \   000537   00           DB 0
   \   000538   00           DB 0
   \   000539   33           DB 51
   \   00053A   24           DB 36
   \   00053B   24           DB 36
   \   00053C   24           DB 36
   \   00053D   24           DB 36
   \   00053E   19           DB 25
   \   00053F   00           DB 0
   \   000540   00           DB 0
   \   000541   80           DB 128
   \   000542   80           DB 128
   \   000543   E0           DB 224
   \   000544   80           DB 128
   \   000545   80           DB 128
   \   000546   00           DB 0
   \   000547   00           DB 0
   \   000548   00           DB 0
   \   000549   00           DB 0
   \   00054A   00           DB 0
   \   00054B   1F           DB 31
   \   00054C   20           DB 32
   \   00054D   20           DB 32
   \   00054E   00           DB 0
   \   00054F   00           DB 0
   \   000550   80           DB 128
   \   000551   80           DB 128
   \   000552   00           DB 0
   \   000553   00           DB 0
   \   000554   00           DB 0
   \   000555   80           DB 128
   \   000556   80           DB 128
   \   000557   00           DB 0
   \   000558   00           DB 0
   \   000559   1F           DB 31
   \   00055A   20           DB 32
   \   00055B   20           DB 32
   \   00055C   20           DB 32
   \   00055D   10           DB 16
   \   00055E   3F           DB 63
   \   00055F   20           DB 32
   \   000560   80           DB 128
   \   000561   80           DB 128
   \   000562   80           DB 128
   \   000563   00           DB 0
   \   000564   00           DB 0
   \   000565   80           DB 128
   \   000566   80           DB 128
   \   000567   80           DB 128
   \   000568   00           DB 0
   \   000569   01           DB 1
   \   00056A   0E           DB 14
   \   00056B   30           DB 48
   \   00056C   08           DB 8
   \   00056D   06           DB 6
   \   00056E   01           DB 1
   \   00056F   00           DB 0
   \   000570   80           DB 128
   \   000571   80           DB 128
   \   000572   00           DB 0
   \   000573   80           DB 128
   \   000574   00           DB 0
   \   000575   80           DB 128
   \   000576   80           DB 128
   \   000577   80           DB 128
   \   000578   0F           DB 15
   \   000579   30           DB 48
   \   00057A   0C           DB 12
   \   00057B   03           DB 3
   \   00057C   0C           DB 12
   \   00057D   30           DB 48
   \   00057E   0F           DB 15
   \   00057F   00           DB 0
   \   000580   00           DB 0
   \   000581   80           DB 128
   \   000582   80           DB 128
   \   000583   00           DB 0
   \   000584   80           DB 128
   \   000585   80           DB 128
   \   000586   80           DB 128
   \   000587   00           DB 0
   \   000588   00           DB 0
   \   000589   20           DB 32
   \   00058A   31           DB 49
   \   00058B   2E           DB 46
   \   00058C   0E           DB 14
   \   00058D   31           DB 49
   \   00058E   20           DB 32
   \   00058F   00           DB 0
   \   000590   80           DB 128
   \   000591   80           DB 128
   \   000592   80           DB 128
   \   000593   00           DB 0
   \   000594   00           DB 0
   \   000595   80           DB 128
   \   000596   80           DB 128
   \   000597   80           DB 128
   \   000598   80           DB 128
   \   000599   81           DB 129
   \   00059A   8E           DB 142
   \   00059B   70           DB 112
   \   00059C   18           DB 24
   \   00059D   06           DB 6
   \   00059E   01           DB 1
   \   00059F   00           DB 0
   \   0005A0   00           DB 0
   \   0005A1   80           DB 128
   \   0005A2   80           DB 128
   \   0005A3   80           DB 128
   \   0005A4   80           DB 128
   \   0005A5   80           DB 128
   \   0005A6   80           DB 128
   \   0005A7   00           DB 0
   \   0005A8   00           DB 0
   \   0005A9   21           DB 33
   \   0005AA   30           DB 48
   \   0005AB   2C           DB 44
   \   0005AC   22           DB 34
   \   0005AD   21           DB 33
   \   0005AE   30           DB 48
   \   0005AF   00           DB 0
   \   0005B0   00           DB 0
   \   0005B1   00           DB 0
   \   0005B2   00           DB 0
   \   0005B3   00           DB 0
   \   0005B4   80           DB 128
   \   0005B5   7C           DB 124
   \   0005B6   02           DB 2
   \   0005B7   02           DB 2
   \   0005B8   00           DB 0
   \   0005B9   00           DB 0
   \   0005BA   00           DB 0
   \   0005BB   00           DB 0
   \   0005BC   00           DB 0
   \   0005BD   3F           DB 63
   \   0005BE   40           DB 64
   \   0005BF   40           DB 64
   \   0005C0   00           DB 0
   \   0005C1   00           DB 0
   \   0005C2   00           DB 0
   \   0005C3   00           DB 0
   \   0005C4   FF           DB 255
   \   0005C5   00           DB 0
   \   0005C6   00           DB 0
   \   0005C7   00           DB 0
   \   0005C8   00           DB 0
   \   0005C9   00           DB 0
   \   0005CA   00           DB 0
   \   0005CB   00           DB 0
   \   0005CC   FF           DB 255
   \   0005CD   00           DB 0
   \   0005CE   00           DB 0
   \   0005CF   00           DB 0
   \   0005D0   00           DB 0
   \   0005D1   02           DB 2
   \   0005D2   02           DB 2
   \   0005D3   7C           DB 124
   \   0005D4   80           DB 128
   \   0005D5   00           DB 0
   \   0005D6   00           DB 0
   \   0005D7   00           DB 0
   \   0005D8   00           DB 0
   \   0005D9   40           DB 64
   \   0005DA   40           DB 64
   \   0005DB   3F           DB 63
   \   0005DC   00           DB 0
   \   0005DD   00           DB 0
   \   0005DE   00           DB 0
   \   0005DF   00           DB 0
   \   0005E0   00           DB 0
   \   0005E1   06           DB 6
   \   0005E2   01           DB 1
   \   0005E3   01           DB 1
   \   0005E4   02           DB 2
   \   0005E5   02           DB 2
   \   0005E6   04           DB 4
   \   0005E7   04           DB 4
   \   0005E8   00           DB 0
   \   0005E9   00           DB 0
   \   0005EA   00           DB 0
   \   0005EB   00           DB 0
   \   0005EC   00           DB 0
   \   0005ED   00           DB 0
   \   0005EE   00           DB 0
   \   0005EF   00           DB 0
     12          #include "hal_lcd_spi.h"

   \                                 In  segment SFR_AN, at 0x90
   \   union <unnamed> volatile __sfr _A_P1
   \                     _A_P1:
   \   000000                DS 1
     13          #include "hal_delay.h" 
     14          
     15          static void halOLED12864Reset(void);
     16          static void halOLED12864ChipInit(void);
     17          static void halOLED12864SetPosition(uint8 page, uint8 x);
     18          
     19          static void halOLEDShowChar8x16(uint16 x, uint16 page, uint8 ch);
     20          static void halOLEDShowChineseChar16x16(uint16 x, uint16 page, uint8 chL, uint8 chR);
     21          

   \                                 In  segment BANKED_CODE, align 1, keep-with-next
     22          void halOLED12864Init(void)
   \                     halOLED12864Init:
     23          {    
   \   000000   C082         PUSH      DPL
   \   000002   C083         PUSH      DPH
   \   000004                ; Saved register size: 2
   \   000004                ; Auto size: 0
     24              /* Init SPI-GPIO */
     25              halLcdSpiInit();
   \   000004                ; Setup parameters for call to function halLcdSpiInit
   \   000004   12....       LCALL     `??halLcdSpiInit::?relay`; Banked call to: halLcdSpiInit
     26          
     27              /* Init Chip */
     28              halOLED12864ChipInit();
   \   000007                ; Setup parameters for call to function halOLED12864ChipInit
   \   000007   12....       LCALL     `??halOLED12864ChipInit::?relay`; Banked call to: halOLED12864ChipInit
     29          
     30              /* Setting */
     31              halOLED12864ClearScreen();
   \   00000A                ; Setup parameters for call to function halOLED12864ClearScreen
   \   00000A   12....       LCALL     `??halOLED12864ClearScreen::?relay`; Banked call to: halOLED12864ClearScreen
     32              halOLED12864SetPosition(0,0);
   \   00000D                ; Setup parameters for call to function halOLED12864SetPosition
   \   00000D   7A00         MOV       R2,#0x0
   \   00000F   7900         MOV       R1,#0x0
   \   000011   12....       LCALL     `??halOLED12864SetPosition::?relay`; Banked call to: halOLED12864SetPosition
     33          }
   \   000014                REQUIRE ?Subroutine0
   \   000014                ; // Fall through to label ?Subroutine0

   \                                 In  segment BANKED_CODE, align 1, keep-with-next
   \                     ?Subroutine0:
   \   000000   D083         POP       DPH
   \   000002   D082         POP       DPL
   \   000004   02....       LJMP      ?BRET
     34          

   \                                 In  segment BANKED_CODE, align 1, keep-with-next
     35          void halOLED12864ClearScreen(void)
   \                     halOLED12864ClearScreen:
     36          {
   \   000000   74F7         MOV       A,#-0x9
   \   000002   12....       LCALL     ?BANKED_ENTER_XDATA
   \   000005                ; Saved register size: 9
   \   000005                ; Auto size: 0
     37              uint8 page, x;
     38              
     39              for (page = 0; page < HAL_OLED12864_PAGE; page++) {
   \   000005   7F00         MOV       R7,#0x0
     40                  halLcdSpiTxCmd(0xb0 + page);
   \                     ??halOLED12864ClearScreen_0:
   \   000007                ; Setup parameters for call to function halLcdSpiTxCmd
   \   000007   74B0         MOV       A,#-0x50
   \   000009   2F           ADD       A,R7
   \   00000A   F9           MOV       R1,A
   \   00000B   12....       LCALL     `??halLcdSpiTxCmd::?relay`; Banked call to: halLcdSpiTxCmd
     41                  halLcdSpiTxCmd(0x01);
   \   00000E                ; Setup parameters for call to function halLcdSpiTxCmd
   \   00000E   7901         MOV       R1,#0x1
   \   000010   12....       LCALL     `??halLcdSpiTxCmd::?relay`; Banked call to: halLcdSpiTxCmd
     42                  halLcdSpiTxCmd(0x10);
   \   000013                ; Setup parameters for call to function halLcdSpiTxCmd
   \   000013   7910         MOV       R1,#0x10
   \   000015   12....       LCALL     `??halLcdSpiTxCmd::?relay`; Banked call to: halLcdSpiTxCmd
     43                  
     44                  for (x = 0; x < HAL_OLED12864_X; x++) halLcdSpiTxData(0);
   \   000018   7E80         MOV       R6,#-0x80
   \                     ??halOLED12864ClearScreen_1:
   \   00001A                ; Setup parameters for call to function halLcdSpiTxData
   \   00001A   7900         MOV       R1,#0x0
   \   00001C   12....       LCALL     `??halLcdSpiTxData::?relay`; Banked call to: halLcdSpiTxData
   \   00001F   DEF9         DJNZ      R6,??halOLED12864ClearScreen_1
     45              }
   \   000021   0F           INC       R7
   \   000022   EF           MOV       A,R7
   \   000023   C3           CLR       C
   \   000024   9408         SUBB      A,#0x8
   \   000026   40DF         JC        ??halOLED12864ClearScreen_0
     46          }
   \   000028                REQUIRE ?Subroutine1
   \   000028                ; // Fall through to label ?Subroutine1

   \                                 In  segment BANKED_CODE, align 1, keep-with-next
   \                     ?Subroutine1:
   \   000000   7F01         MOV       R7,#0x1
   \   000002   02....       LJMP      ?BANKED_LEAVE_XDATA
     47          

   \                                 In  segment BANKED_CODE, align 1, keep-with-next
     48          void halOLED12864ShowX16(uint8 line, uint8 column, const uint8 *str)
   \                     halOLED12864ShowX16:
     49          {
   \   000000                REQUIRE ?V0
   \   000000                REQUIRE ?V1
   \   000000                REQUIRE ?V2
   \   000000                REQUIRE ?V3
   \   000000                REQUIRE ?V4
   \   000000                REQUIRE ?V5
   \   000000                REQUIRE ?V6
   \   000000                REQUIRE ?V7
   \   000000   74F0         MOV       A,#-0x10
   \   000002   12....       LCALL     ?BANKED_ENTER_XDATA
   \   000005                ; Saved register size: 16
   \   000005                ; Auto size: 5
   \   000005   74FB         MOV       A,#-0x5
   \   000007   12....       LCALL     ?ALLOC_XSTACK8
   \   00000A   7402         MOV       A,#0x2
   \   00000C   12....       LCALL     ?XSTACK_DISP0_8
   \   00000F   E9           MOV       A,R1
   \   000010   F0           MOVX      @DPTR,A
   \   000011   8A..         MOV       ?V6,R2
     50              if (!str || line > 3) return;
   \   000013   EC           MOV       A,R4
   \   000014   4D           ORL       A,R5
   \   000015   6006         JZ        ??halOLED12864ShowX16_0
   \   000017   E0           MOVX      A,@DPTR
   \   000018   C3           CLR       C
   \   000019   9404         SUBB      A,#0x4
   \   00001B   4003         JC        ??halOLED12864ShowX16_1
   \                     ??halOLED12864ShowX16_0:
   \   00001D   02....       LJMP      ??halOLED12864ShowX16_2 & 0xFFFF
     51              
     52              uint8 page = line * 2;    // 2 page per line
   \                     ??halOLED12864ShowX16_1:
   \   000020   E0           MOVX      A,@DPTR
   \   000021   C3           CLR       C
   \   000022   33           RLC       A
   \   000023   F8           MOV       R0,A
     53              const uint8 *ptext = str; // text
   \   000024   85..82       MOV       DPL,?XSP + 0
   \   000027   85..83       MOV       DPH,?XSP + 1
   \   00002A   EC           MOV       A,R4
   \   00002B   F0           MOVX      @DPTR,A
   \   00002C   A3           INC       DPTR
   \   00002D   ED           MOV       A,R5
   \   00002E   F0           MOVX      @DPTR,A
   \   00002F   E8           MOV       A,R0
   \   000030   FE           MOV       R6,A
   \   000031   8078         SJMP      ??halOLED12864ShowX16_3
     54              
     55              /* Show text */
     56              while(*ptext != 0) {
     57                  /* ASCII Code: 0~127 */
     58                  if((*ptext) < 128) {
   \                     ??halOLED12864ShowX16_4:
   \   000033   7403         MOV       A,#0x3
   \   000035   12....       LCALL     ?XSTACK_DISP0_8
   \   000038   E4           CLR       A
   \   000039   F0           MOVX      @DPTR,A
   \   00003A   A3           INC       DPTR
   \                     ??halOLED12864ShowX16_5:
   \   00003B   F0           MOVX      @DPTR,A
   \   00003C                ; Setup parameters for call to function halOLED12864SetPosition
   \   00003C   A9..         MOV       R1,?V0
   \   00003E   12....       LCALL     `??halOLED12864SetPosition::?relay`; Banked call to: halOLED12864SetPosition
   \   000041   75..00       MOV       ?V4,#0x0
   \                     ??halOLED12864ShowX16_6:
   \   000044                ; Setup parameters for call to function halLcdSpiTxData
   \   000044   7403         MOV       A,#0x3
   \   000046   12....       LCALL     ?XSTACK_DISP0_8
   \   000049   A8..         MOV       R0,?V4
   \   00004B   12....       LCALL     ?Subroutine5 & 0xFFFF
   \                     ??CrossCallReturnLabel_4:
   \   00004E   74..         MOV       A,#FontTable_V_8X16 & 0xff
   \   000050   28           ADD       A,R0
   \   000051   F582         MOV       DPL,A
   \   000053   74..         MOV       A,#(FontTable_V_8X16 >> 8) & 0xff
   \   000055   39           ADDC      A,R1
   \   000056   F583         MOV       DPH,A
   \   000058   E0           MOVX      A,@DPTR
   \   000059   F9           MOV       R1,A
   \   00005A   12....       LCALL     `??halLcdSpiTxData::?relay`; Banked call to: halLcdSpiTxData
   \   00005D   05..         INC       ?V4
   \   00005F   E5..         MOV       A,?V4
   \   000061   C3           CLR       C
   \   000062   9408         SUBB      A,#0x8
   \   000064   40DE         JC        ??halOLED12864ShowX16_6
   \   000066                ; Setup parameters for call to function halOLED12864SetPosition
   \   000066   AA..         MOV       R2,?V2
   \   000068   EE           MOV       A,R6
   \   000069   04           INC       A
   \   00006A   F9           MOV       R1,A
   \   00006B   12....       LCALL     `??halOLED12864SetPosition::?relay`; Banked call to: halOLED12864SetPosition
   \   00006E   75..00       MOV       ?V0,#0x0
   \                     ??halOLED12864ShowX16_7:
   \   000071                ; Setup parameters for call to function halLcdSpiTxData
   \   000071   7403         MOV       A,#0x3
   \   000073   12....       LCALL     ?XSTACK_DISP0_8
   \   000076   A8..         MOV       R0,?V0
   \   000078   12....       LCALL     ?Subroutine5 & 0xFFFF
   \                     ??CrossCallReturnLabel_5:
   \   00007B   74..         MOV       A,#(FontTable_V_8X16 + 8) & 0xff
   \   00007D   28           ADD       A,R0
   \   00007E   F582         MOV       DPL,A
   \   000080   74..         MOV       A,#((FontTable_V_8X16 + 8) >> 8) & 0xff
   \   000082   39           ADDC      A,R1
   \   000083   F583         MOV       DPH,A
   \   000085   E0           MOVX      A,@DPTR
   \   000086   F9           MOV       R1,A
   \   000087   12....       LCALL     `??halLcdSpiTxData::?relay`; Banked call to: halLcdSpiTxData
   \   00008A   05..         INC       ?V0
   \   00008C   E5..         MOV       A,?V0
   \   00008E   C3           CLR       C
   \   00008F   9408         SUBB      A,#0x8
   \   000091   40DE         JC        ??halOLED12864ShowX16_7
     59                      /* End of line */
     60                      if((column + 8) > HAL_OLED12864_X) return;
     61                    
     62                      /* Show 8x16 ASCII Char. */
     63                      halOLEDShowChar8x16(column, page, *ptext);
     64                      column += 8;
   \   000093   7408         MOV       A,#0x8
   \   000095   12....       LCALL     ?Subroutine3 & 0xFFFF
     65                      
     66                      ptext++;
   \                     ??CrossCallReturnLabel_0:
   \   000098   2401         ADD       A,#0x1
   \                     ??halOLED12864ShowX16_8:
   \   00009A   F8           MOV       R0,A
   \   00009B   A3           INC       DPTR
   \   00009C   E0           MOVX      A,@DPTR
   \   00009D   3400         ADDC      A,#0x0
   \   00009F   F9           MOV       R1,A
   \   0000A0   85..82       MOV       DPL,?XSP + 0
   \   0000A3   85..83       MOV       DPH,?XSP + 1
   \   0000A6   E8           MOV       A,R0
   \   0000A7   F0           MOVX      @DPTR,A
   \   0000A8   A3           INC       DPTR
   \   0000A9   E9           MOV       A,R1
   \   0000AA   F0           MOVX      @DPTR,A
   \                     ??halOLED12864ShowX16_3:
   \   0000AB   85..82       MOV       DPL,?XSP + 0
   \   0000AE   85..83       MOV       DPH,?XSP + 1
   \   0000B1   E0           MOVX      A,@DPTR
   \   0000B2   F8           MOV       R0,A
   \   0000B3   A3           INC       DPTR
   \   0000B4   E0           MOVX      A,@DPTR
   \   0000B5   F583         MOV       DPH,A
   \   0000B7   8882         MOV       DPL,R0
   \   0000B9   E0           MOVX      A,@DPTR
   \   0000BA   F9           MOV       R1,A
   \   0000BB   6079         JZ        ??halOLED12864ShowX16_2
   \   0000BD   AA..         MOV       R2,?V6
   \   0000BF   7B00         MOV       R3,#0x0
   \   0000C1   AC..         MOV       R4,?V6
   \   0000C3   7D00         MOV       R5,#0x0
   \   0000C5   C3           CLR       C
   \   0000C6   9480         SUBB      A,#-0x80
   \   0000C8   EC           MOV       A,R4
   \   0000C9   5036         JNC       ??halOLED12864ShowX16_9
   \   0000CB   2408         ADD       A,#0x8
   \   0000CD   5001         JNC       ??halOLED12864ShowX16_10
   \   0000CF   0D           INC       R5
   \                     ??halOLED12864ShowX16_10:
   \   0000D0   12....       LCALL     ?Subroutine4 & 0xFFFF
   \                     ??CrossCallReturnLabel_2:
   \   0000D3   5061         JNC       ??halOLED12864ShowX16_2
   \   0000D5   8E..         MOV       ?V0,R6
   \   0000D7   8A..         MOV       ?V2,R2
   \   0000D9   E9           MOV       A,R1
   \   0000DA   C3           CLR       C
   \   0000DB   9421         SUBB      A,#0x21
   \   0000DD   5003         JNC       $+5
   \   0000DF   02....       LJMP      ??halOLED12864ShowX16_4 & 0xFFFF
   \   0000E2   E9           MOV       A,R1
   \   0000E3   24E0         ADD       A,#-0x20
   \   0000E5   F5..         MOV       ?V4,A
   \   0000E7   E4           CLR       A
   \   0000E8   34FF         ADDC      A,#-0x1
   \   0000EA   F5..         MOV       ?V5,A
   \   0000EC   7404         MOV       A,#0x4
   \   0000EE   78..         MOV       R0,#?V4
   \   0000F0   12....       LCALL     ?S_SHL
   \   0000F3   7403         MOV       A,#0x3
   \   0000F5   12....       LCALL     ?XSTACK_DISP0_8
   \   0000F8   E5..         MOV       A,?V4
   \   0000FA   F0           MOVX      @DPTR,A
   \   0000FB   A3           INC       DPTR
   \   0000FC   E5..         MOV       A,?V5
   \   0000FE   02....       LJMP      ??halOLED12864ShowX16_5 & 0xFFFF
     67                  }
     68                  /* Chinese 16x16 characters */
     69                  else {
     70                      /* End of line */
     71                      if((column + 16) > HAL_OLED12864_X) return;
   \                     ??halOLED12864ShowX16_9:
   \   000101   2410         ADD       A,#0x10
   \   000103   5001         JNC       ??halOLED12864ShowX16_11
   \   000105   0D           INC       R5
   \                     ??halOLED12864ShowX16_11:
   \   000106   12....       LCALL     ?Subroutine4 & 0xFFFF
   \                     ??CrossCallReturnLabel_3:
   \   000109   502B         JNC       ??halOLED12864ShowX16_2
     72                      
     73                      halOLEDShowChineseChar16x16(column, page, *ptext, *(ptext + 1));
   \   00010B                ; Setup parameters for call to function halOLEDShowChineseChar16x16
   \   00010B   85..82       MOV       DPL,?XSP + 0
   \   00010E   85..83       MOV       DPH,?XSP + 1
   \   000111   A3           INC       DPTR
   \   000112   E0           MOVX      A,@DPTR
   \   000113   F583         MOV       DPH,A
   \   000115   8882         MOV       DPL,R0
   \   000117   A3           INC       DPTR
   \   000118   E0           MOVX      A,@DPTR
   \   000119   F5..         MOV       ?V0,A
   \   00011B   78..         MOV       R0,#?V0
   \   00011D   12....       LCALL     ?PUSH_XSTACK_I_ONE
   \   000120   EE           MOV       A,R6
   \   000121   FC           MOV       R4,A
   \   000122   7D00         MOV       R5,#0x0
   \   000124   12....       LCALL     `??halOLEDShowChineseChar16x16::?relay`; Banked call to: halOLEDShowChineseChar16x16
   \   000127   7401         MOV       A,#0x1
   \   000129   12....       LCALL     ?DEALLOC_XSTACK8
     74                      column += 16;
   \   00012C   7410         MOV       A,#0x10
   \   00012E   12....       LCALL     ?Subroutine3 & 0xFFFF
     75                      
     76                      ptext += 2;
     77                  }
     78              } /* while(*ptext != 0) */
   \                     ??CrossCallReturnLabel_1:
   \   000131   2402         ADD       A,#0x2
   \   000133   02....       LJMP      ??halOLED12864ShowX16_8 & 0xFFFF
     79          }
   \                     ??halOLED12864ShowX16_2:
   \   000136   7405         MOV       A,#0x5
   \   000138   12....       LCALL     ?DEALLOC_XSTACK8
   \   00013B                REQUIRE ?Subroutine2
   \   00013B                ; // Fall through to label ?Subroutine2

   \                                 In  segment BANKED_CODE, align 1, keep-with-next
   \                     ?Subroutine2:
   \   000000   7F08         MOV       R7,#0x8
   \   000002   02....       LJMP      ?BANKED_LEAVE_XDATA

   \                                 In  segment BANKED_CODE, align 1, keep-with-next
   \                     ?Subroutine4:
   \   000000   C3           CLR       C
   \   000001   9481         SUBB      A,#-0x7f
   \   000003   ED           MOV       A,R5
   \   000004   9400         SUBB      A,#0x0
   \   000006   A2D2         MOV       C,0xD0 /* PSW */.2
   \   000008   65D0         XRL       A,PSW
   \   00000A   33           RLC       A
   \   00000B   22           RET

   \                                 In  segment BANKED_CODE, align 1, keep-with-next
   \                     ?Subroutine3:
   \   000000   25..         ADD       A,?V6
   \   000002   F5..         MOV       ?V6,A
   \   000004   85..82       MOV       DPL,?XSP + 0
   \   000007   85..83       MOV       DPH,?XSP + 1
   \   00000A   E0           MOVX      A,@DPTR
   \   00000B   22           RET
     80          

   \                                 In  segment BANKED_CODE, align 1, keep-with-next
     81          void halOLED12864ShowPicture(uint8 x, uint8 y, uint8 picWidth, uint8 picHeight, const uint8 *pic)
   \                     halOLED12864ShowPicture:
     82          {
   \   000000                REQUIRE ?V0
   \   000000                REQUIRE ?V1
   \   000000                REQUIRE ?V2
   \   000000                REQUIRE ?V3
   \   000000                REQUIRE ?V4
   \   000000                REQUIRE ?V5
   \   000000                REQUIRE ?V6
   \   000000                REQUIRE ?V7
   \   000000   74F0         MOV       A,#-0x10
   \   000002   12....       LCALL     ?BANKED_ENTER_XDATA
   \   000005                ; Saved register size: 16
   \   000005                ; Auto size: 0
   \   000005   E9           MOV       A,R1
   \   000006   FF           MOV       R7,A
   \   000007   8A..         MOV       ?V0,R2
     83              if(x > 127 || y > 64) return;
   \   000009   C3           CLR       C
   \   00000A   9480         SUBB      A,#-0x80
   \   00000C   5006         JNC       ??halOLED12864ShowPicture_0
   \   00000E   EA           MOV       A,R2
   \   00000F   C3           CLR       C
   \   000010   9441         SUBB      A,#0x41
   \   000012   4002         JC        ??halOLED12864ShowPicture_1
   \                     ??halOLED12864ShowPicture_0:
   \   000014   8078         SJMP      ??halOLED12864ShowPicture_2
     84            
     85              uint16 charIndex = 0;
   \                     ??halOLED12864ShowPicture_1:
   \   000016   75..00       MOV       ?V6,#0x0
   \   000019   75..00       MOV       ?V7,#0x0
     86              uint8 xs = x, xe = x + picWidth - 1;
   \   00001C   EF           MOV       A,R7
   \   00001D   2B           ADD       A,R3
   \   00001E   14           DEC       A
   \   00001F   FE           MOV       R6,A
     87              uint8 ys =  y / 8, ye = (y + picHeight - 1) / 8;
   \   000020   EA           MOV       A,R2
   \   000021   2C           ADD       A,R4
   \   000022   F8           MOV       R0,A
   \   000023   E4           CLR       A
   \   000024   3400         ADDC      A,#0x0
   \   000026   F9           MOV       R1,A
   \   000027   E8           MOV       A,R0
   \   000028   24FF         ADD       A,#-0x1
   \   00002A   18           DEC       R0
   \   00002B   E9           MOV       A,R1
   \   00002C   34FF         ADDC      A,#-0x1
   \   00002E   F9           MOV       R1,A
   \   00002F   7A08         MOV       R2,#0x8
   \   000031   7B00         MOV       R3,#0x0
   \   000033   12....       LCALL     ?S_DIV_MOD
   \   000036   E8           MOV       A,R0
   \   000037   F5..         MOV       ?V3,A
     88           
     89              for (uint8 line = ys; line < ye; line++) {
   \   000039   E5..         MOV       A,?V0
   \   00003B   13           RRC       A
   \   00003C   13           RRC       A
   \   00003D   13           RRC       A
   \   00003E   541F         ANL       A,#0x1f
   \   000040   F5..         MOV       ?V2,A
   \   000042   8038         SJMP      ??halOLED12864ShowPicture_3
     90                  halOLED12864SetPosition(line, x);
     91                  for(uint8 column = xs; column < (xe + 1); column++) halLcdSpiTxData( pic[charIndex++] );
   \                     ??halOLED12864ShowPicture_4:
   \   000044                ; Setup parameters for call to function halLcdSpiTxData
   \   000044   7410         MOV       A,#0x10
   \   000046   12....       LCALL     ?XSTACK_DISP0_8
   \   000049   E0           MOVX      A,@DPTR
   \   00004A   25..         ADD       A,?V6
   \   00004C   F8           MOV       R0,A
   \   00004D   A3           INC       DPTR
   \   00004E   E0           MOVX      A,@DPTR
   \   00004F   35..         ADDC      A,?V7
   \   000051   8882         MOV       DPL,R0
   \   000053   F583         MOV       DPH,A
   \   000055   E0           MOVX      A,@DPTR
   \   000056   F9           MOV       R1,A
   \   000057   12....       LCALL     `??halLcdSpiTxData::?relay`; Banked call to: halLcdSpiTxData
   \   00005A   05..         INC       ?V6
   \   00005C   E5..         MOV       A,?V6
   \   00005E   7002         JNZ       ??halOLED12864ShowPicture_5
   \   000060   05..         INC       ?V7
   \                     ??halOLED12864ShowPicture_5:
   \   000062   05..         INC       ?V4
   \                     ??halOLED12864ShowPicture_6:
   \   000064   EE           MOV       A,R6
   \   000065   7900         MOV       R1,#0x0
   \   000067   2401         ADD       A,#0x1
   \   000069   F8           MOV       R0,A
   \   00006A   5001         JNC       ??halOLED12864ShowPicture_7
   \   00006C   09           INC       R1
   \                     ??halOLED12864ShowPicture_7:
   \   00006D   C3           CLR       C
   \   00006E   E5..         MOV       A,?V4
   \   000070   98           SUBB      A,R0
   \   000071   E4           CLR       A
   \   000072   99           SUBB      A,R1
   \   000073   A2D2         MOV       C,0xD0 /* PSW */.2
   \   000075   65D0         XRL       A,PSW
   \   000077   33           RLC       A
   \   000078   40CA         JC        ??halOLED12864ShowPicture_4
   \   00007A   05..         INC       ?V2
   \                     ??halOLED12864ShowPicture_3:
   \   00007C   E5..         MOV       A,?V2
   \   00007E   C3           CLR       C
   \   00007F   95..         SUBB      A,?V3
   \   000081   500B         JNC       ??halOLED12864ShowPicture_2
   \   000083                ; Setup parameters for call to function halOLED12864SetPosition
   \   000083   EF           MOV       A,R7
   \   000084   FA           MOV       R2,A
   \   000085   A9..         MOV       R1,?V2
   \   000087   12....       LCALL     `??halOLED12864SetPosition::?relay`; Banked call to: halOLED12864SetPosition
   \   00008A   8F..         MOV       ?V4,R7
   \   00008C   80D6         SJMP      ??halOLED12864ShowPicture_6
     92              }
     93          }
   \                     ??halOLED12864ShowPicture_2:
   \   00008E   02....       LJMP      ?Subroutine2 & 0xFFFF
     94          
     95          static void halOLED12864Reset(void)
     96          {
     97              /* Reset OLED12864 */
     98              SPI_GPIO_CLEAR(HAL_LCD_SPI_RST_PORT, HAL_LCD_SPI_RST_PIN);
     99              delayMs(SYSCLK_32MHZ, 60);
    100              SPI_GPIO_SET(HAL_LCD_SPI_RST_PORT, HAL_LCD_SPI_RST_PIN);
    101          }
    102          

   \                                 In  segment BANKED_CODE, align 1, keep-with-next
    103          static void halOLED12864ChipInit(void)
   \                     halOLED12864ChipInit:
    104          {
   \   000000   C082         PUSH      DPL
   \   000002   C083         PUSH      DPH
   \   000004                ; Saved register size: 2
   \   000004                ; Auto size: 0
    105              halOLED12864Reset();
   \   000004   C290         CLR       0x90.0
   \   000006                ; Setup parameters for call to function delayMs
   \   000006   7A3C         MOV       R2,#0x3c
   \   000008   7B00         MOV       R3,#0x0
   \   00000A   7901         MOV       R1,#0x1
   \   00000C   12....       LCALL     `??delayMs::?relay`; Banked call to: delayMs
   \   00000F   D290         SETB      0x90.0
    106            
    107              halLcdSpiTxCmd(0xae);  // --turn off oled panel
   \   000011                ; Setup parameters for call to function halLcdSpiTxCmd
   \   000011   79AE         MOV       R1,#-0x52
   \   000013   12....       LCALL     `??halLcdSpiTxCmd::?relay`; Banked call to: halLcdSpiTxCmd
    108              halLcdSpiTxCmd(0x00);  // ---set low column address
   \   000016                ; Setup parameters for call to function halLcdSpiTxCmd
   \   000016   7900         MOV       R1,#0x0
   \   000018   12....       LCALL     `??halLcdSpiTxCmd::?relay`; Banked call to: halLcdSpiTxCmd
    109              halLcdSpiTxCmd(0x10);  // ---set high column address
   \   00001B                ; Setup parameters for call to function halLcdSpiTxCmd
   \   00001B   7910         MOV       R1,#0x10
   \   00001D   12....       LCALL     `??halLcdSpiTxCmd::?relay`; Banked call to: halLcdSpiTxCmd
    110              halLcdSpiTxCmd(0x40);  // --set start line address  Set Mapping  
   \   000020                ; Setup parameters for call to function halLcdSpiTxCmd
   \   000020   7940         MOV       R1,#0x40
   \   000022   12....       LCALL     `??halLcdSpiTxCmd::?relay`; Banked call to: halLcdSpiTxCmd
    111                                              //   RAM Display Start Line (0x00~0x3F)
    112              halLcdSpiTxCmd(0x81);  // --set contrast control register
   \   000025                ; Setup parameters for call to function halLcdSpiTxCmd
   \   000025   7981         MOV       R1,#-0x7f
   \   000027   12....       LCALL     `??halLcdSpiTxCmd::?relay`; Banked call to: halLcdSpiTxCmd
    113              halLcdSpiTxCmd(0xcf);  // --Set SEG Output Current Brightness
   \   00002A                ; Setup parameters for call to function halLcdSpiTxCmd
   \   00002A   79CF         MOV       R1,#-0x31
   \   00002C   12....       LCALL     `??halLcdSpiTxCmd::?relay`; Banked call to: halLcdSpiTxCmd
    114              halLcdSpiTxCmd(0xa1);  // --Set SEG/Column Mapping     
   \   00002F                ; Setup parameters for call to function halLcdSpiTxCmd
   \   00002F   79A1         MOV       R1,#-0x5f
   \   000031   12....       LCALL     `??halLcdSpiTxCmd::?relay`; Banked call to: halLcdSpiTxCmd
    115              halLcdSpiTxCmd(0xc8);  // --Set COM/Row Scan Direction  
   \   000034                ; Setup parameters for call to function halLcdSpiTxCmd
   \   000034   79C8         MOV       R1,#-0x38
   \   000036   12....       LCALL     `??halLcdSpiTxCmd::?relay`; Banked call to: halLcdSpiTxCmd
    116              halLcdSpiTxCmd(0xa6);  // --set normal display
   \   000039                ; Setup parameters for call to function halLcdSpiTxCmd
   \   000039   79A6         MOV       R1,#-0x5a
   \   00003B   12....       LCALL     `??halLcdSpiTxCmd::?relay`; Banked call to: halLcdSpiTxCmd
    117              halLcdSpiTxCmd(0xa8);  // --set multiplex ratio(1 to 64)
   \   00003E                ; Setup parameters for call to function halLcdSpiTxCmd
   \   00003E   79A8         MOV       R1,#-0x58
   \   000040   12....       LCALL     `??halLcdSpiTxCmd::?relay`; Banked call to: halLcdSpiTxCmd
    118              halLcdSpiTxCmd(0x3f);  // --1/64 duty
   \   000043                ; Setup parameters for call to function halLcdSpiTxCmd
   \   000043   793F         MOV       R1,#0x3f
   \   000045   12....       LCALL     `??halLcdSpiTxCmd::?relay`; Banked call to: halLcdSpiTxCmd
    119              halLcdSpiTxCmd(0xd3);  // --set display offset Shift Mapping RAM 
   \   000048                ; Setup parameters for call to function halLcdSpiTxCmd
   \   000048   79D3         MOV       R1,#-0x2d
   \   00004A   12....       LCALL     `??halLcdSpiTxCmd::?relay`; Banked call to: halLcdSpiTxCmd
    120                                              //   Counter(0x00~0x3F)
    121              halLcdSpiTxCmd(0x00);  // --not offset
   \   00004D                ; Setup parameters for call to function halLcdSpiTxCmd
   \   00004D   7900         MOV       R1,#0x0
   \   00004F   12....       LCALL     `??halLcdSpiTxCmd::?relay`; Banked call to: halLcdSpiTxCmd
    122              halLcdSpiTxCmd(0xd5);  // --set display clock divide
   \   000052                ; Setup parameters for call to function halLcdSpiTxCmd
   \   000052   79D5         MOV       R1,#-0x2b
   \   000054   12....       LCALL     `??halLcdSpiTxCmd::?relay`; Banked call to: halLcdSpiTxCmd
    123                                              //   ratio/oscillator oscillator frequency
    124              halLcdSpiTxCmd(0x80);  // --set divide ratio, Set Clock as 100 
   \   000057                ; Setup parameters for call to function halLcdSpiTxCmd
   \   000057   7980         MOV       R1,#-0x80
   \   000059   12....       LCALL     `??halLcdSpiTxCmd::?relay`; Banked call to: halLcdSpiTxCmd
    125                                              //   Frames/Sec
    126              halLcdSpiTxCmd(0xd9);  // --set pre-charge period
   \   00005C                ; Setup parameters for call to function halLcdSpiTxCmd
   \   00005C   79D9         MOV       R1,#-0x27
   \   00005E   12....       LCALL     `??halLcdSpiTxCmd::?relay`; Banked call to: halLcdSpiTxCmd
    127              halLcdSpiTxCmd(0xf1);  // --Set Pre-Charge as 15 Clocks & Discharge 
   \   000061                ; Setup parameters for call to function halLcdSpiTxCmd
   \   000061   79F1         MOV       R1,#-0xf
   \   000063   12....       LCALL     `??halLcdSpiTxCmd::?relay`; Banked call to: halLcdSpiTxCmd
    128                                              //   as 1 Clock
    129              halLcdSpiTxCmd(0xda);  // --set com pins hardware configuration
   \   000066                ; Setup parameters for call to function halLcdSpiTxCmd
   \   000066   79DA         MOV       R1,#-0x26
   \   000068   12....       LCALL     `??halLcdSpiTxCmd::?relay`; Banked call to: halLcdSpiTxCmd
    130              halLcdSpiTxCmd(0x12);
   \   00006B                ; Setup parameters for call to function halLcdSpiTxCmd
   \   00006B   7912         MOV       R1,#0x12
   \   00006D   12....       LCALL     `??halLcdSpiTxCmd::?relay`; Banked call to: halLcdSpiTxCmd
    131              halLcdSpiTxCmd(0xdb);  // --set vcomh
   \   000070                ; Setup parameters for call to function halLcdSpiTxCmd
   \   000070   79DB         MOV       R1,#-0x25
   \   000072   12....       LCALL     `??halLcdSpiTxCmd::?relay`; Banked call to: halLcdSpiTxCmd
    132              halLcdSpiTxCmd(0x40);  // --Set VCOM Deselect Level
   \   000075                ; Setup parameters for call to function halLcdSpiTxCmd
   \   000075   7940         MOV       R1,#0x40
   \   000077   12....       LCALL     `??halLcdSpiTxCmd::?relay`; Banked call to: halLcdSpiTxCmd
    133              halLcdSpiTxCmd(0x20);  // --Set Page Addressing Mode (0x00/0x01/0x02)
   \   00007A                ; Setup parameters for call to function halLcdSpiTxCmd
   \   00007A   7920         MOV       R1,#0x20
   \   00007C   12....       LCALL     `??halLcdSpiTxCmd::?relay`; Banked call to: halLcdSpiTxCmd
    134              halLcdSpiTxCmd(0x02);  //
   \   00007F                ; Setup parameters for call to function halLcdSpiTxCmd
   \   00007F   7902         MOV       R1,#0x2
   \   000081   12....       LCALL     `??halLcdSpiTxCmd::?relay`; Banked call to: halLcdSpiTxCmd
    135              halLcdSpiTxCmd(0x8d);  // --set Charge Pump enable/disable
   \   000084                ; Setup parameters for call to function halLcdSpiTxCmd
   \   000084   798D         MOV       R1,#-0x73
   \   000086   12....       LCALL     `??halLcdSpiTxCmd::?relay`; Banked call to: halLcdSpiTxCmd
    136              halLcdSpiTxCmd(0x14);  // --set(0x10) disable
   \   000089                ; Setup parameters for call to function halLcdSpiTxCmd
   \   000089   7914         MOV       R1,#0x14
   \   00008B   12....       LCALL     `??halLcdSpiTxCmd::?relay`; Banked call to: halLcdSpiTxCmd
    137              halLcdSpiTxCmd(0xa4);  // --Disable Entire Display On (0xa4/0xa5)
   \   00008E                ; Setup parameters for call to function halLcdSpiTxCmd
   \   00008E   79A4         MOV       R1,#-0x5c
   \   000090   12....       LCALL     `??halLcdSpiTxCmd::?relay`; Banked call to: halLcdSpiTxCmd
    138              halLcdSpiTxCmd(0xa6);  // --Disable Inverse Display On (0xa6/a7) 
   \   000093                ; Setup parameters for call to function halLcdSpiTxCmd
   \   000093   79A6         MOV       R1,#-0x5a
   \   000095   12....       LCALL     `??halLcdSpiTxCmd::?relay`; Banked call to: halLcdSpiTxCmd
    139              halLcdSpiTxCmd(0xaf);  // --turn on oled panel
   \   000098                ; Setup parameters for call to function halLcdSpiTxCmd
   \   000098   79AF         MOV       R1,#-0x51
   \   00009A   12....       LCALL     `??halLcdSpiTxCmd::?relay`; Banked call to: halLcdSpiTxCmd
    140          }
   \   00009D   02....       LJMP      ?Subroutine0 & 0xFFFF
   \   0000A0                REQUIRE _A_P1
    141          

   \                                 In  segment BANKED_CODE, align 1, keep-with-next
    142          static void halOLED12864SetPosition(uint8 page, uint8 x)
   \                     halOLED12864SetPosition:
    143          {
   \   000000   74F7         MOV       A,#-0x9
   \   000002   12....       LCALL     ?BANKED_ENTER_XDATA
   \   000005                ; Saved register size: 9
   \   000005                ; Auto size: 0
   \   000005   EA           MOV       A,R2
   \   000006   FF           MOV       R7,A
    144              halLcdSpiTxCmd( 0xb0 + page );
   \   000007                ; Setup parameters for call to function halLcdSpiTxCmd
   \   000007   74B0         MOV       A,#-0x50
   \   000009   29           ADD       A,R1
   \   00000A   F9           MOV       R1,A
   \   00000B   12....       LCALL     `??halLcdSpiTxCmd::?relay`; Banked call to: halLcdSpiTxCmd
    145              halLcdSpiTxCmd( ((x&0xf0)>>4)|0x10 );
   \   00000E                ; Setup parameters for call to function halLcdSpiTxCmd
   \   00000E   EF           MOV       A,R7
   \   00000F   C4           SWAP      A
   \   000010   540F         ANL       A,#0xf
   \   000012   4410         ORL       A,#0x10
   \   000014   F9           MOV       R1,A
   \   000015   12....       LCALL     `??halLcdSpiTxCmd::?relay`; Banked call to: halLcdSpiTxCmd
    146              halLcdSpiTxCmd( (x&0x0f)|0x01 ); 
   \   000018                ; Setup parameters for call to function halLcdSpiTxCmd
   \   000018   740F         MOV       A,#0xf
   \   00001A   5F           ANL       A,R7
   \   00001B   4401         ORL       A,#0x1
   \   00001D   F9           MOV       R1,A
   \   00001E   12....       LCALL     `??halLcdSpiTxCmd::?relay`; Banked call to: halLcdSpiTxCmd
    147          }
   \   000021   02....       LJMP      ?Subroutine1 & 0xFFFF
    148          
    149          static void halOLEDShowChar8x16(uint16 x, uint16 page, uint8 ch)
    150          {
    151              uint16 charIndex;
    152              
    153              /* index of font table, height: 16 */
    154              if(ch > 32) charIndex = (ch - 32) * 16;
    155              else charIndex = 0;
    156              
    157              /* Set first page */
    158              halOLED12864SetPosition(page, x);
    159              for (uint8 j = 0; j < 8; j++)  halLcdSpiTxData( FONT_TABLE_8x16[charIndex + j] );
    160              
    161              /* Set second page */
    162              halOLED12864SetPosition(page + 1, x);
    163              for (uint8 j = 0; j < 8; j++) halLcdSpiTxData( FONT_TABLE_8x16[charIndex + j + 8] );
    164          }
    165          

   \                                 In  segment BANKED_CODE, align 1, keep-with-next
    166          static void halOLEDShowChineseChar16x16(uint16 x, uint16 page, 
   \                     halOLEDShowChineseChar16x16:
    167                                                  uint8 chL, uint8 chR)
    168          {
   \   000000                REQUIRE ?V0
   \   000000                REQUIRE ?V1
   \   000000                REQUIRE ?V2
   \   000000                REQUIRE ?V3
   \   000000                REQUIRE ?V4
   \   000000                REQUIRE ?V5
   \   000000   74F2         MOV       A,#-0xe
   \   000002   12....       LCALL     ?BANKED_ENTER_XDATA
   \   000005                ; Saved register size: 14
   \   000005                ; Auto size: 0
   \   000005   EA           MOV       A,R2
   \   000006   FE           MOV       R6,A
   \   000007   8C..         MOV       ?V0,R4
   \   000009   89..         MOV       ?V4,R1
    169              for (uint16 i = 0; i < FONT_TABLE_CHINESE_SIZE; i++) {
   \   00000B   7800         MOV       R0,#0x0
   \   00000D   7900         MOV       R1,#0x0
   \   00000F   740E         MOV       A,#0xe
   \   000011   12....       LCALL     ?XSTACK_DISP0_8
   \   000014   E0           MOVX      A,@DPTR
   \   000015   FC           MOV       R4,A
    170                  if (FONT_TABLE_CHINESE_16x16[i].Char16x16[0] != chL || FONT_TABLE_CHINESE_16x16[i].Char16x16[1] != chR) continue;
   \                     ??halOLEDShowChineseChar16x16_0:
   \   000016   E8           MOV       A,R0
   \   000017   FA           MOV       R2,A
   \   000018   E9           MOV       A,R1
   \   000019   FB           MOV       R3,A
   \   00001A   EA           MOV       A,R2
   \   00001B   75F022       MOV       B,#0x22
   \   00001E   A4           MUL       AB
   \   00001F   FA           MOV       R2,A
   \   000020   ADF0         MOV       R5,B
   \   000022   75F022       MOV       B,#0x22
   \   000025   EB           MOV       A,R3
   \   000026   A4           MUL       AB
   \   000027   2D           ADD       A,R5
   \   000028   FB           MOV       R3,A
   \   000029   74..         MOV       A,#FontTable_Chinese_V_16X16 & 0xff
   \   00002B   2A           ADD       A,R2
   \   00002C   F5..         MOV       ?V2,A
   \   00002E   74..         MOV       A,#(FontTable_Chinese_V_16X16 >> 8) & 0xff
   \   000030   3B           ADDC      A,R3
   \   000031   F5..         MOV       ?V3,A
   \   000033   85..82       MOV       DPL,?V2
   \   000036   F583         MOV       DPH,A
   \   000038   E0           MOVX      A,@DPTR
   \   000039   65..         XRL       A,?V4
   \   00003B   7005         JNZ       ??halOLEDShowChineseChar16x16_1
   \   00003D   A3           INC       DPTR
   \   00003E   E0           MOVX      A,@DPTR
   \   00003F   6C           XRL       A,R4
   \   000040   600F         JZ        ??halOLEDShowChineseChar16x16_2
   \                     ??halOLEDShowChineseChar16x16_1:
   \   000042   08           INC       R0
   \   000043   E8           MOV       A,R0
   \   000044   7001         JNZ       ??halOLEDShowChineseChar16x16_3
   \   000046   09           INC       R1
   \                     ??halOLEDShowChineseChar16x16_3:
   \   000047   C3           CLR       C
   \   000048   9408         SUBB      A,#0x8
   \   00004A   E9           MOV       A,R1
   \   00004B   9400         SUBB      A,#0x0
   \   00004D   5052         JNC       ??halOLEDShowChineseChar16x16_4
   \   00004F   80C5         SJMP      ??halOLEDShowChineseChar16x16_0
    171                  
    172                  halOLED12864SetPosition(page, x);
   \                     ??halOLEDShowChineseChar16x16_2:
   \   000051                ; Setup parameters for call to function halOLED12864SetPosition
   \   000051   EE           MOV       A,R6
   \   000052   FA           MOV       R2,A
   \   000053   A9..         MOV       R1,?V0
   \   000055   12....       LCALL     `??halOLED12864SetPosition::?relay`; Banked call to: halOLED12864SetPosition
    173                  for(uint8 j = 0; j < 16; j++) halLcdSpiTxData( FONT_TABLE_CHINESE_16x16[i].code[j] );
   \   000058   75..00       MOV       ?V5,#0x0
   \                     ??halOLEDShowChineseChar16x16_5:
   \   00005B                ; Setup parameters for call to function halLcdSpiTxData
   \   00005B   A8..         MOV       R0,?V5
   \   00005D   E5..         MOV       A,?V2
   \   00005F   28           ADD       A,R0
   \   000060   F582         MOV       DPL,A
   \   000062   E4           CLR       A
   \   000063   35..         ADDC      A,?V3
   \   000065   F583         MOV       DPH,A
   \   000067   A3           INC       DPTR
   \   000068   A3           INC       DPTR
   \   000069   E0           MOVX      A,@DPTR
   \   00006A   F9           MOV       R1,A
   \   00006B   12....       LCALL     `??halLcdSpiTxData::?relay`; Banked call to: halLcdSpiTxData
   \   00006E   05..         INC       ?V5
   \   000070   E5..         MOV       A,?V5
   \   000072   C3           CLR       C
   \   000073   9410         SUBB      A,#0x10
   \   000075   40E4         JC        ??halOLEDShowChineseChar16x16_5
    174                  
    175                  halOLED12864SetPosition(page + 1, x);
   \   000077                ; Setup parameters for call to function halOLED12864SetPosition
   \   000077   EE           MOV       A,R6
   \   000078   FA           MOV       R2,A
   \   000079   E5..         MOV       A,?V0
   \   00007B   04           INC       A
   \   00007C   F9           MOV       R1,A
   \   00007D   12....       LCALL     `??halOLED12864SetPosition::?relay`; Banked call to: halOLED12864SetPosition
    176                  for(uint8 j = 0; j < 16; j++)  halLcdSpiTxData( FONT_TABLE_CHINESE_16x16[i].code[j + 16] );
   \   000080   7E00         MOV       R6,#0x0
   \                     ??halOLEDShowChineseChar16x16_6:
   \   000082                ; Setup parameters for call to function halLcdSpiTxData
   \   000082   EE           MOV       A,R6
   \   000083   F8           MOV       R0,A
   \   000084   E5..         MOV       A,?V2
   \   000086   28           ADD       A,R0
   \   000087   F8           MOV       R0,A
   \   000088   E4           CLR       A
   \   000089   35..         ADDC      A,?V3
   \   00008B   F9           MOV       R1,A
   \   00008C   E8           MOV       A,R0
   \   00008D   2412         ADD       A,#0x12
   \   00008F   F582         MOV       DPL,A
   \   000091   E4           CLR       A
   \   000092   39           ADDC      A,R1
   \   000093   F583         MOV       DPH,A
   \   000095   E0           MOVX      A,@DPTR
   \   000096   F9           MOV       R1,A
   \   000097   12....       LCALL     `??halLcdSpiTxData::?relay`; Banked call to: halLcdSpiTxData
   \   00009A   0E           INC       R6
   \   00009B   EE           MOV       A,R6
   \   00009C   C3           CLR       C
   \   00009D   9410         SUBB      A,#0x10
   \   00009F   40E1         JC        ??halOLEDShowChineseChar16x16_6
    177          
    178                  break;
    179              }
    180          }
   \                     ??halOLEDShowChineseChar16x16_4:
   \   0000A1   7F06         MOV       R7,#0x6
   \   0000A3   02....       LJMP      ?BANKED_LEAVE_XDATA

   \                                 In  segment BANKED_CODE, align 1, keep-with-next
   \                     ?Subroutine5:
   \   000000   E0           MOVX      A,@DPTR
   \   000001   28           ADD       A,R0
   \   000002   F8           MOV       R0,A
   \   000003   A3           INC       DPTR
   \   000004   E0           MOVX      A,@DPTR
   \   000005   3400         ADDC      A,#0x0
   \   000007   F9           MOV       R1,A
   \   000008   22           RET

   \                                 In  segment BANK_RELAYS, align 1
   \                     `??halOLED12864Init::?relay`:
   \   000000   12....       LCALL   ?BDISPATCH
   \   000003   ......       DC24    halOLED12864Init

   \                                 In  segment BANK_RELAYS, align 1
   \                     `??halOLED12864ClearScreen::?relay`:
   \   000000   12....       LCALL   ?BDISPATCH
   \   000003   ......       DC24    halOLED12864ClearScreen

   \                                 In  segment BANK_RELAYS, align 1
   \                     `??halOLED12864ShowX16::?relay`:
   \   000000   12....       LCALL   ?BDISPATCH
   \   000003   ......       DC24    halOLED12864ShowX16

   \                                 In  segment BANK_RELAYS, align 1
   \                     `??halOLED12864ShowPicture::?relay`:
   \   000000   12....       LCALL   ?BDISPATCH
   \   000003   ......       DC24    halOLED12864ShowPicture

   \                                 In  segment BANK_RELAYS, align 1
   \                     `??halOLED12864ChipInit::?relay`:
   \   000000   12....       LCALL   ?BDISPATCH
   \   000003   ......       DC24    halOLED12864ChipInit

   \                                 In  segment BANK_RELAYS, align 1
   \                     `??halOLED12864SetPosition::?relay`:
   \   000000   12....       LCALL   ?BDISPATCH
   \   000003   ......       DC24    halOLED12864SetPosition

   \                                 In  segment BANK_RELAYS, align 1
   \                     `??halOLEDShowChineseChar16x16::?relay`:
   \   000000   12....       LCALL   ?BDISPATCH
   \   000003   ......       DC24    halOLEDShowChineseChar16x16

   Maximum stack usage in bytes:

   ISTACK XSTACK Function
   ------ ------ --------
      2      0   halOLED12864ChipInit
        2      0   -> delayMs
        2      0   -> halLcdSpiTxCmd
      0      9   halOLED12864ClearScreen
        0      9   -> halLcdSpiTxCmd
        0      9   -> halLcdSpiTxData
      2      0   halOLED12864Init
        2      0   -> halLcdSpiInit
        2      0   -> halOLED12864ChipInit
        2      0   -> halOLED12864ClearScreen
        2      0   -> halOLED12864SetPosition
      0     30   halOLED12864SetPosition
        0      9   -> halLcdSpiTxCmd
      0     18   halOLED12864ShowPicture
        0     16   -> halLcdSpiTxData
        0     16   -> halOLED12864SetPosition
      1     22   halOLED12864ShowX16
        0     21   -> halLcdSpiTxData
        0     21   -> halOLED12864SetPosition
        0     22   -> halOLEDShowChineseChar16x16
      0     36   halOLEDShowChineseChar16x16
        0     14   -> halLcdSpiTxData
        0     14   -> halOLED12864SetPosition


   Segment part sizes:

   Bytes  Function/Label
   -----  --------------
       7  ?Subroutine0
       5  ?Subroutine1
       5  ?Subroutine2
      12  ?Subroutine3
      12  ?Subroutine4
       9  ?Subroutine5
     272  FontTable_Chinese_V_16X16
    1520  FontTable_V_8X16
       1  _A_P1
     160  halOLED12864ChipInit
       6  halOLED12864ChipInit::?relay
      40  halOLED12864ClearScreen
       6  halOLED12864ClearScreen::?relay
      20  halOLED12864Init
       6  halOLED12864Init::?relay
      36  halOLED12864SetPosition
       6  halOLED12864SetPosition::?relay
     145  halOLED12864ShowPicture
       6  halOLED12864ShowPicture::?relay
     315  halOLED12864ShowX16
       6  halOLED12864ShowX16::?relay
     166  halOLEDShowChineseChar16x16
       6  halOLEDShowChineseChar16x16::?relay

 
   932 bytes in segment BANKED_CODE
    42 bytes in segment BANK_RELAYS
     1 byte  in segment SFR_AN
 1 792 bytes in segment XDATA_ROM_C
 
    42 bytes of CODE     memory
 1 792 bytes of CONST    memory
     0 bytes of DATA     memory (+ 1 byte shared)
   932 bytes of HUGECODE memory

Errors: none
Warnings: none
