///////////////////////////////////////////////////////////////////////////////
//
// IAR C/C++ Compiler V10.10.1.4655 for 8051              22/Nov/2023  15:42:42
// Copyright 2004-2017 IAR Systems AB.
// Standalone license - IAR Embedded Workbench for 8051
//
//    Core               =  plain
//    Code model         =  banked
//    Data model         =  large
//    Calling convention =  xdata reentrant
//    Constant location  =  data_rom
//    Dptr setup         =  1,16
//                          
//    Source file        =  
//        D:\fuzzing-coordinator-response-collection\Components\mac\low_level\srf04\mac_autopend.c
//    Command line       =  
//        -f C:\Users\ADMINI~1\AppData\Local\Temp\EWA303.tmp
//        (D:\fuzzing-coordinator-response-collection\Components\mac\low_level\srf04\mac_autopend.c
//        -D SECURE=1 -D TC_LINKKEY_JOIN -D NV_INIT -D NV_RESTORE -D
//        MULTICAST_ENABLED=FALSE -D ZCL_READ -D ZCL_DISCOVER -D ZCL_WRITE -D
//        ZCL_BASIC -D ZCL_IDENTIFY -D ISR_KEYINTERRUPT -D HAL_UART=TRUE -D
//        HAL_LCD=FALSE -D ZCL_ON_OFF -D INT_HEAP_LEN=2800 -D
//        HAL_UART_DMA_RX_MAX=256 -D HAL_UART_DMA_TX_MAX=256 -lC
//        D:\fuzzing-coordinator-response-collection\Projects\zstack\HomeAutomation\SampleSwitch\CC2530DB\CoordinatorEB\List
//        -lA
//        D:\fuzzing-coordinator-response-collection\Projects\zstack\HomeAutomation\SampleSwitch\CC2530DB\CoordinatorEB\List
//        --diag_suppress Pe001,Pa010 -o
//        D:\fuzzing-coordinator-response-collection\Projects\zstack\HomeAutomation\SampleSwitch\CC2530DB\CoordinatorEB\Obj
//        -e --debug --core=plain --dptr=16,1 --data_model=large
//        --code_model=banked --calling_convention=xdata_reentrant
//        --place_constants=data_rom --nr_virtual_regs 8 -f
//        D:\fuzzing-coordinator-response-collection\Projects\zstack\HomeAutomation\SampleSwitch\CC2530DB\..\..\..\Tools\CC2530DB\f8wCoord.cfg
//        (-DCPU32MHZ -DROOT=__near_func -DMAC_CFG_APP_PENDING_QUEUE=TRUE
//        -DMAC_CFG_TX_DATA_MAX=5 -DMAC_CFG_TX_MAX=8 -DMAC_CFG_RX_MAX=5
//        -DZDO_COORDINATOR -DRTR_NWK) -f
//        D:\fuzzing-coordinator-response-collection\Projects\zstack\HomeAutomation\SampleSwitch\CC2530DB\..\..\..\Tools\CC2530DB\f8wConfig.cfg
//        (-DZIGBEEPRO -DSECURE=1 -DZG_SECURE_DYNAMIC=0 -DREFLECTOR
//        -DDEFAULT_CHANLIST=0x00000800 -DZDAPP_CONFIG_PAN_ID=0xFFFF
//        -DNWK_START_DELAY=100 -DEXTENDED_JOINING_RANDOM_MASK=0x007F
//        -DBEACON_REQUEST_DELAY=100 -DBEACON_REQ_DELAY_MASK=0x00FF
//        -DLINK_STATUS_JITTER_MASK=0x007F -DROUTE_EXPIRY_TIME=30
//        -DAPSC_ACK_WAIT_DURATION_POLLED=3000 -DNWK_INDIRECT_MSG_TIMEOUT=7
//        -DMAX_RREQ_ENTRIES=8 -DAPSC_MAX_FRAME_RETRIES=3
//        -DNWK_MAX_DATA_RETRIES=2 -DMAX_POLL_FAILURE_RETRIES=2 -DMAX_BCAST=9
//        -DAPS_MAX_GROUPS=16 -DMAX_RTG_ENTRIES=40 -DNWK_MAX_BINDING_ENTRIES=4
//        -DMAX_BINDING_CLUSTER_IDS=4 "-DDEFAULT_KEY={0x00, 0x01, 0x02, 0x03,
//        0x04, 0x05, 0x06, 0x07, 0x08, 0x09, 0x0A, 0x0B, 0x0C, 0x0D, 0x0E,
//        0x0F}" -DMAC_MAX_FRAME_SIZE=116 -DZDNWKMGR_MIN_TRANSMISSIONS=20
//        "-DCONST=const __code" -DGENERIC=__generic -DRFD_RCVC_ALWAYS_ON=FALSE
//        -DPOLL_RATE=1000 -DQUEUED_POLL_RATE=100 -DRESPONSE_POLL_RATE=100
//        -DREJOIN_POLL_RATE=440 -DREJOIN_BACKOFF=900000 -DREJOIN_SCAN=900000
//        -DENABLE_LED4_DISABLE_S1) -f
//        D:\fuzzing-coordinator-response-collection\Projects\zstack\HomeAutomation\SampleSwitch\CC2530DB\..\..\..\Tools\CC2530DB\f8wZCL.cfg
//        -I
//        D:\fuzzing-coordinator-response-collection\Projects\zstack\HomeAutomation\SampleSwitch\CC2530DB\
//        -I
//        D:\fuzzing-coordinator-response-collection\Projects\zstack\HomeAutomation\SampleSwitch\CC2530DB\..\Source\
//        -I
//        D:\fuzzing-coordinator-response-collection\Projects\zstack\HomeAutomation\SampleSwitch\CC2530DB\..\..\Source\
//        -I
//        D:\fuzzing-coordinator-response-collection\Projects\zstack\HomeAutomation\SampleSwitch\CC2530DB\..\..\..\ZMain\TI2530DB\
//        -I
//        D:\fuzzing-coordinator-response-collection\Projects\zstack\HomeAutomation\SampleSwitch\CC2530DB\..\..\..\..\..\Components\hal\include\
//        -I
//        D:\fuzzing-coordinator-response-collection\Projects\zstack\HomeAutomation\SampleSwitch\CC2530DB\..\..\..\..\..\Components\hal\target\CC2530EB\
//        -I
//        D:\fuzzing-coordinator-response-collection\Projects\zstack\HomeAutomation\SampleSwitch\CC2530DB\..\..\..\..\..\Components\mac\include\
//        -I
//        D:\fuzzing-coordinator-response-collection\Projects\zstack\HomeAutomation\SampleSwitch\CC2530DB\..\..\..\..\..\Components\mac\high_level\
//        -I
//        D:\fuzzing-coordinator-response-collection\Projects\zstack\HomeAutomation\SampleSwitch\CC2530DB\..\..\..\..\..\Components\mac\low_level\srf04\
//        -I
//        D:\fuzzing-coordinator-response-collection\Projects\zstack\HomeAutomation\SampleSwitch\CC2530DB\..\..\..\..\..\Components\mac\low_level\srf04\single_chip\
//        -I
//        D:\fuzzing-coordinator-response-collection\Projects\zstack\HomeAutomation\SampleSwitch\CC2530DB\..\..\..\..\..\Components\mt\
//        -I
//        D:\fuzzing-coordinator-response-collection\Projects\zstack\HomeAutomation\SampleSwitch\CC2530DB\..\..\..\..\..\Components\osal\include\
//        -I
//        D:\fuzzing-coordinator-response-collection\Projects\zstack\HomeAutomation\SampleSwitch\CC2530DB\..\..\..\..\..\Components\services\saddr\
//        -I
//        D:\fuzzing-coordinator-response-collection\Projects\zstack\HomeAutomation\SampleSwitch\CC2530DB\..\..\..\..\..\Components\services\sdata\
//        -I
//        D:\fuzzing-coordinator-response-collection\Projects\zstack\HomeAutomation\SampleSwitch\CC2530DB\..\..\..\..\..\Components\stack\af\
//        -I
//        D:\fuzzing-coordinator-response-collection\Projects\zstack\HomeAutomation\SampleSwitch\CC2530DB\..\..\..\..\..\Components\stack\bdb\
//        -I
//        D:\fuzzing-coordinator-response-collection\Projects\zstack\HomeAutomation\SampleSwitch\CC2530DB\..\..\..\..\..\Components\stack\gp\
//        -I
//        D:\fuzzing-coordinator-response-collection\Projects\zstack\HomeAutomation\SampleSwitch\CC2530DB\..\..\..\..\..\Components\stack\nwk\
//        -I
//        D:\fuzzing-coordinator-response-collection\Projects\zstack\HomeAutomation\SampleSwitch\CC2530DB\..\..\..\..\..\Components\stack\sapi\
//        -I
//        D:\fuzzing-coordinator-response-collection\Projects\zstack\HomeAutomation\SampleSwitch\CC2530DB\..\..\..\..\..\Components\stack\sec\
//        -I
//        D:\fuzzing-coordinator-response-collection\Projects\zstack\HomeAutomation\SampleSwitch\CC2530DB\..\..\..\..\..\Components\stack\sys\
//        -I
//        D:\fuzzing-coordinator-response-collection\Projects\zstack\HomeAutomation\SampleSwitch\CC2530DB\..\..\..\..\..\Components\stack\zcl\
//        -I
//        D:\fuzzing-coordinator-response-collection\Projects\zstack\HomeAutomation\SampleSwitch\CC2530DB\..\..\..\..\..\Components\stack\zdo\
//        -I
//        D:\fuzzing-coordinator-response-collection\Projects\zstack\HomeAutomation\SampleSwitch\CC2530DB\..\..\..\..\..\Components\zmac\
//        -I
//        D:\fuzzing-coordinator-response-collection\Projects\zstack\HomeAutomation\SampleSwitch\CC2530DB\..\..\..\..\..\Components\zmac\f8w\
//        -I
//        D:\fuzzing-coordinator-response-collection\Projects\zstack\HomeAutomation\SampleSwitch\CC2530DB\..\..\..\..\..\Components\hal\target\CC2530EB\Common\
//        -I
//        D:\fuzzing-coordinator-response-collection\Projects\zstack\HomeAutomation\SampleSwitch\CC2530DB\..\..\..\..\..\Components\hal\target\CC2530EB\SPI\
//        -I
//        D:\fuzzing-coordinator-response-collection\Projects\zstack\HomeAutomation\SampleSwitch\CC2530DB\..\..\..\..\..\Components\hal\target\CC2530EB\HW_LCD\Font\
//        -I
//        D:\fuzzing-coordinator-response-collection\Projects\zstack\HomeAutomation\SampleSwitch\CC2530DB\..\..\..\..\..\Components\hal\target\CC2530EB\HW_LCD\HAL_LCD_SPI\
//        -I
//        D:\fuzzing-coordinator-response-collection\Projects\zstack\HomeAutomation\SampleSwitch\CC2530DB\..\..\..\..\..\Components\hal\target\CC2530EB\HW_LCD\HAL_OLED\
//        -I
//        D:\fuzzing-coordinator-response-collection\Projects\zstack\HomeAutomation\SampleSwitch\CC2530DB\..\..\..\..\..\Components\hal\target\CC2530EB\HW_LCD\HAL_TFT\
//        -Ohz --require_prototypes)
//    Locale             =  Chinese (Simplified)_China.936
//    List file          =  
//        D:\fuzzing-coordinator-response-collection\Projects\zstack\HomeAutomation\SampleSwitch\CC2530DB\CoordinatorEB\List\mac_autopend.s51
//
///////////////////////////////////////////////////////////////////////////////

        NAME mac_autopend

        RTMODEL "__SystemLibrary", "CLib"
        RTMODEL "__calling_convention", "xdata_reentrant"
        RTMODEL "__code_model", "banked"
        RTMODEL "__core", "plain"
        RTMODEL "__data_model", "large"
        RTMODEL "__dptr_size", "16"
        RTMODEL "__extended_stack", "disabled"
        RTMODEL "__location_for_constants", "data"
        RTMODEL "__number_of_dptrs", "1"
        RTMODEL "__register_banks", "*"
        RTMODEL "__rt_version", "1"

        RSEG DOVERLAY:DATA:NOROOT(0)
        RSEG IOVERLAY:IDATA:NOROOT(0)
        RSEG ISTACK:IDATA:NOROOT(0)
        RSEG PSTACK:XDATA:NOROOT(0)
        RSEG XSTACK:XDATA:NOROOT(0)

        EXTERN ?V0
        EXTERN ?V1
        EXTERN ?V2
        EXTERN ?V3
        EXTERN ?V4
        EXTERN ?V5
        EXTERN ?V6
        EXTERN ?V7
        EXTERN ?ALLOC_XSTACK8
        EXTERN ?BANKED_ENTER_XDATA
        EXTERN ?BANKED_LEAVE_XDATA
        EXTERN ?BDISPATCH
        EXTERN ?BRET
        EXTERN ?DEALLOC_XSTACK8
        EXTERN ?L_AND
        EXTERN ?L_AND_X
        EXTERN ?L_IOR
        EXTERN ?L_IOR_X
        EXTERN ?L_MOV_TO_X
        EXTERN ?L_MOV_X
        EXTERN ?L_NOT
        EXTERN ?L_SHL
        EXTERN ?PUSH_XSTACK_I_FOUR
        EXTERN ?PUSH_XSTACK_I_THREE
        EXTERN ?S_SHL
        EXTERN ?UL_SHR
        EXTERN ?XSP
        EXTERN ?XSTACK_DISP0_8
        EXTERN ?XSTACK_DISP100_8
        EXTERN ?XSTACK_DISP101_8
        EXTERN ?XSTACK_DISP102_8
        EXTERN ?XSTORE_R0123
        EXTERN __INIT_XDATA_Z

        PUBLIC `??MAC_SrcMatchAckAllPending::?relay`
        FUNCTION `??MAC_SrcMatchAckAllPending::?relay`,0203H
        PUBLIC `??MAC_SrcMatchAddEntry::?relay`
        FUNCTION `??MAC_SrcMatchAddEntry::?relay`,0203H
        PUBLIC `??MAC_SrcMatchCheckAllPending::?relay`
        FUNCTION `??MAC_SrcMatchCheckAllPending::?relay`,0203H
        PUBLIC `??MAC_SrcMatchCheckResult::?relay`
        FUNCTION `??MAC_SrcMatchCheckResult::?relay`,0203H
        PUBLIC `??MAC_SrcMatchDeleteEntry::?relay`
        FUNCTION `??MAC_SrcMatchDeleteEntry::?relay`,0203H
        PUBLIC `??MAC_SrcMatchEnable::?relay`
        FUNCTION `??MAC_SrcMatchEnable::?relay`,0203H
        FUNCTION `??macSrcMatchCheckSrcAddr::?relay`,0203H
        FUNCTION `??macSrcMatchGetExtAddrEnableBit::?relay`,0203H
        FUNCTION `??macSrcMatchGetShortAddrEnableBit::?relay`,0203H
        FUNCTION `??macSrcMatchSetEnableBit::?relay`,0203H
        PUBLIC MAC_SrcMatchAckAllPending
        FUNCTION MAC_SrcMatchAckAllPending,0203H
        ARGFRAME XSTACK, 0, STACK
        LOCFRAME ISTACK, 2, STACK
        PUBLIC MAC_SrcMatchAddEntry
        FUNCTION MAC_SrcMatchAddEntry,0a1203H
        ARGFRAME XSTACK, 0, STACK
        LOCFRAME ISTACK, 2, STACK
        LOCFRAME XSTACK, 43, STACK
        PUBLIC MAC_SrcMatchCheckAllPending
        FUNCTION MAC_SrcMatchCheckAllPending,0203H
        ARGFRAME XSTACK, 0, STACK
        LOCFRAME ISTACK, 2, STACK
        PUBLIC MAC_SrcMatchCheckResult
        FUNCTION MAC_SrcMatchCheckResult,0203H
        ARGFRAME XSTACK, 0, STACK
        LOCFRAME ISTACK, 2, STACK
        PUBLIC MAC_SrcMatchDeleteEntry
        FUNCTION MAC_SrcMatchDeleteEntry,021203H
        ARGFRAME XSTACK, 0, STACK
        LOCFRAME XSTACK, 9, STACK
        PUBLIC MAC_SrcMatchEnable
        FUNCTION MAC_SrcMatchEnable,0203H
        ARGFRAME XSTACK, 0, STACK
        LOCFRAME ISTACK, 2, STACK
        FUNCTION macSrcMatchCheckSrcAddr,0a1203H
        ARGFRAME XSTACK, 39, STACK
        ARGFRAME IOVERLAY, 0, STATIC
        ARGFRAME DOVERLAY, 0, STATIC
        LOCFRAME ISTACK, 1, STACK
        LOCFRAME XSTACK, 34, STACK
        FUNCTION macSrcMatchGetExtAddrEnableBit,021203H
        ARGFRAME XSTACK, 39, STACK
        ARGFRAME IOVERLAY, 0, STATIC
        ARGFRAME DOVERLAY, 0, STATIC
        LOCFRAME ISTACK, 2, STACK
        LOCFRAME XSTACK, 3, STACK
        FUNCTION macSrcMatchGetShortAddrEnableBit,021203H
        ARGFRAME XSTACK, 39, STACK
        ARGFRAME IOVERLAY, 0, STATIC
        ARGFRAME DOVERLAY, 0, STATIC
        LOCFRAME ISTACK, 2, STACK
        LOCFRAME XSTACK, 3, STACK
        PUBLIC macSrcMatchIsAckAllPending
        PUBLIC macSrcMatchIsEnabled
        FUNCTION macSrcMatchSetEnableBit,0a1203H
        ARGFRAME XSTACK, 39, STACK
        ARGFRAME IOVERLAY, 0, STATIC
        ARGFRAME DOVERLAY, 0, STATIC
        LOCFRAME ISTACK, 1, STACK
        LOCFRAME XSTACK, 21, STACK
        
          CFI Names cfiNames0
          CFI StackFrame CFA_SP SP IDATA
          CFI StackFrame CFA_PSP16 PSP16 XDATA
          CFI StackFrame CFA_XSP16 XSP16 XDATA
          CFI StaticOverlayFrame CFA_IOVERLAY IOVERLAY
          CFI StaticOverlayFrame CFA_DOVERLAY DOVERLAY
          CFI Resource `PSW.CY`:1, `B.BR0`:1, `B.BR1`:1, `B.BR2`:1, `B.BR3`:1
          CFI Resource `B.BR4`:1, `B.BR5`:1, `B.BR6`:1, `B.BR7`:1, `VB.BR8`:1
          CFI Resource `VB.BR9`:1, `VB.BR10`:1, `VB.BR11`:1, `VB.BR12`:1
          CFI Resource `VB.BR13`:1, `VB.BR14`:1, `VB.BR15`:1, VB:8, B:8, A:8
          CFI Resource PSW:8, DPL0:8, DPH0:8, R0:8, R1:8, R2:8, R3:8, R4:8, R5:8
          CFI Resource R6:8, R7:8, V0:8, V1:8, V2:8, V3:8, V4:8, V5:8, V6:8, V7:8
          CFI Resource SP:8, PSPH:8, PSPL:8, PSP16:16, XSPH:8, XSPL:8, XSP16:16
          CFI VirtualResource ?RET:24
          CFI Resource ?BRET_EXT:8
          CFI VirtualResource ?RET_HIGH:8, ?RET_LOW:8
          CFI ResourceParts PSP16 PSPH, PSPL
          CFI ResourceParts XSP16 XSPH, XSPL
          CFI ResourceParts ?RET ?BRET_EXT, ?RET_HIGH, ?RET_LOW
          CFI EndNames cfiNames0
        
          CFI Common cfiCommon0 Using cfiNames0
          CFI CodeAlign 1
          CFI DataAlign -1
          CFI ReturnAddress ?RET CODE
          CFI CFA_DOVERLAY Used
          CFI CFA_IOVERLAY Used
          CFI CFA_SP SP+-3
          CFI CFA_PSP16 PSP16+0
          CFI CFA_XSP16 XSP16+0
          CFI `PSW.CY` SameValue
          CFI `B.BR0` SameValue
          CFI `B.BR1` SameValue
          CFI `B.BR2` SameValue
          CFI `B.BR3` SameValue
          CFI `B.BR4` SameValue
          CFI `B.BR5` SameValue
          CFI `B.BR6` SameValue
          CFI `B.BR7` SameValue
          CFI `VB.BR8` SameValue
          CFI `VB.BR9` SameValue
          CFI `VB.BR10` SameValue
          CFI `VB.BR11` SameValue
          CFI `VB.BR12` SameValue
          CFI `VB.BR13` SameValue
          CFI `VB.BR14` SameValue
          CFI `VB.BR15` SameValue
          CFI VB SameValue
          CFI B Undefined
          CFI A Undefined
          CFI PSW SameValue
          CFI DPL0 SameValue
          CFI DPH0 SameValue
          CFI R0 Undefined
          CFI R1 Undefined
          CFI R2 Undefined
          CFI R3 Undefined
          CFI R4 Undefined
          CFI R5 Undefined
          CFI R6 SameValue
          CFI R7 SameValue
          CFI V0 SameValue
          CFI V1 SameValue
          CFI V2 SameValue
          CFI V3 SameValue
          CFI V4 SameValue
          CFI V5 SameValue
          CFI V6 SameValue
          CFI V7 SameValue
          CFI PSPH Undefined
          CFI PSPL Undefined
          CFI XSPH Undefined
          CFI XSPL Undefined
          CFI ?RET Concat
          CFI ?BRET_EXT Frame(CFA_SP, 3)
          CFI ?RET_HIGH Frame(CFA_SP, 2)
          CFI ?RET_LOW Frame(CFA_SP, 1)
          CFI EndCommon cfiCommon0
        
        
          CFI Common cfiCommon1 Using cfiNames0
          CFI CodeAlign 1
          CFI DataAlign -1
          CFI ReturnAddress ?RET CODE
          CFI CFA_DOVERLAY Used
          CFI CFA_IOVERLAY Used
          CFI CFA_SP SP+-2
          CFI CFA_PSP16 PSP16+0
          CFI CFA_XSP16 XSP16+0
          CFI `PSW.CY` SameValue
          CFI `B.BR0` SameValue
          CFI `B.BR1` SameValue
          CFI `B.BR2` SameValue
          CFI `B.BR3` SameValue
          CFI `B.BR4` SameValue
          CFI `B.BR5` SameValue
          CFI `B.BR6` SameValue
          CFI `B.BR7` SameValue
          CFI `VB.BR8` SameValue
          CFI `VB.BR9` SameValue
          CFI `VB.BR10` SameValue
          CFI `VB.BR11` SameValue
          CFI `VB.BR12` SameValue
          CFI `VB.BR13` SameValue
          CFI `VB.BR14` SameValue
          CFI `VB.BR15` SameValue
          CFI VB SameValue
          CFI B SameValue
          CFI A SameValue
          CFI PSW SameValue
          CFI DPL0 SameValue
          CFI DPH0 SameValue
          CFI R0 SameValue
          CFI R1 SameValue
          CFI R2 SameValue
          CFI R3 SameValue
          CFI R4 SameValue
          CFI R5 SameValue
          CFI R6 SameValue
          CFI R7 SameValue
          CFI V0 SameValue
          CFI V1 SameValue
          CFI V2 SameValue
          CFI V3 SameValue
          CFI V4 SameValue
          CFI V5 SameValue
          CFI V6 SameValue
          CFI V7 SameValue
          CFI PSPH Undefined
          CFI PSPL Undefined
          CFI XSPH Undefined
          CFI XSPL Undefined
          CFI ?RET Concat
          CFI ?BRET_EXT SameValue
          CFI ?RET_HIGH Frame(CFA_SP, 2)
          CFI ?RET_LOW Frame(CFA_SP, 1)
          CFI EndCommon cfiCommon1
        
macMemReadRam       SYMBOL "macMemReadRam"
`??macMemReadRam::?relay` SYMBOL "?relay", macMemReadRam
macMemWriteRam      SYMBOL "macMemWriteRam"
`??macMemWriteRam::?relay` SYMBOL "?relay", macMemWriteRam
osal_buffer_uint24  SYMBOL "osal_buffer_uint24"
`??osal_buffer_uint24::?relay` SYMBOL "?relay", osal_buffer_uint24
osal_build_uint32   SYMBOL "osal_build_uint32"
`??osal_build_uint32::?relay` SYMBOL "?relay", osal_build_uint32
osal_memcmp         SYMBOL "osal_memcmp"
`??osal_memcmp::?relay` SYMBOL "?relay", osal_memcmp
MAC_SrcMatchAckAllPending SYMBOL "MAC_SrcMatchAckAllPending"
`??MAC_SrcMatchAckAllPending::?relay` SYMBOL "?relay", MAC_SrcMatchAckAllPending
MAC_SrcMatchAddEntry SYMBOL "MAC_SrcMatchAddEntry"
`??MAC_SrcMatchAddEntry::?relay` SYMBOL "?relay", MAC_SrcMatchAddEntry
MAC_SrcMatchCheckAllPending SYMBOL "MAC_SrcMatchCheckAllPending"
`??MAC_SrcMatchCheckAllPending::?relay` SYMBOL "?relay", MAC_SrcMatchCheckAllPending
MAC_SrcMatchCheckResult SYMBOL "MAC_SrcMatchCheckResult"
`??MAC_SrcMatchCheckResult::?relay` SYMBOL "?relay", MAC_SrcMatchCheckResult
MAC_SrcMatchDeleteEntry SYMBOL "MAC_SrcMatchDeleteEntry"
`??MAC_SrcMatchDeleteEntry::?relay` SYMBOL "?relay", MAC_SrcMatchDeleteEntry
MAC_SrcMatchEnable  SYMBOL "MAC_SrcMatchEnable"
`??MAC_SrcMatchEnable::?relay` SYMBOL "?relay", MAC_SrcMatchEnable

        EXTERN `??macMemReadRam::?relay`
        FUNCTION `??macMemReadRam::?relay`,00H
        EXTERN `??macMemWriteRam::?relay`
        FUNCTION `??macMemWriteRam::?relay`,00H
        EXTERN `??osal_buffer_uint24::?relay`
        FUNCTION `??osal_buffer_uint24::?relay`,00H
        EXTERN `??osal_build_uint32::?relay`
        FUNCTION `??osal_build_uint32::?relay`,00H
        EXTERN `??osal_memcmp::?relay`
        FUNCTION `??osal_memcmp::?relay`,00H
        EXTERN macMemReadRam
        FUNCTION macMemReadRam,0202H
        ARGFRAME ISTACK, 2, STACK
        ARGFRAME PSTACK, 0, STACK
        ARGFRAME XSTACK, 39, STACK
        ARGFRAME IOVERLAY, 0, STATIC
        ARGFRAME DOVERLAY, 0, STATIC
        EXTERN macMemWriteRam
        FUNCTION macMemWriteRam,0202H
        ARGFRAME ISTACK, 0, STACK
        ARGFRAME PSTACK, 0, STACK
        ARGFRAME XSTACK, 39, STACK
        ARGFRAME IOVERLAY, 0, STATIC
        ARGFRAME DOVERLAY, 0, STATIC
        EXTERN osal_buffer_uint24
        FUNCTION osal_buffer_uint24,0202H
        ARGFRAME ISTACK, 0, STACK
        ARGFRAME PSTACK, 0, STACK
        ARGFRAME XSTACK, 43, STACK
        ARGFRAME IOVERLAY, 0, STATIC
        ARGFRAME DOVERLAY, 0, STATIC
        EXTERN osal_build_uint32
        FUNCTION osal_build_uint32,0202H
        ARGFRAME ISTACK, 2, STACK
        ARGFRAME PSTACK, 0, STACK
        ARGFRAME XSTACK, 39, STACK
        ARGFRAME IOVERLAY, 0, STATIC
        ARGFRAME DOVERLAY, 0, STATIC
        EXTERN osal_memcmp
        FUNCTION osal_memcmp,0202H
        ARGFRAME ISTACK, 0, STACK
        ARGFRAME PSTACK, 0, STACK
        ARGFRAME XSTACK, 34, STACK
        ARGFRAME IOVERLAY, 0, STATIC
        ARGFRAME DOVERLAY, 0, STATIC

// D:\fuzzing-coordinator-response-collection\Components\mac\low_level\srf04\mac_autopend.c
//    1 /**************************************************************************************************
//    2   Filename:       mac_autopend.c
//    3   Revised:        $Date: 2014-05-29 13:33:32 -0700 (Thu, 29 May 2014) $
//    4   Revision:       $Revision: 38710 $
//    5 
//    6   Description:    This file implements the TIMAC Autopend feature.
//    7 
//    8 
//    9   Copyright 2006-2014 Texas Instruments Incorporated. All rights reserved.
//   10 
//   11   IMPORTANT: Your use of this Software is limited to those specific rights
//   12   granted under the terms of a software license agreement between the user
//   13   who downloaded the software, his/her employer (which must be your employer)
//   14   and Texas Instruments Incorporated (the "License").  You may not use this
//   15   Software unless you agree to abide by the terms of the License. The License
//   16   limits your use, and you acknowledge, that the Software may not be modified,
//   17   copied or distributed unless embedded on a Texas Instruments microcontroller
//   18   or used solely and exclusively in conjunction with a Texas Instruments radio
//   19   frequency transceiver, which is integrated into your product.  Other than for
//   20   the foregoing purpose, you may not use, reproduce, copy, prepare derivative
//   21   works of, modify, distribute, perform, display or sell this Software and/or
//   22   its documentation for any purpose.
//   23 
//   24   YOU FURTHER ACKNOWLEDGE AND AGREE THAT THE SOFTWARE AND DOCUMENTATION ARE
//   25   PROVIDED “AS IS” WITHOUT WARRANTY OF ANY KIND, EITHER EXPRESS OR IMPLIED,
//   26   INCLUDING WITHOUT LIMITATION, ANY WARRANTY OF MERCHANTABILITY, TITLE,
//   27   NON-INFRINGEMENT AND FITNESS FOR A PARTICULAR PURPOSE. IN NO EVENT SHALL
//   28   TEXAS INSTRUMENTS OR ITS LICENSORS BE LIABLE OR OBLIGATED UNDER CONTRACT,
//   29   NEGLIGENCE, STRICT LIABILITY, CONTRIBUTION, BREACH OF WARRANTY, OR OTHER
//   30   LEGAL EQUITABLE THEORY ANY DIRECT OR INDIRECT DAMAGES OR EXPENSES
//   31   INCLUDING BUT NOT LIMITED TO ANY INCIDENTAL, SPECIAL, INDIRECT, PUNITIVE
//   32   OR CONSEQUENTIAL DAMAGES, LOST PROFITS OR LOST DATA, COST OF PROCUREMENT
//   33   OF SUBSTITUTE GOODS, TECHNOLOGY, SERVICES, OR ANY CLAIMS BY THIRD PARTIES
//   34   (INCLUDING BUT NOT LIMITED TO ANY DEFENSE THEREOF), OR OTHER SIMILAR COSTS.
//   35 
//   36   Should you have any questions regarding your right to use this Software,
//   37   contact Texas Instruments Incorporated at www.TI.com.
//   38 **************************************************************************************************/
//   39 
//   40 /* low-level */
//   41 #include "mac_api.h"
//   42 #include "mac_radio_defs.h"
//   43 
//   44 /* osal */
//   45 #include "OSAL.h"
//   46 #include "saddr.h"
//   47 #include "ZComDef.h"
//   48 
//   49 #include "mac_autopend.h"
//   50 
//   51 /* ------------------------------------------------------------------------------------------------
//   52  *                                           Defines
//   53  * ------------------------------------------------------------------------------------------------
//   54  */
//   55 #define MAC_SRCMATCH_INVALID_INDEX           0xFF
//   56 
//   57 #define MAC_SRCMATCH_SHORT_ENTRY_SIZE        4
//   58 #define MAC_SRCMATCH_EXT_ENTRY_SIZE          Z_EXTADDR_LEN
//   59 
//   60 #define MAC_SRCMATCH_SHORT_MAX_NUM_ENTRIES   24
//   61 #define MAC_SRCMATCH_EXT_MAX_NUM_ENTRIES     12
//   62 
//   63 #define MAC_SRCMATCH_ENABLE_BITMAP_LEN       3
//   64 
//   65 #define EXT_ADDR_INDEX_SIZE                  2
//   66 #define SHORT_ADDR_INDEX_SIZE                1
//   67           
//   68 /* ------------------------------------------------------------------------------------------------
//   69  *                                      Global Variables
//   70  * ------------------------------------------------------------------------------------------------
//   71  */

        RSEG XDATA_Z:XDATA:NOROOT(0)
        DATA8
//   72 bool macSrcMatchIsEnabled = FALSE; 
macSrcMatchIsEnabled:
        DS 1
        REQUIRE __INIT_XDATA_Z
//   73 
//   74 /* ------------------------------------------------------------------------------------------------
//   75  *                                         Local Variables
//   76  * ------------------------------------------------------------------------------------------------
//   77  */
//   78 
//   79 /* 
//   80  The following local Varables are only set in MAC_SrcMatchEnable()  
//   81  They are read only to the rest of the module.
//   82  */

        RSEG XDATA_Z:XDATA:NOROOT(0)
        DATA8
//   83 bool macSrcMatchIsAckAllPending = FALSE;
macSrcMatchIsAckAllPending:
        DS 1
        REQUIRE __INIT_XDATA_Z
//   84 
//   85 /* ------------------------------------------------------------------------------------------------
//   86  *                                         Local Functions
//   87  * ------------------------------------------------------------------------------------------------
//   88  */
//   89 static uint8 macSrcMatchFindEmptyEntry( uint8 macSrcMatchAddrMode );
//   90 static uint8 macSrcMatchCheckSrcAddr ( sAddr_t *addr, uint16 panID  );
//   91 static void macSrcMatchSetPendEnBit( uint8 index, uint8 macSrcMatchAddrMode );
//   92 static void macSrcMatchSetEnableBit( uint8 index, bool option, uint8 macSrcMatchAddrMode );
//   93 static bool macSrcMatchCheckEnableBit( uint8 index, uint24 enable );
//   94 static uint24 macSrcMatchGetShortAddrPendEnBit( void );
//   95 static uint24 macSrcMatchGetExtAddrPendEnBit( void );
//   96 static uint24 macSrcMatchGetShortAddrEnableBit( void );
//   97 static uint24 macSrcMatchGetExtAddrEnableBit( void );
//   98 
//   99 /*********************************************************************
//  100  * @fn          MAC_SrcMatchEnable
//  101  *
//  102  * @brief      Enabled AUTOPEND and source address matching. 
//  103  *             This function shall be not be called from 
//  104  *             ISR. It is not thread safe.
//  105  *
//  106  * @param     none 
//  107  *
//  108  * @return     none
//  109  */

        RSEG BANKED_CODE:HUGECODE:NOROOT(0)
//  110 void MAC_SrcMatchEnable (void)
MAC_SrcMatchEnable:
          CFI Block cfiBlock0 Using cfiCommon0
          CFI Function MAC_SrcMatchEnable
        CODE
//  111 {
        PUSH      DPL
          CFI DPL0 Frame(CFA_SP, 4)
          CFI CFA_SP SP+-4
        PUSH      DPH
          CFI DPH0 Frame(CFA_SP, 5)
          CFI CFA_SP SP+-5
        ; Saved register size: 2
        ; Auto size: 0
//  112   /* Turn on Frame Filter (TIMAC enables frame filter by default), TBD */
//  113   MAC_RADIO_TURN_ON_RX_FRAME_FILTERING();
        MOV       DPTR,#0x6180
        CLR       A
        MOVX      @DPTR,A
        MOVX      A,@DPTR
        ORL       A,#0x9
        MOVX      @DPTR,A
//  114   
//  115   /* Turn on Auto ACK (TIMAC turn on Auto ACK by default), TBD */
//  116   MAC_RADIO_TURN_ON_AUTO_ACK();
        MOV       DPTR,#0x6189
        MOVX      A,@DPTR
        SETB      0xE0 /* A   */.5
        MOVX      @DPTR,A
//  117   
//  118   /* Turn on Autopend: set SRCMATCH.AUTOPEND and SRCMATCH.SRC_MATCH_EN */
//  119   MAC_RADIO_TURN_ON_SRC_MATCH();
        MOV       DPTR,#0x6182
        MOVX      A,@DPTR
        SETB      0xE0 /* A   */.0
        MOVX      @DPTR,A
//  120  
//  121   /* Set SRCMATCH.AUTOPEND */
//  122   MAC_RADIO_TURN_ON_AUTOPEND();
        MOVX      A,@DPTR
        SETB      0xE0 /* A   */.1
        MOVX      @DPTR,A
//  123   
//  124   /* AUTOPEND function requires that the received 
//  125    * frame is a DATA REQUEST MAC command frame
//  126    */
//  127   MAC_RADIO_TURN_ON_AUTOPEND_DATAREQ_ONLY();
        MOVX      A,@DPTR
        SETB      0xE0 /* A   */.2
        MOVX      @DPTR,A
//  128   
//  129   /* Configure all the globals */
//  130   macSrcMatchIsEnabled = TRUE;           
        MOV       DPTR,#macSrcMatchIsEnabled
        MOV       A,#0x1
        MOVX      @DPTR,A
//  131 }
        LJMP      ??Subroutine7_0 & 0xFFFF
          CFI EndBlock cfiBlock0
//  132 
//  133 /*********************************************************************
//  134  * @fn          MAC_SrcMatchAddEntry
//  135  *
//  136  * @brief       Add a short or extended address to source address table. This 
//  137  *              function shall be not be called from ISR. It is not thread safe.
//  138  *
//  139  * @param       addr  - a pointer to sAddr_t which contains addrMode 
//  140  *                      and a union of a short 16-bit MAC address or an extended 
//  141  *                      64-bit MAC address to be added to the source address 
//  142 *                       table. 
//  143  * @param       panID - the device PAN ID. It is only used when the addr is 
//  144  *                      using short address 
//  145 
//  146  * @return      MAC_SUCCESS or MAC_NO_RESOURCES (source address table full) 
//  147  *              or MAC_DUPLICATED_ENTRY (the entry added is duplicated),
//  148  *              or MAC_INVALID_PARAMETER if the input parameters are invalid.
//  149  */

        RSEG BANKED_CODE:HUGECODE:NOROOT(0)
//  150 uint8 MAC_SrcMatchAddEntry ( sAddr_t *addr, uint16 panID )
MAC_SrcMatchAddEntry:
          CFI Block cfiBlock1 Using cfiCommon0
          CFI Function MAC_SrcMatchAddEntry
        CODE
//  151 {
        FUNCALL MAC_SrcMatchAddEntry, macSrcMatchCheckSrcAddr
        LOCFRAME ISTACK, 0, STACK
        LOCFRAME PSTACK, 0, STACK
        LOCFRAME XSTACK, 39, STACK
        LOCFRAME IOVERLAY, 0, STATIC
        LOCFRAME DOVERLAY, 0, STATIC
        ARGFRAME ISTACK, 0, STACK
        ARGFRAME PSTACK, 0, STACK
        ARGFRAME XSTACK, 39, STACK
        ARGFRAME IOVERLAY, 0, STATIC
        ARGFRAME DOVERLAY, 0, STATIC
        FUNCALL MAC_SrcMatchAddEntry, macSrcMatchGetShortAddrEnableBit
        LOCFRAME ISTACK, 0, STACK
        LOCFRAME PSTACK, 0, STACK
        LOCFRAME XSTACK, 39, STACK
        LOCFRAME IOVERLAY, 0, STATIC
        LOCFRAME DOVERLAY, 0, STATIC
        ARGFRAME ISTACK, 0, STACK
        ARGFRAME PSTACK, 0, STACK
        ARGFRAME XSTACK, 39, STACK
        ARGFRAME IOVERLAY, 0, STATIC
        ARGFRAME DOVERLAY, 0, STATIC
        FUNCALL MAC_SrcMatchAddEntry, macSrcMatchGetExtAddrEnableBit
        LOCFRAME ISTACK, 0, STACK
        LOCFRAME PSTACK, 0, STACK
        LOCFRAME XSTACK, 39, STACK
        LOCFRAME IOVERLAY, 0, STATIC
        LOCFRAME DOVERLAY, 0, STATIC
        ARGFRAME ISTACK, 0, STACK
        ARGFRAME PSTACK, 0, STACK
        ARGFRAME XSTACK, 39, STACK
        ARGFRAME IOVERLAY, 0, STATIC
        ARGFRAME DOVERLAY, 0, STATIC
        FUNCALL MAC_SrcMatchAddEntry, macMemWriteRam
        LOCFRAME ISTACK, 0, STACK
        LOCFRAME PSTACK, 0, STACK
        LOCFRAME XSTACK, 39, STACK
        LOCFRAME IOVERLAY, 0, STATIC
        LOCFRAME DOVERLAY, 0, STATIC
        ARGFRAME ISTACK, 0, STACK
        ARGFRAME PSTACK, 0, STACK
        ARGFRAME XSTACK, 39, STACK
        ARGFRAME IOVERLAY, 0, STATIC
        ARGFRAME DOVERLAY, 0, STATIC
        FUNCALL MAC_SrcMatchAddEntry, macMemWriteRam
        LOCFRAME ISTACK, 0, STACK
        LOCFRAME PSTACK, 0, STACK
        LOCFRAME XSTACK, 39, STACK
        LOCFRAME IOVERLAY, 0, STATIC
        LOCFRAME DOVERLAY, 0, STATIC
        ARGFRAME ISTACK, 0, STACK
        ARGFRAME PSTACK, 0, STACK
        ARGFRAME XSTACK, 39, STACK
        ARGFRAME IOVERLAY, 0, STATIC
        ARGFRAME DOVERLAY, 0, STATIC
        FUNCALL MAC_SrcMatchAddEntry, macMemReadRam
        LOCFRAME ISTACK, 0, STACK
        LOCFRAME PSTACK, 0, STACK
        LOCFRAME XSTACK, 39, STACK
        LOCFRAME IOVERLAY, 0, STATIC
        LOCFRAME DOVERLAY, 0, STATIC
        ARGFRAME ISTACK, 0, STACK
        ARGFRAME PSTACK, 0, STACK
        ARGFRAME XSTACK, 39, STACK
        ARGFRAME IOVERLAY, 0, STATIC
        ARGFRAME DOVERLAY, 0, STATIC
        FUNCALL MAC_SrcMatchAddEntry, osal_build_uint32
        LOCFRAME ISTACK, 0, STACK
        LOCFRAME PSTACK, 0, STACK
        LOCFRAME XSTACK, 39, STACK
        LOCFRAME IOVERLAY, 0, STATIC
        LOCFRAME DOVERLAY, 0, STATIC
        ARGFRAME ISTACK, 0, STACK
        ARGFRAME PSTACK, 0, STACK
        ARGFRAME XSTACK, 39, STACK
        ARGFRAME IOVERLAY, 0, STATIC
        ARGFRAME DOVERLAY, 0, STATIC
        FUNCALL MAC_SrcMatchAddEntry, osal_buffer_uint24
        LOCFRAME ISTACK, 0, STACK
        LOCFRAME PSTACK, 0, STACK
        LOCFRAME XSTACK, 43, STACK
        LOCFRAME IOVERLAY, 0, STATIC
        LOCFRAME DOVERLAY, 0, STATIC
        ARGFRAME ISTACK, 0, STACK
        ARGFRAME PSTACK, 0, STACK
        ARGFRAME XSTACK, 43, STACK
        ARGFRAME IOVERLAY, 0, STATIC
        ARGFRAME DOVERLAY, 0, STATIC
        FUNCALL MAC_SrcMatchAddEntry, macMemWriteRam
        LOCFRAME ISTACK, 0, STACK
        LOCFRAME PSTACK, 0, STACK
        LOCFRAME XSTACK, 39, STACK
        LOCFRAME IOVERLAY, 0, STATIC
        LOCFRAME DOVERLAY, 0, STATIC
        ARGFRAME ISTACK, 0, STACK
        ARGFRAME PSTACK, 0, STACK
        ARGFRAME XSTACK, 39, STACK
        ARGFRAME IOVERLAY, 0, STATIC
        ARGFRAME DOVERLAY, 0, STATIC
        FUNCALL MAC_SrcMatchAddEntry, macMemReadRam
        LOCFRAME ISTACK, 0, STACK
        LOCFRAME PSTACK, 0, STACK
        LOCFRAME XSTACK, 39, STACK
        LOCFRAME IOVERLAY, 0, STATIC
        LOCFRAME DOVERLAY, 0, STATIC
        ARGFRAME ISTACK, 0, STACK
        ARGFRAME PSTACK, 0, STACK
        ARGFRAME XSTACK, 39, STACK
        ARGFRAME IOVERLAY, 0, STATIC
        ARGFRAME DOVERLAY, 0, STATIC
        FUNCALL MAC_SrcMatchAddEntry, osal_build_uint32
        LOCFRAME ISTACK, 0, STACK
        LOCFRAME PSTACK, 0, STACK
        LOCFRAME XSTACK, 39, STACK
        LOCFRAME IOVERLAY, 0, STATIC
        LOCFRAME DOVERLAY, 0, STATIC
        ARGFRAME ISTACK, 0, STACK
        ARGFRAME PSTACK, 0, STACK
        ARGFRAME XSTACK, 39, STACK
        ARGFRAME IOVERLAY, 0, STATIC
        ARGFRAME DOVERLAY, 0, STATIC
        FUNCALL MAC_SrcMatchAddEntry, osal_buffer_uint24
        LOCFRAME ISTACK, 0, STACK
        LOCFRAME PSTACK, 0, STACK
        LOCFRAME XSTACK, 43, STACK
        LOCFRAME IOVERLAY, 0, STATIC
        LOCFRAME DOVERLAY, 0, STATIC
        ARGFRAME ISTACK, 0, STACK
        ARGFRAME PSTACK, 0, STACK
        ARGFRAME XSTACK, 43, STACK
        ARGFRAME IOVERLAY, 0, STATIC
        ARGFRAME DOVERLAY, 0, STATIC
        FUNCALL MAC_SrcMatchAddEntry, macMemWriteRam
        LOCFRAME ISTACK, 0, STACK
        LOCFRAME PSTACK, 0, STACK
        LOCFRAME XSTACK, 39, STACK
        LOCFRAME IOVERLAY, 0, STATIC
        LOCFRAME DOVERLAY, 0, STATIC
        ARGFRAME ISTACK, 0, STACK
        ARGFRAME PSTACK, 0, STACK
        ARGFRAME XSTACK, 39, STACK
        ARGFRAME IOVERLAY, 0, STATIC
        ARGFRAME DOVERLAY, 0, STATIC
        FUNCALL MAC_SrcMatchAddEntry, macSrcMatchSetEnableBit
        LOCFRAME ISTACK, 0, STACK
        LOCFRAME PSTACK, 0, STACK
        LOCFRAME XSTACK, 39, STACK
        LOCFRAME IOVERLAY, 0, STATIC
        LOCFRAME DOVERLAY, 0, STATIC
        ARGFRAME ISTACK, 0, STACK
        ARGFRAME PSTACK, 0, STACK
        ARGFRAME XSTACK, 39, STACK
        ARGFRAME IOVERLAY, 0, STATIC
        ARGFRAME DOVERLAY, 0, STATIC
        REQUIRE ?V0
        REQUIRE ?V1
        REQUIRE ?V2
        REQUIRE ?V3
        REQUIRE ?V4
        REQUIRE ?V5
        REQUIRE ?V6
        REQUIRE ?V7
        MOV       A,#-0x10
        LCALL     ?BANKED_ENTER_XDATA
          CFI DPH0 load(1, XDATA, add(CFA_XSP16, literal(-1)))
          CFI DPL0 load(1, XDATA, add(CFA_XSP16, literal(-2)))
          CFI ?BRET_EXT load(1, XDATA, add(CFA_XSP16, literal(-3)))
          CFI ?RET_HIGH load(1, XDATA, add(CFA_XSP16, literal(-4)))
          CFI ?RET_LOW load(1, XDATA, add(CFA_XSP16, literal(-5)))
          CFI R7 load(1, XDATA, add(CFA_XSP16, literal(-6)))
          CFI V7 load(1, XDATA, add(CFA_XSP16, literal(-7)))
          CFI V6 load(1, XDATA, add(CFA_XSP16, literal(-8)))
          CFI V5 load(1, XDATA, add(CFA_XSP16, literal(-9)))
          CFI V4 load(1, XDATA, add(CFA_XSP16, literal(-10)))
          CFI V3 load(1, XDATA, add(CFA_XSP16, literal(-11)))
          CFI V2 load(1, XDATA, add(CFA_XSP16, literal(-12)))
          CFI V1 load(1, XDATA, add(CFA_XSP16, literal(-13)))
          CFI V0 load(1, XDATA, add(CFA_XSP16, literal(-14)))
          CFI VB load(1, XDATA, add(CFA_XSP16, literal(-15)))
          CFI R6 load(1, XDATA, add(CFA_XSP16, literal(-16)))
          CFI CFA_SP SP+0
          CFI CFA_XSP16 add(XSP16, 16)
        ; Saved register size: 16
        ; Auto size: 23
        MOV       A,#-0x17
        LCALL     ?ALLOC_XSTACK8
          CFI CFA_XSP16 add(XSP16, 39)
        MOV       A,#0x3
        LCALL     ?XSTACK_DISP0_8
        MOV       A,R2
        MOVX      @DPTR,A
        INC       DPTR
        MOV       A,R3
        MOVX      @DPTR,A
        MOV       A,R4
        MOV       R6,A
        MOV       A,R5
        MOV       R7,A
//  152   uint8 index;
//  153   uint8 entry[MAC_SRCMATCH_SHORT_ENTRY_SIZE];
//  154   
//  155   /* Check if the input parameters are valid */
//  156   if ( addr == NULL || (addr->addrMode !=  SADDR_MODE_SHORT && addr->addrMode !=  SADDR_MODE_EXT))
        MOV       A,#0x3
        LCALL     ?XSTACK_DISP0_8
        MOVX      A,@DPTR
        MOV       R0,A
        INC       DPTR
        MOVX      A,@DPTR
        MOV       R1,A
        MOV       A,R0
        ORL       A,R1
        JZ        ??MAC_SrcMatchAddEntry_0
        MOV       A,#0x3
        LCALL     ?XSTACK_DISP0_8
        MOVX      A,@DPTR
        ADD       A,#0x8
        MOV       R0,A
        INC       DPTR
        MOVX      A,@DPTR
        ADDC      A,#0x0
        MOV       R1,A
        MOV       A,#0x1
        LCALL     ?XSTACK_DISP0_8
        MOV       A,R0
        MOVX      @DPTR,A
        INC       DPTR
        MOV       A,R1
        MOVX      @DPTR,A
        MOV       A,#0x1
        LCALL     ?XSTACK_DISP0_8
        LCALL     ?Subroutine3 & 0xFFFF
??CrossCallReturnLabel_3:
        MOV       R0,A
        MOV       A,#0x2
        XRL       A,R0
        JZ        ??MAC_SrcMatchAddEntry_1
        MOV       A,#0x3
        XRL       A,R0
        JZ        ??MAC_SrcMatchAddEntry_1
//  157   {
//  158     return MAC_INVALID_PARAMETER;  
??MAC_SrcMatchAddEntry_0:
        MOV       R1,#-0x18
        LJMP      ??MAC_SrcMatchAddEntry_2 & 0xFFFF
//  159   }
//  160   
//  161   /* Check if the entry already exists. Do not add duplicated entry */
//  162   if ( macSrcMatchCheckSrcAddr( addr, panID ) != MAC_SRCMATCH_INVALID_INDEX )
??MAC_SrcMatchAddEntry_1:
        ; Setup parameters for call to function macSrcMatchCheckSrcAddr
        MOV       A,#0x3
        LCALL     ?XSTACK_DISP0_8
        MOVX      A,@DPTR
        MOV       R2,A
        INC       DPTR
        MOVX      A,@DPTR
        MOV       R3,A
        LCALL     `??macSrcMatchCheckSrcAddr::?relay`; Banked call to: macSrcMatchCheckSrcAddr
        MOV       A,R1
        CPL       A
        JZ        ??MAC_SrcMatchAddEntry_3
//  163   {
//  164     return MAC_DUPLICATED_ENTRY; 
        MOV       R1,#0x1e
        LJMP      ??MAC_SrcMatchAddEntry_2 & 0xFFFF
//  165   }
//  166   
//  167   /* If not duplicated, write to the radio RAM and enable the control bit */
//  168   
//  169   /* Find the first empty entry */
//  170   index = macSrcMatchFindEmptyEntry(addr->addrMode);
??MAC_SrcMatchAddEntry_3:
        MOV       A,#0x1
        LCALL     ?XSTACK_DISP0_8
        LCALL     ?Subroutine3 & 0xFFFF
??CrossCallReturnLabel_4:
        MOV       DPL,?XSP + 0
        MOV       DPH,?XSP + 1
        MOVX      @DPTR,A
        ; Setup parameters for call to function macSrcMatchGetShortAddrEnableBit
        LCALL     `??macSrcMatchGetShortAddrEnableBit::?relay`; Banked call to: macSrcMatchGetShortAddrEnableBit
        MOV       ?V4,R2
        MOV       ?V5,R3
        MOV       ?V6,R4
        MOV       ?V7,R5
        ; Setup parameters for call to function macSrcMatchGetExtAddrEnableBit
        LCALL     `??macSrcMatchGetExtAddrEnableBit::?relay`; Banked call to: macSrcMatchGetExtAddrEnableBit
        MOV       A,R2
        MOV       R0,A
        MOV       A,R3
        MOV       R1,A
        MOV       A,R4
        MOV       R2,A
        MOV       A,R5
        MOV       R3,A
        MOV       A,#0xf
        LCALL     ?XSTACK_DISP0_8
        LCALL     ?XSTORE_R0123
        MOV       ?V0,?V4
        MOV       ?V1,?V5
        MOV       ?V2,?V6
        MOV       ?V3,?V7
        MOV       A,#0xf
        LCALL     ?XSTACK_DISP0_8
        MOV       R0,#?V0
        LCALL     ?L_IOR_X
        MOV       A,#0x13
        LCALL     ?XSTACK_DISP0_8
        MOV       R0,#?V0
        LCALL     ?L_MOV_TO_X
        MOV       DPL,?XSP + 0
        MOV       DPH,?XSP + 1
        MOVX      A,@DPTR
        XRL       A,#0x2
        JNZ       ??MAC_SrcMatchAddEntry_4
        CLR       A
        MOVX      @DPTR,A
??MAC_SrcMatchAddEntry_5:
        MOV       A,#0xf
        LCALL     ?XSTACK_DISP0_8
        MOV       R0,#?V0
        LCALL     ?L_MOV_X
        MOV       DPL,?XSP + 0
        MOV       DPH,?XSP + 1
        MOVX      A,@DPTR
        ANL       A,#0xfe
        MOV       R0,#?V0
        LCALL     ?UL_SHR
        MOV       A,?V0
        MOV       C,0xE0 /* A   */.0
        JC        ??MAC_SrcMatchAddEntry_6
        MOV       ?V0,?V4
        MOV       ?V1,?V5
        MOV       ?V2,?V6
        MOV       ?V3,?V7
        MOVX      A,@DPTR
        MOV       R0,#?V0
        LCALL     ?UL_SHR
        MOV       A,?V0
        MOV       C,0xE0 /* A   */.0
        JNC       ??MAC_SrcMatchAddEntry_7
??MAC_SrcMatchAddEntry_6:
        MOVX      A,@DPTR
        INC       A
        MOVX      @DPTR,A
        CLR       C
        SUBB      A,#0x18
        JNC       ??MAC_SrcMatchAddEntry_7
        SJMP      ??MAC_SrcMatchAddEntry_5
??MAC_SrcMatchAddEntry_4:
        CLR       A
        MOVX      @DPTR,A
??MAC_SrcMatchAddEntry_8:
        MOV       A,#0x13
        LCALL     ?XSTACK_DISP0_8
        PUSH      DPL
          CFI CFA_SP SP+-1
        PUSH      DPH
          CFI CFA_SP SP+-2
        MOV       ?V0,#0x3
        MOV       ?V1,#0x0
        MOV       ?V2,#0x0
        MOV       ?V3,#0x0
        MOV       DPL,?XSP + 0
        MOV       DPH,?XSP + 1
        MOVX      A,@DPTR
        CLR       C
        RLC       A
        MOV       R0,#?V0
        LCALL     ?L_SHL
        POP       DPH
          CFI CFA_SP SP+-1
        POP       DPL
          CFI CFA_SP SP+0
        MOV       R0,#?V0
        LCALL     ?L_AND_X
        MOV       A,?V0
        ORL       A,?V1
        ORL       A,?V2
        ORL       A,?V3
        JZ        ??MAC_SrcMatchAddEntry_7
        MOV       DPL,?XSP + 0
        MOV       DPH,?XSP + 1
        MOVX      A,@DPTR
        INC       A
        MOVX      @DPTR,A
        CLR       C
        SUBB      A,#0xc
        JC        ??MAC_SrcMatchAddEntry_8
//  171   
//  172 
//  173   if ( (index == MAC_SRCMATCH_SHORT_MAX_NUM_ENTRIES && addr->addrMode == SADDR_MODE_SHORT) || 
//  174        (index == MAC_SRCMATCH_EXT_MAX_NUM_ENTRIES && addr->addrMode == SADDR_MODE_EXT) )
??MAC_SrcMatchAddEntry_7:
        MOV       DPL,?XSP + 0
        MOV       DPH,?XSP + 1
        MOVX      A,@DPTR
        XRL       A,#0x18
        JNZ       ??MAC_SrcMatchAddEntry_9
        MOV       A,#0x1
        LCALL     ?XSTACK_DISP0_8
        LCALL     ?Subroutine2 & 0xFFFF
??CrossCallReturnLabel_0:
        JZ        ??MAC_SrcMatchAddEntry_10
//  175   {
//  176     return MAC_NO_RESOURCES;   /* Table is full */
//  177   }
//  178   
//  179   if ( addr->addrMode == SADDR_MODE_SHORT )
??MAC_SrcMatchAddEntry_11:
        MOV       DPL,?XSP + 0
        MOV       DPH,?XSP + 1
        MOVX      A,@DPTR
        MOV       ?V0,A
        MOV       ?V1,#0x0
        MOV       A,#0x1
        LCALL     ?XSTACK_DISP0_8
        LCALL     ?Subroutine2 & 0xFFFF
??CrossCallReturnLabel_1:
        JNZ       ??MAC_SrcMatchAddEntry_12
//  180   {
//  181     /* Write the PanID and short address */
//  182     entry[0] = LO_UINT16( panID );  /* Little Endian for the radio RAM */
        MOV       A,#0xb
        LCALL     ?XSTACK_DISP0_8
        MOV       A,R6
        MOVX      @DPTR,A
//  183     entry[1] = HI_UINT16( panID );
        MOV       A,#0xc
        LCALL     ?XSTACK_DISP0_8
        MOV       A,R7
        MOVX      @DPTR,A
//  184     entry[2] = LO_UINT16( addr->addr.shortAddr );
        MOV       A,#0x3
        LCALL     ?XSTACK_DISP0_8
        LCALL     ?Subroutine3 & 0xFFFF
??CrossCallReturnLabel_5:
        PUSH      A
          CFI CFA_SP SP+-1
        MOV       A,#0xd
        LCALL     ?XSTACK_DISP0_8
        POP       A
          CFI CFA_SP SP+0
        MOVX      @DPTR,A
//  185     entry[3] = HI_UINT16( addr->addr.shortAddr );
        MOV       A,#0x3
        LCALL     ?XSTACK_DISP0_8
        LCALL     ?Subroutine4 & 0xFFFF
??CrossCallReturnLabel_8:
        INC       DPTR
        MOVX      A,@DPTR
        PUSH      A
          CFI CFA_SP SP+-1
        MOV       A,#0xe
        LCALL     ?XSTACK_DISP0_8
        POP       A
          CFI CFA_SP SP+0
        MOVX      @DPTR,A
//  186     MAC_RADIO_SRC_MATCH_TABLE_WRITE( ( index * MAC_SRCMATCH_SHORT_ENTRY_SIZE ), 
//  187                    entry, MAC_SRCMATCH_SHORT_ENTRY_SIZE );
        ; Setup parameters for call to function macMemWriteRam
        MOV       R1,#0x4
        MOV       A,#0xb
        LCALL     ?XSTACK_DISP102_8
        MOV       A,#0x2
        SJMP      ??MAC_SrcMatchAddEntry_13
//  188   }
??MAC_SrcMatchAddEntry_9:
        MOVX      A,@DPTR
        XRL       A,#0xc
        JNZ       ??MAC_SrcMatchAddEntry_11
        MOV       A,#0x1
        LCALL     ?XSTACK_DISP0_8
        LCALL     ?Subroutine3 & 0xFFFF
??CrossCallReturnLabel_6:
        XRL       A,#0x3
        JNZ       ??MAC_SrcMatchAddEntry_11
??MAC_SrcMatchAddEntry_10:
        MOV       R1,#0x1a
        LJMP      ??MAC_SrcMatchAddEntry_2 & 0xFFFF
//  189   else
//  190   {
//  191     /* Write the extended address */
//  192     MAC_RADIO_SRC_MATCH_TABLE_WRITE( ( index * MAC_SRCMATCH_EXT_ENTRY_SIZE ), 
//  193                    addr->addr.extAddr, MAC_SRCMATCH_EXT_ENTRY_SIZE ); 
??MAC_SrcMatchAddEntry_12:
        ; Setup parameters for call to function macMemWriteRam
        MOV       R1,#0x8
        MOV       A,#0x3
        LCALL     ?XSTACK_DISP0_8
        MOVX      A,@DPTR
        MOV       R4,A
        INC       DPTR
        MOVX      A,@DPTR
        MOV       R5,A
        MOV       A,#0x3
??MAC_SrcMatchAddEntry_13:
        MOV       R0,#?V0
        LCALL     ?S_SHL
        ADD       A,?V0
        MOV       R2,A
        MOV       A,#0x61
        ADDC      A,?V1
        MOV       R3,A
        LCALL     `??macMemWriteRam::?relay`; Banked call to: macMemWriteRam
//  194   }
//  195   
//  196   /* Set the Autopend enable bits */
//  197   macSrcMatchSetPendEnBit( index, addr->addrMode );
        MOV       A,#0x1
        LCALL     ?XSTACK_DISP0_8
        LCALL     ?Subroutine2 & 0xFFFF
??CrossCallReturnLabel_2:
        MOV       R1,#0x3
        JNZ       ??MAC_SrcMatchAddEntry_14
        ; Setup parameters for call to function macMemReadRam
        MOV       A,#0x5
        LCALL     ?XSTACK_DISP102_8
        MOV       R2,#0x67
        MOV       R3,#0x61
        LCALL     `??macMemReadRam::?relay`; Banked call to: macMemReadRam
        ; Setup parameters for call to function osal_build_uint32
        MOV       R1,#0x3
        MOV       A,#0x5
        LCALL     ?XSTACK_DISP101_8
        LCALL     `??osal_build_uint32::?relay`; Banked call to: osal_build_uint32
        MOV       ?V0,R2
        MOV       ?V1,R3
        MOV       ?V2,R4
        MOV       ?V3,R5
        ; Setup parameters for call to function osal_buffer_uint24
        MOV       ?V4,#0x1
        MOV       ?V5,#0x0
        MOV       ?V6,#0x0
        MOV       ?V7,#0x0
        MOV       DPL,?XSP + 0
        MOV       DPH,?XSP + 1
        MOVX      A,@DPTR
        MOV       R0,#?V4
        LCALL     ?L_SHL
        MOV       R0,#?V0
        MOV       R1,#?V4
        LCALL     ?L_IOR
        MOV       R0,#?V0
        LCALL     ?PUSH_XSTACK_I_FOUR
          CFI CFA_XSP16 add(XSP16, 43)
        MOV       A,#0xc
        LCALL     ?XSTACK_DISP101_8
        LCALL     `??osal_buffer_uint24::?relay`; Banked call to: osal_buffer_uint24
        MOV       A,#0x4
        LCALL     ?DEALLOC_XSTACK8
          CFI CFA_XSP16 add(XSP16, 39)
        ; Setup parameters for call to function macMemWriteRam
        MOV       R1,#0x3
        MOV       A,#0x8
        LCALL     ?XSTACK_DISP102_8
        MOV       R2,#0x67
        SJMP      ??MAC_SrcMatchAddEntry_15
??MAC_SrcMatchAddEntry_14:
        ; Setup parameters for call to function macMemReadRam
        MOV       A,#0x5
        LCALL     ?XSTACK_DISP102_8
        MOV       R2,#0x64
        MOV       R3,#0x61
        LCALL     `??macMemReadRam::?relay`; Banked call to: macMemReadRam
        ; Setup parameters for call to function osal_build_uint32
        MOV       R1,#0x3
        MOV       A,#0x5
        LCALL     ?XSTACK_DISP101_8
        LCALL     `??osal_build_uint32::?relay`; Banked call to: osal_build_uint32
        MOV       ?V0,R2
        MOV       ?V1,R3
        MOV       ?V2,R4
        MOV       ?V3,R5
        MOV       DPL,?XSP + 0
        MOV       DPH,?XSP + 1
        MOVX      A,@DPTR
        CLR       C
        RLC       A
        MOV       R2,A
        ; Setup parameters for call to function osal_buffer_uint24
        MOV       ?V4,#0x1
        MOV       ?V5,#0x0
        MOV       ?V6,#0x0
        MOV       ?V7,#0x0
        MOV       R0,#?V4
        LCALL     ?L_SHL
        MOV       R0,#?V0
        MOV       R1,#?V4
        LCALL     ?L_IOR
        MOV       ?V4,#0x1
        MOV       ?V5,#0x0
        MOV       ?V6,#0x0
        MOV       ?V7,#0x0
        MOV       A,#0x1
        ADD       A,R2
        MOV       R0,#?V4
        LCALL     ?L_SHL
        MOV       R0,#?V0
        MOV       R1,#?V4
        LCALL     ?L_IOR
        MOV       R0,#?V0
        LCALL     ?PUSH_XSTACK_I_FOUR
          CFI CFA_XSP16 add(XSP16, 43)
        MOV       A,#0xc
        LCALL     ?XSTACK_DISP101_8
        LCALL     `??osal_buffer_uint24::?relay`; Banked call to: osal_buffer_uint24
        MOV       A,#0x4
        LCALL     ?DEALLOC_XSTACK8
          CFI CFA_XSP16 add(XSP16, 39)
        ; Setup parameters for call to function macMemWriteRam
        MOV       R1,#0x3
        MOV       A,#0x8
        LCALL     ?XSTACK_DISP102_8
        MOV       R2,#0x64
??MAC_SrcMatchAddEntry_15:
        MOV       R3,#0x61
        LCALL     `??macMemWriteRam::?relay`; Banked call to: macMemWriteRam
//  198   
//  199   /* Set the Src Match enable bits */
//  200   macSrcMatchSetEnableBit( index, TRUE, addr->addrMode);
        ; Setup parameters for call to function macSrcMatchSetEnableBit
        MOV       A,#0x1
        LCALL     ?XSTACK_DISP0_8
        LCALL     ?Subroutine3 & 0xFFFF
??CrossCallReturnLabel_7:
        MOV       R3,A
        MOV       R2,#0x1
        MOV       DPL,?XSP + 0
        MOV       DPH,?XSP + 1
        MOVX      A,@DPTR
        MOV       R1,A
        LCALL     `??macSrcMatchSetEnableBit::?relay`; Banked call to: macSrcMatchSetEnableBit
//  201   
//  202   return MAC_SUCCESS;
        MOV       R1,#0x0
??MAC_SrcMatchAddEntry_2:
        MOV       A,#0x17
          CFI EndBlock cfiBlock1
        REQUIRE ?Subroutine1
        ; // Fall through to label ?Subroutine1
//  203 }

        RSEG BANKED_CODE:HUGECODE:NOROOT(0)
?Subroutine1:
          CFI Block cfiBlock2 Using cfiCommon0
          CFI NoFunction
          CFI CFA_SP SP+0
          CFI CFA_XSP16 add(XSP16, 39)
          CFI VB load(1, XDATA, add(CFA_XSP16, literal(-15)))
          CFI DPL0 load(1, XDATA, add(CFA_XSP16, literal(-2)))
          CFI DPH0 load(1, XDATA, add(CFA_XSP16, literal(-1)))
          CFI R6 load(1, XDATA, add(CFA_XSP16, literal(-16)))
          CFI R7 load(1, XDATA, add(CFA_XSP16, literal(-6)))
          CFI V0 load(1, XDATA, add(CFA_XSP16, literal(-14)))
          CFI V1 load(1, XDATA, add(CFA_XSP16, literal(-13)))
          CFI V2 load(1, XDATA, add(CFA_XSP16, literal(-12)))
          CFI V3 load(1, XDATA, add(CFA_XSP16, literal(-11)))
          CFI V4 load(1, XDATA, add(CFA_XSP16, literal(-10)))
          CFI V5 load(1, XDATA, add(CFA_XSP16, literal(-9)))
          CFI V6 load(1, XDATA, add(CFA_XSP16, literal(-8)))
          CFI V7 load(1, XDATA, add(CFA_XSP16, literal(-7)))
          CFI ?BRET_EXT load(1, XDATA, add(CFA_XSP16, literal(-3)))
          CFI ?RET_HIGH load(1, XDATA, add(CFA_XSP16, literal(-4)))
          CFI ?RET_LOW load(1, XDATA, add(CFA_XSP16, literal(-5)))
          CFI Invalid
        LCALL     ?DEALLOC_XSTACK8
          CFI CFA_XSP16 add(XSP16, 16)
          CFI Valid
        MOV       R7,#0x8
        LJMP      ?BANKED_LEAVE_XDATA
          CFI EndBlock cfiBlock2

        RSEG BANKED_CODE:HUGECODE:NOROOT(0)
?Subroutine3:
          CFI Block cfiCond3 Using cfiCommon0
          CFI Function MAC_SrcMatchAddEntry
          CFI Conditional ??CrossCallReturnLabel_3
          CFI R6 load(1, XDATA, add(CFA_XSP16, literal(-16)))
          CFI VB load(1, XDATA, add(CFA_XSP16, literal(-15)))
          CFI V0 load(1, XDATA, add(CFA_XSP16, literal(-14)))
          CFI V1 load(1, XDATA, add(CFA_XSP16, literal(-13)))
          CFI V2 load(1, XDATA, add(CFA_XSP16, literal(-12)))
          CFI V3 load(1, XDATA, add(CFA_XSP16, literal(-11)))
          CFI V4 load(1, XDATA, add(CFA_XSP16, literal(-10)))
          CFI V5 load(1, XDATA, add(CFA_XSP16, literal(-9)))
          CFI V6 load(1, XDATA, add(CFA_XSP16, literal(-8)))
          CFI V7 load(1, XDATA, add(CFA_XSP16, literal(-7)))
          CFI R7 load(1, XDATA, add(CFA_XSP16, literal(-6)))
          CFI ?RET_LOW load(1, XDATA, add(CFA_XSP16, literal(-5)))
          CFI ?RET_HIGH load(1, XDATA, add(CFA_XSP16, literal(-4)))
          CFI ?BRET_EXT load(1, XDATA, add(CFA_XSP16, literal(-3)))
          CFI DPL0 load(1, XDATA, add(CFA_XSP16, literal(-2)))
          CFI DPH0 load(1, XDATA, add(CFA_XSP16, literal(-1)))
          CFI CFA_SP SP+-2
          CFI CFA_XSP16 add(XSP16, 39)
          CFI Block cfiCond4 Using cfiCommon0
          CFI (cfiCond4) Function MAC_SrcMatchAddEntry
          CFI (cfiCond4) Conditional ??CrossCallReturnLabel_4
          CFI (cfiCond4) R6 load(1, XDATA, add(CFA_XSP16, literal(-16)))
          CFI (cfiCond4) VB load(1, XDATA, add(CFA_XSP16, literal(-15)))
          CFI (cfiCond4) V0 load(1, XDATA, add(CFA_XSP16, literal(-14)))
          CFI (cfiCond4) V1 load(1, XDATA, add(CFA_XSP16, literal(-13)))
          CFI (cfiCond4) V2 load(1, XDATA, add(CFA_XSP16, literal(-12)))
          CFI (cfiCond4) V3 load(1, XDATA, add(CFA_XSP16, literal(-11)))
          CFI (cfiCond4) V4 load(1, XDATA, add(CFA_XSP16, literal(-10)))
          CFI (cfiCond4) V5 load(1, XDATA, add(CFA_XSP16, literal(-9)))
          CFI (cfiCond4) V6 load(1, XDATA, add(CFA_XSP16, literal(-8)))
          CFI (cfiCond4) V7 load(1, XDATA, add(CFA_XSP16, literal(-7)))
          CFI (cfiCond4) R7 load(1, XDATA, add(CFA_XSP16, literal(-6)))
          CFI (cfiCond4) ?RET_LOW load(1, XDATA, add(CFA_XSP16, literal(-5)))
          CFI (cfiCond4) ?RET_HIGH load(1, XDATA, add(CFA_XSP16, literal(-4)))
          CFI (cfiCond4) ?BRET_EXT load(1, XDATA, add(CFA_XSP16, literal(-3)))
          CFI (cfiCond4) DPL0 load(1, XDATA, add(CFA_XSP16, literal(-2)))
          CFI (cfiCond4) DPH0 load(1, XDATA, add(CFA_XSP16, literal(-1)))
          CFI (cfiCond4) CFA_SP SP+-2
          CFI (cfiCond4) CFA_XSP16 add(XSP16, 39)
          CFI Block cfiCond5 Using cfiCommon0
          CFI (cfiCond5) Function MAC_SrcMatchAddEntry
          CFI (cfiCond5) Conditional ??CrossCallReturnLabel_5
          CFI (cfiCond5) R6 load(1, XDATA, add(CFA_XSP16, literal(-16)))
          CFI (cfiCond5) VB load(1, XDATA, add(CFA_XSP16, literal(-15)))
          CFI (cfiCond5) V0 load(1, XDATA, add(CFA_XSP16, literal(-14)))
          CFI (cfiCond5) V1 load(1, XDATA, add(CFA_XSP16, literal(-13)))
          CFI (cfiCond5) V2 load(1, XDATA, add(CFA_XSP16, literal(-12)))
          CFI (cfiCond5) V3 load(1, XDATA, add(CFA_XSP16, literal(-11)))
          CFI (cfiCond5) V4 load(1, XDATA, add(CFA_XSP16, literal(-10)))
          CFI (cfiCond5) V5 load(1, XDATA, add(CFA_XSP16, literal(-9)))
          CFI (cfiCond5) V6 load(1, XDATA, add(CFA_XSP16, literal(-8)))
          CFI (cfiCond5) V7 load(1, XDATA, add(CFA_XSP16, literal(-7)))
          CFI (cfiCond5) R7 load(1, XDATA, add(CFA_XSP16, literal(-6)))
          CFI (cfiCond5) ?RET_LOW load(1, XDATA, add(CFA_XSP16, literal(-5)))
          CFI (cfiCond5) ?RET_HIGH load(1, XDATA, add(CFA_XSP16, literal(-4)))
          CFI (cfiCond5) ?BRET_EXT load(1, XDATA, add(CFA_XSP16, literal(-3)))
          CFI (cfiCond5) DPL0 load(1, XDATA, add(CFA_XSP16, literal(-2)))
          CFI (cfiCond5) DPH0 load(1, XDATA, add(CFA_XSP16, literal(-1)))
          CFI (cfiCond5) CFA_SP SP+-2
          CFI (cfiCond5) CFA_XSP16 add(XSP16, 39)
          CFI Block cfiCond6 Using cfiCommon0
          CFI (cfiCond6) Function MAC_SrcMatchAddEntry
          CFI (cfiCond6) Conditional ??CrossCallReturnLabel_6
          CFI (cfiCond6) R6 load(1, XDATA, add(CFA_XSP16, literal(-16)))
          CFI (cfiCond6) VB load(1, XDATA, add(CFA_XSP16, literal(-15)))
          CFI (cfiCond6) V0 load(1, XDATA, add(CFA_XSP16, literal(-14)))
          CFI (cfiCond6) V1 load(1, XDATA, add(CFA_XSP16, literal(-13)))
          CFI (cfiCond6) V2 load(1, XDATA, add(CFA_XSP16, literal(-12)))
          CFI (cfiCond6) V3 load(1, XDATA, add(CFA_XSP16, literal(-11)))
          CFI (cfiCond6) V4 load(1, XDATA, add(CFA_XSP16, literal(-10)))
          CFI (cfiCond6) V5 load(1, XDATA, add(CFA_XSP16, literal(-9)))
          CFI (cfiCond6) V6 load(1, XDATA, add(CFA_XSP16, literal(-8)))
          CFI (cfiCond6) V7 load(1, XDATA, add(CFA_XSP16, literal(-7)))
          CFI (cfiCond6) R7 load(1, XDATA, add(CFA_XSP16, literal(-6)))
          CFI (cfiCond6) ?RET_LOW load(1, XDATA, add(CFA_XSP16, literal(-5)))
          CFI (cfiCond6) ?RET_HIGH load(1, XDATA, add(CFA_XSP16, literal(-4)))
          CFI (cfiCond6) ?BRET_EXT load(1, XDATA, add(CFA_XSP16, literal(-3)))
          CFI (cfiCond6) DPL0 load(1, XDATA, add(CFA_XSP16, literal(-2)))
          CFI (cfiCond6) DPH0 load(1, XDATA, add(CFA_XSP16, literal(-1)))
          CFI (cfiCond6) CFA_SP SP+-2
          CFI (cfiCond6) CFA_XSP16 add(XSP16, 39)
          CFI Block cfiCond7 Using cfiCommon0
          CFI (cfiCond7) Function MAC_SrcMatchAddEntry
          CFI (cfiCond7) Conditional ??CrossCallReturnLabel_7
          CFI (cfiCond7) R6 load(1, XDATA, add(CFA_XSP16, literal(-16)))
          CFI (cfiCond7) VB load(1, XDATA, add(CFA_XSP16, literal(-15)))
          CFI (cfiCond7) V0 load(1, XDATA, add(CFA_XSP16, literal(-14)))
          CFI (cfiCond7) V1 load(1, XDATA, add(CFA_XSP16, literal(-13)))
          CFI (cfiCond7) V2 load(1, XDATA, add(CFA_XSP16, literal(-12)))
          CFI (cfiCond7) V3 load(1, XDATA, add(CFA_XSP16, literal(-11)))
          CFI (cfiCond7) V4 load(1, XDATA, add(CFA_XSP16, literal(-10)))
          CFI (cfiCond7) V5 load(1, XDATA, add(CFA_XSP16, literal(-9)))
          CFI (cfiCond7) V6 load(1, XDATA, add(CFA_XSP16, literal(-8)))
          CFI (cfiCond7) V7 load(1, XDATA, add(CFA_XSP16, literal(-7)))
          CFI (cfiCond7) R7 load(1, XDATA, add(CFA_XSP16, literal(-6)))
          CFI (cfiCond7) ?RET_LOW load(1, XDATA, add(CFA_XSP16, literal(-5)))
          CFI (cfiCond7) ?RET_HIGH load(1, XDATA, add(CFA_XSP16, literal(-4)))
          CFI (cfiCond7) ?BRET_EXT load(1, XDATA, add(CFA_XSP16, literal(-3)))
          CFI (cfiCond7) DPL0 load(1, XDATA, add(CFA_XSP16, literal(-2)))
          CFI (cfiCond7) DPH0 load(1, XDATA, add(CFA_XSP16, literal(-1)))
          CFI (cfiCond7) CFA_SP SP+-2
          CFI (cfiCond7) CFA_XSP16 add(XSP16, 39)
          CFI Block cfiPicker8 Using cfiCommon1
          CFI (cfiPicker8) NoFunction
          CFI (cfiPicker8) Picker
        LCALL     ?Subroutine5 & 0xFFFF
??CrossCallReturnLabel_11:
        RET
          CFI EndBlock cfiCond3
          CFI EndBlock cfiCond4
          CFI EndBlock cfiCond5
          CFI EndBlock cfiCond6
          CFI EndBlock cfiCond7
          CFI EndBlock cfiPicker8

        RSEG BANKED_CODE:HUGECODE:NOROOT(0)
?Subroutine5:
          CFI Block cfiCond9 Using cfiCommon0
          CFI Function MAC_SrcMatchAddEntry
          CFI Conditional ??CrossCallReturnLabel_11, ??CrossCallReturnLabel_3
          CFI R6 load(1, XDATA, add(CFA_XSP16, literal(-16)))
          CFI VB load(1, XDATA, add(CFA_XSP16, literal(-15)))
          CFI V0 load(1, XDATA, add(CFA_XSP16, literal(-14)))
          CFI V1 load(1, XDATA, add(CFA_XSP16, literal(-13)))
          CFI V2 load(1, XDATA, add(CFA_XSP16, literal(-12)))
          CFI V3 load(1, XDATA, add(CFA_XSP16, literal(-11)))
          CFI V4 load(1, XDATA, add(CFA_XSP16, literal(-10)))
          CFI V5 load(1, XDATA, add(CFA_XSP16, literal(-9)))
          CFI V6 load(1, XDATA, add(CFA_XSP16, literal(-8)))
          CFI V7 load(1, XDATA, add(CFA_XSP16, literal(-7)))
          CFI R7 load(1, XDATA, add(CFA_XSP16, literal(-6)))
          CFI ?RET_LOW load(1, XDATA, add(CFA_XSP16, literal(-5)))
          CFI ?RET_HIGH load(1, XDATA, add(CFA_XSP16, literal(-4)))
          CFI ?BRET_EXT load(1, XDATA, add(CFA_XSP16, literal(-3)))
          CFI DPL0 load(1, XDATA, add(CFA_XSP16, literal(-2)))
          CFI DPH0 load(1, XDATA, add(CFA_XSP16, literal(-1)))
          CFI CFA_SP SP+-4
          CFI CFA_XSP16 add(XSP16, 39)
          CFI Block cfiCond10 Using cfiCommon0
          CFI (cfiCond10) Function MAC_SrcMatchAddEntry
          CFI (cfiCond10) Conditional ??CrossCallReturnLabel_11, ??CrossCallReturnLabel_4
          CFI (cfiCond10) R6 load(1, XDATA, add(CFA_XSP16, literal(-16)))
          CFI (cfiCond10) VB load(1, XDATA, add(CFA_XSP16, literal(-15)))
          CFI (cfiCond10) V0 load(1, XDATA, add(CFA_XSP16, literal(-14)))
          CFI (cfiCond10) V1 load(1, XDATA, add(CFA_XSP16, literal(-13)))
          CFI (cfiCond10) V2 load(1, XDATA, add(CFA_XSP16, literal(-12)))
          CFI (cfiCond10) V3 load(1, XDATA, add(CFA_XSP16, literal(-11)))
          CFI (cfiCond10) V4 load(1, XDATA, add(CFA_XSP16, literal(-10)))
          CFI (cfiCond10) V5 load(1, XDATA, add(CFA_XSP16, literal(-9)))
          CFI (cfiCond10) V6 load(1, XDATA, add(CFA_XSP16, literal(-8)))
          CFI (cfiCond10) V7 load(1, XDATA, add(CFA_XSP16, literal(-7)))
          CFI (cfiCond10) R7 load(1, XDATA, add(CFA_XSP16, literal(-6)))
          CFI (cfiCond10) ?RET_LOW load(1, XDATA, add(CFA_XSP16, literal(-5)))
          CFI (cfiCond10) ?RET_HIGH load(1, XDATA, add(CFA_XSP16, literal(-4)))
          CFI (cfiCond10) ?BRET_EXT load(1, XDATA, add(CFA_XSP16, literal(-3)))
          CFI (cfiCond10) DPL0 load(1, XDATA, add(CFA_XSP16, literal(-2)))
          CFI (cfiCond10) DPH0 load(1, XDATA, add(CFA_XSP16, literal(-1)))
          CFI (cfiCond10) CFA_SP SP+-4
          CFI (cfiCond10) CFA_XSP16 add(XSP16, 39)
          CFI Block cfiCond11 Using cfiCommon0
          CFI (cfiCond11) Function MAC_SrcMatchAddEntry
          CFI (cfiCond11) Conditional ??CrossCallReturnLabel_11, ??CrossCallReturnLabel_5
          CFI (cfiCond11) R6 load(1, XDATA, add(CFA_XSP16, literal(-16)))
          CFI (cfiCond11) VB load(1, XDATA, add(CFA_XSP16, literal(-15)))
          CFI (cfiCond11) V0 load(1, XDATA, add(CFA_XSP16, literal(-14)))
          CFI (cfiCond11) V1 load(1, XDATA, add(CFA_XSP16, literal(-13)))
          CFI (cfiCond11) V2 load(1, XDATA, add(CFA_XSP16, literal(-12)))
          CFI (cfiCond11) V3 load(1, XDATA, add(CFA_XSP16, literal(-11)))
          CFI (cfiCond11) V4 load(1, XDATA, add(CFA_XSP16, literal(-10)))
          CFI (cfiCond11) V5 load(1, XDATA, add(CFA_XSP16, literal(-9)))
          CFI (cfiCond11) V6 load(1, XDATA, add(CFA_XSP16, literal(-8)))
          CFI (cfiCond11) V7 load(1, XDATA, add(CFA_XSP16, literal(-7)))
          CFI (cfiCond11) R7 load(1, XDATA, add(CFA_XSP16, literal(-6)))
          CFI (cfiCond11) ?RET_LOW load(1, XDATA, add(CFA_XSP16, literal(-5)))
          CFI (cfiCond11) ?RET_HIGH load(1, XDATA, add(CFA_XSP16, literal(-4)))
          CFI (cfiCond11) ?BRET_EXT load(1, XDATA, add(CFA_XSP16, literal(-3)))
          CFI (cfiCond11) DPL0 load(1, XDATA, add(CFA_XSP16, literal(-2)))
          CFI (cfiCond11) DPH0 load(1, XDATA, add(CFA_XSP16, literal(-1)))
          CFI (cfiCond11) CFA_SP SP+-4
          CFI (cfiCond11) CFA_XSP16 add(XSP16, 39)
          CFI Block cfiCond12 Using cfiCommon0
          CFI (cfiCond12) Function MAC_SrcMatchAddEntry
          CFI (cfiCond12) Conditional ??CrossCallReturnLabel_11, ??CrossCallReturnLabel_6
          CFI (cfiCond12) R6 load(1, XDATA, add(CFA_XSP16, literal(-16)))
          CFI (cfiCond12) VB load(1, XDATA, add(CFA_XSP16, literal(-15)))
          CFI (cfiCond12) V0 load(1, XDATA, add(CFA_XSP16, literal(-14)))
          CFI (cfiCond12) V1 load(1, XDATA, add(CFA_XSP16, literal(-13)))
          CFI (cfiCond12) V2 load(1, XDATA, add(CFA_XSP16, literal(-12)))
          CFI (cfiCond12) V3 load(1, XDATA, add(CFA_XSP16, literal(-11)))
          CFI (cfiCond12) V4 load(1, XDATA, add(CFA_XSP16, literal(-10)))
          CFI (cfiCond12) V5 load(1, XDATA, add(CFA_XSP16, literal(-9)))
          CFI (cfiCond12) V6 load(1, XDATA, add(CFA_XSP16, literal(-8)))
          CFI (cfiCond12) V7 load(1, XDATA, add(CFA_XSP16, literal(-7)))
          CFI (cfiCond12) R7 load(1, XDATA, add(CFA_XSP16, literal(-6)))
          CFI (cfiCond12) ?RET_LOW load(1, XDATA, add(CFA_XSP16, literal(-5)))
          CFI (cfiCond12) ?RET_HIGH load(1, XDATA, add(CFA_XSP16, literal(-4)))
          CFI (cfiCond12) ?BRET_EXT load(1, XDATA, add(CFA_XSP16, literal(-3)))
          CFI (cfiCond12) DPL0 load(1, XDATA, add(CFA_XSP16, literal(-2)))
          CFI (cfiCond12) DPH0 load(1, XDATA, add(CFA_XSP16, literal(-1)))
          CFI (cfiCond12) CFA_SP SP+-4
          CFI (cfiCond12) CFA_XSP16 add(XSP16, 39)
          CFI Block cfiCond13 Using cfiCommon0
          CFI (cfiCond13) Function MAC_SrcMatchAddEntry
          CFI (cfiCond13) Conditional ??CrossCallReturnLabel_11, ??CrossCallReturnLabel_7
          CFI (cfiCond13) R6 load(1, XDATA, add(CFA_XSP16, literal(-16)))
          CFI (cfiCond13) VB load(1, XDATA, add(CFA_XSP16, literal(-15)))
          CFI (cfiCond13) V0 load(1, XDATA, add(CFA_XSP16, literal(-14)))
          CFI (cfiCond13) V1 load(1, XDATA, add(CFA_XSP16, literal(-13)))
          CFI (cfiCond13) V2 load(1, XDATA, add(CFA_XSP16, literal(-12)))
          CFI (cfiCond13) V3 load(1, XDATA, add(CFA_XSP16, literal(-11)))
          CFI (cfiCond13) V4 load(1, XDATA, add(CFA_XSP16, literal(-10)))
          CFI (cfiCond13) V5 load(1, XDATA, add(CFA_XSP16, literal(-9)))
          CFI (cfiCond13) V6 load(1, XDATA, add(CFA_XSP16, literal(-8)))
          CFI (cfiCond13) V7 load(1, XDATA, add(CFA_XSP16, literal(-7)))
          CFI (cfiCond13) R7 load(1, XDATA, add(CFA_XSP16, literal(-6)))
          CFI (cfiCond13) ?RET_LOW load(1, XDATA, add(CFA_XSP16, literal(-5)))
          CFI (cfiCond13) ?RET_HIGH load(1, XDATA, add(CFA_XSP16, literal(-4)))
          CFI (cfiCond13) ?BRET_EXT load(1, XDATA, add(CFA_XSP16, literal(-3)))
          CFI (cfiCond13) DPL0 load(1, XDATA, add(CFA_XSP16, literal(-2)))
          CFI (cfiCond13) DPH0 load(1, XDATA, add(CFA_XSP16, literal(-1)))
          CFI (cfiCond13) CFA_SP SP+-4
          CFI (cfiCond13) CFA_XSP16 add(XSP16, 39)
          CFI Block cfiCond14 Using cfiCommon0
          CFI (cfiCond14) Function MAC_SrcMatchAddEntry
          CFI (cfiCond14) Conditional ??CrossCallReturnLabel_10, ??CrossCallReturnLabel_0
          CFI (cfiCond14) R6 load(1, XDATA, add(CFA_XSP16, literal(-16)))
          CFI (cfiCond14) VB load(1, XDATA, add(CFA_XSP16, literal(-15)))
          CFI (cfiCond14) V0 load(1, XDATA, add(CFA_XSP16, literal(-14)))
          CFI (cfiCond14) V1 load(1, XDATA, add(CFA_XSP16, literal(-13)))
          CFI (cfiCond14) V2 load(1, XDATA, add(CFA_XSP16, literal(-12)))
          CFI (cfiCond14) V3 load(1, XDATA, add(CFA_XSP16, literal(-11)))
          CFI (cfiCond14) V4 load(1, XDATA, add(CFA_XSP16, literal(-10)))
          CFI (cfiCond14) V5 load(1, XDATA, add(CFA_XSP16, literal(-9)))
          CFI (cfiCond14) V6 load(1, XDATA, add(CFA_XSP16, literal(-8)))
          CFI (cfiCond14) V7 load(1, XDATA, add(CFA_XSP16, literal(-7)))
          CFI (cfiCond14) R7 load(1, XDATA, add(CFA_XSP16, literal(-6)))
          CFI (cfiCond14) ?RET_LOW load(1, XDATA, add(CFA_XSP16, literal(-5)))
          CFI (cfiCond14) ?RET_HIGH load(1, XDATA, add(CFA_XSP16, literal(-4)))
          CFI (cfiCond14) ?BRET_EXT load(1, XDATA, add(CFA_XSP16, literal(-3)))
          CFI (cfiCond14) DPL0 load(1, XDATA, add(CFA_XSP16, literal(-2)))
          CFI (cfiCond14) DPH0 load(1, XDATA, add(CFA_XSP16, literal(-1)))
          CFI (cfiCond14) CFA_SP SP+-4
          CFI (cfiCond14) CFA_XSP16 add(XSP16, 39)
          CFI Block cfiCond15 Using cfiCommon0
          CFI (cfiCond15) Function MAC_SrcMatchAddEntry
          CFI (cfiCond15) Conditional ??CrossCallReturnLabel_10, ??CrossCallReturnLabel_1
          CFI (cfiCond15) R6 load(1, XDATA, add(CFA_XSP16, literal(-16)))
          CFI (cfiCond15) VB load(1, XDATA, add(CFA_XSP16, literal(-15)))
          CFI (cfiCond15) V0 load(1, XDATA, add(CFA_XSP16, literal(-14)))
          CFI (cfiCond15) V1 load(1, XDATA, add(CFA_XSP16, literal(-13)))
          CFI (cfiCond15) V2 load(1, XDATA, add(CFA_XSP16, literal(-12)))
          CFI (cfiCond15) V3 load(1, XDATA, add(CFA_XSP16, literal(-11)))
          CFI (cfiCond15) V4 load(1, XDATA, add(CFA_XSP16, literal(-10)))
          CFI (cfiCond15) V5 load(1, XDATA, add(CFA_XSP16, literal(-9)))
          CFI (cfiCond15) V6 load(1, XDATA, add(CFA_XSP16, literal(-8)))
          CFI (cfiCond15) V7 load(1, XDATA, add(CFA_XSP16, literal(-7)))
          CFI (cfiCond15) R7 load(1, XDATA, add(CFA_XSP16, literal(-6)))
          CFI (cfiCond15) ?RET_LOW load(1, XDATA, add(CFA_XSP16, literal(-5)))
          CFI (cfiCond15) ?RET_HIGH load(1, XDATA, add(CFA_XSP16, literal(-4)))
          CFI (cfiCond15) ?BRET_EXT load(1, XDATA, add(CFA_XSP16, literal(-3)))
          CFI (cfiCond15) DPL0 load(1, XDATA, add(CFA_XSP16, literal(-2)))
          CFI (cfiCond15) DPH0 load(1, XDATA, add(CFA_XSP16, literal(-1)))
          CFI (cfiCond15) CFA_SP SP+-4
          CFI (cfiCond15) CFA_XSP16 add(XSP16, 39)
          CFI Block cfiCond16 Using cfiCommon0
          CFI (cfiCond16) Function MAC_SrcMatchAddEntry
          CFI (cfiCond16) Conditional ??CrossCallReturnLabel_10, ??CrossCallReturnLabel_2
          CFI (cfiCond16) R6 load(1, XDATA, add(CFA_XSP16, literal(-16)))
          CFI (cfiCond16) VB load(1, XDATA, add(CFA_XSP16, literal(-15)))
          CFI (cfiCond16) V0 load(1, XDATA, add(CFA_XSP16, literal(-14)))
          CFI (cfiCond16) V1 load(1, XDATA, add(CFA_XSP16, literal(-13)))
          CFI (cfiCond16) V2 load(1, XDATA, add(CFA_XSP16, literal(-12)))
          CFI (cfiCond16) V3 load(1, XDATA, add(CFA_XSP16, literal(-11)))
          CFI (cfiCond16) V4 load(1, XDATA, add(CFA_XSP16, literal(-10)))
          CFI (cfiCond16) V5 load(1, XDATA, add(CFA_XSP16, literal(-9)))
          CFI (cfiCond16) V6 load(1, XDATA, add(CFA_XSP16, literal(-8)))
          CFI (cfiCond16) V7 load(1, XDATA, add(CFA_XSP16, literal(-7)))
          CFI (cfiCond16) R7 load(1, XDATA, add(CFA_XSP16, literal(-6)))
          CFI (cfiCond16) ?RET_LOW load(1, XDATA, add(CFA_XSP16, literal(-5)))
          CFI (cfiCond16) ?RET_HIGH load(1, XDATA, add(CFA_XSP16, literal(-4)))
          CFI (cfiCond16) ?BRET_EXT load(1, XDATA, add(CFA_XSP16, literal(-3)))
          CFI (cfiCond16) DPL0 load(1, XDATA, add(CFA_XSP16, literal(-2)))
          CFI (cfiCond16) DPH0 load(1, XDATA, add(CFA_XSP16, literal(-1)))
          CFI (cfiCond16) CFA_SP SP+-4
          CFI (cfiCond16) CFA_XSP16 add(XSP16, 39)
          CFI Block cfiPicker17 Using cfiCommon1
          CFI (cfiPicker17) NoFunction
          CFI (cfiPicker17) Picker
        LCALL     ?Subroutine6 & 0xFFFF
??CrossCallReturnLabel_13:
        MOVX      A,@DPTR
        RET
          CFI EndBlock cfiCond9
          CFI EndBlock cfiCond10
          CFI EndBlock cfiCond11
          CFI EndBlock cfiCond12
          CFI EndBlock cfiCond13
          CFI EndBlock cfiCond14
          CFI EndBlock cfiCond15
          CFI EndBlock cfiCond16
          CFI EndBlock cfiPicker17

        RSEG BANKED_CODE:HUGECODE:NOROOT(0)
?Subroutine2:
          CFI Block cfiCond18 Using cfiCommon0
          CFI Function MAC_SrcMatchAddEntry
          CFI Conditional ??CrossCallReturnLabel_0
          CFI R6 load(1, XDATA, add(CFA_XSP16, literal(-16)))
          CFI VB load(1, XDATA, add(CFA_XSP16, literal(-15)))
          CFI V0 load(1, XDATA, add(CFA_XSP16, literal(-14)))
          CFI V1 load(1, XDATA, add(CFA_XSP16, literal(-13)))
          CFI V2 load(1, XDATA, add(CFA_XSP16, literal(-12)))
          CFI V3 load(1, XDATA, add(CFA_XSP16, literal(-11)))
          CFI V4 load(1, XDATA, add(CFA_XSP16, literal(-10)))
          CFI V5 load(1, XDATA, add(CFA_XSP16, literal(-9)))
          CFI V6 load(1, XDATA, add(CFA_XSP16, literal(-8)))
          CFI V7 load(1, XDATA, add(CFA_XSP16, literal(-7)))
          CFI R7 load(1, XDATA, add(CFA_XSP16, literal(-6)))
          CFI ?RET_LOW load(1, XDATA, add(CFA_XSP16, literal(-5)))
          CFI ?RET_HIGH load(1, XDATA, add(CFA_XSP16, literal(-4)))
          CFI ?BRET_EXT load(1, XDATA, add(CFA_XSP16, literal(-3)))
          CFI DPL0 load(1, XDATA, add(CFA_XSP16, literal(-2)))
          CFI DPH0 load(1, XDATA, add(CFA_XSP16, literal(-1)))
          CFI CFA_SP SP+-2
          CFI CFA_XSP16 add(XSP16, 39)
          CFI Block cfiCond19 Using cfiCommon0
          CFI (cfiCond19) Function MAC_SrcMatchAddEntry
          CFI (cfiCond19) Conditional ??CrossCallReturnLabel_1
          CFI (cfiCond19) R6 load(1, XDATA, add(CFA_XSP16, literal(-16)))
          CFI (cfiCond19) VB load(1, XDATA, add(CFA_XSP16, literal(-15)))
          CFI (cfiCond19) V0 load(1, XDATA, add(CFA_XSP16, literal(-14)))
          CFI (cfiCond19) V1 load(1, XDATA, add(CFA_XSP16, literal(-13)))
          CFI (cfiCond19) V2 load(1, XDATA, add(CFA_XSP16, literal(-12)))
          CFI (cfiCond19) V3 load(1, XDATA, add(CFA_XSP16, literal(-11)))
          CFI (cfiCond19) V4 load(1, XDATA, add(CFA_XSP16, literal(-10)))
          CFI (cfiCond19) V5 load(1, XDATA, add(CFA_XSP16, literal(-9)))
          CFI (cfiCond19) V6 load(1, XDATA, add(CFA_XSP16, literal(-8)))
          CFI (cfiCond19) V7 load(1, XDATA, add(CFA_XSP16, literal(-7)))
          CFI (cfiCond19) R7 load(1, XDATA, add(CFA_XSP16, literal(-6)))
          CFI (cfiCond19) ?RET_LOW load(1, XDATA, add(CFA_XSP16, literal(-5)))
          CFI (cfiCond19) ?RET_HIGH load(1, XDATA, add(CFA_XSP16, literal(-4)))
          CFI (cfiCond19) ?BRET_EXT load(1, XDATA, add(CFA_XSP16, literal(-3)))
          CFI (cfiCond19) DPL0 load(1, XDATA, add(CFA_XSP16, literal(-2)))
          CFI (cfiCond19) DPH0 load(1, XDATA, add(CFA_XSP16, literal(-1)))
          CFI (cfiCond19) CFA_SP SP+-2
          CFI (cfiCond19) CFA_XSP16 add(XSP16, 39)
          CFI Block cfiCond20 Using cfiCommon0
          CFI (cfiCond20) Function MAC_SrcMatchAddEntry
          CFI (cfiCond20) Conditional ??CrossCallReturnLabel_2
          CFI (cfiCond20) R6 load(1, XDATA, add(CFA_XSP16, literal(-16)))
          CFI (cfiCond20) VB load(1, XDATA, add(CFA_XSP16, literal(-15)))
          CFI (cfiCond20) V0 load(1, XDATA, add(CFA_XSP16, literal(-14)))
          CFI (cfiCond20) V1 load(1, XDATA, add(CFA_XSP16, literal(-13)))
          CFI (cfiCond20) V2 load(1, XDATA, add(CFA_XSP16, literal(-12)))
          CFI (cfiCond20) V3 load(1, XDATA, add(CFA_XSP16, literal(-11)))
          CFI (cfiCond20) V4 load(1, XDATA, add(CFA_XSP16, literal(-10)))
          CFI (cfiCond20) V5 load(1, XDATA, add(CFA_XSP16, literal(-9)))
          CFI (cfiCond20) V6 load(1, XDATA, add(CFA_XSP16, literal(-8)))
          CFI (cfiCond20) V7 load(1, XDATA, add(CFA_XSP16, literal(-7)))
          CFI (cfiCond20) R7 load(1, XDATA, add(CFA_XSP16, literal(-6)))
          CFI (cfiCond20) ?RET_LOW load(1, XDATA, add(CFA_XSP16, literal(-5)))
          CFI (cfiCond20) ?RET_HIGH load(1, XDATA, add(CFA_XSP16, literal(-4)))
          CFI (cfiCond20) ?BRET_EXT load(1, XDATA, add(CFA_XSP16, literal(-3)))
          CFI (cfiCond20) DPL0 load(1, XDATA, add(CFA_XSP16, literal(-2)))
          CFI (cfiCond20) DPH0 load(1, XDATA, add(CFA_XSP16, literal(-1)))
          CFI (cfiCond20) CFA_SP SP+-2
          CFI (cfiCond20) CFA_XSP16 add(XSP16, 39)
          CFI Block cfiPicker21 Using cfiCommon1
          CFI (cfiPicker21) NoFunction
          CFI (cfiPicker21) Picker
        LCALL     ?Subroutine5 & 0xFFFF
??CrossCallReturnLabel_10:
        XRL       A,#0x2
        RET
          CFI EndBlock cfiCond18
          CFI EndBlock cfiCond19
          CFI EndBlock cfiCond20
          CFI EndBlock cfiPicker21
//  204 
//  205 /*********************************************************************
//  206  * @fn         MAC_SrcMatchDeleteEntry
//  207  *
//  208  * @brief      Delete a short or extended address from source address table. 
//  209  *             This function shall be not be called from ISR. It is not thread 
//  210  *             safe.
//  211  *
//  212  * @param      addr  - a pointer to sAddr_t which contains addrMode 
//  213  *                     and a union of a short 16-bit MAC address or an extended 
//  214  *                     64-bit MAC address to be deleted from the source address 
//  215  *                     table. 
//  216  * @param      panID - the device PAN ID. It is only used when the addr is 
//  217  *                     using short address  
//  218  *
//  219  * @return     MAC_SUCCESS or MAC_INVALID_PARAMETER (address to be deleted 
//  220  *                  cannot be found in the source address table).
//  221  */

        RSEG BANKED_CODE:HUGECODE:NOROOT(0)
//  222 uint8 MAC_SrcMatchDeleteEntry ( sAddr_t *addr, uint16 panID  )
MAC_SrcMatchDeleteEntry:
          CFI Block cfiBlock22 Using cfiCommon0
          CFI Function MAC_SrcMatchDeleteEntry
        CODE
//  223 {
        FUNCALL MAC_SrcMatchDeleteEntry, macSrcMatchCheckSrcAddr
        LOCFRAME ISTACK, 0, STACK
        LOCFRAME PSTACK, 0, STACK
        LOCFRAME XSTACK, 9, STACK
        LOCFRAME IOVERLAY, 0, STATIC
        LOCFRAME DOVERLAY, 0, STATIC
        ARGFRAME ISTACK, 0, STACK
        ARGFRAME PSTACK, 0, STACK
        ARGFRAME XSTACK, 9, STACK
        ARGFRAME IOVERLAY, 0, STATIC
        ARGFRAME DOVERLAY, 0, STATIC
        FUNCALL MAC_SrcMatchDeleteEntry, macSrcMatchSetEnableBit
        LOCFRAME ISTACK, 0, STACK
        LOCFRAME PSTACK, 0, STACK
        LOCFRAME XSTACK, 9, STACK
        LOCFRAME IOVERLAY, 0, STATIC
        LOCFRAME DOVERLAY, 0, STATIC
        ARGFRAME ISTACK, 0, STACK
        ARGFRAME PSTACK, 0, STACK
        ARGFRAME XSTACK, 9, STACK
        ARGFRAME IOVERLAY, 0, STATIC
        ARGFRAME DOVERLAY, 0, STATIC
        MOV       A,#-0x9
        LCALL     ?BANKED_ENTER_XDATA
          CFI DPH0 load(1, XDATA, add(CFA_XSP16, literal(-1)))
          CFI DPL0 load(1, XDATA, add(CFA_XSP16, literal(-2)))
          CFI ?BRET_EXT load(1, XDATA, add(CFA_XSP16, literal(-3)))
          CFI ?RET_HIGH load(1, XDATA, add(CFA_XSP16, literal(-4)))
          CFI ?RET_LOW load(1, XDATA, add(CFA_XSP16, literal(-5)))
          CFI R7 load(1, XDATA, add(CFA_XSP16, literal(-6)))
          CFI V0 load(1, XDATA, add(CFA_XSP16, literal(-7)))
          CFI VB load(1, XDATA, add(CFA_XSP16, literal(-8)))
          CFI R6 load(1, XDATA, add(CFA_XSP16, literal(-9)))
          CFI CFA_SP SP+0
          CFI CFA_XSP16 add(XSP16, 9)
        ; Saved register size: 9
        ; Auto size: 0
//  224   uint8 index;
//  225   
//  226   if ( addr == NULL || (addr->addrMode !=  SADDR_MODE_SHORT && addr->addrMode !=  SADDR_MODE_EXT))
        MOV       A,R2
        ORL       A,R3
        JZ        ??MAC_SrcMatchDeleteEntry_0
        MOV       A,R2
        ADD       A,#0x8
        MOV       R6,A
        CLR       A
        ADDC      A,R3
        MOV       R7,A
        MOV       DPL,R6
        MOV       DPH,R7
        MOVX      A,@DPTR
        MOV       R0,A
        MOV       A,#0x2
        XRL       A,R0
        JZ        ??MAC_SrcMatchDeleteEntry_1
        MOV       A,#0x3
        XRL       A,R0
        JNZ       ??MAC_SrcMatchDeleteEntry_0
//  227   {
//  228     return MAC_INVALID_PARAMETER;  
//  229   }
//  230   
//  231   /* Look up the source address table and find the entry. */
//  232   index = macSrcMatchCheckSrcAddr( addr, panID );
??MAC_SrcMatchDeleteEntry_1:
        ; Setup parameters for call to function macSrcMatchCheckSrcAddr
        LCALL     `??macSrcMatchCheckSrcAddr::?relay`; Banked call to: macSrcMatchCheckSrcAddr
        MOV       A,R1
        MOV       R1,A
//  233 
//  234   if( index == MAC_SRCMATCH_INVALID_INDEX )
        MOV       A,#-0x1
        XRL       A,R1
        JNZ       ??MAC_SrcMatchDeleteEntry_2
//  235   {
//  236     return MAC_INVALID_PARAMETER; 
??MAC_SrcMatchDeleteEntry_0:
        MOV       R1,#-0x18
        SJMP      ??MAC_SrcMatchDeleteEntry_3
//  237   }
//  238   
//  239   /* Clear Src Match enable bits */
//  240   macSrcMatchSetEnableBit( index, FALSE, addr->addrMode);
??MAC_SrcMatchDeleteEntry_2:
        ; Setup parameters for call to function macSrcMatchSetEnableBit
        MOV       DPL,R6
        MOV       DPH,R7
        MOVX      A,@DPTR
        MOV       R3,A
        MOV       R2,#0x0
        LCALL     `??macSrcMatchSetEnableBit::?relay`; Banked call to: macSrcMatchSetEnableBit
//  241 
//  242   return MAC_SUCCESS;
        MOV       R1,#0x0
??MAC_SrcMatchDeleteEntry_3:
        MOV       R7,#0x1
        LJMP      ?BANKED_LEAVE_XDATA
//  243 }
          CFI EndBlock cfiBlock22
//  244                   
//  245 /*********************************************************************
//  246  * @fn          MAC_SrcMatchAckAllPending
//  247  *
//  248  * @brief       Enabled/disable acknowledging all packets with pending bit set
//  249  *              The application normally enables it when adding new entries to 
//  250  *              the source address table fails due to the table is full, or 
//  251  *              disables it when more entries are deleted and the table has
//  252  *              empty slots.
//  253  *
//  254  * @param       option - TRUE (acknowledging all packets with pending field set)
//  255  *                       FALSE (address filtering and FSM control sets the 
//  256  *                              pending field) 
//  257  *
//  258  * @return      none
//  259  */

        RSEG BANKED_CODE:HUGECODE:NOROOT(0)
//  260 void MAC_SrcMatchAckAllPending ( uint8 option  ) 
MAC_SrcMatchAckAllPending:
          CFI Block cfiBlock23 Using cfiCommon0
          CFI Function MAC_SrcMatchAckAllPending
        CODE
//  261 {
        PUSH      DPL
          CFI DPL0 Frame(CFA_SP, 4)
          CFI CFA_SP SP+-4
        PUSH      DPH
          CFI DPH0 Frame(CFA_SP, 5)
          CFI CFA_SP SP+-5
        ; Saved register size: 2
        ; Auto size: 0
//  262   if( option == TRUE )
        MOV       A,#0x1
        XRL       A,R1
        MOV       DPTR,#macSrcMatchIsAckAllPending
        JNZ       ??MAC_SrcMatchAckAllPending_0
//  263   {
//  264     macSrcMatchIsAckAllPending = TRUE;
        MOV       A,#0x1
        MOVX      @DPTR,A
//  265     
//  266     /* Set the PENDING_OR register */
//  267     MAC_RADIO_TURN_ON_PENDING_OR();
        MOV       DPTR,#0x618a
        MOVX      A,@DPTR
        SETB      0xE0 /* A   */.2
        SJMP      ??MAC_SrcMatchAckAllPending_1
//  268   }
//  269   else
//  270   {
//  271     macSrcMatchIsAckAllPending = FALSE;
??MAC_SrcMatchAckAllPending_0:
        CLR       A
        MOVX      @DPTR,A
//  272     
//  273     /* Clear the PENDING_OR register */
//  274     MAC_RADIO_TURN_OFF_PENDING_OR();
        MOV       DPTR,#0x618a
        MOVX      A,@DPTR
        CLR       0xE0 /* A   */.2
??MAC_SrcMatchAckAllPending_1:
        MOVX      @DPTR,A
//  275   }
//  276 }
        SJMP      ??Subroutine7_0
          CFI EndBlock cfiBlock23

        RSEG BANKED_CODE:HUGECODE:NOROOT(0)
?Subroutine0:
          CFI Block cfiBlock24 Using cfiCommon0
          CFI NoFunction
          CFI CFA_SP SP+-5
          CFI CFA_XSP16 add(XSP16, 3)
          CFI DPL0 Frame(CFA_SP, 4)
          CFI DPH0 Frame(CFA_SP, 5)
        MOV       R3,#0x61
        LCALL     `??macMemReadRam::?relay`; Banked call to: macMemReadRam
        ; Setup parameters for call to function osal_build_uint32
        ; Setup parameters for call to function osal_build_uint32
        MOV       R1,#0x3
        MOV       R2,?XSP + 0
        MOV       R3,?XSP + 1
        LCALL     `??osal_build_uint32::?relay`; Banked call to: osal_build_uint32
        MOV       A,#0x3
        LCALL     ?DEALLOC_XSTACK8
          CFI EndBlock cfiBlock24
        REQUIRE ??Subroutine7_0
        ; // Fall through to label ??Subroutine7_0

        RSEG BANKED_CODE:HUGECODE:NOROOT(0)
??Subroutine7_0:
          CFI Block cfiBlock25 Using cfiCommon0
          CFI NoFunction
          CFI CFA_SP SP+-5
          CFI DPL0 Frame(CFA_SP, 4)
          CFI DPH0 Frame(CFA_SP, 5)
        POP       DPH
          CFI CFA_SP SP+-4
          CFI DPH0 SameValue
        POP       DPL
          CFI CFA_SP SP+-3
          CFI DPL0 SameValue
        LJMP      ?BRET
          CFI EndBlock cfiBlock25
//  277 
//  278 /*********************************************************************
//  279  * @fn          MAC_SrcMatchCheckAllPending
//  280  *
//  281  * @brief       Check if acknowledging all packets with pending bit set
//  282  *              is enabled. 
//  283  *
//  284  * @param       none 
//  285  *
//  286  * @return      MAC_AUTOACK_PENDING_ALL_ON or MAC_AUTOACK_PENDING_ALL_OFF
//  287  */

        RSEG BANKED_CODE:HUGECODE:NOROOT(0)
//  288 uint8 MAC_SrcMatchCheckAllPending ( void )
MAC_SrcMatchCheckAllPending:
          CFI Block cfiBlock26 Using cfiCommon0
          CFI Function MAC_SrcMatchCheckAllPending
        CODE
//  289 {
        PUSH      DPL
          CFI DPL0 Frame(CFA_SP, 4)
          CFI CFA_SP SP+-4
        PUSH      DPH
          CFI DPH0 Frame(CFA_SP, 5)
          CFI CFA_SP SP+-5
        ; Saved register size: 2
        ; Auto size: 0
//  290   if( macSrcMatchIsAckAllPending == TRUE )
        MOV       DPTR,#macSrcMatchIsAckAllPending
        MOVX      A,@DPTR
        XRL       A,#0x1
        JNZ       ??MAC_SrcMatchCheckAllPending_0
//  291   {
//  292     return MAC_AUTOACK_PENDING_ALL_ON; 
        MOV       R1,#-0x2
        SJMP      ??MAC_SrcMatchCheckAllPending_1
//  293   }
//  294   
//  295   return MAC_AUTOACK_PENDING_ALL_OFF;
??MAC_SrcMatchCheckAllPending_0:
        MOV       R1,#-0x1
??MAC_SrcMatchCheckAllPending_1:
        SJMP      ??Subroutine7_0
//  296 }
          CFI EndBlock cfiBlock26
//  297 
//  298 /*********************************************************************
//  299  * @fn          MAC_SrcMatchCheckResult
//  300  *
//  301  * @brief       Check the result of source matching
//  302  *
//  303  * @param       index - index of the entry in the source address table
//  304  *
//  305  * @return      TRUE or FALSE
//  306  */

        RSEG BANKED_CODE:HUGECODE:NOROOT(0)
//  307 MAC_INTERNAL_API bool MAC_SrcMatchCheckResult( void )
MAC_SrcMatchCheckResult:
          CFI Block cfiBlock27 Using cfiCommon0
          CFI Function MAC_SrcMatchCheckResult
        CODE
//  308 {
        PUSH      DPL
          CFI DPL0 Frame(CFA_SP, 4)
          CFI CFA_SP SP+-4
        PUSH      DPH
          CFI DPH0 Frame(CFA_SP, 5)
          CFI CFA_SP SP+-5
        ; Saved register size: 2
        ; Auto size: 0
//  309   uint8 resIndex;
//  310   
//  311   if ( macSrcMatchIsAckAllPending )
        MOV       DPTR,#macSrcMatchIsAckAllPending
        MOVX      A,@DPTR
        JZ        ??MAC_SrcMatchCheckResult_0
//  312   {
//  313     return (TRUE);
        MOV       R1,#0x1
        SJMP      ??MAC_SrcMatchCheckResult_1
//  314   }
//  315   
//  316   MAC_RADIO_SRC_MATCH_RESINDEX( resIndex );
??MAC_SrcMatchCheckResult_0:
        MOV       DPTR,#0x6163
        MOVX      A,@DPTR
        MOV       R0,A
//  317   
//  318   return ( resIndex & AUTOPEND_RES );
        MOV       A,#0x40
        ANL       A,R0
        MOV       R1,A
??MAC_SrcMatchCheckResult_1:
        SJMP      ??Subroutine7_0
//  319 }
          CFI EndBlock cfiBlock27
//  320 
//  321 /*********************************************************************
//  322  * @fn          macSrcMatchFindEmptyEntry
//  323  *
//  324  * @brief       return index of the first empty entry found
//  325  *
//  326  * @param       macSrcMatchAddrMode - Address Mode for the entry. Valid values
//  327  *              are SADDR_MODE_SHORT or SADDR_MODE_EXT
//  328  *
//  329  * @return      uint8 - return index of the first empty entry found
//  330  */
//  331 static uint8 macSrcMatchFindEmptyEntry( uint8 macSrcMatchAddrMode )
//  332 {
//  333   uint8  index;
//  334   uint24 shortAddrEnable = MAC_RADIO_SRC_MATCH_GET_SHORTADDR_EN();
//  335   uint24 extAddrEnable = MAC_RADIO_SRC_MATCH_GET_EXTADDR_EN();
//  336   uint24 enable = shortAddrEnable | extAddrEnable;
//  337 
//  338   if( macSrcMatchAddrMode == SADDR_MODE_SHORT )
//  339    {
//  340      for( index = 0; index < MAC_SRCMATCH_SHORT_MAX_NUM_ENTRIES; index ++ )
//  341      {
//  342        /* Both 2n bit of extAddrEnable and
//  343         * corresponding bit of shortAddrEnable must be clear
//  344         * in order to assume that the entry location for a short address
//  345         * is not used.
//  346         */
//  347        if( (extAddrEnable & ((uint24)0x01 << ((index/2)*2))) == 0 &&
//  348            (shortAddrEnable & ((uint24)0x01 << index)) == 0 )
//  349        {
//  350          return index;
//  351        }
//  352      }
//  353    }
//  354    else
//  355    {
//  356      for( index = 0; index < MAC_SRCMATCH_EXT_MAX_NUM_ENTRIES; index++ )
//  357      {
//  358        /* Both 2n bit of extAddrEnable and
//  359         * 2n bit and 2n+1 bit of shortAddrEnable must be clear in order
//  360         * to assume that the entry location for an extended address
//  361         * is not used.        
//  362         */
//  363        if( (enable & ((uint24)0x03 << (index*2))) == 0 )
//  364        {
//  365          return index;
//  366        }
//  367      }
//  368    }
//  369   return index;
//  370 }
//  371 
//  372 /*********************************************************************
//  373  * @fn         macSrcMatchCheckSrcAddr
//  374  *
//  375  * @brief      Check if a short or extended address is in the source address table.
//  376  *             This function shall not be called from ISR. It is not thread safe.
//  377  *
//  378  * @param      addr - a pointer to sAddr_t which contains addrMode 
//  379  *                    and a union of a short 16-bit MAC address or an extended 
//  380  *                    64-bit MAC address to be checked in the source address table. 
//  381  * @param      panID - the device PAN ID. It is only used when the addr is 
//  382  *                     using short address 
//  383 
//  384  * @return     uint8 - index of the entry in the table. Return 
//  385  *                     MAC_SRCMATCH_INVALID_INDEX (0xFF) if address not found.
//  386  */

        RSEG BANKED_CODE:HUGECODE:NOROOT(0)
//  387 static uint8 macSrcMatchCheckSrcAddr ( sAddr_t *addr, uint16 panID  )
macSrcMatchCheckSrcAddr:
          CFI Block cfiBlock28 Using cfiCommon0
          CFI Function macSrcMatchCheckSrcAddr
        CODE
//  388 {
        FUNCALL macSrcMatchCheckSrcAddr, macSrcMatchGetShortAddrEnableBit
        LOCFRAME ISTACK, 0, STACK
        LOCFRAME PSTACK, 0, STACK
        LOCFRAME XSTACK, 31, STACK
        LOCFRAME IOVERLAY, 0, STATIC
        LOCFRAME DOVERLAY, 0, STATIC
        ARGFRAME ISTACK, 0, STACK
        ARGFRAME PSTACK, 0, STACK
        ARGFRAME XSTACK, 31, STACK
        ARGFRAME IOVERLAY, 0, STATIC
        ARGFRAME DOVERLAY, 0, STATIC
        FUNCALL macSrcMatchCheckSrcAddr, macSrcMatchGetExtAddrEnableBit
        LOCFRAME ISTACK, 0, STACK
        LOCFRAME PSTACK, 0, STACK
        LOCFRAME XSTACK, 31, STACK
        LOCFRAME IOVERLAY, 0, STATIC
        LOCFRAME DOVERLAY, 0, STATIC
        ARGFRAME ISTACK, 0, STACK
        ARGFRAME PSTACK, 0, STACK
        ARGFRAME XSTACK, 31, STACK
        ARGFRAME IOVERLAY, 0, STATIC
        ARGFRAME DOVERLAY, 0, STATIC
        FUNCALL macSrcMatchCheckSrcAddr, macMemReadRam
        LOCFRAME ISTACK, 0, STACK
        LOCFRAME PSTACK, 0, STACK
        LOCFRAME XSTACK, 31, STACK
        LOCFRAME IOVERLAY, 0, STATIC
        LOCFRAME DOVERLAY, 0, STATIC
        ARGFRAME ISTACK, 0, STACK
        ARGFRAME PSTACK, 0, STACK
        ARGFRAME XSTACK, 31, STACK
        ARGFRAME IOVERLAY, 0, STATIC
        ARGFRAME DOVERLAY, 0, STATIC
        FUNCALL macSrcMatchCheckSrcAddr, osal_memcmp
        LOCFRAME ISTACK, 0, STACK
        LOCFRAME PSTACK, 0, STACK
        LOCFRAME XSTACK, 34, STACK
        LOCFRAME IOVERLAY, 0, STATIC
        LOCFRAME DOVERLAY, 0, STATIC
        ARGFRAME ISTACK, 0, STACK
        ARGFRAME PSTACK, 0, STACK
        ARGFRAME XSTACK, 34, STACK
        ARGFRAME IOVERLAY, 0, STATIC
        ARGFRAME DOVERLAY, 0, STATIC
        REQUIRE ?V0
        REQUIRE ?V1
        REQUIRE ?V2
        REQUIRE ?V3
        REQUIRE ?V4
        REQUIRE ?V5
        REQUIRE ?V6
        REQUIRE ?V7
        MOV       A,#-0x10
        LCALL     ?BANKED_ENTER_XDATA
          CFI DPH0 load(1, XDATA, add(CFA_XSP16, literal(-1)))
          CFI DPL0 load(1, XDATA, add(CFA_XSP16, literal(-2)))
          CFI ?BRET_EXT load(1, XDATA, add(CFA_XSP16, literal(-3)))
          CFI ?RET_HIGH load(1, XDATA, add(CFA_XSP16, literal(-4)))
          CFI ?RET_LOW load(1, XDATA, add(CFA_XSP16, literal(-5)))
          CFI R7 load(1, XDATA, add(CFA_XSP16, literal(-6)))
          CFI V7 load(1, XDATA, add(CFA_XSP16, literal(-7)))
          CFI V6 load(1, XDATA, add(CFA_XSP16, literal(-8)))
          CFI V5 load(1, XDATA, add(CFA_XSP16, literal(-9)))
          CFI V4 load(1, XDATA, add(CFA_XSP16, literal(-10)))
          CFI V3 load(1, XDATA, add(CFA_XSP16, literal(-11)))
          CFI V2 load(1, XDATA, add(CFA_XSP16, literal(-12)))
          CFI V1 load(1, XDATA, add(CFA_XSP16, literal(-13)))
          CFI V0 load(1, XDATA, add(CFA_XSP16, literal(-14)))
          CFI VB load(1, XDATA, add(CFA_XSP16, literal(-15)))
          CFI R6 load(1, XDATA, add(CFA_XSP16, literal(-16)))
          CFI CFA_SP SP+0
          CFI CFA_XSP16 add(XSP16, 16)
        ; Saved register size: 16
        ; Auto size: 15
        MOV       A,#-0xf
        LCALL     ?ALLOC_XSTACK8
          CFI CFA_XSP16 add(XSP16, 31)
//  389   uint8 index;     
//  390   uint8 *pAddr;
//  391   uint8 entrySize;
//  392   uint8 indexUsed;
//  393   uint8 indexSize;
//  394   uint8 entry[MAC_SRCMATCH_SHORT_ENTRY_SIZE];  
//  395   uint8 ramEntry[MAC_SRCMATCH_EXT_ENTRY_SIZE];
//  396   uint24 enable;
//  397   
//  398   /*
//  399    Currently, shadow memory is not supported to optimize SPI traffic.
//  400   */
//  401   if( addr->addrMode ==  SADDR_MODE_SHORT )
        MOV       DPL,R2
        MOV       DPH,R3
        INC       DPTR
        INC       DPTR
        INC       DPTR
        INC       DPTR
        INC       DPTR
        INC       DPTR
        INC       DPTR
        INC       DPTR
        MOVX      A,@DPTR
        XRL       A,#0x2
        JNZ       ??macSrcMatchCheckSrcAddr_0
//  402   {
//  403     entry[0] = LO_UINT16( panID );  /* Little Endian for the radio RAM */
        MOV       A,#0x3
        LCALL     ?XSTACK_DISP0_8
        MOV       A,R4
        MOVX      @DPTR,A
//  404     entry[1] = HI_UINT16( panID );
        MOV       A,#0x4
        LCALL     ?XSTACK_DISP0_8
        MOV       A,R5
        MOVX      @DPTR,A
//  405     entry[2] = LO_UINT16( addr->addr.shortAddr );
        MOV       DPL,R2
        MOV       DPH,R3
        MOVX      A,@DPTR
        PUSH      A
          CFI CFA_SP SP+-1
        MOV       A,#0x5
        LCALL     ?XSTACK_DISP0_8
        POP       A
          CFI CFA_SP SP+0
        MOVX      @DPTR,A
//  406     entry[3] = HI_UINT16( addr->addr.shortAddr );
        MOV       DPL,R2
        MOV       DPH,R3
        INC       DPTR
        MOVX      A,@DPTR
        PUSH      A
          CFI CFA_SP SP+-1
        MOV       A,#0x6
        LCALL     ?XSTACK_DISP0_8
        POP       A
          CFI CFA_SP SP+0
        MOVX      @DPTR,A
//  407     pAddr = entry;
        MOV       A,#0x3
        LCALL     ?XSTACK_DISP100_8
        MOV       A,#0x1
        LCALL     ?XSTACK_DISP0_8
        MOV       A,R0
        MOVX      @DPTR,A
        INC       DPTR
        MOV       A,R1
        MOVX      @DPTR,A
//  408     entrySize = MAC_SRCMATCH_SHORT_ENTRY_SIZE;
        MOV       R6,#0x4
//  409     indexSize = 1;
        MOV       DPL,?XSP + 0
        MOV       DPH,?XSP + 1
        MOV       A,#0x1
        MOVX      @DPTR,A
//  410     enable = MAC_RADIO_SRC_MATCH_GET_SHORTADDR_EN();
        ; Setup parameters for call to function macSrcMatchGetShortAddrEnableBit
        LCALL     `??macSrcMatchGetShortAddrEnableBit::?relay`; Banked call to: macSrcMatchGetShortAddrEnableBit
        SJMP      ??macSrcMatchCheckSrcAddr_1
//  411   }
//  412   else
//  413   {
//  414     pAddr = addr->addr.extAddr;
??macSrcMatchCheckSrcAddr_0:
        MOV       A,#0x1
        LCALL     ?XSTACK_DISP0_8
        MOV       A,R2
        MOVX      @DPTR,A
        INC       DPTR
        MOV       A,R3
        MOVX      @DPTR,A
//  415     entrySize = MAC_SRCMATCH_EXT_ENTRY_SIZE;
        MOV       R6,#0x8
//  416     indexSize = 2;
        MOV       DPL,?XSP + 0
        MOV       DPH,?XSP + 1
        MOV       A,#0x2
        MOVX      @DPTR,A
//  417     enable = MAC_RADIO_SRC_MATCH_GET_EXTADDR_EN();
        ; Setup parameters for call to function macSrcMatchGetExtAddrEnableBit
        LCALL     `??macSrcMatchGetExtAddrEnableBit::?relay`; Banked call to: macSrcMatchGetExtAddrEnableBit
??macSrcMatchCheckSrcAddr_1:
        MOV       ?V4,R2
        MOV       ?V5,R3
        MOV       ?V6,R4
        MOV       ?V7,R5
//  418   }
//  419   
//  420   for( index = 0; index < MAC_SRCMATCH_SHORT_MAX_NUM_ENTRIES; index += indexSize )
        MOV       R7,#0x0
//  421   {
//  422     /* Check if the entry is enabled */
//  423     if( macSrcMatchCheckEnableBit( index, enable ) == FALSE )
??macSrcMatchCheckSrcAddr_2:
        MOV       ?V0,?V4
        MOV       ?V1,?V5
        MOV       ?V2,?V6
        MOV       ?V3,?V7
        MOV       A,R7
        MOV       R0,#?V0
        LCALL     ?UL_SHR
        MOV       A,?V0
        MOV       C,0xE0 /* A   */.0
        JNC       ??macSrcMatchCheckSrcAddr_3
//  424     {
//  425       continue; 
//  426     }
//  427     
//  428     indexUsed = index / indexSize;
        MOV       DPL,?XSP + 0
        MOV       DPH,?XSP + 1
        MOVX      A,@DPTR
        MOV       B,A
        MOV       A,R7
        DIV       AB
        MOV       ?V3,A
//  429       
//  430     /* Compare the short address or extended address */
//  431     MAC_RADIO_SRC_MATCH_TABLE_READ( ( indexUsed * entrySize ), ramEntry, entrySize );
        ; Setup parameters for call to function macMemReadRam
        MOV       A,R6
        MOV       R1,A
        MOV       A,#0x7
        LCALL     ?XSTACK_DISP102_8
        MOV       A,?V3
        MOV       B,R1
        MUL       AB
        MOV       R2,A
        MOV       R0,B
        CLR       A
        ADD       A,R0
        MOV       R3,A
        MOV       A,#0x61
        ADDC      A,R3
        MOV       R3,A
        LCALL     `??macMemReadRam::?relay`; Banked call to: macMemReadRam
//  432      
//  433     if( osal_memcmp( pAddr, ramEntry, entrySize ) == TRUE )
        ; Setup parameters for call to function osal_memcmp
        MOV       A,#0x7
        LCALL     ?XSTACK_DISP100_8
        MOV       ?V0,R0
        MOV       ?V1,R1
        MOV       ?V2,#0x0
        MOV       R0,#?V0
        LCALL     ?PUSH_XSTACK_I_THREE
          CFI CFA_XSP16 add(XSP16, 34)
        MOV       A,R6
        MOV       R4,A
        MOV       R5,#0x0
        MOV       A,#0x4
        LCALL     ?XSTACK_DISP0_8
        LCALL     ?Subroutine4 & 0xFFFF
??CrossCallReturnLabel_9:
        MOV       R1,DPL
        MOV       R2,DPH
        MOV       R3,#0x0
        LCALL     `??osal_memcmp::?relay`; Banked call to: osal_memcmp
        MOV       A,#0x3
        LCALL     ?DEALLOC_XSTACK8
          CFI CFA_XSP16 add(XSP16, 31)
        MOV       A,R1
        XRL       A,#0x1
        JNZ       ??macSrcMatchCheckSrcAddr_3
//  434     {
//  435       /* Match found */
//  436       return indexUsed;
        MOV       R1,?V3
        SJMP      ??macSrcMatchCheckSrcAddr_4
//  437     }
//  438   }
??macSrcMatchCheckSrcAddr_3:
        MOV       DPL,?XSP + 0
        MOV       DPH,?XSP + 1
        MOVX      A,@DPTR
        ADD       A,R7
        MOV       R7,A
        CLR       C
        SUBB      A,#0x18
        JC        ??macSrcMatchCheckSrcAddr_2
//  439   
//  440   return MAC_SRCMATCH_INVALID_INDEX;
        MOV       R1,#-0x1
??macSrcMatchCheckSrcAddr_4:
        MOV       A,#0xf
        LJMP      ?Subroutine1 & 0xFFFF
//  441 }
          CFI EndBlock cfiBlock28

        RSEG BANKED_CODE:HUGECODE:NOROOT(0)
?Subroutine4:
          CFI Block cfiCond29 Using cfiCommon0
          CFI Function MAC_SrcMatchAddEntry
          CFI Conditional ??CrossCallReturnLabel_8
          CFI R6 load(1, XDATA, add(CFA_XSP16, literal(-16)))
          CFI VB load(1, XDATA, add(CFA_XSP16, literal(-15)))
          CFI V0 load(1, XDATA, add(CFA_XSP16, literal(-14)))
          CFI V1 load(1, XDATA, add(CFA_XSP16, literal(-13)))
          CFI V2 load(1, XDATA, add(CFA_XSP16, literal(-12)))
          CFI V3 load(1, XDATA, add(CFA_XSP16, literal(-11)))
          CFI V4 load(1, XDATA, add(CFA_XSP16, literal(-10)))
          CFI V5 load(1, XDATA, add(CFA_XSP16, literal(-9)))
          CFI V6 load(1, XDATA, add(CFA_XSP16, literal(-8)))
          CFI V7 load(1, XDATA, add(CFA_XSP16, literal(-7)))
          CFI R7 load(1, XDATA, add(CFA_XSP16, literal(-6)))
          CFI ?RET_LOW load(1, XDATA, add(CFA_XSP16, literal(-5)))
          CFI ?RET_HIGH load(1, XDATA, add(CFA_XSP16, literal(-4)))
          CFI ?BRET_EXT load(1, XDATA, add(CFA_XSP16, literal(-3)))
          CFI DPL0 load(1, XDATA, add(CFA_XSP16, literal(-2)))
          CFI DPH0 load(1, XDATA, add(CFA_XSP16, literal(-1)))
          CFI CFA_SP SP+-2
          CFI CFA_XSP16 add(XSP16, 39)
          CFI Block cfiCond30 Using cfiCommon0
          CFI (cfiCond30) Function macSrcMatchCheckSrcAddr
          CFI (cfiCond30) Conditional ??CrossCallReturnLabel_9
          CFI (cfiCond30) R6 load(1, XDATA, add(CFA_XSP16, literal(-16)))
          CFI (cfiCond30) VB load(1, XDATA, add(CFA_XSP16, literal(-15)))
          CFI (cfiCond30) V0 load(1, XDATA, add(CFA_XSP16, literal(-14)))
          CFI (cfiCond30) V1 load(1, XDATA, add(CFA_XSP16, literal(-13)))
          CFI (cfiCond30) V2 load(1, XDATA, add(CFA_XSP16, literal(-12)))
          CFI (cfiCond30) V3 load(1, XDATA, add(CFA_XSP16, literal(-11)))
          CFI (cfiCond30) V4 load(1, XDATA, add(CFA_XSP16, literal(-10)))
          CFI (cfiCond30) V5 load(1, XDATA, add(CFA_XSP16, literal(-9)))
          CFI (cfiCond30) V6 load(1, XDATA, add(CFA_XSP16, literal(-8)))
          CFI (cfiCond30) V7 load(1, XDATA, add(CFA_XSP16, literal(-7)))
          CFI (cfiCond30) R7 load(1, XDATA, add(CFA_XSP16, literal(-6)))
          CFI (cfiCond30) ?RET_LOW load(1, XDATA, add(CFA_XSP16, literal(-5)))
          CFI (cfiCond30) ?RET_HIGH load(1, XDATA, add(CFA_XSP16, literal(-4)))
          CFI (cfiCond30) ?BRET_EXT load(1, XDATA, add(CFA_XSP16, literal(-3)))
          CFI (cfiCond30) DPL0 load(1, XDATA, add(CFA_XSP16, literal(-2)))
          CFI (cfiCond30) DPH0 load(1, XDATA, add(CFA_XSP16, literal(-1)))
          CFI (cfiCond30) CFA_SP SP+-2
          CFI (cfiCond30) CFA_XSP16 add(XSP16, 34)
          CFI Block cfiPicker31 Using cfiCommon1
          CFI (cfiPicker31) NoFunction
          CFI (cfiPicker31) Picker
        LCALL     ?Subroutine6 & 0xFFFF
??CrossCallReturnLabel_12:
        RET
          CFI EndBlock cfiCond29
          CFI EndBlock cfiCond30
          CFI EndBlock cfiPicker31

        RSEG BANKED_CODE:HUGECODE:NOROOT(0)
?Subroutine6:
          CFI Block cfiCond32 Using cfiCommon0
          CFI Function MAC_SrcMatchAddEntry
          CFI Conditional ??CrossCallReturnLabel_13, ??CrossCallReturnLabel_11, ??CrossCallReturnLabel_3
          CFI R6 load(1, XDATA, add(CFA_XSP16, literal(-16)))
          CFI VB load(1, XDATA, add(CFA_XSP16, literal(-15)))
          CFI V0 load(1, XDATA, add(CFA_XSP16, literal(-14)))
          CFI V1 load(1, XDATA, add(CFA_XSP16, literal(-13)))
          CFI V2 load(1, XDATA, add(CFA_XSP16, literal(-12)))
          CFI V3 load(1, XDATA, add(CFA_XSP16, literal(-11)))
          CFI V4 load(1, XDATA, add(CFA_XSP16, literal(-10)))
          CFI V5 load(1, XDATA, add(CFA_XSP16, literal(-9)))
          CFI V6 load(1, XDATA, add(CFA_XSP16, literal(-8)))
          CFI V7 load(1, XDATA, add(CFA_XSP16, literal(-7)))
          CFI R7 load(1, XDATA, add(CFA_XSP16, literal(-6)))
          CFI ?RET_LOW load(1, XDATA, add(CFA_XSP16, literal(-5)))
          CFI ?RET_HIGH load(1, XDATA, add(CFA_XSP16, literal(-4)))
          CFI ?BRET_EXT load(1, XDATA, add(CFA_XSP16, literal(-3)))
          CFI DPL0 load(1, XDATA, add(CFA_XSP16, literal(-2)))
          CFI DPH0 load(1, XDATA, add(CFA_XSP16, literal(-1)))
          CFI CFA_SP SP+-6
          CFI CFA_XSP16 add(XSP16, 39)
          CFI Block cfiCond33 Using cfiCommon0
          CFI (cfiCond33) Function MAC_SrcMatchAddEntry
          CFI (cfiCond33) Conditional ??CrossCallReturnLabel_13, ??CrossCallReturnLabel_11, ??CrossCallReturnLabel_4
          CFI (cfiCond33) R6 load(1, XDATA, add(CFA_XSP16, literal(-16)))
          CFI (cfiCond33) VB load(1, XDATA, add(CFA_XSP16, literal(-15)))
          CFI (cfiCond33) V0 load(1, XDATA, add(CFA_XSP16, literal(-14)))
          CFI (cfiCond33) V1 load(1, XDATA, add(CFA_XSP16, literal(-13)))
          CFI (cfiCond33) V2 load(1, XDATA, add(CFA_XSP16, literal(-12)))
          CFI (cfiCond33) V3 load(1, XDATA, add(CFA_XSP16, literal(-11)))
          CFI (cfiCond33) V4 load(1, XDATA, add(CFA_XSP16, literal(-10)))
          CFI (cfiCond33) V5 load(1, XDATA, add(CFA_XSP16, literal(-9)))
          CFI (cfiCond33) V6 load(1, XDATA, add(CFA_XSP16, literal(-8)))
          CFI (cfiCond33) V7 load(1, XDATA, add(CFA_XSP16, literal(-7)))
          CFI (cfiCond33) R7 load(1, XDATA, add(CFA_XSP16, literal(-6)))
          CFI (cfiCond33) ?RET_LOW load(1, XDATA, add(CFA_XSP16, literal(-5)))
          CFI (cfiCond33) ?RET_HIGH load(1, XDATA, add(CFA_XSP16, literal(-4)))
          CFI (cfiCond33) ?BRET_EXT load(1, XDATA, add(CFA_XSP16, literal(-3)))
          CFI (cfiCond33) DPL0 load(1, XDATA, add(CFA_XSP16, literal(-2)))
          CFI (cfiCond33) DPH0 load(1, XDATA, add(CFA_XSP16, literal(-1)))
          CFI (cfiCond33) CFA_SP SP+-6
          CFI (cfiCond33) CFA_XSP16 add(XSP16, 39)
          CFI Block cfiCond34 Using cfiCommon0
          CFI (cfiCond34) Function MAC_SrcMatchAddEntry
          CFI (cfiCond34) Conditional ??CrossCallReturnLabel_13, ??CrossCallReturnLabel_11, ??CrossCallReturnLabel_5
          CFI (cfiCond34) R6 load(1, XDATA, add(CFA_XSP16, literal(-16)))
          CFI (cfiCond34) VB load(1, XDATA, add(CFA_XSP16, literal(-15)))
          CFI (cfiCond34) V0 load(1, XDATA, add(CFA_XSP16, literal(-14)))
          CFI (cfiCond34) V1 load(1, XDATA, add(CFA_XSP16, literal(-13)))
          CFI (cfiCond34) V2 load(1, XDATA, add(CFA_XSP16, literal(-12)))
          CFI (cfiCond34) V3 load(1, XDATA, add(CFA_XSP16, literal(-11)))
          CFI (cfiCond34) V4 load(1, XDATA, add(CFA_XSP16, literal(-10)))
          CFI (cfiCond34) V5 load(1, XDATA, add(CFA_XSP16, literal(-9)))
          CFI (cfiCond34) V6 load(1, XDATA, add(CFA_XSP16, literal(-8)))
          CFI (cfiCond34) V7 load(1, XDATA, add(CFA_XSP16, literal(-7)))
          CFI (cfiCond34) R7 load(1, XDATA, add(CFA_XSP16, literal(-6)))
          CFI (cfiCond34) ?RET_LOW load(1, XDATA, add(CFA_XSP16, literal(-5)))
          CFI (cfiCond34) ?RET_HIGH load(1, XDATA, add(CFA_XSP16, literal(-4)))
          CFI (cfiCond34) ?BRET_EXT load(1, XDATA, add(CFA_XSP16, literal(-3)))
          CFI (cfiCond34) DPL0 load(1, XDATA, add(CFA_XSP16, literal(-2)))
          CFI (cfiCond34) DPH0 load(1, XDATA, add(CFA_XSP16, literal(-1)))
          CFI (cfiCond34) CFA_SP SP+-6
          CFI (cfiCond34) CFA_XSP16 add(XSP16, 39)
          CFI Block cfiCond35 Using cfiCommon0
          CFI (cfiCond35) Function MAC_SrcMatchAddEntry
          CFI (cfiCond35) Conditional ??CrossCallReturnLabel_13, ??CrossCallReturnLabel_11, ??CrossCallReturnLabel_6
          CFI (cfiCond35) R6 load(1, XDATA, add(CFA_XSP16, literal(-16)))
          CFI (cfiCond35) VB load(1, XDATA, add(CFA_XSP16, literal(-15)))
          CFI (cfiCond35) V0 load(1, XDATA, add(CFA_XSP16, literal(-14)))
          CFI (cfiCond35) V1 load(1, XDATA, add(CFA_XSP16, literal(-13)))
          CFI (cfiCond35) V2 load(1, XDATA, add(CFA_XSP16, literal(-12)))
          CFI (cfiCond35) V3 load(1, XDATA, add(CFA_XSP16, literal(-11)))
          CFI (cfiCond35) V4 load(1, XDATA, add(CFA_XSP16, literal(-10)))
          CFI (cfiCond35) V5 load(1, XDATA, add(CFA_XSP16, literal(-9)))
          CFI (cfiCond35) V6 load(1, XDATA, add(CFA_XSP16, literal(-8)))
          CFI (cfiCond35) V7 load(1, XDATA, add(CFA_XSP16, literal(-7)))
          CFI (cfiCond35) R7 load(1, XDATA, add(CFA_XSP16, literal(-6)))
          CFI (cfiCond35) ?RET_LOW load(1, XDATA, add(CFA_XSP16, literal(-5)))
          CFI (cfiCond35) ?RET_HIGH load(1, XDATA, add(CFA_XSP16, literal(-4)))
          CFI (cfiCond35) ?BRET_EXT load(1, XDATA, add(CFA_XSP16, literal(-3)))
          CFI (cfiCond35) DPL0 load(1, XDATA, add(CFA_XSP16, literal(-2)))
          CFI (cfiCond35) DPH0 load(1, XDATA, add(CFA_XSP16, literal(-1)))
          CFI (cfiCond35) CFA_SP SP+-6
          CFI (cfiCond35) CFA_XSP16 add(XSP16, 39)
          CFI Block cfiCond36 Using cfiCommon0
          CFI (cfiCond36) Function MAC_SrcMatchAddEntry
          CFI (cfiCond36) Conditional ??CrossCallReturnLabel_13, ??CrossCallReturnLabel_11, ??CrossCallReturnLabel_7
          CFI (cfiCond36) R6 load(1, XDATA, add(CFA_XSP16, literal(-16)))
          CFI (cfiCond36) VB load(1, XDATA, add(CFA_XSP16, literal(-15)))
          CFI (cfiCond36) V0 load(1, XDATA, add(CFA_XSP16, literal(-14)))
          CFI (cfiCond36) V1 load(1, XDATA, add(CFA_XSP16, literal(-13)))
          CFI (cfiCond36) V2 load(1, XDATA, add(CFA_XSP16, literal(-12)))
          CFI (cfiCond36) V3 load(1, XDATA, add(CFA_XSP16, literal(-11)))
          CFI (cfiCond36) V4 load(1, XDATA, add(CFA_XSP16, literal(-10)))
          CFI (cfiCond36) V5 load(1, XDATA, add(CFA_XSP16, literal(-9)))
          CFI (cfiCond36) V6 load(1, XDATA, add(CFA_XSP16, literal(-8)))
          CFI (cfiCond36) V7 load(1, XDATA, add(CFA_XSP16, literal(-7)))
          CFI (cfiCond36) R7 load(1, XDATA, add(CFA_XSP16, literal(-6)))
          CFI (cfiCond36) ?RET_LOW load(1, XDATA, add(CFA_XSP16, literal(-5)))
          CFI (cfiCond36) ?RET_HIGH load(1, XDATA, add(CFA_XSP16, literal(-4)))
          CFI (cfiCond36) ?BRET_EXT load(1, XDATA, add(CFA_XSP16, literal(-3)))
          CFI (cfiCond36) DPL0 load(1, XDATA, add(CFA_XSP16, literal(-2)))
          CFI (cfiCond36) DPH0 load(1, XDATA, add(CFA_XSP16, literal(-1)))
          CFI (cfiCond36) CFA_SP SP+-6
          CFI (cfiCond36) CFA_XSP16 add(XSP16, 39)
          CFI Block cfiCond37 Using cfiCommon0
          CFI (cfiCond37) Function MAC_SrcMatchAddEntry
          CFI (cfiCond37) Conditional ??CrossCallReturnLabel_13, ??CrossCallReturnLabel_10, ??CrossCallReturnLabel_0
          CFI (cfiCond37) R6 load(1, XDATA, add(CFA_XSP16, literal(-16)))
          CFI (cfiCond37) VB load(1, XDATA, add(CFA_XSP16, literal(-15)))
          CFI (cfiCond37) V0 load(1, XDATA, add(CFA_XSP16, literal(-14)))
          CFI (cfiCond37) V1 load(1, XDATA, add(CFA_XSP16, literal(-13)))
          CFI (cfiCond37) V2 load(1, XDATA, add(CFA_XSP16, literal(-12)))
          CFI (cfiCond37) V3 load(1, XDATA, add(CFA_XSP16, literal(-11)))
          CFI (cfiCond37) V4 load(1, XDATA, add(CFA_XSP16, literal(-10)))
          CFI (cfiCond37) V5 load(1, XDATA, add(CFA_XSP16, literal(-9)))
          CFI (cfiCond37) V6 load(1, XDATA, add(CFA_XSP16, literal(-8)))
          CFI (cfiCond37) V7 load(1, XDATA, add(CFA_XSP16, literal(-7)))
          CFI (cfiCond37) R7 load(1, XDATA, add(CFA_XSP16, literal(-6)))
          CFI (cfiCond37) ?RET_LOW load(1, XDATA, add(CFA_XSP16, literal(-5)))
          CFI (cfiCond37) ?RET_HIGH load(1, XDATA, add(CFA_XSP16, literal(-4)))
          CFI (cfiCond37) ?BRET_EXT load(1, XDATA, add(CFA_XSP16, literal(-3)))
          CFI (cfiCond37) DPL0 load(1, XDATA, add(CFA_XSP16, literal(-2)))
          CFI (cfiCond37) DPH0 load(1, XDATA, add(CFA_XSP16, literal(-1)))
          CFI (cfiCond37) CFA_SP SP+-6
          CFI (cfiCond37) CFA_XSP16 add(XSP16, 39)
          CFI Block cfiCond38 Using cfiCommon0
          CFI (cfiCond38) Function MAC_SrcMatchAddEntry
          CFI (cfiCond38) Conditional ??CrossCallReturnLabel_13, ??CrossCallReturnLabel_10, ??CrossCallReturnLabel_1
          CFI (cfiCond38) R6 load(1, XDATA, add(CFA_XSP16, literal(-16)))
          CFI (cfiCond38) VB load(1, XDATA, add(CFA_XSP16, literal(-15)))
          CFI (cfiCond38) V0 load(1, XDATA, add(CFA_XSP16, literal(-14)))
          CFI (cfiCond38) V1 load(1, XDATA, add(CFA_XSP16, literal(-13)))
          CFI (cfiCond38) V2 load(1, XDATA, add(CFA_XSP16, literal(-12)))
          CFI (cfiCond38) V3 load(1, XDATA, add(CFA_XSP16, literal(-11)))
          CFI (cfiCond38) V4 load(1, XDATA, add(CFA_XSP16, literal(-10)))
          CFI (cfiCond38) V5 load(1, XDATA, add(CFA_XSP16, literal(-9)))
          CFI (cfiCond38) V6 load(1, XDATA, add(CFA_XSP16, literal(-8)))
          CFI (cfiCond38) V7 load(1, XDATA, add(CFA_XSP16, literal(-7)))
          CFI (cfiCond38) R7 load(1, XDATA, add(CFA_XSP16, literal(-6)))
          CFI (cfiCond38) ?RET_LOW load(1, XDATA, add(CFA_XSP16, literal(-5)))
          CFI (cfiCond38) ?RET_HIGH load(1, XDATA, add(CFA_XSP16, literal(-4)))
          CFI (cfiCond38) ?BRET_EXT load(1, XDATA, add(CFA_XSP16, literal(-3)))
          CFI (cfiCond38) DPL0 load(1, XDATA, add(CFA_XSP16, literal(-2)))
          CFI (cfiCond38) DPH0 load(1, XDATA, add(CFA_XSP16, literal(-1)))
          CFI (cfiCond38) CFA_SP SP+-6
          CFI (cfiCond38) CFA_XSP16 add(XSP16, 39)
          CFI Block cfiCond39 Using cfiCommon0
          CFI (cfiCond39) Function MAC_SrcMatchAddEntry
          CFI (cfiCond39) Conditional ??CrossCallReturnLabel_13, ??CrossCallReturnLabel_10, ??CrossCallReturnLabel_2
          CFI (cfiCond39) R6 load(1, XDATA, add(CFA_XSP16, literal(-16)))
          CFI (cfiCond39) VB load(1, XDATA, add(CFA_XSP16, literal(-15)))
          CFI (cfiCond39) V0 load(1, XDATA, add(CFA_XSP16, literal(-14)))
          CFI (cfiCond39) V1 load(1, XDATA, add(CFA_XSP16, literal(-13)))
          CFI (cfiCond39) V2 load(1, XDATA, add(CFA_XSP16, literal(-12)))
          CFI (cfiCond39) V3 load(1, XDATA, add(CFA_XSP16, literal(-11)))
          CFI (cfiCond39) V4 load(1, XDATA, add(CFA_XSP16, literal(-10)))
          CFI (cfiCond39) V5 load(1, XDATA, add(CFA_XSP16, literal(-9)))
          CFI (cfiCond39) V6 load(1, XDATA, add(CFA_XSP16, literal(-8)))
          CFI (cfiCond39) V7 load(1, XDATA, add(CFA_XSP16, literal(-7)))
          CFI (cfiCond39) R7 load(1, XDATA, add(CFA_XSP16, literal(-6)))
          CFI (cfiCond39) ?RET_LOW load(1, XDATA, add(CFA_XSP16, literal(-5)))
          CFI (cfiCond39) ?RET_HIGH load(1, XDATA, add(CFA_XSP16, literal(-4)))
          CFI (cfiCond39) ?BRET_EXT load(1, XDATA, add(CFA_XSP16, literal(-3)))
          CFI (cfiCond39) DPL0 load(1, XDATA, add(CFA_XSP16, literal(-2)))
          CFI (cfiCond39) DPH0 load(1, XDATA, add(CFA_XSP16, literal(-1)))
          CFI (cfiCond39) CFA_SP SP+-6
          CFI (cfiCond39) CFA_XSP16 add(XSP16, 39)
          CFI Block cfiCond40 Using cfiCommon0
          CFI (cfiCond40) Function MAC_SrcMatchAddEntry
          CFI (cfiCond40) Conditional ??CrossCallReturnLabel_12, ??CrossCallReturnLabel_8
          CFI (cfiCond40) R6 load(1, XDATA, add(CFA_XSP16, literal(-16)))
          CFI (cfiCond40) VB load(1, XDATA, add(CFA_XSP16, literal(-15)))
          CFI (cfiCond40) V0 load(1, XDATA, add(CFA_XSP16, literal(-14)))
          CFI (cfiCond40) V1 load(1, XDATA, add(CFA_XSP16, literal(-13)))
          CFI (cfiCond40) V2 load(1, XDATA, add(CFA_XSP16, literal(-12)))
          CFI (cfiCond40) V3 load(1, XDATA, add(CFA_XSP16, literal(-11)))
          CFI (cfiCond40) V4 load(1, XDATA, add(CFA_XSP16, literal(-10)))
          CFI (cfiCond40) V5 load(1, XDATA, add(CFA_XSP16, literal(-9)))
          CFI (cfiCond40) V6 load(1, XDATA, add(CFA_XSP16, literal(-8)))
          CFI (cfiCond40) V7 load(1, XDATA, add(CFA_XSP16, literal(-7)))
          CFI (cfiCond40) R7 load(1, XDATA, add(CFA_XSP16, literal(-6)))
          CFI (cfiCond40) ?RET_LOW load(1, XDATA, add(CFA_XSP16, literal(-5)))
          CFI (cfiCond40) ?RET_HIGH load(1, XDATA, add(CFA_XSP16, literal(-4)))
          CFI (cfiCond40) ?BRET_EXT load(1, XDATA, add(CFA_XSP16, literal(-3)))
          CFI (cfiCond40) DPL0 load(1, XDATA, add(CFA_XSP16, literal(-2)))
          CFI (cfiCond40) DPH0 load(1, XDATA, add(CFA_XSP16, literal(-1)))
          CFI (cfiCond40) CFA_SP SP+-4
          CFI (cfiCond40) CFA_XSP16 add(XSP16, 39)
          CFI Block cfiCond41 Using cfiCommon0
          CFI (cfiCond41) Function macSrcMatchCheckSrcAddr
          CFI (cfiCond41) Conditional ??CrossCallReturnLabel_12, ??CrossCallReturnLabel_9
          CFI (cfiCond41) R6 load(1, XDATA, add(CFA_XSP16, literal(-16)))
          CFI (cfiCond41) VB load(1, XDATA, add(CFA_XSP16, literal(-15)))
          CFI (cfiCond41) V0 load(1, XDATA, add(CFA_XSP16, literal(-14)))
          CFI (cfiCond41) V1 load(1, XDATA, add(CFA_XSP16, literal(-13)))
          CFI (cfiCond41) V2 load(1, XDATA, add(CFA_XSP16, literal(-12)))
          CFI (cfiCond41) V3 load(1, XDATA, add(CFA_XSP16, literal(-11)))
          CFI (cfiCond41) V4 load(1, XDATA, add(CFA_XSP16, literal(-10)))
          CFI (cfiCond41) V5 load(1, XDATA, add(CFA_XSP16, literal(-9)))
          CFI (cfiCond41) V6 load(1, XDATA, add(CFA_XSP16, literal(-8)))
          CFI (cfiCond41) V7 load(1, XDATA, add(CFA_XSP16, literal(-7)))
          CFI (cfiCond41) R7 load(1, XDATA, add(CFA_XSP16, literal(-6)))
          CFI (cfiCond41) ?RET_LOW load(1, XDATA, add(CFA_XSP16, literal(-5)))
          CFI (cfiCond41) ?RET_HIGH load(1, XDATA, add(CFA_XSP16, literal(-4)))
          CFI (cfiCond41) ?BRET_EXT load(1, XDATA, add(CFA_XSP16, literal(-3)))
          CFI (cfiCond41) DPL0 load(1, XDATA, add(CFA_XSP16, literal(-2)))
          CFI (cfiCond41) DPH0 load(1, XDATA, add(CFA_XSP16, literal(-1)))
          CFI (cfiCond41) CFA_SP SP+-4
          CFI (cfiCond41) CFA_XSP16 add(XSP16, 34)
          CFI Block cfiPicker42 Using cfiCommon1
          CFI (cfiPicker42) NoFunction
          CFI (cfiPicker42) Picker
        MOVX      A,@DPTR
        MOV       R0,A
        INC       DPTR
        MOVX      A,@DPTR
        MOV       DPH,A
        MOV       DPL,R0
        RET
          CFI EndBlock cfiCond32
          CFI EndBlock cfiCond33
          CFI EndBlock cfiCond34
          CFI EndBlock cfiCond35
          CFI EndBlock cfiCond36
          CFI EndBlock cfiCond37
          CFI EndBlock cfiCond38
          CFI EndBlock cfiCond39
          CFI EndBlock cfiCond40
          CFI EndBlock cfiCond41
          CFI EndBlock cfiPicker42
//  442 
//  443 /*********************************************************************
//  444  * @fn          macSrcMatchSetPendEnBit
//  445  *
//  446  * @brief       Set the enable bit in the source address table
//  447  *
//  448  * @param       index - index of the entry in the source address table
//  449  * @param       macSrcMatchAddrMode - Address Mode for the entry. Valid values
//  450  *              are SADDR_MODE_SHORT or SADDR_MODE_EXT
//  451  *
//  452  * @return      none
//  453  */
//  454 static void macSrcMatchSetPendEnBit( uint8 index, uint8 macSrcMatchAddrMode )
//  455 {
//  456   uint24 enable;
//  457   uint8 buf[MAC_SRCMATCH_ENABLE_BITMAP_LEN];
//  458        
//  459   if( macSrcMatchAddrMode == SADDR_MODE_SHORT )
//  460   {
//  461     enable = MAC_RADIO_SRC_MATCH_GET_SHORTADDR_PENDEN(); 
//  462     enable |= ( (uint24)0x01 << index );
//  463     osal_buffer_uint24( buf, enable );
//  464     MAC_RADIO_SRC_MATCH_SET_SHORTPENDEN( buf );
//  465   }
//  466   else
//  467   {
//  468     enable = MAC_RADIO_SRC_MATCH_GET_EXTADDR_PENDEN(); 
//  469     enable |= ( (uint24)0x01 << ( index * EXT_ADDR_INDEX_SIZE ) );
//  470     enable |= ( (uint24)0x01 << ( ( index * EXT_ADDR_INDEX_SIZE ) + 1 ) );
//  471     osal_buffer_uint24( buf, enable );
//  472     MAC_RADIO_SRC_MATCH_SET_EXTPENDEN( buf );
//  473   }
//  474 }
//  475 
//  476 /*********************************************************************
//  477  * @fn          macSrcMatchSetEnableBit
//  478  *
//  479  * @brief       Set or clear the enable bit in the SRCMATCH EN register
//  480  *
//  481  * @param       index  - index of the entry in the source address table
//  482  * @param       option - true (set the enable bit), or false (clear the enable 
//  483  *                       bit)
//  484  * @param       macSrcMatchAddrMode - Address Mode for the entry. Valid values
//  485  *              are SADDR_MODE_SHORT or SADDR_MODE_EXT
//  486  *
//  487  * @return      none
//  488  */

        RSEG BANKED_CODE:HUGECODE:NOROOT(0)
//  489 static void macSrcMatchSetEnableBit( uint8 index, 
macSrcMatchSetEnableBit:
          CFI Block cfiBlock43 Using cfiCommon0
          CFI Function macSrcMatchSetEnableBit
        CODE
//  490                                     bool option, 
//  491                                     uint8 macSrcMatchAddrMode )
//  492 {
        FUNCALL macSrcMatchSetEnableBit, macSrcMatchGetShortAddrEnableBit
        LOCFRAME ISTACK, 0, STACK
        LOCFRAME PSTACK, 0, STACK
        LOCFRAME XSTACK, 17, STACK
        LOCFRAME IOVERLAY, 0, STATIC
        LOCFRAME DOVERLAY, 0, STATIC
        ARGFRAME ISTACK, 0, STACK
        ARGFRAME PSTACK, 0, STACK
        ARGFRAME XSTACK, 17, STACK
        ARGFRAME IOVERLAY, 0, STATIC
        ARGFRAME DOVERLAY, 0, STATIC
        FUNCALL macSrcMatchSetEnableBit, osal_buffer_uint24
        LOCFRAME ISTACK, 0, STACK
        LOCFRAME PSTACK, 0, STACK
        LOCFRAME XSTACK, 21, STACK
        LOCFRAME IOVERLAY, 0, STATIC
        LOCFRAME DOVERLAY, 0, STATIC
        ARGFRAME ISTACK, 0, STACK
        ARGFRAME PSTACK, 0, STACK
        ARGFRAME XSTACK, 21, STACK
        ARGFRAME IOVERLAY, 0, STATIC
        ARGFRAME DOVERLAY, 0, STATIC
        FUNCALL macSrcMatchSetEnableBit, macSrcMatchGetExtAddrEnableBit
        LOCFRAME ISTACK, 0, STACK
        LOCFRAME PSTACK, 0, STACK
        LOCFRAME XSTACK, 17, STACK
        LOCFRAME IOVERLAY, 0, STATIC
        LOCFRAME DOVERLAY, 0, STATIC
        ARGFRAME ISTACK, 0, STACK
        ARGFRAME PSTACK, 0, STACK
        ARGFRAME XSTACK, 17, STACK
        ARGFRAME IOVERLAY, 0, STATIC
        ARGFRAME DOVERLAY, 0, STATIC
        FUNCALL macSrcMatchSetEnableBit, osal_buffer_uint24
        LOCFRAME ISTACK, 0, STACK
        LOCFRAME PSTACK, 0, STACK
        LOCFRAME XSTACK, 21, STACK
        LOCFRAME IOVERLAY, 0, STATIC
        LOCFRAME DOVERLAY, 0, STATIC
        ARGFRAME ISTACK, 0, STACK
        ARGFRAME PSTACK, 0, STACK
        ARGFRAME XSTACK, 21, STACK
        ARGFRAME IOVERLAY, 0, STATIC
        ARGFRAME DOVERLAY, 0, STATIC
        FUNCALL macSrcMatchSetEnableBit, macSrcMatchGetShortAddrEnableBit
        LOCFRAME ISTACK, 0, STACK
        LOCFRAME PSTACK, 0, STACK
        LOCFRAME XSTACK, 17, STACK
        LOCFRAME IOVERLAY, 0, STATIC
        LOCFRAME DOVERLAY, 0, STATIC
        ARGFRAME ISTACK, 0, STACK
        ARGFRAME PSTACK, 0, STACK
        ARGFRAME XSTACK, 17, STACK
        ARGFRAME IOVERLAY, 0, STATIC
        ARGFRAME DOVERLAY, 0, STATIC
        FUNCALL macSrcMatchSetEnableBit, osal_buffer_uint24
        LOCFRAME ISTACK, 0, STACK
        LOCFRAME PSTACK, 0, STACK
        LOCFRAME XSTACK, 21, STACK
        LOCFRAME IOVERLAY, 0, STATIC
        LOCFRAME DOVERLAY, 0, STATIC
        ARGFRAME ISTACK, 0, STACK
        ARGFRAME PSTACK, 0, STACK
        ARGFRAME XSTACK, 21, STACK
        ARGFRAME IOVERLAY, 0, STATIC
        ARGFRAME DOVERLAY, 0, STATIC
        FUNCALL macSrcMatchSetEnableBit, macSrcMatchGetExtAddrEnableBit
        LOCFRAME ISTACK, 0, STACK
        LOCFRAME PSTACK, 0, STACK
        LOCFRAME XSTACK, 17, STACK
        LOCFRAME IOVERLAY, 0, STATIC
        LOCFRAME DOVERLAY, 0, STATIC
        ARGFRAME ISTACK, 0, STACK
        ARGFRAME PSTACK, 0, STACK
        ARGFRAME XSTACK, 17, STACK
        ARGFRAME IOVERLAY, 0, STATIC
        ARGFRAME DOVERLAY, 0, STATIC
        FUNCALL macSrcMatchSetEnableBit, osal_buffer_uint24
        LOCFRAME ISTACK, 0, STACK
        LOCFRAME PSTACK, 0, STACK
        LOCFRAME XSTACK, 21, STACK
        LOCFRAME IOVERLAY, 0, STATIC
        LOCFRAME DOVERLAY, 0, STATIC
        ARGFRAME ISTACK, 0, STACK
        ARGFRAME PSTACK, 0, STACK
        ARGFRAME XSTACK, 21, STACK
        ARGFRAME IOVERLAY, 0, STATIC
        ARGFRAME DOVERLAY, 0, STATIC
        REQUIRE ?V0
        REQUIRE ?V1
        REQUIRE ?V2
        REQUIRE ?V3
        REQUIRE ?V4
        REQUIRE ?V5
        REQUIRE ?V6
        REQUIRE ?V7
        MOV       A,#-0x10
        LCALL     ?BANKED_ENTER_XDATA
          CFI DPH0 load(1, XDATA, add(CFA_XSP16, literal(-1)))
          CFI DPL0 load(1, XDATA, add(CFA_XSP16, literal(-2)))
          CFI ?BRET_EXT load(1, XDATA, add(CFA_XSP16, literal(-3)))
          CFI ?RET_HIGH load(1, XDATA, add(CFA_XSP16, literal(-4)))
          CFI ?RET_LOW load(1, XDATA, add(CFA_XSP16, literal(-5)))
          CFI R7 load(1, XDATA, add(CFA_XSP16, literal(-6)))
          CFI V7 load(1, XDATA, add(CFA_XSP16, literal(-7)))
          CFI V6 load(1, XDATA, add(CFA_XSP16, literal(-8)))
          CFI V5 load(1, XDATA, add(CFA_XSP16, literal(-9)))
          CFI V4 load(1, XDATA, add(CFA_XSP16, literal(-10)))
          CFI V3 load(1, XDATA, add(CFA_XSP16, literal(-11)))
          CFI V2 load(1, XDATA, add(CFA_XSP16, literal(-12)))
          CFI V1 load(1, XDATA, add(CFA_XSP16, literal(-13)))
          CFI V0 load(1, XDATA, add(CFA_XSP16, literal(-14)))
          CFI VB load(1, XDATA, add(CFA_XSP16, literal(-15)))
          CFI R6 load(1, XDATA, add(CFA_XSP16, literal(-16)))
          CFI CFA_SP SP+0
          CFI CFA_XSP16 add(XSP16, 16)
        ; Saved register size: 16
        ; Auto size: 1
        MOV       A,#-0x1
        LCALL     ?ALLOC_XSTACK8
          CFI CFA_XSP16 add(XSP16, 17)
        MOV       A,R2
        MOV       DPL,?XSP + 0
        MOV       DPH,?XSP + 1
        MOVX      @DPTR,A
        MOV       A,R1
        MOV       R7,A
        MOV       A,R3
        MOV       R6,A
//  493   uint24 enable;  
//  494   
//  495   if( option == TRUE )
        MOV       ?V4,#0x1
        MOV       ?V5,#0x0
        MOV       ?V6,#0x0
        MOV       ?V7,#0x0
        MOV       A,R7
        CLR       C
        RLC       A
        MOV       R0,#?V4
        LCALL     ?L_SHL
        MOV       ?V0,#0x1
        MOV       ?V1,A
        MOV       ?V2,A
        MOV       ?V3,A
        MOV       A,R7
        MOV       R0,#?V0
        LCALL     ?L_SHL
        MOVX      A,@DPTR
        XRL       A,#0x1
        JNZ       ??macSrcMatchSetEnableBit_0
//  496   {
//  497     if( macSrcMatchAddrMode == SADDR_MODE_SHORT )
        MOV       A,#0x2
        XRL       A,R6
        JNZ       ??macSrcMatchSetEnableBit_1
//  498     {
//  499       enable = MAC_RADIO_SRC_MATCH_GET_SHORTADDR_EN(); 
//  500       enable |= ( (uint24)0x01 << index );
//  501       MAC_RADIO_SRC_MATCH_SET_SHORTEN( enable );
        ; Setup parameters for call to function osal_buffer_uint24
        ; Setup parameters for call to function macSrcMatchGetShortAddrEnableBit
        LCALL     `??macSrcMatchGetShortAddrEnableBit::?relay`; Banked call to: macSrcMatchGetShortAddrEnableBit
        MOV       ?V4,R2
        MOV       ?V5,R3
        MOV       ?V6,R4
        MOV       ?V7,R5
        MOV       R0,#?V4
        MOV       R1,#?V0
        LCALL     ?L_IOR
        SJMP      ??macSrcMatchSetEnableBit_2
//  502     }
//  503     else
//  504     {
//  505       enable = MAC_RADIO_SRC_MATCH_GET_EXTADDR_EN(); 
//  506       enable |= ( (uint24)0x01 << ( index *  EXT_ADDR_INDEX_SIZE) );
//  507       MAC_RADIO_SRC_MATCH_SET_EXTEN( enable );
??macSrcMatchSetEnableBit_1:
        ; Setup parameters for call to function osal_buffer_uint24
        ; Setup parameters for call to function macSrcMatchGetExtAddrEnableBit
        LCALL     `??macSrcMatchGetExtAddrEnableBit::?relay`; Banked call to: macSrcMatchGetExtAddrEnableBit
        MOV       ?V0,R2
        MOV       ?V1,R3
        MOV       ?V2,R4
        MOV       ?V3,R5
        MOV       R0,#?V0
        MOV       R1,#?V4
        LCALL     ?L_IOR
        SJMP      ??macSrcMatchSetEnableBit_3
//  508     }
//  509   }
//  510   else
//  511   {
//  512     if( macSrcMatchAddrMode == SADDR_MODE_SHORT )
??macSrcMatchSetEnableBit_0:
        MOV       A,#0x2
        XRL       A,R6
        JNZ       ??macSrcMatchSetEnableBit_4
//  513     {
//  514       enable = MAC_RADIO_SRC_MATCH_GET_SHORTADDR_EN();
//  515       enable &= ~( (uint24)0x01 << index );
//  516       MAC_RADIO_SRC_MATCH_SET_SHORTEN( enable );
        ; Setup parameters for call to function osal_buffer_uint24
        ; Setup parameters for call to function macSrcMatchGetShortAddrEnableBit
        LCALL     `??macSrcMatchGetShortAddrEnableBit::?relay`; Banked call to: macSrcMatchGetShortAddrEnableBit
        MOV       ?V4,R2
        MOV       ?V5,R3
        MOV       ?V6,R4
        MOV       ?V7,R5
        MOV       R0,#?V0
        LCALL     ?L_NOT
        MOV       R0,#?V4
        MOV       R1,#?V0
        LCALL     ?L_AND
??macSrcMatchSetEnableBit_2:
        MOV       R0,#?V4
        LCALL     ?PUSH_XSTACK_I_FOUR
          CFI CFA_XSP16 add(XSP16, 21)
        MOV       R2,#-0x7d
        SJMP      ??macSrcMatchSetEnableBit_5
          CFI CFA_XSP16 add(XSP16, 17)
//  517     }
//  518     else
//  519     {
//  520       enable = MAC_RADIO_SRC_MATCH_GET_EXTADDR_EN(); 
//  521       enable &= ~( (uint24)0x01 << ( index * EXT_ADDR_INDEX_SIZE ) );
//  522       MAC_RADIO_SRC_MATCH_SET_EXTEN( enable );
??macSrcMatchSetEnableBit_4:
        ; Setup parameters for call to function osal_buffer_uint24
        ; Setup parameters for call to function macSrcMatchGetExtAddrEnableBit
        LCALL     `??macSrcMatchGetExtAddrEnableBit::?relay`; Banked call to: macSrcMatchGetExtAddrEnableBit
        MOV       ?V0,R2
        MOV       ?V1,R3
        MOV       ?V2,R4
        MOV       ?V3,R5
        MOV       R0,#?V4
        LCALL     ?L_NOT
        MOV       R0,#?V0
        MOV       R1,#?V4
        LCALL     ?L_AND
??macSrcMatchSetEnableBit_3:
        MOV       R0,#?V0
        LCALL     ?PUSH_XSTACK_I_FOUR
          CFI CFA_XSP16 add(XSP16, 21)
        MOV       R2,#-0x7a
??macSrcMatchSetEnableBit_5:
        MOV       R3,#0x61
        LCALL     `??osal_buffer_uint24::?relay`; Banked call to: osal_buffer_uint24
        MOV       A,#0x4
        LCALL     ?DEALLOC_XSTACK8
          CFI CFA_XSP16 add(XSP16, 17)
//  523     }
//  524   }
//  525 }
        MOV       A,#0x1
        LJMP      ?Subroutine1 & 0xFFFF
          CFI EndBlock cfiBlock43
//  526 
//  527 /*********************************************************************
//  528  * @fn          macSrcMatchCheckEnableBit
//  529  *
//  530  * @brief       Check the enable bit in the source address table
//  531  *
//  532  * @param       index - index of the entry in the source address table
//  533  * @param       enable - enable register should be read before passing 
//  534  *              it here
//  535  *
//  536  * @return      TRUE or FALSE
//  537  */
//  538 static bool macSrcMatchCheckEnableBit( uint8 index, uint24 enable)
//  539 {
//  540   if( enable & ((uint24)0x01 << index ))
//  541   {
//  542     return TRUE;
//  543   }
//  544   
//  545   return FALSE; 
//  546 }
//  547  
//  548 /*********************************************************************
//  549  * @fn          macSrcMatchGetShortAddrPendEnBit
//  550  *
//  551  * @brief       Return the SRCMATCH ShortAddr Pend enable bitmap
//  552  *
//  553  * @param       none
//  554  *
//  555  * @return      uint24 - 24 bits bitmap
//  556  */
//  557 static uint24 macSrcMatchGetShortAddrPendEnBit( void )
//  558 {
//  559   uint8 buf[MAC_SRCMATCH_ENABLE_BITMAP_LEN];
//  560   
//  561   MAC_RADIO_GET_SRC_SHORTPENDEN( buf );
//  562   
//  563   return osal_build_uint32( buf, MAC_SRCMATCH_ENABLE_BITMAP_LEN );
//  564 }
//  565 
//  566  
//  567 /*********************************************************************
//  568  * @fn          macSrcMatchGetExtAddrPendEnBit
//  569  *
//  570  * @brief       Return the SRCMATCH Extended Address Pend enable bitmap
//  571  *
//  572  * @param       none
//  573  *
//  574  * @return      uint24 - 24 bits bitmap
//  575  */
//  576 static uint24 macSrcMatchGetExtAddrPendEnBit( void )
//  577 {
//  578   uint8 buf[MAC_SRCMATCH_ENABLE_BITMAP_LEN];
//  579   
//  580   MAC_RADIO_GET_SRC_EXTENPEND( buf );
//  581   
//  582   return osal_build_uint32( buf, MAC_SRCMATCH_ENABLE_BITMAP_LEN );
//  583 }
//  584 
//  585 /*********************************************************************
//  586  * @fn          macSrcMatchGetShortAddrEnableBit
//  587  *
//  588  * @brief       Return the SRCMATCH ShortAddr enable bitmap
//  589  *
//  590  * @param       none
//  591  *
//  592  * @return      uint24 - 24 bits bitmap
//  593  */

        RSEG BANKED_CODE:HUGECODE:NOROOT(0)
//  594 static uint24 macSrcMatchGetShortAddrEnableBit( void )
macSrcMatchGetShortAddrEnableBit:
          CFI Block cfiBlock44 Using cfiCommon0
          CFI Function macSrcMatchGetShortAddrEnableBit
        CODE
//  595 {
        FUNCALL macSrcMatchGetShortAddrEnableBit, macMemReadRam
        LOCFRAME ISTACK, 2, STACK
        LOCFRAME PSTACK, 0, STACK
        LOCFRAME XSTACK, 3, STACK
        LOCFRAME IOVERLAY, 0, STATIC
        LOCFRAME DOVERLAY, 0, STATIC
        ARGFRAME ISTACK, 2, STACK
        ARGFRAME PSTACK, 0, STACK
        ARGFRAME XSTACK, 3, STACK
        ARGFRAME IOVERLAY, 0, STATIC
        ARGFRAME DOVERLAY, 0, STATIC
        FUNCALL macSrcMatchGetShortAddrEnableBit, osal_build_uint32
        LOCFRAME ISTACK, 2, STACK
        LOCFRAME PSTACK, 0, STACK
        LOCFRAME XSTACK, 3, STACK
        LOCFRAME IOVERLAY, 0, STATIC
        LOCFRAME DOVERLAY, 0, STATIC
        ARGFRAME ISTACK, 2, STACK
        ARGFRAME PSTACK, 0, STACK
        ARGFRAME XSTACK, 3, STACK
        ARGFRAME IOVERLAY, 0, STATIC
        ARGFRAME DOVERLAY, 0, STATIC
        PUSH      DPL
          CFI DPL0 Frame(CFA_SP, 4)
          CFI CFA_SP SP+-4
        PUSH      DPH
          CFI DPH0 Frame(CFA_SP, 5)
          CFI CFA_SP SP+-5
        ; Saved register size: 2
        ; Auto size: 3
        MOV       A,#-0x3
        LCALL     ?ALLOC_XSTACK8
          CFI CFA_XSP16 add(XSP16, 3)
//  596   uint8 buf[MAC_SRCMATCH_ENABLE_BITMAP_LEN];
//  597   
//  598   MAC_RADIO_GET_SRC_SHORTEN( buf );
        ; Setup parameters for call to function macMemReadRam
        MOV       R1,#0x3
        MOV       R4,?XSP + 0
        MOV       R5,?XSP + 1
        MOV       R2,#-0x7d
        LJMP      ?Subroutine0 & 0xFFFF
//  599   
//  600   return osal_build_uint32( buf, MAC_SRCMATCH_ENABLE_BITMAP_LEN );
//  601 }
          CFI EndBlock cfiBlock44
//  602 
//  603 /*********************************************************************
//  604  * @fn          macSrcMatchGetExtAddrEnBit
//  605  *
//  606  * @brief       Return the SRCMATCH ExtAddr enable bitmap
//  607  *
//  608  * @param       none
//  609  *
//  610  * @return      uint24 - 24 bits bitmap
//  611  */

        RSEG BANKED_CODE:HUGECODE:NOROOT(0)
//  612 static uint24 macSrcMatchGetExtAddrEnableBit( void )
macSrcMatchGetExtAddrEnableBit:
          CFI Block cfiBlock45 Using cfiCommon0
          CFI Function macSrcMatchGetExtAddrEnableBit
        CODE
//  613 {
        FUNCALL macSrcMatchGetExtAddrEnableBit, macMemReadRam
        LOCFRAME ISTACK, 2, STACK
        LOCFRAME PSTACK, 0, STACK
        LOCFRAME XSTACK, 3, STACK
        LOCFRAME IOVERLAY, 0, STATIC
        LOCFRAME DOVERLAY, 0, STATIC
        ARGFRAME ISTACK, 2, STACK
        ARGFRAME PSTACK, 0, STACK
        ARGFRAME XSTACK, 3, STACK
        ARGFRAME IOVERLAY, 0, STATIC
        ARGFRAME DOVERLAY, 0, STATIC
        FUNCALL macSrcMatchGetExtAddrEnableBit, osal_build_uint32
        LOCFRAME ISTACK, 2, STACK
        LOCFRAME PSTACK, 0, STACK
        LOCFRAME XSTACK, 3, STACK
        LOCFRAME IOVERLAY, 0, STATIC
        LOCFRAME DOVERLAY, 0, STATIC
        ARGFRAME ISTACK, 2, STACK
        ARGFRAME PSTACK, 0, STACK
        ARGFRAME XSTACK, 3, STACK
        ARGFRAME IOVERLAY, 0, STATIC
        ARGFRAME DOVERLAY, 0, STATIC
        PUSH      DPL
          CFI DPL0 Frame(CFA_SP, 4)
          CFI CFA_SP SP+-4
        PUSH      DPH
          CFI DPH0 Frame(CFA_SP, 5)
          CFI CFA_SP SP+-5
        ; Saved register size: 2
        ; Auto size: 3
        MOV       A,#-0x3
        LCALL     ?ALLOC_XSTACK8
          CFI CFA_XSP16 add(XSP16, 3)
//  614   uint8 buf[MAC_SRCMATCH_ENABLE_BITMAP_LEN];
//  615   
//  616   MAC_RADIO_GET_SRC_EXTEN( buf );
        ; Setup parameters for call to function macMemReadRam
        MOV       R1,#0x3
        MOV       R4,?XSP + 0
        MOV       R5,?XSP + 1
        MOV       R2,#-0x7a
        LJMP      ?Subroutine0 & 0xFFFF
//  617   
//  618   return osal_build_uint32( buf, MAC_SRCMATCH_ENABLE_BITMAP_LEN );
//  619 }
          CFI EndBlock cfiBlock45

        RSEG BANK_RELAYS:CODE:REORDER:NOROOT(0)
`??MAC_SrcMatchEnable::?relay`:
        CODE
        LCALL   ?BDISPATCH
        DATA24
        DC24    MAC_SrcMatchEnable

        RSEG BANK_RELAYS:CODE:REORDER:NOROOT(0)
`??MAC_SrcMatchAddEntry::?relay`:
        CODE
        LCALL   ?BDISPATCH
        DATA24
        DC24    MAC_SrcMatchAddEntry

        RSEG BANK_RELAYS:CODE:REORDER:NOROOT(0)
`??MAC_SrcMatchDeleteEntry::?relay`:
        CODE
        LCALL   ?BDISPATCH
        DATA24
        DC24    MAC_SrcMatchDeleteEntry

        RSEG BANK_RELAYS:CODE:REORDER:NOROOT(0)
`??MAC_SrcMatchAckAllPending::?relay`:
        CODE
        LCALL   ?BDISPATCH
        DATA24
        DC24    MAC_SrcMatchAckAllPending

        RSEG BANK_RELAYS:CODE:REORDER:NOROOT(0)
`??MAC_SrcMatchCheckAllPending::?relay`:
        CODE
        LCALL   ?BDISPATCH
        DATA24
        DC24    MAC_SrcMatchCheckAllPending

        RSEG BANK_RELAYS:CODE:REORDER:NOROOT(0)
`??MAC_SrcMatchCheckResult::?relay`:
        CODE
        LCALL   ?BDISPATCH
        DATA24
        DC24    MAC_SrcMatchCheckResult

        RSEG BANK_RELAYS:CODE:REORDER:NOROOT(0)
`??macSrcMatchCheckSrcAddr::?relay`:
        CODE
        LCALL   ?BDISPATCH
        DATA24
        DC24    macSrcMatchCheckSrcAddr

        RSEG BANK_RELAYS:CODE:REORDER:NOROOT(0)
`??macSrcMatchSetEnableBit::?relay`:
        CODE
        LCALL   ?BDISPATCH
        DATA24
        DC24    macSrcMatchSetEnableBit

        RSEG BANK_RELAYS:CODE:REORDER:NOROOT(0)
`??macSrcMatchGetShortAddrEnableBit::?relay`:
        CODE
        LCALL   ?BDISPATCH
        DATA24
        DC24    macSrcMatchGetShortAddrEnableBit

        RSEG BANK_RELAYS:CODE:REORDER:NOROOT(0)
`??macSrcMatchGetExtAddrEnableBit::?relay`:
        CODE
        LCALL   ?BDISPATCH
        DATA24
        DC24    macSrcMatchGetExtAddrEnableBit

        END
//  620 
//  621 
// 
// 1 491 bytes in segment BANKED_CODE
//    60 bytes in segment BANK_RELAYS
//     2 bytes in segment XDATA_Z
// 
//    60 bytes of CODE     memory
// 1 491 bytes of HUGECODE memory
//     2 bytes of XDATA    memory
//
//Errors: none
//Warnings: none
