///////////////////////////////////////////////////////////////////////////////
//
// IAR C/C++ Compiler V10.10.1.4655 for 8051              22/Nov/2023  15:42:43
// Copyright 2004-2017 IAR Systems AB.
// Standalone license - IAR Embedded Workbench for 8051
//
//    Core               =  plain
//    Code model         =  banked
//    Data model         =  large
//    Calling convention =  xdata reentrant
//    Constant location  =  data_rom
//    Dptr setup         =  1,16
//                          
//    Source file        =  
//        D:\fuzzing-coordinator-response-collection\Components\mt\MT_AF.c
//    Command line       =  
//        -f C:\Users\ADMINI~1\AppData\Local\Temp\EWA556.tmp
//        (D:\fuzzing-coordinator-response-collection\Components\mt\MT_AF.c -D
//        SECURE=1 -D TC_LINKKEY_JOIN -D NV_INIT -D NV_RESTORE -D
//        MULTICAST_ENABLED=FALSE -D ZCL_READ -D ZCL_DISCOVER -D ZCL_WRITE -D
//        ZCL_BASIC -D ZCL_IDENTIFY -D ISR_KEYINTERRUPT -D HAL_UART=TRUE -D
//        HAL_LCD=FALSE -D ZCL_ON_OFF -D INT_HEAP_LEN=2800 -D
//        HAL_UART_DMA_RX_MAX=256 -D HAL_UART_DMA_TX_MAX=256 -lC
//        D:\fuzzing-coordinator-response-collection\Projects\zstack\HomeAutomation\SampleSwitch\CC2530DB\CoordinatorEB\List
//        -lA
//        D:\fuzzing-coordinator-response-collection\Projects\zstack\HomeAutomation\SampleSwitch\CC2530DB\CoordinatorEB\List
//        --diag_suppress Pe001,Pa010 -o
//        D:\fuzzing-coordinator-response-collection\Projects\zstack\HomeAutomation\SampleSwitch\CC2530DB\CoordinatorEB\Obj
//        -e --debug --core=plain --dptr=16,1 --data_model=large
//        --code_model=banked --calling_convention=xdata_reentrant
//        --place_constants=data_rom --nr_virtual_regs 8 -f
//        D:\fuzzing-coordinator-response-collection\Projects\zstack\HomeAutomation\SampleSwitch\CC2530DB\..\..\..\Tools\CC2530DB\f8wCoord.cfg
//        (-DCPU32MHZ -DROOT=__near_func -DMAC_CFG_APP_PENDING_QUEUE=TRUE
//        -DMAC_CFG_TX_DATA_MAX=5 -DMAC_CFG_TX_MAX=8 -DMAC_CFG_RX_MAX=5
//        -DZDO_COORDINATOR -DRTR_NWK) -f
//        D:\fuzzing-coordinator-response-collection\Projects\zstack\HomeAutomation\SampleSwitch\CC2530DB\..\..\..\Tools\CC2530DB\f8wConfig.cfg
//        (-DZIGBEEPRO -DSECURE=1 -DZG_SECURE_DYNAMIC=0 -DREFLECTOR
//        -DDEFAULT_CHANLIST=0x00000800 -DZDAPP_CONFIG_PAN_ID=0xFFFF
//        -DNWK_START_DELAY=100 -DEXTENDED_JOINING_RANDOM_MASK=0x007F
//        -DBEACON_REQUEST_DELAY=100 -DBEACON_REQ_DELAY_MASK=0x00FF
//        -DLINK_STATUS_JITTER_MASK=0x007F -DROUTE_EXPIRY_TIME=30
//        -DAPSC_ACK_WAIT_DURATION_POLLED=3000 -DNWK_INDIRECT_MSG_TIMEOUT=7
//        -DMAX_RREQ_ENTRIES=8 -DAPSC_MAX_FRAME_RETRIES=3
//        -DNWK_MAX_DATA_RETRIES=2 -DMAX_POLL_FAILURE_RETRIES=2 -DMAX_BCAST=9
//        -DAPS_MAX_GROUPS=16 -DMAX_RTG_ENTRIES=40 -DNWK_MAX_BINDING_ENTRIES=4
//        -DMAX_BINDING_CLUSTER_IDS=4 "-DDEFAULT_KEY={0x00, 0x01, 0x02, 0x03,
//        0x04, 0x05, 0x06, 0x07, 0x08, 0x09, 0x0A, 0x0B, 0x0C, 0x0D, 0x0E,
//        0x0F}" -DMAC_MAX_FRAME_SIZE=116 -DZDNWKMGR_MIN_TRANSMISSIONS=20
//        "-DCONST=const __code" -DGENERIC=__generic -DRFD_RCVC_ALWAYS_ON=FALSE
//        -DPOLL_RATE=1000 -DQUEUED_POLL_RATE=100 -DRESPONSE_POLL_RATE=100
//        -DREJOIN_POLL_RATE=440 -DREJOIN_BACKOFF=900000 -DREJOIN_SCAN=900000
//        -DENABLE_LED4_DISABLE_S1) -f
//        D:\fuzzing-coordinator-response-collection\Projects\zstack\HomeAutomation\SampleSwitch\CC2530DB\..\..\..\Tools\CC2530DB\f8wZCL.cfg
//        -I
//        D:\fuzzing-coordinator-response-collection\Projects\zstack\HomeAutomation\SampleSwitch\CC2530DB\
//        -I
//        D:\fuzzing-coordinator-response-collection\Projects\zstack\HomeAutomation\SampleSwitch\CC2530DB\..\Source\
//        -I
//        D:\fuzzing-coordinator-response-collection\Projects\zstack\HomeAutomation\SampleSwitch\CC2530DB\..\..\Source\
//        -I
//        D:\fuzzing-coordinator-response-collection\Projects\zstack\HomeAutomation\SampleSwitch\CC2530DB\..\..\..\ZMain\TI2530DB\
//        -I
//        D:\fuzzing-coordinator-response-collection\Projects\zstack\HomeAutomation\SampleSwitch\CC2530DB\..\..\..\..\..\Components\hal\include\
//        -I
//        D:\fuzzing-coordinator-response-collection\Projects\zstack\HomeAutomation\SampleSwitch\CC2530DB\..\..\..\..\..\Components\hal\target\CC2530EB\
//        -I
//        D:\fuzzing-coordinator-response-collection\Projects\zstack\HomeAutomation\SampleSwitch\CC2530DB\..\..\..\..\..\Components\mac\include\
//        -I
//        D:\fuzzing-coordinator-response-collection\Projects\zstack\HomeAutomation\SampleSwitch\CC2530DB\..\..\..\..\..\Components\mac\high_level\
//        -I
//        D:\fuzzing-coordinator-response-collection\Projects\zstack\HomeAutomation\SampleSwitch\CC2530DB\..\..\..\..\..\Components\mac\low_level\srf04\
//        -I
//        D:\fuzzing-coordinator-response-collection\Projects\zstack\HomeAutomation\SampleSwitch\CC2530DB\..\..\..\..\..\Components\mac\low_level\srf04\single_chip\
//        -I
//        D:\fuzzing-coordinator-response-collection\Projects\zstack\HomeAutomation\SampleSwitch\CC2530DB\..\..\..\..\..\Components\mt\
//        -I
//        D:\fuzzing-coordinator-response-collection\Projects\zstack\HomeAutomation\SampleSwitch\CC2530DB\..\..\..\..\..\Components\osal\include\
//        -I
//        D:\fuzzing-coordinator-response-collection\Projects\zstack\HomeAutomation\SampleSwitch\CC2530DB\..\..\..\..\..\Components\services\saddr\
//        -I
//        D:\fuzzing-coordinator-response-collection\Projects\zstack\HomeAutomation\SampleSwitch\CC2530DB\..\..\..\..\..\Components\services\sdata\
//        -I
//        D:\fuzzing-coordinator-response-collection\Projects\zstack\HomeAutomation\SampleSwitch\CC2530DB\..\..\..\..\..\Components\stack\af\
//        -I
//        D:\fuzzing-coordinator-response-collection\Projects\zstack\HomeAutomation\SampleSwitch\CC2530DB\..\..\..\..\..\Components\stack\bdb\
//        -I
//        D:\fuzzing-coordinator-response-collection\Projects\zstack\HomeAutomation\SampleSwitch\CC2530DB\..\..\..\..\..\Components\stack\gp\
//        -I
//        D:\fuzzing-coordinator-response-collection\Projects\zstack\HomeAutomation\SampleSwitch\CC2530DB\..\..\..\..\..\Components\stack\nwk\
//        -I
//        D:\fuzzing-coordinator-response-collection\Projects\zstack\HomeAutomation\SampleSwitch\CC2530DB\..\..\..\..\..\Components\stack\sapi\
//        -I
//        D:\fuzzing-coordinator-response-collection\Projects\zstack\HomeAutomation\SampleSwitch\CC2530DB\..\..\..\..\..\Components\stack\sec\
//        -I
//        D:\fuzzing-coordinator-response-collection\Projects\zstack\HomeAutomation\SampleSwitch\CC2530DB\..\..\..\..\..\Components\stack\sys\
//        -I
//        D:\fuzzing-coordinator-response-collection\Projects\zstack\HomeAutomation\SampleSwitch\CC2530DB\..\..\..\..\..\Components\stack\zcl\
//        -I
//        D:\fuzzing-coordinator-response-collection\Projects\zstack\HomeAutomation\SampleSwitch\CC2530DB\..\..\..\..\..\Components\stack\zdo\
//        -I
//        D:\fuzzing-coordinator-response-collection\Projects\zstack\HomeAutomation\SampleSwitch\CC2530DB\..\..\..\..\..\Components\zmac\
//        -I
//        D:\fuzzing-coordinator-response-collection\Projects\zstack\HomeAutomation\SampleSwitch\CC2530DB\..\..\..\..\..\Components\zmac\f8w\
//        -I
//        D:\fuzzing-coordinator-response-collection\Projects\zstack\HomeAutomation\SampleSwitch\CC2530DB\..\..\..\..\..\Components\hal\target\CC2530EB\Common\
//        -I
//        D:\fuzzing-coordinator-response-collection\Projects\zstack\HomeAutomation\SampleSwitch\CC2530DB\..\..\..\..\..\Components\hal\target\CC2530EB\SPI\
//        -I
//        D:\fuzzing-coordinator-response-collection\Projects\zstack\HomeAutomation\SampleSwitch\CC2530DB\..\..\..\..\..\Components\hal\target\CC2530EB\HW_LCD\Font\
//        -I
//        D:\fuzzing-coordinator-response-collection\Projects\zstack\HomeAutomation\SampleSwitch\CC2530DB\..\..\..\..\..\Components\hal\target\CC2530EB\HW_LCD\HAL_LCD_SPI\
//        -I
//        D:\fuzzing-coordinator-response-collection\Projects\zstack\HomeAutomation\SampleSwitch\CC2530DB\..\..\..\..\..\Components\hal\target\CC2530EB\HW_LCD\HAL_OLED\
//        -I
//        D:\fuzzing-coordinator-response-collection\Projects\zstack\HomeAutomation\SampleSwitch\CC2530DB\..\..\..\..\..\Components\hal\target\CC2530EB\HW_LCD\HAL_TFT\
//        -Ohz --require_prototypes)
//    Locale             =  Chinese (Simplified)_China.936
//    List file          =  
//        D:\fuzzing-coordinator-response-collection\Projects\zstack\HomeAutomation\SampleSwitch\CC2530DB\CoordinatorEB\List\MT_AF.s51
//
///////////////////////////////////////////////////////////////////////////////

        NAME MT_AF

        RTMODEL "__SystemLibrary", "CLib"
        RTMODEL "__calling_convention", "xdata_reentrant"
        RTMODEL "__code_model", "banked"
        RTMODEL "__core", "plain"
        RTMODEL "__data_model", "large"
        RTMODEL "__dptr_size", "16"
        RTMODEL "__extended_stack", "disabled"
        RTMODEL "__location_for_constants", "data"
        RTMODEL "__number_of_dptrs", "1"
        RTMODEL "__register_banks", "*"
        RTMODEL "__rt_version", "1"

        RSEG DOVERLAY:DATA:NOROOT(0)
        RSEG IOVERLAY:IDATA:NOROOT(0)
        RSEG ISTACK:IDATA:NOROOT(0)
        RSEG PSTACK:XDATA:NOROOT(0)
        RSEG XSTACK:XDATA:NOROOT(0)

        EXTERN ?V0
        EXTERN ?V1
        EXTERN ?V2
        EXTERN ?V3
        EXTERN ?V4
        EXTERN ?V5
        EXTERN ?V6
        EXTERN ?V7
        EXTERN ?ALLOC_XSTACK8
        EXTERN ?BANKED_ENTER_XDATA
        EXTERN ?BANKED_LEAVE_XDATA
        EXTERN ?BDISPATCH
        EXTERN ?BRET
        EXTERN ?DEALLOC_XSTACK8
        EXTERN ?L_EQ_X
        EXTERN ?MOVE_LONG8_XDATA_XDATA
        EXTERN ?PUSH_XSTACK8_X_FOUR
        EXTERN ?PUSH_XSTACK8_X_TWO
        EXTERN ?PUSH_XSTACK_I_ONE
        EXTERN ?PUSH_XSTACK_I_THREE
        EXTERN ?PUSH_XSTACK_I_TWO
        EXTERN ?XLOAD_R0123
        EXTERN ?XSP
        EXTERN ?XSTACK_DISP0_8
        EXTERN ?XSTACK_DISP100_8
        EXTERN ?XSTACK_DISP101_8
        EXTERN ?XSTACK_DISP102_8
        EXTERN ?XSTORE_R0123
        EXTERN __INIT_XDATA_Z

        PUBLIC `??MT_AfCommandProcessing::?relay`
        FUNCTION `??MT_AfCommandProcessing::?relay`,0203H
        PUBLIC `??MT_AfDataConfirm::?relay`
        FUNCTION `??MT_AfDataConfirm::?relay`,0203H
        FUNCTION `??MT_AfDataRequest::?relay`,0203H
        FUNCTION `??MT_AfDataRequestSrcRtg::?relay`,0203H
        FUNCTION `??MT_AfDataRetrieve::?relay`,0203H
        FUNCTION `??MT_AfDataStore::?relay`,0203H
        PUBLIC `??MT_AfExec::?relay`
        FUNCTION `??MT_AfExec::?relay`,0203H
        PUBLIC `??MT_AfIncomingMsg::?relay`
        FUNCTION `??MT_AfIncomingMsg::?relay`,0203H
        PUBLIC `??MT_AfReflectError::?relay`
        FUNCTION `??MT_AfReflectError::?relay`,0203H
        PUBLIC MT_AfCommandProcessing
        FUNCTION MT_AfCommandProcessing,0a1203H
        ARGFRAME XSTACK, 0, STACK
        LOCFRAME ISTACK, 1, STACK
        LOCFRAME XSTACK, 19, STACK
        PUBLIC MT_AfDataConfirm
        FUNCTION MT_AfDataConfirm,021203H
        ARGFRAME XSTACK, 0, STACK
        LOCFRAME ISTACK, 3, STACK
        LOCFRAME XSTACK, 3, STACK
        FUNCTION MT_AfDataRequest,0a1203H
        ARGFRAME XSTACK, 19, STACK
        ARGFRAME IOVERLAY, 0, STATIC
        ARGFRAME DOVERLAY, 0, STATIC
        LOCFRAME ISTACK, 1, STACK
        LOCFRAME XSTACK, 43, STACK
        FUNCTION MT_AfDataRequestSrcRtg,0a1203H
        ARGFRAME XSTACK, 19, STACK
        ARGFRAME IOVERLAY, 0, STATIC
        ARGFRAME DOVERLAY, 0, STATIC
        LOCFRAME ISTACK, 1, STACK
        LOCFRAME XSTACK, 47, STACK
        FUNCTION MT_AfDataRetrieve,0a1203H
        ARGFRAME XSTACK, 19, STACK
        ARGFRAME IOVERLAY, 0, STATIC
        ARGFRAME DOVERLAY, 0, STATIC
        LOCFRAME ISTACK, 1, STACK
        LOCFRAME XSTACK, 21, STACK
        FUNCTION MT_AfDataStore,0a1203H
        ARGFRAME XSTACK, 19, STACK
        ARGFRAME IOVERLAY, 0, STATIC
        ARGFRAME DOVERLAY, 0, STATIC
        LOCFRAME ISTACK, 1, STACK
        LOCFRAME XSTACK, 24, STACK
        PUBLIC MT_AfExec
        FUNCTION MT_AfExec,021203H
        ARGFRAME XSTACK, 0, STACK
        LOCFRAME XSTACK, 13, STACK
        PUBLIC MT_AfIncomingMsg
        FUNCTION MT_AfIncomingMsg,0a1203H
        ARGFRAME XSTACK, 0, STACK
        LOCFRAME ISTACK, 1, STACK
        LOCFRAME XSTACK, 29, STACK
        PUBLIC MT_AfReflectError
        FUNCTION MT_AfReflectError,021203H
        ARGFRAME XSTACK, 0, STACK
        LOCFRAME ISTACK, 3, STACK
        LOCFRAME XSTACK, 6, STACK
        PUBWEAK __Constant_3e8
        PUBLIC pMtAfDataReq
        PUBLIC pMtAfInMsgList
        
          CFI Names cfiNames0
          CFI StackFrame CFA_SP SP IDATA
          CFI StackFrame CFA_PSP16 PSP16 XDATA
          CFI StackFrame CFA_XSP16 XSP16 XDATA
          CFI StaticOverlayFrame CFA_IOVERLAY IOVERLAY
          CFI StaticOverlayFrame CFA_DOVERLAY DOVERLAY
          CFI Resource `PSW.CY`:1, `B.BR0`:1, `B.BR1`:1, `B.BR2`:1, `B.BR3`:1
          CFI Resource `B.BR4`:1, `B.BR5`:1, `B.BR6`:1, `B.BR7`:1, `VB.BR8`:1
          CFI Resource `VB.BR9`:1, `VB.BR10`:1, `VB.BR11`:1, `VB.BR12`:1
          CFI Resource `VB.BR13`:1, `VB.BR14`:1, `VB.BR15`:1, VB:8, B:8, A:8
          CFI Resource PSW:8, DPL0:8, DPH0:8, R0:8, R1:8, R2:8, R3:8, R4:8, R5:8
          CFI Resource R6:8, R7:8, V0:8, V1:8, V2:8, V3:8, V4:8, V5:8, V6:8, V7:8
          CFI Resource SP:8, PSPH:8, PSPL:8, PSP16:16, XSPH:8, XSPL:8, XSP16:16
          CFI VirtualResource ?RET:24
          CFI Resource ?BRET_EXT:8
          CFI VirtualResource ?RET_HIGH:8, ?RET_LOW:8
          CFI ResourceParts PSP16 PSPH, PSPL
          CFI ResourceParts XSP16 XSPH, XSPL
          CFI ResourceParts ?RET ?BRET_EXT, ?RET_HIGH, ?RET_LOW
          CFI EndNames cfiNames0
        
          CFI Common cfiCommon0 Using cfiNames0
          CFI CodeAlign 1
          CFI DataAlign -1
          CFI ReturnAddress ?RET CODE
          CFI CFA_DOVERLAY Used
          CFI CFA_IOVERLAY Used
          CFI CFA_SP SP+-3
          CFI CFA_PSP16 PSP16+0
          CFI CFA_XSP16 XSP16+0
          CFI `PSW.CY` SameValue
          CFI `B.BR0` SameValue
          CFI `B.BR1` SameValue
          CFI `B.BR2` SameValue
          CFI `B.BR3` SameValue
          CFI `B.BR4` SameValue
          CFI `B.BR5` SameValue
          CFI `B.BR6` SameValue
          CFI `B.BR7` SameValue
          CFI `VB.BR8` SameValue
          CFI `VB.BR9` SameValue
          CFI `VB.BR10` SameValue
          CFI `VB.BR11` SameValue
          CFI `VB.BR12` SameValue
          CFI `VB.BR13` SameValue
          CFI `VB.BR14` SameValue
          CFI `VB.BR15` SameValue
          CFI VB SameValue
          CFI B Undefined
          CFI A Undefined
          CFI PSW SameValue
          CFI DPL0 SameValue
          CFI DPH0 SameValue
          CFI R0 Undefined
          CFI R1 Undefined
          CFI R2 Undefined
          CFI R3 Undefined
          CFI R4 Undefined
          CFI R5 Undefined
          CFI R6 SameValue
          CFI R7 SameValue
          CFI V0 SameValue
          CFI V1 SameValue
          CFI V2 SameValue
          CFI V3 SameValue
          CFI V4 SameValue
          CFI V5 SameValue
          CFI V6 SameValue
          CFI V7 SameValue
          CFI PSPH Undefined
          CFI PSPL Undefined
          CFI XSPH Undefined
          CFI XSPL Undefined
          CFI ?RET Concat
          CFI ?BRET_EXT Frame(CFA_SP, 3)
          CFI ?RET_HIGH Frame(CFA_SP, 2)
          CFI ?RET_LOW Frame(CFA_SP, 1)
          CFI EndCommon cfiCommon0
        
        
          CFI Common cfiCommon1 Using cfiNames0
          CFI CodeAlign 1
          CFI DataAlign -1
          CFI ReturnAddress ?RET CODE
          CFI CFA_DOVERLAY Used
          CFI CFA_IOVERLAY Used
          CFI CFA_SP SP+-2
          CFI CFA_PSP16 PSP16+0
          CFI CFA_XSP16 XSP16+0
          CFI `PSW.CY` SameValue
          CFI `B.BR0` SameValue
          CFI `B.BR1` SameValue
          CFI `B.BR2` SameValue
          CFI `B.BR3` SameValue
          CFI `B.BR4` SameValue
          CFI `B.BR5` SameValue
          CFI `B.BR6` SameValue
          CFI `B.BR7` SameValue
          CFI `VB.BR8` SameValue
          CFI `VB.BR9` SameValue
          CFI `VB.BR10` SameValue
          CFI `VB.BR11` SameValue
          CFI `VB.BR12` SameValue
          CFI `VB.BR13` SameValue
          CFI `VB.BR14` SameValue
          CFI `VB.BR15` SameValue
          CFI VB SameValue
          CFI B SameValue
          CFI A SameValue
          CFI PSW SameValue
          CFI DPL0 SameValue
          CFI DPH0 SameValue
          CFI R0 SameValue
          CFI R1 SameValue
          CFI R2 SameValue
          CFI R3 SameValue
          CFI R4 SameValue
          CFI R5 SameValue
          CFI R6 SameValue
          CFI R7 SameValue
          CFI V0 SameValue
          CFI V1 SameValue
          CFI V2 SameValue
          CFI V3 SameValue
          CFI V4 SameValue
          CFI V5 SameValue
          CFI V6 SameValue
          CFI V7 SameValue
          CFI PSPH Undefined
          CFI PSPL Undefined
          CFI XSPH Undefined
          CFI XSPL Undefined
          CFI ?RET Concat
          CFI ?BRET_EXT SameValue
          CFI ?RET_HIGH Frame(CFA_SP, 2)
          CFI ?RET_LOW Frame(CFA_SP, 1)
          CFI EndCommon cfiCommon1
        
AF_DataRequest      SYMBOL "AF_DataRequest"
`??AF_DataRequest::?relay` SYMBOL "?relay", AF_DataRequest
AF_DataRequestSrcRtg SYMBOL "AF_DataRequestSrcRtg"
`??AF_DataRequestSrcRtg::?relay` SYMBOL "?relay", AF_DataRequestSrcRtg
MT_BuildAndSendZToolResponse SYMBOL "MT_BuildAndSendZToolResponse"
`??MT_BuildAndSendZToolResponse::?relay` SYMBOL "?relay", MT_BuildAndSendZToolResponse
MT_BuildEndpointDesc SYMBOL "MT_BuildEndpointDesc"
`??MT_BuildEndpointDesc::?relay` SYMBOL "?relay", MT_BuildEndpointDesc
afAPSF_ConfigGet    SYMBOL "afAPSF_ConfigGet"
`??afAPSF_ConfigGet::?relay` SYMBOL "?relay", afAPSF_ConfigGet
afAPSF_ConfigSet    SYMBOL "afAPSF_ConfigSet"
`??afAPSF_ConfigSet::?relay` SYMBOL "?relay", afAPSF_ConfigSet
afDelete            SYMBOL "afDelete"
`??afDelete::?relay` SYMBOL "?relay", afDelete
afFindEndPointDesc  SYMBOL "afFindEndPointDesc"
`??afFindEndPointDesc::?relay` SYMBOL "?relay", afFindEndPointDesc
afRegister          SYMBOL "afRegister"
`??afRegister::?relay` SYMBOL "?relay", afRegister
osal_buffer_uint32  SYMBOL "osal_buffer_uint32"
`??osal_buffer_uint32::?relay` SYMBOL "?relay", osal_buffer_uint32
osal_build_uint16   SYMBOL "osal_build_uint16"
`??osal_build_uint16::?relay` SYMBOL "?relay", osal_build_uint16
osal_build_uint32   SYMBOL "osal_build_uint32"
`??osal_build_uint32::?relay` SYMBOL "?relay", osal_build_uint32
osal_mem_alloc      SYMBOL "osal_mem_alloc"
`??osal_mem_alloc::?relay` SYMBOL "?relay", osal_mem_alloc
osal_mem_free       SYMBOL "osal_mem_free"
`??osal_mem_free::?relay` SYMBOL "?relay", osal_mem_free
osal_memcpy         SYMBOL "osal_memcpy"
`??osal_memcpy::?relay` SYMBOL "?relay", osal_memcpy
osal_memset         SYMBOL "osal_memset"
`??osal_memset::?relay` SYMBOL "?relay", osal_memset
osal_set_event      SYMBOL "osal_set_event"
`??osal_set_event::?relay` SYMBOL "?relay", osal_set_event
osal_start_timerEx  SYMBOL "osal_start_timerEx"
`??osal_start_timerEx::?relay` SYMBOL "?relay", osal_start_timerEx
MT_AfCommandProcessing SYMBOL "MT_AfCommandProcessing"
`??MT_AfCommandProcessing::?relay` SYMBOL "?relay", MT_AfCommandProcessing
MT_AfDataConfirm    SYMBOL "MT_AfDataConfirm"
`??MT_AfDataConfirm::?relay` SYMBOL "?relay", MT_AfDataConfirm
MT_AfExec           SYMBOL "MT_AfExec"
`??MT_AfExec::?relay` SYMBOL "?relay", MT_AfExec
MT_AfIncomingMsg    SYMBOL "MT_AfIncomingMsg"
`??MT_AfIncomingMsg::?relay` SYMBOL "?relay", MT_AfIncomingMsg
MT_AfReflectError   SYMBOL "MT_AfReflectError"
`??MT_AfReflectError::?relay` SYMBOL "?relay", MT_AfReflectError

        EXTERN `??AF_DataRequest::?relay`
        FUNCTION `??AF_DataRequest::?relay`,00H
        EXTERN `??AF_DataRequestSrcRtg::?relay`
        FUNCTION `??AF_DataRequestSrcRtg::?relay`,00H
        EXTERN `??MT_BuildAndSendZToolResponse::?relay`
        FUNCTION `??MT_BuildAndSendZToolResponse::?relay`,00H
        EXTERN `??MT_BuildEndpointDesc::?relay`
        FUNCTION `??MT_BuildEndpointDesc::?relay`,00H
        EXTERN `??afAPSF_ConfigGet::?relay`
        FUNCTION `??afAPSF_ConfigGet::?relay`,00H
        EXTERN `??afAPSF_ConfigSet::?relay`
        FUNCTION `??afAPSF_ConfigSet::?relay`,00H
        EXTERN `??afDelete::?relay`
        FUNCTION `??afDelete::?relay`,00H
        EXTERN `??afFindEndPointDesc::?relay`
        FUNCTION `??afFindEndPointDesc::?relay`,00H
        EXTERN `??afRegister::?relay`
        FUNCTION `??afRegister::?relay`,00H
        EXTERN `??osal_buffer_uint32::?relay`
        FUNCTION `??osal_buffer_uint32::?relay`,00H
        EXTERN `??osal_build_uint16::?relay`
        FUNCTION `??osal_build_uint16::?relay`,00H
        EXTERN `??osal_build_uint32::?relay`
        FUNCTION `??osal_build_uint32::?relay`,00H
        EXTERN `??osal_mem_alloc::?relay`
        FUNCTION `??osal_mem_alloc::?relay`,00H
        EXTERN `??osal_mem_free::?relay`
        FUNCTION `??osal_mem_free::?relay`,00H
        EXTERN `??osal_memcpy::?relay`
        FUNCTION `??osal_memcpy::?relay`,00H
        EXTERN `??osal_memset::?relay`
        FUNCTION `??osal_memset::?relay`,00H
        EXTERN `??osal_set_event::?relay`
        FUNCTION `??osal_set_event::?relay`,00H
        EXTERN `??osal_start_timerEx::?relay`
        FUNCTION `??osal_start_timerEx::?relay`,00H
        EXTERN AF_DataRequest
        FUNCTION AF_DataRequest,0202H
        ARGFRAME ISTACK, 0, STACK
        ARGFRAME PSTACK, 0, STACK
        ARGFRAME XSTACK, 43, STACK
        ARGFRAME IOVERLAY, 0, STATIC
        ARGFRAME DOVERLAY, 0, STATIC
        EXTERN AF_DataRequestSrcRtg
        FUNCTION AF_DataRequestSrcRtg,0202H
        ARGFRAME ISTACK, 0, STACK
        ARGFRAME PSTACK, 0, STACK
        ARGFRAME XSTACK, 47, STACK
        ARGFRAME IOVERLAY, 0, STATIC
        ARGFRAME DOVERLAY, 0, STATIC
        EXTERN MT_BuildAndSendZToolResponse
        FUNCTION MT_BuildAndSendZToolResponse,0202H
        ARGFRAME ISTACK, 2, STACK
        ARGFRAME PSTACK, 0, STACK
        ARGFRAME XSTACK, 35, STACK
        ARGFRAME IOVERLAY, 0, STATIC
        ARGFRAME DOVERLAY, 0, STATIC
        EXTERN MT_BuildEndpointDesc
        FUNCTION MT_BuildEndpointDesc,0202H
        ARGFRAME ISTACK, 0, STACK
        ARGFRAME PSTACK, 0, STACK
        ARGFRAME XSTACK, 19, STACK
        ARGFRAME IOVERLAY, 0, STATIC
        ARGFRAME DOVERLAY, 0, STATIC
        EXTERN MT_TaskID
        EXTERN afAPSF_ConfigGet
        FUNCTION afAPSF_ConfigGet,0202H
        ARGFRAME ISTACK, 0, STACK
        ARGFRAME PSTACK, 0, STACK
        ARGFRAME XSTACK, 19, STACK
        ARGFRAME IOVERLAY, 0, STATIC
        ARGFRAME DOVERLAY, 0, STATIC
        EXTERN afAPSF_ConfigSet
        FUNCTION afAPSF_ConfigSet,0202H
        ARGFRAME ISTACK, 0, STACK
        ARGFRAME PSTACK, 0, STACK
        ARGFRAME XSTACK, 19, STACK
        ARGFRAME IOVERLAY, 0, STATIC
        ARGFRAME DOVERLAY, 0, STATIC
        EXTERN afDelete
        FUNCTION afDelete,0202H
        ARGFRAME ISTACK, 0, STACK
        ARGFRAME PSTACK, 0, STACK
        ARGFRAME XSTACK, 19, STACK
        ARGFRAME IOVERLAY, 0, STATIC
        ARGFRAME DOVERLAY, 0, STATIC
        EXTERN afFindEndPointDesc
        FUNCTION afFindEndPointDesc,0202H
        ARGFRAME ISTACK, 0, STACK
        ARGFRAME PSTACK, 0, STACK
        ARGFRAME XSTACK, 35, STACK
        ARGFRAME IOVERLAY, 0, STATIC
        ARGFRAME DOVERLAY, 0, STATIC
        EXTERN afRegister
        FUNCTION afRegister,0202H
        ARGFRAME ISTACK, 0, STACK
        ARGFRAME PSTACK, 0, STACK
        ARGFRAME XSTACK, 19, STACK
        ARGFRAME IOVERLAY, 0, STATIC
        ARGFRAME DOVERLAY, 0, STATIC
        EXTERN osal_buffer_uint32
        FUNCTION osal_buffer_uint32,0202H
        ARGFRAME ISTACK, 0, STACK
        ARGFRAME PSTACK, 0, STACK
        ARGFRAME XSTACK, 29, STACK
        ARGFRAME IOVERLAY, 0, STATIC
        ARGFRAME DOVERLAY, 0, STATIC
        EXTERN osal_build_uint16
        FUNCTION osal_build_uint16,0202H
        ARGFRAME ISTACK, 0, STACK
        ARGFRAME PSTACK, 0, STACK
        ARGFRAME XSTACK, 35, STACK
        ARGFRAME IOVERLAY, 0, STATIC
        ARGFRAME DOVERLAY, 0, STATIC
        EXTERN osal_build_uint32
        FUNCTION osal_build_uint32,0202H
        ARGFRAME ISTACK, 0, STACK
        ARGFRAME PSTACK, 0, STACK
        ARGFRAME XSTACK, 18, STACK
        ARGFRAME IOVERLAY, 0, STATIC
        ARGFRAME DOVERLAY, 0, STATIC
        EXTERN osal_mem_alloc
        FUNCTION osal_mem_alloc,0202H
        ARGFRAME ISTACK, 0, STACK
        ARGFRAME PSTACK, 0, STACK
        ARGFRAME XSTACK, 35, STACK
        ARGFRAME IOVERLAY, 0, STATIC
        ARGFRAME DOVERLAY, 0, STATIC
        EXTERN osal_mem_free
        FUNCTION osal_mem_free,0202H
        ARGFRAME ISTACK, 0, STACK
        ARGFRAME PSTACK, 0, STACK
        ARGFRAME XSTACK, 35, STACK
        ARGFRAME IOVERLAY, 0, STATIC
        ARGFRAME DOVERLAY, 0, STATIC
        EXTERN osal_memcpy
        FUNCTION osal_memcpy,0202H
        ARGFRAME ISTACK, 0, STACK
        ARGFRAME PSTACK, 0, STACK
        ARGFRAME XSTACK, 37, STACK
        ARGFRAME IOVERLAY, 0, STATIC
        ARGFRAME DOVERLAY, 0, STATIC
        EXTERN osal_memset
        FUNCTION osal_memset,0202H
        ARGFRAME ISTACK, 0, STACK
        ARGFRAME PSTACK, 0, STACK
        ARGFRAME XSTACK, 35, STACK
        ARGFRAME IOVERLAY, 0, STATIC
        ARGFRAME DOVERLAY, 0, STATIC
        EXTERN osal_set_event
        FUNCTION osal_set_event,0202H
        ARGFRAME ISTACK, 0, STACK
        ARGFRAME PSTACK, 0, STACK
        ARGFRAME XSTACK, 34, STACK
        ARGFRAME IOVERLAY, 0, STATIC
        ARGFRAME DOVERLAY, 0, STATIC
        EXTERN osal_start_timerEx
        FUNCTION osal_start_timerEx,0202H
        ARGFRAME ISTACK, 0, STACK
        ARGFRAME PSTACK, 0, STACK
        ARGFRAME XSTACK, 38, STACK
        ARGFRAME IOVERLAY, 0, STATIC
        ARGFRAME DOVERLAY, 0, STATIC

// D:\fuzzing-coordinator-response-collection\Components\mt\MT_AF.c
//    1 /**************************************************************************************************
//    2   Filename:       MT_AF.c
//    3   Revised:        $Date: 2015-01-26 08:25:50 -0800 (Mon, 26 Jan 2015) $
//    4   Revision:       $Revision: 42025 $
//    5 
//    6   Description:    MonitorTest functions for the AF layer.
//    7 
//    8   Copyright 2007-2015 Texas Instruments Incorporated. All rights reserved.
//    9 
//   10   IMPORTANT: Your use of this Software is limited to those specific rights
//   11   granted under the terms of a software license agreement between the user
//   12   who downloaded the software, his/her employer (which must be your employer)
//   13   and Texas Instruments Incorporated (the "License"). You may not use this
//   14   Software unless you agree to abide by the terms of the License. The License
//   15   limits your use, and you acknowledge, that the Software may not be modified,
//   16   copied or distributed unless embedded on a Texas Instruments microcontroller
//   17   or used solely and exclusively in conjunction with a Texas Instruments radio
//   18   frequency transceiver, which is integrated into your product. Other than for
//   19   the foregoing purpose, you may not use, reproduce, copy, prepare derivative
//   20   works of, modify, distribute, perform, display or sell this Software and/or
//   21   its documentation for any purpose.
//   22 
//   23   YOU FURTHER ACKNOWLEDGE AND AGREE THAT THE SOFTWARE AND DOCUMENTATION ARE
//   24   PROVIDED “AS IS” WITHOUT WARRANTY OF ANY KIND, EITHER EXPRESS OR IMPLIED,
//   25   INCLUDING WITHOUT LIMITATION, ANY WARRANTY OF MERCHANTABILITY, TITLE,
//   26   NON-INFRINGEMENT AND FITNESS FOR A PARTICULAR PURPOSE. IN NO EVENT SHALL
//   27   TEXAS INSTRUMENTS OR ITS LICENSORS BE LIABLE OR OBLIGATED UNDER CONTRACT,
//   28   NEGLIGENCE, STRICT LIABILITY, CONTRIBUTION, BREACH OF WARRANTY, OR OTHER
//   29   LEGAL EQUITABLE THEORY ANY DIRECT OR INDIRECT DAMAGES OR EXPENSES
//   30   INCLUDING BUT NOT LIMITED TO ANY INCIDENTAL, SPECIAL, INDIRECT, PUNITIVE
//   31   OR CONSEQUENTIAL DAMAGES, LOST PROFITS OR LOST DATA, COST OF PROCUREMENT
//   32   OF SUBSTITUTE GOODS, TECHNOLOGY, SERVICES, OR ANY CLAIMS BY THIRD PARTIES
//   33   (INCLUDING BUT NOT LIMITED TO ANY DEFENSE THEREOF), OR OTHER SIMILAR COSTS.
//   34 
//   35   Should you have any questions regarding your right to use this Software,
//   36   contact Texas Instruments Incorporated at www.TI.com.
//   37 
//   38 **************************************************************************************************/
//   39 
//   40 /* ------------------------------------------------------------------------------------------------
//   41  *                                          Includes
//   42  * ------------------------------------------------------------------------------------------------
//   43  */
//   44 #include "ZComDef.h"
//   45 #include "OSAL.h"
//   46 #include "MT.h"
//   47 #include "MT_AF.h"
//   48 #include "MT_ZDO.h"
//   49 #include "nwk.h"
//   50 #include "OnBoard.h"
//   51 #include "MT_UART.h"
//   52 
//   53 #if defined INTER_PAN
//   54 #include "stub_aps.h"
//   55 #endif
//   56 
//   57 
//   58 /* ------------------------------------------------------------------------------------------------
//   59  *                                          Constants
//   60  * ------------------------------------------------------------------------------------------------
//   61  */
//   62 
//   63 #if !defined MT_AF_EXEC_CNT
//   64 #define MT_AF_EXEC_CNT  15
//   65 #endif
//   66 
//   67 #if !defined MT_AF_EXEC_DLY
//   68 #define MT_AF_EXEC_DLY  1000
//   69 #endif
//   70 
//   71 /* ------------------------------------------------------------------------------------------------
//   72  *                                           Typedefs
//   73  * ------------------------------------------------------------------------------------------------
//   74  */
//   75 
//   76 typedef struct
//   77 {
//   78   uint8 *data;
//   79   afAddrType_t dstAddr;
//   80   endPointDesc_t *epDesc;
//   81   uint16 cId;
//   82   uint16 dataLen;
//   83   uint8 transId;
//   84   uint8 txOpts;
//   85   uint8 radius;
//   86   uint8 tick;
//   87 } mtAfDataReq_t;
//   88 
//   89 typedef struct _mtAfInMsgList_t
//   90 {
//   91   struct _mtAfInMsgList_t *next;
//   92   uint8 *data;
//   93   uint32 timestamp;         // Receipt timestamp from MAC.
//   94   uint8 tick;
//   95 } mtAfInMsgList_t;
//   96 
//   97 /* ------------------------------------------------------------------------------------------------
//   98  *                                        Local Variables
//   99  * ------------------------------------------------------------------------------------------------
//  100  */
//  101 

        RSEG XDATA_Z:XDATA:NOROOT(0)
        DATA16
//  102 mtAfInMsgList_t *pMtAfInMsgList = NULL;
pMtAfInMsgList:
        DS 2
        REQUIRE __INIT_XDATA_Z

        RSEG XDATA_Z:XDATA:NOROOT(0)
        DATA16
//  103 mtAfDataReq_t *pMtAfDataReq = NULL;
pMtAfDataReq:
        DS 2
        REQUIRE __INIT_XDATA_Z
//  104 
//  105 /* ------------------------------------------------------------------------------------------------
//  106  *                                        Global Variables
//  107  * ------------------------------------------------------------------------------------------------
//  108  */
//  109 
//  110 #if defined ( MT_AF_CB_FUNC )
//  111 uint16 _afCallbackSub;
//  112 #endif
//  113 
//  114 /* ------------------------------------------------------------------------------------------------
//  115  *                                        Local Functions
//  116  * ------------------------------------------------------------------------------------------------
//  117  */
//  118 
//  119 static void MT_AfRegister(uint8 *pBuf);
//  120 static void MT_AfDelete(uint8 *pBuf);
//  121 static void MT_AfDataRequest(uint8 *pBuf);
//  122 
//  123 #if defined ( ZIGBEEPRO )
//  124 static void MT_AfDataRequestSrcRtg(uint8 *pBuf);
//  125 #endif
//  126 
//  127 #if defined INTER_PAN
//  128 static void MT_AfInterPanCtl(uint8 *pBuf);
//  129 #endif
//  130 
//  131 static void MT_AfDataRetrieve(uint8 *pBuf);
//  132 static void MT_AfDataStore(uint8 *pBuf);
//  133 static void MT_AfAPSF_ConfigSet(uint8 *pBuf);
//  134 static void MT_AfAPSF_ConfigGet(uint8 *pBuf);
//  135 
//  136 
//  137 /**************************************************************************************************
//  138  * @fn          MT_AfExec
//  139  *
//  140  * @brief       This function is invoked by an MT timer event.
//  141  *
//  142  * input parameters
//  143  *
//  144  * None.
//  145  *
//  146  * output parameters
//  147  *
//  148  * None.
//  149  *
//  150  * @return      None.
//  151  **************************************************************************************************
//  152  */

        RSEG BANKED_CODE:HUGECODE:NOROOT(0)
//  153 void MT_AfExec(void)
MT_AfExec:
          CFI Block cfiBlock0 Using cfiCommon0
          CFI Function MT_AfExec
        CODE
//  154 {
        FUNCALL MT_AfExec, osal_mem_free
        LOCFRAME ISTACK, 0, STACK
        LOCFRAME PSTACK, 0, STACK
        LOCFRAME XSTACK, 9, STACK
        LOCFRAME IOVERLAY, 0, STATIC
        LOCFRAME DOVERLAY, 0, STATIC
        ARGFRAME ISTACK, 0, STACK
        ARGFRAME PSTACK, 0, STACK
        ARGFRAME XSTACK, 9, STACK
        ARGFRAME IOVERLAY, 0, STATIC
        ARGFRAME DOVERLAY, 0, STATIC
        FUNCALL MT_AfExec, osal_mem_free
        LOCFRAME ISTACK, 0, STACK
        LOCFRAME PSTACK, 0, STACK
        LOCFRAME XSTACK, 9, STACK
        LOCFRAME IOVERLAY, 0, STATIC
        LOCFRAME DOVERLAY, 0, STATIC
        ARGFRAME ISTACK, 0, STACK
        ARGFRAME PSTACK, 0, STACK
        ARGFRAME XSTACK, 9, STACK
        ARGFRAME IOVERLAY, 0, STATIC
        ARGFRAME DOVERLAY, 0, STATIC
        FUNCALL MT_AfExec, osal_mem_free
        LOCFRAME ISTACK, 0, STACK
        LOCFRAME PSTACK, 0, STACK
        LOCFRAME XSTACK, 9, STACK
        LOCFRAME IOVERLAY, 0, STATIC
        LOCFRAME DOVERLAY, 0, STATIC
        ARGFRAME ISTACK, 0, STACK
        ARGFRAME PSTACK, 0, STACK
        ARGFRAME XSTACK, 9, STACK
        ARGFRAME IOVERLAY, 0, STATIC
        ARGFRAME DOVERLAY, 0, STATIC
        FUNCALL MT_AfExec, osal_start_timerEx
        LOCFRAME ISTACK, 0, STACK
        LOCFRAME PSTACK, 0, STACK
        LOCFRAME XSTACK, 13, STACK
        LOCFRAME IOVERLAY, 0, STATIC
        LOCFRAME DOVERLAY, 0, STATIC
        ARGFRAME ISTACK, 0, STACK
        ARGFRAME PSTACK, 0, STACK
        ARGFRAME XSTACK, 13, STACK
        ARGFRAME IOVERLAY, 0, STATIC
        ARGFRAME DOVERLAY, 0, STATIC
        FUNCALL MT_AfExec, osal_set_event
        LOCFRAME ISTACK, 0, STACK
        LOCFRAME PSTACK, 0, STACK
        LOCFRAME XSTACK, 9, STACK
        LOCFRAME IOVERLAY, 0, STATIC
        LOCFRAME DOVERLAY, 0, STATIC
        ARGFRAME ISTACK, 0, STACK
        ARGFRAME PSTACK, 0, STACK
        ARGFRAME XSTACK, 9, STACK
        ARGFRAME IOVERLAY, 0, STATIC
        ARGFRAME DOVERLAY, 0, STATIC
        MOV       A,#-0x9
        LCALL     ?BANKED_ENTER_XDATA
          CFI R6 load(1, XDATA, add(CFA_XSP16, literal(-9)))
          CFI VB load(1, XDATA, add(CFA_XSP16, literal(-8)))
          CFI V0 load(1, XDATA, add(CFA_XSP16, literal(-7)))
          CFI R7 load(1, XDATA, add(CFA_XSP16, literal(-6)))
          CFI ?RET_LOW load(1, XDATA, add(CFA_XSP16, literal(-5)))
          CFI ?RET_HIGH load(1, XDATA, add(CFA_XSP16, literal(-4)))
          CFI ?BRET_EXT load(1, XDATA, add(CFA_XSP16, literal(-3)))
          CFI DPL0 load(1, XDATA, add(CFA_XSP16, literal(-2)))
          CFI DPH0 load(1, XDATA, add(CFA_XSP16, literal(-1)))
          CFI CFA_SP SP+0
          CFI CFA_XSP16 add(XSP16, 9)
        ; Saved register size: 9
        ; Auto size: 0
//  155   mtAfInMsgList_t *pPrev, *pItem = pMtAfInMsgList;
??MT_AfExec_0:
        MOV       DPTR,#pMtAfInMsgList
        SJMP      ??MT_AfExec_1
//  156 
//  157   while (pItem != NULL)
//  158   {
//  159     if (--(pItem->tick) == 0)
//  160     {
//  161       if (pMtAfInMsgList == pItem)
//  162       {
//  163         pMtAfInMsgList = pItem->next;
//  164         (void)osal_mem_free(pItem);
//  165         pItem = pMtAfInMsgList;
//  166       }
//  167       else
//  168       {
//  169         pPrev->next = pItem->next;
//  170         (void)osal_mem_free(pItem);
//  171         pItem = pPrev->next;
//  172       }
//  173     }
//  174     else
//  175     {
//  176       pPrev = pItem;
??MT_AfExec_2:
        MOV       A,R2
        MOV       R6,A
        MOV       A,R3
        MOV       R7,A
//  177       pItem = pItem->next;
        MOV       DPL,R2
        MOV       DPH,R3
//  178     }
??MT_AfExec_1:
        LCALL     ??Subroutine61_0 & 0xFFFF
??CrossCallReturnLabel_136:
        MOV       A,R2
        ORL       A,R3
        JZ        ??MT_AfExec_3
        MOV       A,R2
        ADD       A,#0x8
        MOV       DPL,A
        CLR       A
        ADDC      A,R3
        MOV       DPH,A
        MOVX      A,@DPTR
        DEC       A
        MOVX      @DPTR,A
        JNZ       ??MT_AfExec_2
        MOV       DPTR,#pMtAfInMsgList
        LCALL     ?Subroutine42 & 0xFFFF
??CrossCallReturnLabel_158:
        MOV       A,R2
        XRL       A,R0
        JNZ       ??MT_AfExec_4
        MOV       A,R3
        XRL       A,R1
??MT_AfExec_4:
        MOV       DPL,R2
        MOV       DPH,R3
        JNZ       ??MT_AfExec_5
        LCALL     ?Subroutine12 & 0xFFFF
??CrossCallReturnLabel_20:
        ; Setup parameters for call to function osal_mem_free
        LCALL     `??osal_mem_free::?relay`; Banked call to: osal_mem_free
        SJMP      ??MT_AfExec_0
??MT_AfExec_5:
        LCALL     ?Subroutine42 & 0xFFFF
??CrossCallReturnLabel_159:
        MOV       DPL,R6
        MOV       DPH,R7
        MOV       A,R0
        MOVX      @DPTR,A
        INC       DPTR
        MOV       A,R1
        MOVX      @DPTR,A
        ; Setup parameters for call to function osal_mem_free
        LCALL     `??osal_mem_free::?relay`; Banked call to: osal_mem_free
        MOV       DPL,R6
        MOV       DPH,R7
        SJMP      ??MT_AfExec_1
//  179   }
//  180 
//  181   if (pMtAfDataReq != NULL)
??MT_AfExec_3:
        LCALL     ?Subroutine3 & 0xFFFF
??CrossCallReturnLabel_154:
        JZ        ??MT_AfExec_6
//  182   {
//  183     if (--(pMtAfDataReq->tick) == 0)
        MOVX      A,@DPTR
        XCH       A,R0
        LCALL     ?Subroutine50 & 0xFFFF
??CrossCallReturnLabel_97:
        MOVX      A,@DPTR
        DEC       A
        LCALL     ?Subroutine13 & 0xFFFF
??CrossCallReturnLabel_23:
        MOVX      A,@DPTR
        JNZ       ??MT_AfExec_6
//  184     {
//  185       (void)osal_mem_free(pMtAfDataReq);
        ; Setup parameters for call to function osal_mem_free
        LCALL     ?Subroutine4 & 0xFFFF
??CrossCallReturnLabel_145:
        LCALL     `??osal_mem_free::?relay`; Banked call to: osal_mem_free
//  186       pMtAfDataReq = NULL;
        MOV       DPTR,#pMtAfDataReq
        CLR       A
        MOVX      @DPTR,A
        INC       DPTR
        MOVX      @DPTR,A
//  187     }
//  188   }
//  189 
//  190   if ((pMtAfInMsgList != NULL) || (pMtAfDataReq != NULL))
??MT_AfExec_6:
        MOV       DPTR,#pMtAfInMsgList
        LCALL     ??Subroutine62_0 & 0xFFFF
??CrossCallReturnLabel_147:
        JNZ       ??MT_AfExec_7
        LCALL     ?Subroutine3 & 0xFFFF
??CrossCallReturnLabel_155:
        JZ        ??MT_AfExec_8
//  191   {
//  192     if (ZSuccess != osal_start_timerEx(MT_TaskID, MT_AF_EXEC_EVT, MT_AF_EXEC_DLY))
??MT_AfExec_7:
        ; Setup parameters for call to function osal_start_timerEx
        MOV       DPTR,#__Constant_3e8
        LCALL     ?PUSH_XSTACK8_X_FOUR
          CFI CFA_XSP16 add(XSP16, 13)
        MOV       R2,#0x8
        MOV       R3,#0x0
        MOV       DPTR,#MT_TaskID
        MOVX      A,@DPTR
        MOV       R1,A
        LCALL     `??osal_start_timerEx::?relay`; Banked call to: osal_start_timerEx
        MOV       A,#0x4
        LCALL     ?DEALLOC_XSTACK8
          CFI CFA_XSP16 add(XSP16, 9)
        MOV       A,R1
        JZ        ??MT_AfExec_8
//  193     {
//  194       osal_set_event(MT_TaskID, MT_AF_EXEC_EVT);
        ; Setup parameters for call to function osal_set_event
        MOV       R2,#0x8
        MOV       R3,#0x0
        MOV       DPTR,#MT_TaskID
        MOVX      A,@DPTR
        MOV       R1,A
        LCALL     `??osal_set_event::?relay`; Banked call to: osal_set_event
//  195     }
//  196   }
//  197 }
??MT_AfExec_8:
        MOV       R7,#0x1
        LJMP      ?BANKED_LEAVE_XDATA
          CFI EndBlock cfiBlock0
//  198 
//  199 /***************************************************************************************************
//  200  * @fn      MT_AfCommandProcessing
//  201  *
//  202  * @brief   Process all the AF commands that are issued by test tool
//  203  *
//  204  * @param   pBuf - pointer to the received buffer
//  205  *
//  206  * @return  status
//  207  ***************************************************************************************************/

        RSEG BANKED_CODE:HUGECODE:NOROOT(0)
//  208 uint8 MT_AfCommandProcessing(uint8 *pBuf)
MT_AfCommandProcessing:
          CFI Block cfiBlock1 Using cfiCommon0
          CFI Function MT_AfCommandProcessing
        CODE
//  209 {
        FUNCALL MT_AfCommandProcessing, osal_mem_alloc
        LOCFRAME ISTACK, 0, STACK
        LOCFRAME PSTACK, 0, STACK
        LOCFRAME XSTACK, 19, STACK
        LOCFRAME IOVERLAY, 0, STATIC
        LOCFRAME DOVERLAY, 0, STATIC
        ARGFRAME ISTACK, 0, STACK
        ARGFRAME PSTACK, 0, STACK
        ARGFRAME XSTACK, 19, STACK
        ARGFRAME IOVERLAY, 0, STATIC
        ARGFRAME DOVERLAY, 0, STATIC
        FUNCALL MT_AfCommandProcessing, MT_BuildEndpointDesc
        LOCFRAME ISTACK, 0, STACK
        LOCFRAME PSTACK, 0, STACK
        LOCFRAME XSTACK, 19, STACK
        LOCFRAME IOVERLAY, 0, STATIC
        LOCFRAME DOVERLAY, 0, STATIC
        ARGFRAME ISTACK, 0, STACK
        ARGFRAME PSTACK, 0, STACK
        ARGFRAME XSTACK, 19, STACK
        ARGFRAME IOVERLAY, 0, STATIC
        ARGFRAME DOVERLAY, 0, STATIC
        FUNCALL MT_AfCommandProcessing, afRegister
        LOCFRAME ISTACK, 0, STACK
        LOCFRAME PSTACK, 0, STACK
        LOCFRAME XSTACK, 19, STACK
        LOCFRAME IOVERLAY, 0, STATIC
        LOCFRAME DOVERLAY, 0, STATIC
        ARGFRAME ISTACK, 0, STACK
        ARGFRAME PSTACK, 0, STACK
        ARGFRAME XSTACK, 19, STACK
        ARGFRAME IOVERLAY, 0, STATIC
        ARGFRAME DOVERLAY, 0, STATIC
        FUNCALL MT_AfCommandProcessing, osal_mem_free
        LOCFRAME ISTACK, 0, STACK
        LOCFRAME PSTACK, 0, STACK
        LOCFRAME XSTACK, 19, STACK
        LOCFRAME IOVERLAY, 0, STATIC
        LOCFRAME DOVERLAY, 0, STATIC
        ARGFRAME ISTACK, 0, STACK
        ARGFRAME PSTACK, 0, STACK
        ARGFRAME XSTACK, 19, STACK
        ARGFRAME IOVERLAY, 0, STATIC
        ARGFRAME DOVERLAY, 0, STATIC
        FUNCALL MT_AfCommandProcessing, MT_BuildAndSendZToolResponse
        LOCFRAME ISTACK, 0, STACK
        LOCFRAME PSTACK, 0, STACK
        LOCFRAME XSTACK, 19, STACK
        LOCFRAME IOVERLAY, 0, STATIC
        LOCFRAME DOVERLAY, 0, STATIC
        ARGFRAME ISTACK, 0, STACK
        ARGFRAME PSTACK, 0, STACK
        ARGFRAME XSTACK, 19, STACK
        ARGFRAME IOVERLAY, 0, STATIC
        ARGFRAME DOVERLAY, 0, STATIC
        FUNCALL MT_AfCommandProcessing, afDelete
        LOCFRAME ISTACK, 0, STACK
        LOCFRAME PSTACK, 0, STACK
        LOCFRAME XSTACK, 19, STACK
        LOCFRAME IOVERLAY, 0, STATIC
        LOCFRAME DOVERLAY, 0, STATIC
        ARGFRAME ISTACK, 0, STACK
        ARGFRAME PSTACK, 0, STACK
        ARGFRAME XSTACK, 19, STACK
        ARGFRAME IOVERLAY, 0, STATIC
        ARGFRAME DOVERLAY, 0, STATIC
        FUNCALL MT_AfCommandProcessing, MT_BuildAndSendZToolResponse
        LOCFRAME ISTACK, 0, STACK
        LOCFRAME PSTACK, 0, STACK
        LOCFRAME XSTACK, 19, STACK
        LOCFRAME IOVERLAY, 0, STATIC
        LOCFRAME DOVERLAY, 0, STATIC
        ARGFRAME ISTACK, 0, STACK
        ARGFRAME PSTACK, 0, STACK
        ARGFRAME XSTACK, 19, STACK
        ARGFRAME IOVERLAY, 0, STATIC
        ARGFRAME DOVERLAY, 0, STATIC
        FUNCALL MT_AfCommandProcessing, MT_AfDataRequest
        LOCFRAME ISTACK, 0, STACK
        LOCFRAME PSTACK, 0, STACK
        LOCFRAME XSTACK, 19, STACK
        LOCFRAME IOVERLAY, 0, STATIC
        LOCFRAME DOVERLAY, 0, STATIC
        ARGFRAME ISTACK, 0, STACK
        ARGFRAME PSTACK, 0, STACK
        ARGFRAME XSTACK, 19, STACK
        ARGFRAME IOVERLAY, 0, STATIC
        ARGFRAME DOVERLAY, 0, STATIC
        FUNCALL MT_AfCommandProcessing, MT_AfDataRequestSrcRtg
        LOCFRAME ISTACK, 0, STACK
        LOCFRAME PSTACK, 0, STACK
        LOCFRAME XSTACK, 19, STACK
        LOCFRAME IOVERLAY, 0, STATIC
        LOCFRAME DOVERLAY, 0, STATIC
        ARGFRAME ISTACK, 0, STACK
        ARGFRAME PSTACK, 0, STACK
        ARGFRAME XSTACK, 19, STACK
        ARGFRAME IOVERLAY, 0, STATIC
        ARGFRAME DOVERLAY, 0, STATIC
        FUNCALL MT_AfCommandProcessing, MT_AfDataRetrieve
        LOCFRAME ISTACK, 0, STACK
        LOCFRAME PSTACK, 0, STACK
        LOCFRAME XSTACK, 19, STACK
        LOCFRAME IOVERLAY, 0, STATIC
        LOCFRAME DOVERLAY, 0, STATIC
        ARGFRAME ISTACK, 0, STACK
        ARGFRAME PSTACK, 0, STACK
        ARGFRAME XSTACK, 19, STACK
        ARGFRAME IOVERLAY, 0, STATIC
        ARGFRAME DOVERLAY, 0, STATIC
        FUNCALL MT_AfCommandProcessing, MT_AfDataStore
        LOCFRAME ISTACK, 0, STACK
        LOCFRAME PSTACK, 0, STACK
        LOCFRAME XSTACK, 19, STACK
        LOCFRAME IOVERLAY, 0, STATIC
        LOCFRAME DOVERLAY, 0, STATIC
        ARGFRAME ISTACK, 0, STACK
        ARGFRAME PSTACK, 0, STACK
        ARGFRAME XSTACK, 19, STACK
        ARGFRAME IOVERLAY, 0, STATIC
        ARGFRAME DOVERLAY, 0, STATIC
        FUNCALL MT_AfCommandProcessing, afAPSF_ConfigSet
        LOCFRAME ISTACK, 0, STACK
        LOCFRAME PSTACK, 0, STACK
        LOCFRAME XSTACK, 19, STACK
        LOCFRAME IOVERLAY, 0, STATIC
        LOCFRAME DOVERLAY, 0, STATIC
        ARGFRAME ISTACK, 0, STACK
        ARGFRAME PSTACK, 0, STACK
        ARGFRAME XSTACK, 19, STACK
        ARGFRAME IOVERLAY, 0, STATIC
        ARGFRAME DOVERLAY, 0, STATIC
        FUNCALL MT_AfCommandProcessing, MT_BuildAndSendZToolResponse
        LOCFRAME ISTACK, 0, STACK
        LOCFRAME PSTACK, 0, STACK
        LOCFRAME XSTACK, 19, STACK
        LOCFRAME IOVERLAY, 0, STATIC
        LOCFRAME DOVERLAY, 0, STATIC
        ARGFRAME ISTACK, 0, STACK
        ARGFRAME PSTACK, 0, STACK
        ARGFRAME XSTACK, 19, STACK
        ARGFRAME IOVERLAY, 0, STATIC
        ARGFRAME DOVERLAY, 0, STATIC
        FUNCALL MT_AfCommandProcessing, afAPSF_ConfigGet
        LOCFRAME ISTACK, 0, STACK
        LOCFRAME PSTACK, 0, STACK
        LOCFRAME XSTACK, 19, STACK
        LOCFRAME IOVERLAY, 0, STATIC
        LOCFRAME DOVERLAY, 0, STATIC
        ARGFRAME ISTACK, 0, STACK
        ARGFRAME PSTACK, 0, STACK
        ARGFRAME XSTACK, 19, STACK
        ARGFRAME IOVERLAY, 0, STATIC
        ARGFRAME DOVERLAY, 0, STATIC
        FUNCALL MT_AfCommandProcessing, MT_BuildAndSendZToolResponse
        LOCFRAME ISTACK, 0, STACK
        LOCFRAME PSTACK, 0, STACK
        LOCFRAME XSTACK, 19, STACK
        LOCFRAME IOVERLAY, 0, STATIC
        LOCFRAME DOVERLAY, 0, STATIC
        ARGFRAME ISTACK, 0, STACK
        ARGFRAME PSTACK, 0, STACK
        ARGFRAME XSTACK, 19, STACK
        ARGFRAME IOVERLAY, 0, STATIC
        ARGFRAME DOVERLAY, 0, STATIC
        REQUIRE ?V0
        REQUIRE ?V1
        REQUIRE ?V2
        REQUIRE ?V3
        REQUIRE ?V4
        REQUIRE ?V5
        MOV       A,#-0xe
        LCALL     ?BANKED_ENTER_XDATA
          CFI DPH0 load(1, XDATA, add(CFA_XSP16, literal(-1)))
          CFI DPL0 load(1, XDATA, add(CFA_XSP16, literal(-2)))
          CFI ?BRET_EXT load(1, XDATA, add(CFA_XSP16, literal(-3)))
          CFI ?RET_HIGH load(1, XDATA, add(CFA_XSP16, literal(-4)))
          CFI ?RET_LOW load(1, XDATA, add(CFA_XSP16, literal(-5)))
          CFI R7 load(1, XDATA, add(CFA_XSP16, literal(-6)))
          CFI V5 load(1, XDATA, add(CFA_XSP16, literal(-7)))
          CFI V4 load(1, XDATA, add(CFA_XSP16, literal(-8)))
          CFI V3 load(1, XDATA, add(CFA_XSP16, literal(-9)))
          CFI V2 load(1, XDATA, add(CFA_XSP16, literal(-10)))
          CFI V1 load(1, XDATA, add(CFA_XSP16, literal(-11)))
          CFI V0 load(1, XDATA, add(CFA_XSP16, literal(-12)))
          CFI VB load(1, XDATA, add(CFA_XSP16, literal(-13)))
          CFI R6 load(1, XDATA, add(CFA_XSP16, literal(-14)))
          CFI CFA_SP SP+0
          CFI CFA_XSP16 add(XSP16, 14)
        ; Saved register size: 14
        ; Auto size: 5
        MOV       A,#-0x5
        LCALL     ?ALLOC_XSTACK8
          CFI CFA_XSP16 add(XSP16, 19)
//  210   uint8 status = MT_RPC_SUCCESS;
        MOV       ?V2,#0x0
//  211 
//  212   switch (pBuf[MT_RPC_POS_CMD1])
        MOV       A,R2
        ADD       A,#0x3
        MOV       ?V0,A
        CLR       A
        ADDC      A,R3
        MOV       ?V1,A
        MOV       A,R2
        ADD       A,#0x2
        MOV       R0,A
        CLR       A
        ADDC      A,R3
        MOV       R1,A
        MOV       DPL,R0
        MOV       DPH,R1
        MOVX      A,@DPTR
        JZ        ??MT_AfCommandProcessing_0
        DEC       A
        JNZ       $+5
        LJMP      ??MT_AfCommandProcessing_1 & 0xFFFF
        DEC       A
        JNZ       $+5
        LJMP      ??MT_AfCommandProcessing_1 & 0xFFFF
        DEC       A
        JNZ       $+5
        LJMP      ??MT_AfCommandProcessing_2 & 0xFFFF
        DEC       A
        JZ        ??MT_AfCommandProcessing_3
        ADD       A,#-0xd
        JNZ       $+5
        LJMP      ??MT_AfCommandProcessing_4 & 0xFFFF
        DEC       A
        JNZ       $+5
        LJMP      ??MT_AfCommandProcessing_5 & 0xFFFF
        DEC       A
        JNZ       $+5
        LJMP      ??MT_AfCommandProcessing_6 & 0xFFFF
        DEC       A
        JNZ       $+5
        LJMP      ??MT_AfCommandProcessing_7 & 0xFFFF
        LJMP      ??MT_AfCommandProcessing_8 & 0xFFFF
//  213   {
//  214     case MT_AF_REGISTER:
//  215       MT_AfRegister(pBuf);
??MT_AfCommandProcessing_0:
        LCALL     ?Subroutine34 & 0xFFFF
??CrossCallReturnLabel_109:
        MOVX      A,@DPTR
        MOV       ?V3,A
        ; Setup parameters for call to function osal_mem_alloc
        MOV       R2,#0x7
        MOV       R3,#0x0
        LCALL     `??osal_mem_alloc::?relay`; Banked call to: osal_mem_alloc
        MOV       ?V4,R2
        MOV       ?V5,R3
        MOV       R6,?V4
        MOV       R7,?V5
        MOV       A,R6
        ORL       A,R7
        JZ        ??MT_AfCommandProcessing_9
        MOV       DPL,R6
        MOV       DPH,R7
        INC       DPTR
        INC       DPTR
        MOV       A,#MT_TaskID & 0xff
        MOVX      @DPTR,A
        INC       DPTR
        MOV       A,#(MT_TaskID >> 8) & 0xff
        MOVX      @DPTR,A
        ; Setup parameters for call to function MT_BuildEndpointDesc
        MOV       A,R6
        MOV       R4,A
        MOV       A,R7
        MOV       R5,A
        MOV       R2,?V0
        MOV       R3,?V1
        LCALL     `??MT_BuildEndpointDesc::?relay`; Banked call to: MT_BuildEndpointDesc
        MOV       A,R1
        MOV       DPL,?XSP + 0
        MOV       DPH,?XSP + 1
        MOVX      @DPTR,A
        JNZ       ??MT_AfCommandProcessing_10
        ; Setup parameters for call to function afRegister
        MOV       A,R6
        MOV       R2,A
        MOV       A,R7
        MOV       R3,A
        LCALL     `??afRegister::?relay`; Banked call to: afRegister
        MOV       A,R1
        MOV       DPL,?XSP + 0
        MOV       DPH,?XSP + 1
        MOVX      @DPTR,A
??MT_AfCommandProcessing_10:
        MOVX      A,@DPTR
        JZ        ??MT_AfCommandProcessing_9
        ; Setup parameters for call to function osal_mem_free
        MOV       A,R6
        MOV       R2,A
        MOV       A,R7
        MOV       R3,A
        LCALL     `??osal_mem_free::?relay`; Banked call to: osal_mem_free
??MT_AfCommandProcessing_9:
        ; Setup parameters for call to function MT_BuildAndSendZToolResponse
        MOV       R4,?XSP + 0
        MOV       R5,?XSP + 1
        MOV       R3,#0x1
        MOV       R2,?V3
        LJMP      ??MT_AfCommandProcessing_11 & 0xFFFF
//  216       break;
//  217 
//  218     case MT_AF_DELETE:
//  219       MT_AfDelete( pBuf );
??MT_AfCommandProcessing_3:
        LCALL     ?Subroutine34 & 0xFFFF
??CrossCallReturnLabel_110:
        MOVX      A,@DPTR
        MOV       R6,A
        ; Setup parameters for call to function afDelete
        MOV       DPL,?V0
        MOV       DPH,?V1
        MOVX      A,@DPTR
        MOV       R1,A
        LCALL     `??afDelete::?relay`; Banked call to: afDelete
        LCALL     ?Subroutine31 & 0xFFFF
??CrossCallReturnLabel_106:
        MOV       A,R6
        MOV       R2,A
        LJMP      ??MT_AfCommandProcessing_11 & 0xFFFF
//  220       break;
//  221 
//  222     case MT_AF_DATA_REQUEST:
//  223     case MT_AF_DATA_REQUEST_EXT:
//  224       MT_AfDataRequest(pBuf);
??MT_AfCommandProcessing_1:
        ; Setup parameters for call to function MT_AfDataRequest
        LCALL     `??MT_AfDataRequest::?relay`; Banked call to: MT_AfDataRequest
//  225       break;
        LJMP      ??MT_AfCommandProcessing_12 & 0xFFFF
//  226 
//  227 #if defined( ZIGBEEPRO )
//  228     case MT_AF_DATA_REQUEST_SRCRTG:
//  229       MT_AfDataRequestSrcRtg(pBuf);
??MT_AfCommandProcessing_2:
        ; Setup parameters for call to function MT_AfDataRequestSrcRtg
        LCALL     `??MT_AfDataRequestSrcRtg::?relay`; Banked call to: MT_AfDataRequestSrcRtg
//  230       break;
        LJMP      ??MT_AfCommandProcessing_12 & 0xFFFF
//  231 #endif
//  232 
//  233 #if defined INTER_PAN
//  234     case MT_AF_INTER_PAN_CTL:
//  235       MT_AfInterPanCtl(pBuf);
//  236       break;
//  237 #endif
//  238 
//  239     case MT_AF_DATA_RETRIEVE:
//  240       MT_AfDataRetrieve(pBuf);
??MT_AfCommandProcessing_5:
        ; Setup parameters for call to function MT_AfDataRetrieve
        LCALL     `??MT_AfDataRetrieve::?relay`; Banked call to: MT_AfDataRetrieve
//  241       break;
        LJMP      ??MT_AfCommandProcessing_12 & 0xFFFF
//  242 
//  243     case MT_AF_DATA_STORE:
//  244       MT_AfDataStore(pBuf);
??MT_AfCommandProcessing_4:
        ; Setup parameters for call to function MT_AfDataStore
        LCALL     `??MT_AfDataStore::?relay`; Banked call to: MT_AfDataStore
//  245       break;
        LJMP      ??MT_AfCommandProcessing_12 & 0xFFFF
//  246 
//  247     case MT_AF_APSF_CONFIG_SET:
//  248       MT_AfAPSF_ConfigSet(pBuf);
??MT_AfCommandProcessing_6:
        MOV       DPL,R2
        MOV       DPH,R3
        INC       DPTR
        INC       DPTR
        INC       DPTR
        INC       DPTR
        MOVX      A,@DPTR
        PUSH      A
          CFI CFA_SP SP+-1
        MOV       A,#0x1
        LCALL     ?XSTACK_DISP0_8
        POP       A
          CFI CFA_SP SP+0
        LCALL     ?Subroutine35 & 0xFFFF
??CrossCallReturnLabel_72:
        INC       DPTR
        MOVX      A,@DPTR
        PUSH      A
          CFI CFA_SP SP+-1
        MOV       A,#0x2
        LCALL     ?XSTACK_DISP0_8
        POP       A
          CFI CFA_SP SP+0
        MOVX      @DPTR,A
        ; Setup parameters for call to function afAPSF_ConfigSet
        MOV       A,#0x1
        LCALL     ?XSTACK_DISP101_8
        MOV       DPL,?V0
        MOV       DPH,?V1
        MOVX      A,@DPTR
        MOV       R1,A
        LCALL     `??afAPSF_ConfigSet::?relay`; Banked call to: afAPSF_ConfigSet
        LCALL     ?Subroutine31 & 0xFFFF
??CrossCallReturnLabel_107:
        MOV       R2,#0x13
        SJMP      ??MT_AfCommandProcessing_11
//  249       break;
//  250 
//  251     case MT_AF_APSF_CONFIG_GET:
//  252       MT_AfAPSF_ConfigGet(pBuf);
??MT_AfCommandProcessing_7:
        MOV       DPTR,#`?<Constant {0, 0}>`
        MOV       A,#0x1
        LCALL     ?XSTACK_DISP102_8
        MOV       A,#0x2
        LCALL     ?MOVE_LONG8_XDATA_XDATA
        ; Setup parameters for call to function afAPSF_ConfigGet
        INC       A
        LCALL     ?XSTACK_DISP101_8
        MOV       DPL,?V0
        MOV       DPH,?V1
        MOVX      A,@DPTR
        MOV       R1,A
        LCALL     `??afAPSF_ConfigGet::?relay`; Banked call to: afAPSF_ConfigGet
        MOV       A,#0x1
        LCALL     ?XSTACK_DISP0_8
        MOVX      A,@DPTR
        PUSH      A
          CFI CFA_SP SP+-1
        MOV       A,#0x3
        LCALL     ?XSTACK_DISP0_8
        POP       A
          CFI CFA_SP SP+0
        MOVX      @DPTR,A
        MOV       A,#0x2
        LCALL     ?XSTACK_DISP0_8
        MOVX      A,@DPTR
        PUSH      A
          CFI CFA_SP SP+-1
        MOV       A,#0x4
        LCALL     ?XSTACK_DISP0_8
        POP       A
          CFI CFA_SP SP+0
        MOVX      @DPTR,A
        ; Setup parameters for call to function MT_BuildAndSendZToolResponse
        MOV       A,#0x3
        LCALL     ?XSTACK_DISP102_8
        MOV       R3,#0x3
        MOV       R2,#0x14
??MT_AfCommandProcessing_11:
        MOV       R1,#0x64
        LCALL     `??MT_BuildAndSendZToolResponse::?relay`; Banked call to: MT_BuildAndSendZToolResponse
//  253       break;
        SJMP      ??MT_AfCommandProcessing_12
//  254 
//  255     default:
//  256       status = MT_RPC_ERR_COMMAND_ID;
??MT_AfCommandProcessing_8:
        MOV       ?V2,#0x2
//  257       break;
//  258   }
//  259 
//  260   return status;
??MT_AfCommandProcessing_12:
        MOV       R1,?V2
        MOV       A,#0x5
          CFI EndBlock cfiBlock1
        REQUIRE ?Subroutine0
        ; // Fall through to label ?Subroutine0
//  261 }

        RSEG BANKED_CODE:HUGECODE:NOROOT(0)
?Subroutine0:
          CFI Block cfiBlock2 Using cfiCommon0
          CFI NoFunction
          CFI CFA_SP SP+0
          CFI CFA_XSP16 add(XSP16, 19)
          CFI VB load(1, XDATA, add(CFA_XSP16, literal(-13)))
          CFI DPL0 load(1, XDATA, add(CFA_XSP16, literal(-2)))
          CFI DPH0 load(1, XDATA, add(CFA_XSP16, literal(-1)))
          CFI R6 load(1, XDATA, add(CFA_XSP16, literal(-14)))
          CFI R7 load(1, XDATA, add(CFA_XSP16, literal(-6)))
          CFI V0 load(1, XDATA, add(CFA_XSP16, literal(-12)))
          CFI V1 load(1, XDATA, add(CFA_XSP16, literal(-11)))
          CFI V2 load(1, XDATA, add(CFA_XSP16, literal(-10)))
          CFI V3 load(1, XDATA, add(CFA_XSP16, literal(-9)))
          CFI V4 load(1, XDATA, add(CFA_XSP16, literal(-8)))
          CFI V5 load(1, XDATA, add(CFA_XSP16, literal(-7)))
          CFI ?BRET_EXT load(1, XDATA, add(CFA_XSP16, literal(-3)))
          CFI ?RET_HIGH load(1, XDATA, add(CFA_XSP16, literal(-4)))
          CFI ?RET_LOW load(1, XDATA, add(CFA_XSP16, literal(-5)))
          CFI Invalid
        LCALL     ?DEALLOC_XSTACK8
          CFI CFA_XSP16 add(XSP16, 14)
          CFI Valid
        MOV       R7,#0x6
        LJMP      ?BANKED_LEAVE_XDATA
          CFI EndBlock cfiBlock2

        RSEG BANKED_CODE:HUGECODE:NOROOT(0)
?Subroutine31:
          CFI Block cfiCond3 Using cfiCommon0
          CFI Function MT_AfCommandProcessing
          CFI Conditional ??CrossCallReturnLabel_106
          CFI R6 load(1, XDATA, add(CFA_XSP16, literal(-14)))
          CFI VB load(1, XDATA, add(CFA_XSP16, literal(-13)))
          CFI V0 load(1, XDATA, add(CFA_XSP16, literal(-12)))
          CFI V1 load(1, XDATA, add(CFA_XSP16, literal(-11)))
          CFI V2 load(1, XDATA, add(CFA_XSP16, literal(-10)))
          CFI V3 load(1, XDATA, add(CFA_XSP16, literal(-9)))
          CFI V4 load(1, XDATA, add(CFA_XSP16, literal(-8)))
          CFI V5 load(1, XDATA, add(CFA_XSP16, literal(-7)))
          CFI R7 load(1, XDATA, add(CFA_XSP16, literal(-6)))
          CFI ?RET_LOW load(1, XDATA, add(CFA_XSP16, literal(-5)))
          CFI ?RET_HIGH load(1, XDATA, add(CFA_XSP16, literal(-4)))
          CFI ?BRET_EXT load(1, XDATA, add(CFA_XSP16, literal(-3)))
          CFI DPL0 load(1, XDATA, add(CFA_XSP16, literal(-2)))
          CFI DPH0 load(1, XDATA, add(CFA_XSP16, literal(-1)))
          CFI CFA_SP SP+-2
          CFI CFA_XSP16 add(XSP16, 19)
          CFI Block cfiCond4 Using cfiCommon0
          CFI (cfiCond4) Function MT_AfCommandProcessing
          CFI (cfiCond4) Conditional ??CrossCallReturnLabel_107
          CFI (cfiCond4) R6 load(1, XDATA, add(CFA_XSP16, literal(-14)))
          CFI (cfiCond4) VB load(1, XDATA, add(CFA_XSP16, literal(-13)))
          CFI (cfiCond4) V0 load(1, XDATA, add(CFA_XSP16, literal(-12)))
          CFI (cfiCond4) V1 load(1, XDATA, add(CFA_XSP16, literal(-11)))
          CFI (cfiCond4) V2 load(1, XDATA, add(CFA_XSP16, literal(-10)))
          CFI (cfiCond4) V3 load(1, XDATA, add(CFA_XSP16, literal(-9)))
          CFI (cfiCond4) V4 load(1, XDATA, add(CFA_XSP16, literal(-8)))
          CFI (cfiCond4) V5 load(1, XDATA, add(CFA_XSP16, literal(-7)))
          CFI (cfiCond4) R7 load(1, XDATA, add(CFA_XSP16, literal(-6)))
          CFI (cfiCond4) ?RET_LOW load(1, XDATA, add(CFA_XSP16, literal(-5)))
          CFI (cfiCond4) ?RET_HIGH load(1, XDATA, add(CFA_XSP16, literal(-4)))
          CFI (cfiCond4) ?BRET_EXT load(1, XDATA, add(CFA_XSP16, literal(-3)))
          CFI (cfiCond4) DPL0 load(1, XDATA, add(CFA_XSP16, literal(-2)))
          CFI (cfiCond4) DPH0 load(1, XDATA, add(CFA_XSP16, literal(-1)))
          CFI (cfiCond4) CFA_SP SP+-2
          CFI (cfiCond4) CFA_XSP16 add(XSP16, 19)
          CFI Block cfiPicker5 Using cfiCommon1
          CFI (cfiPicker5) NoFunction
          CFI (cfiPicker5) Picker
        MOV       A,R1
        MOV       DPL,?XSP + 0
        MOV       DPH,?XSP + 1
          CFI EndBlock cfiCond3
          CFI EndBlock cfiCond4
          CFI EndBlock cfiPicker5
        REQUIRE ??Subroutine54_0
        ; // Fall through to label ??Subroutine54_0

        RSEG BANKED_CODE:HUGECODE:NOROOT(0)
??Subroutine54_0:
          CFI Block cfiCond6 Using cfiCommon0
          CFI Function MT_AfDataStore
          CFI Conditional ??CrossCallReturnLabel_108
          CFI R6 load(1, XDATA, add(CFA_XSP16, literal(-14)))
          CFI VB load(1, XDATA, add(CFA_XSP16, literal(-13)))
          CFI V0 load(1, XDATA, add(CFA_XSP16, literal(-12)))
          CFI V1 load(1, XDATA, add(CFA_XSP16, literal(-11)))
          CFI V2 load(1, XDATA, add(CFA_XSP16, literal(-10)))
          CFI V3 load(1, XDATA, add(CFA_XSP16, literal(-9)))
          CFI V4 load(1, XDATA, add(CFA_XSP16, literal(-8)))
          CFI V5 load(1, XDATA, add(CFA_XSP16, literal(-7)))
          CFI R7 load(1, XDATA, add(CFA_XSP16, literal(-6)))
          CFI ?RET_LOW load(1, XDATA, add(CFA_XSP16, literal(-5)))
          CFI ?RET_HIGH load(1, XDATA, add(CFA_XSP16, literal(-4)))
          CFI ?BRET_EXT load(1, XDATA, add(CFA_XSP16, literal(-3)))
          CFI DPL0 load(1, XDATA, add(CFA_XSP16, literal(-2)))
          CFI DPH0 load(1, XDATA, add(CFA_XSP16, literal(-1)))
          CFI CFA_SP SP+-2
          CFI CFA_XSP16 add(XSP16, 15)
          CFI Block cfiCond7 Using cfiCommon0
          CFI (cfiCond7) Function MT_AfCommandProcessing
          CFI (cfiCond7) Conditional ??CrossCallReturnLabel_106
          CFI (cfiCond7) R6 load(1, XDATA, add(CFA_XSP16, literal(-14)))
          CFI (cfiCond7) VB load(1, XDATA, add(CFA_XSP16, literal(-13)))
          CFI (cfiCond7) V0 load(1, XDATA, add(CFA_XSP16, literal(-12)))
          CFI (cfiCond7) V1 load(1, XDATA, add(CFA_XSP16, literal(-11)))
          CFI (cfiCond7) V2 load(1, XDATA, add(CFA_XSP16, literal(-10)))
          CFI (cfiCond7) V3 load(1, XDATA, add(CFA_XSP16, literal(-9)))
          CFI (cfiCond7) V4 load(1, XDATA, add(CFA_XSP16, literal(-8)))
          CFI (cfiCond7) V5 load(1, XDATA, add(CFA_XSP16, literal(-7)))
          CFI (cfiCond7) R7 load(1, XDATA, add(CFA_XSP16, literal(-6)))
          CFI (cfiCond7) ?RET_LOW load(1, XDATA, add(CFA_XSP16, literal(-5)))
          CFI (cfiCond7) ?RET_HIGH load(1, XDATA, add(CFA_XSP16, literal(-4)))
          CFI (cfiCond7) ?BRET_EXT load(1, XDATA, add(CFA_XSP16, literal(-3)))
          CFI (cfiCond7) DPL0 load(1, XDATA, add(CFA_XSP16, literal(-2)))
          CFI (cfiCond7) DPH0 load(1, XDATA, add(CFA_XSP16, literal(-1)))
          CFI (cfiCond7) CFA_SP SP+-2
          CFI (cfiCond7) CFA_XSP16 add(XSP16, 19)
          CFI Block cfiCond8 Using cfiCommon0
          CFI (cfiCond8) Function MT_AfCommandProcessing
          CFI (cfiCond8) Conditional ??CrossCallReturnLabel_107
          CFI (cfiCond8) R6 load(1, XDATA, add(CFA_XSP16, literal(-14)))
          CFI (cfiCond8) VB load(1, XDATA, add(CFA_XSP16, literal(-13)))
          CFI (cfiCond8) V0 load(1, XDATA, add(CFA_XSP16, literal(-12)))
          CFI (cfiCond8) V1 load(1, XDATA, add(CFA_XSP16, literal(-11)))
          CFI (cfiCond8) V2 load(1, XDATA, add(CFA_XSP16, literal(-10)))
          CFI (cfiCond8) V3 load(1, XDATA, add(CFA_XSP16, literal(-9)))
          CFI (cfiCond8) V4 load(1, XDATA, add(CFA_XSP16, literal(-8)))
          CFI (cfiCond8) V5 load(1, XDATA, add(CFA_XSP16, literal(-7)))
          CFI (cfiCond8) R7 load(1, XDATA, add(CFA_XSP16, literal(-6)))
          CFI (cfiCond8) ?RET_LOW load(1, XDATA, add(CFA_XSP16, literal(-5)))
          CFI (cfiCond8) ?RET_HIGH load(1, XDATA, add(CFA_XSP16, literal(-4)))
          CFI (cfiCond8) ?BRET_EXT load(1, XDATA, add(CFA_XSP16, literal(-3)))
          CFI (cfiCond8) DPL0 load(1, XDATA, add(CFA_XSP16, literal(-2)))
          CFI (cfiCond8) DPH0 load(1, XDATA, add(CFA_XSP16, literal(-1)))
          CFI (cfiCond8) CFA_SP SP+-2
          CFI (cfiCond8) CFA_XSP16 add(XSP16, 19)
          CFI Block cfiPicker9 Using cfiCommon1
          CFI (cfiPicker9) NoFunction
          CFI (cfiPicker9) Picker
        MOVX      @DPTR,A
        ; Setup parameters for call to function MT_BuildAndSendZToolResponse
        ; Setup parameters for call to function MT_BuildAndSendZToolResponse
        ; Setup parameters for call to function MT_BuildAndSendZToolResponse
        MOV       R4,?XSP + 0
        MOV       R5,?XSP + 1
        MOV       R3,#0x1
        RET
          CFI EndBlock cfiCond6
          CFI EndBlock cfiCond7
          CFI EndBlock cfiCond8
          CFI EndBlock cfiPicker9
//  262 
//  263 /***************************************************************************************************
//  264  * @fn      MT_AfRegister
//  265  *
//  266  * @brief   Process AF Register command
//  267  *
//  268  * @param   pBuf - pointer to the received buffer
//  269  *
//  270  * @return  none
//  271  ***************************************************************************************************/
//  272 static void MT_AfRegister(uint8 *pBuf)
//  273 {
//  274   uint8 cmdId;
//  275   uint8 retValue = ZMemError;
//  276   endPointDesc_t *epDesc;
//  277 
//  278   /* parse header */
//  279   cmdId = pBuf[MT_RPC_POS_CMD1];
//  280   pBuf += MT_RPC_FRAME_HDR_SZ;
//  281 
//  282   epDesc = (endPointDesc_t *)osal_mem_alloc(sizeof(endPointDesc_t));
//  283   if ( epDesc )
//  284   {
//  285     epDesc->task_id = &MT_TaskID;
//  286     retValue = MT_BuildEndpointDesc( pBuf, epDesc );
//  287     if ( retValue == ZSuccess )
//  288     {
//  289       retValue = afRegister( epDesc );
//  290     }
//  291 
//  292     if ( retValue != ZSuccess )
//  293     {
//  294       osal_mem_free( epDesc );
//  295     }
//  296   }
//  297 
//  298   /* Build and send back the response */
//  299   MT_BuildAndSendZToolResponse(((uint8)MT_RPC_CMD_SRSP | (uint8)MT_RPC_SYS_AF), cmdId, 1, &retValue);
//  300 }
//  301 
//  302 /***************************************************************************************************
//  303  * @fn      MT_AfDelete
//  304  *
//  305  * @brief   Process AF Delete Endpoint command
//  306  *
//  307  * @param   pBuf - pointer to the received buffer
//  308  *
//  309  * @return  none
//  310  ***************************************************************************************************/
//  311 static void MT_AfDelete(uint8 *pBuf)
//  312 {
//  313   uint8 cmdId;
//  314   uint8 retValue = ZMemError;
//  315 
//  316   /* parse header */
//  317   cmdId = pBuf[MT_RPC_POS_CMD1];
//  318   pBuf += MT_RPC_FRAME_HDR_SZ;
//  319 
//  320   retValue = afDelete( *pBuf );
//  321 
//  322   /* Build and send back the response */
//  323   MT_BuildAndSendZToolResponse(((uint8)MT_RPC_CMD_SRSP | (uint8)MT_RPC_SYS_AF), cmdId, 1, &retValue);
//  324 }
//  325 
//  326 /***************************************************************************************************
//  327  * @fn      MT_AfDataRequest
//  328  *
//  329  * @brief   Process AF Register command
//  330  *
//  331  * @param   pBuf - pointer to the received buffer
//  332  *
//  333  * @return  none
//  334  ***************************************************************************************************/

        RSEG BANKED_CODE:HUGECODE:NOROOT(0)
//  335 static void MT_AfDataRequest(uint8 *pBuf)
MT_AfDataRequest:
          CFI Block cfiBlock10 Using cfiCommon0
          CFI Function MT_AfDataRequest
        CODE
//  336 {
        FUNCALL MT_AfDataRequest, osal_memcpy
        LOCFRAME ISTACK, 0, STACK
        LOCFRAME PSTACK, 0, STACK
        LOCFRAME XSTACK, 37, STACK
        LOCFRAME IOVERLAY, 0, STATIC
        LOCFRAME DOVERLAY, 0, STATIC
        ARGFRAME ISTACK, 0, STACK
        ARGFRAME PSTACK, 0, STACK
        ARGFRAME XSTACK, 37, STACK
        ARGFRAME IOVERLAY, 0, STATIC
        ARGFRAME DOVERLAY, 0, STATIC
        FUNCALL MT_AfDataRequest, osal_build_uint16
        LOCFRAME ISTACK, 0, STACK
        LOCFRAME PSTACK, 0, STACK
        LOCFRAME XSTACK, 34, STACK
        LOCFRAME IOVERLAY, 0, STATIC
        LOCFRAME DOVERLAY, 0, STATIC
        ARGFRAME ISTACK, 0, STACK
        ARGFRAME PSTACK, 0, STACK
        ARGFRAME XSTACK, 34, STACK
        ARGFRAME IOVERLAY, 0, STATIC
        ARGFRAME DOVERLAY, 0, STATIC
        FUNCALL MT_AfDataRequest, osal_build_uint16
        LOCFRAME ISTACK, 0, STACK
        LOCFRAME PSTACK, 0, STACK
        LOCFRAME XSTACK, 34, STACK
        LOCFRAME IOVERLAY, 0, STATIC
        LOCFRAME DOVERLAY, 0, STATIC
        ARGFRAME ISTACK, 0, STACK
        ARGFRAME PSTACK, 0, STACK
        ARGFRAME XSTACK, 34, STACK
        ARGFRAME IOVERLAY, 0, STATIC
        ARGFRAME DOVERLAY, 0, STATIC
        FUNCALL MT_AfDataRequest, osal_build_uint16
        LOCFRAME ISTACK, 0, STACK
        LOCFRAME PSTACK, 0, STACK
        LOCFRAME XSTACK, 34, STACK
        LOCFRAME IOVERLAY, 0, STATIC
        LOCFRAME DOVERLAY, 0, STATIC
        ARGFRAME ISTACK, 0, STACK
        ARGFRAME PSTACK, 0, STACK
        ARGFRAME XSTACK, 34, STACK
        ARGFRAME IOVERLAY, 0, STATIC
        ARGFRAME DOVERLAY, 0, STATIC
        FUNCALL MT_AfDataRequest, afFindEndPointDesc
        LOCFRAME ISTACK, 0, STACK
        LOCFRAME PSTACK, 0, STACK
        LOCFRAME XSTACK, 34, STACK
        LOCFRAME IOVERLAY, 0, STATIC
        LOCFRAME DOVERLAY, 0, STATIC
        ARGFRAME ISTACK, 0, STACK
        ARGFRAME PSTACK, 0, STACK
        ARGFRAME XSTACK, 34, STACK
        ARGFRAME IOVERLAY, 0, STATIC
        ARGFRAME DOVERLAY, 0, STATIC
        FUNCALL MT_AfDataRequest, osal_build_uint16
        LOCFRAME ISTACK, 0, STACK
        LOCFRAME PSTACK, 0, STACK
        LOCFRAME XSTACK, 34, STACK
        LOCFRAME IOVERLAY, 0, STATIC
        LOCFRAME DOVERLAY, 0, STATIC
        ARGFRAME ISTACK, 0, STACK
        ARGFRAME PSTACK, 0, STACK
        ARGFRAME XSTACK, 34, STACK
        ARGFRAME IOVERLAY, 0, STATIC
        ARGFRAME DOVERLAY, 0, STATIC
        FUNCALL MT_AfDataRequest, osal_build_uint16
        LOCFRAME ISTACK, 0, STACK
        LOCFRAME PSTACK, 0, STACK
        LOCFRAME XSTACK, 34, STACK
        LOCFRAME IOVERLAY, 0, STATIC
        LOCFRAME DOVERLAY, 0, STATIC
        ARGFRAME ISTACK, 0, STACK
        ARGFRAME PSTACK, 0, STACK
        ARGFRAME XSTACK, 34, STACK
        ARGFRAME IOVERLAY, 0, STATIC
        ARGFRAME DOVERLAY, 0, STATIC
        FUNCALL MT_AfDataRequest, osal_mem_alloc
        LOCFRAME ISTACK, 0, STACK
        LOCFRAME PSTACK, 0, STACK
        LOCFRAME XSTACK, 34, STACK
        LOCFRAME IOVERLAY, 0, STATIC
        LOCFRAME DOVERLAY, 0, STATIC
        ARGFRAME ISTACK, 0, STACK
        ARGFRAME PSTACK, 0, STACK
        ARGFRAME XSTACK, 34, STACK
        ARGFRAME IOVERLAY, 0, STATIC
        ARGFRAME DOVERLAY, 0, STATIC
        FUNCALL MT_AfDataRequest, osal_memcpy
        LOCFRAME ISTACK, 0, STACK
        LOCFRAME PSTACK, 0, STACK
        LOCFRAME XSTACK, 37, STACK
        LOCFRAME IOVERLAY, 0, STATIC
        LOCFRAME DOVERLAY, 0, STATIC
        ARGFRAME ISTACK, 0, STACK
        ARGFRAME PSTACK, 0, STACK
        ARGFRAME XSTACK, 37, STACK
        ARGFRAME IOVERLAY, 0, STATIC
        ARGFRAME DOVERLAY, 0, STATIC
        FUNCALL MT_AfDataRequest, osal_start_timerEx
        LOCFRAME ISTACK, 0, STACK
        LOCFRAME PSTACK, 0, STACK
        LOCFRAME XSTACK, 38, STACK
        LOCFRAME IOVERLAY, 0, STATIC
        LOCFRAME DOVERLAY, 0, STATIC
        ARGFRAME ISTACK, 0, STACK
        ARGFRAME PSTACK, 0, STACK
        ARGFRAME XSTACK, 38, STACK
        ARGFRAME IOVERLAY, 0, STATIC
        ARGFRAME DOVERLAY, 0, STATIC
        FUNCALL MT_AfDataRequest, osal_set_event
        LOCFRAME ISTACK, 0, STACK
        LOCFRAME PSTACK, 0, STACK
        LOCFRAME XSTACK, 34, STACK
        LOCFRAME IOVERLAY, 0, STATIC
        LOCFRAME DOVERLAY, 0, STATIC
        ARGFRAME ISTACK, 0, STACK
        ARGFRAME PSTACK, 0, STACK
        ARGFRAME XSTACK, 34, STACK
        ARGFRAME IOVERLAY, 0, STATIC
        ARGFRAME DOVERLAY, 0, STATIC
        FUNCALL MT_AfDataRequest, AF_DataRequest
        LOCFRAME ISTACK, 0, STACK
        LOCFRAME PSTACK, 0, STACK
        LOCFRAME XSTACK, 43, STACK
        LOCFRAME IOVERLAY, 0, STATIC
        LOCFRAME DOVERLAY, 0, STATIC
        ARGFRAME ISTACK, 0, STACK
        ARGFRAME PSTACK, 0, STACK
        ARGFRAME XSTACK, 43, STACK
        ARGFRAME IOVERLAY, 0, STATIC
        ARGFRAME DOVERLAY, 0, STATIC
        FUNCALL MT_AfDataRequest, MT_BuildAndSendZToolResponse
        LOCFRAME ISTACK, 0, STACK
        LOCFRAME PSTACK, 0, STACK
        LOCFRAME XSTACK, 34, STACK
        LOCFRAME IOVERLAY, 0, STATIC
        LOCFRAME DOVERLAY, 0, STATIC
        ARGFRAME ISTACK, 0, STACK
        ARGFRAME PSTACK, 0, STACK
        ARGFRAME XSTACK, 34, STACK
        ARGFRAME IOVERLAY, 0, STATIC
        ARGFRAME DOVERLAY, 0, STATIC
        REQUIRE ?V0
        REQUIRE ?V1
        REQUIRE ?V2
        REQUIRE ?V3
        REQUIRE ?V4
        REQUIRE ?V5
        REQUIRE ?V6
        REQUIRE ?V7
        MOV       A,#-0x10
        LCALL     ?BANKED_ENTER_XDATA
          CFI DPH0 load(1, XDATA, add(CFA_XSP16, literal(-1)))
          CFI DPL0 load(1, XDATA, add(CFA_XSP16, literal(-2)))
          CFI ?BRET_EXT load(1, XDATA, add(CFA_XSP16, literal(-3)))
          CFI ?RET_HIGH load(1, XDATA, add(CFA_XSP16, literal(-4)))
          CFI ?RET_LOW load(1, XDATA, add(CFA_XSP16, literal(-5)))
          CFI R7 load(1, XDATA, add(CFA_XSP16, literal(-6)))
          CFI V7 load(1, XDATA, add(CFA_XSP16, literal(-7)))
          CFI V6 load(1, XDATA, add(CFA_XSP16, literal(-8)))
          CFI V5 load(1, XDATA, add(CFA_XSP16, literal(-9)))
          CFI V4 load(1, XDATA, add(CFA_XSP16, literal(-10)))
          CFI V3 load(1, XDATA, add(CFA_XSP16, literal(-11)))
          CFI V2 load(1, XDATA, add(CFA_XSP16, literal(-12)))
          CFI V1 load(1, XDATA, add(CFA_XSP16, literal(-13)))
          CFI V0 load(1, XDATA, add(CFA_XSP16, literal(-14)))
          CFI VB load(1, XDATA, add(CFA_XSP16, literal(-15)))
          CFI R6 load(1, XDATA, add(CFA_XSP16, literal(-16)))
          CFI CFA_SP SP+0
          CFI CFA_XSP16 add(XSP16, 16)
        ; Saved register size: 16
        ; Auto size: 18
        MOV       A,#-0x12
        LCALL     ?ALLOC_XSTACK8
          CFI CFA_XSP16 add(XSP16, 34)
        MOV       ?V1,R3
//  337   #define MT_AF_REQ_MSG_LEN  10
//  338   #define MT_AF_REQ_MSG_EXT  10
//  339 
//  340   endPointDesc_t *epDesc;
//  341   afAddrType_t dstAddr;
//  342   cId_t cId;
//  343   uint8 transId, txOpts, radius;
//  344   uint8 cmd0, cmd1;
//  345   uint8 retValue = ZFailure;
        MOV       DPL,?XSP + 0
        MOV       DPH,?XSP + 1
        MOV       A,#0x1
        LCALL     ?Subroutine32 & 0xFFFF
//  346   uint16 dataLen, tempLen;
//  347 
//  348   /* Parse header */
//  349   cmd0 = pBuf[MT_RPC_POS_CMD0];
??CrossCallReturnLabel_69:
        PUSH      A
          CFI CFA_SP SP+-1
        MOV       A,#0x5
        LCALL     ?XSTACK_DISP0_8
        POP       A
          CFI CFA_SP SP+0
        LCALL     ?Subroutine46 & 0xFFFF
//  350   cmd1 = pBuf[MT_RPC_POS_CMD1];
??CrossCallReturnLabel_89:
        PUSH      A
          CFI CFA_SP SP+-1
        MOV       A,#0x1
        LCALL     ?XSTACK_DISP0_8
        POP       A
          CFI CFA_SP SP+0
        MOVX      @DPTR,A
//  351   pBuf += MT_RPC_FRAME_HDR_SZ;
        MOV       A,R2
        ADD       A,#0x3
        MOV       ?V0,A
        JNC       ??MT_AfDataRequest_0
        INC       ?V1
//  352 
//  353   if (cmd1 == MT_AF_DATA_REQUEST_EXT)
??MT_AfDataRequest_0:
        MOVX      A,@DPTR
        XRL       A,#0x2
        JZ        $+5
        LJMP      ??MT_AfDataRequest_1 & 0xFFFF
//  354   {
//  355     dstAddr.addrMode = (afAddrMode_t)*pBuf++;
        MOV       DPL,?V0
        MOV       DPH,?V1
        MOVX      A,@DPTR
        MOV       R0,A
        MOV       A,#0xe
        LCALL     ?XSTACK_DISP0_8
        MOV       A,R0
        LCALL     ?Subroutine28 & 0xFFFF
//  356 
//  357     if (dstAddr.addrMode == afAddr64Bit)
??CrossCallReturnLabel_51:
        MOV       A,#0x3
        XRL       A,R0
        JNZ       ??MT_AfDataRequest_2
//  358     {
//  359       (void)osal_memcpy(dstAddr.addr.extAddr, pBuf, Z_EXTADDR_LEN);
        ; Setup parameters for call to function osal_memcpy
        MOV       ?V4,?V0
        MOV       ?V5,?V1
        MOV       ?V6,#0x0
        MOV       R0,#?V4
        LCALL     ?PUSH_XSTACK_I_THREE
          CFI CFA_XSP16 add(XSP16, 37)
        MOV       R4,#0x8
        MOV       R5,#0x0
        MOV       A,#0x9
        LCALL     ?XSTACK_DISP101_8
        LCALL     `??osal_memcpy::?relay`; Banked call to: osal_memcpy
        MOV       A,#0x3
        LCALL     ?DEALLOC_XSTACK8
          CFI CFA_XSP16 add(XSP16, 34)
        SJMP      ??CrossCallReturnLabel_53
//  360     }
//  361     else
//  362     {
//  363       dstAddr.addr.shortAddr = osal_build_uint16( pBuf );
??MT_AfDataRequest_2:
        ; Setup parameters for call to function osal_build_uint16
        MOV       R2,?V0
        MOV       R3,?V1
        LCALL     `??osal_build_uint16::?relay`; Banked call to: osal_build_uint16
        MOV       A,#0x6
        LCALL     ?XSTACK_DISP0_8
        LCALL     ?Subroutine29 & 0xFFFF
//  364     }
//  365     pBuf += Z_EXTADDR_LEN;
//  366 
//  367     dstAddr.endPoint = *pBuf++;
??CrossCallReturnLabel_53:
        MOV       DPL,?V0
        MOV       DPH,?V1
        INC       DPTR
        INC       DPTR
        INC       DPTR
        INC       DPTR
        INC       DPTR
        INC       DPTR
        INC       DPTR
        INC       DPTR
        MOVX      A,@DPTR
        PUSH      A
          CFI CFA_SP SP+-1
        MOV       A,#0xf
        LCALL     ?XSTACK_DISP0_8
        POP       A
          CFI CFA_SP SP+0
        MOVX      @DPTR,A
        MOV       A,?V0
        ADD       A,#0x9
        MOV       ?V0,A
        JNC       ??MT_AfDataRequest_3
        INC       ?V1
//  368     dstAddr.panId = osal_build_uint16( pBuf );
??MT_AfDataRequest_3:
        ; Setup parameters for call to function osal_build_uint16
        MOV       R2,A
        MOV       R3,?V1
        LCALL     `??osal_build_uint16::?relay`; Banked call to: osal_build_uint16
        MOV       A,#0x10
        LCALL     ?XSTACK_DISP0_8
        LCALL     ?Subroutine29 & 0xFFFF
//  369     pBuf += 2;
??CrossCallReturnLabel_54:
        MOV       A,?V0
        ADD       A,#0x2
        MOV       ?V0,A
        JNC       ??MT_AfDataRequest_4
        INC       ?V1
        SJMP      ??MT_AfDataRequest_4
//  370   }
//  371   else
//  372   {
//  373     /* Destination address */
//  374     dstAddr.addrMode = afAddr16Bit;
??MT_AfDataRequest_1:
        MOV       A,#0xe
        LCALL     ?XSTACK_DISP0_8
        MOV       A,#0x2
        MOVX      @DPTR,A
//  375     dstAddr.addr.shortAddr = osal_build_uint16( pBuf );
        ; Setup parameters for call to function osal_build_uint16
        INC       R2
        INC       R2
        INC       R2
        MOV       R3,?V1
        LCALL     `??osal_build_uint16::?relay`; Banked call to: osal_build_uint16
        MOV       A,#0x6
        LCALL     ?XSTACK_DISP0_8
        LCALL     ?Subroutine29 & 0xFFFF
//  376     pBuf += 2;
//  377 
//  378     /* Destination endpoint */
//  379     dstAddr.endPoint = *pBuf++;
??CrossCallReturnLabel_55:
        MOV       DPL,?V0
        MOV       DPH,?V1
        INC       DPTR
        INC       DPTR
        MOVX      A,@DPTR
        PUSH      A
          CFI CFA_SP SP+-1
        MOV       A,#0xf
        LCALL     ?XSTACK_DISP0_8
        POP       A
          CFI CFA_SP SP+0
        MOVX      @DPTR,A
        MOV       A,?V0
        ADD       A,#0x3
        MOV       ?V0,A
        JNC       ??MT_AfDataRequest_5
        INC       ?V1
//  380     dstAddr.panId = 0;
??MT_AfDataRequest_5:
        MOV       A,#0x10
        LCALL     ?XSTACK_DISP0_8
        CLR       A
        MOVX      @DPTR,A
        INC       DPTR
        MOVX      @DPTR,A
//  381   }
//  382 
//  383   /* Source endpoint */
//  384   epDesc = afFindEndPointDesc(*pBuf++);
??MT_AfDataRequest_4:
        ; Setup parameters for call to function afFindEndPointDesc
        MOV       DPL,?V0
        MOV       DPH,?V1
        MOVX      A,@DPTR
        MOV       R1,A
        LCALL     `??afFindEndPointDesc::?relay`; Banked call to: afFindEndPointDesc
        MOV       A,#0x3
        LCALL     ?XSTACK_DISP0_8
        MOV       A,R2
        MOVX      @DPTR,A
        INC       DPTR
        MOV       A,R3
        LCALL     ?Subroutine28 & 0xFFFF
//  385 
//  386   /* ClusterId */
//  387   cId = osal_build_uint16( pBuf );
??CrossCallReturnLabel_52:
        ; Setup parameters for call to function osal_build_uint16
        MOV       R2,?V0
        MOV       R3,?V1
        LCALL     `??osal_build_uint16::?relay`; Banked call to: osal_build_uint16
        MOV       ?V4,R2
        MOV       ?V5,R3
//  388   pBuf +=2;
//  389 
//  390   /* TransId */
//  391   transId = *pBuf++;
        MOV       DPL,?V0
        MOV       DPH,?V1
        INC       DPTR
        INC       DPTR
        MOVX      A,@DPTR
        PUSH      A
          CFI CFA_SP SP+-1
        MOV       A,#0x2
        LCALL     ?XSTACK_DISP0_8
        POP       A
          CFI CFA_SP SP+0
        LCALL     ?Subroutine47 & 0xFFFF
//  392 
//  393   /* TxOption */
//  394   txOpts = *pBuf++;
??CrossCallReturnLabel_91:
        INC       DPTR
        INC       DPTR
        MOVX      A,@DPTR
        MOV       ?V7,A
//  395 
//  396   /* Radius */
//  397   radius = *pBuf++;
        MOV       DPL,?V0
        MOV       DPH,?V1
        INC       DPTR
        INC       DPTR
        INC       DPTR
        INC       DPTR
        MOVX      A,@DPTR
        MOV       ?V6,A
        MOV       A,?V0
        ADD       A,#0x5
        MOV       ?V0,A
        JNC       ??MT_AfDataRequest_6
        INC       ?V1
//  398 
//  399   /* Length */
//  400   if (cmd1 == MT_AF_DATA_REQUEST_EXT)
??MT_AfDataRequest_6:
        MOV       A,#0x1
        LCALL     ?XSTACK_DISP0_8
        MOVX      A,@DPTR
        XRL       A,#0x2
        JNZ       ??MT_AfDataRequest_7
//  401   {
//  402     dataLen = osal_build_uint16( pBuf );
        ; Setup parameters for call to function osal_build_uint16
        MOV       R2,?V0
        MOV       R3,?V1
        LCALL     `??osal_build_uint16::?relay`; Banked call to: osal_build_uint16
        MOV       ?V2,R2
        MOV       ?V3,R3
        MOV       R6,?V2
        MOV       R7,?V3
//  403     tempLen = dataLen + MT_AF_REQ_MSG_LEN + MT_AF_REQ_MSG_EXT;
        MOV       A,R6
        ADD       A,#0x14
        MOV       R0,A
        CLR       A
        ADDC      A,R7
        MOV       R1,A
//  404     pBuf += 2;
        MOV       A,?V0
        ADD       A,#0x2
        MOV       ?V0,A
        JNC       ??MT_AfDataRequest_8
        INC       ?V1
        SJMP      ??MT_AfDataRequest_8
//  405   }
//  406   else
//  407   {
//  408     dataLen = *pBuf++;
??MT_AfDataRequest_7:
        MOV       DPL,?V0
        MOV       DPH,?V1
        MOVX      A,@DPTR
        MOV       R6,A
        MOV       R7,#0x0
        INC       DPTR
        MOV       ?V0,DPL
        MOV       ?V1,DPH
//  409     tempLen = dataLen + MT_AF_REQ_MSG_LEN;
        ADD       A,#0xa
        MOV       R0,A
        CLR       A
        ADDC      A,#0x0
        MOV       R1,A
//  410   }
//  411 
//  412   if ( epDesc == NULL )
??MT_AfDataRequest_8:
        MOV       A,#0x3
        LCALL     ?XSTACK_DISP0_8
        LCALL     ??Subroutine61_0 & 0xFFFF
??CrossCallReturnLabel_137:
        MOV       A,R2
        ORL       A,R3
        JZ        ??MT_AfDataRequest_9
//  413   {
//  414     retValue = afStatus_INVALID_PARAMETER;
//  415   }
//  416   else if (tempLen > (uint16)MT_RPC_DATA_MAX)
        CLR       C
        MOV       A,R0
        SUBB      A,#-0x5
        MOV       A,R1
        SUBB      A,#0x0
        JNC       $+5
        LJMP      ??MT_AfDataRequest_10 & 0xFFFF
//  417   {
//  418     if (pMtAfDataReq != NULL)
        LCALL     ?Subroutine3 & 0xFFFF
??CrossCallReturnLabel_156:
        JZ        ??MT_AfDataRequest_11
//  419     {
//  420       retValue = afStatus_INVALID_PARAMETER;
??MT_AfDataRequest_9:
        MOV       DPL,?XSP + 0
        MOV       DPH,?XSP + 1
        MOV       A,#0x2
        LJMP      ??MT_AfDataRequest_12 & 0xFFFF
//  421     }
//  422     else if ((pMtAfDataReq = osal_mem_alloc(sizeof(mtAfDataReq_t) + dataLen)) == NULL)
??MT_AfDataRequest_11:
        ; Setup parameters for call to function osal_mem_alloc
        MOV       A,R6
        ADD       A,#0x18
        MOV       R2,A
        CLR       A
        ADDC      A,R7
        MOV       R3,A
        LCALL     `??osal_mem_alloc::?relay`; Banked call to: osal_mem_alloc
        MOV       DPTR,#pMtAfDataReq
        LCALL     ?Subroutine29 & 0xFFFF
??CrossCallReturnLabel_56:
        LCALL     ?Subroutine3 & 0xFFFF
??CrossCallReturnLabel_157:
        MOV       DPL,?XSP + 0
        MOV       DPH,?XSP + 1
        JNZ       ??MT_AfDataRequest_13
//  423     {
//  424       retValue = afStatus_MEM_FAIL;
        MOV       A,#0x10
        LJMP      ??MT_AfDataRequest_12 & 0xFFFF
//  425     }
//  426     else
//  427     {
//  428       retValue = afStatus_SUCCESS;
??MT_AfDataRequest_13:
        CLR       A
        MOVX      @DPTR,A
//  429 
//  430       pMtAfDataReq->data = (uint8 *)(pMtAfDataReq+1);
        MOV       DPTR,#pMtAfDataReq
        MOVX      A,@DPTR
        ADD       A,#0x18
        MOV       R2,A
        INC       DPTR
        MOVX      A,@DPTR
        ADDC      A,#0x0
        MOV       R3,A
        MOV       DPTR,#pMtAfDataReq
        LCALL     ?Subroutine9 & 0xFFFF
??CrossCallReturnLabel_12:
        LCALL     ?Subroutine29 & 0xFFFF
//  431       (void)osal_memcpy(&(pMtAfDataReq->dstAddr), &dstAddr, sizeof(afAddrType_t));
??CrossCallReturnLabel_57:
        ; Setup parameters for call to function osal_memcpy
        MOV       A,#0x6
        LCALL     ?XSTACK_DISP100_8
        MOV       ?V0,R0
        MOV       ?V1,R1
        MOV       ?V2,#0x0
        MOV       R0,#?V0
        LCALL     ?PUSH_XSTACK_I_THREE
          CFI CFA_XSP16 add(XSP16, 37)
        MOV       R4,#0xc
        MOV       R5,#0x0
        LCALL     ?Subroutine25 & 0xFFFF
??CrossCallReturnLabel_45:
        LCALL     `??osal_memcpy::?relay`; Banked call to: osal_memcpy
        MOV       A,#0x3
        LCALL     ?DEALLOC_XSTACK8
          CFI CFA_XSP16 add(XSP16, 34)
//  432       pMtAfDataReq->epDesc = epDesc;
        MOV       A,#0x3
        LCALL     ?XSTACK_DISP0_8
        LCALL     ??Subroutine61_0 & 0xFFFF
??CrossCallReturnLabel_138:
        LCALL     ?Subroutine14 & 0xFFFF
??CrossCallReturnLabel_24:
        LCALL     ?Subroutine29 & 0xFFFF
//  433       pMtAfDataReq->cId = cId;
??CrossCallReturnLabel_58:
        LCALL     ?Subroutine15 & 0xFFFF
??CrossCallReturnLabel_26:
        MOV       A,?V4
        MOVX      @DPTR,A
        INC       DPTR
        MOV       A,?V5
        MOVX      @DPTR,A
//  434       pMtAfDataReq->dataLen = dataLen;
        LCALL     ?Subroutine16 & 0xFFFF
??CrossCallReturnLabel_28:
        MOV       A,R6
        MOVX      @DPTR,A
        INC       DPTR
        MOV       A,R7
        MOVX      @DPTR,A
//  435       pMtAfDataReq->transId = transId;
        MOV       A,#0x2
        LCALL     ?XSTACK_DISP0_8
        MOVX      A,@DPTR
        PUSH      A
          CFI CFA_SP SP+-1
        MOV       DPTR,#pMtAfDataReq
        LCALL     ?Subroutine17 & 0xFFFF
??CrossCallReturnLabel_30:
        POP       A
          CFI CFA_SP SP+0
        MOVX      @DPTR,A
//  436       pMtAfDataReq->txOpts = txOpts;
        MOV       DPTR,#pMtAfDataReq
        LCALL     ??Subroutine60_0 & 0xFFFF
??CrossCallReturnLabel_123:
        LCALL     ?Subroutine51 & 0xFFFF
??CrossCallReturnLabel_99:
        MOV       A,?V7
        MOVX      @DPTR,A
//  437       pMtAfDataReq->radius = radius;
        MOV       DPTR,#pMtAfDataReq
        LCALL     ?Subroutine18 & 0xFFFF
??CrossCallReturnLabel_32:
        MOV       A,?V6
        LCALL     ?Subroutine13 & 0xFFFF
//  438 
//  439       // Setup to time-out the huge outgoing item if host does not MT_AF_DATA_STORE it.
//  440       pMtAfDataReq->tick = MT_AF_EXEC_CNT;
??CrossCallReturnLabel_22:
        MOV       A,#0xf
        MOVX      @DPTR,A
//  441       if (ZSuccess != osal_start_timerEx(MT_TaskID, MT_AF_EXEC_EVT, MT_AF_EXEC_DLY))
        ; Setup parameters for call to function osal_start_timerEx
        MOV       DPTR,#__Constant_3e8
        LCALL     ?PUSH_XSTACK8_X_FOUR
          CFI CFA_XSP16 add(XSP16, 38)
        MOV       R2,#0x8
        MOV       R3,#0x0
        MOV       DPTR,#MT_TaskID
        MOVX      A,@DPTR
        MOV       R1,A
        LCALL     `??osal_start_timerEx::?relay`; Banked call to: osal_start_timerEx
        MOV       A,#0x4
        LCALL     ?DEALLOC_XSTACK8
          CFI CFA_XSP16 add(XSP16, 34)
        MOV       A,R1
        JZ        ??MT_AfDataRequest_14
//  442       {
//  443         (void)osal_set_event(MT_TaskID, MT_AF_EXEC_EVT);
        ; Setup parameters for call to function osal_set_event
        MOV       R2,#0x8
        MOV       R3,#0x0
        MOV       DPTR,#MT_TaskID
        MOVX      A,@DPTR
        MOV       R1,A
        LCALL     `??osal_set_event::?relay`; Banked call to: osal_set_event
        SJMP      ??MT_AfDataRequest_14
//  444       }
//  445     }
//  446   }
//  447   else
//  448   {
//  449     retValue = AF_DataRequest(&dstAddr, epDesc, cId, dataLen, pBuf, &transId, txOpts, radius);
??MT_AfDataRequest_10:
        ; Setup parameters for call to function AF_DataRequest
        MOV       A,?V6
        MOV       ?V2,A
        MOV       R0,#?V2
        LCALL     ?PUSH_XSTACK_I_ONE
          CFI CFA_XSP16 add(XSP16, 35)
        MOV       A,#0x3
        LCALL     ?XSTACK_DISP100_8
        MOV       ?V2,R0
        MOV       ?V3,R1
        MOV       R0,#?V2
        LCALL     ?PUSH_XSTACK_I_TWO
          CFI CFA_XSP16 add(XSP16, 37)
        MOV       R0,#?V0
        LCALL     ?PUSH_XSTACK_I_TWO
          CFI CFA_XSP16 add(XSP16, 39)
        MOV       ?V0,R6
        MOV       ?V1,R7
        MOV       R0,#?V0
        LCALL     ?PUSH_XSTACK_I_TWO
          CFI CFA_XSP16 add(XSP16, 41)
        MOV       R0,#?V4
        LCALL     ?PUSH_XSTACK_I_TWO
          CFI CFA_XSP16 add(XSP16, 43)
        MOV       R1,?V7
        MOV       A,#0xc
        LCALL     ?XSTACK_DISP0_8
        LCALL     ?Subroutine23 & 0xFFFF
//  450   }
??CrossCallReturnLabel_38:
        MOV       A,#0xf
        LCALL     ?XSTACK_DISP101_8
        LCALL     `??AF_DataRequest::?relay`; Banked call to: AF_DataRequest
        MOV       A,#0x9
        LCALL     ?DEALLOC_XSTACK8
          CFI CFA_XSP16 add(XSP16, 34)
        MOV       A,R1
        MOV       DPL,?XSP + 0
        MOV       DPH,?XSP + 1
??MT_AfDataRequest_12:
        MOVX      @DPTR,A
//  451 
//  452   if (MT_RPC_CMD_SREQ == (cmd0 & MT_RPC_CMD_TYPE_MASK))
??MT_AfDataRequest_14:
        MOV       A,#0x5
        LCALL     ?XSTACK_DISP0_8
        MOVX      A,@DPTR
        ANL       A,#0xe0
        XRL       A,#0x20
        JNZ       ??MT_AfDataRequest_15
//  453   {
//  454     MT_BuildAndSendZToolResponse(((uint8)MT_RPC_CMD_SRSP|(uint8)MT_RPC_SYS_AF), cmd1, 1, &retValue);
        ; Setup parameters for call to function MT_BuildAndSendZToolResponse
        MOV       R4,?XSP + 0
        MOV       R5,?XSP + 1
        MOV       R3,#0x1
        MOV       A,R3
        LCALL     ?XSTACK_DISP0_8
        MOVX      A,@DPTR
        MOV       R2,A
        MOV       R1,#0x64
        LCALL     `??MT_BuildAndSendZToolResponse::?relay`; Banked call to: MT_BuildAndSendZToolResponse
//  455   }
//  456 }
??MT_AfDataRequest_15:
        MOV       A,#0x12
          CFI EndBlock cfiBlock10
        REQUIRE ?Subroutine1
        ; // Fall through to label ?Subroutine1

        RSEG BANKED_CODE:HUGECODE:NOROOT(0)
?Subroutine1:
          CFI Block cfiBlock11 Using cfiCommon0
          CFI NoFunction
          CFI CFA_SP SP+0
          CFI CFA_XSP16 add(XSP16, 34)
          CFI VB load(1, XDATA, add(CFA_XSP16, literal(-15)))
          CFI DPL0 load(1, XDATA, add(CFA_XSP16, literal(-2)))
          CFI DPH0 load(1, XDATA, add(CFA_XSP16, literal(-1)))
          CFI R6 load(1, XDATA, add(CFA_XSP16, literal(-16)))
          CFI R7 load(1, XDATA, add(CFA_XSP16, literal(-6)))
          CFI V0 load(1, XDATA, add(CFA_XSP16, literal(-14)))
          CFI V1 load(1, XDATA, add(CFA_XSP16, literal(-13)))
          CFI V2 load(1, XDATA, add(CFA_XSP16, literal(-12)))
          CFI V3 load(1, XDATA, add(CFA_XSP16, literal(-11)))
          CFI V4 load(1, XDATA, add(CFA_XSP16, literal(-10)))
          CFI V5 load(1, XDATA, add(CFA_XSP16, literal(-9)))
          CFI V6 load(1, XDATA, add(CFA_XSP16, literal(-8)))
          CFI V7 load(1, XDATA, add(CFA_XSP16, literal(-7)))
          CFI ?BRET_EXT load(1, XDATA, add(CFA_XSP16, literal(-3)))
          CFI ?RET_HIGH load(1, XDATA, add(CFA_XSP16, literal(-4)))
          CFI ?RET_LOW load(1, XDATA, add(CFA_XSP16, literal(-5)))
          CFI Invalid
        LCALL     ?DEALLOC_XSTACK8
          CFI CFA_XSP16 add(XSP16, 16)
          CFI Valid
        MOV       R7,#0x8
        LJMP      ?BANKED_LEAVE_XDATA
          CFI EndBlock cfiBlock11

        RSEG BANKED_CODE:HUGECODE:NOROOT(0)
?Subroutine28:
          CFI Block cfiCond12 Using cfiCommon0
          CFI Function MT_AfDataRequest
          CFI Conditional ??CrossCallReturnLabel_51
          CFI R6 load(1, XDATA, add(CFA_XSP16, literal(-16)))
          CFI VB load(1, XDATA, add(CFA_XSP16, literal(-15)))
          CFI V0 load(1, XDATA, add(CFA_XSP16, literal(-14)))
          CFI V1 load(1, XDATA, add(CFA_XSP16, literal(-13)))
          CFI V2 load(1, XDATA, add(CFA_XSP16, literal(-12)))
          CFI V3 load(1, XDATA, add(CFA_XSP16, literal(-11)))
          CFI V4 load(1, XDATA, add(CFA_XSP16, literal(-10)))
          CFI V5 load(1, XDATA, add(CFA_XSP16, literal(-9)))
          CFI V6 load(1, XDATA, add(CFA_XSP16, literal(-8)))
          CFI V7 load(1, XDATA, add(CFA_XSP16, literal(-7)))
          CFI R7 load(1, XDATA, add(CFA_XSP16, literal(-6)))
          CFI ?RET_LOW load(1, XDATA, add(CFA_XSP16, literal(-5)))
          CFI ?RET_HIGH load(1, XDATA, add(CFA_XSP16, literal(-4)))
          CFI ?BRET_EXT load(1, XDATA, add(CFA_XSP16, literal(-3)))
          CFI DPL0 load(1, XDATA, add(CFA_XSP16, literal(-2)))
          CFI DPH0 load(1, XDATA, add(CFA_XSP16, literal(-1)))
          CFI CFA_SP SP+-2
          CFI CFA_XSP16 add(XSP16, 34)
          CFI Block cfiCond13 Using cfiCommon0
          CFI (cfiCond13) Function MT_AfDataRequest
          CFI (cfiCond13) Conditional ??CrossCallReturnLabel_52
          CFI (cfiCond13) R6 load(1, XDATA, add(CFA_XSP16, literal(-16)))
          CFI (cfiCond13) VB load(1, XDATA, add(CFA_XSP16, literal(-15)))
          CFI (cfiCond13) V0 load(1, XDATA, add(CFA_XSP16, literal(-14)))
          CFI (cfiCond13) V1 load(1, XDATA, add(CFA_XSP16, literal(-13)))
          CFI (cfiCond13) V2 load(1, XDATA, add(CFA_XSP16, literal(-12)))
          CFI (cfiCond13) V3 load(1, XDATA, add(CFA_XSP16, literal(-11)))
          CFI (cfiCond13) V4 load(1, XDATA, add(CFA_XSP16, literal(-10)))
          CFI (cfiCond13) V5 load(1, XDATA, add(CFA_XSP16, literal(-9)))
          CFI (cfiCond13) V6 load(1, XDATA, add(CFA_XSP16, literal(-8)))
          CFI (cfiCond13) V7 load(1, XDATA, add(CFA_XSP16, literal(-7)))
          CFI (cfiCond13) R7 load(1, XDATA, add(CFA_XSP16, literal(-6)))
          CFI (cfiCond13) ?RET_LOW load(1, XDATA, add(CFA_XSP16, literal(-5)))
          CFI (cfiCond13) ?RET_HIGH load(1, XDATA, add(CFA_XSP16, literal(-4)))
          CFI (cfiCond13) ?BRET_EXT load(1, XDATA, add(CFA_XSP16, literal(-3)))
          CFI (cfiCond13) DPL0 load(1, XDATA, add(CFA_XSP16, literal(-2)))
          CFI (cfiCond13) DPH0 load(1, XDATA, add(CFA_XSP16, literal(-1)))
          CFI (cfiCond13) CFA_SP SP+-2
          CFI (cfiCond13) CFA_XSP16 add(XSP16, 34)
          CFI Block cfiPicker14 Using cfiCommon1
          CFI (cfiPicker14) NoFunction
          CFI (cfiPicker14) Picker
        LCALL     ?Subroutine47 & 0xFFFF
??CrossCallReturnLabel_92:
        MOV       ?V0,DPL
        MOV       ?V1,DPH
        RET
          CFI EndBlock cfiCond12
          CFI EndBlock cfiCond13
          CFI EndBlock cfiPicker14

        RSEG BANKED_CODE:HUGECODE:NOROOT(0)
?Subroutine47:
          CFI Block cfiCond15 Using cfiCommon0
          CFI Function MT_AfDataRequest
          CFI Conditional ??CrossCallReturnLabel_91
          CFI R6 load(1, XDATA, add(CFA_XSP16, literal(-16)))
          CFI VB load(1, XDATA, add(CFA_XSP16, literal(-15)))
          CFI V0 load(1, XDATA, add(CFA_XSP16, literal(-14)))
          CFI V1 load(1, XDATA, add(CFA_XSP16, literal(-13)))
          CFI V2 load(1, XDATA, add(CFA_XSP16, literal(-12)))
          CFI V3 load(1, XDATA, add(CFA_XSP16, literal(-11)))
          CFI V4 load(1, XDATA, add(CFA_XSP16, literal(-10)))
          CFI V5 load(1, XDATA, add(CFA_XSP16, literal(-9)))
          CFI V6 load(1, XDATA, add(CFA_XSP16, literal(-8)))
          CFI V7 load(1, XDATA, add(CFA_XSP16, literal(-7)))
          CFI R7 load(1, XDATA, add(CFA_XSP16, literal(-6)))
          CFI ?RET_LOW load(1, XDATA, add(CFA_XSP16, literal(-5)))
          CFI ?RET_HIGH load(1, XDATA, add(CFA_XSP16, literal(-4)))
          CFI ?BRET_EXT load(1, XDATA, add(CFA_XSP16, literal(-3)))
          CFI DPL0 load(1, XDATA, add(CFA_XSP16, literal(-2)))
          CFI DPH0 load(1, XDATA, add(CFA_XSP16, literal(-1)))
          CFI CFA_SP SP+-2
          CFI CFA_XSP16 add(XSP16, 34)
          CFI Block cfiCond16 Using cfiCommon0
          CFI (cfiCond16) Function MT_AfDataRequest
          CFI (cfiCond16) Conditional ??CrossCallReturnLabel_92, ??CrossCallReturnLabel_51
          CFI (cfiCond16) R6 load(1, XDATA, add(CFA_XSP16, literal(-16)))
          CFI (cfiCond16) VB load(1, XDATA, add(CFA_XSP16, literal(-15)))
          CFI (cfiCond16) V0 load(1, XDATA, add(CFA_XSP16, literal(-14)))
          CFI (cfiCond16) V1 load(1, XDATA, add(CFA_XSP16, literal(-13)))
          CFI (cfiCond16) V2 load(1, XDATA, add(CFA_XSP16, literal(-12)))
          CFI (cfiCond16) V3 load(1, XDATA, add(CFA_XSP16, literal(-11)))
          CFI (cfiCond16) V4 load(1, XDATA, add(CFA_XSP16, literal(-10)))
          CFI (cfiCond16) V5 load(1, XDATA, add(CFA_XSP16, literal(-9)))
          CFI (cfiCond16) V6 load(1, XDATA, add(CFA_XSP16, literal(-8)))
          CFI (cfiCond16) V7 load(1, XDATA, add(CFA_XSP16, literal(-7)))
          CFI (cfiCond16) R7 load(1, XDATA, add(CFA_XSP16, literal(-6)))
          CFI (cfiCond16) ?RET_LOW load(1, XDATA, add(CFA_XSP16, literal(-5)))
          CFI (cfiCond16) ?RET_HIGH load(1, XDATA, add(CFA_XSP16, literal(-4)))
          CFI (cfiCond16) ?BRET_EXT load(1, XDATA, add(CFA_XSP16, literal(-3)))
          CFI (cfiCond16) DPL0 load(1, XDATA, add(CFA_XSP16, literal(-2)))
          CFI (cfiCond16) DPH0 load(1, XDATA, add(CFA_XSP16, literal(-1)))
          CFI (cfiCond16) CFA_SP SP+-4
          CFI (cfiCond16) CFA_XSP16 add(XSP16, 34)
          CFI Block cfiCond17 Using cfiCommon0
          CFI (cfiCond17) Function MT_AfDataRequest
          CFI (cfiCond17) Conditional ??CrossCallReturnLabel_92, ??CrossCallReturnLabel_52
          CFI (cfiCond17) R6 load(1, XDATA, add(CFA_XSP16, literal(-16)))
          CFI (cfiCond17) VB load(1, XDATA, add(CFA_XSP16, literal(-15)))
          CFI (cfiCond17) V0 load(1, XDATA, add(CFA_XSP16, literal(-14)))
          CFI (cfiCond17) V1 load(1, XDATA, add(CFA_XSP16, literal(-13)))
          CFI (cfiCond17) V2 load(1, XDATA, add(CFA_XSP16, literal(-12)))
          CFI (cfiCond17) V3 load(1, XDATA, add(CFA_XSP16, literal(-11)))
          CFI (cfiCond17) V4 load(1, XDATA, add(CFA_XSP16, literal(-10)))
          CFI (cfiCond17) V5 load(1, XDATA, add(CFA_XSP16, literal(-9)))
          CFI (cfiCond17) V6 load(1, XDATA, add(CFA_XSP16, literal(-8)))
          CFI (cfiCond17) V7 load(1, XDATA, add(CFA_XSP16, literal(-7)))
          CFI (cfiCond17) R7 load(1, XDATA, add(CFA_XSP16, literal(-6)))
          CFI (cfiCond17) ?RET_LOW load(1, XDATA, add(CFA_XSP16, literal(-5)))
          CFI (cfiCond17) ?RET_HIGH load(1, XDATA, add(CFA_XSP16, literal(-4)))
          CFI (cfiCond17) ?BRET_EXT load(1, XDATA, add(CFA_XSP16, literal(-3)))
          CFI (cfiCond17) DPL0 load(1, XDATA, add(CFA_XSP16, literal(-2)))
          CFI (cfiCond17) DPH0 load(1, XDATA, add(CFA_XSP16, literal(-1)))
          CFI (cfiCond17) CFA_SP SP+-4
          CFI (cfiCond17) CFA_XSP16 add(XSP16, 34)
          CFI Block cfiPicker18 Using cfiCommon1
          CFI (cfiPicker18) NoFunction
          CFI (cfiPicker18) Picker
        MOVX      @DPTR,A
        MOV       DPL,?V0
        MOV       DPH,?V1
        INC       DPTR
        RET
          CFI EndBlock cfiCond15
          CFI EndBlock cfiCond16
          CFI EndBlock cfiCond17
          CFI EndBlock cfiPicker18

        RSEG BANKED_CODE:HUGECODE:NOROOT(0)
?Subroutine13:
          CFI Block cfiCond19 Using cfiCommon0
          CFI Function MT_AfExec
          CFI Conditional ??CrossCallReturnLabel_23
          CFI R6 load(1, XDATA, add(CFA_XSP16, literal(-9)))
          CFI VB load(1, XDATA, add(CFA_XSP16, literal(-8)))
          CFI V0 load(1, XDATA, add(CFA_XSP16, literal(-7)))
          CFI R7 load(1, XDATA, add(CFA_XSP16, literal(-6)))
          CFI ?RET_LOW load(1, XDATA, add(CFA_XSP16, literal(-5)))
          CFI ?RET_HIGH load(1, XDATA, add(CFA_XSP16, literal(-4)))
          CFI ?BRET_EXT load(1, XDATA, add(CFA_XSP16, literal(-3)))
          CFI DPL0 load(1, XDATA, add(CFA_XSP16, literal(-2)))
          CFI DPH0 load(1, XDATA, add(CFA_XSP16, literal(-1)))
          CFI CFA_SP SP+-2
          CFI CFA_XSP16 add(XSP16, 9)
          CFI Block cfiCond20 Using cfiCommon0
          CFI (cfiCond20) Function MT_AfDataRequest
          CFI (cfiCond20) Conditional ??CrossCallReturnLabel_22
          CFI (cfiCond20) R6 load(1, XDATA, add(CFA_XSP16, literal(-16)))
          CFI (cfiCond20) VB load(1, XDATA, add(CFA_XSP16, literal(-15)))
          CFI (cfiCond20) V0 load(1, XDATA, add(CFA_XSP16, literal(-14)))
          CFI (cfiCond20) V1 load(1, XDATA, add(CFA_XSP16, literal(-13)))
          CFI (cfiCond20) V2 load(1, XDATA, add(CFA_XSP16, literal(-12)))
          CFI (cfiCond20) V3 load(1, XDATA, add(CFA_XSP16, literal(-11)))
          CFI (cfiCond20) V4 load(1, XDATA, add(CFA_XSP16, literal(-10)))
          CFI (cfiCond20) V5 load(1, XDATA, add(CFA_XSP16, literal(-9)))
          CFI (cfiCond20) V6 load(1, XDATA, add(CFA_XSP16, literal(-8)))
          CFI (cfiCond20) V7 load(1, XDATA, add(CFA_XSP16, literal(-7)))
          CFI (cfiCond20) R7 load(1, XDATA, add(CFA_XSP16, literal(-6)))
          CFI (cfiCond20) ?RET_LOW load(1, XDATA, add(CFA_XSP16, literal(-5)))
          CFI (cfiCond20) ?RET_HIGH load(1, XDATA, add(CFA_XSP16, literal(-4)))
          CFI (cfiCond20) ?BRET_EXT load(1, XDATA, add(CFA_XSP16, literal(-3)))
          CFI (cfiCond20) DPL0 load(1, XDATA, add(CFA_XSP16, literal(-2)))
          CFI (cfiCond20) DPH0 load(1, XDATA, add(CFA_XSP16, literal(-1)))
          CFI (cfiCond20) CFA_SP SP+-2
          CFI (cfiCond20) CFA_XSP16 add(XSP16, 34)
          CFI Block cfiPicker21 Using cfiCommon1
          CFI (cfiPicker21) NoFunction
          CFI (cfiPicker21) Picker
        MOVX      @DPTR,A
        LCALL     ?Subroutine40 & 0xFFFF
??CrossCallReturnLabel_131:
        LCALL     ?Subroutine50 & 0xFFFF
??CrossCallReturnLabel_98:
        RET
          CFI EndBlock cfiCond19
          CFI EndBlock cfiCond20
          CFI EndBlock cfiPicker21

        RSEG BANKED_CODE:HUGECODE:NOROOT(0)
?Subroutine50:
          CFI Block cfiCond22 Using cfiCommon0
          CFI Function MT_AfExec
          CFI Conditional ??CrossCallReturnLabel_97
          CFI R6 load(1, XDATA, add(CFA_XSP16, literal(-9)))
          CFI VB load(1, XDATA, add(CFA_XSP16, literal(-8)))
          CFI V0 load(1, XDATA, add(CFA_XSP16, literal(-7)))
          CFI R7 load(1, XDATA, add(CFA_XSP16, literal(-6)))
          CFI ?RET_LOW load(1, XDATA, add(CFA_XSP16, literal(-5)))
          CFI ?RET_HIGH load(1, XDATA, add(CFA_XSP16, literal(-4)))
          CFI ?BRET_EXT load(1, XDATA, add(CFA_XSP16, literal(-3)))
          CFI DPL0 load(1, XDATA, add(CFA_XSP16, literal(-2)))
          CFI DPH0 load(1, XDATA, add(CFA_XSP16, literal(-1)))
          CFI CFA_SP SP+-2
          CFI CFA_XSP16 add(XSP16, 9)
          CFI Block cfiCond23 Using cfiCommon0
          CFI (cfiCond23) Function MT_AfExec
          CFI (cfiCond23) Conditional ??CrossCallReturnLabel_98, ??CrossCallReturnLabel_23
          CFI (cfiCond23) R6 load(1, XDATA, add(CFA_XSP16, literal(-9)))
          CFI (cfiCond23) VB load(1, XDATA, add(CFA_XSP16, literal(-8)))
          CFI (cfiCond23) V0 load(1, XDATA, add(CFA_XSP16, literal(-7)))
          CFI (cfiCond23) R7 load(1, XDATA, add(CFA_XSP16, literal(-6)))
          CFI (cfiCond23) ?RET_LOW load(1, XDATA, add(CFA_XSP16, literal(-5)))
          CFI (cfiCond23) ?RET_HIGH load(1, XDATA, add(CFA_XSP16, literal(-4)))
          CFI (cfiCond23) ?BRET_EXT load(1, XDATA, add(CFA_XSP16, literal(-3)))
          CFI (cfiCond23) DPL0 load(1, XDATA, add(CFA_XSP16, literal(-2)))
          CFI (cfiCond23) DPH0 load(1, XDATA, add(CFA_XSP16, literal(-1)))
          CFI (cfiCond23) CFA_SP SP+-4
          CFI (cfiCond23) CFA_XSP16 add(XSP16, 9)
          CFI Block cfiCond24 Using cfiCommon0
          CFI (cfiCond24) Function MT_AfDataRequest
          CFI (cfiCond24) Conditional ??CrossCallReturnLabel_98, ??CrossCallReturnLabel_22
          CFI (cfiCond24) R6 load(1, XDATA, add(CFA_XSP16, literal(-16)))
          CFI (cfiCond24) VB load(1, XDATA, add(CFA_XSP16, literal(-15)))
          CFI (cfiCond24) V0 load(1, XDATA, add(CFA_XSP16, literal(-14)))
          CFI (cfiCond24) V1 load(1, XDATA, add(CFA_XSP16, literal(-13)))
          CFI (cfiCond24) V2 load(1, XDATA, add(CFA_XSP16, literal(-12)))
          CFI (cfiCond24) V3 load(1, XDATA, add(CFA_XSP16, literal(-11)))
          CFI (cfiCond24) V4 load(1, XDATA, add(CFA_XSP16, literal(-10)))
          CFI (cfiCond24) V5 load(1, XDATA, add(CFA_XSP16, literal(-9)))
          CFI (cfiCond24) V6 load(1, XDATA, add(CFA_XSP16, literal(-8)))
          CFI (cfiCond24) V7 load(1, XDATA, add(CFA_XSP16, literal(-7)))
          CFI (cfiCond24) R7 load(1, XDATA, add(CFA_XSP16, literal(-6)))
          CFI (cfiCond24) ?RET_LOW load(1, XDATA, add(CFA_XSP16, literal(-5)))
          CFI (cfiCond24) ?RET_HIGH load(1, XDATA, add(CFA_XSP16, literal(-4)))
          CFI (cfiCond24) ?BRET_EXT load(1, XDATA, add(CFA_XSP16, literal(-3)))
          CFI (cfiCond24) DPL0 load(1, XDATA, add(CFA_XSP16, literal(-2)))
          CFI (cfiCond24) DPH0 load(1, XDATA, add(CFA_XSP16, literal(-1)))
          CFI (cfiCond24) CFA_SP SP+-4
          CFI (cfiCond24) CFA_XSP16 add(XSP16, 34)
          CFI Block cfiPicker25 Using cfiCommon1
          CFI (cfiPicker25) NoFunction
          CFI (cfiPicker25) Picker
        ADD       A,#0x17
        MOV       DPL,A
        CLR       A
        ADDC      A,R0
        MOV       DPH,A
        RET
          CFI EndBlock cfiCond22
          CFI EndBlock cfiCond23
          CFI EndBlock cfiCond24
          CFI EndBlock cfiPicker25

        RSEG BANKED_CODE:HUGECODE:NOROOT(0)
?Subroutine40:
          CFI Block cfiCond26 Using cfiCommon0
          CFI Function MT_AfExec
          CFI Conditional ??CrossCallReturnLabel_131, ??CrossCallReturnLabel_23
          CFI R6 load(1, XDATA, add(CFA_XSP16, literal(-9)))
          CFI VB load(1, XDATA, add(CFA_XSP16, literal(-8)))
          CFI V0 load(1, XDATA, add(CFA_XSP16, literal(-7)))
          CFI R7 load(1, XDATA, add(CFA_XSP16, literal(-6)))
          CFI ?RET_LOW load(1, XDATA, add(CFA_XSP16, literal(-5)))
          CFI ?RET_HIGH load(1, XDATA, add(CFA_XSP16, literal(-4)))
          CFI ?BRET_EXT load(1, XDATA, add(CFA_XSP16, literal(-3)))
          CFI DPL0 load(1, XDATA, add(CFA_XSP16, literal(-2)))
          CFI DPH0 load(1, XDATA, add(CFA_XSP16, literal(-1)))
          CFI CFA_SP SP+-4
          CFI CFA_XSP16 add(XSP16, 9)
          CFI Block cfiCond27 Using cfiCommon0
          CFI (cfiCond27) Function MT_AfDataRequest
          CFI (cfiCond27) Conditional ??CrossCallReturnLabel_131, ??CrossCallReturnLabel_22
          CFI (cfiCond27) R6 load(1, XDATA, add(CFA_XSP16, literal(-16)))
          CFI (cfiCond27) VB load(1, XDATA, add(CFA_XSP16, literal(-15)))
          CFI (cfiCond27) V0 load(1, XDATA, add(CFA_XSP16, literal(-14)))
          CFI (cfiCond27) V1 load(1, XDATA, add(CFA_XSP16, literal(-13)))
          CFI (cfiCond27) V2 load(1, XDATA, add(CFA_XSP16, literal(-12)))
          CFI (cfiCond27) V3 load(1, XDATA, add(CFA_XSP16, literal(-11)))
          CFI (cfiCond27) V4 load(1, XDATA, add(CFA_XSP16, literal(-10)))
          CFI (cfiCond27) V5 load(1, XDATA, add(CFA_XSP16, literal(-9)))
          CFI (cfiCond27) V6 load(1, XDATA, add(CFA_XSP16, literal(-8)))
          CFI (cfiCond27) V7 load(1, XDATA, add(CFA_XSP16, literal(-7)))
          CFI (cfiCond27) R7 load(1, XDATA, add(CFA_XSP16, literal(-6)))
          CFI (cfiCond27) ?RET_LOW load(1, XDATA, add(CFA_XSP16, literal(-5)))
          CFI (cfiCond27) ?RET_HIGH load(1, XDATA, add(CFA_XSP16, literal(-4)))
          CFI (cfiCond27) ?BRET_EXT load(1, XDATA, add(CFA_XSP16, literal(-3)))
          CFI (cfiCond27) DPL0 load(1, XDATA, add(CFA_XSP16, literal(-2)))
          CFI (cfiCond27) DPH0 load(1, XDATA, add(CFA_XSP16, literal(-1)))
          CFI (cfiCond27) CFA_SP SP+-4
          CFI (cfiCond27) CFA_XSP16 add(XSP16, 34)
          CFI Block cfiCond28 Using cfiCommon0
          CFI (cfiCond28) Function MT_AfDataRequest
          CFI (cfiCond28) Conditional ??CrossCallReturnLabel_134, ??CrossCallReturnLabel_28
          CFI (cfiCond28) R6 load(1, XDATA, add(CFA_XSP16, literal(-16)))
          CFI (cfiCond28) VB load(1, XDATA, add(CFA_XSP16, literal(-15)))
          CFI (cfiCond28) V0 load(1, XDATA, add(CFA_XSP16, literal(-14)))
          CFI (cfiCond28) V1 load(1, XDATA, add(CFA_XSP16, literal(-13)))
          CFI (cfiCond28) V2 load(1, XDATA, add(CFA_XSP16, literal(-12)))
          CFI (cfiCond28) V3 load(1, XDATA, add(CFA_XSP16, literal(-11)))
          CFI (cfiCond28) V4 load(1, XDATA, add(CFA_XSP16, literal(-10)))
          CFI (cfiCond28) V5 load(1, XDATA, add(CFA_XSP16, literal(-9)))
          CFI (cfiCond28) V6 load(1, XDATA, add(CFA_XSP16, literal(-8)))
          CFI (cfiCond28) V7 load(1, XDATA, add(CFA_XSP16, literal(-7)))
          CFI (cfiCond28) R7 load(1, XDATA, add(CFA_XSP16, literal(-6)))
          CFI (cfiCond28) ?RET_LOW load(1, XDATA, add(CFA_XSP16, literal(-5)))
          CFI (cfiCond28) ?RET_HIGH load(1, XDATA, add(CFA_XSP16, literal(-4)))
          CFI (cfiCond28) ?BRET_EXT load(1, XDATA, add(CFA_XSP16, literal(-3)))
          CFI (cfiCond28) DPL0 load(1, XDATA, add(CFA_XSP16, literal(-2)))
          CFI (cfiCond28) DPH0 load(1, XDATA, add(CFA_XSP16, literal(-1)))
          CFI (cfiCond28) CFA_SP SP+-4
          CFI (cfiCond28) CFA_XSP16 add(XSP16, 34)
          CFI Block cfiCond29 Using cfiCommon0
          CFI (cfiCond29) Function MT_AfDataStore
          CFI (cfiCond29) Conditional ??CrossCallReturnLabel_134, ??CrossCallReturnLabel_29
          CFI (cfiCond29) R6 load(1, XDATA, add(CFA_XSP16, literal(-14)))
          CFI (cfiCond29) VB load(1, XDATA, add(CFA_XSP16, literal(-13)))
          CFI (cfiCond29) V0 load(1, XDATA, add(CFA_XSP16, literal(-12)))
          CFI (cfiCond29) V1 load(1, XDATA, add(CFA_XSP16, literal(-11)))
          CFI (cfiCond29) V2 load(1, XDATA, add(CFA_XSP16, literal(-10)))
          CFI (cfiCond29) V3 load(1, XDATA, add(CFA_XSP16, literal(-9)))
          CFI (cfiCond29) V4 load(1, XDATA, add(CFA_XSP16, literal(-8)))
          CFI (cfiCond29) V5 load(1, XDATA, add(CFA_XSP16, literal(-7)))
          CFI (cfiCond29) R7 load(1, XDATA, add(CFA_XSP16, literal(-6)))
          CFI (cfiCond29) ?RET_LOW load(1, XDATA, add(CFA_XSP16, literal(-5)))
          CFI (cfiCond29) ?RET_HIGH load(1, XDATA, add(CFA_XSP16, literal(-4)))
          CFI (cfiCond29) ?BRET_EXT load(1, XDATA, add(CFA_XSP16, literal(-3)))
          CFI (cfiCond29) DPL0 load(1, XDATA, add(CFA_XSP16, literal(-2)))
          CFI (cfiCond29) DPH0 load(1, XDATA, add(CFA_XSP16, literal(-1)))
          CFI (cfiCond29) CFA_SP SP+-4
          CFI (cfiCond29) CFA_XSP16 add(XSP16, 20)
          CFI Block cfiCond30 Using cfiCommon0
          CFI (cfiCond30) Function MT_AfDataRequest
          CFI (cfiCond30) Conditional ??CrossCallReturnLabel_133, ??CrossCallReturnLabel_26
          CFI (cfiCond30) R6 load(1, XDATA, add(CFA_XSP16, literal(-16)))
          CFI (cfiCond30) VB load(1, XDATA, add(CFA_XSP16, literal(-15)))
          CFI (cfiCond30) V0 load(1, XDATA, add(CFA_XSP16, literal(-14)))
          CFI (cfiCond30) V1 load(1, XDATA, add(CFA_XSP16, literal(-13)))
          CFI (cfiCond30) V2 load(1, XDATA, add(CFA_XSP16, literal(-12)))
          CFI (cfiCond30) V3 load(1, XDATA, add(CFA_XSP16, literal(-11)))
          CFI (cfiCond30) V4 load(1, XDATA, add(CFA_XSP16, literal(-10)))
          CFI (cfiCond30) V5 load(1, XDATA, add(CFA_XSP16, literal(-9)))
          CFI (cfiCond30) V6 load(1, XDATA, add(CFA_XSP16, literal(-8)))
          CFI (cfiCond30) V7 load(1, XDATA, add(CFA_XSP16, literal(-7)))
          CFI (cfiCond30) R7 load(1, XDATA, add(CFA_XSP16, literal(-6)))
          CFI (cfiCond30) ?RET_LOW load(1, XDATA, add(CFA_XSP16, literal(-5)))
          CFI (cfiCond30) ?RET_HIGH load(1, XDATA, add(CFA_XSP16, literal(-4)))
          CFI (cfiCond30) ?BRET_EXT load(1, XDATA, add(CFA_XSP16, literal(-3)))
          CFI (cfiCond30) DPL0 load(1, XDATA, add(CFA_XSP16, literal(-2)))
          CFI (cfiCond30) DPH0 load(1, XDATA, add(CFA_XSP16, literal(-1)))
          CFI (cfiCond30) CFA_SP SP+-4
          CFI (cfiCond30) CFA_XSP16 add(XSP16, 34)
          CFI Block cfiCond31 Using cfiCommon0
          CFI (cfiCond31) Function MT_AfDataStore
          CFI (cfiCond31) Conditional ??CrossCallReturnLabel_133, ??CrossCallReturnLabel_27
          CFI (cfiCond31) R6 load(1, XDATA, add(CFA_XSP16, literal(-14)))
          CFI (cfiCond31) VB load(1, XDATA, add(CFA_XSP16, literal(-13)))
          CFI (cfiCond31) V0 load(1, XDATA, add(CFA_XSP16, literal(-12)))
          CFI (cfiCond31) V1 load(1, XDATA, add(CFA_XSP16, literal(-11)))
          CFI (cfiCond31) V2 load(1, XDATA, add(CFA_XSP16, literal(-10)))
          CFI (cfiCond31) V3 load(1, XDATA, add(CFA_XSP16, literal(-9)))
          CFI (cfiCond31) V4 load(1, XDATA, add(CFA_XSP16, literal(-8)))
          CFI (cfiCond31) V5 load(1, XDATA, add(CFA_XSP16, literal(-7)))
          CFI (cfiCond31) R7 load(1, XDATA, add(CFA_XSP16, literal(-6)))
          CFI (cfiCond31) ?RET_LOW load(1, XDATA, add(CFA_XSP16, literal(-5)))
          CFI (cfiCond31) ?RET_HIGH load(1, XDATA, add(CFA_XSP16, literal(-4)))
          CFI (cfiCond31) ?BRET_EXT load(1, XDATA, add(CFA_XSP16, literal(-3)))
          CFI (cfiCond31) DPL0 load(1, XDATA, add(CFA_XSP16, literal(-2)))
          CFI (cfiCond31) DPH0 load(1, XDATA, add(CFA_XSP16, literal(-1)))
          CFI (cfiCond31) CFA_SP SP+-4
          CFI (cfiCond31) CFA_XSP16 add(XSP16, 22)
          CFI Block cfiCond32 Using cfiCommon0
          CFI (cfiCond32) Function MT_AfDataRequest
          CFI (cfiCond32) Conditional ??CrossCallReturnLabel_132, ??CrossCallReturnLabel_24
          CFI (cfiCond32) R6 load(1, XDATA, add(CFA_XSP16, literal(-16)))
          CFI (cfiCond32) VB load(1, XDATA, add(CFA_XSP16, literal(-15)))
          CFI (cfiCond32) V0 load(1, XDATA, add(CFA_XSP16, literal(-14)))
          CFI (cfiCond32) V1 load(1, XDATA, add(CFA_XSP16, literal(-13)))
          CFI (cfiCond32) V2 load(1, XDATA, add(CFA_XSP16, literal(-12)))
          CFI (cfiCond32) V3 load(1, XDATA, add(CFA_XSP16, literal(-11)))
          CFI (cfiCond32) V4 load(1, XDATA, add(CFA_XSP16, literal(-10)))
          CFI (cfiCond32) V5 load(1, XDATA, add(CFA_XSP16, literal(-9)))
          CFI (cfiCond32) V6 load(1, XDATA, add(CFA_XSP16, literal(-8)))
          CFI (cfiCond32) V7 load(1, XDATA, add(CFA_XSP16, literal(-7)))
          CFI (cfiCond32) R7 load(1, XDATA, add(CFA_XSP16, literal(-6)))
          CFI (cfiCond32) ?RET_LOW load(1, XDATA, add(CFA_XSP16, literal(-5)))
          CFI (cfiCond32) ?RET_HIGH load(1, XDATA, add(CFA_XSP16, literal(-4)))
          CFI (cfiCond32) ?BRET_EXT load(1, XDATA, add(CFA_XSP16, literal(-3)))
          CFI (cfiCond32) DPL0 load(1, XDATA, add(CFA_XSP16, literal(-2)))
          CFI (cfiCond32) DPH0 load(1, XDATA, add(CFA_XSP16, literal(-1)))
          CFI (cfiCond32) CFA_SP SP+-4
          CFI (cfiCond32) CFA_XSP16 add(XSP16, 34)
          CFI Block cfiCond33 Using cfiCommon0
          CFI (cfiCond33) Function MT_AfDataStore
          CFI (cfiCond33) Conditional ??CrossCallReturnLabel_132, ??CrossCallReturnLabel_25
          CFI (cfiCond33) R6 load(1, XDATA, add(CFA_XSP16, literal(-14)))
          CFI (cfiCond33) VB load(1, XDATA, add(CFA_XSP16, literal(-13)))
          CFI (cfiCond33) V0 load(1, XDATA, add(CFA_XSP16, literal(-12)))
          CFI (cfiCond33) V1 load(1, XDATA, add(CFA_XSP16, literal(-11)))
          CFI (cfiCond33) V2 load(1, XDATA, add(CFA_XSP16, literal(-10)))
          CFI (cfiCond33) V3 load(1, XDATA, add(CFA_XSP16, literal(-9)))
          CFI (cfiCond33) V4 load(1, XDATA, add(CFA_XSP16, literal(-8)))
          CFI (cfiCond33) V5 load(1, XDATA, add(CFA_XSP16, literal(-7)))
          CFI (cfiCond33) R7 load(1, XDATA, add(CFA_XSP16, literal(-6)))
          CFI (cfiCond33) ?RET_LOW load(1, XDATA, add(CFA_XSP16, literal(-5)))
          CFI (cfiCond33) ?RET_HIGH load(1, XDATA, add(CFA_XSP16, literal(-4)))
          CFI (cfiCond33) ?BRET_EXT load(1, XDATA, add(CFA_XSP16, literal(-3)))
          CFI (cfiCond33) DPL0 load(1, XDATA, add(CFA_XSP16, literal(-2)))
          CFI (cfiCond33) DPH0 load(1, XDATA, add(CFA_XSP16, literal(-1)))
          CFI (cfiCond33) CFA_SP SP+-4
          CFI (cfiCond33) CFA_XSP16 add(XSP16, 24)
          CFI Block cfiPicker34 Using cfiCommon1
          CFI (cfiPicker34) NoFunction
          CFI (cfiPicker34) Picker
        MOV       DPTR,#pMtAfDataReq
          CFI EndBlock cfiCond26
          CFI EndBlock cfiCond27
          CFI EndBlock cfiCond28
          CFI EndBlock cfiCond29
          CFI EndBlock cfiCond30
          CFI EndBlock cfiCond31
          CFI EndBlock cfiCond32
          CFI EndBlock cfiCond33
          CFI EndBlock cfiPicker34
        REQUIRE ??Subroutine55_0
        ; // Fall through to label ??Subroutine55_0

        RSEG BANKED_CODE:HUGECODE:NOROOT(0)
??Subroutine55_0:
          CFI Block cfiCond35 Using cfiCommon0
          CFI Function MT_AfIncomingMsg
          CFI Conditional ??CrossCallReturnLabel_135, ??CrossCallReturnLabel_121
          CFI R6 load(1, XDATA, add(CFA_XSP16, literal(-16)))
          CFI VB load(1, XDATA, add(CFA_XSP16, literal(-15)))
          CFI V0 load(1, XDATA, add(CFA_XSP16, literal(-14)))
          CFI V1 load(1, XDATA, add(CFA_XSP16, literal(-13)))
          CFI V2 load(1, XDATA, add(CFA_XSP16, literal(-12)))
          CFI V3 load(1, XDATA, add(CFA_XSP16, literal(-11)))
          CFI V4 load(1, XDATA, add(CFA_XSP16, literal(-10)))
          CFI V5 load(1, XDATA, add(CFA_XSP16, literal(-9)))
          CFI V6 load(1, XDATA, add(CFA_XSP16, literal(-8)))
          CFI V7 load(1, XDATA, add(CFA_XSP16, literal(-7)))
          CFI R7 load(1, XDATA, add(CFA_XSP16, literal(-6)))
          CFI ?RET_LOW load(1, XDATA, add(CFA_XSP16, literal(-5)))
          CFI ?RET_HIGH load(1, XDATA, add(CFA_XSP16, literal(-4)))
          CFI ?BRET_EXT load(1, XDATA, add(CFA_XSP16, literal(-3)))
          CFI DPL0 load(1, XDATA, add(CFA_XSP16, literal(-2)))
          CFI DPH0 load(1, XDATA, add(CFA_XSP16, literal(-1)))
          CFI CFA_SP SP+-4
          CFI CFA_XSP16 add(XSP16, 25)
          CFI Block cfiCond36 Using cfiCommon0
          CFI (cfiCond36) Function MT_AfIncomingMsg
          CFI (cfiCond36) Conditional ??CrossCallReturnLabel_135, ??CrossCallReturnLabel_122
          CFI (cfiCond36) R6 load(1, XDATA, add(CFA_XSP16, literal(-16)))
          CFI (cfiCond36) VB load(1, XDATA, add(CFA_XSP16, literal(-15)))
          CFI (cfiCond36) V0 load(1, XDATA, add(CFA_XSP16, literal(-14)))
          CFI (cfiCond36) V1 load(1, XDATA, add(CFA_XSP16, literal(-13)))
          CFI (cfiCond36) V2 load(1, XDATA, add(CFA_XSP16, literal(-12)))
          CFI (cfiCond36) V3 load(1, XDATA, add(CFA_XSP16, literal(-11)))
          CFI (cfiCond36) V4 load(1, XDATA, add(CFA_XSP16, literal(-10)))
          CFI (cfiCond36) V5 load(1, XDATA, add(CFA_XSP16, literal(-9)))
          CFI (cfiCond36) V6 load(1, XDATA, add(CFA_XSP16, literal(-8)))
          CFI (cfiCond36) V7 load(1, XDATA, add(CFA_XSP16, literal(-7)))
          CFI (cfiCond36) R7 load(1, XDATA, add(CFA_XSP16, literal(-6)))
          CFI (cfiCond36) ?RET_LOW load(1, XDATA, add(CFA_XSP16, literal(-5)))
          CFI (cfiCond36) ?RET_HIGH load(1, XDATA, add(CFA_XSP16, literal(-4)))
          CFI (cfiCond36) ?BRET_EXT load(1, XDATA, add(CFA_XSP16, literal(-3)))
          CFI (cfiCond36) DPL0 load(1, XDATA, add(CFA_XSP16, literal(-2)))
          CFI (cfiCond36) DPH0 load(1, XDATA, add(CFA_XSP16, literal(-1)))
          CFI (cfiCond36) CFA_SP SP+-4
          CFI (cfiCond36) CFA_XSP16 add(XSP16, 25)
          CFI Block cfiCond37 Using cfiCommon0
          CFI (cfiCond37) Function MT_AfIncomingMsg
          CFI (cfiCond37) Conditional ??CrossCallReturnLabel_135, ??CrossCallReturnLabel_126
          CFI (cfiCond37) R6 load(1, XDATA, add(CFA_XSP16, literal(-16)))
          CFI (cfiCond37) VB load(1, XDATA, add(CFA_XSP16, literal(-15)))
          CFI (cfiCond37) V0 load(1, XDATA, add(CFA_XSP16, literal(-14)))
          CFI (cfiCond37) V1 load(1, XDATA, add(CFA_XSP16, literal(-13)))
          CFI (cfiCond37) V2 load(1, XDATA, add(CFA_XSP16, literal(-12)))
          CFI (cfiCond37) V3 load(1, XDATA, add(CFA_XSP16, literal(-11)))
          CFI (cfiCond37) V4 load(1, XDATA, add(CFA_XSP16, literal(-10)))
          CFI (cfiCond37) V5 load(1, XDATA, add(CFA_XSP16, literal(-9)))
          CFI (cfiCond37) V6 load(1, XDATA, add(CFA_XSP16, literal(-8)))
          CFI (cfiCond37) V7 load(1, XDATA, add(CFA_XSP16, literal(-7)))
          CFI (cfiCond37) R7 load(1, XDATA, add(CFA_XSP16, literal(-6)))
          CFI (cfiCond37) ?RET_LOW load(1, XDATA, add(CFA_XSP16, literal(-5)))
          CFI (cfiCond37) ?RET_HIGH load(1, XDATA, add(CFA_XSP16, literal(-4)))
          CFI (cfiCond37) ?BRET_EXT load(1, XDATA, add(CFA_XSP16, literal(-3)))
          CFI (cfiCond37) DPL0 load(1, XDATA, add(CFA_XSP16, literal(-2)))
          CFI (cfiCond37) DPH0 load(1, XDATA, add(CFA_XSP16, literal(-1)))
          CFI (cfiCond37) CFA_SP SP+-4
          CFI (cfiCond37) CFA_XSP16 add(XSP16, 25)
          CFI Block cfiCond38 Using cfiCommon0
          CFI (cfiCond38) Function MT_AfIncomingMsg
          CFI (cfiCond38) Conditional ??CrossCallReturnLabel_135, ??CrossCallReturnLabel_127
          CFI (cfiCond38) R6 load(1, XDATA, add(CFA_XSP16, literal(-16)))
          CFI (cfiCond38) VB load(1, XDATA, add(CFA_XSP16, literal(-15)))
          CFI (cfiCond38) V0 load(1, XDATA, add(CFA_XSP16, literal(-14)))
          CFI (cfiCond38) V1 load(1, XDATA, add(CFA_XSP16, literal(-13)))
          CFI (cfiCond38) V2 load(1, XDATA, add(CFA_XSP16, literal(-12)))
          CFI (cfiCond38) V3 load(1, XDATA, add(CFA_XSP16, literal(-11)))
          CFI (cfiCond38) V4 load(1, XDATA, add(CFA_XSP16, literal(-10)))
          CFI (cfiCond38) V5 load(1, XDATA, add(CFA_XSP16, literal(-9)))
          CFI (cfiCond38) V6 load(1, XDATA, add(CFA_XSP16, literal(-8)))
          CFI (cfiCond38) V7 load(1, XDATA, add(CFA_XSP16, literal(-7)))
          CFI (cfiCond38) R7 load(1, XDATA, add(CFA_XSP16, literal(-6)))
          CFI (cfiCond38) ?RET_LOW load(1, XDATA, add(CFA_XSP16, literal(-5)))
          CFI (cfiCond38) ?RET_HIGH load(1, XDATA, add(CFA_XSP16, literal(-4)))
          CFI (cfiCond38) ?BRET_EXT load(1, XDATA, add(CFA_XSP16, literal(-3)))
          CFI (cfiCond38) DPL0 load(1, XDATA, add(CFA_XSP16, literal(-2)))
          CFI (cfiCond38) DPH0 load(1, XDATA, add(CFA_XSP16, literal(-1)))
          CFI (cfiCond38) CFA_SP SP+-4
          CFI (cfiCond38) CFA_XSP16 add(XSP16, 25)
          CFI Block cfiCond39 Using cfiCommon0
          CFI (cfiCond39) Function MT_AfDataRequest
          CFI (cfiCond39) Conditional ??CrossCallReturnLabel_135, ??CrossCallReturnLabel_123
          CFI (cfiCond39) R6 load(1, XDATA, add(CFA_XSP16, literal(-16)))
          CFI (cfiCond39) VB load(1, XDATA, add(CFA_XSP16, literal(-15)))
          CFI (cfiCond39) V0 load(1, XDATA, add(CFA_XSP16, literal(-14)))
          CFI (cfiCond39) V1 load(1, XDATA, add(CFA_XSP16, literal(-13)))
          CFI (cfiCond39) V2 load(1, XDATA, add(CFA_XSP16, literal(-12)))
          CFI (cfiCond39) V3 load(1, XDATA, add(CFA_XSP16, literal(-11)))
          CFI (cfiCond39) V4 load(1, XDATA, add(CFA_XSP16, literal(-10)))
          CFI (cfiCond39) V5 load(1, XDATA, add(CFA_XSP16, literal(-9)))
          CFI (cfiCond39) V6 load(1, XDATA, add(CFA_XSP16, literal(-8)))
          CFI (cfiCond39) V7 load(1, XDATA, add(CFA_XSP16, literal(-7)))
          CFI (cfiCond39) R7 load(1, XDATA, add(CFA_XSP16, literal(-6)))
          CFI (cfiCond39) ?RET_LOW load(1, XDATA, add(CFA_XSP16, literal(-5)))
          CFI (cfiCond39) ?RET_HIGH load(1, XDATA, add(CFA_XSP16, literal(-4)))
          CFI (cfiCond39) ?BRET_EXT load(1, XDATA, add(CFA_XSP16, literal(-3)))
          CFI (cfiCond39) DPL0 load(1, XDATA, add(CFA_XSP16, literal(-2)))
          CFI (cfiCond39) DPH0 load(1, XDATA, add(CFA_XSP16, literal(-1)))
          CFI (cfiCond39) CFA_SP SP+-4
          CFI (cfiCond39) CFA_XSP16 add(XSP16, 34)
          CFI Block cfiCond40 Using cfiCommon0
          CFI (cfiCond40) Function MT_AfIncomingMsg
          CFI (cfiCond40) Conditional ??CrossCallReturnLabel_135, ??CrossCallReturnLabel_124
          CFI (cfiCond40) R6 load(1, XDATA, add(CFA_XSP16, literal(-16)))
          CFI (cfiCond40) VB load(1, XDATA, add(CFA_XSP16, literal(-15)))
          CFI (cfiCond40) V0 load(1, XDATA, add(CFA_XSP16, literal(-14)))
          CFI (cfiCond40) V1 load(1, XDATA, add(CFA_XSP16, literal(-13)))
          CFI (cfiCond40) V2 load(1, XDATA, add(CFA_XSP16, literal(-12)))
          CFI (cfiCond40) V3 load(1, XDATA, add(CFA_XSP16, literal(-11)))
          CFI (cfiCond40) V4 load(1, XDATA, add(CFA_XSP16, literal(-10)))
          CFI (cfiCond40) V5 load(1, XDATA, add(CFA_XSP16, literal(-9)))
          CFI (cfiCond40) V6 load(1, XDATA, add(CFA_XSP16, literal(-8)))
          CFI (cfiCond40) V7 load(1, XDATA, add(CFA_XSP16, literal(-7)))
          CFI (cfiCond40) R7 load(1, XDATA, add(CFA_XSP16, literal(-6)))
          CFI (cfiCond40) ?RET_LOW load(1, XDATA, add(CFA_XSP16, literal(-5)))
          CFI (cfiCond40) ?RET_HIGH load(1, XDATA, add(CFA_XSP16, literal(-4)))
          CFI (cfiCond40) ?BRET_EXT load(1, XDATA, add(CFA_XSP16, literal(-3)))
          CFI (cfiCond40) DPL0 load(1, XDATA, add(CFA_XSP16, literal(-2)))
          CFI (cfiCond40) DPH0 load(1, XDATA, add(CFA_XSP16, literal(-1)))
          CFI (cfiCond40) CFA_SP SP+-5
          CFI (cfiCond40) CFA_XSP16 add(XSP16, 25)
          CFI Block cfiCond41 Using cfiCommon0
          CFI (cfiCond41) Function MT_AfIncomingMsg
          CFI (cfiCond41) Conditional ??CrossCallReturnLabel_135, ??CrossCallReturnLabel_125
          CFI (cfiCond41) R6 load(1, XDATA, add(CFA_XSP16, literal(-16)))
          CFI (cfiCond41) VB load(1, XDATA, add(CFA_XSP16, literal(-15)))
          CFI (cfiCond41) V0 load(1, XDATA, add(CFA_XSP16, literal(-14)))
          CFI (cfiCond41) V1 load(1, XDATA, add(CFA_XSP16, literal(-13)))
          CFI (cfiCond41) V2 load(1, XDATA, add(CFA_XSP16, literal(-12)))
          CFI (cfiCond41) V3 load(1, XDATA, add(CFA_XSP16, literal(-11)))
          CFI (cfiCond41) V4 load(1, XDATA, add(CFA_XSP16, literal(-10)))
          CFI (cfiCond41) V5 load(1, XDATA, add(CFA_XSP16, literal(-9)))
          CFI (cfiCond41) V6 load(1, XDATA, add(CFA_XSP16, literal(-8)))
          CFI (cfiCond41) V7 load(1, XDATA, add(CFA_XSP16, literal(-7)))
          CFI (cfiCond41) R7 load(1, XDATA, add(CFA_XSP16, literal(-6)))
          CFI (cfiCond41) ?RET_LOW load(1, XDATA, add(CFA_XSP16, literal(-5)))
          CFI (cfiCond41) ?RET_HIGH load(1, XDATA, add(CFA_XSP16, literal(-4)))
          CFI (cfiCond41) ?BRET_EXT load(1, XDATA, add(CFA_XSP16, literal(-3)))
          CFI (cfiCond41) DPL0 load(1, XDATA, add(CFA_XSP16, literal(-2)))
          CFI (cfiCond41) DPH0 load(1, XDATA, add(CFA_XSP16, literal(-1)))
          CFI (cfiCond41) CFA_SP SP+-4
          CFI (cfiCond41) CFA_XSP16 add(XSP16, 25)
          CFI Block cfiCond42 Using cfiCommon0
          CFI (cfiCond42) Function MT_AfDataRequest
          CFI (cfiCond42) Conditional ??CrossCallReturnLabel_130, ??CrossCallReturnLabel_32
          CFI (cfiCond42) R6 load(1, XDATA, add(CFA_XSP16, literal(-16)))
          CFI (cfiCond42) VB load(1, XDATA, add(CFA_XSP16, literal(-15)))
          CFI (cfiCond42) V0 load(1, XDATA, add(CFA_XSP16, literal(-14)))
          CFI (cfiCond42) V1 load(1, XDATA, add(CFA_XSP16, literal(-13)))
          CFI (cfiCond42) V2 load(1, XDATA, add(CFA_XSP16, literal(-12)))
          CFI (cfiCond42) V3 load(1, XDATA, add(CFA_XSP16, literal(-11)))
          CFI (cfiCond42) V4 load(1, XDATA, add(CFA_XSP16, literal(-10)))
          CFI (cfiCond42) V5 load(1, XDATA, add(CFA_XSP16, literal(-9)))
          CFI (cfiCond42) V6 load(1, XDATA, add(CFA_XSP16, literal(-8)))
          CFI (cfiCond42) V7 load(1, XDATA, add(CFA_XSP16, literal(-7)))
          CFI (cfiCond42) R7 load(1, XDATA, add(CFA_XSP16, literal(-6)))
          CFI (cfiCond42) ?RET_LOW load(1, XDATA, add(CFA_XSP16, literal(-5)))
          CFI (cfiCond42) ?RET_HIGH load(1, XDATA, add(CFA_XSP16, literal(-4)))
          CFI (cfiCond42) ?BRET_EXT load(1, XDATA, add(CFA_XSP16, literal(-3)))
          CFI (cfiCond42) DPL0 load(1, XDATA, add(CFA_XSP16, literal(-2)))
          CFI (cfiCond42) DPH0 load(1, XDATA, add(CFA_XSP16, literal(-1)))
          CFI (cfiCond42) CFA_SP SP+-4
          CFI (cfiCond42) CFA_XSP16 add(XSP16, 34)
          CFI Block cfiCond43 Using cfiCommon0
          CFI (cfiCond43) Function MT_AfIncomingMsg
          CFI (cfiCond43) Conditional ??CrossCallReturnLabel_130, ??CrossCallReturnLabel_33
          CFI (cfiCond43) R6 load(1, XDATA, add(CFA_XSP16, literal(-16)))
          CFI (cfiCond43) VB load(1, XDATA, add(CFA_XSP16, literal(-15)))
          CFI (cfiCond43) V0 load(1, XDATA, add(CFA_XSP16, literal(-14)))
          CFI (cfiCond43) V1 load(1, XDATA, add(CFA_XSP16, literal(-13)))
          CFI (cfiCond43) V2 load(1, XDATA, add(CFA_XSP16, literal(-12)))
          CFI (cfiCond43) V3 load(1, XDATA, add(CFA_XSP16, literal(-11)))
          CFI (cfiCond43) V4 load(1, XDATA, add(CFA_XSP16, literal(-10)))
          CFI (cfiCond43) V5 load(1, XDATA, add(CFA_XSP16, literal(-9)))
          CFI (cfiCond43) V6 load(1, XDATA, add(CFA_XSP16, literal(-8)))
          CFI (cfiCond43) V7 load(1, XDATA, add(CFA_XSP16, literal(-7)))
          CFI (cfiCond43) R7 load(1, XDATA, add(CFA_XSP16, literal(-6)))
          CFI (cfiCond43) ?RET_LOW load(1, XDATA, add(CFA_XSP16, literal(-5)))
          CFI (cfiCond43) ?RET_HIGH load(1, XDATA, add(CFA_XSP16, literal(-4)))
          CFI (cfiCond43) ?BRET_EXT load(1, XDATA, add(CFA_XSP16, literal(-3)))
          CFI (cfiCond43) DPL0 load(1, XDATA, add(CFA_XSP16, literal(-2)))
          CFI (cfiCond43) DPH0 load(1, XDATA, add(CFA_XSP16, literal(-1)))
          CFI (cfiCond43) CFA_SP SP+-4
          CFI (cfiCond43) CFA_XSP16 add(XSP16, 25)
          CFI Block cfiCond44 Using cfiCommon0
          CFI (cfiCond44) Function MT_AfDataRequest
          CFI (cfiCond44) Conditional ??CrossCallReturnLabel_129, ??CrossCallReturnLabel_30
          CFI (cfiCond44) R6 load(1, XDATA, add(CFA_XSP16, literal(-16)))
          CFI (cfiCond44) VB load(1, XDATA, add(CFA_XSP16, literal(-15)))
          CFI (cfiCond44) V0 load(1, XDATA, add(CFA_XSP16, literal(-14)))
          CFI (cfiCond44) V1 load(1, XDATA, add(CFA_XSP16, literal(-13)))
          CFI (cfiCond44) V2 load(1, XDATA, add(CFA_XSP16, literal(-12)))
          CFI (cfiCond44) V3 load(1, XDATA, add(CFA_XSP16, literal(-11)))
          CFI (cfiCond44) V4 load(1, XDATA, add(CFA_XSP16, literal(-10)))
          CFI (cfiCond44) V5 load(1, XDATA, add(CFA_XSP16, literal(-9)))
          CFI (cfiCond44) V6 load(1, XDATA, add(CFA_XSP16, literal(-8)))
          CFI (cfiCond44) V7 load(1, XDATA, add(CFA_XSP16, literal(-7)))
          CFI (cfiCond44) R7 load(1, XDATA, add(CFA_XSP16, literal(-6)))
          CFI (cfiCond44) ?RET_LOW load(1, XDATA, add(CFA_XSP16, literal(-5)))
          CFI (cfiCond44) ?RET_HIGH load(1, XDATA, add(CFA_XSP16, literal(-4)))
          CFI (cfiCond44) ?BRET_EXT load(1, XDATA, add(CFA_XSP16, literal(-3)))
          CFI (cfiCond44) DPL0 load(1, XDATA, add(CFA_XSP16, literal(-2)))
          CFI (cfiCond44) DPH0 load(1, XDATA, add(CFA_XSP16, literal(-1)))
          CFI (cfiCond44) CFA_SP SP+-5
          CFI (cfiCond44) CFA_XSP16 add(XSP16, 34)
          CFI Block cfiCond45 Using cfiCommon0
          CFI (cfiCond45) Function MT_AfIncomingMsg
          CFI (cfiCond45) Conditional ??CrossCallReturnLabel_129, ??CrossCallReturnLabel_31
          CFI (cfiCond45) R6 load(1, XDATA, add(CFA_XSP16, literal(-16)))
          CFI (cfiCond45) VB load(1, XDATA, add(CFA_XSP16, literal(-15)))
          CFI (cfiCond45) V0 load(1, XDATA, add(CFA_XSP16, literal(-14)))
          CFI (cfiCond45) V1 load(1, XDATA, add(CFA_XSP16, literal(-13)))
          CFI (cfiCond45) V2 load(1, XDATA, add(CFA_XSP16, literal(-12)))
          CFI (cfiCond45) V3 load(1, XDATA, add(CFA_XSP16, literal(-11)))
          CFI (cfiCond45) V4 load(1, XDATA, add(CFA_XSP16, literal(-10)))
          CFI (cfiCond45) V5 load(1, XDATA, add(CFA_XSP16, literal(-9)))
          CFI (cfiCond45) V6 load(1, XDATA, add(CFA_XSP16, literal(-8)))
          CFI (cfiCond45) V7 load(1, XDATA, add(CFA_XSP16, literal(-7)))
          CFI (cfiCond45) R7 load(1, XDATA, add(CFA_XSP16, literal(-6)))
          CFI (cfiCond45) ?RET_LOW load(1, XDATA, add(CFA_XSP16, literal(-5)))
          CFI (cfiCond45) ?RET_HIGH load(1, XDATA, add(CFA_XSP16, literal(-4)))
          CFI (cfiCond45) ?BRET_EXT load(1, XDATA, add(CFA_XSP16, literal(-3)))
          CFI (cfiCond45) DPL0 load(1, XDATA, add(CFA_XSP16, literal(-2)))
          CFI (cfiCond45) DPH0 load(1, XDATA, add(CFA_XSP16, literal(-1)))
          CFI (cfiCond45) CFA_SP SP+-4
          CFI (cfiCond45) CFA_XSP16 add(XSP16, 25)
          CFI Block cfiCond46 Using cfiCommon0
          CFI (cfiCond46) Function MT_AfIncomingMsg
          CFI (cfiCond46) Conditional ??CrossCallReturnLabel_128, ??CrossCallReturnLabel_18
          CFI (cfiCond46) R6 load(1, XDATA, add(CFA_XSP16, literal(-16)))
          CFI (cfiCond46) VB load(1, XDATA, add(CFA_XSP16, literal(-15)))
          CFI (cfiCond46) V0 load(1, XDATA, add(CFA_XSP16, literal(-14)))
          CFI (cfiCond46) V1 load(1, XDATA, add(CFA_XSP16, literal(-13)))
          CFI (cfiCond46) V2 load(1, XDATA, add(CFA_XSP16, literal(-12)))
          CFI (cfiCond46) V3 load(1, XDATA, add(CFA_XSP16, literal(-11)))
          CFI (cfiCond46) V4 load(1, XDATA, add(CFA_XSP16, literal(-10)))
          CFI (cfiCond46) V5 load(1, XDATA, add(CFA_XSP16, literal(-9)))
          CFI (cfiCond46) V6 load(1, XDATA, add(CFA_XSP16, literal(-8)))
          CFI (cfiCond46) V7 load(1, XDATA, add(CFA_XSP16, literal(-7)))
          CFI (cfiCond46) R7 load(1, XDATA, add(CFA_XSP16, literal(-6)))
          CFI (cfiCond46) ?RET_LOW load(1, XDATA, add(CFA_XSP16, literal(-5)))
          CFI (cfiCond46) ?RET_HIGH load(1, XDATA, add(CFA_XSP16, literal(-4)))
          CFI (cfiCond46) ?BRET_EXT load(1, XDATA, add(CFA_XSP16, literal(-3)))
          CFI (cfiCond46) DPL0 load(1, XDATA, add(CFA_XSP16, literal(-2)))
          CFI (cfiCond46) DPH0 load(1, XDATA, add(CFA_XSP16, literal(-1)))
          CFI (cfiCond46) CFA_SP SP+-4
          CFI (cfiCond46) CFA_XSP16 add(XSP16, 25)
          CFI Block cfiCond47 Using cfiCommon0
          CFI (cfiCond47) Function MT_AfDataStore
          CFI (cfiCond47) Conditional ??CrossCallReturnLabel_128, ??CrossCallReturnLabel_19
          CFI (cfiCond47) R6 load(1, XDATA, add(CFA_XSP16, literal(-14)))
          CFI (cfiCond47) VB load(1, XDATA, add(CFA_XSP16, literal(-13)))
          CFI (cfiCond47) V0 load(1, XDATA, add(CFA_XSP16, literal(-12)))
          CFI (cfiCond47) V1 load(1, XDATA, add(CFA_XSP16, literal(-11)))
          CFI (cfiCond47) V2 load(1, XDATA, add(CFA_XSP16, literal(-10)))
          CFI (cfiCond47) V3 load(1, XDATA, add(CFA_XSP16, literal(-9)))
          CFI (cfiCond47) V4 load(1, XDATA, add(CFA_XSP16, literal(-8)))
          CFI (cfiCond47) V5 load(1, XDATA, add(CFA_XSP16, literal(-7)))
          CFI (cfiCond47) R7 load(1, XDATA, add(CFA_XSP16, literal(-6)))
          CFI (cfiCond47) ?RET_LOW load(1, XDATA, add(CFA_XSP16, literal(-5)))
          CFI (cfiCond47) ?RET_HIGH load(1, XDATA, add(CFA_XSP16, literal(-4)))
          CFI (cfiCond47) ?BRET_EXT load(1, XDATA, add(CFA_XSP16, literal(-3)))
          CFI (cfiCond47) DPL0 load(1, XDATA, add(CFA_XSP16, literal(-2)))
          CFI (cfiCond47) DPH0 load(1, XDATA, add(CFA_XSP16, literal(-1)))
          CFI (cfiCond47) CFA_SP SP+-4
          CFI (cfiCond47) CFA_XSP16 add(XSP16, 24)
          CFI Block cfiCond48 Using cfiCommon0
          CFI (cfiCond48) Function MT_AfExec
          CFI (cfiCond48) Conditional ??CrossCallReturnLabel_131, ??CrossCallReturnLabel_23
          CFI (cfiCond48) R6 load(1, XDATA, add(CFA_XSP16, literal(-9)))
          CFI (cfiCond48) VB load(1, XDATA, add(CFA_XSP16, literal(-8)))
          CFI (cfiCond48) V0 load(1, XDATA, add(CFA_XSP16, literal(-7)))
          CFI (cfiCond48) R7 load(1, XDATA, add(CFA_XSP16, literal(-6)))
          CFI (cfiCond48) ?RET_LOW load(1, XDATA, add(CFA_XSP16, literal(-5)))
          CFI (cfiCond48) ?RET_HIGH load(1, XDATA, add(CFA_XSP16, literal(-4)))
          CFI (cfiCond48) ?BRET_EXT load(1, XDATA, add(CFA_XSP16, literal(-3)))
          CFI (cfiCond48) DPL0 load(1, XDATA, add(CFA_XSP16, literal(-2)))
          CFI (cfiCond48) DPH0 load(1, XDATA, add(CFA_XSP16, literal(-1)))
          CFI (cfiCond48) CFA_SP SP+-4
          CFI (cfiCond48) CFA_XSP16 add(XSP16, 9)
          CFI Block cfiCond49 Using cfiCommon0
          CFI (cfiCond49) Function MT_AfDataRequest
          CFI (cfiCond49) Conditional ??CrossCallReturnLabel_131, ??CrossCallReturnLabel_22
          CFI (cfiCond49) R6 load(1, XDATA, add(CFA_XSP16, literal(-16)))
          CFI (cfiCond49) VB load(1, XDATA, add(CFA_XSP16, literal(-15)))
          CFI (cfiCond49) V0 load(1, XDATA, add(CFA_XSP16, literal(-14)))
          CFI (cfiCond49) V1 load(1, XDATA, add(CFA_XSP16, literal(-13)))
          CFI (cfiCond49) V2 load(1, XDATA, add(CFA_XSP16, literal(-12)))
          CFI (cfiCond49) V3 load(1, XDATA, add(CFA_XSP16, literal(-11)))
          CFI (cfiCond49) V4 load(1, XDATA, add(CFA_XSP16, literal(-10)))
          CFI (cfiCond49) V5 load(1, XDATA, add(CFA_XSP16, literal(-9)))
          CFI (cfiCond49) V6 load(1, XDATA, add(CFA_XSP16, literal(-8)))
          CFI (cfiCond49) V7 load(1, XDATA, add(CFA_XSP16, literal(-7)))
          CFI (cfiCond49) R7 load(1, XDATA, add(CFA_XSP16, literal(-6)))
          CFI (cfiCond49) ?RET_LOW load(1, XDATA, add(CFA_XSP16, literal(-5)))
          CFI (cfiCond49) ?RET_HIGH load(1, XDATA, add(CFA_XSP16, literal(-4)))
          CFI (cfiCond49) ?BRET_EXT load(1, XDATA, add(CFA_XSP16, literal(-3)))
          CFI (cfiCond49) DPL0 load(1, XDATA, add(CFA_XSP16, literal(-2)))
          CFI (cfiCond49) DPH0 load(1, XDATA, add(CFA_XSP16, literal(-1)))
          CFI (cfiCond49) CFA_SP SP+-4
          CFI (cfiCond49) CFA_XSP16 add(XSP16, 34)
          CFI Block cfiCond50 Using cfiCommon0
          CFI (cfiCond50) Function MT_AfDataRequest
          CFI (cfiCond50) Conditional ??CrossCallReturnLabel_134, ??CrossCallReturnLabel_28
          CFI (cfiCond50) R6 load(1, XDATA, add(CFA_XSP16, literal(-16)))
          CFI (cfiCond50) VB load(1, XDATA, add(CFA_XSP16, literal(-15)))
          CFI (cfiCond50) V0 load(1, XDATA, add(CFA_XSP16, literal(-14)))
          CFI (cfiCond50) V1 load(1, XDATA, add(CFA_XSP16, literal(-13)))
          CFI (cfiCond50) V2 load(1, XDATA, add(CFA_XSP16, literal(-12)))
          CFI (cfiCond50) V3 load(1, XDATA, add(CFA_XSP16, literal(-11)))
          CFI (cfiCond50) V4 load(1, XDATA, add(CFA_XSP16, literal(-10)))
          CFI (cfiCond50) V5 load(1, XDATA, add(CFA_XSP16, literal(-9)))
          CFI (cfiCond50) V6 load(1, XDATA, add(CFA_XSP16, literal(-8)))
          CFI (cfiCond50) V7 load(1, XDATA, add(CFA_XSP16, literal(-7)))
          CFI (cfiCond50) R7 load(1, XDATA, add(CFA_XSP16, literal(-6)))
          CFI (cfiCond50) ?RET_LOW load(1, XDATA, add(CFA_XSP16, literal(-5)))
          CFI (cfiCond50) ?RET_HIGH load(1, XDATA, add(CFA_XSP16, literal(-4)))
          CFI (cfiCond50) ?BRET_EXT load(1, XDATA, add(CFA_XSP16, literal(-3)))
          CFI (cfiCond50) DPL0 load(1, XDATA, add(CFA_XSP16, literal(-2)))
          CFI (cfiCond50) DPH0 load(1, XDATA, add(CFA_XSP16, literal(-1)))
          CFI (cfiCond50) CFA_SP SP+-4
          CFI (cfiCond50) CFA_XSP16 add(XSP16, 34)
          CFI Block cfiCond51 Using cfiCommon0
          CFI (cfiCond51) Function MT_AfDataStore
          CFI (cfiCond51) Conditional ??CrossCallReturnLabel_134, ??CrossCallReturnLabel_29
          CFI (cfiCond51) R6 load(1, XDATA, add(CFA_XSP16, literal(-14)))
          CFI (cfiCond51) VB load(1, XDATA, add(CFA_XSP16, literal(-13)))
          CFI (cfiCond51) V0 load(1, XDATA, add(CFA_XSP16, literal(-12)))
          CFI (cfiCond51) V1 load(1, XDATA, add(CFA_XSP16, literal(-11)))
          CFI (cfiCond51) V2 load(1, XDATA, add(CFA_XSP16, literal(-10)))
          CFI (cfiCond51) V3 load(1, XDATA, add(CFA_XSP16, literal(-9)))
          CFI (cfiCond51) V4 load(1, XDATA, add(CFA_XSP16, literal(-8)))
          CFI (cfiCond51) V5 load(1, XDATA, add(CFA_XSP16, literal(-7)))
          CFI (cfiCond51) R7 load(1, XDATA, add(CFA_XSP16, literal(-6)))
          CFI (cfiCond51) ?RET_LOW load(1, XDATA, add(CFA_XSP16, literal(-5)))
          CFI (cfiCond51) ?RET_HIGH load(1, XDATA, add(CFA_XSP16, literal(-4)))
          CFI (cfiCond51) ?BRET_EXT load(1, XDATA, add(CFA_XSP16, literal(-3)))
          CFI (cfiCond51) DPL0 load(1, XDATA, add(CFA_XSP16, literal(-2)))
          CFI (cfiCond51) DPH0 load(1, XDATA, add(CFA_XSP16, literal(-1)))
          CFI (cfiCond51) CFA_SP SP+-4
          CFI (cfiCond51) CFA_XSP16 add(XSP16, 20)
          CFI Block cfiCond52 Using cfiCommon0
          CFI (cfiCond52) Function MT_AfDataRequest
          CFI (cfiCond52) Conditional ??CrossCallReturnLabel_133, ??CrossCallReturnLabel_26
          CFI (cfiCond52) R6 load(1, XDATA, add(CFA_XSP16, literal(-16)))
          CFI (cfiCond52) VB load(1, XDATA, add(CFA_XSP16, literal(-15)))
          CFI (cfiCond52) V0 load(1, XDATA, add(CFA_XSP16, literal(-14)))
          CFI (cfiCond52) V1 load(1, XDATA, add(CFA_XSP16, literal(-13)))
          CFI (cfiCond52) V2 load(1, XDATA, add(CFA_XSP16, literal(-12)))
          CFI (cfiCond52) V3 load(1, XDATA, add(CFA_XSP16, literal(-11)))
          CFI (cfiCond52) V4 load(1, XDATA, add(CFA_XSP16, literal(-10)))
          CFI (cfiCond52) V5 load(1, XDATA, add(CFA_XSP16, literal(-9)))
          CFI (cfiCond52) V6 load(1, XDATA, add(CFA_XSP16, literal(-8)))
          CFI (cfiCond52) V7 load(1, XDATA, add(CFA_XSP16, literal(-7)))
          CFI (cfiCond52) R7 load(1, XDATA, add(CFA_XSP16, literal(-6)))
          CFI (cfiCond52) ?RET_LOW load(1, XDATA, add(CFA_XSP16, literal(-5)))
          CFI (cfiCond52) ?RET_HIGH load(1, XDATA, add(CFA_XSP16, literal(-4)))
          CFI (cfiCond52) ?BRET_EXT load(1, XDATA, add(CFA_XSP16, literal(-3)))
          CFI (cfiCond52) DPL0 load(1, XDATA, add(CFA_XSP16, literal(-2)))
          CFI (cfiCond52) DPH0 load(1, XDATA, add(CFA_XSP16, literal(-1)))
          CFI (cfiCond52) CFA_SP SP+-4
          CFI (cfiCond52) CFA_XSP16 add(XSP16, 34)
          CFI Block cfiCond53 Using cfiCommon0
          CFI (cfiCond53) Function MT_AfDataStore
          CFI (cfiCond53) Conditional ??CrossCallReturnLabel_133, ??CrossCallReturnLabel_27
          CFI (cfiCond53) R6 load(1, XDATA, add(CFA_XSP16, literal(-14)))
          CFI (cfiCond53) VB load(1, XDATA, add(CFA_XSP16, literal(-13)))
          CFI (cfiCond53) V0 load(1, XDATA, add(CFA_XSP16, literal(-12)))
          CFI (cfiCond53) V1 load(1, XDATA, add(CFA_XSP16, literal(-11)))
          CFI (cfiCond53) V2 load(1, XDATA, add(CFA_XSP16, literal(-10)))
          CFI (cfiCond53) V3 load(1, XDATA, add(CFA_XSP16, literal(-9)))
          CFI (cfiCond53) V4 load(1, XDATA, add(CFA_XSP16, literal(-8)))
          CFI (cfiCond53) V5 load(1, XDATA, add(CFA_XSP16, literal(-7)))
          CFI (cfiCond53) R7 load(1, XDATA, add(CFA_XSP16, literal(-6)))
          CFI (cfiCond53) ?RET_LOW load(1, XDATA, add(CFA_XSP16, literal(-5)))
          CFI (cfiCond53) ?RET_HIGH load(1, XDATA, add(CFA_XSP16, literal(-4)))
          CFI (cfiCond53) ?BRET_EXT load(1, XDATA, add(CFA_XSP16, literal(-3)))
          CFI (cfiCond53) DPL0 load(1, XDATA, add(CFA_XSP16, literal(-2)))
          CFI (cfiCond53) DPH0 load(1, XDATA, add(CFA_XSP16, literal(-1)))
          CFI (cfiCond53) CFA_SP SP+-4
          CFI (cfiCond53) CFA_XSP16 add(XSP16, 22)
          CFI Block cfiCond54 Using cfiCommon0
          CFI (cfiCond54) Function MT_AfDataRequest
          CFI (cfiCond54) Conditional ??CrossCallReturnLabel_132, ??CrossCallReturnLabel_24
          CFI (cfiCond54) R6 load(1, XDATA, add(CFA_XSP16, literal(-16)))
          CFI (cfiCond54) VB load(1, XDATA, add(CFA_XSP16, literal(-15)))
          CFI (cfiCond54) V0 load(1, XDATA, add(CFA_XSP16, literal(-14)))
          CFI (cfiCond54) V1 load(1, XDATA, add(CFA_XSP16, literal(-13)))
          CFI (cfiCond54) V2 load(1, XDATA, add(CFA_XSP16, literal(-12)))
          CFI (cfiCond54) V3 load(1, XDATA, add(CFA_XSP16, literal(-11)))
          CFI (cfiCond54) V4 load(1, XDATA, add(CFA_XSP16, literal(-10)))
          CFI (cfiCond54) V5 load(1, XDATA, add(CFA_XSP16, literal(-9)))
          CFI (cfiCond54) V6 load(1, XDATA, add(CFA_XSP16, literal(-8)))
          CFI (cfiCond54) V7 load(1, XDATA, add(CFA_XSP16, literal(-7)))
          CFI (cfiCond54) R7 load(1, XDATA, add(CFA_XSP16, literal(-6)))
          CFI (cfiCond54) ?RET_LOW load(1, XDATA, add(CFA_XSP16, literal(-5)))
          CFI (cfiCond54) ?RET_HIGH load(1, XDATA, add(CFA_XSP16, literal(-4)))
          CFI (cfiCond54) ?BRET_EXT load(1, XDATA, add(CFA_XSP16, literal(-3)))
          CFI (cfiCond54) DPL0 load(1, XDATA, add(CFA_XSP16, literal(-2)))
          CFI (cfiCond54) DPH0 load(1, XDATA, add(CFA_XSP16, literal(-1)))
          CFI (cfiCond54) CFA_SP SP+-4
          CFI (cfiCond54) CFA_XSP16 add(XSP16, 34)
          CFI Block cfiCond55 Using cfiCommon0
          CFI (cfiCond55) Function MT_AfDataStore
          CFI (cfiCond55) Conditional ??CrossCallReturnLabel_132, ??CrossCallReturnLabel_25
          CFI (cfiCond55) R6 load(1, XDATA, add(CFA_XSP16, literal(-14)))
          CFI (cfiCond55) VB load(1, XDATA, add(CFA_XSP16, literal(-13)))
          CFI (cfiCond55) V0 load(1, XDATA, add(CFA_XSP16, literal(-12)))
          CFI (cfiCond55) V1 load(1, XDATA, add(CFA_XSP16, literal(-11)))
          CFI (cfiCond55) V2 load(1, XDATA, add(CFA_XSP16, literal(-10)))
          CFI (cfiCond55) V3 load(1, XDATA, add(CFA_XSP16, literal(-9)))
          CFI (cfiCond55) V4 load(1, XDATA, add(CFA_XSP16, literal(-8)))
          CFI (cfiCond55) V5 load(1, XDATA, add(CFA_XSP16, literal(-7)))
          CFI (cfiCond55) R7 load(1, XDATA, add(CFA_XSP16, literal(-6)))
          CFI (cfiCond55) ?RET_LOW load(1, XDATA, add(CFA_XSP16, literal(-5)))
          CFI (cfiCond55) ?RET_HIGH load(1, XDATA, add(CFA_XSP16, literal(-4)))
          CFI (cfiCond55) ?BRET_EXT load(1, XDATA, add(CFA_XSP16, literal(-3)))
          CFI (cfiCond55) DPL0 load(1, XDATA, add(CFA_XSP16, literal(-2)))
          CFI (cfiCond55) DPH0 load(1, XDATA, add(CFA_XSP16, literal(-1)))
          CFI (cfiCond55) CFA_SP SP+-4
          CFI (cfiCond55) CFA_XSP16 add(XSP16, 24)
          CFI Block cfiPicker56 Using cfiCommon1
          CFI (cfiPicker56) NoFunction
          CFI (cfiPicker56) Picker
        MOVX      A,@DPTR
        MOV       R0,A
        INC       DPTR
        MOVX      A,@DPTR
        XCH       A,R0
        RET
          CFI EndBlock cfiCond35
          CFI EndBlock cfiCond36
          CFI EndBlock cfiCond37
          CFI EndBlock cfiCond38
          CFI EndBlock cfiCond39
          CFI EndBlock cfiCond40
          CFI EndBlock cfiCond41
          CFI EndBlock cfiCond42
          CFI EndBlock cfiCond43
          CFI EndBlock cfiCond44
          CFI EndBlock cfiCond45
          CFI EndBlock cfiCond46
          CFI EndBlock cfiCond47
          CFI EndBlock cfiCond48
          CFI EndBlock cfiCond49
          CFI EndBlock cfiCond50
          CFI EndBlock cfiCond51
          CFI EndBlock cfiCond52
          CFI EndBlock cfiCond53
          CFI EndBlock cfiCond54
          CFI EndBlock cfiCond55
          CFI EndBlock cfiPicker56
//  457 
//  458 #if defined( ZIGBEEPRO )
//  459 /***************************************************************************************************
//  460  * @fn      MT_AfDataRequestSrcRtg
//  461  *
//  462  * @brief   Process AF Register command
//  463  *
//  464  * @param   pBuf - pointer to the received buffer
//  465  *
//  466  * @return  none
//  467  ***************************************************************************************************/

        RSEG BANKED_CODE:HUGECODE:NOROOT(0)
//  468 static void MT_AfDataRequestSrcRtg(uint8 *pBuf)
MT_AfDataRequestSrcRtg:
          CFI Block cfiBlock57 Using cfiCommon0
          CFI Function MT_AfDataRequestSrcRtg
        CODE
//  469 {
        FUNCALL MT_AfDataRequestSrcRtg, osal_memset
        LOCFRAME ISTACK, 0, STACK
        LOCFRAME PSTACK, 0, STACK
        LOCFRAME XSTACK, 35, STACK
        LOCFRAME IOVERLAY, 0, STATIC
        LOCFRAME DOVERLAY, 0, STATIC
        ARGFRAME ISTACK, 0, STACK
        ARGFRAME PSTACK, 0, STACK
        ARGFRAME XSTACK, 35, STACK
        ARGFRAME IOVERLAY, 0, STATIC
        ARGFRAME DOVERLAY, 0, STATIC
        FUNCALL MT_AfDataRequestSrcRtg, osal_build_uint16
        LOCFRAME ISTACK, 0, STACK
        LOCFRAME PSTACK, 0, STACK
        LOCFRAME XSTACK, 35, STACK
        LOCFRAME IOVERLAY, 0, STATIC
        LOCFRAME DOVERLAY, 0, STATIC
        ARGFRAME ISTACK, 0, STACK
        ARGFRAME PSTACK, 0, STACK
        ARGFRAME XSTACK, 35, STACK
        ARGFRAME IOVERLAY, 0, STATIC
        ARGFRAME DOVERLAY, 0, STATIC
        FUNCALL MT_AfDataRequestSrcRtg, afFindEndPointDesc
        LOCFRAME ISTACK, 0, STACK
        LOCFRAME PSTACK, 0, STACK
        LOCFRAME XSTACK, 35, STACK
        LOCFRAME IOVERLAY, 0, STATIC
        LOCFRAME DOVERLAY, 0, STATIC
        ARGFRAME ISTACK, 0, STACK
        ARGFRAME PSTACK, 0, STACK
        ARGFRAME XSTACK, 35, STACK
        ARGFRAME IOVERLAY, 0, STATIC
        ARGFRAME DOVERLAY, 0, STATIC
        FUNCALL MT_AfDataRequestSrcRtg, osal_build_uint16
        LOCFRAME ISTACK, 0, STACK
        LOCFRAME PSTACK, 0, STACK
        LOCFRAME XSTACK, 35, STACK
        LOCFRAME IOVERLAY, 0, STATIC
        LOCFRAME DOVERLAY, 0, STATIC
        ARGFRAME ISTACK, 0, STACK
        ARGFRAME PSTACK, 0, STACK
        ARGFRAME XSTACK, 35, STACK
        ARGFRAME IOVERLAY, 0, STATIC
        ARGFRAME DOVERLAY, 0, STATIC
        FUNCALL MT_AfDataRequestSrcRtg, osal_mem_alloc
        LOCFRAME ISTACK, 0, STACK
        LOCFRAME PSTACK, 0, STACK
        LOCFRAME XSTACK, 35, STACK
        LOCFRAME IOVERLAY, 0, STATIC
        LOCFRAME DOVERLAY, 0, STATIC
        ARGFRAME ISTACK, 0, STACK
        ARGFRAME PSTACK, 0, STACK
        ARGFRAME XSTACK, 35, STACK
        ARGFRAME IOVERLAY, 0, STATIC
        ARGFRAME DOVERLAY, 0, STATIC
        FUNCALL MT_AfDataRequestSrcRtg, osal_build_uint16
        LOCFRAME ISTACK, 0, STACK
        LOCFRAME PSTACK, 0, STACK
        LOCFRAME XSTACK, 35, STACK
        LOCFRAME IOVERLAY, 0, STATIC
        LOCFRAME DOVERLAY, 0, STATIC
        ARGFRAME ISTACK, 0, STACK
        ARGFRAME PSTACK, 0, STACK
        ARGFRAME XSTACK, 35, STACK
        ARGFRAME IOVERLAY, 0, STATIC
        ARGFRAME DOVERLAY, 0, STATIC
        FUNCALL MT_AfDataRequestSrcRtg, AF_DataRequestSrcRtg
        LOCFRAME ISTACK, 0, STACK
        LOCFRAME PSTACK, 0, STACK
        LOCFRAME XSTACK, 47, STACK
        LOCFRAME IOVERLAY, 0, STATIC
        LOCFRAME DOVERLAY, 0, STATIC
        ARGFRAME ISTACK, 0, STACK
        ARGFRAME PSTACK, 0, STACK
        ARGFRAME XSTACK, 47, STACK
        ARGFRAME IOVERLAY, 0, STATIC
        ARGFRAME DOVERLAY, 0, STATIC
        FUNCALL MT_AfDataRequestSrcRtg, osal_mem_free
        LOCFRAME ISTACK, 0, STACK
        LOCFRAME PSTACK, 0, STACK
        LOCFRAME XSTACK, 35, STACK
        LOCFRAME IOVERLAY, 0, STATIC
        LOCFRAME DOVERLAY, 0, STATIC
        ARGFRAME ISTACK, 0, STACK
        ARGFRAME PSTACK, 0, STACK
        ARGFRAME XSTACK, 35, STACK
        ARGFRAME IOVERLAY, 0, STATIC
        ARGFRAME DOVERLAY, 0, STATIC
        FUNCALL MT_AfDataRequestSrcRtg, MT_BuildAndSendZToolResponse
        LOCFRAME ISTACK, 0, STACK
        LOCFRAME PSTACK, 0, STACK
        LOCFRAME XSTACK, 35, STACK
        LOCFRAME IOVERLAY, 0, STATIC
        LOCFRAME DOVERLAY, 0, STATIC
        ARGFRAME ISTACK, 0, STACK
        ARGFRAME PSTACK, 0, STACK
        ARGFRAME XSTACK, 35, STACK
        ARGFRAME IOVERLAY, 0, STATIC
        ARGFRAME DOVERLAY, 0, STATIC
        REQUIRE ?V0
        REQUIRE ?V1
        REQUIRE ?V2
        REQUIRE ?V3
        REQUIRE ?V4
        REQUIRE ?V5
        REQUIRE ?V6
        REQUIRE ?V7
        MOV       A,#-0x10
        LCALL     ?BANKED_ENTER_XDATA
          CFI DPH0 load(1, XDATA, add(CFA_XSP16, literal(-1)))
          CFI DPL0 load(1, XDATA, add(CFA_XSP16, literal(-2)))
          CFI ?BRET_EXT load(1, XDATA, add(CFA_XSP16, literal(-3)))
          CFI ?RET_HIGH load(1, XDATA, add(CFA_XSP16, literal(-4)))
          CFI ?RET_LOW load(1, XDATA, add(CFA_XSP16, literal(-5)))
          CFI R7 load(1, XDATA, add(CFA_XSP16, literal(-6)))
          CFI V7 load(1, XDATA, add(CFA_XSP16, literal(-7)))
          CFI V6 load(1, XDATA, add(CFA_XSP16, literal(-8)))
          CFI V5 load(1, XDATA, add(CFA_XSP16, literal(-9)))
          CFI V4 load(1, XDATA, add(CFA_XSP16, literal(-10)))
          CFI V3 load(1, XDATA, add(CFA_XSP16, literal(-11)))
          CFI V2 load(1, XDATA, add(CFA_XSP16, literal(-12)))
          CFI V1 load(1, XDATA, add(CFA_XSP16, literal(-13)))
          CFI V0 load(1, XDATA, add(CFA_XSP16, literal(-14)))
          CFI VB load(1, XDATA, add(CFA_XSP16, literal(-15)))
          CFI R6 load(1, XDATA, add(CFA_XSP16, literal(-16)))
          CFI CFA_SP SP+0
          CFI CFA_XSP16 add(XSP16, 16)
        ; Saved register size: 16
        ; Auto size: 19
        MOV       A,#-0x13
        LCALL     ?ALLOC_XSTACK8
          CFI CFA_XSP16 add(XSP16, 35)
        MOV       A,R2
        MOV       R6,A
        MOV       A,R3
        MOV       R7,A
//  470   uint8 cmdId, dataLen = 0;
//  471   uint8 retValue = ZFailure;
        MOV       DPL,?XSP + 0
        MOV       DPH,?XSP + 1
        MOV       A,#0x1
        MOVX      @DPTR,A
//  472   endPointDesc_t *epDesc;
//  473   byte transId;
//  474   afAddrType_t dstAddr;
//  475   cId_t cId;
//  476   byte txOpts, radius, srcEP, relayCnt;
//  477   uint16 *pRelayList;
//  478   uint8 i;
//  479 
//  480   /* parse header */
//  481   cmdId = pBuf[MT_RPC_POS_CMD1];
        MOV       DPL,R6
        MOV       DPH,R7
        INC       DPTR
        INC       DPTR
        MOVX      A,@DPTR
        PUSH      A
          CFI CFA_SP SP+-1
        MOV       A,#0x4
        LCALL     ?XSTACK_DISP0_8
        POP       A
          CFI CFA_SP SP+0
        MOVX      @DPTR,A
//  482   pBuf += MT_RPC_FRAME_HDR_SZ;
        MOV       A,R6
        ADD       A,#0x3
        MOV       R6,A
        JNC       ??MT_AfDataRequestSrcRtg_0
        INC       R7
//  483 
//  484   /* Destination address */
//  485   /* Initialize the panID field to zero to avoid inter-pan */
//  486   osal_memset( &dstAddr, 0, sizeof(afAddrType_t) );
??MT_AfDataRequestSrcRtg_0:
        ; Setup parameters for call to function osal_memset
        MOV       R4,#0xc
        MOV       R5,#0x0
        MOV       R1,#0x0
        MOV       A,#0x7
        LCALL     ?XSTACK_DISP101_8
        LCALL     `??osal_memset::?relay`; Banked call to: osal_memset
//  487   dstAddr.addrMode = afAddr16Bit;
        MOV       A,#0xf
        LCALL     ?XSTACK_DISP0_8
        MOV       A,#0x2
        MOVX      @DPTR,A
//  488   dstAddr.addr.shortAddr = osal_build_uint16( pBuf );
        ; Setup parameters for call to function osal_build_uint16
        MOV       A,R6
        MOV       R2,A
        MOV       A,R7
        MOV       R3,A
        LCALL     `??osal_build_uint16::?relay`; Banked call to: osal_build_uint16
        MOV       A,#0x7
        LCALL     ?XSTACK_DISP0_8
        LCALL     ?Subroutine29 & 0xFFFF
//  489   pBuf += 2;
//  490 
//  491   /* Destination endpoint */
//  492   dstAddr.endPoint = *pBuf++;
??CrossCallReturnLabel_59:
        MOV       DPL,R6
        MOV       DPH,R7
        INC       DPTR
        INC       DPTR
        MOVX      A,@DPTR
        PUSH      A
          CFI CFA_SP SP+-1
        MOV       A,#0x10
        LCALL     ?XSTACK_DISP0_8
        POP       A
          CFI CFA_SP SP+0
        LCALL     ?Subroutine37 & 0xFFFF
//  493 
//  494   /* Source endpoint */
//  495   srcEP = *pBuf++;
??CrossCallReturnLabel_76:
        MOV       R1,A
        MOV       A,R6
        ADD       A,#0x4
        MOV       R6,A
        JNC       ??MT_AfDataRequestSrcRtg_1
        INC       R7
//  496   epDesc = afFindEndPointDesc( srcEP );
??MT_AfDataRequestSrcRtg_1:
        ; Setup parameters for call to function afFindEndPointDesc
        LCALL     `??afFindEndPointDesc::?relay`; Banked call to: afFindEndPointDesc
        MOV       A,#0x5
        LCALL     ?XSTACK_DISP0_8
        LCALL     ?Subroutine29 & 0xFFFF
//  497 
//  498   /* ClusterId */
//  499   cId = osal_build_uint16( pBuf );
??CrossCallReturnLabel_60:
        ; Setup parameters for call to function osal_build_uint16
        MOV       A,R6
        MOV       R2,A
        MOV       A,R7
        MOV       R3,A
        LCALL     `??osal_build_uint16::?relay`; Banked call to: osal_build_uint16
        MOV       ?V0,R2
        MOV       ?V1,R3
//  500   pBuf +=2;
//  501 
//  502   /* TransId */
//  503   transId = *pBuf++;
        MOV       DPL,R6
        MOV       DPH,R7
        INC       DPTR
        INC       DPTR
        MOVX      A,@DPTR
        PUSH      A
          CFI CFA_SP SP+-1
        MOV       A,#0x1
        LCALL     ?XSTACK_DISP0_8
        POP       A
          CFI CFA_SP SP+0
        LCALL     ?Subroutine37 & 0xFFFF
//  504 
//  505   /* TxOption */
//  506   txOpts = *pBuf++;
??CrossCallReturnLabel_77:
        PUSH      A
          CFI CFA_SP SP+-1
        MOV       A,#0x3
        LCALL     ?XSTACK_DISP0_8
        POP       A
          CFI CFA_SP SP+0
        LCALL     ?Subroutine38 & 0xFFFF
//  507 
//  508   /* Radius */
//  509   radius = *pBuf++;
??CrossCallReturnLabel_78:
        MOVX      A,@DPTR
        PUSH      A
          CFI CFA_SP SP+-1
        MOV       A,#0x2
        LCALL     ?XSTACK_DISP0_8
        POP       A
          CFI CFA_SP SP+0
        LCALL     ?Subroutine38 & 0xFFFF
//  510 
//  511   /* Source route relay count */
//  512   relayCnt = *pBuf++;
??CrossCallReturnLabel_79:
        INC       DPTR
        MOVX      A,@DPTR
        MOV       ?V2,A
        MOV       A,R6
        ADD       A,#0x6
        MOV       R6,A
        JNC       ??MT_AfDataRequestSrcRtg_2
        INC       R7
//  513 
//  514   /* Convert the source route relay list */
//  515   if( (pRelayList = osal_mem_alloc( relayCnt * sizeof( uint16 ))) != NULL )
??MT_AfDataRequestSrcRtg_2:
        ; Setup parameters for call to function osal_mem_alloc
        MOV       R2,?V2
        MOV       A,R2
        ADD       A,R2
        MOV       R2,A
        CLR       A
        RLC       A
        MOV       R3,A
        LCALL     `??osal_mem_alloc::?relay`; Banked call to: osal_mem_alloc
        MOV       ?V6,R2
        MOV       ?V7,R3
        MOV       A,R2
        ORL       A,?V7
        JNZ       $+5
        LJMP      ??MT_AfDataRequestSrcRtg_3 & 0xFFFF
//  516   {
//  517     for( i = 0; i < relayCnt; i++ )
        MOV       ?V3,#0x0
        SJMP      ??MT_AfDataRequestSrcRtg_4
//  518     {
//  519       pRelayList[i] = osal_build_uint16( pBuf );
??MT_AfDataRequestSrcRtg_5:
        ; Setup parameters for call to function osal_build_uint16
        MOV       A,R6
        MOV       R2,A
        MOV       A,R7
        MOV       R3,A
        LCALL     `??osal_build_uint16::?relay`; Banked call to: osal_build_uint16
        MOV       R0,?V3
        MOV       A,R0
        ADD       A,R0
        MOV       R0,A
        CLR       A
        RLC       A
        MOV       R1,A
        MOV       A,?V6
        ADD       A,R0
        MOV       DPL,A
        MOV       A,?V7
        ADDC      A,R1
        MOV       DPH,A
        LCALL     ?Subroutine29 & 0xFFFF
//  520       pBuf += 2;
??CrossCallReturnLabel_61:
        MOV       A,R6
        ADD       A,#0x2
        MOV       R6,A
        JNC       ??MT_AfDataRequestSrcRtg_6
        INC       R7
//  521     }
??MT_AfDataRequestSrcRtg_6:
        INC       ?V3
??MT_AfDataRequestSrcRtg_4:
        MOV       A,?V3
        CLR       C
        SUBB      A,?V2
        JC        ??MT_AfDataRequestSrcRtg_5
//  522 
//  523     /* Data payload Length */
//  524     dataLen = *pBuf++;
        MOV       DPL,R6
        MOV       DPH,R7
        MOVX      A,@DPTR
        MOV       R2,A
        INC       DPTR
        MOV       R6,DPL
        MOV       R7,DPH
//  525 
//  526     if ( epDesc == NULL )
        MOV       A,#0x5
        LCALL     ?XSTACK_DISP0_8
        LCALL     ??Subroutine62_0 & 0xFFFF
??CrossCallReturnLabel_148:
        JNZ       ??MT_AfDataRequestSrcRtg_7
//  527     {
//  528       retValue = afStatus_INVALID_PARAMETER;
        MOV       DPL,?XSP + 0
        MOV       DPH,?XSP + 1
        MOV       A,#0x2
        SJMP      ??MT_AfDataRequestSrcRtg_8
//  529     }
//  530     else
//  531     {
//  532       retValue = AF_DataRequestSrcRtg( &dstAddr, epDesc, cId, dataLen, pBuf,
//  533                                      &transId, txOpts, radius, relayCnt, pRelayList );
??MT_AfDataRequestSrcRtg_7:
        ; Setup parameters for call to function AF_DataRequestSrcRtg
        MOV       R0,#?V6
        LCALL     ?PUSH_XSTACK_I_TWO
          CFI CFA_XSP16 add(XSP16, 37)
        MOV       R0,#?V2
        LCALL     ?PUSH_XSTACK_I_ONE
          CFI CFA_XSP16 add(XSP16, 38)
        MOV       A,#0x5
        LCALL     ?XSTACK_DISP0_8
        MOVX      A,@DPTR
        MOV       ?V2,A
        MOV       R0,#?V2
        LCALL     ?PUSH_XSTACK_I_ONE
          CFI CFA_XSP16 add(XSP16, 39)
        MOV       A,#0x5
        LCALL     ?XSTACK_DISP100_8
        MOV       ?V2,R0
        MOV       ?V3,R1
        MOV       R0,#?V2
        LCALL     ?PUSH_XSTACK_I_TWO
          CFI CFA_XSP16 add(XSP16, 41)
        MOV       ?V2,R6
        MOV       ?V3,R7
        MOV       R0,#?V2
        LCALL     ?PUSH_XSTACK_I_TWO
          CFI CFA_XSP16 add(XSP16, 43)
        MOV       A,R2
        MOV       ?V2,A
        MOV       ?V3,#0x0
        MOV       R0,#?V2
        LCALL     ?PUSH_XSTACK_I_TWO
          CFI CFA_XSP16 add(XSP16, 45)
        MOV       R0,#?V0
        LCALL     ?PUSH_XSTACK_I_TWO
          CFI CFA_XSP16 add(XSP16, 47)
        MOV       A,#0xf
        LCALL     ?XSTACK_DISP0_8
        MOVX      A,@DPTR
        MOV       R1,A
        MOV       A,#0x11
        LCALL     ?XSTACK_DISP0_8
        LCALL     ?Subroutine23 & 0xFFFF
//  534     }
??CrossCallReturnLabel_39:
        MOV       A,#0x13
        LCALL     ?XSTACK_DISP101_8
        LCALL     `??AF_DataRequestSrcRtg::?relay`; Banked call to: AF_DataRequestSrcRtg
        MOV       A,#0xc
        LCALL     ?DEALLOC_XSTACK8
          CFI CFA_XSP16 add(XSP16, 35)
        MOV       A,R1
        MOV       DPL,?XSP + 0
        MOV       DPH,?XSP + 1
??MT_AfDataRequestSrcRtg_8:
        MOVX      @DPTR,A
//  535 
//  536     /* Free the memory allocated */
//  537     osal_mem_free( pRelayList );
        ; Setup parameters for call to function osal_mem_free
        MOV       R2,?V6
        MOV       R3,?V7
        LCALL     `??osal_mem_free::?relay`; Banked call to: osal_mem_free
        SJMP      ??MT_AfDataRequestSrcRtg_9
//  538   }
//  539   else
//  540   {
//  541     retValue = afStatus_MEM_FAIL;
??MT_AfDataRequestSrcRtg_3:
        MOV       DPL,?XSP + 0
        MOV       DPH,?XSP + 1
        MOV       A,#0x10
        MOVX      @DPTR,A
//  542   }
//  543 
//  544 
//  545   /* Build and send back the response */
//  546   MT_BuildAndSendZToolResponse(((uint8)MT_RPC_CMD_SRSP | (uint8)MT_RPC_SYS_AF), cmdId, 1, &retValue);
??MT_AfDataRequestSrcRtg_9:
        ; Setup parameters for call to function MT_BuildAndSendZToolResponse
        MOV       R4,?XSP + 0
        MOV       R5,?XSP + 1
        MOV       R3,#0x1
        MOV       A,#0x4
        LCALL     ?XSTACK_DISP0_8
        MOVX      A,@DPTR
        MOV       R2,A
        MOV       R1,#0x64
        LCALL     `??MT_BuildAndSendZToolResponse::?relay`; Banked call to: MT_BuildAndSendZToolResponse
//  547 }
        MOV       A,#0x13
        LJMP      ?Subroutine1 & 0xFFFF
          CFI EndBlock cfiBlock57

        RSEG BANKED_CODE:HUGECODE:NOROOT(0)
?Subroutine38:
          CFI Block cfiCond58 Using cfiCommon0
          CFI Function MT_AfDataRequestSrcRtg
          CFI Conditional ??CrossCallReturnLabel_78
          CFI R6 load(1, XDATA, add(CFA_XSP16, literal(-16)))
          CFI VB load(1, XDATA, add(CFA_XSP16, literal(-15)))
          CFI V0 load(1, XDATA, add(CFA_XSP16, literal(-14)))
          CFI V1 load(1, XDATA, add(CFA_XSP16, literal(-13)))
          CFI V2 load(1, XDATA, add(CFA_XSP16, literal(-12)))
          CFI V3 load(1, XDATA, add(CFA_XSP16, literal(-11)))
          CFI V4 load(1, XDATA, add(CFA_XSP16, literal(-10)))
          CFI V5 load(1, XDATA, add(CFA_XSP16, literal(-9)))
          CFI V6 load(1, XDATA, add(CFA_XSP16, literal(-8)))
          CFI V7 load(1, XDATA, add(CFA_XSP16, literal(-7)))
          CFI R7 load(1, XDATA, add(CFA_XSP16, literal(-6)))
          CFI ?RET_LOW load(1, XDATA, add(CFA_XSP16, literal(-5)))
          CFI ?RET_HIGH load(1, XDATA, add(CFA_XSP16, literal(-4)))
          CFI ?BRET_EXT load(1, XDATA, add(CFA_XSP16, literal(-3)))
          CFI DPL0 load(1, XDATA, add(CFA_XSP16, literal(-2)))
          CFI DPH0 load(1, XDATA, add(CFA_XSP16, literal(-1)))
          CFI CFA_SP SP+-2
          CFI CFA_XSP16 add(XSP16, 35)
          CFI Block cfiCond59 Using cfiCommon0
          CFI (cfiCond59) Function MT_AfDataRequestSrcRtg
          CFI (cfiCond59) Conditional ??CrossCallReturnLabel_79
          CFI (cfiCond59) R6 load(1, XDATA, add(CFA_XSP16, literal(-16)))
          CFI (cfiCond59) VB load(1, XDATA, add(CFA_XSP16, literal(-15)))
          CFI (cfiCond59) V0 load(1, XDATA, add(CFA_XSP16, literal(-14)))
          CFI (cfiCond59) V1 load(1, XDATA, add(CFA_XSP16, literal(-13)))
          CFI (cfiCond59) V2 load(1, XDATA, add(CFA_XSP16, literal(-12)))
          CFI (cfiCond59) V3 load(1, XDATA, add(CFA_XSP16, literal(-11)))
          CFI (cfiCond59) V4 load(1, XDATA, add(CFA_XSP16, literal(-10)))
          CFI (cfiCond59) V5 load(1, XDATA, add(CFA_XSP16, literal(-9)))
          CFI (cfiCond59) V6 load(1, XDATA, add(CFA_XSP16, literal(-8)))
          CFI (cfiCond59) V7 load(1, XDATA, add(CFA_XSP16, literal(-7)))
          CFI (cfiCond59) R7 load(1, XDATA, add(CFA_XSP16, literal(-6)))
          CFI (cfiCond59) ?RET_LOW load(1, XDATA, add(CFA_XSP16, literal(-5)))
          CFI (cfiCond59) ?RET_HIGH load(1, XDATA, add(CFA_XSP16, literal(-4)))
          CFI (cfiCond59) ?BRET_EXT load(1, XDATA, add(CFA_XSP16, literal(-3)))
          CFI (cfiCond59) DPL0 load(1, XDATA, add(CFA_XSP16, literal(-2)))
          CFI (cfiCond59) DPH0 load(1, XDATA, add(CFA_XSP16, literal(-1)))
          CFI (cfiCond59) CFA_SP SP+-2
          CFI (cfiCond59) CFA_XSP16 add(XSP16, 35)
          CFI Block cfiPicker60 Using cfiCommon1
          CFI (cfiPicker60) NoFunction
          CFI (cfiPicker60) Picker
        LCALL     ?Subroutine48 & 0xFFFF
??CrossCallReturnLabel_93:
        INC       DPTR
        RET
          CFI EndBlock cfiCond58
          CFI EndBlock cfiCond59
          CFI EndBlock cfiPicker60

        RSEG BANKED_CODE:HUGECODE:NOROOT(0)
?Subroutine37:
          CFI Block cfiCond61 Using cfiCommon0
          CFI Function MT_AfDataRequestSrcRtg
          CFI Conditional ??CrossCallReturnLabel_76
          CFI R6 load(1, XDATA, add(CFA_XSP16, literal(-16)))
          CFI VB load(1, XDATA, add(CFA_XSP16, literal(-15)))
          CFI V0 load(1, XDATA, add(CFA_XSP16, literal(-14)))
          CFI V1 load(1, XDATA, add(CFA_XSP16, literal(-13)))
          CFI V2 load(1, XDATA, add(CFA_XSP16, literal(-12)))
          CFI V3 load(1, XDATA, add(CFA_XSP16, literal(-11)))
          CFI V4 load(1, XDATA, add(CFA_XSP16, literal(-10)))
          CFI V5 load(1, XDATA, add(CFA_XSP16, literal(-9)))
          CFI V6 load(1, XDATA, add(CFA_XSP16, literal(-8)))
          CFI V7 load(1, XDATA, add(CFA_XSP16, literal(-7)))
          CFI R7 load(1, XDATA, add(CFA_XSP16, literal(-6)))
          CFI ?RET_LOW load(1, XDATA, add(CFA_XSP16, literal(-5)))
          CFI ?RET_HIGH load(1, XDATA, add(CFA_XSP16, literal(-4)))
          CFI ?BRET_EXT load(1, XDATA, add(CFA_XSP16, literal(-3)))
          CFI DPL0 load(1, XDATA, add(CFA_XSP16, literal(-2)))
          CFI DPH0 load(1, XDATA, add(CFA_XSP16, literal(-1)))
          CFI CFA_SP SP+-2
          CFI CFA_XSP16 add(XSP16, 35)
          CFI Block cfiCond62 Using cfiCommon0
          CFI (cfiCond62) Function MT_AfDataRequestSrcRtg
          CFI (cfiCond62) Conditional ??CrossCallReturnLabel_77
          CFI (cfiCond62) R6 load(1, XDATA, add(CFA_XSP16, literal(-16)))
          CFI (cfiCond62) VB load(1, XDATA, add(CFA_XSP16, literal(-15)))
          CFI (cfiCond62) V0 load(1, XDATA, add(CFA_XSP16, literal(-14)))
          CFI (cfiCond62) V1 load(1, XDATA, add(CFA_XSP16, literal(-13)))
          CFI (cfiCond62) V2 load(1, XDATA, add(CFA_XSP16, literal(-12)))
          CFI (cfiCond62) V3 load(1, XDATA, add(CFA_XSP16, literal(-11)))
          CFI (cfiCond62) V4 load(1, XDATA, add(CFA_XSP16, literal(-10)))
          CFI (cfiCond62) V5 load(1, XDATA, add(CFA_XSP16, literal(-9)))
          CFI (cfiCond62) V6 load(1, XDATA, add(CFA_XSP16, literal(-8)))
          CFI (cfiCond62) V7 load(1, XDATA, add(CFA_XSP16, literal(-7)))
          CFI (cfiCond62) R7 load(1, XDATA, add(CFA_XSP16, literal(-6)))
          CFI (cfiCond62) ?RET_LOW load(1, XDATA, add(CFA_XSP16, literal(-5)))
          CFI (cfiCond62) ?RET_HIGH load(1, XDATA, add(CFA_XSP16, literal(-4)))
          CFI (cfiCond62) ?BRET_EXT load(1, XDATA, add(CFA_XSP16, literal(-3)))
          CFI (cfiCond62) DPL0 load(1, XDATA, add(CFA_XSP16, literal(-2)))
          CFI (cfiCond62) DPH0 load(1, XDATA, add(CFA_XSP16, literal(-1)))
          CFI (cfiCond62) CFA_SP SP+-2
          CFI (cfiCond62) CFA_XSP16 add(XSP16, 35)
          CFI Block cfiPicker63 Using cfiCommon1
          CFI (cfiPicker63) NoFunction
          CFI (cfiPicker63) Picker
        LCALL     ?Subroutine48 & 0xFFFF
??CrossCallReturnLabel_94:
        MOVX      A,@DPTR
        RET
          CFI EndBlock cfiCond61
          CFI EndBlock cfiCond62
          CFI EndBlock cfiPicker63

        RSEG BANKED_CODE:HUGECODE:NOROOT(0)
?Subroutine48:
          CFI Block cfiCond64 Using cfiCommon0
          CFI Function MT_AfDataRequestSrcRtg
          CFI Conditional ??CrossCallReturnLabel_93, ??CrossCallReturnLabel_78
          CFI R6 load(1, XDATA, add(CFA_XSP16, literal(-16)))
          CFI VB load(1, XDATA, add(CFA_XSP16, literal(-15)))
          CFI V0 load(1, XDATA, add(CFA_XSP16, literal(-14)))
          CFI V1 load(1, XDATA, add(CFA_XSP16, literal(-13)))
          CFI V2 load(1, XDATA, add(CFA_XSP16, literal(-12)))
          CFI V3 load(1, XDATA, add(CFA_XSP16, literal(-11)))
          CFI V4 load(1, XDATA, add(CFA_XSP16, literal(-10)))
          CFI V5 load(1, XDATA, add(CFA_XSP16, literal(-9)))
          CFI V6 load(1, XDATA, add(CFA_XSP16, literal(-8)))
          CFI V7 load(1, XDATA, add(CFA_XSP16, literal(-7)))
          CFI R7 load(1, XDATA, add(CFA_XSP16, literal(-6)))
          CFI ?RET_LOW load(1, XDATA, add(CFA_XSP16, literal(-5)))
          CFI ?RET_HIGH load(1, XDATA, add(CFA_XSP16, literal(-4)))
          CFI ?BRET_EXT load(1, XDATA, add(CFA_XSP16, literal(-3)))
          CFI DPL0 load(1, XDATA, add(CFA_XSP16, literal(-2)))
          CFI DPH0 load(1, XDATA, add(CFA_XSP16, literal(-1)))
          CFI CFA_SP SP+-4
          CFI CFA_XSP16 add(XSP16, 35)
          CFI Block cfiCond65 Using cfiCommon0
          CFI (cfiCond65) Function MT_AfDataRequestSrcRtg
          CFI (cfiCond65) Conditional ??CrossCallReturnLabel_93, ??CrossCallReturnLabel_79
          CFI (cfiCond65) R6 load(1, XDATA, add(CFA_XSP16, literal(-16)))
          CFI (cfiCond65) VB load(1, XDATA, add(CFA_XSP16, literal(-15)))
          CFI (cfiCond65) V0 load(1, XDATA, add(CFA_XSP16, literal(-14)))
          CFI (cfiCond65) V1 load(1, XDATA, add(CFA_XSP16, literal(-13)))
          CFI (cfiCond65) V2 load(1, XDATA, add(CFA_XSP16, literal(-12)))
          CFI (cfiCond65) V3 load(1, XDATA, add(CFA_XSP16, literal(-11)))
          CFI (cfiCond65) V4 load(1, XDATA, add(CFA_XSP16, literal(-10)))
          CFI (cfiCond65) V5 load(1, XDATA, add(CFA_XSP16, literal(-9)))
          CFI (cfiCond65) V6 load(1, XDATA, add(CFA_XSP16, literal(-8)))
          CFI (cfiCond65) V7 load(1, XDATA, add(CFA_XSP16, literal(-7)))
          CFI (cfiCond65) R7 load(1, XDATA, add(CFA_XSP16, literal(-6)))
          CFI (cfiCond65) ?RET_LOW load(1, XDATA, add(CFA_XSP16, literal(-5)))
          CFI (cfiCond65) ?RET_HIGH load(1, XDATA, add(CFA_XSP16, literal(-4)))
          CFI (cfiCond65) ?BRET_EXT load(1, XDATA, add(CFA_XSP16, literal(-3)))
          CFI (cfiCond65) DPL0 load(1, XDATA, add(CFA_XSP16, literal(-2)))
          CFI (cfiCond65) DPH0 load(1, XDATA, add(CFA_XSP16, literal(-1)))
          CFI (cfiCond65) CFA_SP SP+-4
          CFI (cfiCond65) CFA_XSP16 add(XSP16, 35)
          CFI Block cfiCond66 Using cfiCommon0
          CFI (cfiCond66) Function MT_AfDataRequestSrcRtg
          CFI (cfiCond66) Conditional ??CrossCallReturnLabel_94, ??CrossCallReturnLabel_76
          CFI (cfiCond66) R6 load(1, XDATA, add(CFA_XSP16, literal(-16)))
          CFI (cfiCond66) VB load(1, XDATA, add(CFA_XSP16, literal(-15)))
          CFI (cfiCond66) V0 load(1, XDATA, add(CFA_XSP16, literal(-14)))
          CFI (cfiCond66) V1 load(1, XDATA, add(CFA_XSP16, literal(-13)))
          CFI (cfiCond66) V2 load(1, XDATA, add(CFA_XSP16, literal(-12)))
          CFI (cfiCond66) V3 load(1, XDATA, add(CFA_XSP16, literal(-11)))
          CFI (cfiCond66) V4 load(1, XDATA, add(CFA_XSP16, literal(-10)))
          CFI (cfiCond66) V5 load(1, XDATA, add(CFA_XSP16, literal(-9)))
          CFI (cfiCond66) V6 load(1, XDATA, add(CFA_XSP16, literal(-8)))
          CFI (cfiCond66) V7 load(1, XDATA, add(CFA_XSP16, literal(-7)))
          CFI (cfiCond66) R7 load(1, XDATA, add(CFA_XSP16, literal(-6)))
          CFI (cfiCond66) ?RET_LOW load(1, XDATA, add(CFA_XSP16, literal(-5)))
          CFI (cfiCond66) ?RET_HIGH load(1, XDATA, add(CFA_XSP16, literal(-4)))
          CFI (cfiCond66) ?BRET_EXT load(1, XDATA, add(CFA_XSP16, literal(-3)))
          CFI (cfiCond66) DPL0 load(1, XDATA, add(CFA_XSP16, literal(-2)))
          CFI (cfiCond66) DPH0 load(1, XDATA, add(CFA_XSP16, literal(-1)))
          CFI (cfiCond66) CFA_SP SP+-4
          CFI (cfiCond66) CFA_XSP16 add(XSP16, 35)
          CFI Block cfiCond67 Using cfiCommon0
          CFI (cfiCond67) Function MT_AfDataRequestSrcRtg
          CFI (cfiCond67) Conditional ??CrossCallReturnLabel_94, ??CrossCallReturnLabel_77
          CFI (cfiCond67) R6 load(1, XDATA, add(CFA_XSP16, literal(-16)))
          CFI (cfiCond67) VB load(1, XDATA, add(CFA_XSP16, literal(-15)))
          CFI (cfiCond67) V0 load(1, XDATA, add(CFA_XSP16, literal(-14)))
          CFI (cfiCond67) V1 load(1, XDATA, add(CFA_XSP16, literal(-13)))
          CFI (cfiCond67) V2 load(1, XDATA, add(CFA_XSP16, literal(-12)))
          CFI (cfiCond67) V3 load(1, XDATA, add(CFA_XSP16, literal(-11)))
          CFI (cfiCond67) V4 load(1, XDATA, add(CFA_XSP16, literal(-10)))
          CFI (cfiCond67) V5 load(1, XDATA, add(CFA_XSP16, literal(-9)))
          CFI (cfiCond67) V6 load(1, XDATA, add(CFA_XSP16, literal(-8)))
          CFI (cfiCond67) V7 load(1, XDATA, add(CFA_XSP16, literal(-7)))
          CFI (cfiCond67) R7 load(1, XDATA, add(CFA_XSP16, literal(-6)))
          CFI (cfiCond67) ?RET_LOW load(1, XDATA, add(CFA_XSP16, literal(-5)))
          CFI (cfiCond67) ?RET_HIGH load(1, XDATA, add(CFA_XSP16, literal(-4)))
          CFI (cfiCond67) ?BRET_EXT load(1, XDATA, add(CFA_XSP16, literal(-3)))
          CFI (cfiCond67) DPL0 load(1, XDATA, add(CFA_XSP16, literal(-2)))
          CFI (cfiCond67) DPH0 load(1, XDATA, add(CFA_XSP16, literal(-1)))
          CFI (cfiCond67) CFA_SP SP+-4
          CFI (cfiCond67) CFA_XSP16 add(XSP16, 35)
          CFI Block cfiPicker68 Using cfiCommon1
          CFI (cfiPicker68) NoFunction
          CFI (cfiPicker68) Picker
        MOVX      @DPTR,A
        MOV       DPL,R6
        MOV       DPH,R7
        INC       DPTR
        INC       DPTR
        INC       DPTR
        RET
          CFI EndBlock cfiCond64
          CFI EndBlock cfiCond65
          CFI EndBlock cfiCond66
          CFI EndBlock cfiCond67
          CFI EndBlock cfiPicker68

        RSEG BANKED_CODE:HUGECODE:NOROOT(0)
?Subroutine29:
          CFI Block cfiCond69 Using cfiCommon0
          CFI Function MT_AfDataRequest
          CFI Conditional ??CrossCallReturnLabel_53
          CFI R6 load(1, XDATA, add(CFA_XSP16, literal(-16)))
          CFI VB load(1, XDATA, add(CFA_XSP16, literal(-15)))
          CFI V0 load(1, XDATA, add(CFA_XSP16, literal(-14)))
          CFI V1 load(1, XDATA, add(CFA_XSP16, literal(-13)))
          CFI V2 load(1, XDATA, add(CFA_XSP16, literal(-12)))
          CFI V3 load(1, XDATA, add(CFA_XSP16, literal(-11)))
          CFI V4 load(1, XDATA, add(CFA_XSP16, literal(-10)))
          CFI V5 load(1, XDATA, add(CFA_XSP16, literal(-9)))
          CFI V6 load(1, XDATA, add(CFA_XSP16, literal(-8)))
          CFI V7 load(1, XDATA, add(CFA_XSP16, literal(-7)))
          CFI R7 load(1, XDATA, add(CFA_XSP16, literal(-6)))
          CFI ?RET_LOW load(1, XDATA, add(CFA_XSP16, literal(-5)))
          CFI ?RET_HIGH load(1, XDATA, add(CFA_XSP16, literal(-4)))
          CFI ?BRET_EXT load(1, XDATA, add(CFA_XSP16, literal(-3)))
          CFI DPL0 load(1, XDATA, add(CFA_XSP16, literal(-2)))
          CFI DPH0 load(1, XDATA, add(CFA_XSP16, literal(-1)))
          CFI CFA_SP SP+-2
          CFI CFA_XSP16 add(XSP16, 34)
          CFI Block cfiCond70 Using cfiCommon0
          CFI (cfiCond70) Function MT_AfDataRequest
          CFI (cfiCond70) Conditional ??CrossCallReturnLabel_54
          CFI (cfiCond70) R6 load(1, XDATA, add(CFA_XSP16, literal(-16)))
          CFI (cfiCond70) VB load(1, XDATA, add(CFA_XSP16, literal(-15)))
          CFI (cfiCond70) V0 load(1, XDATA, add(CFA_XSP16, literal(-14)))
          CFI (cfiCond70) V1 load(1, XDATA, add(CFA_XSP16, literal(-13)))
          CFI (cfiCond70) V2 load(1, XDATA, add(CFA_XSP16, literal(-12)))
          CFI (cfiCond70) V3 load(1, XDATA, add(CFA_XSP16, literal(-11)))
          CFI (cfiCond70) V4 load(1, XDATA, add(CFA_XSP16, literal(-10)))
          CFI (cfiCond70) V5 load(1, XDATA, add(CFA_XSP16, literal(-9)))
          CFI (cfiCond70) V6 load(1, XDATA, add(CFA_XSP16, literal(-8)))
          CFI (cfiCond70) V7 load(1, XDATA, add(CFA_XSP16, literal(-7)))
          CFI (cfiCond70) R7 load(1, XDATA, add(CFA_XSP16, literal(-6)))
          CFI (cfiCond70) ?RET_LOW load(1, XDATA, add(CFA_XSP16, literal(-5)))
          CFI (cfiCond70) ?RET_HIGH load(1, XDATA, add(CFA_XSP16, literal(-4)))
          CFI (cfiCond70) ?BRET_EXT load(1, XDATA, add(CFA_XSP16, literal(-3)))
          CFI (cfiCond70) DPL0 load(1, XDATA, add(CFA_XSP16, literal(-2)))
          CFI (cfiCond70) DPH0 load(1, XDATA, add(CFA_XSP16, literal(-1)))
          CFI (cfiCond70) CFA_SP SP+-2
          CFI (cfiCond70) CFA_XSP16 add(XSP16, 34)
          CFI Block cfiCond71 Using cfiCommon0
          CFI (cfiCond71) Function MT_AfDataRequest
          CFI (cfiCond71) Conditional ??CrossCallReturnLabel_55
          CFI (cfiCond71) R6 load(1, XDATA, add(CFA_XSP16, literal(-16)))
          CFI (cfiCond71) VB load(1, XDATA, add(CFA_XSP16, literal(-15)))
          CFI (cfiCond71) V0 load(1, XDATA, add(CFA_XSP16, literal(-14)))
          CFI (cfiCond71) V1 load(1, XDATA, add(CFA_XSP16, literal(-13)))
          CFI (cfiCond71) V2 load(1, XDATA, add(CFA_XSP16, literal(-12)))
          CFI (cfiCond71) V3 load(1, XDATA, add(CFA_XSP16, literal(-11)))
          CFI (cfiCond71) V4 load(1, XDATA, add(CFA_XSP16, literal(-10)))
          CFI (cfiCond71) V5 load(1, XDATA, add(CFA_XSP16, literal(-9)))
          CFI (cfiCond71) V6 load(1, XDATA, add(CFA_XSP16, literal(-8)))
          CFI (cfiCond71) V7 load(1, XDATA, add(CFA_XSP16, literal(-7)))
          CFI (cfiCond71) R7 load(1, XDATA, add(CFA_XSP16, literal(-6)))
          CFI (cfiCond71) ?RET_LOW load(1, XDATA, add(CFA_XSP16, literal(-5)))
          CFI (cfiCond71) ?RET_HIGH load(1, XDATA, add(CFA_XSP16, literal(-4)))
          CFI (cfiCond71) ?BRET_EXT load(1, XDATA, add(CFA_XSP16, literal(-3)))
          CFI (cfiCond71) DPL0 load(1, XDATA, add(CFA_XSP16, literal(-2)))
          CFI (cfiCond71) DPH0 load(1, XDATA, add(CFA_XSP16, literal(-1)))
          CFI (cfiCond71) CFA_SP SP+-2
          CFI (cfiCond71) CFA_XSP16 add(XSP16, 34)
          CFI Block cfiCond72 Using cfiCommon0
          CFI (cfiCond72) Function MT_AfDataRequest
          CFI (cfiCond72) Conditional ??CrossCallReturnLabel_56
          CFI (cfiCond72) R6 load(1, XDATA, add(CFA_XSP16, literal(-16)))
          CFI (cfiCond72) VB load(1, XDATA, add(CFA_XSP16, literal(-15)))
          CFI (cfiCond72) V0 load(1, XDATA, add(CFA_XSP16, literal(-14)))
          CFI (cfiCond72) V1 load(1, XDATA, add(CFA_XSP16, literal(-13)))
          CFI (cfiCond72) V2 load(1, XDATA, add(CFA_XSP16, literal(-12)))
          CFI (cfiCond72) V3 load(1, XDATA, add(CFA_XSP16, literal(-11)))
          CFI (cfiCond72) V4 load(1, XDATA, add(CFA_XSP16, literal(-10)))
          CFI (cfiCond72) V5 load(1, XDATA, add(CFA_XSP16, literal(-9)))
          CFI (cfiCond72) V6 load(1, XDATA, add(CFA_XSP16, literal(-8)))
          CFI (cfiCond72) V7 load(1, XDATA, add(CFA_XSP16, literal(-7)))
          CFI (cfiCond72) R7 load(1, XDATA, add(CFA_XSP16, literal(-6)))
          CFI (cfiCond72) ?RET_LOW load(1, XDATA, add(CFA_XSP16, literal(-5)))
          CFI (cfiCond72) ?RET_HIGH load(1, XDATA, add(CFA_XSP16, literal(-4)))
          CFI (cfiCond72) ?BRET_EXT load(1, XDATA, add(CFA_XSP16, literal(-3)))
          CFI (cfiCond72) DPL0 load(1, XDATA, add(CFA_XSP16, literal(-2)))
          CFI (cfiCond72) DPH0 load(1, XDATA, add(CFA_XSP16, literal(-1)))
          CFI (cfiCond72) CFA_SP SP+-2
          CFI (cfiCond72) CFA_XSP16 add(XSP16, 34)
          CFI Block cfiCond73 Using cfiCommon0
          CFI (cfiCond73) Function MT_AfDataRequest
          CFI (cfiCond73) Conditional ??CrossCallReturnLabel_57
          CFI (cfiCond73) R6 load(1, XDATA, add(CFA_XSP16, literal(-16)))
          CFI (cfiCond73) VB load(1, XDATA, add(CFA_XSP16, literal(-15)))
          CFI (cfiCond73) V0 load(1, XDATA, add(CFA_XSP16, literal(-14)))
          CFI (cfiCond73) V1 load(1, XDATA, add(CFA_XSP16, literal(-13)))
          CFI (cfiCond73) V2 load(1, XDATA, add(CFA_XSP16, literal(-12)))
          CFI (cfiCond73) V3 load(1, XDATA, add(CFA_XSP16, literal(-11)))
          CFI (cfiCond73) V4 load(1, XDATA, add(CFA_XSP16, literal(-10)))
          CFI (cfiCond73) V5 load(1, XDATA, add(CFA_XSP16, literal(-9)))
          CFI (cfiCond73) V6 load(1, XDATA, add(CFA_XSP16, literal(-8)))
          CFI (cfiCond73) V7 load(1, XDATA, add(CFA_XSP16, literal(-7)))
          CFI (cfiCond73) R7 load(1, XDATA, add(CFA_XSP16, literal(-6)))
          CFI (cfiCond73) ?RET_LOW load(1, XDATA, add(CFA_XSP16, literal(-5)))
          CFI (cfiCond73) ?RET_HIGH load(1, XDATA, add(CFA_XSP16, literal(-4)))
          CFI (cfiCond73) ?BRET_EXT load(1, XDATA, add(CFA_XSP16, literal(-3)))
          CFI (cfiCond73) DPL0 load(1, XDATA, add(CFA_XSP16, literal(-2)))
          CFI (cfiCond73) DPH0 load(1, XDATA, add(CFA_XSP16, literal(-1)))
          CFI (cfiCond73) CFA_SP SP+-2
          CFI (cfiCond73) CFA_XSP16 add(XSP16, 34)
          CFI Block cfiCond74 Using cfiCommon0
          CFI (cfiCond74) Function MT_AfDataRequest
          CFI (cfiCond74) Conditional ??CrossCallReturnLabel_58
          CFI (cfiCond74) R6 load(1, XDATA, add(CFA_XSP16, literal(-16)))
          CFI (cfiCond74) VB load(1, XDATA, add(CFA_XSP16, literal(-15)))
          CFI (cfiCond74) V0 load(1, XDATA, add(CFA_XSP16, literal(-14)))
          CFI (cfiCond74) V1 load(1, XDATA, add(CFA_XSP16, literal(-13)))
          CFI (cfiCond74) V2 load(1, XDATA, add(CFA_XSP16, literal(-12)))
          CFI (cfiCond74) V3 load(1, XDATA, add(CFA_XSP16, literal(-11)))
          CFI (cfiCond74) V4 load(1, XDATA, add(CFA_XSP16, literal(-10)))
          CFI (cfiCond74) V5 load(1, XDATA, add(CFA_XSP16, literal(-9)))
          CFI (cfiCond74) V6 load(1, XDATA, add(CFA_XSP16, literal(-8)))
          CFI (cfiCond74) V7 load(1, XDATA, add(CFA_XSP16, literal(-7)))
          CFI (cfiCond74) R7 load(1, XDATA, add(CFA_XSP16, literal(-6)))
          CFI (cfiCond74) ?RET_LOW load(1, XDATA, add(CFA_XSP16, literal(-5)))
          CFI (cfiCond74) ?RET_HIGH load(1, XDATA, add(CFA_XSP16, literal(-4)))
          CFI (cfiCond74) ?BRET_EXT load(1, XDATA, add(CFA_XSP16, literal(-3)))
          CFI (cfiCond74) DPL0 load(1, XDATA, add(CFA_XSP16, literal(-2)))
          CFI (cfiCond74) DPH0 load(1, XDATA, add(CFA_XSP16, literal(-1)))
          CFI (cfiCond74) CFA_SP SP+-2
          CFI (cfiCond74) CFA_XSP16 add(XSP16, 34)
          CFI Block cfiCond75 Using cfiCommon0
          CFI (cfiCond75) Function MT_AfDataRequestSrcRtg
          CFI (cfiCond75) Conditional ??CrossCallReturnLabel_59
          CFI (cfiCond75) R6 load(1, XDATA, add(CFA_XSP16, literal(-16)))
          CFI (cfiCond75) VB load(1, XDATA, add(CFA_XSP16, literal(-15)))
          CFI (cfiCond75) V0 load(1, XDATA, add(CFA_XSP16, literal(-14)))
          CFI (cfiCond75) V1 load(1, XDATA, add(CFA_XSP16, literal(-13)))
          CFI (cfiCond75) V2 load(1, XDATA, add(CFA_XSP16, literal(-12)))
          CFI (cfiCond75) V3 load(1, XDATA, add(CFA_XSP16, literal(-11)))
          CFI (cfiCond75) V4 load(1, XDATA, add(CFA_XSP16, literal(-10)))
          CFI (cfiCond75) V5 load(1, XDATA, add(CFA_XSP16, literal(-9)))
          CFI (cfiCond75) V6 load(1, XDATA, add(CFA_XSP16, literal(-8)))
          CFI (cfiCond75) V7 load(1, XDATA, add(CFA_XSP16, literal(-7)))
          CFI (cfiCond75) R7 load(1, XDATA, add(CFA_XSP16, literal(-6)))
          CFI (cfiCond75) ?RET_LOW load(1, XDATA, add(CFA_XSP16, literal(-5)))
          CFI (cfiCond75) ?RET_HIGH load(1, XDATA, add(CFA_XSP16, literal(-4)))
          CFI (cfiCond75) ?BRET_EXT load(1, XDATA, add(CFA_XSP16, literal(-3)))
          CFI (cfiCond75) DPL0 load(1, XDATA, add(CFA_XSP16, literal(-2)))
          CFI (cfiCond75) DPH0 load(1, XDATA, add(CFA_XSP16, literal(-1)))
          CFI (cfiCond75) CFA_SP SP+-2
          CFI (cfiCond75) CFA_XSP16 add(XSP16, 35)
          CFI Block cfiCond76 Using cfiCommon0
          CFI (cfiCond76) Function MT_AfDataRequestSrcRtg
          CFI (cfiCond76) Conditional ??CrossCallReturnLabel_60
          CFI (cfiCond76) R6 load(1, XDATA, add(CFA_XSP16, literal(-16)))
          CFI (cfiCond76) VB load(1, XDATA, add(CFA_XSP16, literal(-15)))
          CFI (cfiCond76) V0 load(1, XDATA, add(CFA_XSP16, literal(-14)))
          CFI (cfiCond76) V1 load(1, XDATA, add(CFA_XSP16, literal(-13)))
          CFI (cfiCond76) V2 load(1, XDATA, add(CFA_XSP16, literal(-12)))
          CFI (cfiCond76) V3 load(1, XDATA, add(CFA_XSP16, literal(-11)))
          CFI (cfiCond76) V4 load(1, XDATA, add(CFA_XSP16, literal(-10)))
          CFI (cfiCond76) V5 load(1, XDATA, add(CFA_XSP16, literal(-9)))
          CFI (cfiCond76) V6 load(1, XDATA, add(CFA_XSP16, literal(-8)))
          CFI (cfiCond76) V7 load(1, XDATA, add(CFA_XSP16, literal(-7)))
          CFI (cfiCond76) R7 load(1, XDATA, add(CFA_XSP16, literal(-6)))
          CFI (cfiCond76) ?RET_LOW load(1, XDATA, add(CFA_XSP16, literal(-5)))
          CFI (cfiCond76) ?RET_HIGH load(1, XDATA, add(CFA_XSP16, literal(-4)))
          CFI (cfiCond76) ?BRET_EXT load(1, XDATA, add(CFA_XSP16, literal(-3)))
          CFI (cfiCond76) DPL0 load(1, XDATA, add(CFA_XSP16, literal(-2)))
          CFI (cfiCond76) DPH0 load(1, XDATA, add(CFA_XSP16, literal(-1)))
          CFI (cfiCond76) CFA_SP SP+-2
          CFI (cfiCond76) CFA_XSP16 add(XSP16, 35)
          CFI Block cfiCond77 Using cfiCommon0
          CFI (cfiCond77) Function MT_AfDataRequestSrcRtg
          CFI (cfiCond77) Conditional ??CrossCallReturnLabel_61
          CFI (cfiCond77) R6 load(1, XDATA, add(CFA_XSP16, literal(-16)))
          CFI (cfiCond77) VB load(1, XDATA, add(CFA_XSP16, literal(-15)))
          CFI (cfiCond77) V0 load(1, XDATA, add(CFA_XSP16, literal(-14)))
          CFI (cfiCond77) V1 load(1, XDATA, add(CFA_XSP16, literal(-13)))
          CFI (cfiCond77) V2 load(1, XDATA, add(CFA_XSP16, literal(-12)))
          CFI (cfiCond77) V3 load(1, XDATA, add(CFA_XSP16, literal(-11)))
          CFI (cfiCond77) V4 load(1, XDATA, add(CFA_XSP16, literal(-10)))
          CFI (cfiCond77) V5 load(1, XDATA, add(CFA_XSP16, literal(-9)))
          CFI (cfiCond77) V6 load(1, XDATA, add(CFA_XSP16, literal(-8)))
          CFI (cfiCond77) V7 load(1, XDATA, add(CFA_XSP16, literal(-7)))
          CFI (cfiCond77) R7 load(1, XDATA, add(CFA_XSP16, literal(-6)))
          CFI (cfiCond77) ?RET_LOW load(1, XDATA, add(CFA_XSP16, literal(-5)))
          CFI (cfiCond77) ?RET_HIGH load(1, XDATA, add(CFA_XSP16, literal(-4)))
          CFI (cfiCond77) ?BRET_EXT load(1, XDATA, add(CFA_XSP16, literal(-3)))
          CFI (cfiCond77) DPL0 load(1, XDATA, add(CFA_XSP16, literal(-2)))
          CFI (cfiCond77) DPH0 load(1, XDATA, add(CFA_XSP16, literal(-1)))
          CFI (cfiCond77) CFA_SP SP+-2
          CFI (cfiCond77) CFA_XSP16 add(XSP16, 35)
          CFI Block cfiCond78 Using cfiCommon0
          CFI (cfiCond78) Function MT_AfIncomingMsg
          CFI (cfiCond78) Conditional ??CrossCallReturnLabel_62
          CFI (cfiCond78) R6 load(1, XDATA, add(CFA_XSP16, literal(-16)))
          CFI (cfiCond78) VB load(1, XDATA, add(CFA_XSP16, literal(-15)))
          CFI (cfiCond78) V0 load(1, XDATA, add(CFA_XSP16, literal(-14)))
          CFI (cfiCond78) V1 load(1, XDATA, add(CFA_XSP16, literal(-13)))
          CFI (cfiCond78) V2 load(1, XDATA, add(CFA_XSP16, literal(-12)))
          CFI (cfiCond78) V3 load(1, XDATA, add(CFA_XSP16, literal(-11)))
          CFI (cfiCond78) V4 load(1, XDATA, add(CFA_XSP16, literal(-10)))
          CFI (cfiCond78) V5 load(1, XDATA, add(CFA_XSP16, literal(-9)))
          CFI (cfiCond78) V6 load(1, XDATA, add(CFA_XSP16, literal(-8)))
          CFI (cfiCond78) V7 load(1, XDATA, add(CFA_XSP16, literal(-7)))
          CFI (cfiCond78) R7 load(1, XDATA, add(CFA_XSP16, literal(-6)))
          CFI (cfiCond78) ?RET_LOW load(1, XDATA, add(CFA_XSP16, literal(-5)))
          CFI (cfiCond78) ?RET_HIGH load(1, XDATA, add(CFA_XSP16, literal(-4)))
          CFI (cfiCond78) ?BRET_EXT load(1, XDATA, add(CFA_XSP16, literal(-3)))
          CFI (cfiCond78) DPL0 load(1, XDATA, add(CFA_XSP16, literal(-2)))
          CFI (cfiCond78) DPH0 load(1, XDATA, add(CFA_XSP16, literal(-1)))
          CFI (cfiCond78) CFA_SP SP+-2
          CFI (cfiCond78) CFA_XSP16 add(XSP16, 25)
          CFI Block cfiCond79 Using cfiCommon0
          CFI (cfiCond79) Function MT_AfIncomingMsg
          CFI (cfiCond79) Conditional ??CrossCallReturnLabel_63
          CFI (cfiCond79) R6 load(1, XDATA, add(CFA_XSP16, literal(-16)))
          CFI (cfiCond79) VB load(1, XDATA, add(CFA_XSP16, literal(-15)))
          CFI (cfiCond79) V0 load(1, XDATA, add(CFA_XSP16, literal(-14)))
          CFI (cfiCond79) V1 load(1, XDATA, add(CFA_XSP16, literal(-13)))
          CFI (cfiCond79) V2 load(1, XDATA, add(CFA_XSP16, literal(-12)))
          CFI (cfiCond79) V3 load(1, XDATA, add(CFA_XSP16, literal(-11)))
          CFI (cfiCond79) V4 load(1, XDATA, add(CFA_XSP16, literal(-10)))
          CFI (cfiCond79) V5 load(1, XDATA, add(CFA_XSP16, literal(-9)))
          CFI (cfiCond79) V6 load(1, XDATA, add(CFA_XSP16, literal(-8)))
          CFI (cfiCond79) V7 load(1, XDATA, add(CFA_XSP16, literal(-7)))
          CFI (cfiCond79) R7 load(1, XDATA, add(CFA_XSP16, literal(-6)))
          CFI (cfiCond79) ?RET_LOW load(1, XDATA, add(CFA_XSP16, literal(-5)))
          CFI (cfiCond79) ?RET_HIGH load(1, XDATA, add(CFA_XSP16, literal(-4)))
          CFI (cfiCond79) ?BRET_EXT load(1, XDATA, add(CFA_XSP16, literal(-3)))
          CFI (cfiCond79) DPL0 load(1, XDATA, add(CFA_XSP16, literal(-2)))
          CFI (cfiCond79) DPH0 load(1, XDATA, add(CFA_XSP16, literal(-1)))
          CFI (cfiCond79) CFA_SP SP+-2
          CFI (cfiCond79) CFA_XSP16 add(XSP16, 25)
          CFI Block cfiCond80 Using cfiCommon0
          CFI (cfiCond80) Function MT_AfIncomingMsg
          CFI (cfiCond80) Conditional ??CrossCallReturnLabel_64
          CFI (cfiCond80) R6 load(1, XDATA, add(CFA_XSP16, literal(-16)))
          CFI (cfiCond80) VB load(1, XDATA, add(CFA_XSP16, literal(-15)))
          CFI (cfiCond80) V0 load(1, XDATA, add(CFA_XSP16, literal(-14)))
          CFI (cfiCond80) V1 load(1, XDATA, add(CFA_XSP16, literal(-13)))
          CFI (cfiCond80) V2 load(1, XDATA, add(CFA_XSP16, literal(-12)))
          CFI (cfiCond80) V3 load(1, XDATA, add(CFA_XSP16, literal(-11)))
          CFI (cfiCond80) V4 load(1, XDATA, add(CFA_XSP16, literal(-10)))
          CFI (cfiCond80) V5 load(1, XDATA, add(CFA_XSP16, literal(-9)))
          CFI (cfiCond80) V6 load(1, XDATA, add(CFA_XSP16, literal(-8)))
          CFI (cfiCond80) V7 load(1, XDATA, add(CFA_XSP16, literal(-7)))
          CFI (cfiCond80) R7 load(1, XDATA, add(CFA_XSP16, literal(-6)))
          CFI (cfiCond80) ?RET_LOW load(1, XDATA, add(CFA_XSP16, literal(-5)))
          CFI (cfiCond80) ?RET_HIGH load(1, XDATA, add(CFA_XSP16, literal(-4)))
          CFI (cfiCond80) ?BRET_EXT load(1, XDATA, add(CFA_XSP16, literal(-3)))
          CFI (cfiCond80) DPL0 load(1, XDATA, add(CFA_XSP16, literal(-2)))
          CFI (cfiCond80) DPH0 load(1, XDATA, add(CFA_XSP16, literal(-1)))
          CFI (cfiCond80) CFA_SP SP+-2
          CFI (cfiCond80) CFA_XSP16 add(XSP16, 25)
          CFI Block cfiCond81 Using cfiCommon0
          CFI (cfiCond81) Function MT_AfIncomingMsg
          CFI (cfiCond81) Conditional ??CrossCallReturnLabel_65
          CFI (cfiCond81) R6 load(1, XDATA, add(CFA_XSP16, literal(-16)))
          CFI (cfiCond81) VB load(1, XDATA, add(CFA_XSP16, literal(-15)))
          CFI (cfiCond81) V0 load(1, XDATA, add(CFA_XSP16, literal(-14)))
          CFI (cfiCond81) V1 load(1, XDATA, add(CFA_XSP16, literal(-13)))
          CFI (cfiCond81) V2 load(1, XDATA, add(CFA_XSP16, literal(-12)))
          CFI (cfiCond81) V3 load(1, XDATA, add(CFA_XSP16, literal(-11)))
          CFI (cfiCond81) V4 load(1, XDATA, add(CFA_XSP16, literal(-10)))
          CFI (cfiCond81) V5 load(1, XDATA, add(CFA_XSP16, literal(-9)))
          CFI (cfiCond81) V6 load(1, XDATA, add(CFA_XSP16, literal(-8)))
          CFI (cfiCond81) V7 load(1, XDATA, add(CFA_XSP16, literal(-7)))
          CFI (cfiCond81) R7 load(1, XDATA, add(CFA_XSP16, literal(-6)))
          CFI (cfiCond81) ?RET_LOW load(1, XDATA, add(CFA_XSP16, literal(-5)))
          CFI (cfiCond81) ?RET_HIGH load(1, XDATA, add(CFA_XSP16, literal(-4)))
          CFI (cfiCond81) ?BRET_EXT load(1, XDATA, add(CFA_XSP16, literal(-3)))
          CFI (cfiCond81) DPL0 load(1, XDATA, add(CFA_XSP16, literal(-2)))
          CFI (cfiCond81) DPH0 load(1, XDATA, add(CFA_XSP16, literal(-1)))
          CFI (cfiCond81) CFA_SP SP+-2
          CFI (cfiCond81) CFA_XSP16 add(XSP16, 25)
          CFI Block cfiPicker82 Using cfiCommon1
          CFI (cfiPicker82) NoFunction
          CFI (cfiPicker82) Picker
        MOV       A,R2
        MOVX      @DPTR,A
        INC       DPTR
        MOV       A,R3
        MOVX      @DPTR,A
        RET
          CFI EndBlock cfiCond69
          CFI EndBlock cfiCond70
          CFI EndBlock cfiCond71
          CFI EndBlock cfiCond72
          CFI EndBlock cfiCond73
          CFI EndBlock cfiCond74
          CFI EndBlock cfiCond75
          CFI EndBlock cfiCond76
          CFI EndBlock cfiCond77
          CFI EndBlock cfiCond78
          CFI EndBlock cfiCond79
          CFI EndBlock cfiCond80
          CFI EndBlock cfiCond81
          CFI EndBlock cfiPicker82
//  548 #endif
//  549 
//  550 #if defined INTER_PAN
//  551 /***************************************************************************************************
//  552  * @fn      MT_AfInterPanCtl
//  553  *
//  554  * @brief   Process the AF Inter Pan control command.
//  555  *
//  556  * @param   pBuf - pointer to the received buffer
//  557  *
//  558  * @return  none
//  559  ***************************************************************************************************/
//  560 static void MT_AfInterPanCtl(uint8 *pBuf)
//  561 {
//  562   uint8 cmd, rtrn;
//  563   uint16 panId;
//  564   endPointDesc_t *pEP;
//  565 
//  566   cmd = pBuf[MT_RPC_POS_CMD1];
//  567   pBuf += MT_RPC_FRAME_HDR_SZ;
//  568 
//  569   switch (*pBuf++)  // Inter-pan request parameter.
//  570   {
//  571   case InterPanClr:
//  572     rtrn = StubAPS_SetIntraPanChannel();           // Switch channel back to the NIB channel.
//  573     break;
//  574 
//  575   case InterPanSet:
//  576     rtrn = StubAPS_SetInterPanChannel(*pBuf);      // Set channel for inter-pan communication.
//  577     break;
//  578 
//  579   case InterPanReg:
//  580     if ((pEP = afFindEndPointDesc(*pBuf)))
//  581     {
//  582       StubAPS_RegisterApp(pEP);
//  583       rtrn = SUCCESS;
//  584     }
//  585     else
//  586     {
//  587       rtrn = FAILURE;
//  588     }
//  589     break;
//  590 
//  591   case InterPanChk:
//  592     panId = osal_build_uint16( pBuf );
//  593     rtrn = (StubAPS_InterPan(panId, pBuf[2])) ? ZSuccess : ZFailure;
//  594     break;
//  595 
//  596   default:
//  597     rtrn = afStatus_INVALID_PARAMETER;
//  598     break;
//  599   }
//  600 
//  601   MT_BuildAndSendZToolResponse(((uint8)MT_RPC_CMD_SRSP | (uint8)MT_RPC_SYS_AF), cmd, 1, &rtrn);
//  602 }
//  603 #endif
//  604 
//  605 /***************************************************************************************************
//  606  * @fn      MT_AfDataConfirm
//  607  *
//  608  * @brief   Process
//  609  *
//  610  * @param   pBuf - pointer to the received buffer
//  611  *
//  612  * @return  none
//  613  ***************************************************************************************************/

        RSEG BANKED_CODE:HUGECODE:NOROOT(0)
//  614 void MT_AfDataConfirm(afDataConfirm_t *pMsg)
MT_AfDataConfirm:
          CFI Block cfiBlock83 Using cfiCommon0
          CFI Function MT_AfDataConfirm
        CODE
//  615 {
        FUNCALL MT_AfDataConfirm, MT_BuildAndSendZToolResponse
        LOCFRAME ISTACK, 2, STACK
        LOCFRAME PSTACK, 0, STACK
        LOCFRAME XSTACK, 3, STACK
        LOCFRAME IOVERLAY, 0, STATIC
        LOCFRAME DOVERLAY, 0, STATIC
        ARGFRAME ISTACK, 2, STACK
        ARGFRAME PSTACK, 0, STACK
        ARGFRAME XSTACK, 3, STACK
        ARGFRAME IOVERLAY, 0, STATIC
        ARGFRAME DOVERLAY, 0, STATIC
        PUSH      DPL
          CFI DPL0 Frame(CFA_SP, 4)
          CFI CFA_SP SP+-4
        PUSH      DPH
          CFI DPH0 Frame(CFA_SP, 5)
          CFI CFA_SP SP+-5
        ; Saved register size: 2
        ; Auto size: 3
        MOV       A,#-0x3
        LCALL     ?ALLOC_XSTACK8
          CFI CFA_XSP16 add(XSP16, 3)
//  616   uint8 retArray[3];
//  617 
//  618   retArray[0] = pMsg->hdr.status;
        LCALL     ?Subroutine10 & 0xFFFF
//  619   retArray[1] = pMsg->endpoint;
??CrossCallReturnLabel_16:
        PUSH      A
          CFI CFA_SP SP+-6
        MOV       A,#0x1
        LCALL     ?XSTACK_DISP0_8
        POP       A
          CFI CFA_SP SP+-5
        LCALL     ?Subroutine36 & 0xFFFF
//  620   retArray[2] = pMsg->transID;
??CrossCallReturnLabel_74:
        PUSH      A
          CFI CFA_SP SP+-6
        MOV       A,#0x2
        LCALL     ?XSTACK_DISP0_8
        POP       A
          CFI CFA_SP SP+-5
        MOVX      @DPTR,A
//  621 
//  622   /* Build and send back the response */
//  623   MT_BuildAndSendZToolResponse(((uint8)MT_RPC_CMD_AREQ | (uint8)MT_RPC_SYS_AF), MT_AF_DATA_CONFIRM, 3, retArray);
        ; Setup parameters for call to function MT_BuildAndSendZToolResponse
        MOV       R4,?XSP + 0
        MOV       R5,?XSP + 1
        MOV       R3,#0x3
        MOV       R2,#-0x80
        MOV       R1,#0x44
        LCALL     `??MT_BuildAndSendZToolResponse::?relay`; Banked call to: MT_BuildAndSendZToolResponse
//  624 }
        MOV       A,#0x3
          CFI EndBlock cfiBlock83
        REQUIRE ?Subroutine2
        ; // Fall through to label ?Subroutine2

        RSEG BANKED_CODE:HUGECODE:NOROOT(0)
?Subroutine2:
          CFI Block cfiBlock84 Using cfiCommon0
          CFI NoFunction
          CFI CFA_SP SP+-5
          CFI CFA_XSP16 add(XSP16, 3)
          CFI DPL0 Frame(CFA_SP, 4)
          CFI DPH0 Frame(CFA_SP, 5)
          CFI Invalid
        LCALL     ?DEALLOC_XSTACK8
          CFI CFA_XSP16 XSP16+0
          CFI Valid
        POP       DPH
          CFI CFA_SP SP+-4
          CFI DPH0 SameValue
        POP       DPL
          CFI CFA_SP SP+-3
          CFI DPL0 SameValue
        LJMP      ?BRET
          CFI EndBlock cfiBlock84
//  625 
//  626 /***************************************************************************************************
//  627  * @fn      MT_AfReflectError
//  628  *
//  629  * @brief   Process
//  630  *
//  631  * @param   pBuf - pointer to the received buffer
//  632  *
//  633  * @return  none
//  634  ***************************************************************************************************/

        RSEG BANKED_CODE:HUGECODE:NOROOT(0)
//  635 void MT_AfReflectError(afReflectError_t *pMsg)
MT_AfReflectError:
          CFI Block cfiBlock85 Using cfiCommon0
          CFI Function MT_AfReflectError
        CODE
//  636 {
        FUNCALL MT_AfReflectError, MT_BuildAndSendZToolResponse
        LOCFRAME ISTACK, 2, STACK
        LOCFRAME PSTACK, 0, STACK
        LOCFRAME XSTACK, 6, STACK
        LOCFRAME IOVERLAY, 0, STATIC
        LOCFRAME DOVERLAY, 0, STATIC
        ARGFRAME ISTACK, 2, STACK
        ARGFRAME PSTACK, 0, STACK
        ARGFRAME XSTACK, 6, STACK
        ARGFRAME IOVERLAY, 0, STATIC
        ARGFRAME DOVERLAY, 0, STATIC
        PUSH      DPL
          CFI DPL0 Frame(CFA_SP, 4)
          CFI CFA_SP SP+-4
        PUSH      DPH
          CFI DPH0 Frame(CFA_SP, 5)
          CFI CFA_SP SP+-5
        ; Saved register size: 2
        ; Auto size: 6
        MOV       A,#-0x6
        LCALL     ?ALLOC_XSTACK8
          CFI CFA_XSP16 add(XSP16, 6)
//  637   uint8 retArray[6];
//  638 
//  639   retArray[0] = pMsg->hdr.status;
        LCALL     ?Subroutine10 & 0xFFFF
//  640   retArray[1] = pMsg->endpoint;
??CrossCallReturnLabel_17:
        PUSH      A
          CFI CFA_SP SP+-6
        MOV       A,#0x1
        LCALL     ?XSTACK_DISP0_8
        POP       A
          CFI CFA_SP SP+-5
        LCALL     ?Subroutine36 & 0xFFFF
//  641   retArray[2] = pMsg->transID;
??CrossCallReturnLabel_75:
        PUSH      A
          CFI CFA_SP SP+-6
        MOV       A,#0x2
        LCALL     ?XSTACK_DISP0_8
        POP       A
          CFI CFA_SP SP+-5
        LCALL     ?Subroutine35 & 0xFFFF
//  642   retArray[3] = pMsg->dstAddrMode;
??CrossCallReturnLabel_73:
        MOVX      A,@DPTR
        PUSH      A
          CFI CFA_SP SP+-6
        MOV       A,#0x3
        LCALL     ?XSTACK_DISP0_8
        POP       A
          CFI CFA_SP SP+-5
        MOVX      @DPTR,A
//  643   retArray[4] = LO_UINT16( pMsg->dstAddr );
        MOV       A,R2
        ADD       A,#0x5
        MOV       R0,A
        CLR       A
        ADDC      A,R3
        MOV       R1,A
        MOV       DPL,R0
        MOV       DPH,R1
        MOVX      A,@DPTR
        PUSH      A
          CFI CFA_SP SP+-6
        MOV       A,#0x4
        LCALL     ?XSTACK_DISP0_8
        POP       A
          CFI CFA_SP SP+-5
        LCALL     ??Subroutine56_0 & 0xFFFF
//  644   retArray[5] = HI_UINT16( pMsg->dstAddr );
??CrossCallReturnLabel_111:
        INC       DPTR
        MOVX      A,@DPTR
        PUSH      A
          CFI CFA_SP SP+-6
        MOV       A,#0x5
        LCALL     ?XSTACK_DISP0_8
        POP       A
          CFI CFA_SP SP+-5
        MOVX      @DPTR,A
//  645 
//  646   /* Build and send back the response */
//  647   MT_BuildAndSendZToolResponse(((uint8)MT_RPC_CMD_AREQ | (uint8)MT_RPC_SYS_AF), MT_AF_REFLECT_ERROR, 6, retArray);
        ; Setup parameters for call to function MT_BuildAndSendZToolResponse
        MOV       R4,?XSP + 0
        MOV       R5,?XSP + 1
        MOV       R3,#0x6
        MOV       R2,#-0x7d
        MOV       R1,#0x44
        LCALL     `??MT_BuildAndSendZToolResponse::?relay`; Banked call to: MT_BuildAndSendZToolResponse
//  648 }
        MOV       A,#0x6
        SJMP      ?Subroutine2
          CFI EndBlock cfiBlock85

        RSEG BANKED_CODE:HUGECODE:NOROOT(0)
?Subroutine36:
          CFI Block cfiCond86 Using cfiCommon0
          CFI Function MT_AfDataConfirm
          CFI Conditional ??CrossCallReturnLabel_74
          CFI DPL0 Frame(CFA_SP, 4)
          CFI DPH0 Frame(CFA_SP, 5)
          CFI CFA_SP SP+-7
          CFI CFA_XSP16 add(XSP16, 3)
          CFI Block cfiCond87 Using cfiCommon0
          CFI (cfiCond87) Function MT_AfReflectError
          CFI (cfiCond87) Conditional ??CrossCallReturnLabel_75
          CFI (cfiCond87) DPL0 Frame(CFA_SP, 4)
          CFI (cfiCond87) DPH0 Frame(CFA_SP, 5)
          CFI (cfiCond87) CFA_SP SP+-7
          CFI (cfiCond87) CFA_XSP16 add(XSP16, 6)
          CFI Block cfiPicker88 Using cfiCommon1
          CFI (cfiPicker88) NoFunction
          CFI (cfiPicker88) Picker
        LCALL     ?Subroutine49 & 0xFFFF
??CrossCallReturnLabel_95:
        MOVX      A,@DPTR
        RET
          CFI EndBlock cfiCond86
          CFI EndBlock cfiCond87
          CFI EndBlock cfiPicker88

        RSEG BANKED_CODE:HUGECODE:NOROOT(0)
?Subroutine35:
          CFI Block cfiCond89 Using cfiCommon0
          CFI Function MT_AfCommandProcessing
          CFI Conditional ??CrossCallReturnLabel_72
          CFI R6 load(1, XDATA, add(CFA_XSP16, literal(-14)))
          CFI VB load(1, XDATA, add(CFA_XSP16, literal(-13)))
          CFI V0 load(1, XDATA, add(CFA_XSP16, literal(-12)))
          CFI V1 load(1, XDATA, add(CFA_XSP16, literal(-11)))
          CFI V2 load(1, XDATA, add(CFA_XSP16, literal(-10)))
          CFI V3 load(1, XDATA, add(CFA_XSP16, literal(-9)))
          CFI V4 load(1, XDATA, add(CFA_XSP16, literal(-8)))
          CFI V5 load(1, XDATA, add(CFA_XSP16, literal(-7)))
          CFI R7 load(1, XDATA, add(CFA_XSP16, literal(-6)))
          CFI ?RET_LOW load(1, XDATA, add(CFA_XSP16, literal(-5)))
          CFI ?RET_HIGH load(1, XDATA, add(CFA_XSP16, literal(-4)))
          CFI ?BRET_EXT load(1, XDATA, add(CFA_XSP16, literal(-3)))
          CFI DPL0 load(1, XDATA, add(CFA_XSP16, literal(-2)))
          CFI DPH0 load(1, XDATA, add(CFA_XSP16, literal(-1)))
          CFI CFA_SP SP+-2
          CFI CFA_XSP16 add(XSP16, 19)
          CFI Block cfiCond90 Using cfiCommon0
          CFI (cfiCond90) Function MT_AfReflectError
          CFI (cfiCond90) Conditional ??CrossCallReturnLabel_73
          CFI (cfiCond90) DPL0 Frame(CFA_SP, 4)
          CFI (cfiCond90) DPH0 Frame(CFA_SP, 5)
          CFI (cfiCond90) CFA_SP SP+-7
          CFI (cfiCond90) CFA_XSP16 add(XSP16, 6)
          CFI Block cfiPicker91 Using cfiCommon1
          CFI (cfiPicker91) NoFunction
          CFI (cfiPicker91) Picker
        LCALL     ?Subroutine49 & 0xFFFF
??CrossCallReturnLabel_96:
        INC       DPTR
        RET
          CFI EndBlock cfiCond89
          CFI EndBlock cfiCond90
          CFI EndBlock cfiPicker91

        RSEG BANKED_CODE:HUGECODE:NOROOT(0)
?Subroutine49:
          CFI Block cfiCond92 Using cfiCommon0
          CFI Function MT_AfDataConfirm
          CFI Conditional ??CrossCallReturnLabel_95, ??CrossCallReturnLabel_74
          CFI DPL0 Frame(CFA_SP, 4)
          CFI DPH0 Frame(CFA_SP, 5)
          CFI CFA_SP SP+-9
          CFI CFA_XSP16 add(XSP16, 3)
          CFI Block cfiCond93 Using cfiCommon0
          CFI (cfiCond93) Function MT_AfReflectError
          CFI (cfiCond93) Conditional ??CrossCallReturnLabel_95, ??CrossCallReturnLabel_75
          CFI (cfiCond93) DPL0 Frame(CFA_SP, 4)
          CFI (cfiCond93) DPH0 Frame(CFA_SP, 5)
          CFI (cfiCond93) CFA_SP SP+-9
          CFI (cfiCond93) CFA_XSP16 add(XSP16, 6)
          CFI Block cfiCond94 Using cfiCommon0
          CFI (cfiCond94) Function MT_AfCommandProcessing
          CFI (cfiCond94) Conditional ??CrossCallReturnLabel_96, ??CrossCallReturnLabel_72
          CFI (cfiCond94) R6 load(1, XDATA, add(CFA_XSP16, literal(-14)))
          CFI (cfiCond94) VB load(1, XDATA, add(CFA_XSP16, literal(-13)))
          CFI (cfiCond94) V0 load(1, XDATA, add(CFA_XSP16, literal(-12)))
          CFI (cfiCond94) V1 load(1, XDATA, add(CFA_XSP16, literal(-11)))
          CFI (cfiCond94) V2 load(1, XDATA, add(CFA_XSP16, literal(-10)))
          CFI (cfiCond94) V3 load(1, XDATA, add(CFA_XSP16, literal(-9)))
          CFI (cfiCond94) V4 load(1, XDATA, add(CFA_XSP16, literal(-8)))
          CFI (cfiCond94) V5 load(1, XDATA, add(CFA_XSP16, literal(-7)))
          CFI (cfiCond94) R7 load(1, XDATA, add(CFA_XSP16, literal(-6)))
          CFI (cfiCond94) ?RET_LOW load(1, XDATA, add(CFA_XSP16, literal(-5)))
          CFI (cfiCond94) ?RET_HIGH load(1, XDATA, add(CFA_XSP16, literal(-4)))
          CFI (cfiCond94) ?BRET_EXT load(1, XDATA, add(CFA_XSP16, literal(-3)))
          CFI (cfiCond94) DPL0 load(1, XDATA, add(CFA_XSP16, literal(-2)))
          CFI (cfiCond94) DPH0 load(1, XDATA, add(CFA_XSP16, literal(-1)))
          CFI (cfiCond94) CFA_SP SP+-4
          CFI (cfiCond94) CFA_XSP16 add(XSP16, 19)
          CFI Block cfiCond95 Using cfiCommon0
          CFI (cfiCond95) Function MT_AfReflectError
          CFI (cfiCond95) Conditional ??CrossCallReturnLabel_96, ??CrossCallReturnLabel_73
          CFI (cfiCond95) DPL0 Frame(CFA_SP, 4)
          CFI (cfiCond95) DPH0 Frame(CFA_SP, 5)
          CFI (cfiCond95) CFA_SP SP+-9
          CFI (cfiCond95) CFA_XSP16 add(XSP16, 6)
          CFI Block cfiPicker96 Using cfiCommon1
          CFI (cfiPicker96) NoFunction
          CFI (cfiPicker96) Picker
        LCALL     ?Subroutine53 & 0xFFFF
??CrossCallReturnLabel_103:
        INC       DPTR
        INC       DPTR
        RET
          CFI EndBlock cfiCond92
          CFI EndBlock cfiCond93
          CFI EndBlock cfiCond94
          CFI EndBlock cfiCond95
          CFI EndBlock cfiPicker96

        RSEG BANKED_CODE:HUGECODE:NOROOT(0)
?Subroutine10:
          CFI Block cfiCond97 Using cfiCommon0
          CFI Function MT_AfDataConfirm
          CFI Conditional ??CrossCallReturnLabel_16
          CFI DPL0 Frame(CFA_SP, 4)
          CFI DPH0 Frame(CFA_SP, 5)
          CFI CFA_SP SP+-7
          CFI CFA_XSP16 add(XSP16, 3)
          CFI Block cfiCond98 Using cfiCommon0
          CFI (cfiCond98) Function MT_AfReflectError
          CFI (cfiCond98) Conditional ??CrossCallReturnLabel_17
          CFI (cfiCond98) DPL0 Frame(CFA_SP, 4)
          CFI (cfiCond98) DPH0 Frame(CFA_SP, 5)
          CFI (cfiCond98) CFA_SP SP+-7
          CFI (cfiCond98) CFA_XSP16 add(XSP16, 6)
          CFI Block cfiPicker99 Using cfiCommon1
          CFI (cfiPicker99) NoFunction
          CFI (cfiPicker99) Picker
        MOV       DPL,R2
        MOV       DPH,R3
        INC       DPTR
        MOVX      A,@DPTR
        MOV       DPL,?XSP + 0
        MOV       DPH,?XSP + 1
        LCALL     ?Subroutine46 & 0xFFFF
??CrossCallReturnLabel_90:
        RET
          CFI EndBlock cfiCond97
          CFI EndBlock cfiCond98
          CFI EndBlock cfiPicker99

        RSEG BANKED_CODE:HUGECODE:NOROOT(0)
?Subroutine46:
          CFI Block cfiCond100 Using cfiCommon0
          CFI Function MT_AfDataRequest
          CFI Conditional ??CrossCallReturnLabel_89
          CFI R6 load(1, XDATA, add(CFA_XSP16, literal(-16)))
          CFI VB load(1, XDATA, add(CFA_XSP16, literal(-15)))
          CFI V0 load(1, XDATA, add(CFA_XSP16, literal(-14)))
          CFI V1 load(1, XDATA, add(CFA_XSP16, literal(-13)))
          CFI V2 load(1, XDATA, add(CFA_XSP16, literal(-12)))
          CFI V3 load(1, XDATA, add(CFA_XSP16, literal(-11)))
          CFI V4 load(1, XDATA, add(CFA_XSP16, literal(-10)))
          CFI V5 load(1, XDATA, add(CFA_XSP16, literal(-9)))
          CFI V6 load(1, XDATA, add(CFA_XSP16, literal(-8)))
          CFI V7 load(1, XDATA, add(CFA_XSP16, literal(-7)))
          CFI R7 load(1, XDATA, add(CFA_XSP16, literal(-6)))
          CFI ?RET_LOW load(1, XDATA, add(CFA_XSP16, literal(-5)))
          CFI ?RET_HIGH load(1, XDATA, add(CFA_XSP16, literal(-4)))
          CFI ?BRET_EXT load(1, XDATA, add(CFA_XSP16, literal(-3)))
          CFI DPL0 load(1, XDATA, add(CFA_XSP16, literal(-2)))
          CFI DPH0 load(1, XDATA, add(CFA_XSP16, literal(-1)))
          CFI CFA_SP SP+-2
          CFI CFA_XSP16 add(XSP16, 34)
          CFI Block cfiCond101 Using cfiCommon0
          CFI (cfiCond101) Function MT_AfDataConfirm
          CFI (cfiCond101) Conditional ??CrossCallReturnLabel_90, ??CrossCallReturnLabel_16
          CFI (cfiCond101) DPL0 Frame(CFA_SP, 4)
          CFI (cfiCond101) DPH0 Frame(CFA_SP, 5)
          CFI (cfiCond101) CFA_SP SP+-9
          CFI (cfiCond101) CFA_XSP16 add(XSP16, 3)
          CFI Block cfiCond102 Using cfiCommon0
          CFI (cfiCond102) Function MT_AfReflectError
          CFI (cfiCond102) Conditional ??CrossCallReturnLabel_90, ??CrossCallReturnLabel_17
          CFI (cfiCond102) DPL0 Frame(CFA_SP, 4)
          CFI (cfiCond102) DPH0 Frame(CFA_SP, 5)
          CFI (cfiCond102) CFA_SP SP+-9
          CFI (cfiCond102) CFA_XSP16 add(XSP16, 6)
          CFI Block cfiPicker103 Using cfiCommon1
          CFI (cfiPicker103) NoFunction
          CFI (cfiPicker103) Picker
        LCALL     ?Subroutine53 & 0xFFFF
??CrossCallReturnLabel_104:
        INC       DPTR
        MOVX      A,@DPTR
        RET
          CFI EndBlock cfiCond100
          CFI EndBlock cfiCond101
          CFI EndBlock cfiCond102
          CFI EndBlock cfiPicker103

        RSEG BANKED_CODE:HUGECODE:NOROOT(0)
?Subroutine53:
          CFI Block cfiCond104 Using cfiCommon0
          CFI Function MT_AfDataConfirm
          CFI Conditional ??CrossCallReturnLabel_103, ??CrossCallReturnLabel_95, ??CrossCallReturnLabel_74
          CFI DPL0 Frame(CFA_SP, 4)
          CFI DPH0 Frame(CFA_SP, 5)
          CFI CFA_SP SP+-11
          CFI CFA_XSP16 add(XSP16, 3)
          CFI Block cfiCond105 Using cfiCommon0
          CFI (cfiCond105) Function MT_AfReflectError
          CFI (cfiCond105) Conditional ??CrossCallReturnLabel_103, ??CrossCallReturnLabel_95, ??CrossCallReturnLabel_75
          CFI (cfiCond105) DPL0 Frame(CFA_SP, 4)
          CFI (cfiCond105) DPH0 Frame(CFA_SP, 5)
          CFI (cfiCond105) CFA_SP SP+-11
          CFI (cfiCond105) CFA_XSP16 add(XSP16, 6)
          CFI Block cfiCond106 Using cfiCommon0
          CFI (cfiCond106) Function MT_AfCommandProcessing
          CFI (cfiCond106) Conditional ??CrossCallReturnLabel_103, ??CrossCallReturnLabel_96, ??CrossCallReturnLabel_72
          CFI (cfiCond106) R6 load(1, XDATA, add(CFA_XSP16, literal(-14)))
          CFI (cfiCond106) VB load(1, XDATA, add(CFA_XSP16, literal(-13)))
          CFI (cfiCond106) V0 load(1, XDATA, add(CFA_XSP16, literal(-12)))
          CFI (cfiCond106) V1 load(1, XDATA, add(CFA_XSP16, literal(-11)))
          CFI (cfiCond106) V2 load(1, XDATA, add(CFA_XSP16, literal(-10)))
          CFI (cfiCond106) V3 load(1, XDATA, add(CFA_XSP16, literal(-9)))
          CFI (cfiCond106) V4 load(1, XDATA, add(CFA_XSP16, literal(-8)))
          CFI (cfiCond106) V5 load(1, XDATA, add(CFA_XSP16, literal(-7)))
          CFI (cfiCond106) R7 load(1, XDATA, add(CFA_XSP16, literal(-6)))
          CFI (cfiCond106) ?RET_LOW load(1, XDATA, add(CFA_XSP16, literal(-5)))
          CFI (cfiCond106) ?RET_HIGH load(1, XDATA, add(CFA_XSP16, literal(-4)))
          CFI (cfiCond106) ?BRET_EXT load(1, XDATA, add(CFA_XSP16, literal(-3)))
          CFI (cfiCond106) DPL0 load(1, XDATA, add(CFA_XSP16, literal(-2)))
          CFI (cfiCond106) DPH0 load(1, XDATA, add(CFA_XSP16, literal(-1)))
          CFI (cfiCond106) CFA_SP SP+-6
          CFI (cfiCond106) CFA_XSP16 add(XSP16, 19)
          CFI Block cfiCond107 Using cfiCommon0
          CFI (cfiCond107) Function MT_AfReflectError
          CFI (cfiCond107) Conditional ??CrossCallReturnLabel_103, ??CrossCallReturnLabel_96, ??CrossCallReturnLabel_73
          CFI (cfiCond107) DPL0 Frame(CFA_SP, 4)
          CFI (cfiCond107) DPH0 Frame(CFA_SP, 5)
          CFI (cfiCond107) CFA_SP SP+-11
          CFI (cfiCond107) CFA_XSP16 add(XSP16, 6)
          CFI Block cfiCond108 Using cfiCommon0
          CFI (cfiCond108) Function MT_AfDataRequest
          CFI (cfiCond108) Conditional ??CrossCallReturnLabel_104, ??CrossCallReturnLabel_89
          CFI (cfiCond108) R6 load(1, XDATA, add(CFA_XSP16, literal(-16)))
          CFI (cfiCond108) VB load(1, XDATA, add(CFA_XSP16, literal(-15)))
          CFI (cfiCond108) V0 load(1, XDATA, add(CFA_XSP16, literal(-14)))
          CFI (cfiCond108) V1 load(1, XDATA, add(CFA_XSP16, literal(-13)))
          CFI (cfiCond108) V2 load(1, XDATA, add(CFA_XSP16, literal(-12)))
          CFI (cfiCond108) V3 load(1, XDATA, add(CFA_XSP16, literal(-11)))
          CFI (cfiCond108) V4 load(1, XDATA, add(CFA_XSP16, literal(-10)))
          CFI (cfiCond108) V5 load(1, XDATA, add(CFA_XSP16, literal(-9)))
          CFI (cfiCond108) V6 load(1, XDATA, add(CFA_XSP16, literal(-8)))
          CFI (cfiCond108) V7 load(1, XDATA, add(CFA_XSP16, literal(-7)))
          CFI (cfiCond108) R7 load(1, XDATA, add(CFA_XSP16, literal(-6)))
          CFI (cfiCond108) ?RET_LOW load(1, XDATA, add(CFA_XSP16, literal(-5)))
          CFI (cfiCond108) ?RET_HIGH load(1, XDATA, add(CFA_XSP16, literal(-4)))
          CFI (cfiCond108) ?BRET_EXT load(1, XDATA, add(CFA_XSP16, literal(-3)))
          CFI (cfiCond108) DPL0 load(1, XDATA, add(CFA_XSP16, literal(-2)))
          CFI (cfiCond108) DPH0 load(1, XDATA, add(CFA_XSP16, literal(-1)))
          CFI (cfiCond108) CFA_SP SP+-4
          CFI (cfiCond108) CFA_XSP16 add(XSP16, 34)
          CFI Block cfiCond109 Using cfiCommon0
          CFI (cfiCond109) Function MT_AfDataConfirm
          CFI (cfiCond109) Conditional ??CrossCallReturnLabel_104, ??CrossCallReturnLabel_90, ??CrossCallReturnLabel_16
          CFI (cfiCond109) DPL0 Frame(CFA_SP, 4)
          CFI (cfiCond109) DPH0 Frame(CFA_SP, 5)
          CFI (cfiCond109) CFA_SP SP+-11
          CFI (cfiCond109) CFA_XSP16 add(XSP16, 3)
          CFI Block cfiCond110 Using cfiCommon0
          CFI (cfiCond110) Function MT_AfReflectError
          CFI (cfiCond110) Conditional ??CrossCallReturnLabel_104, ??CrossCallReturnLabel_90, ??CrossCallReturnLabel_17
          CFI (cfiCond110) DPL0 Frame(CFA_SP, 4)
          CFI (cfiCond110) DPH0 Frame(CFA_SP, 5)
          CFI (cfiCond110) CFA_SP SP+-11
          CFI (cfiCond110) CFA_XSP16 add(XSP16, 6)
          CFI Block cfiCond111 Using cfiCommon0
          CFI (cfiCond111) Function MT_AfDataRequest
          CFI (cfiCond111) Conditional ??CrossCallReturnLabel_105, ??CrossCallReturnLabel_69
          CFI (cfiCond111) R6 load(1, XDATA, add(CFA_XSP16, literal(-16)))
          CFI (cfiCond111) VB load(1, XDATA, add(CFA_XSP16, literal(-15)))
          CFI (cfiCond111) V0 load(1, XDATA, add(CFA_XSP16, literal(-14)))
          CFI (cfiCond111) V1 load(1, XDATA, add(CFA_XSP16, literal(-13)))
          CFI (cfiCond111) V2 load(1, XDATA, add(CFA_XSP16, literal(-12)))
          CFI (cfiCond111) V3 load(1, XDATA, add(CFA_XSP16, literal(-11)))
          CFI (cfiCond111) V4 load(1, XDATA, add(CFA_XSP16, literal(-10)))
          CFI (cfiCond111) V5 load(1, XDATA, add(CFA_XSP16, literal(-9)))
          CFI (cfiCond111) V6 load(1, XDATA, add(CFA_XSP16, literal(-8)))
          CFI (cfiCond111) V7 load(1, XDATA, add(CFA_XSP16, literal(-7)))
          CFI (cfiCond111) R7 load(1, XDATA, add(CFA_XSP16, literal(-6)))
          CFI (cfiCond111) ?RET_LOW load(1, XDATA, add(CFA_XSP16, literal(-5)))
          CFI (cfiCond111) ?RET_HIGH load(1, XDATA, add(CFA_XSP16, literal(-4)))
          CFI (cfiCond111) ?BRET_EXT load(1, XDATA, add(CFA_XSP16, literal(-3)))
          CFI (cfiCond111) DPL0 load(1, XDATA, add(CFA_XSP16, literal(-2)))
          CFI (cfiCond111) DPH0 load(1, XDATA, add(CFA_XSP16, literal(-1)))
          CFI (cfiCond111) CFA_SP SP+-4
          CFI (cfiCond111) CFA_XSP16 add(XSP16, 34)
          CFI Block cfiCond112 Using cfiCommon0
          CFI (cfiCond112) Function MT_AfIncomingMsg
          CFI (cfiCond112) Conditional ??CrossCallReturnLabel_105, ??CrossCallReturnLabel_70
          CFI (cfiCond112) R6 load(1, XDATA, add(CFA_XSP16, literal(-16)))
          CFI (cfiCond112) VB load(1, XDATA, add(CFA_XSP16, literal(-15)))
          CFI (cfiCond112) V0 load(1, XDATA, add(CFA_XSP16, literal(-14)))
          CFI (cfiCond112) V1 load(1, XDATA, add(CFA_XSP16, literal(-13)))
          CFI (cfiCond112) V2 load(1, XDATA, add(CFA_XSP16, literal(-12)))
          CFI (cfiCond112) V3 load(1, XDATA, add(CFA_XSP16, literal(-11)))
          CFI (cfiCond112) V4 load(1, XDATA, add(CFA_XSP16, literal(-10)))
          CFI (cfiCond112) V5 load(1, XDATA, add(CFA_XSP16, literal(-9)))
          CFI (cfiCond112) V6 load(1, XDATA, add(CFA_XSP16, literal(-8)))
          CFI (cfiCond112) V7 load(1, XDATA, add(CFA_XSP16, literal(-7)))
          CFI (cfiCond112) R7 load(1, XDATA, add(CFA_XSP16, literal(-6)))
          CFI (cfiCond112) ?RET_LOW load(1, XDATA, add(CFA_XSP16, literal(-5)))
          CFI (cfiCond112) ?RET_HIGH load(1, XDATA, add(CFA_XSP16, literal(-4)))
          CFI (cfiCond112) ?BRET_EXT load(1, XDATA, add(CFA_XSP16, literal(-3)))
          CFI (cfiCond112) DPL0 load(1, XDATA, add(CFA_XSP16, literal(-2)))
          CFI (cfiCond112) DPH0 load(1, XDATA, add(CFA_XSP16, literal(-1)))
          CFI (cfiCond112) CFA_SP SP+-4
          CFI (cfiCond112) CFA_XSP16 add(XSP16, 25)
          CFI Block cfiCond113 Using cfiCommon0
          CFI (cfiCond113) Function MT_AfIncomingMsg
          CFI (cfiCond113) Conditional ??CrossCallReturnLabel_105, ??CrossCallReturnLabel_71
          CFI (cfiCond113) R6 load(1, XDATA, add(CFA_XSP16, literal(-16)))
          CFI (cfiCond113) VB load(1, XDATA, add(CFA_XSP16, literal(-15)))
          CFI (cfiCond113) V0 load(1, XDATA, add(CFA_XSP16, literal(-14)))
          CFI (cfiCond113) V1 load(1, XDATA, add(CFA_XSP16, literal(-13)))
          CFI (cfiCond113) V2 load(1, XDATA, add(CFA_XSP16, literal(-12)))
          CFI (cfiCond113) V3 load(1, XDATA, add(CFA_XSP16, literal(-11)))
          CFI (cfiCond113) V4 load(1, XDATA, add(CFA_XSP16, literal(-10)))
          CFI (cfiCond113) V5 load(1, XDATA, add(CFA_XSP16, literal(-9)))
          CFI (cfiCond113) V6 load(1, XDATA, add(CFA_XSP16, literal(-8)))
          CFI (cfiCond113) V7 load(1, XDATA, add(CFA_XSP16, literal(-7)))
          CFI (cfiCond113) R7 load(1, XDATA, add(CFA_XSP16, literal(-6)))
          CFI (cfiCond113) ?RET_LOW load(1, XDATA, add(CFA_XSP16, literal(-5)))
          CFI (cfiCond113) ?RET_HIGH load(1, XDATA, add(CFA_XSP16, literal(-4)))
          CFI (cfiCond113) ?BRET_EXT load(1, XDATA, add(CFA_XSP16, literal(-3)))
          CFI (cfiCond113) DPL0 load(1, XDATA, add(CFA_XSP16, literal(-2)))
          CFI (cfiCond113) DPH0 load(1, XDATA, add(CFA_XSP16, literal(-1)))
          CFI (cfiCond113) CFA_SP SP+-4
          CFI (cfiCond113) CFA_XSP16 add(XSP16, 25)
          CFI Block cfiPicker114 Using cfiCommon1
          CFI (cfiPicker114) NoFunction
          CFI (cfiPicker114) Picker
        MOVX      @DPTR,A
        MOV       DPL,R2
        MOV       DPH,R3
        INC       DPTR
        RET
          CFI EndBlock cfiCond104
          CFI EndBlock cfiCond105
          CFI EndBlock cfiCond106
          CFI EndBlock cfiCond107
          CFI EndBlock cfiCond108
          CFI EndBlock cfiCond109
          CFI EndBlock cfiCond110
          CFI EndBlock cfiCond111
          CFI EndBlock cfiCond112
          CFI EndBlock cfiCond113
          CFI EndBlock cfiPicker114
//  649 
//  650 /***************************************************************************************************
//  651  * @fn          MT_AfIncomingMsg
//  652  *
//  653  * @brief       Process the callback subscription for AF Incoming data.
//  654  *
//  655  * @param       pkt - Incoming AF data.
//  656  *
//  657  * @return      none
//  658  ***************************************************************************************************/

        RSEG BANKED_CODE:HUGECODE:NOROOT(0)
//  659 void MT_AfIncomingMsg(afIncomingMSGPacket_t *pMsg)
MT_AfIncomingMsg:
          CFI Block cfiBlock115 Using cfiCommon0
          CFI Function MT_AfIncomingMsg
        CODE
//  660 {
        FUNCALL MT_AfIncomingMsg, osal_mem_alloc
        LOCFRAME ISTACK, 0, STACK
        LOCFRAME PSTACK, 0, STACK
        LOCFRAME XSTACK, 25, STACK
        LOCFRAME IOVERLAY, 0, STATIC
        LOCFRAME DOVERLAY, 0, STATIC
        ARGFRAME ISTACK, 0, STACK
        ARGFRAME PSTACK, 0, STACK
        ARGFRAME XSTACK, 25, STACK
        ARGFRAME IOVERLAY, 0, STATIC
        ARGFRAME DOVERLAY, 0, STATIC
        FUNCALL MT_AfIncomingMsg, osal_mem_alloc
        LOCFRAME ISTACK, 0, STACK
        LOCFRAME PSTACK, 0, STACK
        LOCFRAME XSTACK, 25, STACK
        LOCFRAME IOVERLAY, 0, STATIC
        LOCFRAME DOVERLAY, 0, STATIC
        ARGFRAME ISTACK, 0, STACK
        ARGFRAME PSTACK, 0, STACK
        ARGFRAME XSTACK, 25, STACK
        ARGFRAME IOVERLAY, 0, STATIC
        ARGFRAME DOVERLAY, 0, STATIC
        FUNCALL MT_AfIncomingMsg, osal_mem_free
        LOCFRAME ISTACK, 0, STACK
        LOCFRAME PSTACK, 0, STACK
        LOCFRAME XSTACK, 25, STACK
        LOCFRAME IOVERLAY, 0, STATIC
        LOCFRAME DOVERLAY, 0, STATIC
        ARGFRAME ISTACK, 0, STACK
        ARGFRAME PSTACK, 0, STACK
        ARGFRAME XSTACK, 25, STACK
        ARGFRAME IOVERLAY, 0, STATIC
        ARGFRAME DOVERLAY, 0, STATIC
        FUNCALL MT_AfIncomingMsg, osal_memcpy
        LOCFRAME ISTACK, 0, STACK
        LOCFRAME PSTACK, 0, STACK
        LOCFRAME XSTACK, 28, STACK
        LOCFRAME IOVERLAY, 0, STATIC
        LOCFRAME DOVERLAY, 0, STATIC
        ARGFRAME ISTACK, 0, STACK
        ARGFRAME PSTACK, 0, STACK
        ARGFRAME XSTACK, 28, STACK
        ARGFRAME IOVERLAY, 0, STATIC
        ARGFRAME DOVERLAY, 0, STATIC
        FUNCALL MT_AfIncomingMsg, osal_buffer_uint32
        LOCFRAME ISTACK, 0, STACK
        LOCFRAME PSTACK, 0, STACK
        LOCFRAME XSTACK, 29, STACK
        LOCFRAME IOVERLAY, 0, STATIC
        LOCFRAME DOVERLAY, 0, STATIC
        ARGFRAME ISTACK, 0, STACK
        ARGFRAME PSTACK, 0, STACK
        ARGFRAME XSTACK, 29, STACK
        ARGFRAME IOVERLAY, 0, STATIC
        ARGFRAME DOVERLAY, 0, STATIC
        FUNCALL MT_AfIncomingMsg, osal_start_timerEx
        LOCFRAME ISTACK, 0, STACK
        LOCFRAME PSTACK, 0, STACK
        LOCFRAME XSTACK, 29, STACK
        LOCFRAME IOVERLAY, 0, STATIC
        LOCFRAME DOVERLAY, 0, STATIC
        ARGFRAME ISTACK, 0, STACK
        ARGFRAME PSTACK, 0, STACK
        ARGFRAME XSTACK, 29, STACK
        ARGFRAME IOVERLAY, 0, STATIC
        ARGFRAME DOVERLAY, 0, STATIC
        FUNCALL MT_AfIncomingMsg, osal_set_event
        LOCFRAME ISTACK, 0, STACK
        LOCFRAME PSTACK, 0, STACK
        LOCFRAME XSTACK, 25, STACK
        LOCFRAME IOVERLAY, 0, STATIC
        LOCFRAME DOVERLAY, 0, STATIC
        ARGFRAME ISTACK, 0, STACK
        ARGFRAME PSTACK, 0, STACK
        ARGFRAME XSTACK, 25, STACK
        ARGFRAME IOVERLAY, 0, STATIC
        ARGFRAME DOVERLAY, 0, STATIC
        FUNCALL MT_AfIncomingMsg, osal_memcpy
        LOCFRAME ISTACK, 0, STACK
        LOCFRAME PSTACK, 0, STACK
        LOCFRAME XSTACK, 28, STACK
        LOCFRAME IOVERLAY, 0, STATIC
        LOCFRAME DOVERLAY, 0, STATIC
        ARGFRAME ISTACK, 0, STACK
        ARGFRAME PSTACK, 0, STACK
        ARGFRAME XSTACK, 28, STACK
        ARGFRAME IOVERLAY, 0, STATIC
        ARGFRAME DOVERLAY, 0, STATIC
        FUNCALL MT_AfIncomingMsg, osal_memcpy
        LOCFRAME ISTACK, 0, STACK
        LOCFRAME PSTACK, 0, STACK
        LOCFRAME XSTACK, 28, STACK
        LOCFRAME IOVERLAY, 0, STATIC
        LOCFRAME DOVERLAY, 0, STATIC
        ARGFRAME ISTACK, 0, STACK
        ARGFRAME PSTACK, 0, STACK
        ARGFRAME XSTACK, 28, STACK
        ARGFRAME IOVERLAY, 0, STATIC
        ARGFRAME DOVERLAY, 0, STATIC
        FUNCALL MT_AfIncomingMsg, MT_BuildAndSendZToolResponse
        LOCFRAME ISTACK, 0, STACK
        LOCFRAME PSTACK, 0, STACK
        LOCFRAME XSTACK, 25, STACK
        LOCFRAME IOVERLAY, 0, STATIC
        LOCFRAME DOVERLAY, 0, STATIC
        ARGFRAME ISTACK, 0, STACK
        ARGFRAME PSTACK, 0, STACK
        ARGFRAME XSTACK, 25, STACK
        ARGFRAME IOVERLAY, 0, STATIC
        ARGFRAME DOVERLAY, 0, STATIC
        FUNCALL MT_AfIncomingMsg, osal_mem_free
        LOCFRAME ISTACK, 0, STACK
        LOCFRAME PSTACK, 0, STACK
        LOCFRAME XSTACK, 25, STACK
        LOCFRAME IOVERLAY, 0, STATIC
        LOCFRAME DOVERLAY, 0, STATIC
        ARGFRAME ISTACK, 0, STACK
        ARGFRAME PSTACK, 0, STACK
        ARGFRAME XSTACK, 25, STACK
        ARGFRAME IOVERLAY, 0, STATIC
        ARGFRAME DOVERLAY, 0, STATIC
        REQUIRE ?V0
        REQUIRE ?V1
        REQUIRE ?V2
        REQUIRE ?V3
        REQUIRE ?V4
        REQUIRE ?V5
        REQUIRE ?V6
        REQUIRE ?V7
        MOV       A,#-0x10
        LCALL     ?BANKED_ENTER_XDATA
          CFI DPH0 load(1, XDATA, add(CFA_XSP16, literal(-1)))
          CFI DPL0 load(1, XDATA, add(CFA_XSP16, literal(-2)))
          CFI ?BRET_EXT load(1, XDATA, add(CFA_XSP16, literal(-3)))
          CFI ?RET_HIGH load(1, XDATA, add(CFA_XSP16, literal(-4)))
          CFI ?RET_LOW load(1, XDATA, add(CFA_XSP16, literal(-5)))
          CFI R7 load(1, XDATA, add(CFA_XSP16, literal(-6)))
          CFI V7 load(1, XDATA, add(CFA_XSP16, literal(-7)))
          CFI V6 load(1, XDATA, add(CFA_XSP16, literal(-8)))
          CFI V5 load(1, XDATA, add(CFA_XSP16, literal(-9)))
          CFI V4 load(1, XDATA, add(CFA_XSP16, literal(-10)))
          CFI V3 load(1, XDATA, add(CFA_XSP16, literal(-11)))
          CFI V2 load(1, XDATA, add(CFA_XSP16, literal(-12)))
          CFI V1 load(1, XDATA, add(CFA_XSP16, literal(-13)))
          CFI V0 load(1, XDATA, add(CFA_XSP16, literal(-14)))
          CFI VB load(1, XDATA, add(CFA_XSP16, literal(-15)))
          CFI R6 load(1, XDATA, add(CFA_XSP16, literal(-16)))
          CFI CFA_SP SP+0
          CFI CFA_XSP16 add(XSP16, 16)
        ; Saved register size: 16
        ; Auto size: 9
        MOV       A,#-0x9
        LCALL     ?ALLOC_XSTACK8
          CFI CFA_XSP16 add(XSP16, 25)
        MOV       DPL,?XSP + 0
        MOV       DPH,?XSP + 1
        MOV       A,R2
        MOVX      @DPTR,A
        INC       DPTR
        MOV       A,R3
        LCALL     ?Subroutine19 & 0xFFFF
//  661   #define MT_AF_INC_MSG_LEN  20
//  662   #define MT_AF_INC_MSG_EXT  10
//  663 
//  664   uint16 dataLen = pMsg->cmd.DataLength;  // Length of the data section in the response packet.
??CrossCallReturnLabel_121:
        ADD       A,#0x20
        MOV       DPL,A
        CLR       A
        ADDC      A,R0
        MOV       DPH,A
        MOVX      A,@DPTR
        MOV       ?V4,A
        INC       DPTR
        MOVX      A,@DPTR
        MOV       ?V5,A
//  665   uint16 respLen = MT_AF_INC_MSG_LEN + dataLen;
        MOV       A,?V4
        ADD       A,#0x14
        MOV       R6,A
        CLR       A
        ADDC      A,?V5
        MOV       R7,A
//  666   uint8 cmd = MT_AF_INCOMING_MSG;
        MOV       A,#0x6
        LCALL     ?XSTACK_DISP0_8
        MOV       A,#-0x7f
        MOVX      @DPTR,A
//  667   uint8 *pRsp, *pTmp;
//  668   mtAfInMsgList_t *pItem = NULL;
        MOV       A,#0x2
        LCALL     ?XSTACK_DISP0_8
        CLR       A
        MOVX      @DPTR,A
        INC       DPTR
        LCALL     ?Subroutine30 & 0xFFFF
//  669 
//  670 #if defined INTER_PAN
//  671   if (StubAPS_InterPan(pMsg->srcAddr.panId, pMsg->srcAddr.endPoint))
//  672   {
//  673     cmd = MT_AF_INCOMING_MSG_EXT;
//  674   }
//  675   else
//  676 #endif
//  677   if ((pMsg->srcAddr.addrMode == afAddr64Bit) ||
//  678       (respLen > (uint16)(MT_RPC_DATA_MAX - MT_AF_INC_MSG_EXT)))
??CrossCallReturnLabel_66:
        ADD       A,#0xe
        LCALL     ?Subroutine24 & 0xFFFF
??CrossCallReturnLabel_43:
        MOVX      A,@DPTR
        XRL       A,#0x3
        JZ        ??MT_AfIncomingMsg_0
        CLR       C
        MOV       A,R6
        SUBB      A,#-0xf
        MOV       A,R7
        SUBB      A,#0x0
        JC        ??MT_AfIncomingMsg_1
//  679   {
//  680     cmd = MT_AF_INCOMING_MSG_EXT;
??MT_AfIncomingMsg_0:
        MOV       A,#0x6
        LCALL     ?XSTACK_DISP0_8
        MOV       A,#-0x7e
        MOVX      @DPTR,A
//  681   }
//  682 
//  683   if (cmd == MT_AF_INCOMING_MSG_EXT)
//  684   {
//  685     respLen += MT_AF_INC_MSG_EXT;
        MOV       A,R6
        ADD       A,#0xa
        MOV       R6,A
        CLR       A
        ADDC      A,R7
        MOV       R7,A
//  686   }
//  687 
//  688   if (respLen > (uint16)MT_RPC_DATA_MAX)
??MT_AfIncomingMsg_1:
        CLR       C
        MOV       A,R6
        SUBB      A,#-0x5
        MOV       A,R7
        SUBB      A,#0x0
        JC        ??MT_AfIncomingMsg_2
//  689   {
//  690     if ((pItem = (mtAfInMsgList_t *)osal_mem_alloc(sizeof(mtAfInMsgList_t) + dataLen)) == NULL)
        ; Setup parameters for call to function osal_mem_alloc
        MOV       A,?V4
        ADD       A,#0x9
        MOV       R2,A
        CLR       A
        ADDC      A,?V5
        MOV       R3,A
        LCALL     `??osal_mem_alloc::?relay`; Banked call to: osal_mem_alloc
        MOV       A,#0x2
        LCALL     ?XSTACK_DISP0_8
        LCALL     ?Subroutine29 & 0xFFFF
??CrossCallReturnLabel_62:
        MOV       A,#0x2
        LCALL     ?XSTACK_DISP0_8
        LCALL     ??Subroutine62_0 & 0xFFFF
??CrossCallReturnLabel_149:
        JNZ       $+5
        LJMP      ??MT_AfIncomingMsg_3 & 0xFFFF
//  691     {
//  692       return;  // If cannot hold a huge message, cannot give indication at all.
//  693     }
//  694 
//  695     pItem->data = (uint8 *)(pItem+1);
        MOV       A,#0x2
        LCALL     ?XSTACK_DISP0_8
        MOVX      A,@DPTR
        ADD       A,#0x9
        MOV       R2,A
        INC       DPTR
        MOVX      A,@DPTR
        ADDC      A,#0x0
        MOV       R3,A
        MOV       A,#0x2
        LCALL     ?XSTACK_DISP0_8
        INC       DPTR
        MOVX      A,@DPTR
        MOV       DPH,A
        MOV       DPL,R0
        INC       DPTR
        INC       DPTR
        LCALL     ?Subroutine29 & 0xFFFF
//  696     respLen -= dataLen;  // Zero data bytes are sent with an over-sized incoming indication.
??CrossCallReturnLabel_63:
        CLR       C
        MOV       A,R6
        SUBB      A,?V4
        MOV       R6,A
        MOV       A,R7
        SUBB      A,?V5
        MOV       R7,A
//  697   }
//  698 
//  699   // Attempt to allocate memory for the response packet.
//  700   if ((pRsp = osal_mem_alloc(respLen)) == NULL)
??MT_AfIncomingMsg_2:
        ; Setup parameters for call to function osal_mem_alloc
        MOV       A,R6
        MOV       R2,A
        MOV       A,R7
        MOV       R3,A
        LCALL     `??osal_mem_alloc::?relay`; Banked call to: osal_mem_alloc
        MOV       A,#0x4
        LCALL     ?XSTACK_DISP0_8
        LCALL     ?Subroutine29 & 0xFFFF
??CrossCallReturnLabel_64:
        MOV       A,#0x4
        LCALL     ?XSTACK_DISP0_8
        LCALL     ??Subroutine62_0 & 0xFFFF
??CrossCallReturnLabel_150:
        JNZ       ??MT_AfIncomingMsg_4
//  701   {
//  702     if (pItem != NULL)
        MOV       A,#0x2
        LCALL     ?XSTACK_DISP0_8
        LCALL     ??Subroutine62_0 & 0xFFFF
??CrossCallReturnLabel_151:
        JZ        ??MT_AfIncomingMsg_5
//  703     {
//  704       (void)osal_mem_free(pItem);
        ; Setup parameters for call to function osal_mem_free
        MOV       A,#0x2
        LCALL     ?XSTACK_DISP0_8
        LCALL     ??Subroutine61_0 & 0xFFFF
//  705     }
??CrossCallReturnLabel_139:
        LCALL     `??osal_mem_free::?relay`; Banked call to: osal_mem_free
//  706     return;
??MT_AfIncomingMsg_5:
        LJMP      ??MT_AfIncomingMsg_3 & 0xFFFF
//  707   }
//  708   pTmp = pRsp;
//  709 
//  710   /* Group ID */
//  711   *pTmp++ = LO_UINT16(pMsg->groupId);
??MT_AfIncomingMsg_4:
        MOV       DPL,?XSP + 0
        MOV       DPH,?XSP + 1
        MOVX      A,@DPTR
        ADD       A,#0x2
        LCALL     ?Subroutine21 & 0xFFFF
??CrossCallReturnLabel_34:
        PUSH      A
          CFI CFA_SP SP+-1
        MOV       A,#0x4
        LCALL     ?XSTACK_DISP0_8
        LCALL     ?Subroutine9 & 0xFFFF
??CrossCallReturnLabel_13:
        POP       A
          CFI CFA_SP SP+0
        LCALL     ?Subroutine32 & 0xFFFF
//  712   *pTmp++ = HI_UINT16(pMsg->groupId);
??CrossCallReturnLabel_70:
        PUSH      A
          CFI CFA_SP SP+-1
        MOV       A,#0x4
        LCALL     ?XSTACK_DISP0_8
        LCALL     ?Subroutine9 & 0xFFFF
??CrossCallReturnLabel_14:
        INC       DPTR
        POP       A
          CFI CFA_SP SP+0
        LCALL     ?Subroutine30 & 0xFFFF
//  713 
//  714   /* Cluster ID */
//  715   *pTmp++ = LO_UINT16(pMsg->clusterId);
??CrossCallReturnLabel_67:
        ADD       A,#0x4
        LCALL     ?Subroutine21 & 0xFFFF
??CrossCallReturnLabel_35:
        PUSH      A
          CFI CFA_SP SP+-1
        MOV       A,#0x4
        LCALL     ?XSTACK_DISP0_8
        LCALL     ?Subroutine5 & 0xFFFF
??CrossCallReturnLabel_0:
        POP       A
          CFI CFA_SP SP+0
        LCALL     ?Subroutine32 & 0xFFFF
//  716   *pTmp++ = HI_UINT16(pMsg->clusterId);
??CrossCallReturnLabel_71:
        PUSH      A
          CFI CFA_SP SP+-1
        MOV       A,#0x4
        LCALL     ?XSTACK_DISP0_8
        LCALL     ?Subroutine5 & 0xFFFF
??CrossCallReturnLabel_1:
        INC       DPTR
        POP       A
          CFI CFA_SP SP+0
        MOVX      @DPTR,A
        MOV       A,#0x4
        LCALL     ?XSTACK_DISP0_8
        MOVX      A,@DPTR
        ADD       A,#0x5
        MOV       ?V6,A
        INC       DPTR
        MOVX      A,@DPTR
        ADDC      A,#0x0
        MOV       ?V7,A
        MOV       A,#0x4
        LCALL     ?XSTACK_DISP0_8
        MOVX      A,@DPTR
        ADD       A,#0x4
        LCALL     ?Subroutine43 & 0xFFFF
??CrossCallReturnLabel_85:
        MOV       DPL,?XSP + 0
        MOV       DPH,?XSP + 1
        MOVX      A,@DPTR
        ADD       A,#0xf
        MOV       R0,A
        INC       DPTR
        MOVX      A,@DPTR
        ADDC      A,#0x0
        MOV       R1,A
        MOV       A,#0x7
        LCALL     ?XSTACK_DISP0_8
        MOV       A,R0
        MOVX      @DPTR,A
        INC       DPTR
        MOV       A,R1
        LCALL     ?Subroutine30 & 0xFFFF
??CrossCallReturnLabel_68:
        ADD       A,#0x6
        MOV       R0,A
        INC       DPTR
        MOVX      A,@DPTR
        ADDC      A,#0x0
        MOV       R1,A
        MOV       A,#0x6
        LCALL     ?XSTACK_DISP0_8
        MOVX      A,@DPTR
        XRL       A,#0x82
        JNZ       ??MT_AfIncomingMsg_6
//  717 
//  718   if (cmd == MT_AF_INCOMING_MSG_EXT)
//  719   {
//  720     *pTmp++ = pMsg->srcAddr.addrMode;
        MOV       DPL,?V0
        MOV       DPH,?V1
        MOVX      A,@DPTR
        MOV       DPL,R2
        MOV       DPH,R3
        MOVX      @DPTR,A
//  721 
//  722     if (pMsg->srcAddr.addrMode == afAddr64Bit)
        MOV       DPL,?V0
        MOV       DPH,?V1
        MOVX      A,@DPTR
        XRL       A,#0x3
        JNZ       ??MT_AfIncomingMsg_7
//  723     {
//  724       (void)osal_memcpy(pTmp, pMsg->srcAddr.addr.extAddr, Z_EXTADDR_LEN);
        ; Setup parameters for call to function osal_memcpy
        MOV       ?V0,R0
        MOV       ?V1,R1
        MOV       ?V2,#0x0
        MOV       R0,#?V0
        LCALL     ?PUSH_XSTACK_I_THREE
          CFI CFA_XSP16 add(XSP16, 28)
        MOV       R4,#0x8
        MOV       R5,#0x0
        INC       R2
        MOV       R3,?V7
        LCALL     `??osal_memcpy::?relay`; Banked call to: osal_memcpy
        MOV       A,#0x3
        LCALL     ?DEALLOC_XSTACK8
          CFI CFA_XSP16 add(XSP16, 25)
        SJMP      ??CrossCallReturnLabel_4
//  725     }
//  726     else
//  727     {
//  728       pTmp[0] = LO_UINT16(pMsg->srcAddr.addr.shortAddr);
??MT_AfIncomingMsg_7:
        LCALL     ?Subroutine6 & 0xFFFF
//  729       pTmp[1] = HI_UINT16(pMsg->srcAddr.addr.shortAddr);
//  730     }
//  731     pTmp += Z_EXTADDR_LEN;
//  732 
//  733     *pTmp++ = pMsg->srcAddr.endPoint;
??CrossCallReturnLabel_4:
        MOV       A,#0x7
        LCALL     ?XSTACK_DISP0_8
        LCALL     ?Subroutine8 & 0xFFFF
//  734 #if defined INTER_PAN
//  735     *pTmp++ = LO_UINT16(pMsg->srcAddr.panId);
//  736     *pTmp++ = HI_UINT16(pMsg->srcAddr.panId);
//  737 #else
//  738     *pTmp++ = 0;
//  739     *pTmp++ = 0;
//  740 #endif
//  741   }
??CrossCallReturnLabel_8:
        MOV       DPL,?V6
        MOV       DPH,?V7
        INC       DPTR
        INC       DPTR
        INC       DPTR
        INC       DPTR
        INC       DPTR
        INC       DPTR
        INC       DPTR
        INC       DPTR
        LCALL     ?Subroutine27 & 0xFFFF
??CrossCallReturnLabel_49:
        CLR       A
        LCALL     ?Subroutine27 & 0xFFFF
??CrossCallReturnLabel_50:
        INC       DPTR
        MOVX      @DPTR,A
        MOV       A,?V6
        ADD       A,#0xb
        MOV       ?V6,A
        JNC       ??MT_AfIncomingMsg_8
        INC       ?V7
        SJMP      ??MT_AfIncomingMsg_8
//  742   else
//  743   {
//  744     /* Source Address */
//  745     *pTmp++ = LO_UINT16(pMsg->srcAddr.addr.shortAddr);
??MT_AfIncomingMsg_6:
        MOV       DPL,R0
        MOV       DPH,R1
        MOVX      A,@DPTR
        MOV       DPL,R2
        MOV       DPH,R3
        LCALL     ??Subroutine56_0 & 0xFFFF
//  746     *pTmp++ = HI_UINT16(pMsg->srcAddr.addr.shortAddr);
??CrossCallReturnLabel_112:
        INC       DPTR
        LCALL     ?Subroutine26 & 0xFFFF
//  747 
//  748     /* Source EP */
//  749     *pTmp++ = pMsg->srcAddr.endPoint;
??CrossCallReturnLabel_47:
        MOV       A,#0x7
        LCALL     ?XSTACK_DISP0_8
        LCALL     ?Subroutine8 & 0xFFFF
//  750   }
??CrossCallReturnLabel_9:
        PUSH      A
          CFI CFA_SP SP+-1
        MOV       A,#0x4
        LCALL     ?XSTACK_DISP0_8
        LCALL     ??Subroutine60_0 & 0xFFFF
??CrossCallReturnLabel_124:
        ADD       A,#0x6
        MOV       DPL,A
        CLR       A
        ADDC      A,R0
        MOV       DPH,A
        POP       A
          CFI CFA_SP SP+0
        MOVX      @DPTR,A
        MOV       A,#0x4
        LCALL     ?XSTACK_DISP0_8
        MOVX      A,@DPTR
        ADD       A,#0x7
        MOV       ?V6,A
        INC       DPTR
        MOVX      A,@DPTR
        ADDC      A,#0x0
        MOV       ?V7,A
//  751 
//  752   /* Destination EP */
//  753   *pTmp++ = pMsg->endPoint;
??MT_AfIncomingMsg_8:
        MOV       DPL,?XSP + 0
        MOV       DPH,?XSP + 1
        LCALL     ?Subroutine17 & 0xFFFF
??CrossCallReturnLabel_31:
        LCALL     ?Subroutine26 & 0xFFFF
//  754 
//  755   /* WasBroadCast */
//  756   *pTmp++ = pMsg->wasBroadcast;
??CrossCallReturnLabel_48:
        MOV       DPL,?XSP + 0
        MOV       DPH,?XSP + 1
        LCALL     ?Subroutine11 & 0xFFFF
??CrossCallReturnLabel_18:
        MOV       DPL,?V6
        MOV       DPH,?V7
        LCALL     ?Subroutine33 & 0xFFFF
//  757 
//  758   /* LinkQuality */
//  759   *pTmp++ = pMsg->LinkQuality;
??CrossCallReturnLabel_113:
        LCALL     ?Subroutine18 & 0xFFFF
??CrossCallReturnLabel_33:
        LCALL     ??Subroutine58_0 & 0xFFFF
??CrossCallReturnLabel_116:
        LCALL     ?Subroutine19 & 0xFFFF
//  760 
//  761   /* SecurityUse */
//  762   *pTmp++ = pMsg->SecurityUse;
??CrossCallReturnLabel_122:
        ADD       A,#0x19
        LCALL     ?Subroutine20 & 0xFFFF
??CrossCallReturnLabel_117:
        INC       DPTR
        MOVX      @DPTR,A
        MOV       A,?V6
        ADD       A,#0x4
        MOV       ?V6,A
        JNC       ??MT_AfIncomingMsg_9
        INC       ?V7
//  763 
//  764   /* Timestamp */
//  765   osal_buffer_uint32( pTmp, pMsg->timestamp );
??MT_AfIncomingMsg_9:
        MOV       DPL,?XSP + 0
        MOV       DPH,?XSP + 1
        MOVX      A,@DPTR
        ADD       A,#0x1a
        LCALL     ?Subroutine24 & 0xFFFF
??CrossCallReturnLabel_44:
        LCALL     ?PUSH_XSTACK8_X_FOUR
          CFI CFA_XSP16 add(XSP16, 29)
        MOV       R2,?V6
        MOV       R3,?V7
        LCALL     `??osal_buffer_uint32::?relay`; Banked call to: osal_buffer_uint32
        MOV       A,#0x4
        LCALL     ?DEALLOC_XSTACK8
          CFI CFA_XSP16 add(XSP16, 25)
//  766   pTmp += 4;
//  767 
//  768   /* Data Length */
//  769   if (cmd == MT_AF_INCOMING_MSG_EXT)
        MOV       A,?V6
        ADD       A,#0x6
        MOV       R2,A
        CLR       A
        ADDC      A,?V7
        MOV       R3,A
        MOV       A,?V6
        ADD       A,#0x5
        MOV       R0,A
        CLR       A
        ADDC      A,?V7
        MOV       R1,A
        MOV       A,R0
        MOV       R4,A
        MOV       A,R1
        MOV       R5,A
        MOV       A,?V6
        ADD       A,#0x4
        DEC       R0
        CLR       A
        ADDC      A,?V7
        MOV       R1,A
        MOV       ?V2,R0
        MOV       A,#0x6
        LCALL     ?XSTACK_DISP0_8
        MOVX      A,@DPTR
        XRL       A,#0x82
        JNZ       ??MT_AfIncomingMsg_10
//  770   {
//  771     /* Z-Tool apparently takes the last Byte before the data buffer as the dynamic length and
//  772      * ignores the bigger UInt16 length of an EXT incoming message. But no data bytes will be sent
//  773      * with a huge message, so it's necessary to work-around and fake-out Z-Tool with a zero here.
//  774      */
//  775     *pTmp++ = 0;  // TODO - workaround Z-Tool shortcoming; should be: = pMsg->cmd.TransSeqNumber;
        MOV       DPL,R0
        MOV       DPH,R1
        CLR       A
        LCALL     ?Subroutine39 & 0xFFFF
//  776     *pTmp++ = LO_UINT16(dataLen);
//  777     *pTmp++ = HI_UINT16(dataLen);
??CrossCallReturnLabel_80:
        MOV       DPL,R2
        MOV       DPH,R3
        MOV       A,?V5
        MOVX      @DPTR,A
        MOV       A,?V6
        ADD       A,#0x7
        MOV       ?V6,A
        JNC       ??MT_AfIncomingMsg_11
        INC       ?V7
        SJMP      ??MT_AfIncomingMsg_11
//  778   }
//  779   else
//  780   {
//  781     *pTmp++ = pMsg->cmd.TransSeqNumber;
??MT_AfIncomingMsg_10:
        LCALL     ??Subroutine59_0 & 0xFFFF
//  782     *pTmp++ = dataLen;
//  783   }
??CrossCallReturnLabel_126:
        ADD       A,#0x1f
        MOV       DPL,A
        CLR       A
        ADDC      A,R0
        MOV       DPH,A
        MOVX      A,@DPTR
        MOV       DPL,?V2
        MOV       DPH,R1
        LCALL     ?Subroutine39 & 0xFFFF
??CrossCallReturnLabel_81:
        MOV       ?V6,R2
        MOV       ?V7,R3
//  784 
//  785   /* Data */
//  786   if (pItem != NULL)
??MT_AfIncomingMsg_11:
        MOV       DPL,?XSP + 0
        MOV       DPH,?XSP + 1
        MOVX      A,@DPTR
        ADD       A,#0x22
        MOV       ?V2,A
        INC       DPTR
        MOVX      A,@DPTR
        ADDC      A,#0x0
        MOV       ?V3,A
        MOV       A,#0x2
        LCALL     ?XSTACK_DISP0_8
        LCALL     ??Subroutine62_0 & 0xFFFF
??CrossCallReturnLabel_152:
        JNZ       $+5
        LJMP      ??MT_AfIncomingMsg_12 & 0xFFFF
//  787   {
//  788     // Enqueue the new huge incoming item.
//  789     pItem->next = pMtAfInMsgList;
        MOV       DPTR,#pMtAfInMsgList
        LCALL     ??Subroutine61_0 & 0xFFFF
??CrossCallReturnLabel_140:
        MOV       A,#0x2
        LCALL     ?XSTACK_DISP0_8
        INC       DPTR
        MOVX      A,@DPTR
        MOV       DPH,A
        MOV       DPL,R0
        LCALL     ?Subroutine29 & 0xFFFF
//  790     pMtAfInMsgList = pItem;
??CrossCallReturnLabel_65:
        MOV       A,#0x2
        LCALL     ?XSTACK_DISP0_8
        LCALL     ?Subroutine12 & 0xFFFF
//  791 
//  792     // Setup to time-out the huge incoming item if host does not MT_AF_DATA_RETRIEVE it.
//  793     pItem->tick = MT_AF_EXEC_CNT;
??CrossCallReturnLabel_21:
        MOV       A,#0x2
        LCALL     ?XSTACK_DISP0_8
        LCALL     ??Subroutine60_0 & 0xFFFF
??CrossCallReturnLabel_125:
        ADD       A,#0x8
        MOV       DPL,A
        CLR       A
        ADDC      A,R0
        MOV       DPH,A
        MOV       A,#0xf
        MOVX      @DPTR,A
//  794     if (ZSuccess != osal_start_timerEx(MT_TaskID, MT_AF_EXEC_EVT, MT_AF_EXEC_DLY))
        ; Setup parameters for call to function osal_start_timerEx
        MOV       DPTR,#__Constant_3e8
        LCALL     ?PUSH_XSTACK8_X_FOUR
          CFI CFA_XSP16 add(XSP16, 29)
        MOV       R2,#0x8
        MOV       R3,#0x0
        MOV       DPTR,#MT_TaskID
        MOVX      A,@DPTR
        MOV       R1,A
        LCALL     `??osal_start_timerEx::?relay`; Banked call to: osal_start_timerEx
        MOV       A,#0x4
        LCALL     ?DEALLOC_XSTACK8
          CFI CFA_XSP16 add(XSP16, 25)
        MOV       A,R1
        JZ        ??MT_AfIncomingMsg_13
//  795     {
//  796       (void)osal_set_event(MT_TaskID, MT_AF_EXEC_EVT);
        ; Setup parameters for call to function osal_set_event
        MOV       R2,#0x8
        MOV       R3,#0x0
        MOV       DPTR,#MT_TaskID
        MOVX      A,@DPTR
        MOV       R1,A
        LCALL     `??osal_set_event::?relay`; Banked call to: osal_set_event
//  797     }
//  798 
//  799     pItem->timestamp = pMsg->timestamp;
??MT_AfIncomingMsg_13:
        MOV       DPL,?V0
        MOV       DPH,?V1
        LCALL     ?XLOAD_R0123
        MOV       A,#0x2
        LCALL     ?XSTACK_DISP0_8
        MOVX      A,@DPTR
        MOV       R4,A
        INC       DPTR
        MOVX      A,@DPTR
        MOV       DPH,A
        MOV       DPL,R4
        INC       DPTR
        INC       DPTR
        INC       DPTR
        INC       DPTR
        LCALL     ?XSTORE_R0123
//  800     (void)osal_memcpy(pItem->data, pMsg->cmd.Data, dataLen);
        ; Setup parameters for call to function osal_memcpy
        LCALL     ?Subroutine22 & 0xFFFF
//  801   }
??CrossCallReturnLabel_36:
        LCALL     ?PUSH_XSTACK_I_THREE
          CFI CFA_XSP16 add(XSP16, 28)
        MOV       R4,?V4
        MOV       R5,?V5
        MOV       A,#0x5
        LCALL     ?XSTACK_DISP0_8
        LCALL     ?Subroutine5 & 0xFFFF
??CrossCallReturnLabel_2:
        LCALL     ??Subroutine61_0 & 0xFFFF
??CrossCallReturnLabel_141:
        LCALL     `??osal_memcpy::?relay`; Banked call to: osal_memcpy
        MOV       A,#0x3
        LCALL     ?DEALLOC_XSTACK8
          CFI CFA_XSP16 add(XSP16, 25)
        SJMP      ??MT_AfIncomingMsg_14
//  802   else
//  803   {
//  804     (void)osal_memcpy(pTmp, pMsg->cmd.Data, dataLen);
??MT_AfIncomingMsg_12:
        ; Setup parameters for call to function osal_memcpy
        LCALL     ?Subroutine22 & 0xFFFF
??CrossCallReturnLabel_37:
        LCALL     ?PUSH_XSTACK_I_THREE
          CFI CFA_XSP16 add(XSP16, 28)
        MOV       R4,?V4
        MOV       R5,?V5
        MOV       R2,?V6
        MOV       R3,?V7
        LCALL     `??osal_memcpy::?relay`; Banked call to: osal_memcpy
        MOV       A,#0x3
        LCALL     ?DEALLOC_XSTACK8
          CFI CFA_XSP16 add(XSP16, 25)
//  805     pTmp += dataLen;
        MOV       A,?V6
        ADD       A,?V4
        MOV       ?V6,A
        MOV       A,?V7
        ADDC      A,?V5
        MOV       ?V7,A
//  806   }
//  807 
//  808   // MAC Source address
//  809   *pTmp++ = LO_UINT16(pMsg->macSrcAddr);
??MT_AfIncomingMsg_14:
        MOV       DPL,?XSP + 0
        MOV       DPH,?XSP + 1
        MOVX      A,@DPTR
        ADD       A,#0x24
        MOV       R0,A
        INC       DPTR
        MOVX      A,@DPTR
        ADDC      A,#0x0
        MOV       R1,A
        LCALL     ?Subroutine6 & 0xFFFF
//  810   *pTmp++ = HI_UINT16(pMsg->macSrcAddr);
//  811 
//  812   // messages result radius
//  813   *pTmp = pMsg->radius;
??CrossCallReturnLabel_5:
        LCALL     ??Subroutine59_0 & 0xFFFF
??CrossCallReturnLabel_127:
        ADD       A,#0x26
        LCALL     ?Subroutine20 & 0xFFFF
??CrossCallReturnLabel_118:
        MOVX      @DPTR,A
//  814 
//  815   /* Build and send back the response */
//  816   MT_BuildAndSendZToolResponse(((uint8)MT_RPC_CMD_AREQ|(uint8)MT_RPC_SYS_AF), cmd, respLen, pRsp);
        ; Setup parameters for call to function MT_BuildAndSendZToolResponse
        MOV       A,#0x4
        LCALL     ?XSTACK_DISP0_8
        LCALL     ?Subroutine23 & 0xFFFF
??CrossCallReturnLabel_40:
        MOV       A,R6
        MOV       R3,A
        MOV       A,#0x6
        LCALL     ?XSTACK_DISP0_8
        MOVX      A,@DPTR
        MOV       R2,A
        MOV       R1,#0x44
        LCALL     `??MT_BuildAndSendZToolResponse::?relay`; Banked call to: MT_BuildAndSendZToolResponse
//  817 
//  818   (void)osal_mem_free(pRsp);
        ; Setup parameters for call to function osal_mem_free
        MOV       A,#0x4
        LCALL     ?XSTACK_DISP0_8
        LCALL     ??Subroutine61_0 & 0xFFFF
??CrossCallReturnLabel_142:
        LCALL     `??osal_mem_free::?relay`; Banked call to: osal_mem_free
//  819 }
??MT_AfIncomingMsg_3:
        MOV       A,#0x9
        LJMP      ?Subroutine1 & 0xFFFF
          CFI EndBlock cfiBlock115

        RSEG BANKED_CODE:HUGECODE:NOROOT(0)
?Subroutine39:
          CFI Block cfiCond116 Using cfiCommon0
          CFI Function MT_AfIncomingMsg
          CFI Conditional ??CrossCallReturnLabel_80
          CFI R6 load(1, XDATA, add(CFA_XSP16, literal(-16)))
          CFI VB load(1, XDATA, add(CFA_XSP16, literal(-15)))
          CFI V0 load(1, XDATA, add(CFA_XSP16, literal(-14)))
          CFI V1 load(1, XDATA, add(CFA_XSP16, literal(-13)))
          CFI V2 load(1, XDATA, add(CFA_XSP16, literal(-12)))
          CFI V3 load(1, XDATA, add(CFA_XSP16, literal(-11)))
          CFI V4 load(1, XDATA, add(CFA_XSP16, literal(-10)))
          CFI V5 load(1, XDATA, add(CFA_XSP16, literal(-9)))
          CFI V6 load(1, XDATA, add(CFA_XSP16, literal(-8)))
          CFI V7 load(1, XDATA, add(CFA_XSP16, literal(-7)))
          CFI R7 load(1, XDATA, add(CFA_XSP16, literal(-6)))
          CFI ?RET_LOW load(1, XDATA, add(CFA_XSP16, literal(-5)))
          CFI ?RET_HIGH load(1, XDATA, add(CFA_XSP16, literal(-4)))
          CFI ?BRET_EXT load(1, XDATA, add(CFA_XSP16, literal(-3)))
          CFI DPL0 load(1, XDATA, add(CFA_XSP16, literal(-2)))
          CFI DPH0 load(1, XDATA, add(CFA_XSP16, literal(-1)))
          CFI CFA_SP SP+-2
          CFI CFA_XSP16 add(XSP16, 25)
          CFI Block cfiCond117 Using cfiCommon0
          CFI (cfiCond117) Function MT_AfIncomingMsg
          CFI (cfiCond117) Conditional ??CrossCallReturnLabel_81
          CFI (cfiCond117) R6 load(1, XDATA, add(CFA_XSP16, literal(-16)))
          CFI (cfiCond117) VB load(1, XDATA, add(CFA_XSP16, literal(-15)))
          CFI (cfiCond117) V0 load(1, XDATA, add(CFA_XSP16, literal(-14)))
          CFI (cfiCond117) V1 load(1, XDATA, add(CFA_XSP16, literal(-13)))
          CFI (cfiCond117) V2 load(1, XDATA, add(CFA_XSP16, literal(-12)))
          CFI (cfiCond117) V3 load(1, XDATA, add(CFA_XSP16, literal(-11)))
          CFI (cfiCond117) V4 load(1, XDATA, add(CFA_XSP16, literal(-10)))
          CFI (cfiCond117) V5 load(1, XDATA, add(CFA_XSP16, literal(-9)))
          CFI (cfiCond117) V6 load(1, XDATA, add(CFA_XSP16, literal(-8)))
          CFI (cfiCond117) V7 load(1, XDATA, add(CFA_XSP16, literal(-7)))
          CFI (cfiCond117) R7 load(1, XDATA, add(CFA_XSP16, literal(-6)))
          CFI (cfiCond117) ?RET_LOW load(1, XDATA, add(CFA_XSP16, literal(-5)))
          CFI (cfiCond117) ?RET_HIGH load(1, XDATA, add(CFA_XSP16, literal(-4)))
          CFI (cfiCond117) ?BRET_EXT load(1, XDATA, add(CFA_XSP16, literal(-3)))
          CFI (cfiCond117) DPL0 load(1, XDATA, add(CFA_XSP16, literal(-2)))
          CFI (cfiCond117) DPH0 load(1, XDATA, add(CFA_XSP16, literal(-1)))
          CFI (cfiCond117) CFA_SP SP+-2
          CFI (cfiCond117) CFA_XSP16 add(XSP16, 25)
          CFI Block cfiPicker118 Using cfiCommon1
          CFI (cfiPicker118) NoFunction
          CFI (cfiPicker118) Picker
        MOVX      @DPTR,A
        MOV       DPL,R4
        MOV       DPH,R5
        MOV       A,?V4
        MOVX      @DPTR,A
        RET
          CFI EndBlock cfiCond116
          CFI EndBlock cfiCond117
          CFI EndBlock cfiPicker118

        RSEG BANKED_CODE:HUGECODE:NOROOT(0)
?Subroutine34:
          CFI Block cfiCond119 Using cfiCommon0
          CFI Function MT_AfCommandProcessing
          CFI Conditional ??CrossCallReturnLabel_109
          CFI R6 load(1, XDATA, add(CFA_XSP16, literal(-14)))
          CFI VB load(1, XDATA, add(CFA_XSP16, literal(-13)))
          CFI V0 load(1, XDATA, add(CFA_XSP16, literal(-12)))
          CFI V1 load(1, XDATA, add(CFA_XSP16, literal(-11)))
          CFI V2 load(1, XDATA, add(CFA_XSP16, literal(-10)))
          CFI V3 load(1, XDATA, add(CFA_XSP16, literal(-9)))
          CFI V4 load(1, XDATA, add(CFA_XSP16, literal(-8)))
          CFI V5 load(1, XDATA, add(CFA_XSP16, literal(-7)))
          CFI R7 load(1, XDATA, add(CFA_XSP16, literal(-6)))
          CFI ?RET_LOW load(1, XDATA, add(CFA_XSP16, literal(-5)))
          CFI ?RET_HIGH load(1, XDATA, add(CFA_XSP16, literal(-4)))
          CFI ?BRET_EXT load(1, XDATA, add(CFA_XSP16, literal(-3)))
          CFI DPL0 load(1, XDATA, add(CFA_XSP16, literal(-2)))
          CFI DPH0 load(1, XDATA, add(CFA_XSP16, literal(-1)))
          CFI CFA_SP SP+-2
          CFI CFA_XSP16 add(XSP16, 19)
          CFI Block cfiCond120 Using cfiCommon0
          CFI (cfiCond120) Function MT_AfCommandProcessing
          CFI (cfiCond120) Conditional ??CrossCallReturnLabel_110
          CFI (cfiCond120) R6 load(1, XDATA, add(CFA_XSP16, literal(-14)))
          CFI (cfiCond120) VB load(1, XDATA, add(CFA_XSP16, literal(-13)))
          CFI (cfiCond120) V0 load(1, XDATA, add(CFA_XSP16, literal(-12)))
          CFI (cfiCond120) V1 load(1, XDATA, add(CFA_XSP16, literal(-11)))
          CFI (cfiCond120) V2 load(1, XDATA, add(CFA_XSP16, literal(-10)))
          CFI (cfiCond120) V3 load(1, XDATA, add(CFA_XSP16, literal(-9)))
          CFI (cfiCond120) V4 load(1, XDATA, add(CFA_XSP16, literal(-8)))
          CFI (cfiCond120) V5 load(1, XDATA, add(CFA_XSP16, literal(-7)))
          CFI (cfiCond120) R7 load(1, XDATA, add(CFA_XSP16, literal(-6)))
          CFI (cfiCond120) ?RET_LOW load(1, XDATA, add(CFA_XSP16, literal(-5)))
          CFI (cfiCond120) ?RET_HIGH load(1, XDATA, add(CFA_XSP16, literal(-4)))
          CFI (cfiCond120) ?BRET_EXT load(1, XDATA, add(CFA_XSP16, literal(-3)))
          CFI (cfiCond120) DPL0 load(1, XDATA, add(CFA_XSP16, literal(-2)))
          CFI (cfiCond120) DPH0 load(1, XDATA, add(CFA_XSP16, literal(-1)))
          CFI (cfiCond120) CFA_SP SP+-2
          CFI (cfiCond120) CFA_XSP16 add(XSP16, 19)
          CFI Block cfiPicker121 Using cfiCommon1
          CFI (cfiPicker121) NoFunction
          CFI (cfiPicker121) Picker
        MOV       DPL,?XSP + 0
        MOV       DPH,?XSP + 1
        MOV       A,#0x10
          CFI EndBlock cfiCond119
          CFI EndBlock cfiCond120
          CFI EndBlock cfiPicker121
        REQUIRE ??Subroutine56_0
        ; // Fall through to label ??Subroutine56_0

        RSEG BANKED_CODE:HUGECODE:NOROOT(0)
??Subroutine56_0:
          CFI Block cfiCond122 Using cfiCommon0
          CFI Function MT_AfReflectError
          CFI Conditional ??CrossCallReturnLabel_111
          CFI DPL0 Frame(CFA_SP, 4)
          CFI DPH0 Frame(CFA_SP, 5)
          CFI CFA_SP SP+-7
          CFI CFA_XSP16 add(XSP16, 6)
          CFI Block cfiCond123 Using cfiCommon0
          CFI (cfiCond123) Function MT_AfIncomingMsg
          CFI (cfiCond123) Conditional ??CrossCallReturnLabel_112
          CFI (cfiCond123) R6 load(1, XDATA, add(CFA_XSP16, literal(-16)))
          CFI (cfiCond123) VB load(1, XDATA, add(CFA_XSP16, literal(-15)))
          CFI (cfiCond123) V0 load(1, XDATA, add(CFA_XSP16, literal(-14)))
          CFI (cfiCond123) V1 load(1, XDATA, add(CFA_XSP16, literal(-13)))
          CFI (cfiCond123) V2 load(1, XDATA, add(CFA_XSP16, literal(-12)))
          CFI (cfiCond123) V3 load(1, XDATA, add(CFA_XSP16, literal(-11)))
          CFI (cfiCond123) V4 load(1, XDATA, add(CFA_XSP16, literal(-10)))
          CFI (cfiCond123) V5 load(1, XDATA, add(CFA_XSP16, literal(-9)))
          CFI (cfiCond123) V6 load(1, XDATA, add(CFA_XSP16, literal(-8)))
          CFI (cfiCond123) V7 load(1, XDATA, add(CFA_XSP16, literal(-7)))
          CFI (cfiCond123) R7 load(1, XDATA, add(CFA_XSP16, literal(-6)))
          CFI (cfiCond123) ?RET_LOW load(1, XDATA, add(CFA_XSP16, literal(-5)))
          CFI (cfiCond123) ?RET_HIGH load(1, XDATA, add(CFA_XSP16, literal(-4)))
          CFI (cfiCond123) ?BRET_EXT load(1, XDATA, add(CFA_XSP16, literal(-3)))
          CFI (cfiCond123) DPL0 load(1, XDATA, add(CFA_XSP16, literal(-2)))
          CFI (cfiCond123) DPH0 load(1, XDATA, add(CFA_XSP16, literal(-1)))
          CFI (cfiCond123) CFA_SP SP+-2
          CFI (cfiCond123) CFA_XSP16 add(XSP16, 25)
          CFI Block cfiCond124 Using cfiCommon0
          CFI (cfiCond124) Function MT_AfCommandProcessing
          CFI (cfiCond124) Conditional ??CrossCallReturnLabel_109
          CFI (cfiCond124) R6 load(1, XDATA, add(CFA_XSP16, literal(-14)))
          CFI (cfiCond124) VB load(1, XDATA, add(CFA_XSP16, literal(-13)))
          CFI (cfiCond124) V0 load(1, XDATA, add(CFA_XSP16, literal(-12)))
          CFI (cfiCond124) V1 load(1, XDATA, add(CFA_XSP16, literal(-11)))
          CFI (cfiCond124) V2 load(1, XDATA, add(CFA_XSP16, literal(-10)))
          CFI (cfiCond124) V3 load(1, XDATA, add(CFA_XSP16, literal(-9)))
          CFI (cfiCond124) V4 load(1, XDATA, add(CFA_XSP16, literal(-8)))
          CFI (cfiCond124) V5 load(1, XDATA, add(CFA_XSP16, literal(-7)))
          CFI (cfiCond124) R7 load(1, XDATA, add(CFA_XSP16, literal(-6)))
          CFI (cfiCond124) ?RET_LOW load(1, XDATA, add(CFA_XSP16, literal(-5)))
          CFI (cfiCond124) ?RET_HIGH load(1, XDATA, add(CFA_XSP16, literal(-4)))
          CFI (cfiCond124) ?BRET_EXT load(1, XDATA, add(CFA_XSP16, literal(-3)))
          CFI (cfiCond124) DPL0 load(1, XDATA, add(CFA_XSP16, literal(-2)))
          CFI (cfiCond124) DPH0 load(1, XDATA, add(CFA_XSP16, literal(-1)))
          CFI (cfiCond124) CFA_SP SP+-2
          CFI (cfiCond124) CFA_XSP16 add(XSP16, 19)
          CFI Block cfiCond125 Using cfiCommon0
          CFI (cfiCond125) Function MT_AfCommandProcessing
          CFI (cfiCond125) Conditional ??CrossCallReturnLabel_110
          CFI (cfiCond125) R6 load(1, XDATA, add(CFA_XSP16, literal(-14)))
          CFI (cfiCond125) VB load(1, XDATA, add(CFA_XSP16, literal(-13)))
          CFI (cfiCond125) V0 load(1, XDATA, add(CFA_XSP16, literal(-12)))
          CFI (cfiCond125) V1 load(1, XDATA, add(CFA_XSP16, literal(-11)))
          CFI (cfiCond125) V2 load(1, XDATA, add(CFA_XSP16, literal(-10)))
          CFI (cfiCond125) V3 load(1, XDATA, add(CFA_XSP16, literal(-9)))
          CFI (cfiCond125) V4 load(1, XDATA, add(CFA_XSP16, literal(-8)))
          CFI (cfiCond125) V5 load(1, XDATA, add(CFA_XSP16, literal(-7)))
          CFI (cfiCond125) R7 load(1, XDATA, add(CFA_XSP16, literal(-6)))
          CFI (cfiCond125) ?RET_LOW load(1, XDATA, add(CFA_XSP16, literal(-5)))
          CFI (cfiCond125) ?RET_HIGH load(1, XDATA, add(CFA_XSP16, literal(-4)))
          CFI (cfiCond125) ?BRET_EXT load(1, XDATA, add(CFA_XSP16, literal(-3)))
          CFI (cfiCond125) DPL0 load(1, XDATA, add(CFA_XSP16, literal(-2)))
          CFI (cfiCond125) DPH0 load(1, XDATA, add(CFA_XSP16, literal(-1)))
          CFI (cfiCond125) CFA_SP SP+-2
          CFI (cfiCond125) CFA_XSP16 add(XSP16, 19)
          CFI Block cfiPicker126 Using cfiCommon1
          CFI (cfiPicker126) NoFunction
          CFI (cfiPicker126) Picker
        MOVX      @DPTR,A
        MOV       DPL,R0
        MOV       DPH,R1
        RET
          CFI EndBlock cfiCond122
          CFI EndBlock cfiCond123
          CFI EndBlock cfiCond124
          CFI EndBlock cfiCond125
          CFI EndBlock cfiPicker126

        RSEG BANKED_CODE:HUGECODE:NOROOT(0)
?Subroutine33:
          CFI Block cfiCond127 Using cfiCommon0
          CFI Function MT_AfIncomingMsg
          CFI Conditional ??CrossCallReturnLabel_113
          CFI R6 load(1, XDATA, add(CFA_XSP16, literal(-16)))
          CFI VB load(1, XDATA, add(CFA_XSP16, literal(-15)))
          CFI V0 load(1, XDATA, add(CFA_XSP16, literal(-14)))
          CFI V1 load(1, XDATA, add(CFA_XSP16, literal(-13)))
          CFI V2 load(1, XDATA, add(CFA_XSP16, literal(-12)))
          CFI V3 load(1, XDATA, add(CFA_XSP16, literal(-11)))
          CFI V4 load(1, XDATA, add(CFA_XSP16, literal(-10)))
          CFI V5 load(1, XDATA, add(CFA_XSP16, literal(-9)))
          CFI V6 load(1, XDATA, add(CFA_XSP16, literal(-8)))
          CFI V7 load(1, XDATA, add(CFA_XSP16, literal(-7)))
          CFI R7 load(1, XDATA, add(CFA_XSP16, literal(-6)))
          CFI ?RET_LOW load(1, XDATA, add(CFA_XSP16, literal(-5)))
          CFI ?RET_HIGH load(1, XDATA, add(CFA_XSP16, literal(-4)))
          CFI ?BRET_EXT load(1, XDATA, add(CFA_XSP16, literal(-3)))
          CFI DPL0 load(1, XDATA, add(CFA_XSP16, literal(-2)))
          CFI DPH0 load(1, XDATA, add(CFA_XSP16, literal(-1)))
          CFI CFA_SP SP+-2
          CFI CFA_XSP16 add(XSP16, 25)
          CFI Block cfiCond128 Using cfiCommon0
          CFI (cfiCond128) Function MT_AfDataRetrieve
          CFI (cfiCond128) Conditional ??CrossCallReturnLabel_114
          CFI (cfiCond128) R6 load(1, XDATA, add(CFA_XSP16, literal(-16)))
          CFI (cfiCond128) VB load(1, XDATA, add(CFA_XSP16, literal(-15)))
          CFI (cfiCond128) V0 load(1, XDATA, add(CFA_XSP16, literal(-14)))
          CFI (cfiCond128) V1 load(1, XDATA, add(CFA_XSP16, literal(-13)))
          CFI (cfiCond128) V2 load(1, XDATA, add(CFA_XSP16, literal(-12)))
          CFI (cfiCond128) V3 load(1, XDATA, add(CFA_XSP16, literal(-11)))
          CFI (cfiCond128) V4 load(1, XDATA, add(CFA_XSP16, literal(-10)))
          CFI (cfiCond128) V5 load(1, XDATA, add(CFA_XSP16, literal(-9)))
          CFI (cfiCond128) V6 load(1, XDATA, add(CFA_XSP16, literal(-8)))
          CFI (cfiCond128) V7 load(1, XDATA, add(CFA_XSP16, literal(-7)))
          CFI (cfiCond128) R7 load(1, XDATA, add(CFA_XSP16, literal(-6)))
          CFI (cfiCond128) ?RET_LOW load(1, XDATA, add(CFA_XSP16, literal(-5)))
          CFI (cfiCond128) ?RET_HIGH load(1, XDATA, add(CFA_XSP16, literal(-4)))
          CFI (cfiCond128) ?BRET_EXT load(1, XDATA, add(CFA_XSP16, literal(-3)))
          CFI (cfiCond128) DPL0 load(1, XDATA, add(CFA_XSP16, literal(-2)))
          CFI (cfiCond128) DPH0 load(1, XDATA, add(CFA_XSP16, literal(-1)))
          CFI (cfiCond128) CFA_SP SP+-2
          CFI (cfiCond128) CFA_XSP16 add(XSP16, 18)
          CFI Block cfiPicker129 Using cfiCommon1
          CFI (cfiPicker129) NoFunction
          CFI (cfiPicker129) Picker
        INC       DPTR
          CFI EndBlock cfiCond127
          CFI EndBlock cfiCond128
          CFI EndBlock cfiPicker129
        REQUIRE ??Subroutine57_0
        ; // Fall through to label ??Subroutine57_0

        RSEG BANKED_CODE:HUGECODE:NOROOT(0)
??Subroutine57_0:
          CFI Block cfiCond130 Using cfiCommon0
          CFI Function MT_AfDataRetrieve
          CFI Conditional ??CrossCallReturnLabel_115
          CFI R6 load(1, XDATA, add(CFA_XSP16, literal(-16)))
          CFI VB load(1, XDATA, add(CFA_XSP16, literal(-15)))
          CFI V0 load(1, XDATA, add(CFA_XSP16, literal(-14)))
          CFI V1 load(1, XDATA, add(CFA_XSP16, literal(-13)))
          CFI V2 load(1, XDATA, add(CFA_XSP16, literal(-12)))
          CFI V3 load(1, XDATA, add(CFA_XSP16, literal(-11)))
          CFI V4 load(1, XDATA, add(CFA_XSP16, literal(-10)))
          CFI V5 load(1, XDATA, add(CFA_XSP16, literal(-9)))
          CFI V6 load(1, XDATA, add(CFA_XSP16, literal(-8)))
          CFI V7 load(1, XDATA, add(CFA_XSP16, literal(-7)))
          CFI R7 load(1, XDATA, add(CFA_XSP16, literal(-6)))
          CFI ?RET_LOW load(1, XDATA, add(CFA_XSP16, literal(-5)))
          CFI ?RET_HIGH load(1, XDATA, add(CFA_XSP16, literal(-4)))
          CFI ?BRET_EXT load(1, XDATA, add(CFA_XSP16, literal(-3)))
          CFI DPL0 load(1, XDATA, add(CFA_XSP16, literal(-2)))
          CFI DPH0 load(1, XDATA, add(CFA_XSP16, literal(-1)))
          CFI CFA_SP SP+-2
          CFI CFA_XSP16 add(XSP16, 18)
          CFI Block cfiCond131 Using cfiCommon0
          CFI (cfiCond131) Function MT_AfIncomingMsg
          CFI (cfiCond131) Conditional ??CrossCallReturnLabel_113
          CFI (cfiCond131) R6 load(1, XDATA, add(CFA_XSP16, literal(-16)))
          CFI (cfiCond131) VB load(1, XDATA, add(CFA_XSP16, literal(-15)))
          CFI (cfiCond131) V0 load(1, XDATA, add(CFA_XSP16, literal(-14)))
          CFI (cfiCond131) V1 load(1, XDATA, add(CFA_XSP16, literal(-13)))
          CFI (cfiCond131) V2 load(1, XDATA, add(CFA_XSP16, literal(-12)))
          CFI (cfiCond131) V3 load(1, XDATA, add(CFA_XSP16, literal(-11)))
          CFI (cfiCond131) V4 load(1, XDATA, add(CFA_XSP16, literal(-10)))
          CFI (cfiCond131) V5 load(1, XDATA, add(CFA_XSP16, literal(-9)))
          CFI (cfiCond131) V6 load(1, XDATA, add(CFA_XSP16, literal(-8)))
          CFI (cfiCond131) V7 load(1, XDATA, add(CFA_XSP16, literal(-7)))
          CFI (cfiCond131) R7 load(1, XDATA, add(CFA_XSP16, literal(-6)))
          CFI (cfiCond131) ?RET_LOW load(1, XDATA, add(CFA_XSP16, literal(-5)))
          CFI (cfiCond131) ?RET_HIGH load(1, XDATA, add(CFA_XSP16, literal(-4)))
          CFI (cfiCond131) ?BRET_EXT load(1, XDATA, add(CFA_XSP16, literal(-3)))
          CFI (cfiCond131) DPL0 load(1, XDATA, add(CFA_XSP16, literal(-2)))
          CFI (cfiCond131) DPH0 load(1, XDATA, add(CFA_XSP16, literal(-1)))
          CFI (cfiCond131) CFA_SP SP+-2
          CFI (cfiCond131) CFA_XSP16 add(XSP16, 25)
          CFI Block cfiCond132 Using cfiCommon0
          CFI (cfiCond132) Function MT_AfDataRetrieve
          CFI (cfiCond132) Conditional ??CrossCallReturnLabel_114
          CFI (cfiCond132) R6 load(1, XDATA, add(CFA_XSP16, literal(-16)))
          CFI (cfiCond132) VB load(1, XDATA, add(CFA_XSP16, literal(-15)))
          CFI (cfiCond132) V0 load(1, XDATA, add(CFA_XSP16, literal(-14)))
          CFI (cfiCond132) V1 load(1, XDATA, add(CFA_XSP16, literal(-13)))
          CFI (cfiCond132) V2 load(1, XDATA, add(CFA_XSP16, literal(-12)))
          CFI (cfiCond132) V3 load(1, XDATA, add(CFA_XSP16, literal(-11)))
          CFI (cfiCond132) V4 load(1, XDATA, add(CFA_XSP16, literal(-10)))
          CFI (cfiCond132) V5 load(1, XDATA, add(CFA_XSP16, literal(-9)))
          CFI (cfiCond132) V6 load(1, XDATA, add(CFA_XSP16, literal(-8)))
          CFI (cfiCond132) V7 load(1, XDATA, add(CFA_XSP16, literal(-7)))
          CFI (cfiCond132) R7 load(1, XDATA, add(CFA_XSP16, literal(-6)))
          CFI (cfiCond132) ?RET_LOW load(1, XDATA, add(CFA_XSP16, literal(-5)))
          CFI (cfiCond132) ?RET_HIGH load(1, XDATA, add(CFA_XSP16, literal(-4)))
          CFI (cfiCond132) ?BRET_EXT load(1, XDATA, add(CFA_XSP16, literal(-3)))
          CFI (cfiCond132) DPL0 load(1, XDATA, add(CFA_XSP16, literal(-2)))
          CFI (cfiCond132) DPH0 load(1, XDATA, add(CFA_XSP16, literal(-1)))
          CFI (cfiCond132) CFA_SP SP+-2
          CFI (cfiCond132) CFA_XSP16 add(XSP16, 18)
          CFI Block cfiPicker133 Using cfiCommon1
          CFI (cfiPicker133) NoFunction
          CFI (cfiPicker133) Picker
        MOVX      @DPTR,A
        ; Setup parameters for call to function osal_memcpy
        ; Setup parameters for call to function osal_mem_free
        MOV       DPL,?XSP + 0
        MOV       DPH,?XSP + 1
        RET
          CFI EndBlock cfiCond130
          CFI EndBlock cfiCond131
          CFI EndBlock cfiCond132
          CFI EndBlock cfiPicker133

        RSEG BANKED_CODE:HUGECODE:NOROOT(0)
?Subroutine32:
          CFI Block cfiCond134 Using cfiCommon0
          CFI Function MT_AfDataRequest
          CFI Conditional ??CrossCallReturnLabel_69
          CFI R6 load(1, XDATA, add(CFA_XSP16, literal(-16)))
          CFI VB load(1, XDATA, add(CFA_XSP16, literal(-15)))
          CFI V0 load(1, XDATA, add(CFA_XSP16, literal(-14)))
          CFI V1 load(1, XDATA, add(CFA_XSP16, literal(-13)))
          CFI V2 load(1, XDATA, add(CFA_XSP16, literal(-12)))
          CFI V3 load(1, XDATA, add(CFA_XSP16, literal(-11)))
          CFI V4 load(1, XDATA, add(CFA_XSP16, literal(-10)))
          CFI V5 load(1, XDATA, add(CFA_XSP16, literal(-9)))
          CFI V6 load(1, XDATA, add(CFA_XSP16, literal(-8)))
          CFI V7 load(1, XDATA, add(CFA_XSP16, literal(-7)))
          CFI R7 load(1, XDATA, add(CFA_XSP16, literal(-6)))
          CFI ?RET_LOW load(1, XDATA, add(CFA_XSP16, literal(-5)))
          CFI ?RET_HIGH load(1, XDATA, add(CFA_XSP16, literal(-4)))
          CFI ?BRET_EXT load(1, XDATA, add(CFA_XSP16, literal(-3)))
          CFI DPL0 load(1, XDATA, add(CFA_XSP16, literal(-2)))
          CFI DPH0 load(1, XDATA, add(CFA_XSP16, literal(-1)))
          CFI CFA_SP SP+-2
          CFI CFA_XSP16 add(XSP16, 34)
          CFI Block cfiCond135 Using cfiCommon0
          CFI (cfiCond135) Function MT_AfIncomingMsg
          CFI (cfiCond135) Conditional ??CrossCallReturnLabel_70
          CFI (cfiCond135) R6 load(1, XDATA, add(CFA_XSP16, literal(-16)))
          CFI (cfiCond135) VB load(1, XDATA, add(CFA_XSP16, literal(-15)))
          CFI (cfiCond135) V0 load(1, XDATA, add(CFA_XSP16, literal(-14)))
          CFI (cfiCond135) V1 load(1, XDATA, add(CFA_XSP16, literal(-13)))
          CFI (cfiCond135) V2 load(1, XDATA, add(CFA_XSP16, literal(-12)))
          CFI (cfiCond135) V3 load(1, XDATA, add(CFA_XSP16, literal(-11)))
          CFI (cfiCond135) V4 load(1, XDATA, add(CFA_XSP16, literal(-10)))
          CFI (cfiCond135) V5 load(1, XDATA, add(CFA_XSP16, literal(-9)))
          CFI (cfiCond135) V6 load(1, XDATA, add(CFA_XSP16, literal(-8)))
          CFI (cfiCond135) V7 load(1, XDATA, add(CFA_XSP16, literal(-7)))
          CFI (cfiCond135) R7 load(1, XDATA, add(CFA_XSP16, literal(-6)))
          CFI (cfiCond135) ?RET_LOW load(1, XDATA, add(CFA_XSP16, literal(-5)))
          CFI (cfiCond135) ?RET_HIGH load(1, XDATA, add(CFA_XSP16, literal(-4)))
          CFI (cfiCond135) ?BRET_EXT load(1, XDATA, add(CFA_XSP16, literal(-3)))
          CFI (cfiCond135) DPL0 load(1, XDATA, add(CFA_XSP16, literal(-2)))
          CFI (cfiCond135) DPH0 load(1, XDATA, add(CFA_XSP16, literal(-1)))
          CFI (cfiCond135) CFA_SP SP+-2
          CFI (cfiCond135) CFA_XSP16 add(XSP16, 25)
          CFI Block cfiCond136 Using cfiCommon0
          CFI (cfiCond136) Function MT_AfIncomingMsg
          CFI (cfiCond136) Conditional ??CrossCallReturnLabel_71
          CFI (cfiCond136) R6 load(1, XDATA, add(CFA_XSP16, literal(-16)))
          CFI (cfiCond136) VB load(1, XDATA, add(CFA_XSP16, literal(-15)))
          CFI (cfiCond136) V0 load(1, XDATA, add(CFA_XSP16, literal(-14)))
          CFI (cfiCond136) V1 load(1, XDATA, add(CFA_XSP16, literal(-13)))
          CFI (cfiCond136) V2 load(1, XDATA, add(CFA_XSP16, literal(-12)))
          CFI (cfiCond136) V3 load(1, XDATA, add(CFA_XSP16, literal(-11)))
          CFI (cfiCond136) V4 load(1, XDATA, add(CFA_XSP16, literal(-10)))
          CFI (cfiCond136) V5 load(1, XDATA, add(CFA_XSP16, literal(-9)))
          CFI (cfiCond136) V6 load(1, XDATA, add(CFA_XSP16, literal(-8)))
          CFI (cfiCond136) V7 load(1, XDATA, add(CFA_XSP16, literal(-7)))
          CFI (cfiCond136) R7 load(1, XDATA, add(CFA_XSP16, literal(-6)))
          CFI (cfiCond136) ?RET_LOW load(1, XDATA, add(CFA_XSP16, literal(-5)))
          CFI (cfiCond136) ?RET_HIGH load(1, XDATA, add(CFA_XSP16, literal(-4)))
          CFI (cfiCond136) ?BRET_EXT load(1, XDATA, add(CFA_XSP16, literal(-3)))
          CFI (cfiCond136) DPL0 load(1, XDATA, add(CFA_XSP16, literal(-2)))
          CFI (cfiCond136) DPH0 load(1, XDATA, add(CFA_XSP16, literal(-1)))
          CFI (cfiCond136) CFA_SP SP+-2
          CFI (cfiCond136) CFA_XSP16 add(XSP16, 25)
          CFI Block cfiPicker137 Using cfiCommon1
          CFI (cfiPicker137) NoFunction
          CFI (cfiPicker137) Picker
        LCALL     ?Subroutine53 & 0xFFFF
??CrossCallReturnLabel_105:
        MOVX      A,@DPTR
        RET
          CFI EndBlock cfiCond134
          CFI EndBlock cfiCond135
          CFI EndBlock cfiCond136
          CFI EndBlock cfiPicker137

        RSEG BANKED_CODE:HUGECODE:NOROOT(0)
?Subroutine30:
          CFI Block cfiCond138 Using cfiCommon0
          CFI Function MT_AfIncomingMsg
          CFI Conditional ??CrossCallReturnLabel_66
          CFI R6 load(1, XDATA, add(CFA_XSP16, literal(-16)))
          CFI VB load(1, XDATA, add(CFA_XSP16, literal(-15)))
          CFI V0 load(1, XDATA, add(CFA_XSP16, literal(-14)))
          CFI V1 load(1, XDATA, add(CFA_XSP16, literal(-13)))
          CFI V2 load(1, XDATA, add(CFA_XSP16, literal(-12)))
          CFI V3 load(1, XDATA, add(CFA_XSP16, literal(-11)))
          CFI V4 load(1, XDATA, add(CFA_XSP16, literal(-10)))
          CFI V5 load(1, XDATA, add(CFA_XSP16, literal(-9)))
          CFI V6 load(1, XDATA, add(CFA_XSP16, literal(-8)))
          CFI V7 load(1, XDATA, add(CFA_XSP16, literal(-7)))
          CFI R7 load(1, XDATA, add(CFA_XSP16, literal(-6)))
          CFI ?RET_LOW load(1, XDATA, add(CFA_XSP16, literal(-5)))
          CFI ?RET_HIGH load(1, XDATA, add(CFA_XSP16, literal(-4)))
          CFI ?BRET_EXT load(1, XDATA, add(CFA_XSP16, literal(-3)))
          CFI DPL0 load(1, XDATA, add(CFA_XSP16, literal(-2)))
          CFI DPH0 load(1, XDATA, add(CFA_XSP16, literal(-1)))
          CFI CFA_SP SP+-2
          CFI CFA_XSP16 add(XSP16, 25)
          CFI Block cfiCond139 Using cfiCommon0
          CFI (cfiCond139) Function MT_AfIncomingMsg
          CFI (cfiCond139) Conditional ??CrossCallReturnLabel_67
          CFI (cfiCond139) R6 load(1, XDATA, add(CFA_XSP16, literal(-16)))
          CFI (cfiCond139) VB load(1, XDATA, add(CFA_XSP16, literal(-15)))
          CFI (cfiCond139) V0 load(1, XDATA, add(CFA_XSP16, literal(-14)))
          CFI (cfiCond139) V1 load(1, XDATA, add(CFA_XSP16, literal(-13)))
          CFI (cfiCond139) V2 load(1, XDATA, add(CFA_XSP16, literal(-12)))
          CFI (cfiCond139) V3 load(1, XDATA, add(CFA_XSP16, literal(-11)))
          CFI (cfiCond139) V4 load(1, XDATA, add(CFA_XSP16, literal(-10)))
          CFI (cfiCond139) V5 load(1, XDATA, add(CFA_XSP16, literal(-9)))
          CFI (cfiCond139) V6 load(1, XDATA, add(CFA_XSP16, literal(-8)))
          CFI (cfiCond139) V7 load(1, XDATA, add(CFA_XSP16, literal(-7)))
          CFI (cfiCond139) R7 load(1, XDATA, add(CFA_XSP16, literal(-6)))
          CFI (cfiCond139) ?RET_LOW load(1, XDATA, add(CFA_XSP16, literal(-5)))
          CFI (cfiCond139) ?RET_HIGH load(1, XDATA, add(CFA_XSP16, literal(-4)))
          CFI (cfiCond139) ?BRET_EXT load(1, XDATA, add(CFA_XSP16, literal(-3)))
          CFI (cfiCond139) DPL0 load(1, XDATA, add(CFA_XSP16, literal(-2)))
          CFI (cfiCond139) DPH0 load(1, XDATA, add(CFA_XSP16, literal(-1)))
          CFI (cfiCond139) CFA_SP SP+-2
          CFI (cfiCond139) CFA_XSP16 add(XSP16, 25)
          CFI Block cfiCond140 Using cfiCommon0
          CFI (cfiCond140) Function MT_AfIncomingMsg
          CFI (cfiCond140) Conditional ??CrossCallReturnLabel_68
          CFI (cfiCond140) R6 load(1, XDATA, add(CFA_XSP16, literal(-16)))
          CFI (cfiCond140) VB load(1, XDATA, add(CFA_XSP16, literal(-15)))
          CFI (cfiCond140) V0 load(1, XDATA, add(CFA_XSP16, literal(-14)))
          CFI (cfiCond140) V1 load(1, XDATA, add(CFA_XSP16, literal(-13)))
          CFI (cfiCond140) V2 load(1, XDATA, add(CFA_XSP16, literal(-12)))
          CFI (cfiCond140) V3 load(1, XDATA, add(CFA_XSP16, literal(-11)))
          CFI (cfiCond140) V4 load(1, XDATA, add(CFA_XSP16, literal(-10)))
          CFI (cfiCond140) V5 load(1, XDATA, add(CFA_XSP16, literal(-9)))
          CFI (cfiCond140) V6 load(1, XDATA, add(CFA_XSP16, literal(-8)))
          CFI (cfiCond140) V7 load(1, XDATA, add(CFA_XSP16, literal(-7)))
          CFI (cfiCond140) R7 load(1, XDATA, add(CFA_XSP16, literal(-6)))
          CFI (cfiCond140) ?RET_LOW load(1, XDATA, add(CFA_XSP16, literal(-5)))
          CFI (cfiCond140) ?RET_HIGH load(1, XDATA, add(CFA_XSP16, literal(-4)))
          CFI (cfiCond140) ?BRET_EXT load(1, XDATA, add(CFA_XSP16, literal(-3)))
          CFI (cfiCond140) DPL0 load(1, XDATA, add(CFA_XSP16, literal(-2)))
          CFI (cfiCond140) DPH0 load(1, XDATA, add(CFA_XSP16, literal(-1)))
          CFI (cfiCond140) CFA_SP SP+-2
          CFI (cfiCond140) CFA_XSP16 add(XSP16, 25)
          CFI Block cfiPicker141 Using cfiCommon1
          CFI (cfiPicker141) NoFunction
          CFI (cfiPicker141) Picker
        MOVX      @DPTR,A
        MOV       DPL,?XSP + 0
        MOV       DPH,?XSP + 1
        MOVX      A,@DPTR
        RET
          CFI EndBlock cfiCond138
          CFI EndBlock cfiCond139
          CFI EndBlock cfiCond140
          CFI EndBlock cfiPicker141

        RSEG BANKED_CODE:HUGECODE:NOROOT(0)
?Subroutine27:
          CFI Block cfiCond142 Using cfiCommon0
          CFI Function MT_AfIncomingMsg
          CFI Conditional ??CrossCallReturnLabel_49
          CFI R6 load(1, XDATA, add(CFA_XSP16, literal(-16)))
          CFI VB load(1, XDATA, add(CFA_XSP16, literal(-15)))
          CFI V0 load(1, XDATA, add(CFA_XSP16, literal(-14)))
          CFI V1 load(1, XDATA, add(CFA_XSP16, literal(-13)))
          CFI V2 load(1, XDATA, add(CFA_XSP16, literal(-12)))
          CFI V3 load(1, XDATA, add(CFA_XSP16, literal(-11)))
          CFI V4 load(1, XDATA, add(CFA_XSP16, literal(-10)))
          CFI V5 load(1, XDATA, add(CFA_XSP16, literal(-9)))
          CFI V6 load(1, XDATA, add(CFA_XSP16, literal(-8)))
          CFI V7 load(1, XDATA, add(CFA_XSP16, literal(-7)))
          CFI R7 load(1, XDATA, add(CFA_XSP16, literal(-6)))
          CFI ?RET_LOW load(1, XDATA, add(CFA_XSP16, literal(-5)))
          CFI ?RET_HIGH load(1, XDATA, add(CFA_XSP16, literal(-4)))
          CFI ?BRET_EXT load(1, XDATA, add(CFA_XSP16, literal(-3)))
          CFI DPL0 load(1, XDATA, add(CFA_XSP16, literal(-2)))
          CFI DPH0 load(1, XDATA, add(CFA_XSP16, literal(-1)))
          CFI CFA_SP SP+-2
          CFI CFA_XSP16 add(XSP16, 25)
          CFI Block cfiCond143 Using cfiCommon0
          CFI (cfiCond143) Function MT_AfIncomingMsg
          CFI (cfiCond143) Conditional ??CrossCallReturnLabel_50
          CFI (cfiCond143) R6 load(1, XDATA, add(CFA_XSP16, literal(-16)))
          CFI (cfiCond143) VB load(1, XDATA, add(CFA_XSP16, literal(-15)))
          CFI (cfiCond143) V0 load(1, XDATA, add(CFA_XSP16, literal(-14)))
          CFI (cfiCond143) V1 load(1, XDATA, add(CFA_XSP16, literal(-13)))
          CFI (cfiCond143) V2 load(1, XDATA, add(CFA_XSP16, literal(-12)))
          CFI (cfiCond143) V3 load(1, XDATA, add(CFA_XSP16, literal(-11)))
          CFI (cfiCond143) V4 load(1, XDATA, add(CFA_XSP16, literal(-10)))
          CFI (cfiCond143) V5 load(1, XDATA, add(CFA_XSP16, literal(-9)))
          CFI (cfiCond143) V6 load(1, XDATA, add(CFA_XSP16, literal(-8)))
          CFI (cfiCond143) V7 load(1, XDATA, add(CFA_XSP16, literal(-7)))
          CFI (cfiCond143) R7 load(1, XDATA, add(CFA_XSP16, literal(-6)))
          CFI (cfiCond143) ?RET_LOW load(1, XDATA, add(CFA_XSP16, literal(-5)))
          CFI (cfiCond143) ?RET_HIGH load(1, XDATA, add(CFA_XSP16, literal(-4)))
          CFI (cfiCond143) ?BRET_EXT load(1, XDATA, add(CFA_XSP16, literal(-3)))
          CFI (cfiCond143) DPL0 load(1, XDATA, add(CFA_XSP16, literal(-2)))
          CFI (cfiCond143) DPH0 load(1, XDATA, add(CFA_XSP16, literal(-1)))
          CFI (cfiCond143) CFA_SP SP+-2
          CFI (cfiCond143) CFA_XSP16 add(XSP16, 25)
          CFI Block cfiPicker144 Using cfiCommon1
          CFI (cfiPicker144) NoFunction
          CFI (cfiPicker144) Picker
        MOVX      @DPTR,A
        MOV       DPL,?V6
        MOV       DPH,?V7
        INC       DPTR
        INC       DPTR
        INC       DPTR
        INC       DPTR
        INC       DPTR
        INC       DPTR
        INC       DPTR
        INC       DPTR
        INC       DPTR
        RET
          CFI EndBlock cfiCond142
          CFI EndBlock cfiCond143
          CFI EndBlock cfiPicker144

        RSEG BANKED_CODE:HUGECODE:NOROOT(0)
?Subroutine26:
          CFI Block cfiCond145 Using cfiCommon0
          CFI Function MT_AfIncomingMsg
          CFI Conditional ??CrossCallReturnLabel_47
          CFI R6 load(1, XDATA, add(CFA_XSP16, literal(-16)))
          CFI VB load(1, XDATA, add(CFA_XSP16, literal(-15)))
          CFI V0 load(1, XDATA, add(CFA_XSP16, literal(-14)))
          CFI V1 load(1, XDATA, add(CFA_XSP16, literal(-13)))
          CFI V2 load(1, XDATA, add(CFA_XSP16, literal(-12)))
          CFI V3 load(1, XDATA, add(CFA_XSP16, literal(-11)))
          CFI V4 load(1, XDATA, add(CFA_XSP16, literal(-10)))
          CFI V5 load(1, XDATA, add(CFA_XSP16, literal(-9)))
          CFI V6 load(1, XDATA, add(CFA_XSP16, literal(-8)))
          CFI V7 load(1, XDATA, add(CFA_XSP16, literal(-7)))
          CFI R7 load(1, XDATA, add(CFA_XSP16, literal(-6)))
          CFI ?RET_LOW load(1, XDATA, add(CFA_XSP16, literal(-5)))
          CFI ?RET_HIGH load(1, XDATA, add(CFA_XSP16, literal(-4)))
          CFI ?BRET_EXT load(1, XDATA, add(CFA_XSP16, literal(-3)))
          CFI DPL0 load(1, XDATA, add(CFA_XSP16, literal(-2)))
          CFI DPH0 load(1, XDATA, add(CFA_XSP16, literal(-1)))
          CFI CFA_SP SP+-2
          CFI CFA_XSP16 add(XSP16, 25)
          CFI Block cfiCond146 Using cfiCommon0
          CFI (cfiCond146) Function MT_AfIncomingMsg
          CFI (cfiCond146) Conditional ??CrossCallReturnLabel_48
          CFI (cfiCond146) R6 load(1, XDATA, add(CFA_XSP16, literal(-16)))
          CFI (cfiCond146) VB load(1, XDATA, add(CFA_XSP16, literal(-15)))
          CFI (cfiCond146) V0 load(1, XDATA, add(CFA_XSP16, literal(-14)))
          CFI (cfiCond146) V1 load(1, XDATA, add(CFA_XSP16, literal(-13)))
          CFI (cfiCond146) V2 load(1, XDATA, add(CFA_XSP16, literal(-12)))
          CFI (cfiCond146) V3 load(1, XDATA, add(CFA_XSP16, literal(-11)))
          CFI (cfiCond146) V4 load(1, XDATA, add(CFA_XSP16, literal(-10)))
          CFI (cfiCond146) V5 load(1, XDATA, add(CFA_XSP16, literal(-9)))
          CFI (cfiCond146) V6 load(1, XDATA, add(CFA_XSP16, literal(-8)))
          CFI (cfiCond146) V7 load(1, XDATA, add(CFA_XSP16, literal(-7)))
          CFI (cfiCond146) R7 load(1, XDATA, add(CFA_XSP16, literal(-6)))
          CFI (cfiCond146) ?RET_LOW load(1, XDATA, add(CFA_XSP16, literal(-5)))
          CFI (cfiCond146) ?RET_HIGH load(1, XDATA, add(CFA_XSP16, literal(-4)))
          CFI (cfiCond146) ?BRET_EXT load(1, XDATA, add(CFA_XSP16, literal(-3)))
          CFI (cfiCond146) DPL0 load(1, XDATA, add(CFA_XSP16, literal(-2)))
          CFI (cfiCond146) DPH0 load(1, XDATA, add(CFA_XSP16, literal(-1)))
          CFI (cfiCond146) CFA_SP SP+-2
          CFI (cfiCond146) CFA_XSP16 add(XSP16, 25)
          CFI Block cfiPicker147 Using cfiCommon1
          CFI (cfiPicker147) NoFunction
          CFI (cfiPicker147) Picker
        LCALL     ?Subroutine44 & 0xFFFF
??CrossCallReturnLabel_88:
        RET
          CFI EndBlock cfiCond145
          CFI EndBlock cfiCond146
          CFI EndBlock cfiPicker147

        RSEG BANKED_CODE:HUGECODE:NOROOT(0)
?Subroutine44:
          CFI Block cfiCond148 Using cfiCommon0
          CFI Function MT_AfIncomingMsg
          CFI Conditional ??CrossCallReturnLabel_88, ??CrossCallReturnLabel_47
          CFI R6 load(1, XDATA, add(CFA_XSP16, literal(-16)))
          CFI VB load(1, XDATA, add(CFA_XSP16, literal(-15)))
          CFI V0 load(1, XDATA, add(CFA_XSP16, literal(-14)))
          CFI V1 load(1, XDATA, add(CFA_XSP16, literal(-13)))
          CFI V2 load(1, XDATA, add(CFA_XSP16, literal(-12)))
          CFI V3 load(1, XDATA, add(CFA_XSP16, literal(-11)))
          CFI V4 load(1, XDATA, add(CFA_XSP16, literal(-10)))
          CFI V5 load(1, XDATA, add(CFA_XSP16, literal(-9)))
          CFI V6 load(1, XDATA, add(CFA_XSP16, literal(-8)))
          CFI V7 load(1, XDATA, add(CFA_XSP16, literal(-7)))
          CFI R7 load(1, XDATA, add(CFA_XSP16, literal(-6)))
          CFI ?RET_LOW load(1, XDATA, add(CFA_XSP16, literal(-5)))
          CFI ?RET_HIGH load(1, XDATA, add(CFA_XSP16, literal(-4)))
          CFI ?BRET_EXT load(1, XDATA, add(CFA_XSP16, literal(-3)))
          CFI DPL0 load(1, XDATA, add(CFA_XSP16, literal(-2)))
          CFI DPH0 load(1, XDATA, add(CFA_XSP16, literal(-1)))
          CFI CFA_SP SP+-4
          CFI CFA_XSP16 add(XSP16, 25)
          CFI Block cfiCond149 Using cfiCommon0
          CFI (cfiCond149) Function MT_AfIncomingMsg
          CFI (cfiCond149) Conditional ??CrossCallReturnLabel_88, ??CrossCallReturnLabel_48
          CFI (cfiCond149) R6 load(1, XDATA, add(CFA_XSP16, literal(-16)))
          CFI (cfiCond149) VB load(1, XDATA, add(CFA_XSP16, literal(-15)))
          CFI (cfiCond149) V0 load(1, XDATA, add(CFA_XSP16, literal(-14)))
          CFI (cfiCond149) V1 load(1, XDATA, add(CFA_XSP16, literal(-13)))
          CFI (cfiCond149) V2 load(1, XDATA, add(CFA_XSP16, literal(-12)))
          CFI (cfiCond149) V3 load(1, XDATA, add(CFA_XSP16, literal(-11)))
          CFI (cfiCond149) V4 load(1, XDATA, add(CFA_XSP16, literal(-10)))
          CFI (cfiCond149) V5 load(1, XDATA, add(CFA_XSP16, literal(-9)))
          CFI (cfiCond149) V6 load(1, XDATA, add(CFA_XSP16, literal(-8)))
          CFI (cfiCond149) V7 load(1, XDATA, add(CFA_XSP16, literal(-7)))
          CFI (cfiCond149) R7 load(1, XDATA, add(CFA_XSP16, literal(-6)))
          CFI (cfiCond149) ?RET_LOW load(1, XDATA, add(CFA_XSP16, literal(-5)))
          CFI (cfiCond149) ?RET_HIGH load(1, XDATA, add(CFA_XSP16, literal(-4)))
          CFI (cfiCond149) ?BRET_EXT load(1, XDATA, add(CFA_XSP16, literal(-3)))
          CFI (cfiCond149) DPL0 load(1, XDATA, add(CFA_XSP16, literal(-2)))
          CFI (cfiCond149) DPH0 load(1, XDATA, add(CFA_XSP16, literal(-1)))
          CFI (cfiCond149) CFA_SP SP+-4
          CFI (cfiCond149) CFA_XSP16 add(XSP16, 25)
          CFI Block cfiCond150 Using cfiCommon0
          CFI (cfiCond150) Function MT_AfIncomingMsg
          CFI (cfiCond150) Conditional ??CrossCallReturnLabel_87, ??CrossCallReturnLabel_4
          CFI (cfiCond150) R6 load(1, XDATA, add(CFA_XSP16, literal(-16)))
          CFI (cfiCond150) VB load(1, XDATA, add(CFA_XSP16, literal(-15)))
          CFI (cfiCond150) V0 load(1, XDATA, add(CFA_XSP16, literal(-14)))
          CFI (cfiCond150) V1 load(1, XDATA, add(CFA_XSP16, literal(-13)))
          CFI (cfiCond150) V2 load(1, XDATA, add(CFA_XSP16, literal(-12)))
          CFI (cfiCond150) V3 load(1, XDATA, add(CFA_XSP16, literal(-11)))
          CFI (cfiCond150) V4 load(1, XDATA, add(CFA_XSP16, literal(-10)))
          CFI (cfiCond150) V5 load(1, XDATA, add(CFA_XSP16, literal(-9)))
          CFI (cfiCond150) V6 load(1, XDATA, add(CFA_XSP16, literal(-8)))
          CFI (cfiCond150) V7 load(1, XDATA, add(CFA_XSP16, literal(-7)))
          CFI (cfiCond150) R7 load(1, XDATA, add(CFA_XSP16, literal(-6)))
          CFI (cfiCond150) ?RET_LOW load(1, XDATA, add(CFA_XSP16, literal(-5)))
          CFI (cfiCond150) ?RET_HIGH load(1, XDATA, add(CFA_XSP16, literal(-4)))
          CFI (cfiCond150) ?BRET_EXT load(1, XDATA, add(CFA_XSP16, literal(-3)))
          CFI (cfiCond150) DPL0 load(1, XDATA, add(CFA_XSP16, literal(-2)))
          CFI (cfiCond150) DPH0 load(1, XDATA, add(CFA_XSP16, literal(-1)))
          CFI (cfiCond150) CFA_SP SP+-4
          CFI (cfiCond150) CFA_XSP16 add(XSP16, 25)
          CFI Block cfiCond151 Using cfiCommon0
          CFI (cfiCond151) Function MT_AfIncomingMsg
          CFI (cfiCond151) Conditional ??CrossCallReturnLabel_87, ??CrossCallReturnLabel_5
          CFI (cfiCond151) R6 load(1, XDATA, add(CFA_XSP16, literal(-16)))
          CFI (cfiCond151) VB load(1, XDATA, add(CFA_XSP16, literal(-15)))
          CFI (cfiCond151) V0 load(1, XDATA, add(CFA_XSP16, literal(-14)))
          CFI (cfiCond151) V1 load(1, XDATA, add(CFA_XSP16, literal(-13)))
          CFI (cfiCond151) V2 load(1, XDATA, add(CFA_XSP16, literal(-12)))
          CFI (cfiCond151) V3 load(1, XDATA, add(CFA_XSP16, literal(-11)))
          CFI (cfiCond151) V4 load(1, XDATA, add(CFA_XSP16, literal(-10)))
          CFI (cfiCond151) V5 load(1, XDATA, add(CFA_XSP16, literal(-9)))
          CFI (cfiCond151) V6 load(1, XDATA, add(CFA_XSP16, literal(-8)))
          CFI (cfiCond151) V7 load(1, XDATA, add(CFA_XSP16, literal(-7)))
          CFI (cfiCond151) R7 load(1, XDATA, add(CFA_XSP16, literal(-6)))
          CFI (cfiCond151) ?RET_LOW load(1, XDATA, add(CFA_XSP16, literal(-5)))
          CFI (cfiCond151) ?RET_HIGH load(1, XDATA, add(CFA_XSP16, literal(-4)))
          CFI (cfiCond151) ?BRET_EXT load(1, XDATA, add(CFA_XSP16, literal(-3)))
          CFI (cfiCond151) DPL0 load(1, XDATA, add(CFA_XSP16, literal(-2)))
          CFI (cfiCond151) DPH0 load(1, XDATA, add(CFA_XSP16, literal(-1)))
          CFI (cfiCond151) CFA_SP SP+-4
          CFI (cfiCond151) CFA_XSP16 add(XSP16, 25)
          CFI Block cfiPicker152 Using cfiCommon1
          CFI (cfiPicker152) NoFunction
          CFI (cfiPicker152) Picker
        MOVX      A,@DPTR
        MOV       DPL,?V6
        MOV       DPH,?V7
        MOVX      @DPTR,A
        RET
          CFI EndBlock cfiCond148
          CFI EndBlock cfiCond149
          CFI EndBlock cfiCond150
          CFI EndBlock cfiCond151
          CFI EndBlock cfiPicker152

        RSEG BANKED_CODE:HUGECODE:NOROOT(0)
?Subroutine24:
          CFI Block cfiCond153 Using cfiCommon0
          CFI Function MT_AfIncomingMsg
          CFI Conditional ??CrossCallReturnLabel_43
          CFI R6 load(1, XDATA, add(CFA_XSP16, literal(-16)))
          CFI VB load(1, XDATA, add(CFA_XSP16, literal(-15)))
          CFI V0 load(1, XDATA, add(CFA_XSP16, literal(-14)))
          CFI V1 load(1, XDATA, add(CFA_XSP16, literal(-13)))
          CFI V2 load(1, XDATA, add(CFA_XSP16, literal(-12)))
          CFI V3 load(1, XDATA, add(CFA_XSP16, literal(-11)))
          CFI V4 load(1, XDATA, add(CFA_XSP16, literal(-10)))
          CFI V5 load(1, XDATA, add(CFA_XSP16, literal(-9)))
          CFI V6 load(1, XDATA, add(CFA_XSP16, literal(-8)))
          CFI V7 load(1, XDATA, add(CFA_XSP16, literal(-7)))
          CFI R7 load(1, XDATA, add(CFA_XSP16, literal(-6)))
          CFI ?RET_LOW load(1, XDATA, add(CFA_XSP16, literal(-5)))
          CFI ?RET_HIGH load(1, XDATA, add(CFA_XSP16, literal(-4)))
          CFI ?BRET_EXT load(1, XDATA, add(CFA_XSP16, literal(-3)))
          CFI DPL0 load(1, XDATA, add(CFA_XSP16, literal(-2)))
          CFI DPH0 load(1, XDATA, add(CFA_XSP16, literal(-1)))
          CFI CFA_SP SP+-2
          CFI CFA_XSP16 add(XSP16, 25)
          CFI Block cfiCond154 Using cfiCommon0
          CFI (cfiCond154) Function MT_AfIncomingMsg
          CFI (cfiCond154) Conditional ??CrossCallReturnLabel_44
          CFI (cfiCond154) R6 load(1, XDATA, add(CFA_XSP16, literal(-16)))
          CFI (cfiCond154) VB load(1, XDATA, add(CFA_XSP16, literal(-15)))
          CFI (cfiCond154) V0 load(1, XDATA, add(CFA_XSP16, literal(-14)))
          CFI (cfiCond154) V1 load(1, XDATA, add(CFA_XSP16, literal(-13)))
          CFI (cfiCond154) V2 load(1, XDATA, add(CFA_XSP16, literal(-12)))
          CFI (cfiCond154) V3 load(1, XDATA, add(CFA_XSP16, literal(-11)))
          CFI (cfiCond154) V4 load(1, XDATA, add(CFA_XSP16, literal(-10)))
          CFI (cfiCond154) V5 load(1, XDATA, add(CFA_XSP16, literal(-9)))
          CFI (cfiCond154) V6 load(1, XDATA, add(CFA_XSP16, literal(-8)))
          CFI (cfiCond154) V7 load(1, XDATA, add(CFA_XSP16, literal(-7)))
          CFI (cfiCond154) R7 load(1, XDATA, add(CFA_XSP16, literal(-6)))
          CFI (cfiCond154) ?RET_LOW load(1, XDATA, add(CFA_XSP16, literal(-5)))
          CFI (cfiCond154) ?RET_HIGH load(1, XDATA, add(CFA_XSP16, literal(-4)))
          CFI (cfiCond154) ?BRET_EXT load(1, XDATA, add(CFA_XSP16, literal(-3)))
          CFI (cfiCond154) DPL0 load(1, XDATA, add(CFA_XSP16, literal(-2)))
          CFI (cfiCond154) DPH0 load(1, XDATA, add(CFA_XSP16, literal(-1)))
          CFI (cfiCond154) CFA_SP SP+-2
          CFI (cfiCond154) CFA_XSP16 add(XSP16, 25)
          CFI Block cfiPicker155 Using cfiCommon1
          CFI (cfiPicker155) NoFunction
          CFI (cfiPicker155) Picker
        MOV       ?V0,A
        INC       DPTR
        MOVX      A,@DPTR
        ADDC      A,#0x0
        MOV       ?V1,A
        ; Setup parameters for call to function osal_buffer_uint32
        MOV       DPL,?V0
        MOV       DPH,A
        RET
          CFI EndBlock cfiCond153
          CFI EndBlock cfiCond154
          CFI EndBlock cfiPicker155

        RSEG BANKED_CODE:HUGECODE:NOROOT(0)
?Subroutine23:
          CFI Block cfiCond156 Using cfiCommon0
          CFI Function MT_AfDataRequest
          CFI Conditional ??CrossCallReturnLabel_38
          CFI R6 load(1, XDATA, add(CFA_XSP16, literal(-16)))
          CFI VB load(1, XDATA, add(CFA_XSP16, literal(-15)))
          CFI V0 load(1, XDATA, add(CFA_XSP16, literal(-14)))
          CFI V1 load(1, XDATA, add(CFA_XSP16, literal(-13)))
          CFI V2 load(1, XDATA, add(CFA_XSP16, literal(-12)))
          CFI V3 load(1, XDATA, add(CFA_XSP16, literal(-11)))
          CFI V4 load(1, XDATA, add(CFA_XSP16, literal(-10)))
          CFI V5 load(1, XDATA, add(CFA_XSP16, literal(-9)))
          CFI V6 load(1, XDATA, add(CFA_XSP16, literal(-8)))
          CFI V7 load(1, XDATA, add(CFA_XSP16, literal(-7)))
          CFI R7 load(1, XDATA, add(CFA_XSP16, literal(-6)))
          CFI ?RET_LOW load(1, XDATA, add(CFA_XSP16, literal(-5)))
          CFI ?RET_HIGH load(1, XDATA, add(CFA_XSP16, literal(-4)))
          CFI ?BRET_EXT load(1, XDATA, add(CFA_XSP16, literal(-3)))
          CFI DPL0 load(1, XDATA, add(CFA_XSP16, literal(-2)))
          CFI DPH0 load(1, XDATA, add(CFA_XSP16, literal(-1)))
          CFI CFA_SP SP+-2
          CFI CFA_XSP16 add(XSP16, 43)
          CFI Block cfiCond157 Using cfiCommon0
          CFI (cfiCond157) Function MT_AfDataRequestSrcRtg
          CFI (cfiCond157) Conditional ??CrossCallReturnLabel_39
          CFI (cfiCond157) R6 load(1, XDATA, add(CFA_XSP16, literal(-16)))
          CFI (cfiCond157) VB load(1, XDATA, add(CFA_XSP16, literal(-15)))
          CFI (cfiCond157) V0 load(1, XDATA, add(CFA_XSP16, literal(-14)))
          CFI (cfiCond157) V1 load(1, XDATA, add(CFA_XSP16, literal(-13)))
          CFI (cfiCond157) V2 load(1, XDATA, add(CFA_XSP16, literal(-12)))
          CFI (cfiCond157) V3 load(1, XDATA, add(CFA_XSP16, literal(-11)))
          CFI (cfiCond157) V4 load(1, XDATA, add(CFA_XSP16, literal(-10)))
          CFI (cfiCond157) V5 load(1, XDATA, add(CFA_XSP16, literal(-9)))
          CFI (cfiCond157) V6 load(1, XDATA, add(CFA_XSP16, literal(-8)))
          CFI (cfiCond157) V7 load(1, XDATA, add(CFA_XSP16, literal(-7)))
          CFI (cfiCond157) R7 load(1, XDATA, add(CFA_XSP16, literal(-6)))
          CFI (cfiCond157) ?RET_LOW load(1, XDATA, add(CFA_XSP16, literal(-5)))
          CFI (cfiCond157) ?RET_HIGH load(1, XDATA, add(CFA_XSP16, literal(-4)))
          CFI (cfiCond157) ?BRET_EXT load(1, XDATA, add(CFA_XSP16, literal(-3)))
          CFI (cfiCond157) DPL0 load(1, XDATA, add(CFA_XSP16, literal(-2)))
          CFI (cfiCond157) DPH0 load(1, XDATA, add(CFA_XSP16, literal(-1)))
          CFI (cfiCond157) CFA_SP SP+-2
          CFI (cfiCond157) CFA_XSP16 add(XSP16, 47)
          CFI Block cfiCond158 Using cfiCommon0
          CFI (cfiCond158) Function MT_AfIncomingMsg
          CFI (cfiCond158) Conditional ??CrossCallReturnLabel_40
          CFI (cfiCond158) R6 load(1, XDATA, add(CFA_XSP16, literal(-16)))
          CFI (cfiCond158) VB load(1, XDATA, add(CFA_XSP16, literal(-15)))
          CFI (cfiCond158) V0 load(1, XDATA, add(CFA_XSP16, literal(-14)))
          CFI (cfiCond158) V1 load(1, XDATA, add(CFA_XSP16, literal(-13)))
          CFI (cfiCond158) V2 load(1, XDATA, add(CFA_XSP16, literal(-12)))
          CFI (cfiCond158) V3 load(1, XDATA, add(CFA_XSP16, literal(-11)))
          CFI (cfiCond158) V4 load(1, XDATA, add(CFA_XSP16, literal(-10)))
          CFI (cfiCond158) V5 load(1, XDATA, add(CFA_XSP16, literal(-9)))
          CFI (cfiCond158) V6 load(1, XDATA, add(CFA_XSP16, literal(-8)))
          CFI (cfiCond158) V7 load(1, XDATA, add(CFA_XSP16, literal(-7)))
          CFI (cfiCond158) R7 load(1, XDATA, add(CFA_XSP16, literal(-6)))
          CFI (cfiCond158) ?RET_LOW load(1, XDATA, add(CFA_XSP16, literal(-5)))
          CFI (cfiCond158) ?RET_HIGH load(1, XDATA, add(CFA_XSP16, literal(-4)))
          CFI (cfiCond158) ?BRET_EXT load(1, XDATA, add(CFA_XSP16, literal(-3)))
          CFI (cfiCond158) DPL0 load(1, XDATA, add(CFA_XSP16, literal(-2)))
          CFI (cfiCond158) DPH0 load(1, XDATA, add(CFA_XSP16, literal(-1)))
          CFI (cfiCond158) CFA_SP SP+-2
          CFI (cfiCond158) CFA_XSP16 add(XSP16, 25)
          CFI Block cfiCond159 Using cfiCommon0
          CFI (cfiCond159) Function MT_AfDataStore
          CFI (cfiCond159) Conditional ??CrossCallReturnLabel_41
          CFI (cfiCond159) R6 load(1, XDATA, add(CFA_XSP16, literal(-14)))
          CFI (cfiCond159) VB load(1, XDATA, add(CFA_XSP16, literal(-13)))
          CFI (cfiCond159) V0 load(1, XDATA, add(CFA_XSP16, literal(-12)))
          CFI (cfiCond159) V1 load(1, XDATA, add(CFA_XSP16, literal(-11)))
          CFI (cfiCond159) V2 load(1, XDATA, add(CFA_XSP16, literal(-10)))
          CFI (cfiCond159) V3 load(1, XDATA, add(CFA_XSP16, literal(-9)))
          CFI (cfiCond159) V4 load(1, XDATA, add(CFA_XSP16, literal(-8)))
          CFI (cfiCond159) V5 load(1, XDATA, add(CFA_XSP16, literal(-7)))
          CFI (cfiCond159) R7 load(1, XDATA, add(CFA_XSP16, literal(-6)))
          CFI (cfiCond159) ?RET_LOW load(1, XDATA, add(CFA_XSP16, literal(-5)))
          CFI (cfiCond159) ?RET_HIGH load(1, XDATA, add(CFA_XSP16, literal(-4)))
          CFI (cfiCond159) ?BRET_EXT load(1, XDATA, add(CFA_XSP16, literal(-3)))
          CFI (cfiCond159) DPL0 load(1, XDATA, add(CFA_XSP16, literal(-2)))
          CFI (cfiCond159) DPH0 load(1, XDATA, add(CFA_XSP16, literal(-1)))
          CFI (cfiCond159) CFA_SP SP+-2
          CFI (cfiCond159) CFA_XSP16 add(XSP16, 15)
          CFI Block cfiCond160 Using cfiCommon0
          CFI (cfiCond160) Function MT_AfDataStore
          CFI (cfiCond160) Conditional ??CrossCallReturnLabel_42
          CFI (cfiCond160) R6 load(1, XDATA, add(CFA_XSP16, literal(-14)))
          CFI (cfiCond160) VB load(1, XDATA, add(CFA_XSP16, literal(-13)))
          CFI (cfiCond160) V0 load(1, XDATA, add(CFA_XSP16, literal(-12)))
          CFI (cfiCond160) V1 load(1, XDATA, add(CFA_XSP16, literal(-11)))
          CFI (cfiCond160) V2 load(1, XDATA, add(CFA_XSP16, literal(-10)))
          CFI (cfiCond160) V3 load(1, XDATA, add(CFA_XSP16, literal(-9)))
          CFI (cfiCond160) V4 load(1, XDATA, add(CFA_XSP16, literal(-8)))
          CFI (cfiCond160) V5 load(1, XDATA, add(CFA_XSP16, literal(-7)))
          CFI (cfiCond160) R7 load(1, XDATA, add(CFA_XSP16, literal(-6)))
          CFI (cfiCond160) ?RET_LOW load(1, XDATA, add(CFA_XSP16, literal(-5)))
          CFI (cfiCond160) ?RET_HIGH load(1, XDATA, add(CFA_XSP16, literal(-4)))
          CFI (cfiCond160) ?BRET_EXT load(1, XDATA, add(CFA_XSP16, literal(-3)))
          CFI (cfiCond160) DPL0 load(1, XDATA, add(CFA_XSP16, literal(-2)))
          CFI (cfiCond160) DPH0 load(1, XDATA, add(CFA_XSP16, literal(-1)))
          CFI (cfiCond160) CFA_SP SP+-2
          CFI (cfiCond160) CFA_XSP16 add(XSP16, 24)
          CFI Block cfiPicker161 Using cfiCommon1
          CFI (cfiPicker161) NoFunction
          CFI (cfiPicker161) Picker
        MOVX      A,@DPTR
        MOV       R4,A
        INC       DPTR
        MOVX      A,@DPTR
        MOV       R5,A
        RET
          CFI EndBlock cfiCond156
          CFI EndBlock cfiCond157
          CFI EndBlock cfiCond158
          CFI EndBlock cfiCond159
          CFI EndBlock cfiCond160
          CFI EndBlock cfiPicker161

        RSEG BANKED_CODE:HUGECODE:NOROOT(0)
?Subroutine22:
          CFI Block cfiCond162 Using cfiCommon0
          CFI Function MT_AfIncomingMsg
          CFI Conditional ??CrossCallReturnLabel_36
          CFI R6 load(1, XDATA, add(CFA_XSP16, literal(-16)))
          CFI VB load(1, XDATA, add(CFA_XSP16, literal(-15)))
          CFI V0 load(1, XDATA, add(CFA_XSP16, literal(-14)))
          CFI V1 load(1, XDATA, add(CFA_XSP16, literal(-13)))
          CFI V2 load(1, XDATA, add(CFA_XSP16, literal(-12)))
          CFI V3 load(1, XDATA, add(CFA_XSP16, literal(-11)))
          CFI V4 load(1, XDATA, add(CFA_XSP16, literal(-10)))
          CFI V5 load(1, XDATA, add(CFA_XSP16, literal(-9)))
          CFI V6 load(1, XDATA, add(CFA_XSP16, literal(-8)))
          CFI V7 load(1, XDATA, add(CFA_XSP16, literal(-7)))
          CFI R7 load(1, XDATA, add(CFA_XSP16, literal(-6)))
          CFI ?RET_LOW load(1, XDATA, add(CFA_XSP16, literal(-5)))
          CFI ?RET_HIGH load(1, XDATA, add(CFA_XSP16, literal(-4)))
          CFI ?BRET_EXT load(1, XDATA, add(CFA_XSP16, literal(-3)))
          CFI DPL0 load(1, XDATA, add(CFA_XSP16, literal(-2)))
          CFI DPH0 load(1, XDATA, add(CFA_XSP16, literal(-1)))
          CFI CFA_SP SP+-2
          CFI CFA_XSP16 add(XSP16, 25)
          CFI Block cfiCond163 Using cfiCommon0
          CFI (cfiCond163) Function MT_AfIncomingMsg
          CFI (cfiCond163) Conditional ??CrossCallReturnLabel_37
          CFI (cfiCond163) R6 load(1, XDATA, add(CFA_XSP16, literal(-16)))
          CFI (cfiCond163) VB load(1, XDATA, add(CFA_XSP16, literal(-15)))
          CFI (cfiCond163) V0 load(1, XDATA, add(CFA_XSP16, literal(-14)))
          CFI (cfiCond163) V1 load(1, XDATA, add(CFA_XSP16, literal(-13)))
          CFI (cfiCond163) V2 load(1, XDATA, add(CFA_XSP16, literal(-12)))
          CFI (cfiCond163) V3 load(1, XDATA, add(CFA_XSP16, literal(-11)))
          CFI (cfiCond163) V4 load(1, XDATA, add(CFA_XSP16, literal(-10)))
          CFI (cfiCond163) V5 load(1, XDATA, add(CFA_XSP16, literal(-9)))
          CFI (cfiCond163) V6 load(1, XDATA, add(CFA_XSP16, literal(-8)))
          CFI (cfiCond163) V7 load(1, XDATA, add(CFA_XSP16, literal(-7)))
          CFI (cfiCond163) R7 load(1, XDATA, add(CFA_XSP16, literal(-6)))
          CFI (cfiCond163) ?RET_LOW load(1, XDATA, add(CFA_XSP16, literal(-5)))
          CFI (cfiCond163) ?RET_HIGH load(1, XDATA, add(CFA_XSP16, literal(-4)))
          CFI (cfiCond163) ?BRET_EXT load(1, XDATA, add(CFA_XSP16, literal(-3)))
          CFI (cfiCond163) DPL0 load(1, XDATA, add(CFA_XSP16, literal(-2)))
          CFI (cfiCond163) DPH0 load(1, XDATA, add(CFA_XSP16, literal(-1)))
          CFI (cfiCond163) CFA_SP SP+-2
          CFI (cfiCond163) CFA_XSP16 add(XSP16, 25)
          CFI Block cfiPicker164 Using cfiCommon1
          CFI (cfiPicker164) NoFunction
          CFI (cfiPicker164) Picker
        MOV       DPL,?V2
        MOV       DPH,?V3
        MOVX      A,@DPTR
        MOV       ?V0,A
        INC       DPTR
        MOVX      A,@DPTR
        MOV       ?V1,A
        MOV       ?V2,#0x0
        MOV       R0,#?V0
        RET
          CFI EndBlock cfiCond162
          CFI EndBlock cfiCond163
          CFI EndBlock cfiPicker164

        RSEG BANKED_CODE:HUGECODE:NOROOT(0)
?Subroutine21:
          CFI Block cfiCond165 Using cfiCommon0
          CFI Function MT_AfIncomingMsg
          CFI Conditional ??CrossCallReturnLabel_34
          CFI R6 load(1, XDATA, add(CFA_XSP16, literal(-16)))
          CFI VB load(1, XDATA, add(CFA_XSP16, literal(-15)))
          CFI V0 load(1, XDATA, add(CFA_XSP16, literal(-14)))
          CFI V1 load(1, XDATA, add(CFA_XSP16, literal(-13)))
          CFI V2 load(1, XDATA, add(CFA_XSP16, literal(-12)))
          CFI V3 load(1, XDATA, add(CFA_XSP16, literal(-11)))
          CFI V4 load(1, XDATA, add(CFA_XSP16, literal(-10)))
          CFI V5 load(1, XDATA, add(CFA_XSP16, literal(-9)))
          CFI V6 load(1, XDATA, add(CFA_XSP16, literal(-8)))
          CFI V7 load(1, XDATA, add(CFA_XSP16, literal(-7)))
          CFI R7 load(1, XDATA, add(CFA_XSP16, literal(-6)))
          CFI ?RET_LOW load(1, XDATA, add(CFA_XSP16, literal(-5)))
          CFI ?RET_HIGH load(1, XDATA, add(CFA_XSP16, literal(-4)))
          CFI ?BRET_EXT load(1, XDATA, add(CFA_XSP16, literal(-3)))
          CFI DPL0 load(1, XDATA, add(CFA_XSP16, literal(-2)))
          CFI DPH0 load(1, XDATA, add(CFA_XSP16, literal(-1)))
          CFI CFA_SP SP+-2
          CFI CFA_XSP16 add(XSP16, 25)
          CFI Block cfiCond166 Using cfiCommon0
          CFI (cfiCond166) Function MT_AfIncomingMsg
          CFI (cfiCond166) Conditional ??CrossCallReturnLabel_35
          CFI (cfiCond166) R6 load(1, XDATA, add(CFA_XSP16, literal(-16)))
          CFI (cfiCond166) VB load(1, XDATA, add(CFA_XSP16, literal(-15)))
          CFI (cfiCond166) V0 load(1, XDATA, add(CFA_XSP16, literal(-14)))
          CFI (cfiCond166) V1 load(1, XDATA, add(CFA_XSP16, literal(-13)))
          CFI (cfiCond166) V2 load(1, XDATA, add(CFA_XSP16, literal(-12)))
          CFI (cfiCond166) V3 load(1, XDATA, add(CFA_XSP16, literal(-11)))
          CFI (cfiCond166) V4 load(1, XDATA, add(CFA_XSP16, literal(-10)))
          CFI (cfiCond166) V5 load(1, XDATA, add(CFA_XSP16, literal(-9)))
          CFI (cfiCond166) V6 load(1, XDATA, add(CFA_XSP16, literal(-8)))
          CFI (cfiCond166) V7 load(1, XDATA, add(CFA_XSP16, literal(-7)))
          CFI (cfiCond166) R7 load(1, XDATA, add(CFA_XSP16, literal(-6)))
          CFI (cfiCond166) ?RET_LOW load(1, XDATA, add(CFA_XSP16, literal(-5)))
          CFI (cfiCond166) ?RET_HIGH load(1, XDATA, add(CFA_XSP16, literal(-4)))
          CFI (cfiCond166) ?BRET_EXT load(1, XDATA, add(CFA_XSP16, literal(-3)))
          CFI (cfiCond166) DPL0 load(1, XDATA, add(CFA_XSP16, literal(-2)))
          CFI (cfiCond166) DPH0 load(1, XDATA, add(CFA_XSP16, literal(-1)))
          CFI (cfiCond166) CFA_SP SP+-2
          CFI (cfiCond166) CFA_XSP16 add(XSP16, 25)
          CFI Block cfiPicker167 Using cfiCommon1
          CFI (cfiPicker167) NoFunction
          CFI (cfiPicker167) Picker
        LCALL     ?Subroutine43 & 0xFFFF
??CrossCallReturnLabel_86:
        MOV       DPL,R2
        MOV       DPH,R3
        MOVX      A,@DPTR
        RET
          CFI EndBlock cfiCond165
          CFI EndBlock cfiCond166
          CFI EndBlock cfiPicker167

        RSEG BANKED_CODE:HUGECODE:NOROOT(0)
?Subroutine43:
          CFI Block cfiCond168 Using cfiCommon0
          CFI Function MT_AfIncomingMsg
          CFI Conditional ??CrossCallReturnLabel_85
          CFI R6 load(1, XDATA, add(CFA_XSP16, literal(-16)))
          CFI VB load(1, XDATA, add(CFA_XSP16, literal(-15)))
          CFI V0 load(1, XDATA, add(CFA_XSP16, literal(-14)))
          CFI V1 load(1, XDATA, add(CFA_XSP16, literal(-13)))
          CFI V2 load(1, XDATA, add(CFA_XSP16, literal(-12)))
          CFI V3 load(1, XDATA, add(CFA_XSP16, literal(-11)))
          CFI V4 load(1, XDATA, add(CFA_XSP16, literal(-10)))
          CFI V5 load(1, XDATA, add(CFA_XSP16, literal(-9)))
          CFI V6 load(1, XDATA, add(CFA_XSP16, literal(-8)))
          CFI V7 load(1, XDATA, add(CFA_XSP16, literal(-7)))
          CFI R7 load(1, XDATA, add(CFA_XSP16, literal(-6)))
          CFI ?RET_LOW load(1, XDATA, add(CFA_XSP16, literal(-5)))
          CFI ?RET_HIGH load(1, XDATA, add(CFA_XSP16, literal(-4)))
          CFI ?BRET_EXT load(1, XDATA, add(CFA_XSP16, literal(-3)))
          CFI DPL0 load(1, XDATA, add(CFA_XSP16, literal(-2)))
          CFI DPH0 load(1, XDATA, add(CFA_XSP16, literal(-1)))
          CFI CFA_SP SP+-2
          CFI CFA_XSP16 add(XSP16, 25)
          CFI Block cfiCond169 Using cfiCommon0
          CFI (cfiCond169) Function MT_AfIncomingMsg
          CFI (cfiCond169) Conditional ??CrossCallReturnLabel_86, ??CrossCallReturnLabel_34
          CFI (cfiCond169) R6 load(1, XDATA, add(CFA_XSP16, literal(-16)))
          CFI (cfiCond169) VB load(1, XDATA, add(CFA_XSP16, literal(-15)))
          CFI (cfiCond169) V0 load(1, XDATA, add(CFA_XSP16, literal(-14)))
          CFI (cfiCond169) V1 load(1, XDATA, add(CFA_XSP16, literal(-13)))
          CFI (cfiCond169) V2 load(1, XDATA, add(CFA_XSP16, literal(-12)))
          CFI (cfiCond169) V3 load(1, XDATA, add(CFA_XSP16, literal(-11)))
          CFI (cfiCond169) V4 load(1, XDATA, add(CFA_XSP16, literal(-10)))
          CFI (cfiCond169) V5 load(1, XDATA, add(CFA_XSP16, literal(-9)))
          CFI (cfiCond169) V6 load(1, XDATA, add(CFA_XSP16, literal(-8)))
          CFI (cfiCond169) V7 load(1, XDATA, add(CFA_XSP16, literal(-7)))
          CFI (cfiCond169) R7 load(1, XDATA, add(CFA_XSP16, literal(-6)))
          CFI (cfiCond169) ?RET_LOW load(1, XDATA, add(CFA_XSP16, literal(-5)))
          CFI (cfiCond169) ?RET_HIGH load(1, XDATA, add(CFA_XSP16, literal(-4)))
          CFI (cfiCond169) ?BRET_EXT load(1, XDATA, add(CFA_XSP16, literal(-3)))
          CFI (cfiCond169) DPL0 load(1, XDATA, add(CFA_XSP16, literal(-2)))
          CFI (cfiCond169) DPH0 load(1, XDATA, add(CFA_XSP16, literal(-1)))
          CFI (cfiCond169) CFA_SP SP+-4
          CFI (cfiCond169) CFA_XSP16 add(XSP16, 25)
          CFI Block cfiCond170 Using cfiCommon0
          CFI (cfiCond170) Function MT_AfIncomingMsg
          CFI (cfiCond170) Conditional ??CrossCallReturnLabel_86, ??CrossCallReturnLabel_35
          CFI (cfiCond170) R6 load(1, XDATA, add(CFA_XSP16, literal(-16)))
          CFI (cfiCond170) VB load(1, XDATA, add(CFA_XSP16, literal(-15)))
          CFI (cfiCond170) V0 load(1, XDATA, add(CFA_XSP16, literal(-14)))
          CFI (cfiCond170) V1 load(1, XDATA, add(CFA_XSP16, literal(-13)))
          CFI (cfiCond170) V2 load(1, XDATA, add(CFA_XSP16, literal(-12)))
          CFI (cfiCond170) V3 load(1, XDATA, add(CFA_XSP16, literal(-11)))
          CFI (cfiCond170) V4 load(1, XDATA, add(CFA_XSP16, literal(-10)))
          CFI (cfiCond170) V5 load(1, XDATA, add(CFA_XSP16, literal(-9)))
          CFI (cfiCond170) V6 load(1, XDATA, add(CFA_XSP16, literal(-8)))
          CFI (cfiCond170) V7 load(1, XDATA, add(CFA_XSP16, literal(-7)))
          CFI (cfiCond170) R7 load(1, XDATA, add(CFA_XSP16, literal(-6)))
          CFI (cfiCond170) ?RET_LOW load(1, XDATA, add(CFA_XSP16, literal(-5)))
          CFI (cfiCond170) ?RET_HIGH load(1, XDATA, add(CFA_XSP16, literal(-4)))
          CFI (cfiCond170) ?BRET_EXT load(1, XDATA, add(CFA_XSP16, literal(-3)))
          CFI (cfiCond170) DPL0 load(1, XDATA, add(CFA_XSP16, literal(-2)))
          CFI (cfiCond170) DPH0 load(1, XDATA, add(CFA_XSP16, literal(-1)))
          CFI (cfiCond170) CFA_SP SP+-4
          CFI (cfiCond170) CFA_XSP16 add(XSP16, 25)
          CFI Block cfiPicker171 Using cfiCommon1
          CFI (cfiPicker171) NoFunction
          CFI (cfiPicker171) Picker
        MOV       R0,A
        INC       DPTR
        MOVX      A,@DPTR
        ADDC      A,#0x0
        MOV       R1,A
        MOV       A,R0
        MOV       R2,A
        MOV       A,R1
        MOV       R3,A
        RET
          CFI EndBlock cfiCond168
          CFI EndBlock cfiCond169
          CFI EndBlock cfiCond170
          CFI EndBlock cfiPicker171

        RSEG BANKED_CODE:HUGECODE:NOROOT(0)
?Subroutine20:
          CFI Block cfiCond172 Using cfiCommon0
          CFI Function MT_AfIncomingMsg
          CFI Conditional ??CrossCallReturnLabel_117
          CFI R6 load(1, XDATA, add(CFA_XSP16, literal(-16)))
          CFI VB load(1, XDATA, add(CFA_XSP16, literal(-15)))
          CFI V0 load(1, XDATA, add(CFA_XSP16, literal(-14)))
          CFI V1 load(1, XDATA, add(CFA_XSP16, literal(-13)))
          CFI V2 load(1, XDATA, add(CFA_XSP16, literal(-12)))
          CFI V3 load(1, XDATA, add(CFA_XSP16, literal(-11)))
          CFI V4 load(1, XDATA, add(CFA_XSP16, literal(-10)))
          CFI V5 load(1, XDATA, add(CFA_XSP16, literal(-9)))
          CFI V6 load(1, XDATA, add(CFA_XSP16, literal(-8)))
          CFI V7 load(1, XDATA, add(CFA_XSP16, literal(-7)))
          CFI R7 load(1, XDATA, add(CFA_XSP16, literal(-6)))
          CFI ?RET_LOW load(1, XDATA, add(CFA_XSP16, literal(-5)))
          CFI ?RET_HIGH load(1, XDATA, add(CFA_XSP16, literal(-4)))
          CFI ?BRET_EXT load(1, XDATA, add(CFA_XSP16, literal(-3)))
          CFI DPL0 load(1, XDATA, add(CFA_XSP16, literal(-2)))
          CFI DPH0 load(1, XDATA, add(CFA_XSP16, literal(-1)))
          CFI CFA_SP SP+-2
          CFI CFA_XSP16 add(XSP16, 25)
          CFI Block cfiCond173 Using cfiCommon0
          CFI (cfiCond173) Function MT_AfIncomingMsg
          CFI (cfiCond173) Conditional ??CrossCallReturnLabel_118
          CFI (cfiCond173) R6 load(1, XDATA, add(CFA_XSP16, literal(-16)))
          CFI (cfiCond173) VB load(1, XDATA, add(CFA_XSP16, literal(-15)))
          CFI (cfiCond173) V0 load(1, XDATA, add(CFA_XSP16, literal(-14)))
          CFI (cfiCond173) V1 load(1, XDATA, add(CFA_XSP16, literal(-13)))
          CFI (cfiCond173) V2 load(1, XDATA, add(CFA_XSP16, literal(-12)))
          CFI (cfiCond173) V3 load(1, XDATA, add(CFA_XSP16, literal(-11)))
          CFI (cfiCond173) V4 load(1, XDATA, add(CFA_XSP16, literal(-10)))
          CFI (cfiCond173) V5 load(1, XDATA, add(CFA_XSP16, literal(-9)))
          CFI (cfiCond173) V6 load(1, XDATA, add(CFA_XSP16, literal(-8)))
          CFI (cfiCond173) V7 load(1, XDATA, add(CFA_XSP16, literal(-7)))
          CFI (cfiCond173) R7 load(1, XDATA, add(CFA_XSP16, literal(-6)))
          CFI (cfiCond173) ?RET_LOW load(1, XDATA, add(CFA_XSP16, literal(-5)))
          CFI (cfiCond173) ?RET_HIGH load(1, XDATA, add(CFA_XSP16, literal(-4)))
          CFI (cfiCond173) ?BRET_EXT load(1, XDATA, add(CFA_XSP16, literal(-3)))
          CFI (cfiCond173) DPL0 load(1, XDATA, add(CFA_XSP16, literal(-2)))
          CFI (cfiCond173) DPH0 load(1, XDATA, add(CFA_XSP16, literal(-1)))
          CFI (cfiCond173) CFA_SP SP+-2
          CFI (cfiCond173) CFA_XSP16 add(XSP16, 25)
          CFI Block cfiPicker174 Using cfiCommon1
          CFI (cfiPicker174) NoFunction
          CFI (cfiPicker174) Picker
        MOV       DPL,A
        CLR       A
        ADDC      A,R0
        MOV       DPH,A
          CFI EndBlock cfiCond172
          CFI EndBlock cfiCond173
          CFI EndBlock cfiPicker174
        REQUIRE ??Subroutine58_0
        ; // Fall through to label ??Subroutine58_0

        RSEG BANKED_CODE:HUGECODE:NOROOT(0)
??Subroutine58_0:
          CFI Block cfiCond175 Using cfiCommon0
          CFI Function MT_AfIncomingMsg
          CFI Conditional ??CrossCallReturnLabel_116
          CFI R6 load(1, XDATA, add(CFA_XSP16, literal(-16)))
          CFI VB load(1, XDATA, add(CFA_XSP16, literal(-15)))
          CFI V0 load(1, XDATA, add(CFA_XSP16, literal(-14)))
          CFI V1 load(1, XDATA, add(CFA_XSP16, literal(-13)))
          CFI V2 load(1, XDATA, add(CFA_XSP16, literal(-12)))
          CFI V3 load(1, XDATA, add(CFA_XSP16, literal(-11)))
          CFI V4 load(1, XDATA, add(CFA_XSP16, literal(-10)))
          CFI V5 load(1, XDATA, add(CFA_XSP16, literal(-9)))
          CFI V6 load(1, XDATA, add(CFA_XSP16, literal(-8)))
          CFI V7 load(1, XDATA, add(CFA_XSP16, literal(-7)))
          CFI R7 load(1, XDATA, add(CFA_XSP16, literal(-6)))
          CFI ?RET_LOW load(1, XDATA, add(CFA_XSP16, literal(-5)))
          CFI ?RET_HIGH load(1, XDATA, add(CFA_XSP16, literal(-4)))
          CFI ?BRET_EXT load(1, XDATA, add(CFA_XSP16, literal(-3)))
          CFI DPL0 load(1, XDATA, add(CFA_XSP16, literal(-2)))
          CFI DPH0 load(1, XDATA, add(CFA_XSP16, literal(-1)))
          CFI CFA_SP SP+-2
          CFI CFA_XSP16 add(XSP16, 25)
          CFI Block cfiCond176 Using cfiCommon0
          CFI (cfiCond176) Function MT_AfIncomingMsg
          CFI (cfiCond176) Conditional ??CrossCallReturnLabel_117
          CFI (cfiCond176) R6 load(1, XDATA, add(CFA_XSP16, literal(-16)))
          CFI (cfiCond176) VB load(1, XDATA, add(CFA_XSP16, literal(-15)))
          CFI (cfiCond176) V0 load(1, XDATA, add(CFA_XSP16, literal(-14)))
          CFI (cfiCond176) V1 load(1, XDATA, add(CFA_XSP16, literal(-13)))
          CFI (cfiCond176) V2 load(1, XDATA, add(CFA_XSP16, literal(-12)))
          CFI (cfiCond176) V3 load(1, XDATA, add(CFA_XSP16, literal(-11)))
          CFI (cfiCond176) V4 load(1, XDATA, add(CFA_XSP16, literal(-10)))
          CFI (cfiCond176) V5 load(1, XDATA, add(CFA_XSP16, literal(-9)))
          CFI (cfiCond176) V6 load(1, XDATA, add(CFA_XSP16, literal(-8)))
          CFI (cfiCond176) V7 load(1, XDATA, add(CFA_XSP16, literal(-7)))
          CFI (cfiCond176) R7 load(1, XDATA, add(CFA_XSP16, literal(-6)))
          CFI (cfiCond176) ?RET_LOW load(1, XDATA, add(CFA_XSP16, literal(-5)))
          CFI (cfiCond176) ?RET_HIGH load(1, XDATA, add(CFA_XSP16, literal(-4)))
          CFI (cfiCond176) ?BRET_EXT load(1, XDATA, add(CFA_XSP16, literal(-3)))
          CFI (cfiCond176) DPL0 load(1, XDATA, add(CFA_XSP16, literal(-2)))
          CFI (cfiCond176) DPH0 load(1, XDATA, add(CFA_XSP16, literal(-1)))
          CFI (cfiCond176) CFA_SP SP+-2
          CFI (cfiCond176) CFA_XSP16 add(XSP16, 25)
          CFI Block cfiCond177 Using cfiCommon0
          CFI (cfiCond177) Function MT_AfIncomingMsg
          CFI (cfiCond177) Conditional ??CrossCallReturnLabel_118
          CFI (cfiCond177) R6 load(1, XDATA, add(CFA_XSP16, literal(-16)))
          CFI (cfiCond177) VB load(1, XDATA, add(CFA_XSP16, literal(-15)))
          CFI (cfiCond177) V0 load(1, XDATA, add(CFA_XSP16, literal(-14)))
          CFI (cfiCond177) V1 load(1, XDATA, add(CFA_XSP16, literal(-13)))
          CFI (cfiCond177) V2 load(1, XDATA, add(CFA_XSP16, literal(-12)))
          CFI (cfiCond177) V3 load(1, XDATA, add(CFA_XSP16, literal(-11)))
          CFI (cfiCond177) V4 load(1, XDATA, add(CFA_XSP16, literal(-10)))
          CFI (cfiCond177) V5 load(1, XDATA, add(CFA_XSP16, literal(-9)))
          CFI (cfiCond177) V6 load(1, XDATA, add(CFA_XSP16, literal(-8)))
          CFI (cfiCond177) V7 load(1, XDATA, add(CFA_XSP16, literal(-7)))
          CFI (cfiCond177) R7 load(1, XDATA, add(CFA_XSP16, literal(-6)))
          CFI (cfiCond177) ?RET_LOW load(1, XDATA, add(CFA_XSP16, literal(-5)))
          CFI (cfiCond177) ?RET_HIGH load(1, XDATA, add(CFA_XSP16, literal(-4)))
          CFI (cfiCond177) ?BRET_EXT load(1, XDATA, add(CFA_XSP16, literal(-3)))
          CFI (cfiCond177) DPL0 load(1, XDATA, add(CFA_XSP16, literal(-2)))
          CFI (cfiCond177) DPH0 load(1, XDATA, add(CFA_XSP16, literal(-1)))
          CFI (cfiCond177) CFA_SP SP+-2
          CFI (cfiCond177) CFA_XSP16 add(XSP16, 25)
          CFI Block cfiPicker178 Using cfiCommon1
          CFI (cfiPicker178) NoFunction
          CFI (cfiPicker178) Picker
        LCALL     ?Subroutine45 & 0xFFFF
??CrossCallReturnLabel_120:
        INC       DPTR
        RET
          CFI EndBlock cfiCond175
          CFI EndBlock cfiCond176
          CFI EndBlock cfiCond177
          CFI EndBlock cfiPicker178

        RSEG BANKED_CODE:HUGECODE:NOROOT(0)
?Subroutine19:
          CFI Block cfiCond179 Using cfiCommon0
          CFI Function MT_AfIncomingMsg
          CFI Conditional ??CrossCallReturnLabel_121
          CFI R6 load(1, XDATA, add(CFA_XSP16, literal(-16)))
          CFI VB load(1, XDATA, add(CFA_XSP16, literal(-15)))
          CFI V0 load(1, XDATA, add(CFA_XSP16, literal(-14)))
          CFI V1 load(1, XDATA, add(CFA_XSP16, literal(-13)))
          CFI V2 load(1, XDATA, add(CFA_XSP16, literal(-12)))
          CFI V3 load(1, XDATA, add(CFA_XSP16, literal(-11)))
          CFI V4 load(1, XDATA, add(CFA_XSP16, literal(-10)))
          CFI V5 load(1, XDATA, add(CFA_XSP16, literal(-9)))
          CFI V6 load(1, XDATA, add(CFA_XSP16, literal(-8)))
          CFI V7 load(1, XDATA, add(CFA_XSP16, literal(-7)))
          CFI R7 load(1, XDATA, add(CFA_XSP16, literal(-6)))
          CFI ?RET_LOW load(1, XDATA, add(CFA_XSP16, literal(-5)))
          CFI ?RET_HIGH load(1, XDATA, add(CFA_XSP16, literal(-4)))
          CFI ?BRET_EXT load(1, XDATA, add(CFA_XSP16, literal(-3)))
          CFI DPL0 load(1, XDATA, add(CFA_XSP16, literal(-2)))
          CFI DPH0 load(1, XDATA, add(CFA_XSP16, literal(-1)))
          CFI CFA_SP SP+-2
          CFI CFA_XSP16 add(XSP16, 25)
          CFI Block cfiCond180 Using cfiCommon0
          CFI (cfiCond180) Function MT_AfIncomingMsg
          CFI (cfiCond180) Conditional ??CrossCallReturnLabel_122
          CFI (cfiCond180) R6 load(1, XDATA, add(CFA_XSP16, literal(-16)))
          CFI (cfiCond180) VB load(1, XDATA, add(CFA_XSP16, literal(-15)))
          CFI (cfiCond180) V0 load(1, XDATA, add(CFA_XSP16, literal(-14)))
          CFI (cfiCond180) V1 load(1, XDATA, add(CFA_XSP16, literal(-13)))
          CFI (cfiCond180) V2 load(1, XDATA, add(CFA_XSP16, literal(-12)))
          CFI (cfiCond180) V3 load(1, XDATA, add(CFA_XSP16, literal(-11)))
          CFI (cfiCond180) V4 load(1, XDATA, add(CFA_XSP16, literal(-10)))
          CFI (cfiCond180) V5 load(1, XDATA, add(CFA_XSP16, literal(-9)))
          CFI (cfiCond180) V6 load(1, XDATA, add(CFA_XSP16, literal(-8)))
          CFI (cfiCond180) V7 load(1, XDATA, add(CFA_XSP16, literal(-7)))
          CFI (cfiCond180) R7 load(1, XDATA, add(CFA_XSP16, literal(-6)))
          CFI (cfiCond180) ?RET_LOW load(1, XDATA, add(CFA_XSP16, literal(-5)))
          CFI (cfiCond180) ?RET_HIGH load(1, XDATA, add(CFA_XSP16, literal(-4)))
          CFI (cfiCond180) ?BRET_EXT load(1, XDATA, add(CFA_XSP16, literal(-3)))
          CFI (cfiCond180) DPL0 load(1, XDATA, add(CFA_XSP16, literal(-2)))
          CFI (cfiCond180) DPH0 load(1, XDATA, add(CFA_XSP16, literal(-1)))
          CFI (cfiCond180) CFA_SP SP+-2
          CFI (cfiCond180) CFA_XSP16 add(XSP16, 25)
          CFI Block cfiPicker181 Using cfiCommon1
          CFI (cfiPicker181) NoFunction
          CFI (cfiPicker181) Picker
        MOVX      @DPTR,A
          CFI EndBlock cfiCond179
          CFI EndBlock cfiCond180
          CFI EndBlock cfiPicker181
        REQUIRE ??Subroutine59_0
        ; // Fall through to label ??Subroutine59_0

        RSEG BANKED_CODE:HUGECODE:NOROOT(0)
??Subroutine59_0:
          CFI Block cfiCond182 Using cfiCommon0
          CFI Function MT_AfIncomingMsg
          CFI Conditional ??CrossCallReturnLabel_126
          CFI R6 load(1, XDATA, add(CFA_XSP16, literal(-16)))
          CFI VB load(1, XDATA, add(CFA_XSP16, literal(-15)))
          CFI V0 load(1, XDATA, add(CFA_XSP16, literal(-14)))
          CFI V1 load(1, XDATA, add(CFA_XSP16, literal(-13)))
          CFI V2 load(1, XDATA, add(CFA_XSP16, literal(-12)))
          CFI V3 load(1, XDATA, add(CFA_XSP16, literal(-11)))
          CFI V4 load(1, XDATA, add(CFA_XSP16, literal(-10)))
          CFI V5 load(1, XDATA, add(CFA_XSP16, literal(-9)))
          CFI V6 load(1, XDATA, add(CFA_XSP16, literal(-8)))
          CFI V7 load(1, XDATA, add(CFA_XSP16, literal(-7)))
          CFI R7 load(1, XDATA, add(CFA_XSP16, literal(-6)))
          CFI ?RET_LOW load(1, XDATA, add(CFA_XSP16, literal(-5)))
          CFI ?RET_HIGH load(1, XDATA, add(CFA_XSP16, literal(-4)))
          CFI ?BRET_EXT load(1, XDATA, add(CFA_XSP16, literal(-3)))
          CFI DPL0 load(1, XDATA, add(CFA_XSP16, literal(-2)))
          CFI DPH0 load(1, XDATA, add(CFA_XSP16, literal(-1)))
          CFI CFA_SP SP+-2
          CFI CFA_XSP16 add(XSP16, 25)
          CFI Block cfiCond183 Using cfiCommon0
          CFI (cfiCond183) Function MT_AfIncomingMsg
          CFI (cfiCond183) Conditional ??CrossCallReturnLabel_127
          CFI (cfiCond183) R6 load(1, XDATA, add(CFA_XSP16, literal(-16)))
          CFI (cfiCond183) VB load(1, XDATA, add(CFA_XSP16, literal(-15)))
          CFI (cfiCond183) V0 load(1, XDATA, add(CFA_XSP16, literal(-14)))
          CFI (cfiCond183) V1 load(1, XDATA, add(CFA_XSP16, literal(-13)))
          CFI (cfiCond183) V2 load(1, XDATA, add(CFA_XSP16, literal(-12)))
          CFI (cfiCond183) V3 load(1, XDATA, add(CFA_XSP16, literal(-11)))
          CFI (cfiCond183) V4 load(1, XDATA, add(CFA_XSP16, literal(-10)))
          CFI (cfiCond183) V5 load(1, XDATA, add(CFA_XSP16, literal(-9)))
          CFI (cfiCond183) V6 load(1, XDATA, add(CFA_XSP16, literal(-8)))
          CFI (cfiCond183) V7 load(1, XDATA, add(CFA_XSP16, literal(-7)))
          CFI (cfiCond183) R7 load(1, XDATA, add(CFA_XSP16, literal(-6)))
          CFI (cfiCond183) ?RET_LOW load(1, XDATA, add(CFA_XSP16, literal(-5)))
          CFI (cfiCond183) ?RET_HIGH load(1, XDATA, add(CFA_XSP16, literal(-4)))
          CFI (cfiCond183) ?BRET_EXT load(1, XDATA, add(CFA_XSP16, literal(-3)))
          CFI (cfiCond183) DPL0 load(1, XDATA, add(CFA_XSP16, literal(-2)))
          CFI (cfiCond183) DPH0 load(1, XDATA, add(CFA_XSP16, literal(-1)))
          CFI (cfiCond183) CFA_SP SP+-2
          CFI (cfiCond183) CFA_XSP16 add(XSP16, 25)
          CFI Block cfiCond184 Using cfiCommon0
          CFI (cfiCond184) Function MT_AfIncomingMsg
          CFI (cfiCond184) Conditional ??CrossCallReturnLabel_121
          CFI (cfiCond184) R6 load(1, XDATA, add(CFA_XSP16, literal(-16)))
          CFI (cfiCond184) VB load(1, XDATA, add(CFA_XSP16, literal(-15)))
          CFI (cfiCond184) V0 load(1, XDATA, add(CFA_XSP16, literal(-14)))
          CFI (cfiCond184) V1 load(1, XDATA, add(CFA_XSP16, literal(-13)))
          CFI (cfiCond184) V2 load(1, XDATA, add(CFA_XSP16, literal(-12)))
          CFI (cfiCond184) V3 load(1, XDATA, add(CFA_XSP16, literal(-11)))
          CFI (cfiCond184) V4 load(1, XDATA, add(CFA_XSP16, literal(-10)))
          CFI (cfiCond184) V5 load(1, XDATA, add(CFA_XSP16, literal(-9)))
          CFI (cfiCond184) V6 load(1, XDATA, add(CFA_XSP16, literal(-8)))
          CFI (cfiCond184) V7 load(1, XDATA, add(CFA_XSP16, literal(-7)))
          CFI (cfiCond184) R7 load(1, XDATA, add(CFA_XSP16, literal(-6)))
          CFI (cfiCond184) ?RET_LOW load(1, XDATA, add(CFA_XSP16, literal(-5)))
          CFI (cfiCond184) ?RET_HIGH load(1, XDATA, add(CFA_XSP16, literal(-4)))
          CFI (cfiCond184) ?BRET_EXT load(1, XDATA, add(CFA_XSP16, literal(-3)))
          CFI (cfiCond184) DPL0 load(1, XDATA, add(CFA_XSP16, literal(-2)))
          CFI (cfiCond184) DPH0 load(1, XDATA, add(CFA_XSP16, literal(-1)))
          CFI (cfiCond184) CFA_SP SP+-2
          CFI (cfiCond184) CFA_XSP16 add(XSP16, 25)
          CFI Block cfiCond185 Using cfiCommon0
          CFI (cfiCond185) Function MT_AfIncomingMsg
          CFI (cfiCond185) Conditional ??CrossCallReturnLabel_122
          CFI (cfiCond185) R6 load(1, XDATA, add(CFA_XSP16, literal(-16)))
          CFI (cfiCond185) VB load(1, XDATA, add(CFA_XSP16, literal(-15)))
          CFI (cfiCond185) V0 load(1, XDATA, add(CFA_XSP16, literal(-14)))
          CFI (cfiCond185) V1 load(1, XDATA, add(CFA_XSP16, literal(-13)))
          CFI (cfiCond185) V2 load(1, XDATA, add(CFA_XSP16, literal(-12)))
          CFI (cfiCond185) V3 load(1, XDATA, add(CFA_XSP16, literal(-11)))
          CFI (cfiCond185) V4 load(1, XDATA, add(CFA_XSP16, literal(-10)))
          CFI (cfiCond185) V5 load(1, XDATA, add(CFA_XSP16, literal(-9)))
          CFI (cfiCond185) V6 load(1, XDATA, add(CFA_XSP16, literal(-8)))
          CFI (cfiCond185) V7 load(1, XDATA, add(CFA_XSP16, literal(-7)))
          CFI (cfiCond185) R7 load(1, XDATA, add(CFA_XSP16, literal(-6)))
          CFI (cfiCond185) ?RET_LOW load(1, XDATA, add(CFA_XSP16, literal(-5)))
          CFI (cfiCond185) ?RET_HIGH load(1, XDATA, add(CFA_XSP16, literal(-4)))
          CFI (cfiCond185) ?BRET_EXT load(1, XDATA, add(CFA_XSP16, literal(-3)))
          CFI (cfiCond185) DPL0 load(1, XDATA, add(CFA_XSP16, literal(-2)))
          CFI (cfiCond185) DPH0 load(1, XDATA, add(CFA_XSP16, literal(-1)))
          CFI (cfiCond185) CFA_SP SP+-2
          CFI (cfiCond185) CFA_XSP16 add(XSP16, 25)
          CFI Block cfiPicker186 Using cfiCommon1
          CFI (cfiPicker186) NoFunction
          CFI (cfiPicker186) Picker
        MOV       DPL,?XSP + 0
        MOV       DPH,?XSP + 1
          CFI EndBlock cfiCond182
          CFI EndBlock cfiCond183
          CFI EndBlock cfiCond184
          CFI EndBlock cfiCond185
          CFI EndBlock cfiPicker186
        REQUIRE ??Subroutine60_0
        ; // Fall through to label ??Subroutine60_0

        RSEG BANKED_CODE:HUGECODE:NOROOT(0)
??Subroutine60_0:
          CFI Block cfiCond187 Using cfiCommon0
          CFI Function MT_AfDataRequest
          CFI Conditional ??CrossCallReturnLabel_123
          CFI R6 load(1, XDATA, add(CFA_XSP16, literal(-16)))
          CFI VB load(1, XDATA, add(CFA_XSP16, literal(-15)))
          CFI V0 load(1, XDATA, add(CFA_XSP16, literal(-14)))
          CFI V1 load(1, XDATA, add(CFA_XSP16, literal(-13)))
          CFI V2 load(1, XDATA, add(CFA_XSP16, literal(-12)))
          CFI V3 load(1, XDATA, add(CFA_XSP16, literal(-11)))
          CFI V4 load(1, XDATA, add(CFA_XSP16, literal(-10)))
          CFI V5 load(1, XDATA, add(CFA_XSP16, literal(-9)))
          CFI V6 load(1, XDATA, add(CFA_XSP16, literal(-8)))
          CFI V7 load(1, XDATA, add(CFA_XSP16, literal(-7)))
          CFI R7 load(1, XDATA, add(CFA_XSP16, literal(-6)))
          CFI ?RET_LOW load(1, XDATA, add(CFA_XSP16, literal(-5)))
          CFI ?RET_HIGH load(1, XDATA, add(CFA_XSP16, literal(-4)))
          CFI ?BRET_EXT load(1, XDATA, add(CFA_XSP16, literal(-3)))
          CFI DPL0 load(1, XDATA, add(CFA_XSP16, literal(-2)))
          CFI DPH0 load(1, XDATA, add(CFA_XSP16, literal(-1)))
          CFI CFA_SP SP+-2
          CFI CFA_XSP16 add(XSP16, 34)
          CFI Block cfiCond188 Using cfiCommon0
          CFI (cfiCond188) Function MT_AfIncomingMsg
          CFI (cfiCond188) Conditional ??CrossCallReturnLabel_124
          CFI (cfiCond188) R6 load(1, XDATA, add(CFA_XSP16, literal(-16)))
          CFI (cfiCond188) VB load(1, XDATA, add(CFA_XSP16, literal(-15)))
          CFI (cfiCond188) V0 load(1, XDATA, add(CFA_XSP16, literal(-14)))
          CFI (cfiCond188) V1 load(1, XDATA, add(CFA_XSP16, literal(-13)))
          CFI (cfiCond188) V2 load(1, XDATA, add(CFA_XSP16, literal(-12)))
          CFI (cfiCond188) V3 load(1, XDATA, add(CFA_XSP16, literal(-11)))
          CFI (cfiCond188) V4 load(1, XDATA, add(CFA_XSP16, literal(-10)))
          CFI (cfiCond188) V5 load(1, XDATA, add(CFA_XSP16, literal(-9)))
          CFI (cfiCond188) V6 load(1, XDATA, add(CFA_XSP16, literal(-8)))
          CFI (cfiCond188) V7 load(1, XDATA, add(CFA_XSP16, literal(-7)))
          CFI (cfiCond188) R7 load(1, XDATA, add(CFA_XSP16, literal(-6)))
          CFI (cfiCond188) ?RET_LOW load(1, XDATA, add(CFA_XSP16, literal(-5)))
          CFI (cfiCond188) ?RET_HIGH load(1, XDATA, add(CFA_XSP16, literal(-4)))
          CFI (cfiCond188) ?BRET_EXT load(1, XDATA, add(CFA_XSP16, literal(-3)))
          CFI (cfiCond188) DPL0 load(1, XDATA, add(CFA_XSP16, literal(-2)))
          CFI (cfiCond188) DPH0 load(1, XDATA, add(CFA_XSP16, literal(-1)))
          CFI (cfiCond188) CFA_XSP16 add(XSP16, 25)
          CFI Block cfiCond189 Using cfiCommon0
          CFI (cfiCond189) Function MT_AfIncomingMsg
          CFI (cfiCond189) Conditional ??CrossCallReturnLabel_125
          CFI (cfiCond189) R6 load(1, XDATA, add(CFA_XSP16, literal(-16)))
          CFI (cfiCond189) VB load(1, XDATA, add(CFA_XSP16, literal(-15)))
          CFI (cfiCond189) V0 load(1, XDATA, add(CFA_XSP16, literal(-14)))
          CFI (cfiCond189) V1 load(1, XDATA, add(CFA_XSP16, literal(-13)))
          CFI (cfiCond189) V2 load(1, XDATA, add(CFA_XSP16, literal(-12)))
          CFI (cfiCond189) V3 load(1, XDATA, add(CFA_XSP16, literal(-11)))
          CFI (cfiCond189) V4 load(1, XDATA, add(CFA_XSP16, literal(-10)))
          CFI (cfiCond189) V5 load(1, XDATA, add(CFA_XSP16, literal(-9)))
          CFI (cfiCond189) V6 load(1, XDATA, add(CFA_XSP16, literal(-8)))
          CFI (cfiCond189) V7 load(1, XDATA, add(CFA_XSP16, literal(-7)))
          CFI (cfiCond189) R7 load(1, XDATA, add(CFA_XSP16, literal(-6)))
          CFI (cfiCond189) ?RET_LOW load(1, XDATA, add(CFA_XSP16, literal(-5)))
          CFI (cfiCond189) ?RET_HIGH load(1, XDATA, add(CFA_XSP16, literal(-4)))
          CFI (cfiCond189) ?BRET_EXT load(1, XDATA, add(CFA_XSP16, literal(-3)))
          CFI (cfiCond189) DPL0 load(1, XDATA, add(CFA_XSP16, literal(-2)))
          CFI (cfiCond189) DPH0 load(1, XDATA, add(CFA_XSP16, literal(-1)))
          CFI (cfiCond189) CFA_SP SP+-2
          CFI (cfiCond189) CFA_XSP16 add(XSP16, 25)
          CFI Block cfiCond190 Using cfiCommon0
          CFI (cfiCond190) Function MT_AfIncomingMsg
          CFI (cfiCond190) Conditional ??CrossCallReturnLabel_126
          CFI (cfiCond190) R6 load(1, XDATA, add(CFA_XSP16, literal(-16)))
          CFI (cfiCond190) VB load(1, XDATA, add(CFA_XSP16, literal(-15)))
          CFI (cfiCond190) V0 load(1, XDATA, add(CFA_XSP16, literal(-14)))
          CFI (cfiCond190) V1 load(1, XDATA, add(CFA_XSP16, literal(-13)))
          CFI (cfiCond190) V2 load(1, XDATA, add(CFA_XSP16, literal(-12)))
          CFI (cfiCond190) V3 load(1, XDATA, add(CFA_XSP16, literal(-11)))
          CFI (cfiCond190) V4 load(1, XDATA, add(CFA_XSP16, literal(-10)))
          CFI (cfiCond190) V5 load(1, XDATA, add(CFA_XSP16, literal(-9)))
          CFI (cfiCond190) V6 load(1, XDATA, add(CFA_XSP16, literal(-8)))
          CFI (cfiCond190) V7 load(1, XDATA, add(CFA_XSP16, literal(-7)))
          CFI (cfiCond190) R7 load(1, XDATA, add(CFA_XSP16, literal(-6)))
          CFI (cfiCond190) ?RET_LOW load(1, XDATA, add(CFA_XSP16, literal(-5)))
          CFI (cfiCond190) ?RET_HIGH load(1, XDATA, add(CFA_XSP16, literal(-4)))
          CFI (cfiCond190) ?BRET_EXT load(1, XDATA, add(CFA_XSP16, literal(-3)))
          CFI (cfiCond190) DPL0 load(1, XDATA, add(CFA_XSP16, literal(-2)))
          CFI (cfiCond190) DPH0 load(1, XDATA, add(CFA_XSP16, literal(-1)))
          CFI (cfiCond190) CFA_SP SP+-2
          CFI (cfiCond190) CFA_XSP16 add(XSP16, 25)
          CFI Block cfiCond191 Using cfiCommon0
          CFI (cfiCond191) Function MT_AfIncomingMsg
          CFI (cfiCond191) Conditional ??CrossCallReturnLabel_127
          CFI (cfiCond191) R6 load(1, XDATA, add(CFA_XSP16, literal(-16)))
          CFI (cfiCond191) VB load(1, XDATA, add(CFA_XSP16, literal(-15)))
          CFI (cfiCond191) V0 load(1, XDATA, add(CFA_XSP16, literal(-14)))
          CFI (cfiCond191) V1 load(1, XDATA, add(CFA_XSP16, literal(-13)))
          CFI (cfiCond191) V2 load(1, XDATA, add(CFA_XSP16, literal(-12)))
          CFI (cfiCond191) V3 load(1, XDATA, add(CFA_XSP16, literal(-11)))
          CFI (cfiCond191) V4 load(1, XDATA, add(CFA_XSP16, literal(-10)))
          CFI (cfiCond191) V5 load(1, XDATA, add(CFA_XSP16, literal(-9)))
          CFI (cfiCond191) V6 load(1, XDATA, add(CFA_XSP16, literal(-8)))
          CFI (cfiCond191) V7 load(1, XDATA, add(CFA_XSP16, literal(-7)))
          CFI (cfiCond191) R7 load(1, XDATA, add(CFA_XSP16, literal(-6)))
          CFI (cfiCond191) ?RET_LOW load(1, XDATA, add(CFA_XSP16, literal(-5)))
          CFI (cfiCond191) ?RET_HIGH load(1, XDATA, add(CFA_XSP16, literal(-4)))
          CFI (cfiCond191) ?BRET_EXT load(1, XDATA, add(CFA_XSP16, literal(-3)))
          CFI (cfiCond191) DPL0 load(1, XDATA, add(CFA_XSP16, literal(-2)))
          CFI (cfiCond191) DPH0 load(1, XDATA, add(CFA_XSP16, literal(-1)))
          CFI (cfiCond191) CFA_SP SP+-2
          CFI (cfiCond191) CFA_XSP16 add(XSP16, 25)
          CFI Block cfiCond192 Using cfiCommon0
          CFI (cfiCond192) Function MT_AfIncomingMsg
          CFI (cfiCond192) Conditional ??CrossCallReturnLabel_121
          CFI (cfiCond192) R6 load(1, XDATA, add(CFA_XSP16, literal(-16)))
          CFI (cfiCond192) VB load(1, XDATA, add(CFA_XSP16, literal(-15)))
          CFI (cfiCond192) V0 load(1, XDATA, add(CFA_XSP16, literal(-14)))
          CFI (cfiCond192) V1 load(1, XDATA, add(CFA_XSP16, literal(-13)))
          CFI (cfiCond192) V2 load(1, XDATA, add(CFA_XSP16, literal(-12)))
          CFI (cfiCond192) V3 load(1, XDATA, add(CFA_XSP16, literal(-11)))
          CFI (cfiCond192) V4 load(1, XDATA, add(CFA_XSP16, literal(-10)))
          CFI (cfiCond192) V5 load(1, XDATA, add(CFA_XSP16, literal(-9)))
          CFI (cfiCond192) V6 load(1, XDATA, add(CFA_XSP16, literal(-8)))
          CFI (cfiCond192) V7 load(1, XDATA, add(CFA_XSP16, literal(-7)))
          CFI (cfiCond192) R7 load(1, XDATA, add(CFA_XSP16, literal(-6)))
          CFI (cfiCond192) ?RET_LOW load(1, XDATA, add(CFA_XSP16, literal(-5)))
          CFI (cfiCond192) ?RET_HIGH load(1, XDATA, add(CFA_XSP16, literal(-4)))
          CFI (cfiCond192) ?BRET_EXT load(1, XDATA, add(CFA_XSP16, literal(-3)))
          CFI (cfiCond192) DPL0 load(1, XDATA, add(CFA_XSP16, literal(-2)))
          CFI (cfiCond192) DPH0 load(1, XDATA, add(CFA_XSP16, literal(-1)))
          CFI (cfiCond192) CFA_SP SP+-2
          CFI (cfiCond192) CFA_XSP16 add(XSP16, 25)
          CFI Block cfiCond193 Using cfiCommon0
          CFI (cfiCond193) Function MT_AfIncomingMsg
          CFI (cfiCond193) Conditional ??CrossCallReturnLabel_122
          CFI (cfiCond193) R6 load(1, XDATA, add(CFA_XSP16, literal(-16)))
          CFI (cfiCond193) VB load(1, XDATA, add(CFA_XSP16, literal(-15)))
          CFI (cfiCond193) V0 load(1, XDATA, add(CFA_XSP16, literal(-14)))
          CFI (cfiCond193) V1 load(1, XDATA, add(CFA_XSP16, literal(-13)))
          CFI (cfiCond193) V2 load(1, XDATA, add(CFA_XSP16, literal(-12)))
          CFI (cfiCond193) V3 load(1, XDATA, add(CFA_XSP16, literal(-11)))
          CFI (cfiCond193) V4 load(1, XDATA, add(CFA_XSP16, literal(-10)))
          CFI (cfiCond193) V5 load(1, XDATA, add(CFA_XSP16, literal(-9)))
          CFI (cfiCond193) V6 load(1, XDATA, add(CFA_XSP16, literal(-8)))
          CFI (cfiCond193) V7 load(1, XDATA, add(CFA_XSP16, literal(-7)))
          CFI (cfiCond193) R7 load(1, XDATA, add(CFA_XSP16, literal(-6)))
          CFI (cfiCond193) ?RET_LOW load(1, XDATA, add(CFA_XSP16, literal(-5)))
          CFI (cfiCond193) ?RET_HIGH load(1, XDATA, add(CFA_XSP16, literal(-4)))
          CFI (cfiCond193) ?BRET_EXT load(1, XDATA, add(CFA_XSP16, literal(-3)))
          CFI (cfiCond193) DPL0 load(1, XDATA, add(CFA_XSP16, literal(-2)))
          CFI (cfiCond193) DPH0 load(1, XDATA, add(CFA_XSP16, literal(-1)))
          CFI (cfiCond193) CFA_SP SP+-2
          CFI (cfiCond193) CFA_XSP16 add(XSP16, 25)
          CFI Block cfiPicker194 Using cfiCommon1
          CFI (cfiPicker194) NoFunction
          CFI (cfiPicker194) Picker
        LCALL     ??Subroutine55_0 & 0xFFFF
??CrossCallReturnLabel_135:
        RET
          CFI EndBlock cfiCond187
          CFI EndBlock cfiCond188
          CFI EndBlock cfiCond189
          CFI EndBlock cfiCond190
          CFI EndBlock cfiCond191
          CFI EndBlock cfiCond192
          CFI EndBlock cfiCond193
          CFI EndBlock cfiPicker194

        RSEG BANKED_CODE:HUGECODE:NOROOT(0)
?Subroutine18:
          CFI Block cfiCond195 Using cfiCommon0
          CFI Function MT_AfDataRequest
          CFI Conditional ??CrossCallReturnLabel_32
          CFI R6 load(1, XDATA, add(CFA_XSP16, literal(-16)))
          CFI VB load(1, XDATA, add(CFA_XSP16, literal(-15)))
          CFI V0 load(1, XDATA, add(CFA_XSP16, literal(-14)))
          CFI V1 load(1, XDATA, add(CFA_XSP16, literal(-13)))
          CFI V2 load(1, XDATA, add(CFA_XSP16, literal(-12)))
          CFI V3 load(1, XDATA, add(CFA_XSP16, literal(-11)))
          CFI V4 load(1, XDATA, add(CFA_XSP16, literal(-10)))
          CFI V5 load(1, XDATA, add(CFA_XSP16, literal(-9)))
          CFI V6 load(1, XDATA, add(CFA_XSP16, literal(-8)))
          CFI V7 load(1, XDATA, add(CFA_XSP16, literal(-7)))
          CFI R7 load(1, XDATA, add(CFA_XSP16, literal(-6)))
          CFI ?RET_LOW load(1, XDATA, add(CFA_XSP16, literal(-5)))
          CFI ?RET_HIGH load(1, XDATA, add(CFA_XSP16, literal(-4)))
          CFI ?BRET_EXT load(1, XDATA, add(CFA_XSP16, literal(-3)))
          CFI DPL0 load(1, XDATA, add(CFA_XSP16, literal(-2)))
          CFI DPH0 load(1, XDATA, add(CFA_XSP16, literal(-1)))
          CFI CFA_SP SP+-2
          CFI CFA_XSP16 add(XSP16, 34)
          CFI Block cfiCond196 Using cfiCommon0
          CFI (cfiCond196) Function MT_AfIncomingMsg
          CFI (cfiCond196) Conditional ??CrossCallReturnLabel_33
          CFI (cfiCond196) R6 load(1, XDATA, add(CFA_XSP16, literal(-16)))
          CFI (cfiCond196) VB load(1, XDATA, add(CFA_XSP16, literal(-15)))
          CFI (cfiCond196) V0 load(1, XDATA, add(CFA_XSP16, literal(-14)))
          CFI (cfiCond196) V1 load(1, XDATA, add(CFA_XSP16, literal(-13)))
          CFI (cfiCond196) V2 load(1, XDATA, add(CFA_XSP16, literal(-12)))
          CFI (cfiCond196) V3 load(1, XDATA, add(CFA_XSP16, literal(-11)))
          CFI (cfiCond196) V4 load(1, XDATA, add(CFA_XSP16, literal(-10)))
          CFI (cfiCond196) V5 load(1, XDATA, add(CFA_XSP16, literal(-9)))
          CFI (cfiCond196) V6 load(1, XDATA, add(CFA_XSP16, literal(-8)))
          CFI (cfiCond196) V7 load(1, XDATA, add(CFA_XSP16, literal(-7)))
          CFI (cfiCond196) R7 load(1, XDATA, add(CFA_XSP16, literal(-6)))
          CFI (cfiCond196) ?RET_LOW load(1, XDATA, add(CFA_XSP16, literal(-5)))
          CFI (cfiCond196) ?RET_HIGH load(1, XDATA, add(CFA_XSP16, literal(-4)))
          CFI (cfiCond196) ?BRET_EXT load(1, XDATA, add(CFA_XSP16, literal(-3)))
          CFI (cfiCond196) DPL0 load(1, XDATA, add(CFA_XSP16, literal(-2)))
          CFI (cfiCond196) DPH0 load(1, XDATA, add(CFA_XSP16, literal(-1)))
          CFI (cfiCond196) CFA_SP SP+-2
          CFI (cfiCond196) CFA_XSP16 add(XSP16, 25)
          CFI Block cfiPicker197 Using cfiCommon1
          CFI (cfiPicker197) NoFunction
          CFI (cfiPicker197) Picker
        LCALL     ??Subroutine55_0 & 0xFFFF
??CrossCallReturnLabel_130:
        LCALL     ?Subroutine52 & 0xFFFF
??CrossCallReturnLabel_102:
        RET
          CFI EndBlock cfiCond195
          CFI EndBlock cfiCond196
          CFI EndBlock cfiPicker197

        RSEG BANKED_CODE:HUGECODE:NOROOT(0)
?Subroutine52:
          CFI Block cfiCond198 Using cfiCommon0
          CFI Function MT_AfDataRequest
          CFI Conditional ??CrossCallReturnLabel_102, ??CrossCallReturnLabel_32
          CFI R6 load(1, XDATA, add(CFA_XSP16, literal(-16)))
          CFI VB load(1, XDATA, add(CFA_XSP16, literal(-15)))
          CFI V0 load(1, XDATA, add(CFA_XSP16, literal(-14)))
          CFI V1 load(1, XDATA, add(CFA_XSP16, literal(-13)))
          CFI V2 load(1, XDATA, add(CFA_XSP16, literal(-12)))
          CFI V3 load(1, XDATA, add(CFA_XSP16, literal(-11)))
          CFI V4 load(1, XDATA, add(CFA_XSP16, literal(-10)))
          CFI V5 load(1, XDATA, add(CFA_XSP16, literal(-9)))
          CFI V6 load(1, XDATA, add(CFA_XSP16, literal(-8)))
          CFI V7 load(1, XDATA, add(CFA_XSP16, literal(-7)))
          CFI R7 load(1, XDATA, add(CFA_XSP16, literal(-6)))
          CFI ?RET_LOW load(1, XDATA, add(CFA_XSP16, literal(-5)))
          CFI ?RET_HIGH load(1, XDATA, add(CFA_XSP16, literal(-4)))
          CFI ?BRET_EXT load(1, XDATA, add(CFA_XSP16, literal(-3)))
          CFI DPL0 load(1, XDATA, add(CFA_XSP16, literal(-2)))
          CFI DPH0 load(1, XDATA, add(CFA_XSP16, literal(-1)))
          CFI CFA_SP SP+-4
          CFI CFA_XSP16 add(XSP16, 34)
          CFI Block cfiCond199 Using cfiCommon0
          CFI (cfiCond199) Function MT_AfIncomingMsg
          CFI (cfiCond199) Conditional ??CrossCallReturnLabel_102, ??CrossCallReturnLabel_33
          CFI (cfiCond199) R6 load(1, XDATA, add(CFA_XSP16, literal(-16)))
          CFI (cfiCond199) VB load(1, XDATA, add(CFA_XSP16, literal(-15)))
          CFI (cfiCond199) V0 load(1, XDATA, add(CFA_XSP16, literal(-14)))
          CFI (cfiCond199) V1 load(1, XDATA, add(CFA_XSP16, literal(-13)))
          CFI (cfiCond199) V2 load(1, XDATA, add(CFA_XSP16, literal(-12)))
          CFI (cfiCond199) V3 load(1, XDATA, add(CFA_XSP16, literal(-11)))
          CFI (cfiCond199) V4 load(1, XDATA, add(CFA_XSP16, literal(-10)))
          CFI (cfiCond199) V5 load(1, XDATA, add(CFA_XSP16, literal(-9)))
          CFI (cfiCond199) V6 load(1, XDATA, add(CFA_XSP16, literal(-8)))
          CFI (cfiCond199) V7 load(1, XDATA, add(CFA_XSP16, literal(-7)))
          CFI (cfiCond199) R7 load(1, XDATA, add(CFA_XSP16, literal(-6)))
          CFI (cfiCond199) ?RET_LOW load(1, XDATA, add(CFA_XSP16, literal(-5)))
          CFI (cfiCond199) ?RET_HIGH load(1, XDATA, add(CFA_XSP16, literal(-4)))
          CFI (cfiCond199) ?BRET_EXT load(1, XDATA, add(CFA_XSP16, literal(-3)))
          CFI (cfiCond199) DPL0 load(1, XDATA, add(CFA_XSP16, literal(-2)))
          CFI (cfiCond199) DPH0 load(1, XDATA, add(CFA_XSP16, literal(-1)))
          CFI (cfiCond199) CFA_SP SP+-4
          CFI (cfiCond199) CFA_XSP16 add(XSP16, 25)
          CFI Block cfiCond200 Using cfiCommon0
          CFI (cfiCond200) Function MT_AfDataStore
          CFI (cfiCond200) Conditional ??CrossCallReturnLabel_101
          CFI (cfiCond200) R6 load(1, XDATA, add(CFA_XSP16, literal(-14)))
          CFI (cfiCond200) VB load(1, XDATA, add(CFA_XSP16, literal(-13)))
          CFI (cfiCond200) V0 load(1, XDATA, add(CFA_XSP16, literal(-12)))
          CFI (cfiCond200) V1 load(1, XDATA, add(CFA_XSP16, literal(-11)))
          CFI (cfiCond200) V2 load(1, XDATA, add(CFA_XSP16, literal(-10)))
          CFI (cfiCond200) V3 load(1, XDATA, add(CFA_XSP16, literal(-9)))
          CFI (cfiCond200) V4 load(1, XDATA, add(CFA_XSP16, literal(-8)))
          CFI (cfiCond200) V5 load(1, XDATA, add(CFA_XSP16, literal(-7)))
          CFI (cfiCond200) R7 load(1, XDATA, add(CFA_XSP16, literal(-6)))
          CFI (cfiCond200) ?RET_LOW load(1, XDATA, add(CFA_XSP16, literal(-5)))
          CFI (cfiCond200) ?RET_HIGH load(1, XDATA, add(CFA_XSP16, literal(-4)))
          CFI (cfiCond200) ?BRET_EXT load(1, XDATA, add(CFA_XSP16, literal(-3)))
          CFI (cfiCond200) DPL0 load(1, XDATA, add(CFA_XSP16, literal(-2)))
          CFI (cfiCond200) DPH0 load(1, XDATA, add(CFA_XSP16, literal(-1)))
          CFI (cfiCond200) CFA_SP SP+-2
          CFI (cfiCond200) CFA_XSP16 add(XSP16, 15)
          CFI Block cfiPicker201 Using cfiCommon1
          CFI (cfiPicker201) NoFunction
          CFI (cfiPicker201) Picker
        ADD       A,#0x16
        MOV       DPL,A
        CLR       A
        ADDC      A,R0
        MOV       DPH,A
        RET
          CFI EndBlock cfiCond198
          CFI EndBlock cfiCond199
          CFI EndBlock cfiCond200
          CFI EndBlock cfiPicker201

        RSEG BANKED_CODE:HUGECODE:NOROOT(0)
?Subroutine17:
          CFI Block cfiCond202 Using cfiCommon0
          CFI Function MT_AfDataRequest
          CFI Conditional ??CrossCallReturnLabel_30
          CFI R6 load(1, XDATA, add(CFA_XSP16, literal(-16)))
          CFI VB load(1, XDATA, add(CFA_XSP16, literal(-15)))
          CFI V0 load(1, XDATA, add(CFA_XSP16, literal(-14)))
          CFI V1 load(1, XDATA, add(CFA_XSP16, literal(-13)))
          CFI V2 load(1, XDATA, add(CFA_XSP16, literal(-12)))
          CFI V3 load(1, XDATA, add(CFA_XSP16, literal(-11)))
          CFI V4 load(1, XDATA, add(CFA_XSP16, literal(-10)))
          CFI V5 load(1, XDATA, add(CFA_XSP16, literal(-9)))
          CFI V6 load(1, XDATA, add(CFA_XSP16, literal(-8)))
          CFI V7 load(1, XDATA, add(CFA_XSP16, literal(-7)))
          CFI R7 load(1, XDATA, add(CFA_XSP16, literal(-6)))
          CFI ?RET_LOW load(1, XDATA, add(CFA_XSP16, literal(-5)))
          CFI ?RET_HIGH load(1, XDATA, add(CFA_XSP16, literal(-4)))
          CFI ?BRET_EXT load(1, XDATA, add(CFA_XSP16, literal(-3)))
          CFI DPL0 load(1, XDATA, add(CFA_XSP16, literal(-2)))
          CFI DPH0 load(1, XDATA, add(CFA_XSP16, literal(-1)))
          CFI CFA_XSP16 add(XSP16, 34)
          CFI Block cfiCond203 Using cfiCommon0
          CFI (cfiCond203) Function MT_AfIncomingMsg
          CFI (cfiCond203) Conditional ??CrossCallReturnLabel_31
          CFI (cfiCond203) R6 load(1, XDATA, add(CFA_XSP16, literal(-16)))
          CFI (cfiCond203) VB load(1, XDATA, add(CFA_XSP16, literal(-15)))
          CFI (cfiCond203) V0 load(1, XDATA, add(CFA_XSP16, literal(-14)))
          CFI (cfiCond203) V1 load(1, XDATA, add(CFA_XSP16, literal(-13)))
          CFI (cfiCond203) V2 load(1, XDATA, add(CFA_XSP16, literal(-12)))
          CFI (cfiCond203) V3 load(1, XDATA, add(CFA_XSP16, literal(-11)))
          CFI (cfiCond203) V4 load(1, XDATA, add(CFA_XSP16, literal(-10)))
          CFI (cfiCond203) V5 load(1, XDATA, add(CFA_XSP16, literal(-9)))
          CFI (cfiCond203) V6 load(1, XDATA, add(CFA_XSP16, literal(-8)))
          CFI (cfiCond203) V7 load(1, XDATA, add(CFA_XSP16, literal(-7)))
          CFI (cfiCond203) R7 load(1, XDATA, add(CFA_XSP16, literal(-6)))
          CFI (cfiCond203) ?RET_LOW load(1, XDATA, add(CFA_XSP16, literal(-5)))
          CFI (cfiCond203) ?RET_HIGH load(1, XDATA, add(CFA_XSP16, literal(-4)))
          CFI (cfiCond203) ?BRET_EXT load(1, XDATA, add(CFA_XSP16, literal(-3)))
          CFI (cfiCond203) DPL0 load(1, XDATA, add(CFA_XSP16, literal(-2)))
          CFI (cfiCond203) DPH0 load(1, XDATA, add(CFA_XSP16, literal(-1)))
          CFI (cfiCond203) CFA_SP SP+-2
          CFI (cfiCond203) CFA_XSP16 add(XSP16, 25)
          CFI Block cfiPicker204 Using cfiCommon1
          CFI (cfiPicker204) NoFunction
          CFI (cfiPicker204) Picker
        LCALL     ??Subroutine55_0 & 0xFFFF
??CrossCallReturnLabel_129:
        ADD       A,#0x14
        MOV       DPL,A
        CLR       A
        ADDC      A,R0
        MOV       DPH,A
        RET
          CFI EndBlock cfiCond202
          CFI EndBlock cfiCond203
          CFI EndBlock cfiPicker204

        RSEG BANKED_CODE:HUGECODE:NOROOT(0)
?Subroutine12:
          CFI Block cfiCond205 Using cfiCommon0
          CFI Function MT_AfExec
          CFI Conditional ??CrossCallReturnLabel_20
          CFI R6 load(1, XDATA, add(CFA_XSP16, literal(-9)))
          CFI VB load(1, XDATA, add(CFA_XSP16, literal(-8)))
          CFI V0 load(1, XDATA, add(CFA_XSP16, literal(-7)))
          CFI R7 load(1, XDATA, add(CFA_XSP16, literal(-6)))
          CFI ?RET_LOW load(1, XDATA, add(CFA_XSP16, literal(-5)))
          CFI ?RET_HIGH load(1, XDATA, add(CFA_XSP16, literal(-4)))
          CFI ?BRET_EXT load(1, XDATA, add(CFA_XSP16, literal(-3)))
          CFI DPL0 load(1, XDATA, add(CFA_XSP16, literal(-2)))
          CFI DPH0 load(1, XDATA, add(CFA_XSP16, literal(-1)))
          CFI CFA_SP SP+-2
          CFI CFA_XSP16 add(XSP16, 9)
          CFI Block cfiCond206 Using cfiCommon0
          CFI (cfiCond206) Function MT_AfIncomingMsg
          CFI (cfiCond206) Conditional ??CrossCallReturnLabel_21
          CFI (cfiCond206) R6 load(1, XDATA, add(CFA_XSP16, literal(-16)))
          CFI (cfiCond206) VB load(1, XDATA, add(CFA_XSP16, literal(-15)))
          CFI (cfiCond206) V0 load(1, XDATA, add(CFA_XSP16, literal(-14)))
          CFI (cfiCond206) V1 load(1, XDATA, add(CFA_XSP16, literal(-13)))
          CFI (cfiCond206) V2 load(1, XDATA, add(CFA_XSP16, literal(-12)))
          CFI (cfiCond206) V3 load(1, XDATA, add(CFA_XSP16, literal(-11)))
          CFI (cfiCond206) V4 load(1, XDATA, add(CFA_XSP16, literal(-10)))
          CFI (cfiCond206) V5 load(1, XDATA, add(CFA_XSP16, literal(-9)))
          CFI (cfiCond206) V6 load(1, XDATA, add(CFA_XSP16, literal(-8)))
          CFI (cfiCond206) V7 load(1, XDATA, add(CFA_XSP16, literal(-7)))
          CFI (cfiCond206) R7 load(1, XDATA, add(CFA_XSP16, literal(-6)))
          CFI (cfiCond206) ?RET_LOW load(1, XDATA, add(CFA_XSP16, literal(-5)))
          CFI (cfiCond206) ?RET_HIGH load(1, XDATA, add(CFA_XSP16, literal(-4)))
          CFI (cfiCond206) ?BRET_EXT load(1, XDATA, add(CFA_XSP16, literal(-3)))
          CFI (cfiCond206) DPL0 load(1, XDATA, add(CFA_XSP16, literal(-2)))
          CFI (cfiCond206) DPH0 load(1, XDATA, add(CFA_XSP16, literal(-1)))
          CFI (cfiCond206) CFA_SP SP+-2
          CFI (cfiCond206) CFA_XSP16 add(XSP16, 25)
          CFI Block cfiPicker207 Using cfiCommon1
          CFI (cfiPicker207) NoFunction
          CFI (cfiPicker207) Picker
        LCALL     ?Subroutine42 & 0xFFFF
??CrossCallReturnLabel_161:
        MOV       DPTR,#pMtAfInMsgList
        MOV       A,R0
        MOVX      @DPTR,A
        INC       DPTR
        MOV       A,R1
        MOVX      @DPTR,A
        RET
          CFI EndBlock cfiCond205
          CFI EndBlock cfiCond206
          CFI EndBlock cfiPicker207

        RSEG BANKED_CODE:HUGECODE:NOROOT(0)
?Subroutine9:
          CFI Block cfiCond208 Using cfiCommon0
          CFI Function MT_AfDataRequest
          CFI Conditional ??CrossCallReturnLabel_12
          CFI R6 load(1, XDATA, add(CFA_XSP16, literal(-16)))
          CFI VB load(1, XDATA, add(CFA_XSP16, literal(-15)))
          CFI V0 load(1, XDATA, add(CFA_XSP16, literal(-14)))
          CFI V1 load(1, XDATA, add(CFA_XSP16, literal(-13)))
          CFI V2 load(1, XDATA, add(CFA_XSP16, literal(-12)))
          CFI V3 load(1, XDATA, add(CFA_XSP16, literal(-11)))
          CFI V4 load(1, XDATA, add(CFA_XSP16, literal(-10)))
          CFI V5 load(1, XDATA, add(CFA_XSP16, literal(-9)))
          CFI V6 load(1, XDATA, add(CFA_XSP16, literal(-8)))
          CFI V7 load(1, XDATA, add(CFA_XSP16, literal(-7)))
          CFI R7 load(1, XDATA, add(CFA_XSP16, literal(-6)))
          CFI ?RET_LOW load(1, XDATA, add(CFA_XSP16, literal(-5)))
          CFI ?RET_HIGH load(1, XDATA, add(CFA_XSP16, literal(-4)))
          CFI ?BRET_EXT load(1, XDATA, add(CFA_XSP16, literal(-3)))
          CFI DPL0 load(1, XDATA, add(CFA_XSP16, literal(-2)))
          CFI DPH0 load(1, XDATA, add(CFA_XSP16, literal(-1)))
          CFI CFA_SP SP+-2
          CFI CFA_XSP16 add(XSP16, 34)
          CFI Block cfiCond209 Using cfiCommon0
          CFI (cfiCond209) Function MT_AfIncomingMsg
          CFI (cfiCond209) Conditional ??CrossCallReturnLabel_13
          CFI (cfiCond209) R6 load(1, XDATA, add(CFA_XSP16, literal(-16)))
          CFI (cfiCond209) VB load(1, XDATA, add(CFA_XSP16, literal(-15)))
          CFI (cfiCond209) V0 load(1, XDATA, add(CFA_XSP16, literal(-14)))
          CFI (cfiCond209) V1 load(1, XDATA, add(CFA_XSP16, literal(-13)))
          CFI (cfiCond209) V2 load(1, XDATA, add(CFA_XSP16, literal(-12)))
          CFI (cfiCond209) V3 load(1, XDATA, add(CFA_XSP16, literal(-11)))
          CFI (cfiCond209) V4 load(1, XDATA, add(CFA_XSP16, literal(-10)))
          CFI (cfiCond209) V5 load(1, XDATA, add(CFA_XSP16, literal(-9)))
          CFI (cfiCond209) V6 load(1, XDATA, add(CFA_XSP16, literal(-8)))
          CFI (cfiCond209) V7 load(1, XDATA, add(CFA_XSP16, literal(-7)))
          CFI (cfiCond209) R7 load(1, XDATA, add(CFA_XSP16, literal(-6)))
          CFI (cfiCond209) ?RET_LOW load(1, XDATA, add(CFA_XSP16, literal(-5)))
          CFI (cfiCond209) ?RET_HIGH load(1, XDATA, add(CFA_XSP16, literal(-4)))
          CFI (cfiCond209) ?BRET_EXT load(1, XDATA, add(CFA_XSP16, literal(-3)))
          CFI (cfiCond209) DPL0 load(1, XDATA, add(CFA_XSP16, literal(-2)))
          CFI (cfiCond209) DPH0 load(1, XDATA, add(CFA_XSP16, literal(-1)))
          CFI (cfiCond209) CFA_XSP16 add(XSP16, 25)
          CFI Block cfiCond210 Using cfiCommon0
          CFI (cfiCond210) Function MT_AfIncomingMsg
          CFI (cfiCond210) Conditional ??CrossCallReturnLabel_14
          CFI (cfiCond210) R6 load(1, XDATA, add(CFA_XSP16, literal(-16)))
          CFI (cfiCond210) VB load(1, XDATA, add(CFA_XSP16, literal(-15)))
          CFI (cfiCond210) V0 load(1, XDATA, add(CFA_XSP16, literal(-14)))
          CFI (cfiCond210) V1 load(1, XDATA, add(CFA_XSP16, literal(-13)))
          CFI (cfiCond210) V2 load(1, XDATA, add(CFA_XSP16, literal(-12)))
          CFI (cfiCond210) V3 load(1, XDATA, add(CFA_XSP16, literal(-11)))
          CFI (cfiCond210) V4 load(1, XDATA, add(CFA_XSP16, literal(-10)))
          CFI (cfiCond210) V5 load(1, XDATA, add(CFA_XSP16, literal(-9)))
          CFI (cfiCond210) V6 load(1, XDATA, add(CFA_XSP16, literal(-8)))
          CFI (cfiCond210) V7 load(1, XDATA, add(CFA_XSP16, literal(-7)))
          CFI (cfiCond210) R7 load(1, XDATA, add(CFA_XSP16, literal(-6)))
          CFI (cfiCond210) ?RET_LOW load(1, XDATA, add(CFA_XSP16, literal(-5)))
          CFI (cfiCond210) ?RET_HIGH load(1, XDATA, add(CFA_XSP16, literal(-4)))
          CFI (cfiCond210) ?BRET_EXT load(1, XDATA, add(CFA_XSP16, literal(-3)))
          CFI (cfiCond210) DPL0 load(1, XDATA, add(CFA_XSP16, literal(-2)))
          CFI (cfiCond210) DPH0 load(1, XDATA, add(CFA_XSP16, literal(-1)))
          CFI (cfiCond210) CFA_XSP16 add(XSP16, 25)
          CFI Block cfiCond211 Using cfiCommon0
          CFI (cfiCond211) Function MT_AfDataRetrieve
          CFI (cfiCond211) Conditional ??CrossCallReturnLabel_15
          CFI (cfiCond211) R6 load(1, XDATA, add(CFA_XSP16, literal(-16)))
          CFI (cfiCond211) VB load(1, XDATA, add(CFA_XSP16, literal(-15)))
          CFI (cfiCond211) V0 load(1, XDATA, add(CFA_XSP16, literal(-14)))
          CFI (cfiCond211) V1 load(1, XDATA, add(CFA_XSP16, literal(-13)))
          CFI (cfiCond211) V2 load(1, XDATA, add(CFA_XSP16, literal(-12)))
          CFI (cfiCond211) V3 load(1, XDATA, add(CFA_XSP16, literal(-11)))
          CFI (cfiCond211) V4 load(1, XDATA, add(CFA_XSP16, literal(-10)))
          CFI (cfiCond211) V5 load(1, XDATA, add(CFA_XSP16, literal(-9)))
          CFI (cfiCond211) V6 load(1, XDATA, add(CFA_XSP16, literal(-8)))
          CFI (cfiCond211) V7 load(1, XDATA, add(CFA_XSP16, literal(-7)))
          CFI (cfiCond211) R7 load(1, XDATA, add(CFA_XSP16, literal(-6)))
          CFI (cfiCond211) ?RET_LOW load(1, XDATA, add(CFA_XSP16, literal(-5)))
          CFI (cfiCond211) ?RET_HIGH load(1, XDATA, add(CFA_XSP16, literal(-4)))
          CFI (cfiCond211) ?BRET_EXT load(1, XDATA, add(CFA_XSP16, literal(-3)))
          CFI (cfiCond211) DPL0 load(1, XDATA, add(CFA_XSP16, literal(-2)))
          CFI (cfiCond211) DPH0 load(1, XDATA, add(CFA_XSP16, literal(-1)))
          CFI (cfiCond211) CFA_SP SP+-2
          CFI (cfiCond211) CFA_XSP16 add(XSP16, 18)
          CFI Block cfiPicker212 Using cfiCommon1
          CFI (cfiPicker212) NoFunction
          CFI (cfiPicker212) Picker
        LCALL     ?Subroutine41 & 0xFFFF
??CrossCallReturnLabel_84:
        RET
          CFI EndBlock cfiCond208
          CFI EndBlock cfiCond209
          CFI EndBlock cfiCond210
          CFI EndBlock cfiCond211
          CFI EndBlock cfiPicker212

        RSEG BANKED_CODE:HUGECODE:NOROOT(0)
?Subroutine41:
          CFI Block cfiCond213 Using cfiCommon0
          CFI Function MT_AfDataRequest
          CFI Conditional ??CrossCallReturnLabel_84, ??CrossCallReturnLabel_12
          CFI R6 load(1, XDATA, add(CFA_XSP16, literal(-16)))
          CFI VB load(1, XDATA, add(CFA_XSP16, literal(-15)))
          CFI V0 load(1, XDATA, add(CFA_XSP16, literal(-14)))
          CFI V1 load(1, XDATA, add(CFA_XSP16, literal(-13)))
          CFI V2 load(1, XDATA, add(CFA_XSP16, literal(-12)))
          CFI V3 load(1, XDATA, add(CFA_XSP16, literal(-11)))
          CFI V4 load(1, XDATA, add(CFA_XSP16, literal(-10)))
          CFI V5 load(1, XDATA, add(CFA_XSP16, literal(-9)))
          CFI V6 load(1, XDATA, add(CFA_XSP16, literal(-8)))
          CFI V7 load(1, XDATA, add(CFA_XSP16, literal(-7)))
          CFI R7 load(1, XDATA, add(CFA_XSP16, literal(-6)))
          CFI ?RET_LOW load(1, XDATA, add(CFA_XSP16, literal(-5)))
          CFI ?RET_HIGH load(1, XDATA, add(CFA_XSP16, literal(-4)))
          CFI ?BRET_EXT load(1, XDATA, add(CFA_XSP16, literal(-3)))
          CFI DPL0 load(1, XDATA, add(CFA_XSP16, literal(-2)))
          CFI DPH0 load(1, XDATA, add(CFA_XSP16, literal(-1)))
          CFI CFA_SP SP+-4
          CFI CFA_XSP16 add(XSP16, 34)
          CFI Block cfiCond214 Using cfiCommon0
          CFI (cfiCond214) Function MT_AfIncomingMsg
          CFI (cfiCond214) Conditional ??CrossCallReturnLabel_84, ??CrossCallReturnLabel_13
          CFI (cfiCond214) R6 load(1, XDATA, add(CFA_XSP16, literal(-16)))
          CFI (cfiCond214) VB load(1, XDATA, add(CFA_XSP16, literal(-15)))
          CFI (cfiCond214) V0 load(1, XDATA, add(CFA_XSP16, literal(-14)))
          CFI (cfiCond214) V1 load(1, XDATA, add(CFA_XSP16, literal(-13)))
          CFI (cfiCond214) V2 load(1, XDATA, add(CFA_XSP16, literal(-12)))
          CFI (cfiCond214) V3 load(1, XDATA, add(CFA_XSP16, literal(-11)))
          CFI (cfiCond214) V4 load(1, XDATA, add(CFA_XSP16, literal(-10)))
          CFI (cfiCond214) V5 load(1, XDATA, add(CFA_XSP16, literal(-9)))
          CFI (cfiCond214) V6 load(1, XDATA, add(CFA_XSP16, literal(-8)))
          CFI (cfiCond214) V7 load(1, XDATA, add(CFA_XSP16, literal(-7)))
          CFI (cfiCond214) R7 load(1, XDATA, add(CFA_XSP16, literal(-6)))
          CFI (cfiCond214) ?RET_LOW load(1, XDATA, add(CFA_XSP16, literal(-5)))
          CFI (cfiCond214) ?RET_HIGH load(1, XDATA, add(CFA_XSP16, literal(-4)))
          CFI (cfiCond214) ?BRET_EXT load(1, XDATA, add(CFA_XSP16, literal(-3)))
          CFI (cfiCond214) DPL0 load(1, XDATA, add(CFA_XSP16, literal(-2)))
          CFI (cfiCond214) DPH0 load(1, XDATA, add(CFA_XSP16, literal(-1)))
          CFI (cfiCond214) CFA_SP SP+-5
          CFI (cfiCond214) CFA_XSP16 add(XSP16, 25)
          CFI Block cfiCond215 Using cfiCommon0
          CFI (cfiCond215) Function MT_AfIncomingMsg
          CFI (cfiCond215) Conditional ??CrossCallReturnLabel_84, ??CrossCallReturnLabel_14
          CFI (cfiCond215) R6 load(1, XDATA, add(CFA_XSP16, literal(-16)))
          CFI (cfiCond215) VB load(1, XDATA, add(CFA_XSP16, literal(-15)))
          CFI (cfiCond215) V0 load(1, XDATA, add(CFA_XSP16, literal(-14)))
          CFI (cfiCond215) V1 load(1, XDATA, add(CFA_XSP16, literal(-13)))
          CFI (cfiCond215) V2 load(1, XDATA, add(CFA_XSP16, literal(-12)))
          CFI (cfiCond215) V3 load(1, XDATA, add(CFA_XSP16, literal(-11)))
          CFI (cfiCond215) V4 load(1, XDATA, add(CFA_XSP16, literal(-10)))
          CFI (cfiCond215) V5 load(1, XDATA, add(CFA_XSP16, literal(-9)))
          CFI (cfiCond215) V6 load(1, XDATA, add(CFA_XSP16, literal(-8)))
          CFI (cfiCond215) V7 load(1, XDATA, add(CFA_XSP16, literal(-7)))
          CFI (cfiCond215) R7 load(1, XDATA, add(CFA_XSP16, literal(-6)))
          CFI (cfiCond215) ?RET_LOW load(1, XDATA, add(CFA_XSP16, literal(-5)))
          CFI (cfiCond215) ?RET_HIGH load(1, XDATA, add(CFA_XSP16, literal(-4)))
          CFI (cfiCond215) ?BRET_EXT load(1, XDATA, add(CFA_XSP16, literal(-3)))
          CFI (cfiCond215) DPL0 load(1, XDATA, add(CFA_XSP16, literal(-2)))
          CFI (cfiCond215) DPH0 load(1, XDATA, add(CFA_XSP16, literal(-1)))
          CFI (cfiCond215) CFA_SP SP+-5
          CFI (cfiCond215) CFA_XSP16 add(XSP16, 25)
          CFI Block cfiCond216 Using cfiCommon0
          CFI (cfiCond216) Function MT_AfDataRetrieve
          CFI (cfiCond216) Conditional ??CrossCallReturnLabel_84, ??CrossCallReturnLabel_15
          CFI (cfiCond216) R6 load(1, XDATA, add(CFA_XSP16, literal(-16)))
          CFI (cfiCond216) VB load(1, XDATA, add(CFA_XSP16, literal(-15)))
          CFI (cfiCond216) V0 load(1, XDATA, add(CFA_XSP16, literal(-14)))
          CFI (cfiCond216) V1 load(1, XDATA, add(CFA_XSP16, literal(-13)))
          CFI (cfiCond216) V2 load(1, XDATA, add(CFA_XSP16, literal(-12)))
          CFI (cfiCond216) V3 load(1, XDATA, add(CFA_XSP16, literal(-11)))
          CFI (cfiCond216) V4 load(1, XDATA, add(CFA_XSP16, literal(-10)))
          CFI (cfiCond216) V5 load(1, XDATA, add(CFA_XSP16, literal(-9)))
          CFI (cfiCond216) V6 load(1, XDATA, add(CFA_XSP16, literal(-8)))
          CFI (cfiCond216) V7 load(1, XDATA, add(CFA_XSP16, literal(-7)))
          CFI (cfiCond216) R7 load(1, XDATA, add(CFA_XSP16, literal(-6)))
          CFI (cfiCond216) ?RET_LOW load(1, XDATA, add(CFA_XSP16, literal(-5)))
          CFI (cfiCond216) ?RET_HIGH load(1, XDATA, add(CFA_XSP16, literal(-4)))
          CFI (cfiCond216) ?BRET_EXT load(1, XDATA, add(CFA_XSP16, literal(-3)))
          CFI (cfiCond216) DPL0 load(1, XDATA, add(CFA_XSP16, literal(-2)))
          CFI (cfiCond216) DPH0 load(1, XDATA, add(CFA_XSP16, literal(-1)))
          CFI (cfiCond216) CFA_SP SP+-4
          CFI (cfiCond216) CFA_XSP16 add(XSP16, 18)
          CFI Block cfiCond217 Using cfiCommon0
          CFI (cfiCond217) Function MT_AfIncomingMsg
          CFI (cfiCond217) Conditional ??CrossCallReturnLabel_83, ??CrossCallReturnLabel_8
          CFI (cfiCond217) R6 load(1, XDATA, add(CFA_XSP16, literal(-16)))
          CFI (cfiCond217) VB load(1, XDATA, add(CFA_XSP16, literal(-15)))
          CFI (cfiCond217) V0 load(1, XDATA, add(CFA_XSP16, literal(-14)))
          CFI (cfiCond217) V1 load(1, XDATA, add(CFA_XSP16, literal(-13)))
          CFI (cfiCond217) V2 load(1, XDATA, add(CFA_XSP16, literal(-12)))
          CFI (cfiCond217) V3 load(1, XDATA, add(CFA_XSP16, literal(-11)))
          CFI (cfiCond217) V4 load(1, XDATA, add(CFA_XSP16, literal(-10)))
          CFI (cfiCond217) V5 load(1, XDATA, add(CFA_XSP16, literal(-9)))
          CFI (cfiCond217) V6 load(1, XDATA, add(CFA_XSP16, literal(-8)))
          CFI (cfiCond217) V7 load(1, XDATA, add(CFA_XSP16, literal(-7)))
          CFI (cfiCond217) R7 load(1, XDATA, add(CFA_XSP16, literal(-6)))
          CFI (cfiCond217) ?RET_LOW load(1, XDATA, add(CFA_XSP16, literal(-5)))
          CFI (cfiCond217) ?RET_HIGH load(1, XDATA, add(CFA_XSP16, literal(-4)))
          CFI (cfiCond217) ?BRET_EXT load(1, XDATA, add(CFA_XSP16, literal(-3)))
          CFI (cfiCond217) DPL0 load(1, XDATA, add(CFA_XSP16, literal(-2)))
          CFI (cfiCond217) DPH0 load(1, XDATA, add(CFA_XSP16, literal(-1)))
          CFI (cfiCond217) CFA_SP SP+-4
          CFI (cfiCond217) CFA_XSP16 add(XSP16, 25)
          CFI Block cfiCond218 Using cfiCommon0
          CFI (cfiCond218) Function MT_AfIncomingMsg
          CFI (cfiCond218) Conditional ??CrossCallReturnLabel_83, ??CrossCallReturnLabel_9
          CFI (cfiCond218) R6 load(1, XDATA, add(CFA_XSP16, literal(-16)))
          CFI (cfiCond218) VB load(1, XDATA, add(CFA_XSP16, literal(-15)))
          CFI (cfiCond218) V0 load(1, XDATA, add(CFA_XSP16, literal(-14)))
          CFI (cfiCond218) V1 load(1, XDATA, add(CFA_XSP16, literal(-13)))
          CFI (cfiCond218) V2 load(1, XDATA, add(CFA_XSP16, literal(-12)))
          CFI (cfiCond218) V3 load(1, XDATA, add(CFA_XSP16, literal(-11)))
          CFI (cfiCond218) V4 load(1, XDATA, add(CFA_XSP16, literal(-10)))
          CFI (cfiCond218) V5 load(1, XDATA, add(CFA_XSP16, literal(-9)))
          CFI (cfiCond218) V6 load(1, XDATA, add(CFA_XSP16, literal(-8)))
          CFI (cfiCond218) V7 load(1, XDATA, add(CFA_XSP16, literal(-7)))
          CFI (cfiCond218) R7 load(1, XDATA, add(CFA_XSP16, literal(-6)))
          CFI (cfiCond218) ?RET_LOW load(1, XDATA, add(CFA_XSP16, literal(-5)))
          CFI (cfiCond218) ?RET_HIGH load(1, XDATA, add(CFA_XSP16, literal(-4)))
          CFI (cfiCond218) ?BRET_EXT load(1, XDATA, add(CFA_XSP16, literal(-3)))
          CFI (cfiCond218) DPL0 load(1, XDATA, add(CFA_XSP16, literal(-2)))
          CFI (cfiCond218) DPH0 load(1, XDATA, add(CFA_XSP16, literal(-1)))
          CFI (cfiCond218) CFA_SP SP+-4
          CFI (cfiCond218) CFA_XSP16 add(XSP16, 25)
          CFI Block cfiCond219 Using cfiCommon0
          CFI (cfiCond219) Function MT_AfDataRetrieve
          CFI (cfiCond219) Conditional ??CrossCallReturnLabel_83, ??CrossCallReturnLabel_10
          CFI (cfiCond219) R6 load(1, XDATA, add(CFA_XSP16, literal(-16)))
          CFI (cfiCond219) VB load(1, XDATA, add(CFA_XSP16, literal(-15)))
          CFI (cfiCond219) V0 load(1, XDATA, add(CFA_XSP16, literal(-14)))
          CFI (cfiCond219) V1 load(1, XDATA, add(CFA_XSP16, literal(-13)))
          CFI (cfiCond219) V2 load(1, XDATA, add(CFA_XSP16, literal(-12)))
          CFI (cfiCond219) V3 load(1, XDATA, add(CFA_XSP16, literal(-11)))
          CFI (cfiCond219) V4 load(1, XDATA, add(CFA_XSP16, literal(-10)))
          CFI (cfiCond219) V5 load(1, XDATA, add(CFA_XSP16, literal(-9)))
          CFI (cfiCond219) V6 load(1, XDATA, add(CFA_XSP16, literal(-8)))
          CFI (cfiCond219) V7 load(1, XDATA, add(CFA_XSP16, literal(-7)))
          CFI (cfiCond219) R7 load(1, XDATA, add(CFA_XSP16, literal(-6)))
          CFI (cfiCond219) ?RET_LOW load(1, XDATA, add(CFA_XSP16, literal(-5)))
          CFI (cfiCond219) ?RET_HIGH load(1, XDATA, add(CFA_XSP16, literal(-4)))
          CFI (cfiCond219) ?BRET_EXT load(1, XDATA, add(CFA_XSP16, literal(-3)))
          CFI (cfiCond219) DPL0 load(1, XDATA, add(CFA_XSP16, literal(-2)))
          CFI (cfiCond219) DPH0 load(1, XDATA, add(CFA_XSP16, literal(-1)))
          CFI (cfiCond219) CFA_SP SP+-4
          CFI (cfiCond219) CFA_XSP16 add(XSP16, 18)
          CFI Block cfiCond220 Using cfiCommon0
          CFI (cfiCond220) Function MT_AfDataStore
          CFI (cfiCond220) Conditional ??CrossCallReturnLabel_83, ??CrossCallReturnLabel_11
          CFI (cfiCond220) R6 load(1, XDATA, add(CFA_XSP16, literal(-14)))
          CFI (cfiCond220) VB load(1, XDATA, add(CFA_XSP16, literal(-13)))
          CFI (cfiCond220) V0 load(1, XDATA, add(CFA_XSP16, literal(-12)))
          CFI (cfiCond220) V1 load(1, XDATA, add(CFA_XSP16, literal(-11)))
          CFI (cfiCond220) V2 load(1, XDATA, add(CFA_XSP16, literal(-10)))
          CFI (cfiCond220) V3 load(1, XDATA, add(CFA_XSP16, literal(-9)))
          CFI (cfiCond220) V4 load(1, XDATA, add(CFA_XSP16, literal(-8)))
          CFI (cfiCond220) V5 load(1, XDATA, add(CFA_XSP16, literal(-7)))
          CFI (cfiCond220) R7 load(1, XDATA, add(CFA_XSP16, literal(-6)))
          CFI (cfiCond220) ?RET_LOW load(1, XDATA, add(CFA_XSP16, literal(-5)))
          CFI (cfiCond220) ?RET_HIGH load(1, XDATA, add(CFA_XSP16, literal(-4)))
          CFI (cfiCond220) ?BRET_EXT load(1, XDATA, add(CFA_XSP16, literal(-3)))
          CFI (cfiCond220) DPL0 load(1, XDATA, add(CFA_XSP16, literal(-2)))
          CFI (cfiCond220) DPH0 load(1, XDATA, add(CFA_XSP16, literal(-1)))
          CFI (cfiCond220) CFA_SP SP+-4
          CFI (cfiCond220) CFA_XSP16 add(XSP16, 15)
          CFI Block cfiCond221 Using cfiCommon0
          CFI (cfiCond221) Function MT_AfIncomingMsg
          CFI (cfiCond221) Conditional ??CrossCallReturnLabel_82, ??CrossCallReturnLabel_0
          CFI (cfiCond221) R6 load(1, XDATA, add(CFA_XSP16, literal(-16)))
          CFI (cfiCond221) VB load(1, XDATA, add(CFA_XSP16, literal(-15)))
          CFI (cfiCond221) V0 load(1, XDATA, add(CFA_XSP16, literal(-14)))
          CFI (cfiCond221) V1 load(1, XDATA, add(CFA_XSP16, literal(-13)))
          CFI (cfiCond221) V2 load(1, XDATA, add(CFA_XSP16, literal(-12)))
          CFI (cfiCond221) V3 load(1, XDATA, add(CFA_XSP16, literal(-11)))
          CFI (cfiCond221) V4 load(1, XDATA, add(CFA_XSP16, literal(-10)))
          CFI (cfiCond221) V5 load(1, XDATA, add(CFA_XSP16, literal(-9)))
          CFI (cfiCond221) V6 load(1, XDATA, add(CFA_XSP16, literal(-8)))
          CFI (cfiCond221) V7 load(1, XDATA, add(CFA_XSP16, literal(-7)))
          CFI (cfiCond221) R7 load(1, XDATA, add(CFA_XSP16, literal(-6)))
          CFI (cfiCond221) ?RET_LOW load(1, XDATA, add(CFA_XSP16, literal(-5)))
          CFI (cfiCond221) ?RET_HIGH load(1, XDATA, add(CFA_XSP16, literal(-4)))
          CFI (cfiCond221) ?BRET_EXT load(1, XDATA, add(CFA_XSP16, literal(-3)))
          CFI (cfiCond221) DPL0 load(1, XDATA, add(CFA_XSP16, literal(-2)))
          CFI (cfiCond221) DPH0 load(1, XDATA, add(CFA_XSP16, literal(-1)))
          CFI (cfiCond221) CFA_SP SP+-5
          CFI (cfiCond221) CFA_XSP16 add(XSP16, 25)
          CFI Block cfiCond222 Using cfiCommon0
          CFI (cfiCond222) Function MT_AfIncomingMsg
          CFI (cfiCond222) Conditional ??CrossCallReturnLabel_82, ??CrossCallReturnLabel_1
          CFI (cfiCond222) R6 load(1, XDATA, add(CFA_XSP16, literal(-16)))
          CFI (cfiCond222) VB load(1, XDATA, add(CFA_XSP16, literal(-15)))
          CFI (cfiCond222) V0 load(1, XDATA, add(CFA_XSP16, literal(-14)))
          CFI (cfiCond222) V1 load(1, XDATA, add(CFA_XSP16, literal(-13)))
          CFI (cfiCond222) V2 load(1, XDATA, add(CFA_XSP16, literal(-12)))
          CFI (cfiCond222) V3 load(1, XDATA, add(CFA_XSP16, literal(-11)))
          CFI (cfiCond222) V4 load(1, XDATA, add(CFA_XSP16, literal(-10)))
          CFI (cfiCond222) V5 load(1, XDATA, add(CFA_XSP16, literal(-9)))
          CFI (cfiCond222) V6 load(1, XDATA, add(CFA_XSP16, literal(-8)))
          CFI (cfiCond222) V7 load(1, XDATA, add(CFA_XSP16, literal(-7)))
          CFI (cfiCond222) R7 load(1, XDATA, add(CFA_XSP16, literal(-6)))
          CFI (cfiCond222) ?RET_LOW load(1, XDATA, add(CFA_XSP16, literal(-5)))
          CFI (cfiCond222) ?RET_HIGH load(1, XDATA, add(CFA_XSP16, literal(-4)))
          CFI (cfiCond222) ?BRET_EXT load(1, XDATA, add(CFA_XSP16, literal(-3)))
          CFI (cfiCond222) DPL0 load(1, XDATA, add(CFA_XSP16, literal(-2)))
          CFI (cfiCond222) DPH0 load(1, XDATA, add(CFA_XSP16, literal(-1)))
          CFI (cfiCond222) CFA_SP SP+-5
          CFI (cfiCond222) CFA_XSP16 add(XSP16, 25)
          CFI Block cfiCond223 Using cfiCommon0
          CFI (cfiCond223) Function MT_AfIncomingMsg
          CFI (cfiCond223) Conditional ??CrossCallReturnLabel_82, ??CrossCallReturnLabel_2
          CFI (cfiCond223) R6 load(1, XDATA, add(CFA_XSP16, literal(-16)))
          CFI (cfiCond223) VB load(1, XDATA, add(CFA_XSP16, literal(-15)))
          CFI (cfiCond223) V0 load(1, XDATA, add(CFA_XSP16, literal(-14)))
          CFI (cfiCond223) V1 load(1, XDATA, add(CFA_XSP16, literal(-13)))
          CFI (cfiCond223) V2 load(1, XDATA, add(CFA_XSP16, literal(-12)))
          CFI (cfiCond223) V3 load(1, XDATA, add(CFA_XSP16, literal(-11)))
          CFI (cfiCond223) V4 load(1, XDATA, add(CFA_XSP16, literal(-10)))
          CFI (cfiCond223) V5 load(1, XDATA, add(CFA_XSP16, literal(-9)))
          CFI (cfiCond223) V6 load(1, XDATA, add(CFA_XSP16, literal(-8)))
          CFI (cfiCond223) V7 load(1, XDATA, add(CFA_XSP16, literal(-7)))
          CFI (cfiCond223) R7 load(1, XDATA, add(CFA_XSP16, literal(-6)))
          CFI (cfiCond223) ?RET_LOW load(1, XDATA, add(CFA_XSP16, literal(-5)))
          CFI (cfiCond223) ?RET_HIGH load(1, XDATA, add(CFA_XSP16, literal(-4)))
          CFI (cfiCond223) ?BRET_EXT load(1, XDATA, add(CFA_XSP16, literal(-3)))
          CFI (cfiCond223) DPL0 load(1, XDATA, add(CFA_XSP16, literal(-2)))
          CFI (cfiCond223) DPH0 load(1, XDATA, add(CFA_XSP16, literal(-1)))
          CFI (cfiCond223) CFA_SP SP+-4
          CFI (cfiCond223) CFA_XSP16 add(XSP16, 28)
          CFI Block cfiCond224 Using cfiCommon0
          CFI (cfiCond224) Function MT_AfDataRetrieve
          CFI (cfiCond224) Conditional ??CrossCallReturnLabel_82, ??CrossCallReturnLabel_3
          CFI (cfiCond224) R6 load(1, XDATA, add(CFA_XSP16, literal(-16)))
          CFI (cfiCond224) VB load(1, XDATA, add(CFA_XSP16, literal(-15)))
          CFI (cfiCond224) V0 load(1, XDATA, add(CFA_XSP16, literal(-14)))
          CFI (cfiCond224) V1 load(1, XDATA, add(CFA_XSP16, literal(-13)))
          CFI (cfiCond224) V2 load(1, XDATA, add(CFA_XSP16, literal(-12)))
          CFI (cfiCond224) V3 load(1, XDATA, add(CFA_XSP16, literal(-11)))
          CFI (cfiCond224) V4 load(1, XDATA, add(CFA_XSP16, literal(-10)))
          CFI (cfiCond224) V5 load(1, XDATA, add(CFA_XSP16, literal(-9)))
          CFI (cfiCond224) V6 load(1, XDATA, add(CFA_XSP16, literal(-8)))
          CFI (cfiCond224) V7 load(1, XDATA, add(CFA_XSP16, literal(-7)))
          CFI (cfiCond224) R7 load(1, XDATA, add(CFA_XSP16, literal(-6)))
          CFI (cfiCond224) ?RET_LOW load(1, XDATA, add(CFA_XSP16, literal(-5)))
          CFI (cfiCond224) ?RET_HIGH load(1, XDATA, add(CFA_XSP16, literal(-4)))
          CFI (cfiCond224) ?BRET_EXT load(1, XDATA, add(CFA_XSP16, literal(-3)))
          CFI (cfiCond224) DPL0 load(1, XDATA, add(CFA_XSP16, literal(-2)))
          CFI (cfiCond224) DPH0 load(1, XDATA, add(CFA_XSP16, literal(-1)))
          CFI (cfiCond224) CFA_SP SP+-4
          CFI (cfiCond224) CFA_XSP16 add(XSP16, 18)
          CFI Block cfiPicker225 Using cfiCommon1
          CFI (cfiPicker225) NoFunction
          CFI (cfiPicker225) Picker
        MOVX      A,@DPTR
        MOV       R0,A
        INC       DPTR
        MOVX      A,@DPTR
        MOV       DPH,A
        MOV       DPL,R0
        RET
          CFI EndBlock cfiCond213
          CFI EndBlock cfiCond214
          CFI EndBlock cfiCond215
          CFI EndBlock cfiCond216
          CFI EndBlock cfiCond217
          CFI EndBlock cfiCond218
          CFI EndBlock cfiCond219
          CFI EndBlock cfiCond220
          CFI EndBlock cfiCond221
          CFI EndBlock cfiCond222
          CFI EndBlock cfiCond223
          CFI EndBlock cfiCond224
          CFI EndBlock cfiPicker225

        RSEG BANKED_CODE:HUGECODE:NOROOT(0)
?Subroutine6:
          CFI Block cfiCond226 Using cfiCommon0
          CFI Function MT_AfIncomingMsg
          CFI Conditional ??CrossCallReturnLabel_4
          CFI R6 load(1, XDATA, add(CFA_XSP16, literal(-16)))
          CFI VB load(1, XDATA, add(CFA_XSP16, literal(-15)))
          CFI V0 load(1, XDATA, add(CFA_XSP16, literal(-14)))
          CFI V1 load(1, XDATA, add(CFA_XSP16, literal(-13)))
          CFI V2 load(1, XDATA, add(CFA_XSP16, literal(-12)))
          CFI V3 load(1, XDATA, add(CFA_XSP16, literal(-11)))
          CFI V4 load(1, XDATA, add(CFA_XSP16, literal(-10)))
          CFI V5 load(1, XDATA, add(CFA_XSP16, literal(-9)))
          CFI V6 load(1, XDATA, add(CFA_XSP16, literal(-8)))
          CFI V7 load(1, XDATA, add(CFA_XSP16, literal(-7)))
          CFI R7 load(1, XDATA, add(CFA_XSP16, literal(-6)))
          CFI ?RET_LOW load(1, XDATA, add(CFA_XSP16, literal(-5)))
          CFI ?RET_HIGH load(1, XDATA, add(CFA_XSP16, literal(-4)))
          CFI ?BRET_EXT load(1, XDATA, add(CFA_XSP16, literal(-3)))
          CFI DPL0 load(1, XDATA, add(CFA_XSP16, literal(-2)))
          CFI DPH0 load(1, XDATA, add(CFA_XSP16, literal(-1)))
          CFI CFA_SP SP+-2
          CFI CFA_XSP16 add(XSP16, 25)
          CFI Block cfiCond227 Using cfiCommon0
          CFI (cfiCond227) Function MT_AfIncomingMsg
          CFI (cfiCond227) Conditional ??CrossCallReturnLabel_5
          CFI (cfiCond227) R6 load(1, XDATA, add(CFA_XSP16, literal(-16)))
          CFI (cfiCond227) VB load(1, XDATA, add(CFA_XSP16, literal(-15)))
          CFI (cfiCond227) V0 load(1, XDATA, add(CFA_XSP16, literal(-14)))
          CFI (cfiCond227) V1 load(1, XDATA, add(CFA_XSP16, literal(-13)))
          CFI (cfiCond227) V2 load(1, XDATA, add(CFA_XSP16, literal(-12)))
          CFI (cfiCond227) V3 load(1, XDATA, add(CFA_XSP16, literal(-11)))
          CFI (cfiCond227) V4 load(1, XDATA, add(CFA_XSP16, literal(-10)))
          CFI (cfiCond227) V5 load(1, XDATA, add(CFA_XSP16, literal(-9)))
          CFI (cfiCond227) V6 load(1, XDATA, add(CFA_XSP16, literal(-8)))
          CFI (cfiCond227) V7 load(1, XDATA, add(CFA_XSP16, literal(-7)))
          CFI (cfiCond227) R7 load(1, XDATA, add(CFA_XSP16, literal(-6)))
          CFI (cfiCond227) ?RET_LOW load(1, XDATA, add(CFA_XSP16, literal(-5)))
          CFI (cfiCond227) ?RET_HIGH load(1, XDATA, add(CFA_XSP16, literal(-4)))
          CFI (cfiCond227) ?BRET_EXT load(1, XDATA, add(CFA_XSP16, literal(-3)))
          CFI (cfiCond227) DPL0 load(1, XDATA, add(CFA_XSP16, literal(-2)))
          CFI (cfiCond227) DPH0 load(1, XDATA, add(CFA_XSP16, literal(-1)))
          CFI (cfiCond227) CFA_SP SP+-2
          CFI (cfiCond227) CFA_XSP16 add(XSP16, 25)
          CFI Block cfiPicker228 Using cfiCommon1
          CFI (cfiPicker228) NoFunction
          CFI (cfiPicker228) Picker
        MOV       DPL,R0
        MOV       DPH,R1
        LCALL     ?Subroutine44 & 0xFFFF
??CrossCallReturnLabel_87:
        MOV       DPL,R0
        MOV       DPH,R1
        INC       DPTR
        LCALL     ?Subroutine45 & 0xFFFF
??CrossCallReturnLabel_119:
        MOVX      @DPTR,A
        RET
          CFI EndBlock cfiCond226
          CFI EndBlock cfiCond227
          CFI EndBlock cfiPicker228

        RSEG BANKED_CODE:HUGECODE:NOROOT(0)
?Subroutine45:
          CFI Block cfiCond229 Using cfiCommon0
          CFI Function MT_AfIncomingMsg
          CFI Conditional ??CrossCallReturnLabel_120, ??CrossCallReturnLabel_117
          CFI R6 load(1, XDATA, add(CFA_XSP16, literal(-16)))
          CFI VB load(1, XDATA, add(CFA_XSP16, literal(-15)))
          CFI V0 load(1, XDATA, add(CFA_XSP16, literal(-14)))
          CFI V1 load(1, XDATA, add(CFA_XSP16, literal(-13)))
          CFI V2 load(1, XDATA, add(CFA_XSP16, literal(-12)))
          CFI V3 load(1, XDATA, add(CFA_XSP16, literal(-11)))
          CFI V4 load(1, XDATA, add(CFA_XSP16, literal(-10)))
          CFI V5 load(1, XDATA, add(CFA_XSP16, literal(-9)))
          CFI V6 load(1, XDATA, add(CFA_XSP16, literal(-8)))
          CFI V7 load(1, XDATA, add(CFA_XSP16, literal(-7)))
          CFI R7 load(1, XDATA, add(CFA_XSP16, literal(-6)))
          CFI ?RET_LOW load(1, XDATA, add(CFA_XSP16, literal(-5)))
          CFI ?RET_HIGH load(1, XDATA, add(CFA_XSP16, literal(-4)))
          CFI ?BRET_EXT load(1, XDATA, add(CFA_XSP16, literal(-3)))
          CFI DPL0 load(1, XDATA, add(CFA_XSP16, literal(-2)))
          CFI DPH0 load(1, XDATA, add(CFA_XSP16, literal(-1)))
          CFI CFA_SP SP+-4
          CFI CFA_XSP16 add(XSP16, 25)
          CFI Block cfiCond230 Using cfiCommon0
          CFI (cfiCond230) Function MT_AfIncomingMsg
          CFI (cfiCond230) Conditional ??CrossCallReturnLabel_120, ??CrossCallReturnLabel_118
          CFI (cfiCond230) R6 load(1, XDATA, add(CFA_XSP16, literal(-16)))
          CFI (cfiCond230) VB load(1, XDATA, add(CFA_XSP16, literal(-15)))
          CFI (cfiCond230) V0 load(1, XDATA, add(CFA_XSP16, literal(-14)))
          CFI (cfiCond230) V1 load(1, XDATA, add(CFA_XSP16, literal(-13)))
          CFI (cfiCond230) V2 load(1, XDATA, add(CFA_XSP16, literal(-12)))
          CFI (cfiCond230) V3 load(1, XDATA, add(CFA_XSP16, literal(-11)))
          CFI (cfiCond230) V4 load(1, XDATA, add(CFA_XSP16, literal(-10)))
          CFI (cfiCond230) V5 load(1, XDATA, add(CFA_XSP16, literal(-9)))
          CFI (cfiCond230) V6 load(1, XDATA, add(CFA_XSP16, literal(-8)))
          CFI (cfiCond230) V7 load(1, XDATA, add(CFA_XSP16, literal(-7)))
          CFI (cfiCond230) R7 load(1, XDATA, add(CFA_XSP16, literal(-6)))
          CFI (cfiCond230) ?RET_LOW load(1, XDATA, add(CFA_XSP16, literal(-5)))
          CFI (cfiCond230) ?RET_HIGH load(1, XDATA, add(CFA_XSP16, literal(-4)))
          CFI (cfiCond230) ?BRET_EXT load(1, XDATA, add(CFA_XSP16, literal(-3)))
          CFI (cfiCond230) DPL0 load(1, XDATA, add(CFA_XSP16, literal(-2)))
          CFI (cfiCond230) DPH0 load(1, XDATA, add(CFA_XSP16, literal(-1)))
          CFI (cfiCond230) CFA_SP SP+-4
          CFI (cfiCond230) CFA_XSP16 add(XSP16, 25)
          CFI Block cfiCond231 Using cfiCommon0
          CFI (cfiCond231) Function MT_AfIncomingMsg
          CFI (cfiCond231) Conditional ??CrossCallReturnLabel_120, ??CrossCallReturnLabel_116
          CFI (cfiCond231) R6 load(1, XDATA, add(CFA_XSP16, literal(-16)))
          CFI (cfiCond231) VB load(1, XDATA, add(CFA_XSP16, literal(-15)))
          CFI (cfiCond231) V0 load(1, XDATA, add(CFA_XSP16, literal(-14)))
          CFI (cfiCond231) V1 load(1, XDATA, add(CFA_XSP16, literal(-13)))
          CFI (cfiCond231) V2 load(1, XDATA, add(CFA_XSP16, literal(-12)))
          CFI (cfiCond231) V3 load(1, XDATA, add(CFA_XSP16, literal(-11)))
          CFI (cfiCond231) V4 load(1, XDATA, add(CFA_XSP16, literal(-10)))
          CFI (cfiCond231) V5 load(1, XDATA, add(CFA_XSP16, literal(-9)))
          CFI (cfiCond231) V6 load(1, XDATA, add(CFA_XSP16, literal(-8)))
          CFI (cfiCond231) V7 load(1, XDATA, add(CFA_XSP16, literal(-7)))
          CFI (cfiCond231) R7 load(1, XDATA, add(CFA_XSP16, literal(-6)))
          CFI (cfiCond231) ?RET_LOW load(1, XDATA, add(CFA_XSP16, literal(-5)))
          CFI (cfiCond231) ?RET_HIGH load(1, XDATA, add(CFA_XSP16, literal(-4)))
          CFI (cfiCond231) ?BRET_EXT load(1, XDATA, add(CFA_XSP16, literal(-3)))
          CFI (cfiCond231) DPL0 load(1, XDATA, add(CFA_XSP16, literal(-2)))
          CFI (cfiCond231) DPH0 load(1, XDATA, add(CFA_XSP16, literal(-1)))
          CFI (cfiCond231) CFA_SP SP+-4
          CFI (cfiCond231) CFA_XSP16 add(XSP16, 25)
          CFI Block cfiCond232 Using cfiCommon0
          CFI (cfiCond232) Function MT_AfIncomingMsg
          CFI (cfiCond232) Conditional ??CrossCallReturnLabel_119, ??CrossCallReturnLabel_4
          CFI (cfiCond232) R6 load(1, XDATA, add(CFA_XSP16, literal(-16)))
          CFI (cfiCond232) VB load(1, XDATA, add(CFA_XSP16, literal(-15)))
          CFI (cfiCond232) V0 load(1, XDATA, add(CFA_XSP16, literal(-14)))
          CFI (cfiCond232) V1 load(1, XDATA, add(CFA_XSP16, literal(-13)))
          CFI (cfiCond232) V2 load(1, XDATA, add(CFA_XSP16, literal(-12)))
          CFI (cfiCond232) V3 load(1, XDATA, add(CFA_XSP16, literal(-11)))
          CFI (cfiCond232) V4 load(1, XDATA, add(CFA_XSP16, literal(-10)))
          CFI (cfiCond232) V5 load(1, XDATA, add(CFA_XSP16, literal(-9)))
          CFI (cfiCond232) V6 load(1, XDATA, add(CFA_XSP16, literal(-8)))
          CFI (cfiCond232) V7 load(1, XDATA, add(CFA_XSP16, literal(-7)))
          CFI (cfiCond232) R7 load(1, XDATA, add(CFA_XSP16, literal(-6)))
          CFI (cfiCond232) ?RET_LOW load(1, XDATA, add(CFA_XSP16, literal(-5)))
          CFI (cfiCond232) ?RET_HIGH load(1, XDATA, add(CFA_XSP16, literal(-4)))
          CFI (cfiCond232) ?BRET_EXT load(1, XDATA, add(CFA_XSP16, literal(-3)))
          CFI (cfiCond232) DPL0 load(1, XDATA, add(CFA_XSP16, literal(-2)))
          CFI (cfiCond232) DPH0 load(1, XDATA, add(CFA_XSP16, literal(-1)))
          CFI (cfiCond232) CFA_SP SP+-4
          CFI (cfiCond232) CFA_XSP16 add(XSP16, 25)
          CFI Block cfiCond233 Using cfiCommon0
          CFI (cfiCond233) Function MT_AfIncomingMsg
          CFI (cfiCond233) Conditional ??CrossCallReturnLabel_119, ??CrossCallReturnLabel_5
          CFI (cfiCond233) R6 load(1, XDATA, add(CFA_XSP16, literal(-16)))
          CFI (cfiCond233) VB load(1, XDATA, add(CFA_XSP16, literal(-15)))
          CFI (cfiCond233) V0 load(1, XDATA, add(CFA_XSP16, literal(-14)))
          CFI (cfiCond233) V1 load(1, XDATA, add(CFA_XSP16, literal(-13)))
          CFI (cfiCond233) V2 load(1, XDATA, add(CFA_XSP16, literal(-12)))
          CFI (cfiCond233) V3 load(1, XDATA, add(CFA_XSP16, literal(-11)))
          CFI (cfiCond233) V4 load(1, XDATA, add(CFA_XSP16, literal(-10)))
          CFI (cfiCond233) V5 load(1, XDATA, add(CFA_XSP16, literal(-9)))
          CFI (cfiCond233) V6 load(1, XDATA, add(CFA_XSP16, literal(-8)))
          CFI (cfiCond233) V7 load(1, XDATA, add(CFA_XSP16, literal(-7)))
          CFI (cfiCond233) R7 load(1, XDATA, add(CFA_XSP16, literal(-6)))
          CFI (cfiCond233) ?RET_LOW load(1, XDATA, add(CFA_XSP16, literal(-5)))
          CFI (cfiCond233) ?RET_HIGH load(1, XDATA, add(CFA_XSP16, literal(-4)))
          CFI (cfiCond233) ?BRET_EXT load(1, XDATA, add(CFA_XSP16, literal(-3)))
          CFI (cfiCond233) DPL0 load(1, XDATA, add(CFA_XSP16, literal(-2)))
          CFI (cfiCond233) DPH0 load(1, XDATA, add(CFA_XSP16, literal(-1)))
          CFI (cfiCond233) CFA_SP SP+-4
          CFI (cfiCond233) CFA_XSP16 add(XSP16, 25)
          CFI Block cfiPicker234 Using cfiCommon1
          CFI (cfiPicker234) NoFunction
          CFI (cfiPicker234) Picker
        MOVX      A,@DPTR
        MOV       DPL,?V6
        MOV       DPH,?V7
        INC       DPTR
        RET
          CFI EndBlock cfiCond229
          CFI EndBlock cfiCond230
          CFI EndBlock cfiCond231
          CFI EndBlock cfiCond232
          CFI EndBlock cfiCond233
          CFI EndBlock cfiPicker234

        RSEG BANKED_CODE:HUGECODE:NOROOT(0)
?Subroutine4:
          CFI Block cfiCond235 Using cfiCommon0
          CFI Function MT_AfExec
          CFI Conditional ??CrossCallReturnLabel_145
          CFI R6 load(1, XDATA, add(CFA_XSP16, literal(-9)))
          CFI VB load(1, XDATA, add(CFA_XSP16, literal(-8)))
          CFI V0 load(1, XDATA, add(CFA_XSP16, literal(-7)))
          CFI R7 load(1, XDATA, add(CFA_XSP16, literal(-6)))
          CFI ?RET_LOW load(1, XDATA, add(CFA_XSP16, literal(-5)))
          CFI ?RET_HIGH load(1, XDATA, add(CFA_XSP16, literal(-4)))
          CFI ?BRET_EXT load(1, XDATA, add(CFA_XSP16, literal(-3)))
          CFI DPL0 load(1, XDATA, add(CFA_XSP16, literal(-2)))
          CFI DPH0 load(1, XDATA, add(CFA_XSP16, literal(-1)))
          CFI CFA_SP SP+-2
          CFI CFA_XSP16 add(XSP16, 9)
          CFI Block cfiCond236 Using cfiCommon0
          CFI (cfiCond236) Function MT_AfDataStore
          CFI (cfiCond236) Conditional ??CrossCallReturnLabel_146
          CFI (cfiCond236) R6 load(1, XDATA, add(CFA_XSP16, literal(-14)))
          CFI (cfiCond236) VB load(1, XDATA, add(CFA_XSP16, literal(-13)))
          CFI (cfiCond236) V0 load(1, XDATA, add(CFA_XSP16, literal(-12)))
          CFI (cfiCond236) V1 load(1, XDATA, add(CFA_XSP16, literal(-11)))
          CFI (cfiCond236) V2 load(1, XDATA, add(CFA_XSP16, literal(-10)))
          CFI (cfiCond236) V3 load(1, XDATA, add(CFA_XSP16, literal(-9)))
          CFI (cfiCond236) V4 load(1, XDATA, add(CFA_XSP16, literal(-8)))
          CFI (cfiCond236) V5 load(1, XDATA, add(CFA_XSP16, literal(-7)))
          CFI (cfiCond236) R7 load(1, XDATA, add(CFA_XSP16, literal(-6)))
          CFI (cfiCond236) ?RET_LOW load(1, XDATA, add(CFA_XSP16, literal(-5)))
          CFI (cfiCond236) ?RET_HIGH load(1, XDATA, add(CFA_XSP16, literal(-4)))
          CFI (cfiCond236) ?BRET_EXT load(1, XDATA, add(CFA_XSP16, literal(-3)))
          CFI (cfiCond236) DPL0 load(1, XDATA, add(CFA_XSP16, literal(-2)))
          CFI (cfiCond236) DPH0 load(1, XDATA, add(CFA_XSP16, literal(-1)))
          CFI (cfiCond236) CFA_SP SP+-2
          CFI (cfiCond236) CFA_XSP16 add(XSP16, 15)
          CFI Block cfiPicker237 Using cfiCommon1
          CFI (cfiPicker237) NoFunction
          CFI (cfiPicker237) Picker
        MOV       DPTR,#pMtAfDataReq
          CFI EndBlock cfiCond235
          CFI EndBlock cfiCond236
          CFI EndBlock cfiPicker237
        REQUIRE ??Subroutine61_0
        ; // Fall through to label ??Subroutine61_0

        RSEG BANKED_CODE:HUGECODE:NOROOT(0)
??Subroutine61_0:
          CFI Block cfiCond238 Using cfiCommon0
          CFI Function MT_AfExec
          CFI Conditional ??CrossCallReturnLabel_136
          CFI R6 load(1, XDATA, add(CFA_XSP16, literal(-9)))
          CFI VB load(1, XDATA, add(CFA_XSP16, literal(-8)))
          CFI V0 load(1, XDATA, add(CFA_XSP16, literal(-7)))
          CFI R7 load(1, XDATA, add(CFA_XSP16, literal(-6)))
          CFI ?RET_LOW load(1, XDATA, add(CFA_XSP16, literal(-5)))
          CFI ?RET_HIGH load(1, XDATA, add(CFA_XSP16, literal(-4)))
          CFI ?BRET_EXT load(1, XDATA, add(CFA_XSP16, literal(-3)))
          CFI DPL0 load(1, XDATA, add(CFA_XSP16, literal(-2)))
          CFI DPH0 load(1, XDATA, add(CFA_XSP16, literal(-1)))
          CFI CFA_SP SP+-2
          CFI CFA_XSP16 add(XSP16, 9)
          CFI Block cfiCond239 Using cfiCommon0
          CFI (cfiCond239) Function MT_AfDataRequest
          CFI (cfiCond239) Conditional ??CrossCallReturnLabel_137
          CFI (cfiCond239) R6 load(1, XDATA, add(CFA_XSP16, literal(-16)))
          CFI (cfiCond239) VB load(1, XDATA, add(CFA_XSP16, literal(-15)))
          CFI (cfiCond239) V0 load(1, XDATA, add(CFA_XSP16, literal(-14)))
          CFI (cfiCond239) V1 load(1, XDATA, add(CFA_XSP16, literal(-13)))
          CFI (cfiCond239) V2 load(1, XDATA, add(CFA_XSP16, literal(-12)))
          CFI (cfiCond239) V3 load(1, XDATA, add(CFA_XSP16, literal(-11)))
          CFI (cfiCond239) V4 load(1, XDATA, add(CFA_XSP16, literal(-10)))
          CFI (cfiCond239) V5 load(1, XDATA, add(CFA_XSP16, literal(-9)))
          CFI (cfiCond239) V6 load(1, XDATA, add(CFA_XSP16, literal(-8)))
          CFI (cfiCond239) V7 load(1, XDATA, add(CFA_XSP16, literal(-7)))
          CFI (cfiCond239) R7 load(1, XDATA, add(CFA_XSP16, literal(-6)))
          CFI (cfiCond239) ?RET_LOW load(1, XDATA, add(CFA_XSP16, literal(-5)))
          CFI (cfiCond239) ?RET_HIGH load(1, XDATA, add(CFA_XSP16, literal(-4)))
          CFI (cfiCond239) ?BRET_EXT load(1, XDATA, add(CFA_XSP16, literal(-3)))
          CFI (cfiCond239) DPL0 load(1, XDATA, add(CFA_XSP16, literal(-2)))
          CFI (cfiCond239) DPH0 load(1, XDATA, add(CFA_XSP16, literal(-1)))
          CFI (cfiCond239) CFA_SP SP+-2
          CFI (cfiCond239) CFA_XSP16 add(XSP16, 34)
          CFI Block cfiCond240 Using cfiCommon0
          CFI (cfiCond240) Function MT_AfDataRequest
          CFI (cfiCond240) Conditional ??CrossCallReturnLabel_138
          CFI (cfiCond240) R6 load(1, XDATA, add(CFA_XSP16, literal(-16)))
          CFI (cfiCond240) VB load(1, XDATA, add(CFA_XSP16, literal(-15)))
          CFI (cfiCond240) V0 load(1, XDATA, add(CFA_XSP16, literal(-14)))
          CFI (cfiCond240) V1 load(1, XDATA, add(CFA_XSP16, literal(-13)))
          CFI (cfiCond240) V2 load(1, XDATA, add(CFA_XSP16, literal(-12)))
          CFI (cfiCond240) V3 load(1, XDATA, add(CFA_XSP16, literal(-11)))
          CFI (cfiCond240) V4 load(1, XDATA, add(CFA_XSP16, literal(-10)))
          CFI (cfiCond240) V5 load(1, XDATA, add(CFA_XSP16, literal(-9)))
          CFI (cfiCond240) V6 load(1, XDATA, add(CFA_XSP16, literal(-8)))
          CFI (cfiCond240) V7 load(1, XDATA, add(CFA_XSP16, literal(-7)))
          CFI (cfiCond240) R7 load(1, XDATA, add(CFA_XSP16, literal(-6)))
          CFI (cfiCond240) ?RET_LOW load(1, XDATA, add(CFA_XSP16, literal(-5)))
          CFI (cfiCond240) ?RET_HIGH load(1, XDATA, add(CFA_XSP16, literal(-4)))
          CFI (cfiCond240) ?BRET_EXT load(1, XDATA, add(CFA_XSP16, literal(-3)))
          CFI (cfiCond240) DPL0 load(1, XDATA, add(CFA_XSP16, literal(-2)))
          CFI (cfiCond240) DPH0 load(1, XDATA, add(CFA_XSP16, literal(-1)))
          CFI (cfiCond240) CFA_SP SP+-2
          CFI (cfiCond240) CFA_XSP16 add(XSP16, 34)
          CFI Block cfiCond241 Using cfiCommon0
          CFI (cfiCond241) Function MT_AfIncomingMsg
          CFI (cfiCond241) Conditional ??CrossCallReturnLabel_139
          CFI (cfiCond241) R6 load(1, XDATA, add(CFA_XSP16, literal(-16)))
          CFI (cfiCond241) VB load(1, XDATA, add(CFA_XSP16, literal(-15)))
          CFI (cfiCond241) V0 load(1, XDATA, add(CFA_XSP16, literal(-14)))
          CFI (cfiCond241) V1 load(1, XDATA, add(CFA_XSP16, literal(-13)))
          CFI (cfiCond241) V2 load(1, XDATA, add(CFA_XSP16, literal(-12)))
          CFI (cfiCond241) V3 load(1, XDATA, add(CFA_XSP16, literal(-11)))
          CFI (cfiCond241) V4 load(1, XDATA, add(CFA_XSP16, literal(-10)))
          CFI (cfiCond241) V5 load(1, XDATA, add(CFA_XSP16, literal(-9)))
          CFI (cfiCond241) V6 load(1, XDATA, add(CFA_XSP16, literal(-8)))
          CFI (cfiCond241) V7 load(1, XDATA, add(CFA_XSP16, literal(-7)))
          CFI (cfiCond241) R7 load(1, XDATA, add(CFA_XSP16, literal(-6)))
          CFI (cfiCond241) ?RET_LOW load(1, XDATA, add(CFA_XSP16, literal(-5)))
          CFI (cfiCond241) ?RET_HIGH load(1, XDATA, add(CFA_XSP16, literal(-4)))
          CFI (cfiCond241) ?BRET_EXT load(1, XDATA, add(CFA_XSP16, literal(-3)))
          CFI (cfiCond241) DPL0 load(1, XDATA, add(CFA_XSP16, literal(-2)))
          CFI (cfiCond241) DPH0 load(1, XDATA, add(CFA_XSP16, literal(-1)))
          CFI (cfiCond241) CFA_SP SP+-2
          CFI (cfiCond241) CFA_XSP16 add(XSP16, 25)
          CFI Block cfiCond242 Using cfiCommon0
          CFI (cfiCond242) Function MT_AfIncomingMsg
          CFI (cfiCond242) Conditional ??CrossCallReturnLabel_140
          CFI (cfiCond242) R6 load(1, XDATA, add(CFA_XSP16, literal(-16)))
          CFI (cfiCond242) VB load(1, XDATA, add(CFA_XSP16, literal(-15)))
          CFI (cfiCond242) V0 load(1, XDATA, add(CFA_XSP16, literal(-14)))
          CFI (cfiCond242) V1 load(1, XDATA, add(CFA_XSP16, literal(-13)))
          CFI (cfiCond242) V2 load(1, XDATA, add(CFA_XSP16, literal(-12)))
          CFI (cfiCond242) V3 load(1, XDATA, add(CFA_XSP16, literal(-11)))
          CFI (cfiCond242) V4 load(1, XDATA, add(CFA_XSP16, literal(-10)))
          CFI (cfiCond242) V5 load(1, XDATA, add(CFA_XSP16, literal(-9)))
          CFI (cfiCond242) V6 load(1, XDATA, add(CFA_XSP16, literal(-8)))
          CFI (cfiCond242) V7 load(1, XDATA, add(CFA_XSP16, literal(-7)))
          CFI (cfiCond242) R7 load(1, XDATA, add(CFA_XSP16, literal(-6)))
          CFI (cfiCond242) ?RET_LOW load(1, XDATA, add(CFA_XSP16, literal(-5)))
          CFI (cfiCond242) ?RET_HIGH load(1, XDATA, add(CFA_XSP16, literal(-4)))
          CFI (cfiCond242) ?BRET_EXT load(1, XDATA, add(CFA_XSP16, literal(-3)))
          CFI (cfiCond242) DPL0 load(1, XDATA, add(CFA_XSP16, literal(-2)))
          CFI (cfiCond242) DPH0 load(1, XDATA, add(CFA_XSP16, literal(-1)))
          CFI (cfiCond242) CFA_SP SP+-2
          CFI (cfiCond242) CFA_XSP16 add(XSP16, 25)
          CFI Block cfiCond243 Using cfiCommon0
          CFI (cfiCond243) Function MT_AfIncomingMsg
          CFI (cfiCond243) Conditional ??CrossCallReturnLabel_141
          CFI (cfiCond243) R6 load(1, XDATA, add(CFA_XSP16, literal(-16)))
          CFI (cfiCond243) VB load(1, XDATA, add(CFA_XSP16, literal(-15)))
          CFI (cfiCond243) V0 load(1, XDATA, add(CFA_XSP16, literal(-14)))
          CFI (cfiCond243) V1 load(1, XDATA, add(CFA_XSP16, literal(-13)))
          CFI (cfiCond243) V2 load(1, XDATA, add(CFA_XSP16, literal(-12)))
          CFI (cfiCond243) V3 load(1, XDATA, add(CFA_XSP16, literal(-11)))
          CFI (cfiCond243) V4 load(1, XDATA, add(CFA_XSP16, literal(-10)))
          CFI (cfiCond243) V5 load(1, XDATA, add(CFA_XSP16, literal(-9)))
          CFI (cfiCond243) V6 load(1, XDATA, add(CFA_XSP16, literal(-8)))
          CFI (cfiCond243) V7 load(1, XDATA, add(CFA_XSP16, literal(-7)))
          CFI (cfiCond243) R7 load(1, XDATA, add(CFA_XSP16, literal(-6)))
          CFI (cfiCond243) ?RET_LOW load(1, XDATA, add(CFA_XSP16, literal(-5)))
          CFI (cfiCond243) ?RET_HIGH load(1, XDATA, add(CFA_XSP16, literal(-4)))
          CFI (cfiCond243) ?BRET_EXT load(1, XDATA, add(CFA_XSP16, literal(-3)))
          CFI (cfiCond243) DPL0 load(1, XDATA, add(CFA_XSP16, literal(-2)))
          CFI (cfiCond243) DPH0 load(1, XDATA, add(CFA_XSP16, literal(-1)))
          CFI (cfiCond243) CFA_SP SP+-2
          CFI (cfiCond243) CFA_XSP16 add(XSP16, 28)
          CFI Block cfiCond244 Using cfiCommon0
          CFI (cfiCond244) Function MT_AfIncomingMsg
          CFI (cfiCond244) Conditional ??CrossCallReturnLabel_142
          CFI (cfiCond244) R6 load(1, XDATA, add(CFA_XSP16, literal(-16)))
          CFI (cfiCond244) VB load(1, XDATA, add(CFA_XSP16, literal(-15)))
          CFI (cfiCond244) V0 load(1, XDATA, add(CFA_XSP16, literal(-14)))
          CFI (cfiCond244) V1 load(1, XDATA, add(CFA_XSP16, literal(-13)))
          CFI (cfiCond244) V2 load(1, XDATA, add(CFA_XSP16, literal(-12)))
          CFI (cfiCond244) V3 load(1, XDATA, add(CFA_XSP16, literal(-11)))
          CFI (cfiCond244) V4 load(1, XDATA, add(CFA_XSP16, literal(-10)))
          CFI (cfiCond244) V5 load(1, XDATA, add(CFA_XSP16, literal(-9)))
          CFI (cfiCond244) V6 load(1, XDATA, add(CFA_XSP16, literal(-8)))
          CFI (cfiCond244) V7 load(1, XDATA, add(CFA_XSP16, literal(-7)))
          CFI (cfiCond244) R7 load(1, XDATA, add(CFA_XSP16, literal(-6)))
          CFI (cfiCond244) ?RET_LOW load(1, XDATA, add(CFA_XSP16, literal(-5)))
          CFI (cfiCond244) ?RET_HIGH load(1, XDATA, add(CFA_XSP16, literal(-4)))
          CFI (cfiCond244) ?BRET_EXT load(1, XDATA, add(CFA_XSP16, literal(-3)))
          CFI (cfiCond244) DPL0 load(1, XDATA, add(CFA_XSP16, literal(-2)))
          CFI (cfiCond244) DPH0 load(1, XDATA, add(CFA_XSP16, literal(-1)))
          CFI (cfiCond244) CFA_SP SP+-2
          CFI (cfiCond244) CFA_XSP16 add(XSP16, 25)
          CFI Block cfiCond245 Using cfiCommon0
          CFI (cfiCond245) Function MT_AfDataRetrieve
          CFI (cfiCond245) Conditional ??CrossCallReturnLabel_143
          CFI (cfiCond245) R6 load(1, XDATA, add(CFA_XSP16, literal(-16)))
          CFI (cfiCond245) VB load(1, XDATA, add(CFA_XSP16, literal(-15)))
          CFI (cfiCond245) V0 load(1, XDATA, add(CFA_XSP16, literal(-14)))
          CFI (cfiCond245) V1 load(1, XDATA, add(CFA_XSP16, literal(-13)))
          CFI (cfiCond245) V2 load(1, XDATA, add(CFA_XSP16, literal(-12)))
          CFI (cfiCond245) V3 load(1, XDATA, add(CFA_XSP16, literal(-11)))
          CFI (cfiCond245) V4 load(1, XDATA, add(CFA_XSP16, literal(-10)))
          CFI (cfiCond245) V5 load(1, XDATA, add(CFA_XSP16, literal(-9)))
          CFI (cfiCond245) V6 load(1, XDATA, add(CFA_XSP16, literal(-8)))
          CFI (cfiCond245) V7 load(1, XDATA, add(CFA_XSP16, literal(-7)))
          CFI (cfiCond245) R7 load(1, XDATA, add(CFA_XSP16, literal(-6)))
          CFI (cfiCond245) ?RET_LOW load(1, XDATA, add(CFA_XSP16, literal(-5)))
          CFI (cfiCond245) ?RET_HIGH load(1, XDATA, add(CFA_XSP16, literal(-4)))
          CFI (cfiCond245) ?BRET_EXT load(1, XDATA, add(CFA_XSP16, literal(-3)))
          CFI (cfiCond245) DPL0 load(1, XDATA, add(CFA_XSP16, literal(-2)))
          CFI (cfiCond245) DPH0 load(1, XDATA, add(CFA_XSP16, literal(-1)))
          CFI (cfiCond245) CFA_SP SP+-2
          CFI (cfiCond245) CFA_XSP16 add(XSP16, 18)
          CFI Block cfiCond246 Using cfiCommon0
          CFI (cfiCond246) Function MT_AfDataRetrieve
          CFI (cfiCond246) Conditional ??CrossCallReturnLabel_144
          CFI (cfiCond246) R6 load(1, XDATA, add(CFA_XSP16, literal(-16)))
          CFI (cfiCond246) VB load(1, XDATA, add(CFA_XSP16, literal(-15)))
          CFI (cfiCond246) V0 load(1, XDATA, add(CFA_XSP16, literal(-14)))
          CFI (cfiCond246) V1 load(1, XDATA, add(CFA_XSP16, literal(-13)))
          CFI (cfiCond246) V2 load(1, XDATA, add(CFA_XSP16, literal(-12)))
          CFI (cfiCond246) V3 load(1, XDATA, add(CFA_XSP16, literal(-11)))
          CFI (cfiCond246) V4 load(1, XDATA, add(CFA_XSP16, literal(-10)))
          CFI (cfiCond246) V5 load(1, XDATA, add(CFA_XSP16, literal(-9)))
          CFI (cfiCond246) V6 load(1, XDATA, add(CFA_XSP16, literal(-8)))
          CFI (cfiCond246) V7 load(1, XDATA, add(CFA_XSP16, literal(-7)))
          CFI (cfiCond246) R7 load(1, XDATA, add(CFA_XSP16, literal(-6)))
          CFI (cfiCond246) ?RET_LOW load(1, XDATA, add(CFA_XSP16, literal(-5)))
          CFI (cfiCond246) ?RET_HIGH load(1, XDATA, add(CFA_XSP16, literal(-4)))
          CFI (cfiCond246) ?BRET_EXT load(1, XDATA, add(CFA_XSP16, literal(-3)))
          CFI (cfiCond246) DPL0 load(1, XDATA, add(CFA_XSP16, literal(-2)))
          CFI (cfiCond246) DPH0 load(1, XDATA, add(CFA_XSP16, literal(-1)))
          CFI (cfiCond246) CFA_SP SP+-2
          CFI (cfiCond246) CFA_XSP16 add(XSP16, 18)
          CFI Block cfiCond247 Using cfiCommon0
          CFI (cfiCond247) Function MT_AfExec
          CFI (cfiCond247) Conditional ??CrossCallReturnLabel_145
          CFI (cfiCond247) R6 load(1, XDATA, add(CFA_XSP16, literal(-9)))
          CFI (cfiCond247) VB load(1, XDATA, add(CFA_XSP16, literal(-8)))
          CFI (cfiCond247) V0 load(1, XDATA, add(CFA_XSP16, literal(-7)))
          CFI (cfiCond247) R7 load(1, XDATA, add(CFA_XSP16, literal(-6)))
          CFI (cfiCond247) ?RET_LOW load(1, XDATA, add(CFA_XSP16, literal(-5)))
          CFI (cfiCond247) ?RET_HIGH load(1, XDATA, add(CFA_XSP16, literal(-4)))
          CFI (cfiCond247) ?BRET_EXT load(1, XDATA, add(CFA_XSP16, literal(-3)))
          CFI (cfiCond247) DPL0 load(1, XDATA, add(CFA_XSP16, literal(-2)))
          CFI (cfiCond247) DPH0 load(1, XDATA, add(CFA_XSP16, literal(-1)))
          CFI (cfiCond247) CFA_SP SP+-2
          CFI (cfiCond247) CFA_XSP16 add(XSP16, 9)
          CFI Block cfiCond248 Using cfiCommon0
          CFI (cfiCond248) Function MT_AfDataStore
          CFI (cfiCond248) Conditional ??CrossCallReturnLabel_146
          CFI (cfiCond248) R6 load(1, XDATA, add(CFA_XSP16, literal(-14)))
          CFI (cfiCond248) VB load(1, XDATA, add(CFA_XSP16, literal(-13)))
          CFI (cfiCond248) V0 load(1, XDATA, add(CFA_XSP16, literal(-12)))
          CFI (cfiCond248) V1 load(1, XDATA, add(CFA_XSP16, literal(-11)))
          CFI (cfiCond248) V2 load(1, XDATA, add(CFA_XSP16, literal(-10)))
          CFI (cfiCond248) V3 load(1, XDATA, add(CFA_XSP16, literal(-9)))
          CFI (cfiCond248) V4 load(1, XDATA, add(CFA_XSP16, literal(-8)))
          CFI (cfiCond248) V5 load(1, XDATA, add(CFA_XSP16, literal(-7)))
          CFI (cfiCond248) R7 load(1, XDATA, add(CFA_XSP16, literal(-6)))
          CFI (cfiCond248) ?RET_LOW load(1, XDATA, add(CFA_XSP16, literal(-5)))
          CFI (cfiCond248) ?RET_HIGH load(1, XDATA, add(CFA_XSP16, literal(-4)))
          CFI (cfiCond248) ?BRET_EXT load(1, XDATA, add(CFA_XSP16, literal(-3)))
          CFI (cfiCond248) DPL0 load(1, XDATA, add(CFA_XSP16, literal(-2)))
          CFI (cfiCond248) DPH0 load(1, XDATA, add(CFA_XSP16, literal(-1)))
          CFI (cfiCond248) CFA_SP SP+-2
          CFI (cfiCond248) CFA_XSP16 add(XSP16, 15)
          CFI Block cfiPicker249 Using cfiCommon1
          CFI (cfiPicker249) NoFunction
          CFI (cfiPicker249) Picker
        MOVX      A,@DPTR
        MOV       R2,A
        INC       DPTR
        MOVX      A,@DPTR
        MOV       R3,A
        RET
          CFI EndBlock cfiCond238
          CFI EndBlock cfiCond239
          CFI EndBlock cfiCond240
          CFI EndBlock cfiCond241
          CFI EndBlock cfiCond242
          CFI EndBlock cfiCond243
          CFI EndBlock cfiCond244
          CFI EndBlock cfiCond245
          CFI EndBlock cfiCond246
          CFI EndBlock cfiCond247
          CFI EndBlock cfiCond248
          CFI EndBlock cfiPicker249

        RSEG BANKED_CODE:HUGECODE:NOROOT(0)
?Subroutine3:
          CFI Block cfiCond250 Using cfiCommon0
          CFI Function MT_AfExec
          CFI Conditional ??CrossCallReturnLabel_154
          CFI R6 load(1, XDATA, add(CFA_XSP16, literal(-9)))
          CFI VB load(1, XDATA, add(CFA_XSP16, literal(-8)))
          CFI V0 load(1, XDATA, add(CFA_XSP16, literal(-7)))
          CFI R7 load(1, XDATA, add(CFA_XSP16, literal(-6)))
          CFI ?RET_LOW load(1, XDATA, add(CFA_XSP16, literal(-5)))
          CFI ?RET_HIGH load(1, XDATA, add(CFA_XSP16, literal(-4)))
          CFI ?BRET_EXT load(1, XDATA, add(CFA_XSP16, literal(-3)))
          CFI DPL0 load(1, XDATA, add(CFA_XSP16, literal(-2)))
          CFI DPH0 load(1, XDATA, add(CFA_XSP16, literal(-1)))
          CFI CFA_SP SP+-2
          CFI CFA_XSP16 add(XSP16, 9)
          CFI Block cfiCond251 Using cfiCommon0
          CFI (cfiCond251) Function MT_AfExec
          CFI (cfiCond251) Conditional ??CrossCallReturnLabel_155
          CFI (cfiCond251) R6 load(1, XDATA, add(CFA_XSP16, literal(-9)))
          CFI (cfiCond251) VB load(1, XDATA, add(CFA_XSP16, literal(-8)))
          CFI (cfiCond251) V0 load(1, XDATA, add(CFA_XSP16, literal(-7)))
          CFI (cfiCond251) R7 load(1, XDATA, add(CFA_XSP16, literal(-6)))
          CFI (cfiCond251) ?RET_LOW load(1, XDATA, add(CFA_XSP16, literal(-5)))
          CFI (cfiCond251) ?RET_HIGH load(1, XDATA, add(CFA_XSP16, literal(-4)))
          CFI (cfiCond251) ?BRET_EXT load(1, XDATA, add(CFA_XSP16, literal(-3)))
          CFI (cfiCond251) DPL0 load(1, XDATA, add(CFA_XSP16, literal(-2)))
          CFI (cfiCond251) DPH0 load(1, XDATA, add(CFA_XSP16, literal(-1)))
          CFI (cfiCond251) CFA_SP SP+-2
          CFI (cfiCond251) CFA_XSP16 add(XSP16, 9)
          CFI Block cfiCond252 Using cfiCommon0
          CFI (cfiCond252) Function MT_AfDataRequest
          CFI (cfiCond252) Conditional ??CrossCallReturnLabel_156
          CFI (cfiCond252) R6 load(1, XDATA, add(CFA_XSP16, literal(-16)))
          CFI (cfiCond252) VB load(1, XDATA, add(CFA_XSP16, literal(-15)))
          CFI (cfiCond252) V0 load(1, XDATA, add(CFA_XSP16, literal(-14)))
          CFI (cfiCond252) V1 load(1, XDATA, add(CFA_XSP16, literal(-13)))
          CFI (cfiCond252) V2 load(1, XDATA, add(CFA_XSP16, literal(-12)))
          CFI (cfiCond252) V3 load(1, XDATA, add(CFA_XSP16, literal(-11)))
          CFI (cfiCond252) V4 load(1, XDATA, add(CFA_XSP16, literal(-10)))
          CFI (cfiCond252) V5 load(1, XDATA, add(CFA_XSP16, literal(-9)))
          CFI (cfiCond252) V6 load(1, XDATA, add(CFA_XSP16, literal(-8)))
          CFI (cfiCond252) V7 load(1, XDATA, add(CFA_XSP16, literal(-7)))
          CFI (cfiCond252) R7 load(1, XDATA, add(CFA_XSP16, literal(-6)))
          CFI (cfiCond252) ?RET_LOW load(1, XDATA, add(CFA_XSP16, literal(-5)))
          CFI (cfiCond252) ?RET_HIGH load(1, XDATA, add(CFA_XSP16, literal(-4)))
          CFI (cfiCond252) ?BRET_EXT load(1, XDATA, add(CFA_XSP16, literal(-3)))
          CFI (cfiCond252) DPL0 load(1, XDATA, add(CFA_XSP16, literal(-2)))
          CFI (cfiCond252) DPH0 load(1, XDATA, add(CFA_XSP16, literal(-1)))
          CFI (cfiCond252) CFA_SP SP+-2
          CFI (cfiCond252) CFA_XSP16 add(XSP16, 34)
          CFI Block cfiCond253 Using cfiCommon0
          CFI (cfiCond253) Function MT_AfDataRequest
          CFI (cfiCond253) Conditional ??CrossCallReturnLabel_157
          CFI (cfiCond253) R6 load(1, XDATA, add(CFA_XSP16, literal(-16)))
          CFI (cfiCond253) VB load(1, XDATA, add(CFA_XSP16, literal(-15)))
          CFI (cfiCond253) V0 load(1, XDATA, add(CFA_XSP16, literal(-14)))
          CFI (cfiCond253) V1 load(1, XDATA, add(CFA_XSP16, literal(-13)))
          CFI (cfiCond253) V2 load(1, XDATA, add(CFA_XSP16, literal(-12)))
          CFI (cfiCond253) V3 load(1, XDATA, add(CFA_XSP16, literal(-11)))
          CFI (cfiCond253) V4 load(1, XDATA, add(CFA_XSP16, literal(-10)))
          CFI (cfiCond253) V5 load(1, XDATA, add(CFA_XSP16, literal(-9)))
          CFI (cfiCond253) V6 load(1, XDATA, add(CFA_XSP16, literal(-8)))
          CFI (cfiCond253) V7 load(1, XDATA, add(CFA_XSP16, literal(-7)))
          CFI (cfiCond253) R7 load(1, XDATA, add(CFA_XSP16, literal(-6)))
          CFI (cfiCond253) ?RET_LOW load(1, XDATA, add(CFA_XSP16, literal(-5)))
          CFI (cfiCond253) ?RET_HIGH load(1, XDATA, add(CFA_XSP16, literal(-4)))
          CFI (cfiCond253) ?BRET_EXT load(1, XDATA, add(CFA_XSP16, literal(-3)))
          CFI (cfiCond253) DPL0 load(1, XDATA, add(CFA_XSP16, literal(-2)))
          CFI (cfiCond253) DPH0 load(1, XDATA, add(CFA_XSP16, literal(-1)))
          CFI (cfiCond253) CFA_SP SP+-2
          CFI (cfiCond253) CFA_XSP16 add(XSP16, 34)
          CFI Block cfiPicker254 Using cfiCommon1
          CFI (cfiPicker254) NoFunction
          CFI (cfiPicker254) Picker
        MOV       DPTR,#pMtAfDataReq
          CFI EndBlock cfiCond250
          CFI EndBlock cfiCond251
          CFI EndBlock cfiCond252
          CFI EndBlock cfiCond253
          CFI EndBlock cfiPicker254
        REQUIRE ??Subroutine62_0
        ; // Fall through to label ??Subroutine62_0

        RSEG BANKED_CODE:HUGECODE:NOROOT(0)
??Subroutine62_0:
          CFI Block cfiCond255 Using cfiCommon0
          CFI Function MT_AfExec
          CFI Conditional ??CrossCallReturnLabel_147
          CFI R6 load(1, XDATA, add(CFA_XSP16, literal(-9)))
          CFI VB load(1, XDATA, add(CFA_XSP16, literal(-8)))
          CFI V0 load(1, XDATA, add(CFA_XSP16, literal(-7)))
          CFI R7 load(1, XDATA, add(CFA_XSP16, literal(-6)))
          CFI ?RET_LOW load(1, XDATA, add(CFA_XSP16, literal(-5)))
          CFI ?RET_HIGH load(1, XDATA, add(CFA_XSP16, literal(-4)))
          CFI ?BRET_EXT load(1, XDATA, add(CFA_XSP16, literal(-3)))
          CFI DPL0 load(1, XDATA, add(CFA_XSP16, literal(-2)))
          CFI DPH0 load(1, XDATA, add(CFA_XSP16, literal(-1)))
          CFI CFA_SP SP+-2
          CFI CFA_XSP16 add(XSP16, 9)
          CFI Block cfiCond256 Using cfiCommon0
          CFI (cfiCond256) Function MT_AfDataRequestSrcRtg
          CFI (cfiCond256) Conditional ??CrossCallReturnLabel_148
          CFI (cfiCond256) R6 load(1, XDATA, add(CFA_XSP16, literal(-16)))
          CFI (cfiCond256) VB load(1, XDATA, add(CFA_XSP16, literal(-15)))
          CFI (cfiCond256) V0 load(1, XDATA, add(CFA_XSP16, literal(-14)))
          CFI (cfiCond256) V1 load(1, XDATA, add(CFA_XSP16, literal(-13)))
          CFI (cfiCond256) V2 load(1, XDATA, add(CFA_XSP16, literal(-12)))
          CFI (cfiCond256) V3 load(1, XDATA, add(CFA_XSP16, literal(-11)))
          CFI (cfiCond256) V4 load(1, XDATA, add(CFA_XSP16, literal(-10)))
          CFI (cfiCond256) V5 load(1, XDATA, add(CFA_XSP16, literal(-9)))
          CFI (cfiCond256) V6 load(1, XDATA, add(CFA_XSP16, literal(-8)))
          CFI (cfiCond256) V7 load(1, XDATA, add(CFA_XSP16, literal(-7)))
          CFI (cfiCond256) R7 load(1, XDATA, add(CFA_XSP16, literal(-6)))
          CFI (cfiCond256) ?RET_LOW load(1, XDATA, add(CFA_XSP16, literal(-5)))
          CFI (cfiCond256) ?RET_HIGH load(1, XDATA, add(CFA_XSP16, literal(-4)))
          CFI (cfiCond256) ?BRET_EXT load(1, XDATA, add(CFA_XSP16, literal(-3)))
          CFI (cfiCond256) DPL0 load(1, XDATA, add(CFA_XSP16, literal(-2)))
          CFI (cfiCond256) DPH0 load(1, XDATA, add(CFA_XSP16, literal(-1)))
          CFI (cfiCond256) CFA_SP SP+-2
          CFI (cfiCond256) CFA_XSP16 add(XSP16, 35)
          CFI Block cfiCond257 Using cfiCommon0
          CFI (cfiCond257) Function MT_AfIncomingMsg
          CFI (cfiCond257) Conditional ??CrossCallReturnLabel_149
          CFI (cfiCond257) R6 load(1, XDATA, add(CFA_XSP16, literal(-16)))
          CFI (cfiCond257) VB load(1, XDATA, add(CFA_XSP16, literal(-15)))
          CFI (cfiCond257) V0 load(1, XDATA, add(CFA_XSP16, literal(-14)))
          CFI (cfiCond257) V1 load(1, XDATA, add(CFA_XSP16, literal(-13)))
          CFI (cfiCond257) V2 load(1, XDATA, add(CFA_XSP16, literal(-12)))
          CFI (cfiCond257) V3 load(1, XDATA, add(CFA_XSP16, literal(-11)))
          CFI (cfiCond257) V4 load(1, XDATA, add(CFA_XSP16, literal(-10)))
          CFI (cfiCond257) V5 load(1, XDATA, add(CFA_XSP16, literal(-9)))
          CFI (cfiCond257) V6 load(1, XDATA, add(CFA_XSP16, literal(-8)))
          CFI (cfiCond257) V7 load(1, XDATA, add(CFA_XSP16, literal(-7)))
          CFI (cfiCond257) R7 load(1, XDATA, add(CFA_XSP16, literal(-6)))
          CFI (cfiCond257) ?RET_LOW load(1, XDATA, add(CFA_XSP16, literal(-5)))
          CFI (cfiCond257) ?RET_HIGH load(1, XDATA, add(CFA_XSP16, literal(-4)))
          CFI (cfiCond257) ?BRET_EXT load(1, XDATA, add(CFA_XSP16, literal(-3)))
          CFI (cfiCond257) DPL0 load(1, XDATA, add(CFA_XSP16, literal(-2)))
          CFI (cfiCond257) DPH0 load(1, XDATA, add(CFA_XSP16, literal(-1)))
          CFI (cfiCond257) CFA_SP SP+-2
          CFI (cfiCond257) CFA_XSP16 add(XSP16, 25)
          CFI Block cfiCond258 Using cfiCommon0
          CFI (cfiCond258) Function MT_AfIncomingMsg
          CFI (cfiCond258) Conditional ??CrossCallReturnLabel_150
          CFI (cfiCond258) R6 load(1, XDATA, add(CFA_XSP16, literal(-16)))
          CFI (cfiCond258) VB load(1, XDATA, add(CFA_XSP16, literal(-15)))
          CFI (cfiCond258) V0 load(1, XDATA, add(CFA_XSP16, literal(-14)))
          CFI (cfiCond258) V1 load(1, XDATA, add(CFA_XSP16, literal(-13)))
          CFI (cfiCond258) V2 load(1, XDATA, add(CFA_XSP16, literal(-12)))
          CFI (cfiCond258) V3 load(1, XDATA, add(CFA_XSP16, literal(-11)))
          CFI (cfiCond258) V4 load(1, XDATA, add(CFA_XSP16, literal(-10)))
          CFI (cfiCond258) V5 load(1, XDATA, add(CFA_XSP16, literal(-9)))
          CFI (cfiCond258) V6 load(1, XDATA, add(CFA_XSP16, literal(-8)))
          CFI (cfiCond258) V7 load(1, XDATA, add(CFA_XSP16, literal(-7)))
          CFI (cfiCond258) R7 load(1, XDATA, add(CFA_XSP16, literal(-6)))
          CFI (cfiCond258) ?RET_LOW load(1, XDATA, add(CFA_XSP16, literal(-5)))
          CFI (cfiCond258) ?RET_HIGH load(1, XDATA, add(CFA_XSP16, literal(-4)))
          CFI (cfiCond258) ?BRET_EXT load(1, XDATA, add(CFA_XSP16, literal(-3)))
          CFI (cfiCond258) DPL0 load(1, XDATA, add(CFA_XSP16, literal(-2)))
          CFI (cfiCond258) DPH0 load(1, XDATA, add(CFA_XSP16, literal(-1)))
          CFI (cfiCond258) CFA_SP SP+-2
          CFI (cfiCond258) CFA_XSP16 add(XSP16, 25)
          CFI Block cfiCond259 Using cfiCommon0
          CFI (cfiCond259) Function MT_AfIncomingMsg
          CFI (cfiCond259) Conditional ??CrossCallReturnLabel_151
          CFI (cfiCond259) R6 load(1, XDATA, add(CFA_XSP16, literal(-16)))
          CFI (cfiCond259) VB load(1, XDATA, add(CFA_XSP16, literal(-15)))
          CFI (cfiCond259) V0 load(1, XDATA, add(CFA_XSP16, literal(-14)))
          CFI (cfiCond259) V1 load(1, XDATA, add(CFA_XSP16, literal(-13)))
          CFI (cfiCond259) V2 load(1, XDATA, add(CFA_XSP16, literal(-12)))
          CFI (cfiCond259) V3 load(1, XDATA, add(CFA_XSP16, literal(-11)))
          CFI (cfiCond259) V4 load(1, XDATA, add(CFA_XSP16, literal(-10)))
          CFI (cfiCond259) V5 load(1, XDATA, add(CFA_XSP16, literal(-9)))
          CFI (cfiCond259) V6 load(1, XDATA, add(CFA_XSP16, literal(-8)))
          CFI (cfiCond259) V7 load(1, XDATA, add(CFA_XSP16, literal(-7)))
          CFI (cfiCond259) R7 load(1, XDATA, add(CFA_XSP16, literal(-6)))
          CFI (cfiCond259) ?RET_LOW load(1, XDATA, add(CFA_XSP16, literal(-5)))
          CFI (cfiCond259) ?RET_HIGH load(1, XDATA, add(CFA_XSP16, literal(-4)))
          CFI (cfiCond259) ?BRET_EXT load(1, XDATA, add(CFA_XSP16, literal(-3)))
          CFI (cfiCond259) DPL0 load(1, XDATA, add(CFA_XSP16, literal(-2)))
          CFI (cfiCond259) DPH0 load(1, XDATA, add(CFA_XSP16, literal(-1)))
          CFI (cfiCond259) CFA_SP SP+-2
          CFI (cfiCond259) CFA_XSP16 add(XSP16, 25)
          CFI Block cfiCond260 Using cfiCommon0
          CFI (cfiCond260) Function MT_AfIncomingMsg
          CFI (cfiCond260) Conditional ??CrossCallReturnLabel_152
          CFI (cfiCond260) R6 load(1, XDATA, add(CFA_XSP16, literal(-16)))
          CFI (cfiCond260) VB load(1, XDATA, add(CFA_XSP16, literal(-15)))
          CFI (cfiCond260) V0 load(1, XDATA, add(CFA_XSP16, literal(-14)))
          CFI (cfiCond260) V1 load(1, XDATA, add(CFA_XSP16, literal(-13)))
          CFI (cfiCond260) V2 load(1, XDATA, add(CFA_XSP16, literal(-12)))
          CFI (cfiCond260) V3 load(1, XDATA, add(CFA_XSP16, literal(-11)))
          CFI (cfiCond260) V4 load(1, XDATA, add(CFA_XSP16, literal(-10)))
          CFI (cfiCond260) V5 load(1, XDATA, add(CFA_XSP16, literal(-9)))
          CFI (cfiCond260) V6 load(1, XDATA, add(CFA_XSP16, literal(-8)))
          CFI (cfiCond260) V7 load(1, XDATA, add(CFA_XSP16, literal(-7)))
          CFI (cfiCond260) R7 load(1, XDATA, add(CFA_XSP16, literal(-6)))
          CFI (cfiCond260) ?RET_LOW load(1, XDATA, add(CFA_XSP16, literal(-5)))
          CFI (cfiCond260) ?RET_HIGH load(1, XDATA, add(CFA_XSP16, literal(-4)))
          CFI (cfiCond260) ?BRET_EXT load(1, XDATA, add(CFA_XSP16, literal(-3)))
          CFI (cfiCond260) DPL0 load(1, XDATA, add(CFA_XSP16, literal(-2)))
          CFI (cfiCond260) DPH0 load(1, XDATA, add(CFA_XSP16, literal(-1)))
          CFI (cfiCond260) CFA_SP SP+-2
          CFI (cfiCond260) CFA_XSP16 add(XSP16, 25)
          CFI Block cfiCond261 Using cfiCommon0
          CFI (cfiCond261) Function MT_AfDataRetrieve
          CFI (cfiCond261) Conditional ??CrossCallReturnLabel_153
          CFI (cfiCond261) R6 load(1, XDATA, add(CFA_XSP16, literal(-16)))
          CFI (cfiCond261) VB load(1, XDATA, add(CFA_XSP16, literal(-15)))
          CFI (cfiCond261) V0 load(1, XDATA, add(CFA_XSP16, literal(-14)))
          CFI (cfiCond261) V1 load(1, XDATA, add(CFA_XSP16, literal(-13)))
          CFI (cfiCond261) V2 load(1, XDATA, add(CFA_XSP16, literal(-12)))
          CFI (cfiCond261) V3 load(1, XDATA, add(CFA_XSP16, literal(-11)))
          CFI (cfiCond261) V4 load(1, XDATA, add(CFA_XSP16, literal(-10)))
          CFI (cfiCond261) V5 load(1, XDATA, add(CFA_XSP16, literal(-9)))
          CFI (cfiCond261) V6 load(1, XDATA, add(CFA_XSP16, literal(-8)))
          CFI (cfiCond261) V7 load(1, XDATA, add(CFA_XSP16, literal(-7)))
          CFI (cfiCond261) R7 load(1, XDATA, add(CFA_XSP16, literal(-6)))
          CFI (cfiCond261) ?RET_LOW load(1, XDATA, add(CFA_XSP16, literal(-5)))
          CFI (cfiCond261) ?RET_HIGH load(1, XDATA, add(CFA_XSP16, literal(-4)))
          CFI (cfiCond261) ?BRET_EXT load(1, XDATA, add(CFA_XSP16, literal(-3)))
          CFI (cfiCond261) DPL0 load(1, XDATA, add(CFA_XSP16, literal(-2)))
          CFI (cfiCond261) DPH0 load(1, XDATA, add(CFA_XSP16, literal(-1)))
          CFI (cfiCond261) CFA_SP SP+-2
          CFI (cfiCond261) CFA_XSP16 add(XSP16, 18)
          CFI Block cfiCond262 Using cfiCommon0
          CFI (cfiCond262) Function MT_AfExec
          CFI (cfiCond262) Conditional ??CrossCallReturnLabel_154
          CFI (cfiCond262) R6 load(1, XDATA, add(CFA_XSP16, literal(-9)))
          CFI (cfiCond262) VB load(1, XDATA, add(CFA_XSP16, literal(-8)))
          CFI (cfiCond262) V0 load(1, XDATA, add(CFA_XSP16, literal(-7)))
          CFI (cfiCond262) R7 load(1, XDATA, add(CFA_XSP16, literal(-6)))
          CFI (cfiCond262) ?RET_LOW load(1, XDATA, add(CFA_XSP16, literal(-5)))
          CFI (cfiCond262) ?RET_HIGH load(1, XDATA, add(CFA_XSP16, literal(-4)))
          CFI (cfiCond262) ?BRET_EXT load(1, XDATA, add(CFA_XSP16, literal(-3)))
          CFI (cfiCond262) DPL0 load(1, XDATA, add(CFA_XSP16, literal(-2)))
          CFI (cfiCond262) DPH0 load(1, XDATA, add(CFA_XSP16, literal(-1)))
          CFI (cfiCond262) CFA_SP SP+-2
          CFI (cfiCond262) CFA_XSP16 add(XSP16, 9)
          CFI Block cfiCond263 Using cfiCommon0
          CFI (cfiCond263) Function MT_AfExec
          CFI (cfiCond263) Conditional ??CrossCallReturnLabel_155
          CFI (cfiCond263) R6 load(1, XDATA, add(CFA_XSP16, literal(-9)))
          CFI (cfiCond263) VB load(1, XDATA, add(CFA_XSP16, literal(-8)))
          CFI (cfiCond263) V0 load(1, XDATA, add(CFA_XSP16, literal(-7)))
          CFI (cfiCond263) R7 load(1, XDATA, add(CFA_XSP16, literal(-6)))
          CFI (cfiCond263) ?RET_LOW load(1, XDATA, add(CFA_XSP16, literal(-5)))
          CFI (cfiCond263) ?RET_HIGH load(1, XDATA, add(CFA_XSP16, literal(-4)))
          CFI (cfiCond263) ?BRET_EXT load(1, XDATA, add(CFA_XSP16, literal(-3)))
          CFI (cfiCond263) DPL0 load(1, XDATA, add(CFA_XSP16, literal(-2)))
          CFI (cfiCond263) DPH0 load(1, XDATA, add(CFA_XSP16, literal(-1)))
          CFI (cfiCond263) CFA_SP SP+-2
          CFI (cfiCond263) CFA_XSP16 add(XSP16, 9)
          CFI Block cfiCond264 Using cfiCommon0
          CFI (cfiCond264) Function MT_AfDataRequest
          CFI (cfiCond264) Conditional ??CrossCallReturnLabel_156
          CFI (cfiCond264) R6 load(1, XDATA, add(CFA_XSP16, literal(-16)))
          CFI (cfiCond264) VB load(1, XDATA, add(CFA_XSP16, literal(-15)))
          CFI (cfiCond264) V0 load(1, XDATA, add(CFA_XSP16, literal(-14)))
          CFI (cfiCond264) V1 load(1, XDATA, add(CFA_XSP16, literal(-13)))
          CFI (cfiCond264) V2 load(1, XDATA, add(CFA_XSP16, literal(-12)))
          CFI (cfiCond264) V3 load(1, XDATA, add(CFA_XSP16, literal(-11)))
          CFI (cfiCond264) V4 load(1, XDATA, add(CFA_XSP16, literal(-10)))
          CFI (cfiCond264) V5 load(1, XDATA, add(CFA_XSP16, literal(-9)))
          CFI (cfiCond264) V6 load(1, XDATA, add(CFA_XSP16, literal(-8)))
          CFI (cfiCond264) V7 load(1, XDATA, add(CFA_XSP16, literal(-7)))
          CFI (cfiCond264) R7 load(1, XDATA, add(CFA_XSP16, literal(-6)))
          CFI (cfiCond264) ?RET_LOW load(1, XDATA, add(CFA_XSP16, literal(-5)))
          CFI (cfiCond264) ?RET_HIGH load(1, XDATA, add(CFA_XSP16, literal(-4)))
          CFI (cfiCond264) ?BRET_EXT load(1, XDATA, add(CFA_XSP16, literal(-3)))
          CFI (cfiCond264) DPL0 load(1, XDATA, add(CFA_XSP16, literal(-2)))
          CFI (cfiCond264) DPH0 load(1, XDATA, add(CFA_XSP16, literal(-1)))
          CFI (cfiCond264) CFA_SP SP+-2
          CFI (cfiCond264) CFA_XSP16 add(XSP16, 34)
          CFI Block cfiCond265 Using cfiCommon0
          CFI (cfiCond265) Function MT_AfDataRequest
          CFI (cfiCond265) Conditional ??CrossCallReturnLabel_157
          CFI (cfiCond265) R6 load(1, XDATA, add(CFA_XSP16, literal(-16)))
          CFI (cfiCond265) VB load(1, XDATA, add(CFA_XSP16, literal(-15)))
          CFI (cfiCond265) V0 load(1, XDATA, add(CFA_XSP16, literal(-14)))
          CFI (cfiCond265) V1 load(1, XDATA, add(CFA_XSP16, literal(-13)))
          CFI (cfiCond265) V2 load(1, XDATA, add(CFA_XSP16, literal(-12)))
          CFI (cfiCond265) V3 load(1, XDATA, add(CFA_XSP16, literal(-11)))
          CFI (cfiCond265) V4 load(1, XDATA, add(CFA_XSP16, literal(-10)))
          CFI (cfiCond265) V5 load(1, XDATA, add(CFA_XSP16, literal(-9)))
          CFI (cfiCond265) V6 load(1, XDATA, add(CFA_XSP16, literal(-8)))
          CFI (cfiCond265) V7 load(1, XDATA, add(CFA_XSP16, literal(-7)))
          CFI (cfiCond265) R7 load(1, XDATA, add(CFA_XSP16, literal(-6)))
          CFI (cfiCond265) ?RET_LOW load(1, XDATA, add(CFA_XSP16, literal(-5)))
          CFI (cfiCond265) ?RET_HIGH load(1, XDATA, add(CFA_XSP16, literal(-4)))
          CFI (cfiCond265) ?BRET_EXT load(1, XDATA, add(CFA_XSP16, literal(-3)))
          CFI (cfiCond265) DPL0 load(1, XDATA, add(CFA_XSP16, literal(-2)))
          CFI (cfiCond265) DPH0 load(1, XDATA, add(CFA_XSP16, literal(-1)))
          CFI (cfiCond265) CFA_SP SP+-2
          CFI (cfiCond265) CFA_XSP16 add(XSP16, 34)
          CFI Block cfiPicker266 Using cfiCommon1
          CFI (cfiPicker266) NoFunction
          CFI (cfiPicker266) Picker
        LCALL     ?Subroutine42 & 0xFFFF
??CrossCallReturnLabel_162:
        MOV       A,R0
        ORL       A,R1
        RET
          CFI EndBlock cfiCond255
          CFI EndBlock cfiCond256
          CFI EndBlock cfiCond257
          CFI EndBlock cfiCond258
          CFI EndBlock cfiCond259
          CFI EndBlock cfiCond260
          CFI EndBlock cfiCond261
          CFI EndBlock cfiCond262
          CFI EndBlock cfiCond263
          CFI EndBlock cfiCond264
          CFI EndBlock cfiCond265
          CFI EndBlock cfiPicker266

        RSEG BANKED_CODE:HUGECODE:NOROOT(0)
?Subroutine42:
          CFI Block cfiCond267 Using cfiCommon0
          CFI Function MT_AfExec
          CFI Conditional ??CrossCallReturnLabel_158
          CFI R6 load(1, XDATA, add(CFA_XSP16, literal(-9)))
          CFI VB load(1, XDATA, add(CFA_XSP16, literal(-8)))
          CFI V0 load(1, XDATA, add(CFA_XSP16, literal(-7)))
          CFI R7 load(1, XDATA, add(CFA_XSP16, literal(-6)))
          CFI ?RET_LOW load(1, XDATA, add(CFA_XSP16, literal(-5)))
          CFI ?RET_HIGH load(1, XDATA, add(CFA_XSP16, literal(-4)))
          CFI ?BRET_EXT load(1, XDATA, add(CFA_XSP16, literal(-3)))
          CFI DPL0 load(1, XDATA, add(CFA_XSP16, literal(-2)))
          CFI DPH0 load(1, XDATA, add(CFA_XSP16, literal(-1)))
          CFI CFA_SP SP+-2
          CFI CFA_XSP16 add(XSP16, 9)
          CFI Block cfiCond268 Using cfiCommon0
          CFI (cfiCond268) Function MT_AfExec
          CFI (cfiCond268) Conditional ??CrossCallReturnLabel_159
          CFI (cfiCond268) R6 load(1, XDATA, add(CFA_XSP16, literal(-9)))
          CFI (cfiCond268) VB load(1, XDATA, add(CFA_XSP16, literal(-8)))
          CFI (cfiCond268) V0 load(1, XDATA, add(CFA_XSP16, literal(-7)))
          CFI (cfiCond268) R7 load(1, XDATA, add(CFA_XSP16, literal(-6)))
          CFI (cfiCond268) ?RET_LOW load(1, XDATA, add(CFA_XSP16, literal(-5)))
          CFI (cfiCond268) ?RET_HIGH load(1, XDATA, add(CFA_XSP16, literal(-4)))
          CFI (cfiCond268) ?BRET_EXT load(1, XDATA, add(CFA_XSP16, literal(-3)))
          CFI (cfiCond268) DPL0 load(1, XDATA, add(CFA_XSP16, literal(-2)))
          CFI (cfiCond268) DPH0 load(1, XDATA, add(CFA_XSP16, literal(-1)))
          CFI (cfiCond268) CFA_SP SP+-2
          CFI (cfiCond268) CFA_XSP16 add(XSP16, 9)
          CFI Block cfiCond269 Using cfiCommon0
          CFI (cfiCond269) Function MT_AfExec
          CFI (cfiCond269) Conditional ??CrossCallReturnLabel_161, ??CrossCallReturnLabel_20
          CFI (cfiCond269) R6 load(1, XDATA, add(CFA_XSP16, literal(-9)))
          CFI (cfiCond269) VB load(1, XDATA, add(CFA_XSP16, literal(-8)))
          CFI (cfiCond269) V0 load(1, XDATA, add(CFA_XSP16, literal(-7)))
          CFI (cfiCond269) R7 load(1, XDATA, add(CFA_XSP16, literal(-6)))
          CFI (cfiCond269) ?RET_LOW load(1, XDATA, add(CFA_XSP16, literal(-5)))
          CFI (cfiCond269) ?RET_HIGH load(1, XDATA, add(CFA_XSP16, literal(-4)))
          CFI (cfiCond269) ?BRET_EXT load(1, XDATA, add(CFA_XSP16, literal(-3)))
          CFI (cfiCond269) DPL0 load(1, XDATA, add(CFA_XSP16, literal(-2)))
          CFI (cfiCond269) DPH0 load(1, XDATA, add(CFA_XSP16, literal(-1)))
          CFI (cfiCond269) CFA_SP SP+-4
          CFI (cfiCond269) CFA_XSP16 add(XSP16, 9)
          CFI Block cfiCond270 Using cfiCommon0
          CFI (cfiCond270) Function MT_AfIncomingMsg
          CFI (cfiCond270) Conditional ??CrossCallReturnLabel_161, ??CrossCallReturnLabel_21
          CFI (cfiCond270) R6 load(1, XDATA, add(CFA_XSP16, literal(-16)))
          CFI (cfiCond270) VB load(1, XDATA, add(CFA_XSP16, literal(-15)))
          CFI (cfiCond270) V0 load(1, XDATA, add(CFA_XSP16, literal(-14)))
          CFI (cfiCond270) V1 load(1, XDATA, add(CFA_XSP16, literal(-13)))
          CFI (cfiCond270) V2 load(1, XDATA, add(CFA_XSP16, literal(-12)))
          CFI (cfiCond270) V3 load(1, XDATA, add(CFA_XSP16, literal(-11)))
          CFI (cfiCond270) V4 load(1, XDATA, add(CFA_XSP16, literal(-10)))
          CFI (cfiCond270) V5 load(1, XDATA, add(CFA_XSP16, literal(-9)))
          CFI (cfiCond270) V6 load(1, XDATA, add(CFA_XSP16, literal(-8)))
          CFI (cfiCond270) V7 load(1, XDATA, add(CFA_XSP16, literal(-7)))
          CFI (cfiCond270) R7 load(1, XDATA, add(CFA_XSP16, literal(-6)))
          CFI (cfiCond270) ?RET_LOW load(1, XDATA, add(CFA_XSP16, literal(-5)))
          CFI (cfiCond270) ?RET_HIGH load(1, XDATA, add(CFA_XSP16, literal(-4)))
          CFI (cfiCond270) ?BRET_EXT load(1, XDATA, add(CFA_XSP16, literal(-3)))
          CFI (cfiCond270) DPL0 load(1, XDATA, add(CFA_XSP16, literal(-2)))
          CFI (cfiCond270) DPH0 load(1, XDATA, add(CFA_XSP16, literal(-1)))
          CFI (cfiCond270) CFA_SP SP+-4
          CFI (cfiCond270) CFA_XSP16 add(XSP16, 25)
          CFI Block cfiCond271 Using cfiCommon0
          CFI (cfiCond271) Function MT_AfExec
          CFI (cfiCond271) Conditional ??CrossCallReturnLabel_162, ??CrossCallReturnLabel_154
          CFI (cfiCond271) R6 load(1, XDATA, add(CFA_XSP16, literal(-9)))
          CFI (cfiCond271) VB load(1, XDATA, add(CFA_XSP16, literal(-8)))
          CFI (cfiCond271) V0 load(1, XDATA, add(CFA_XSP16, literal(-7)))
          CFI (cfiCond271) R7 load(1, XDATA, add(CFA_XSP16, literal(-6)))
          CFI (cfiCond271) ?RET_LOW load(1, XDATA, add(CFA_XSP16, literal(-5)))
          CFI (cfiCond271) ?RET_HIGH load(1, XDATA, add(CFA_XSP16, literal(-4)))
          CFI (cfiCond271) ?BRET_EXT load(1, XDATA, add(CFA_XSP16, literal(-3)))
          CFI (cfiCond271) DPL0 load(1, XDATA, add(CFA_XSP16, literal(-2)))
          CFI (cfiCond271) DPH0 load(1, XDATA, add(CFA_XSP16, literal(-1)))
          CFI (cfiCond271) CFA_SP SP+-4
          CFI (cfiCond271) CFA_XSP16 add(XSP16, 9)
          CFI Block cfiCond272 Using cfiCommon0
          CFI (cfiCond272) Function MT_AfExec
          CFI (cfiCond272) Conditional ??CrossCallReturnLabel_162, ??CrossCallReturnLabel_155
          CFI (cfiCond272) R6 load(1, XDATA, add(CFA_XSP16, literal(-9)))
          CFI (cfiCond272) VB load(1, XDATA, add(CFA_XSP16, literal(-8)))
          CFI (cfiCond272) V0 load(1, XDATA, add(CFA_XSP16, literal(-7)))
          CFI (cfiCond272) R7 load(1, XDATA, add(CFA_XSP16, literal(-6)))
          CFI (cfiCond272) ?RET_LOW load(1, XDATA, add(CFA_XSP16, literal(-5)))
          CFI (cfiCond272) ?RET_HIGH load(1, XDATA, add(CFA_XSP16, literal(-4)))
          CFI (cfiCond272) ?BRET_EXT load(1, XDATA, add(CFA_XSP16, literal(-3)))
          CFI (cfiCond272) DPL0 load(1, XDATA, add(CFA_XSP16, literal(-2)))
          CFI (cfiCond272) DPH0 load(1, XDATA, add(CFA_XSP16, literal(-1)))
          CFI (cfiCond272) CFA_SP SP+-4
          CFI (cfiCond272) CFA_XSP16 add(XSP16, 9)
          CFI Block cfiCond273 Using cfiCommon0
          CFI (cfiCond273) Function MT_AfDataRequest
          CFI (cfiCond273) Conditional ??CrossCallReturnLabel_162, ??CrossCallReturnLabel_156
          CFI (cfiCond273) R6 load(1, XDATA, add(CFA_XSP16, literal(-16)))
          CFI (cfiCond273) VB load(1, XDATA, add(CFA_XSP16, literal(-15)))
          CFI (cfiCond273) V0 load(1, XDATA, add(CFA_XSP16, literal(-14)))
          CFI (cfiCond273) V1 load(1, XDATA, add(CFA_XSP16, literal(-13)))
          CFI (cfiCond273) V2 load(1, XDATA, add(CFA_XSP16, literal(-12)))
          CFI (cfiCond273) V3 load(1, XDATA, add(CFA_XSP16, literal(-11)))
          CFI (cfiCond273) V4 load(1, XDATA, add(CFA_XSP16, literal(-10)))
          CFI (cfiCond273) V5 load(1, XDATA, add(CFA_XSP16, literal(-9)))
          CFI (cfiCond273) V6 load(1, XDATA, add(CFA_XSP16, literal(-8)))
          CFI (cfiCond273) V7 load(1, XDATA, add(CFA_XSP16, literal(-7)))
          CFI (cfiCond273) R7 load(1, XDATA, add(CFA_XSP16, literal(-6)))
          CFI (cfiCond273) ?RET_LOW load(1, XDATA, add(CFA_XSP16, literal(-5)))
          CFI (cfiCond273) ?RET_HIGH load(1, XDATA, add(CFA_XSP16, literal(-4)))
          CFI (cfiCond273) ?BRET_EXT load(1, XDATA, add(CFA_XSP16, literal(-3)))
          CFI (cfiCond273) DPL0 load(1, XDATA, add(CFA_XSP16, literal(-2)))
          CFI (cfiCond273) DPH0 load(1, XDATA, add(CFA_XSP16, literal(-1)))
          CFI (cfiCond273) CFA_SP SP+-4
          CFI (cfiCond273) CFA_XSP16 add(XSP16, 34)
          CFI Block cfiCond274 Using cfiCommon0
          CFI (cfiCond274) Function MT_AfDataRequest
          CFI (cfiCond274) Conditional ??CrossCallReturnLabel_162, ??CrossCallReturnLabel_157
          CFI (cfiCond274) R6 load(1, XDATA, add(CFA_XSP16, literal(-16)))
          CFI (cfiCond274) VB load(1, XDATA, add(CFA_XSP16, literal(-15)))
          CFI (cfiCond274) V0 load(1, XDATA, add(CFA_XSP16, literal(-14)))
          CFI (cfiCond274) V1 load(1, XDATA, add(CFA_XSP16, literal(-13)))
          CFI (cfiCond274) V2 load(1, XDATA, add(CFA_XSP16, literal(-12)))
          CFI (cfiCond274) V3 load(1, XDATA, add(CFA_XSP16, literal(-11)))
          CFI (cfiCond274) V4 load(1, XDATA, add(CFA_XSP16, literal(-10)))
          CFI (cfiCond274) V5 load(1, XDATA, add(CFA_XSP16, literal(-9)))
          CFI (cfiCond274) V6 load(1, XDATA, add(CFA_XSP16, literal(-8)))
          CFI (cfiCond274) V7 load(1, XDATA, add(CFA_XSP16, literal(-7)))
          CFI (cfiCond274) R7 load(1, XDATA, add(CFA_XSP16, literal(-6)))
          CFI (cfiCond274) ?RET_LOW load(1, XDATA, add(CFA_XSP16, literal(-5)))
          CFI (cfiCond274) ?RET_HIGH load(1, XDATA, add(CFA_XSP16, literal(-4)))
          CFI (cfiCond274) ?BRET_EXT load(1, XDATA, add(CFA_XSP16, literal(-3)))
          CFI (cfiCond274) DPL0 load(1, XDATA, add(CFA_XSP16, literal(-2)))
          CFI (cfiCond274) DPH0 load(1, XDATA, add(CFA_XSP16, literal(-1)))
          CFI (cfiCond274) CFA_SP SP+-4
          CFI (cfiCond274) CFA_XSP16 add(XSP16, 34)
          CFI Block cfiCond275 Using cfiCommon0
          CFI (cfiCond275) Function MT_AfExec
          CFI (cfiCond275) Conditional ??CrossCallReturnLabel_162, ??CrossCallReturnLabel_147
          CFI (cfiCond275) R6 load(1, XDATA, add(CFA_XSP16, literal(-9)))
          CFI (cfiCond275) VB load(1, XDATA, add(CFA_XSP16, literal(-8)))
          CFI (cfiCond275) V0 load(1, XDATA, add(CFA_XSP16, literal(-7)))
          CFI (cfiCond275) R7 load(1, XDATA, add(CFA_XSP16, literal(-6)))
          CFI (cfiCond275) ?RET_LOW load(1, XDATA, add(CFA_XSP16, literal(-5)))
          CFI (cfiCond275) ?RET_HIGH load(1, XDATA, add(CFA_XSP16, literal(-4)))
          CFI (cfiCond275) ?BRET_EXT load(1, XDATA, add(CFA_XSP16, literal(-3)))
          CFI (cfiCond275) DPL0 load(1, XDATA, add(CFA_XSP16, literal(-2)))
          CFI (cfiCond275) DPH0 load(1, XDATA, add(CFA_XSP16, literal(-1)))
          CFI (cfiCond275) CFA_SP SP+-4
          CFI (cfiCond275) CFA_XSP16 add(XSP16, 9)
          CFI Block cfiCond276 Using cfiCommon0
          CFI (cfiCond276) Function MT_AfDataRequestSrcRtg
          CFI (cfiCond276) Conditional ??CrossCallReturnLabel_162, ??CrossCallReturnLabel_148
          CFI (cfiCond276) R6 load(1, XDATA, add(CFA_XSP16, literal(-16)))
          CFI (cfiCond276) VB load(1, XDATA, add(CFA_XSP16, literal(-15)))
          CFI (cfiCond276) V0 load(1, XDATA, add(CFA_XSP16, literal(-14)))
          CFI (cfiCond276) V1 load(1, XDATA, add(CFA_XSP16, literal(-13)))
          CFI (cfiCond276) V2 load(1, XDATA, add(CFA_XSP16, literal(-12)))
          CFI (cfiCond276) V3 load(1, XDATA, add(CFA_XSP16, literal(-11)))
          CFI (cfiCond276) V4 load(1, XDATA, add(CFA_XSP16, literal(-10)))
          CFI (cfiCond276) V5 load(1, XDATA, add(CFA_XSP16, literal(-9)))
          CFI (cfiCond276) V6 load(1, XDATA, add(CFA_XSP16, literal(-8)))
          CFI (cfiCond276) V7 load(1, XDATA, add(CFA_XSP16, literal(-7)))
          CFI (cfiCond276) R7 load(1, XDATA, add(CFA_XSP16, literal(-6)))
          CFI (cfiCond276) ?RET_LOW load(1, XDATA, add(CFA_XSP16, literal(-5)))
          CFI (cfiCond276) ?RET_HIGH load(1, XDATA, add(CFA_XSP16, literal(-4)))
          CFI (cfiCond276) ?BRET_EXT load(1, XDATA, add(CFA_XSP16, literal(-3)))
          CFI (cfiCond276) DPL0 load(1, XDATA, add(CFA_XSP16, literal(-2)))
          CFI (cfiCond276) DPH0 load(1, XDATA, add(CFA_XSP16, literal(-1)))
          CFI (cfiCond276) CFA_SP SP+-4
          CFI (cfiCond276) CFA_XSP16 add(XSP16, 35)
          CFI Block cfiCond277 Using cfiCommon0
          CFI (cfiCond277) Function MT_AfIncomingMsg
          CFI (cfiCond277) Conditional ??CrossCallReturnLabel_162, ??CrossCallReturnLabel_149
          CFI (cfiCond277) R6 load(1, XDATA, add(CFA_XSP16, literal(-16)))
          CFI (cfiCond277) VB load(1, XDATA, add(CFA_XSP16, literal(-15)))
          CFI (cfiCond277) V0 load(1, XDATA, add(CFA_XSP16, literal(-14)))
          CFI (cfiCond277) V1 load(1, XDATA, add(CFA_XSP16, literal(-13)))
          CFI (cfiCond277) V2 load(1, XDATA, add(CFA_XSP16, literal(-12)))
          CFI (cfiCond277) V3 load(1, XDATA, add(CFA_XSP16, literal(-11)))
          CFI (cfiCond277) V4 load(1, XDATA, add(CFA_XSP16, literal(-10)))
          CFI (cfiCond277) V5 load(1, XDATA, add(CFA_XSP16, literal(-9)))
          CFI (cfiCond277) V6 load(1, XDATA, add(CFA_XSP16, literal(-8)))
          CFI (cfiCond277) V7 load(1, XDATA, add(CFA_XSP16, literal(-7)))
          CFI (cfiCond277) R7 load(1, XDATA, add(CFA_XSP16, literal(-6)))
          CFI (cfiCond277) ?RET_LOW load(1, XDATA, add(CFA_XSP16, literal(-5)))
          CFI (cfiCond277) ?RET_HIGH load(1, XDATA, add(CFA_XSP16, literal(-4)))
          CFI (cfiCond277) ?BRET_EXT load(1, XDATA, add(CFA_XSP16, literal(-3)))
          CFI (cfiCond277) DPL0 load(1, XDATA, add(CFA_XSP16, literal(-2)))
          CFI (cfiCond277) DPH0 load(1, XDATA, add(CFA_XSP16, literal(-1)))
          CFI (cfiCond277) CFA_SP SP+-4
          CFI (cfiCond277) CFA_XSP16 add(XSP16, 25)
          CFI Block cfiCond278 Using cfiCommon0
          CFI (cfiCond278) Function MT_AfIncomingMsg
          CFI (cfiCond278) Conditional ??CrossCallReturnLabel_162, ??CrossCallReturnLabel_150
          CFI (cfiCond278) R6 load(1, XDATA, add(CFA_XSP16, literal(-16)))
          CFI (cfiCond278) VB load(1, XDATA, add(CFA_XSP16, literal(-15)))
          CFI (cfiCond278) V0 load(1, XDATA, add(CFA_XSP16, literal(-14)))
          CFI (cfiCond278) V1 load(1, XDATA, add(CFA_XSP16, literal(-13)))
          CFI (cfiCond278) V2 load(1, XDATA, add(CFA_XSP16, literal(-12)))
          CFI (cfiCond278) V3 load(1, XDATA, add(CFA_XSP16, literal(-11)))
          CFI (cfiCond278) V4 load(1, XDATA, add(CFA_XSP16, literal(-10)))
          CFI (cfiCond278) V5 load(1, XDATA, add(CFA_XSP16, literal(-9)))
          CFI (cfiCond278) V6 load(1, XDATA, add(CFA_XSP16, literal(-8)))
          CFI (cfiCond278) V7 load(1, XDATA, add(CFA_XSP16, literal(-7)))
          CFI (cfiCond278) R7 load(1, XDATA, add(CFA_XSP16, literal(-6)))
          CFI (cfiCond278) ?RET_LOW load(1, XDATA, add(CFA_XSP16, literal(-5)))
          CFI (cfiCond278) ?RET_HIGH load(1, XDATA, add(CFA_XSP16, literal(-4)))
          CFI (cfiCond278) ?BRET_EXT load(1, XDATA, add(CFA_XSP16, literal(-3)))
          CFI (cfiCond278) DPL0 load(1, XDATA, add(CFA_XSP16, literal(-2)))
          CFI (cfiCond278) DPH0 load(1, XDATA, add(CFA_XSP16, literal(-1)))
          CFI (cfiCond278) CFA_SP SP+-4
          CFI (cfiCond278) CFA_XSP16 add(XSP16, 25)
          CFI Block cfiCond279 Using cfiCommon0
          CFI (cfiCond279) Function MT_AfIncomingMsg
          CFI (cfiCond279) Conditional ??CrossCallReturnLabel_162, ??CrossCallReturnLabel_151
          CFI (cfiCond279) R6 load(1, XDATA, add(CFA_XSP16, literal(-16)))
          CFI (cfiCond279) VB load(1, XDATA, add(CFA_XSP16, literal(-15)))
          CFI (cfiCond279) V0 load(1, XDATA, add(CFA_XSP16, literal(-14)))
          CFI (cfiCond279) V1 load(1, XDATA, add(CFA_XSP16, literal(-13)))
          CFI (cfiCond279) V2 load(1, XDATA, add(CFA_XSP16, literal(-12)))
          CFI (cfiCond279) V3 load(1, XDATA, add(CFA_XSP16, literal(-11)))
          CFI (cfiCond279) V4 load(1, XDATA, add(CFA_XSP16, literal(-10)))
          CFI (cfiCond279) V5 load(1, XDATA, add(CFA_XSP16, literal(-9)))
          CFI (cfiCond279) V6 load(1, XDATA, add(CFA_XSP16, literal(-8)))
          CFI (cfiCond279) V7 load(1, XDATA, add(CFA_XSP16, literal(-7)))
          CFI (cfiCond279) R7 load(1, XDATA, add(CFA_XSP16, literal(-6)))
          CFI (cfiCond279) ?RET_LOW load(1, XDATA, add(CFA_XSP16, literal(-5)))
          CFI (cfiCond279) ?RET_HIGH load(1, XDATA, add(CFA_XSP16, literal(-4)))
          CFI (cfiCond279) ?BRET_EXT load(1, XDATA, add(CFA_XSP16, literal(-3)))
          CFI (cfiCond279) DPL0 load(1, XDATA, add(CFA_XSP16, literal(-2)))
          CFI (cfiCond279) DPH0 load(1, XDATA, add(CFA_XSP16, literal(-1)))
          CFI (cfiCond279) CFA_SP SP+-4
          CFI (cfiCond279) CFA_XSP16 add(XSP16, 25)
          CFI Block cfiCond280 Using cfiCommon0
          CFI (cfiCond280) Function MT_AfIncomingMsg
          CFI (cfiCond280) Conditional ??CrossCallReturnLabel_162, ??CrossCallReturnLabel_152
          CFI (cfiCond280) R6 load(1, XDATA, add(CFA_XSP16, literal(-16)))
          CFI (cfiCond280) VB load(1, XDATA, add(CFA_XSP16, literal(-15)))
          CFI (cfiCond280) V0 load(1, XDATA, add(CFA_XSP16, literal(-14)))
          CFI (cfiCond280) V1 load(1, XDATA, add(CFA_XSP16, literal(-13)))
          CFI (cfiCond280) V2 load(1, XDATA, add(CFA_XSP16, literal(-12)))
          CFI (cfiCond280) V3 load(1, XDATA, add(CFA_XSP16, literal(-11)))
          CFI (cfiCond280) V4 load(1, XDATA, add(CFA_XSP16, literal(-10)))
          CFI (cfiCond280) V5 load(1, XDATA, add(CFA_XSP16, literal(-9)))
          CFI (cfiCond280) V6 load(1, XDATA, add(CFA_XSP16, literal(-8)))
          CFI (cfiCond280) V7 load(1, XDATA, add(CFA_XSP16, literal(-7)))
          CFI (cfiCond280) R7 load(1, XDATA, add(CFA_XSP16, literal(-6)))
          CFI (cfiCond280) ?RET_LOW load(1, XDATA, add(CFA_XSP16, literal(-5)))
          CFI (cfiCond280) ?RET_HIGH load(1, XDATA, add(CFA_XSP16, literal(-4)))
          CFI (cfiCond280) ?BRET_EXT load(1, XDATA, add(CFA_XSP16, literal(-3)))
          CFI (cfiCond280) DPL0 load(1, XDATA, add(CFA_XSP16, literal(-2)))
          CFI (cfiCond280) DPH0 load(1, XDATA, add(CFA_XSP16, literal(-1)))
          CFI (cfiCond280) CFA_SP SP+-4
          CFI (cfiCond280) CFA_XSP16 add(XSP16, 25)
          CFI Block cfiCond281 Using cfiCommon0
          CFI (cfiCond281) Function MT_AfDataRetrieve
          CFI (cfiCond281) Conditional ??CrossCallReturnLabel_162, ??CrossCallReturnLabel_153
          CFI (cfiCond281) R6 load(1, XDATA, add(CFA_XSP16, literal(-16)))
          CFI (cfiCond281) VB load(1, XDATA, add(CFA_XSP16, literal(-15)))
          CFI (cfiCond281) V0 load(1, XDATA, add(CFA_XSP16, literal(-14)))
          CFI (cfiCond281) V1 load(1, XDATA, add(CFA_XSP16, literal(-13)))
          CFI (cfiCond281) V2 load(1, XDATA, add(CFA_XSP16, literal(-12)))
          CFI (cfiCond281) V3 load(1, XDATA, add(CFA_XSP16, literal(-11)))
          CFI (cfiCond281) V4 load(1, XDATA, add(CFA_XSP16, literal(-10)))
          CFI (cfiCond281) V5 load(1, XDATA, add(CFA_XSP16, literal(-9)))
          CFI (cfiCond281) V6 load(1, XDATA, add(CFA_XSP16, literal(-8)))
          CFI (cfiCond281) V7 load(1, XDATA, add(CFA_XSP16, literal(-7)))
          CFI (cfiCond281) R7 load(1, XDATA, add(CFA_XSP16, literal(-6)))
          CFI (cfiCond281) ?RET_LOW load(1, XDATA, add(CFA_XSP16, literal(-5)))
          CFI (cfiCond281) ?RET_HIGH load(1, XDATA, add(CFA_XSP16, literal(-4)))
          CFI (cfiCond281) ?BRET_EXT load(1, XDATA, add(CFA_XSP16, literal(-3)))
          CFI (cfiCond281) DPL0 load(1, XDATA, add(CFA_XSP16, literal(-2)))
          CFI (cfiCond281) DPH0 load(1, XDATA, add(CFA_XSP16, literal(-1)))
          CFI (cfiCond281) CFA_SP SP+-4
          CFI (cfiCond281) CFA_XSP16 add(XSP16, 18)
          CFI Block cfiCond282 Using cfiCommon0
          CFI (cfiCond282) Function MT_AfDataRetrieve
          CFI (cfiCond282) Conditional ??CrossCallReturnLabel_160, ??CrossCallReturnLabel_6
          CFI (cfiCond282) R6 load(1, XDATA, add(CFA_XSP16, literal(-16)))
          CFI (cfiCond282) VB load(1, XDATA, add(CFA_XSP16, literal(-15)))
          CFI (cfiCond282) V0 load(1, XDATA, add(CFA_XSP16, literal(-14)))
          CFI (cfiCond282) V1 load(1, XDATA, add(CFA_XSP16, literal(-13)))
          CFI (cfiCond282) V2 load(1, XDATA, add(CFA_XSP16, literal(-12)))
          CFI (cfiCond282) V3 load(1, XDATA, add(CFA_XSP16, literal(-11)))
          CFI (cfiCond282) V4 load(1, XDATA, add(CFA_XSP16, literal(-10)))
          CFI (cfiCond282) V5 load(1, XDATA, add(CFA_XSP16, literal(-9)))
          CFI (cfiCond282) V6 load(1, XDATA, add(CFA_XSP16, literal(-8)))
          CFI (cfiCond282) V7 load(1, XDATA, add(CFA_XSP16, literal(-7)))
          CFI (cfiCond282) R7 load(1, XDATA, add(CFA_XSP16, literal(-6)))
          CFI (cfiCond282) ?RET_LOW load(1, XDATA, add(CFA_XSP16, literal(-5)))
          CFI (cfiCond282) ?RET_HIGH load(1, XDATA, add(CFA_XSP16, literal(-4)))
          CFI (cfiCond282) ?BRET_EXT load(1, XDATA, add(CFA_XSP16, literal(-3)))
          CFI (cfiCond282) DPL0 load(1, XDATA, add(CFA_XSP16, literal(-2)))
          CFI (cfiCond282) DPH0 load(1, XDATA, add(CFA_XSP16, literal(-1)))
          CFI (cfiCond282) CFA_SP SP+-4
          CFI (cfiCond282) CFA_XSP16 add(XSP16, 18)
          CFI Block cfiCond283 Using cfiCommon0
          CFI (cfiCond283) Function MT_AfDataRetrieve
          CFI (cfiCond283) Conditional ??CrossCallReturnLabel_160, ??CrossCallReturnLabel_7
          CFI (cfiCond283) R6 load(1, XDATA, add(CFA_XSP16, literal(-16)))
          CFI (cfiCond283) VB load(1, XDATA, add(CFA_XSP16, literal(-15)))
          CFI (cfiCond283) V0 load(1, XDATA, add(CFA_XSP16, literal(-14)))
          CFI (cfiCond283) V1 load(1, XDATA, add(CFA_XSP16, literal(-13)))
          CFI (cfiCond283) V2 load(1, XDATA, add(CFA_XSP16, literal(-12)))
          CFI (cfiCond283) V3 load(1, XDATA, add(CFA_XSP16, literal(-11)))
          CFI (cfiCond283) V4 load(1, XDATA, add(CFA_XSP16, literal(-10)))
          CFI (cfiCond283) V5 load(1, XDATA, add(CFA_XSP16, literal(-9)))
          CFI (cfiCond283) V6 load(1, XDATA, add(CFA_XSP16, literal(-8)))
          CFI (cfiCond283) V7 load(1, XDATA, add(CFA_XSP16, literal(-7)))
          CFI (cfiCond283) R7 load(1, XDATA, add(CFA_XSP16, literal(-6)))
          CFI (cfiCond283) ?RET_LOW load(1, XDATA, add(CFA_XSP16, literal(-5)))
          CFI (cfiCond283) ?RET_HIGH load(1, XDATA, add(CFA_XSP16, literal(-4)))
          CFI (cfiCond283) ?BRET_EXT load(1, XDATA, add(CFA_XSP16, literal(-3)))
          CFI (cfiCond283) DPL0 load(1, XDATA, add(CFA_XSP16, literal(-2)))
          CFI (cfiCond283) DPH0 load(1, XDATA, add(CFA_XSP16, literal(-1)))
          CFI (cfiCond283) CFA_SP SP+-4
          CFI (cfiCond283) CFA_XSP16 add(XSP16, 18)
          CFI Block cfiPicker284 Using cfiCommon1
          CFI (cfiPicker284) NoFunction
          CFI (cfiPicker284) Picker
        MOVX      A,@DPTR
        MOV       R0,A
        INC       DPTR
        MOVX      A,@DPTR
        MOV       R1,A
        RET
          CFI EndBlock cfiCond267
          CFI EndBlock cfiCond268
          CFI EndBlock cfiCond269
          CFI EndBlock cfiCond270
          CFI EndBlock cfiCond271
          CFI EndBlock cfiCond272
          CFI EndBlock cfiCond273
          CFI EndBlock cfiCond274
          CFI EndBlock cfiCond275
          CFI EndBlock cfiCond276
          CFI EndBlock cfiCond277
          CFI EndBlock cfiCond278
          CFI EndBlock cfiCond279
          CFI EndBlock cfiCond280
          CFI EndBlock cfiCond281
          CFI EndBlock cfiCond282
          CFI EndBlock cfiCond283
          CFI EndBlock cfiPicker284
//  820 
//  821 /**************************************************************************************************
//  822  * @fn          MT_AfDataRetrieve
//  823  *
//  824  * @brief   Process AF Data Retrieve command to incrementally read out a very large
//  825  *          incoming AF message.
//  826  *
//  827  * input parameters
//  828  *
//  829  * @param pBuf - pointer to the received buffer
//  830  *
//  831  * output parameters
//  832  *
//  833  * @param rtrn - AF-Status of the operation.
//  834  *
//  835  * @return      None.
//  836  **************************************************************************************************
//  837  */

        RSEG BANKED_CODE:HUGECODE:NOROOT(0)
//  838 static void MT_AfDataRetrieve(uint8 *pBuf)
MT_AfDataRetrieve:
          CFI Block cfiBlock285 Using cfiCommon0
          CFI Function MT_AfDataRetrieve
        CODE
//  839 {
        FUNCALL MT_AfDataRetrieve, osal_build_uint32
        LOCFRAME ISTACK, 0, STACK
        LOCFRAME PSTACK, 0, STACK
        LOCFRAME XSTACK, 18, STACK
        LOCFRAME IOVERLAY, 0, STATIC
        LOCFRAME DOVERLAY, 0, STATIC
        ARGFRAME ISTACK, 0, STACK
        ARGFRAME PSTACK, 0, STACK
        ARGFRAME XSTACK, 18, STACK
        ARGFRAME IOVERLAY, 0, STATIC
        ARGFRAME DOVERLAY, 0, STATIC
        FUNCALL MT_AfDataRetrieve, osal_build_uint16
        LOCFRAME ISTACK, 0, STACK
        LOCFRAME PSTACK, 0, STACK
        LOCFRAME XSTACK, 18, STACK
        LOCFRAME IOVERLAY, 0, STATIC
        LOCFRAME DOVERLAY, 0, STATIC
        ARGFRAME ISTACK, 0, STACK
        ARGFRAME PSTACK, 0, STACK
        ARGFRAME XSTACK, 18, STACK
        ARGFRAME IOVERLAY, 0, STATIC
        ARGFRAME DOVERLAY, 0, STATIC
        FUNCALL MT_AfDataRetrieve, osal_mem_free
        LOCFRAME ISTACK, 0, STACK
        LOCFRAME PSTACK, 0, STACK
        LOCFRAME XSTACK, 18, STACK
        LOCFRAME IOVERLAY, 0, STATIC
        LOCFRAME DOVERLAY, 0, STATIC
        ARGFRAME ISTACK, 0, STACK
        ARGFRAME PSTACK, 0, STACK
        ARGFRAME XSTACK, 18, STACK
        ARGFRAME IOVERLAY, 0, STATIC
        ARGFRAME DOVERLAY, 0, STATIC
        FUNCALL MT_AfDataRetrieve, MT_BuildAndSendZToolResponse
        LOCFRAME ISTACK, 0, STACK
        LOCFRAME PSTACK, 0, STACK
        LOCFRAME XSTACK, 18, STACK
        LOCFRAME IOVERLAY, 0, STATIC
        LOCFRAME DOVERLAY, 0, STATIC
        ARGFRAME ISTACK, 0, STACK
        ARGFRAME PSTACK, 0, STACK
        ARGFRAME XSTACK, 18, STACK
        ARGFRAME IOVERLAY, 0, STATIC
        ARGFRAME DOVERLAY, 0, STATIC
        FUNCALL MT_AfDataRetrieve, osal_mem_alloc
        LOCFRAME ISTACK, 0, STACK
        LOCFRAME PSTACK, 0, STACK
        LOCFRAME XSTACK, 18, STACK
        LOCFRAME IOVERLAY, 0, STATIC
        LOCFRAME DOVERLAY, 0, STATIC
        ARGFRAME ISTACK, 0, STACK
        ARGFRAME PSTACK, 0, STACK
        ARGFRAME XSTACK, 18, STACK
        ARGFRAME IOVERLAY, 0, STATIC
        ARGFRAME DOVERLAY, 0, STATIC
        FUNCALL MT_AfDataRetrieve, osal_memcpy
        LOCFRAME ISTACK, 0, STACK
        LOCFRAME PSTACK, 0, STACK
        LOCFRAME XSTACK, 21, STACK
        LOCFRAME IOVERLAY, 0, STATIC
        LOCFRAME DOVERLAY, 0, STATIC
        ARGFRAME ISTACK, 0, STACK
        ARGFRAME PSTACK, 0, STACK
        ARGFRAME XSTACK, 21, STACK
        ARGFRAME IOVERLAY, 0, STATIC
        ARGFRAME DOVERLAY, 0, STATIC
        FUNCALL MT_AfDataRetrieve, MT_BuildAndSendZToolResponse
        LOCFRAME ISTACK, 0, STACK
        LOCFRAME PSTACK, 0, STACK
        LOCFRAME XSTACK, 18, STACK
        LOCFRAME IOVERLAY, 0, STATIC
        LOCFRAME DOVERLAY, 0, STATIC
        ARGFRAME ISTACK, 0, STACK
        ARGFRAME PSTACK, 0, STACK
        ARGFRAME XSTACK, 18, STACK
        ARGFRAME IOVERLAY, 0, STATIC
        ARGFRAME DOVERLAY, 0, STATIC
        FUNCALL MT_AfDataRetrieve, osal_mem_free
        LOCFRAME ISTACK, 0, STACK
        LOCFRAME PSTACK, 0, STACK
        LOCFRAME XSTACK, 18, STACK
        LOCFRAME IOVERLAY, 0, STATIC
        LOCFRAME DOVERLAY, 0, STATIC
        ARGFRAME ISTACK, 0, STACK
        ARGFRAME PSTACK, 0, STACK
        ARGFRAME XSTACK, 18, STACK
        ARGFRAME IOVERLAY, 0, STATIC
        ARGFRAME DOVERLAY, 0, STATIC
        REQUIRE ?V0
        REQUIRE ?V1
        REQUIRE ?V2
        REQUIRE ?V3
        REQUIRE ?V4
        REQUIRE ?V5
        REQUIRE ?V6
        REQUIRE ?V7
        MOV       A,#-0x10
        LCALL     ?BANKED_ENTER_XDATA
          CFI DPH0 load(1, XDATA, add(CFA_XSP16, literal(-1)))
          CFI DPL0 load(1, XDATA, add(CFA_XSP16, literal(-2)))
          CFI ?BRET_EXT load(1, XDATA, add(CFA_XSP16, literal(-3)))
          CFI ?RET_HIGH load(1, XDATA, add(CFA_XSP16, literal(-4)))
          CFI ?RET_LOW load(1, XDATA, add(CFA_XSP16, literal(-5)))
          CFI R7 load(1, XDATA, add(CFA_XSP16, literal(-6)))
          CFI V7 load(1, XDATA, add(CFA_XSP16, literal(-7)))
          CFI V6 load(1, XDATA, add(CFA_XSP16, literal(-8)))
          CFI V5 load(1, XDATA, add(CFA_XSP16, literal(-9)))
          CFI V4 load(1, XDATA, add(CFA_XSP16, literal(-10)))
          CFI V3 load(1, XDATA, add(CFA_XSP16, literal(-11)))
          CFI V2 load(1, XDATA, add(CFA_XSP16, literal(-12)))
          CFI V1 load(1, XDATA, add(CFA_XSP16, literal(-13)))
          CFI V0 load(1, XDATA, add(CFA_XSP16, literal(-14)))
          CFI VB load(1, XDATA, add(CFA_XSP16, literal(-15)))
          CFI R6 load(1, XDATA, add(CFA_XSP16, literal(-16)))
          CFI CFA_SP SP+0
          CFI CFA_XSP16 add(XSP16, 16)
        ; Saved register size: 16
        ; Auto size: 2
        MOV       A,#-0x2
        LCALL     ?ALLOC_XSTACK8
          CFI CFA_XSP16 add(XSP16, 18)
        MOV       ?V5,R3
//  840   #define MT_AF_RTV_HDR_SZ  2
//  841 
//  842   uint32 timestamp;
//  843   mtAfInMsgList_t *pPrev, *pItem = pMtAfInMsgList;
        MOV       DPTR,#pMtAfInMsgList
        LCALL     ?Subroutine7 & 0xFFFF
//  844   uint8 rtrn = afStatus_FAILED;
??CrossCallReturnLabel_6:
        MOV       R7,#0x1
//  845   uint8 len = 0;
        MOV       R6,#0x0
//  846 
//  847   pBuf += MT_RPC_FRAME_HDR_SZ;
        MOV       A,R2
        ADD       A,#0x3
        MOV       ?V4,A
        JNC       ??MT_AfDataRetrieve_0
        INC       ?V5
//  848   timestamp = osal_build_uint32( pBuf, 4 );
??MT_AfDataRetrieve_0:
        ; Setup parameters for call to function osal_build_uint32
        MOV       R1,#0x4
        INC       R2
        INC       R2
        INC       R2
        MOV       R3,?V5
        LCALL     `??osal_build_uint32::?relay`; Banked call to: osal_build_uint32
        MOV       ?V0,R2
        MOV       ?V1,R3
        MOV       ?V2,R4
        MOV       ?V3,R5
        SJMP      ??CrossCallReturnLabel_7
//  849 
//  850   while (pItem != NULL)
//  851   {
//  852     pPrev = pItem;
//  853     if (pItem->timestamp == timestamp)
//  854     {
//  855       break;
//  856     }
//  857     pItem = pItem->next;
??MT_AfDataRetrieve_1:
        MOV       DPL,?XSP + 0
        MOV       DPH,?XSP + 1
        LCALL     ?Subroutine9 & 0xFFFF
??CrossCallReturnLabel_15:
        LCALL     ?Subroutine7 & 0xFFFF
??CrossCallReturnLabel_7:
        MOV       DPL,?XSP + 0
        MOV       DPH,?XSP + 1
        LCALL     ??Subroutine62_0 & 0xFFFF
??CrossCallReturnLabel_153:
        JZ        ??MT_AfDataRetrieve_2
        MOV       DPL,?XSP + 0
        MOV       DPH,?XSP + 1
        MOVX      A,@DPTR
        MOV       ?V6,A
        INC       DPTR
        MOVX      A,@DPTR
        MOV       ?V7,A
        MOV       DPH,A
        MOV       DPL,R0
        INC       DPTR
        INC       DPTR
        INC       DPTR
        INC       DPTR
        MOV       R0,#?V0
        LCALL     ?L_EQ_X
        JNZ       ??MT_AfDataRetrieve_1
//  858   }
//  859 
//  860   if (pItem != NULL)
//  861   {
//  862     uint16 idx;
//  863     uint8 *pRsp;
//  864 
//  865     pBuf += 4;
        MOV       A,?V4
        ADD       A,#0x4
        MOV       ?V4,A
        JNC       ??MT_AfDataRetrieve_3
        INC       ?V5
//  866     idx = osal_build_uint16( pBuf );
??MT_AfDataRetrieve_3:
        ; Setup parameters for call to function osal_build_uint16
        MOV       R2,A
        MOV       R3,?V5
        LCALL     `??osal_build_uint16::?relay`; Banked call to: osal_build_uint16
        MOV       ?V2,R2
        MOV       ?V3,R3
//  867     len = pBuf[2];
        MOV       DPL,?V4
        MOV       DPH,?V5
        INC       DPTR
        INC       DPTR
        MOVX      A,@DPTR
        MOV       R6,A
//  868 
//  869     if (len == 0)  // Indication to delete the afIncomingMSGPacket.
        JNZ       ??MT_AfDataRetrieve_4
//  870     {
//  871       if (pMtAfInMsgList == pItem)
        MOV       DPL,?XSP + 0
        MOV       DPH,?XSP + 1
        LCALL     ?Subroutine8 & 0xFFFF
??CrossCallReturnLabel_10:
        MOV       R0,A
        INC       DPTR
        MOVX      A,@DPTR
        MOV       R1,A
        MOV       DPTR,#pMtAfInMsgList
        LCALL     ??Subroutine61_0 & 0xFFFF
??CrossCallReturnLabel_143:
        MOV       DPL,?XSP + 0
        MOV       DPH,?XSP + 1
        MOVX      A,@DPTR
        XRL       A,R2
        JNZ       ??MT_AfDataRetrieve_5
        INC       DPTR
        MOVX      A,@DPTR
        XRL       A,R3
??MT_AfDataRetrieve_5:
        JNZ       ??MT_AfDataRetrieve_6
//  872       {
//  873         pMtAfInMsgList = pItem->next;
        MOV       DPTR,#pMtAfInMsgList
        SJMP      ??MT_AfDataRetrieve_7
//  874       }
//  875       else
//  876       {
//  877         pPrev->next = pItem->next;
??MT_AfDataRetrieve_6:
        MOV       DPL,?V6
        MOV       DPH,?V7
??MT_AfDataRetrieve_7:
        MOV       A,R0
        MOVX      @DPTR,A
        INC       DPTR
        MOV       A,R1
//  878       }
        LCALL     ??Subroutine57_0 & 0xFFFF
//  879       (void)osal_mem_free(pItem);
??CrossCallReturnLabel_115:
        LCALL     ??Subroutine61_0 & 0xFFFF
??CrossCallReturnLabel_144:
        LCALL     `??osal_mem_free::?relay`; Banked call to: osal_mem_free
//  880       rtrn = afStatus_SUCCESS;
        MOV       R7,#0x0
//  881     }
//  882     else if ((pRsp = osal_mem_alloc(len + MT_AF_RTV_HDR_SZ)) == NULL)
//  883     {
//  884       rtrn = afStatus_MEM_FAIL;
//  885       len = 0;
//  886     }
//  887     else
//  888     {
//  889       pRsp[0] = ZSuccess;
//  890       pRsp[1] = len;
//  891       (void)osal_memcpy(pRsp + MT_AF_RTV_HDR_SZ, pItem->data+idx, len);
//  892       MT_BuildAndSendZToolResponse(((uint8)MT_RPC_CMD_SRSP | (uint8)MT_RPC_SYS_AF),
//  893                                            MT_AF_DATA_RETRIEVE, len + MT_AF_RTV_HDR_SZ, pRsp);
//  894       (void)osal_mem_free(pRsp);
//  895       return;
//  896     }
//  897   }
//  898 
//  899   pBuf[0] = rtrn;
??MT_AfDataRetrieve_2:
        MOV       A,R7
        MOV       DPL,?V4
        MOV       DPH,?V5
        MOVX      @DPTR,A
//  900   pBuf[1] = len;
        MOV       A,R6
        INC       DPTR
        MOVX      @DPTR,A
//  901   MT_BuildAndSendZToolResponse(((uint8)MT_RPC_CMD_SRSP | (uint8)MT_RPC_SYS_AF),
//  902                                        MT_AF_DATA_RETRIEVE, MT_AF_RTV_HDR_SZ, pBuf);
        ; Setup parameters for call to function MT_BuildAndSendZToolResponse
        MOV       R4,?V4
        MOV       R5,?V5
        MOV       R3,#0x2
        MOV       R2,#0x12
        MOV       R1,#0x64
        LCALL     `??MT_BuildAndSendZToolResponse::?relay`; Banked call to: MT_BuildAndSendZToolResponse
//  903 }
??MT_AfDataRetrieve_8:
        MOV       A,#0x2
        LJMP      ?Subroutine1 & 0xFFFF
??MT_AfDataRetrieve_4:
        ; Setup parameters for call to function osal_mem_alloc
        ADD       A,#0x2
        MOV       R2,A
        CLR       A
        ADDC      A,#0x0
        MOV       R3,A
        LCALL     `??osal_mem_alloc::?relay`; Banked call to: osal_mem_alloc
        MOV       ?V6,R2
        MOV       ?V7,R3
        MOV       A,R2
        ORL       A,?V7
        JNZ       ??MT_AfDataRetrieve_9
        MOV       R7,#0x10
        MOV       R6,#0x0
        SJMP      ??MT_AfDataRetrieve_2
??MT_AfDataRetrieve_9:
        MOV       DPL,R2
        MOV       DPH,R3
        CLR       A
        MOVX      @DPTR,A
        MOV       A,R6
        LCALL     ?Subroutine33 & 0xFFFF
??CrossCallReturnLabel_114:
        LCALL     ?Subroutine5 & 0xFFFF
??CrossCallReturnLabel_3:
        MOVX      A,@DPTR
        ADD       A,?V2
        MOV       ?V0,A
        INC       DPTR
        MOVX      A,@DPTR
        ADDC      A,?V3
        MOV       ?V1,A
        MOV       ?V2,#0x0
        MOV       R0,#?V0
        LCALL     ?PUSH_XSTACK_I_THREE
          CFI CFA_XSP16 add(XSP16, 21)
        MOV       A,R6
        MOV       R4,A
        MOV       R5,#0x0
        MOV       A,R2
        ADD       A,#0x2
        MOV       R2,A
        CLR       A
        ADDC      A,?V7
        MOV       R3,A
        LCALL     `??osal_memcpy::?relay`; Banked call to: osal_memcpy
        MOV       A,#0x3
        LCALL     ?DEALLOC_XSTACK8
          CFI CFA_XSP16 add(XSP16, 18)
        ; Setup parameters for call to function MT_BuildAndSendZToolResponse
        MOV       R4,?V6
        MOV       R5,?V7
        MOV       A,#0x2
        ADD       A,R6
        MOV       R3,A
        MOV       R2,#0x12
        MOV       R1,#0x64
        LCALL     `??MT_BuildAndSendZToolResponse::?relay`; Banked call to: MT_BuildAndSendZToolResponse
        ; Setup parameters for call to function osal_mem_free
        MOV       R2,?V6
        MOV       R3,?V7
        LCALL     `??osal_mem_free::?relay`; Banked call to: osal_mem_free
        SJMP      ??MT_AfDataRetrieve_8
          CFI EndBlock cfiBlock285

        RSEG BANKED_CODE:HUGECODE:NOROOT(0)
?Subroutine8:
          CFI Block cfiCond286 Using cfiCommon0
          CFI Function MT_AfIncomingMsg
          CFI Conditional ??CrossCallReturnLabel_8
          CFI R6 load(1, XDATA, add(CFA_XSP16, literal(-16)))
          CFI VB load(1, XDATA, add(CFA_XSP16, literal(-15)))
          CFI V0 load(1, XDATA, add(CFA_XSP16, literal(-14)))
          CFI V1 load(1, XDATA, add(CFA_XSP16, literal(-13)))
          CFI V2 load(1, XDATA, add(CFA_XSP16, literal(-12)))
          CFI V3 load(1, XDATA, add(CFA_XSP16, literal(-11)))
          CFI V4 load(1, XDATA, add(CFA_XSP16, literal(-10)))
          CFI V5 load(1, XDATA, add(CFA_XSP16, literal(-9)))
          CFI V6 load(1, XDATA, add(CFA_XSP16, literal(-8)))
          CFI V7 load(1, XDATA, add(CFA_XSP16, literal(-7)))
          CFI R7 load(1, XDATA, add(CFA_XSP16, literal(-6)))
          CFI ?RET_LOW load(1, XDATA, add(CFA_XSP16, literal(-5)))
          CFI ?RET_HIGH load(1, XDATA, add(CFA_XSP16, literal(-4)))
          CFI ?BRET_EXT load(1, XDATA, add(CFA_XSP16, literal(-3)))
          CFI DPL0 load(1, XDATA, add(CFA_XSP16, literal(-2)))
          CFI DPH0 load(1, XDATA, add(CFA_XSP16, literal(-1)))
          CFI CFA_SP SP+-2
          CFI CFA_XSP16 add(XSP16, 25)
          CFI Block cfiCond287 Using cfiCommon0
          CFI (cfiCond287) Function MT_AfIncomingMsg
          CFI (cfiCond287) Conditional ??CrossCallReturnLabel_9
          CFI (cfiCond287) R6 load(1, XDATA, add(CFA_XSP16, literal(-16)))
          CFI (cfiCond287) VB load(1, XDATA, add(CFA_XSP16, literal(-15)))
          CFI (cfiCond287) V0 load(1, XDATA, add(CFA_XSP16, literal(-14)))
          CFI (cfiCond287) V1 load(1, XDATA, add(CFA_XSP16, literal(-13)))
          CFI (cfiCond287) V2 load(1, XDATA, add(CFA_XSP16, literal(-12)))
          CFI (cfiCond287) V3 load(1, XDATA, add(CFA_XSP16, literal(-11)))
          CFI (cfiCond287) V4 load(1, XDATA, add(CFA_XSP16, literal(-10)))
          CFI (cfiCond287) V5 load(1, XDATA, add(CFA_XSP16, literal(-9)))
          CFI (cfiCond287) V6 load(1, XDATA, add(CFA_XSP16, literal(-8)))
          CFI (cfiCond287) V7 load(1, XDATA, add(CFA_XSP16, literal(-7)))
          CFI (cfiCond287) R7 load(1, XDATA, add(CFA_XSP16, literal(-6)))
          CFI (cfiCond287) ?RET_LOW load(1, XDATA, add(CFA_XSP16, literal(-5)))
          CFI (cfiCond287) ?RET_HIGH load(1, XDATA, add(CFA_XSP16, literal(-4)))
          CFI (cfiCond287) ?BRET_EXT load(1, XDATA, add(CFA_XSP16, literal(-3)))
          CFI (cfiCond287) DPL0 load(1, XDATA, add(CFA_XSP16, literal(-2)))
          CFI (cfiCond287) DPH0 load(1, XDATA, add(CFA_XSP16, literal(-1)))
          CFI (cfiCond287) CFA_SP SP+-2
          CFI (cfiCond287) CFA_XSP16 add(XSP16, 25)
          CFI Block cfiCond288 Using cfiCommon0
          CFI (cfiCond288) Function MT_AfDataRetrieve
          CFI (cfiCond288) Conditional ??CrossCallReturnLabel_10
          CFI (cfiCond288) R6 load(1, XDATA, add(CFA_XSP16, literal(-16)))
          CFI (cfiCond288) VB load(1, XDATA, add(CFA_XSP16, literal(-15)))
          CFI (cfiCond288) V0 load(1, XDATA, add(CFA_XSP16, literal(-14)))
          CFI (cfiCond288) V1 load(1, XDATA, add(CFA_XSP16, literal(-13)))
          CFI (cfiCond288) V2 load(1, XDATA, add(CFA_XSP16, literal(-12)))
          CFI (cfiCond288) V3 load(1, XDATA, add(CFA_XSP16, literal(-11)))
          CFI (cfiCond288) V4 load(1, XDATA, add(CFA_XSP16, literal(-10)))
          CFI (cfiCond288) V5 load(1, XDATA, add(CFA_XSP16, literal(-9)))
          CFI (cfiCond288) V6 load(1, XDATA, add(CFA_XSP16, literal(-8)))
          CFI (cfiCond288) V7 load(1, XDATA, add(CFA_XSP16, literal(-7)))
          CFI (cfiCond288) R7 load(1, XDATA, add(CFA_XSP16, literal(-6)))
          CFI (cfiCond288) ?RET_LOW load(1, XDATA, add(CFA_XSP16, literal(-5)))
          CFI (cfiCond288) ?RET_HIGH load(1, XDATA, add(CFA_XSP16, literal(-4)))
          CFI (cfiCond288) ?BRET_EXT load(1, XDATA, add(CFA_XSP16, literal(-3)))
          CFI (cfiCond288) DPL0 load(1, XDATA, add(CFA_XSP16, literal(-2)))
          CFI (cfiCond288) DPH0 load(1, XDATA, add(CFA_XSP16, literal(-1)))
          CFI (cfiCond288) CFA_SP SP+-2
          CFI (cfiCond288) CFA_XSP16 add(XSP16, 18)
          CFI Block cfiCond289 Using cfiCommon0
          CFI (cfiCond289) Function MT_AfDataStore
          CFI (cfiCond289) Conditional ??CrossCallReturnLabel_11
          CFI (cfiCond289) R6 load(1, XDATA, add(CFA_XSP16, literal(-14)))
          CFI (cfiCond289) VB load(1, XDATA, add(CFA_XSP16, literal(-13)))
          CFI (cfiCond289) V0 load(1, XDATA, add(CFA_XSP16, literal(-12)))
          CFI (cfiCond289) V1 load(1, XDATA, add(CFA_XSP16, literal(-11)))
          CFI (cfiCond289) V2 load(1, XDATA, add(CFA_XSP16, literal(-10)))
          CFI (cfiCond289) V3 load(1, XDATA, add(CFA_XSP16, literal(-9)))
          CFI (cfiCond289) V4 load(1, XDATA, add(CFA_XSP16, literal(-8)))
          CFI (cfiCond289) V5 load(1, XDATA, add(CFA_XSP16, literal(-7)))
          CFI (cfiCond289) R7 load(1, XDATA, add(CFA_XSP16, literal(-6)))
          CFI (cfiCond289) ?RET_LOW load(1, XDATA, add(CFA_XSP16, literal(-5)))
          CFI (cfiCond289) ?RET_HIGH load(1, XDATA, add(CFA_XSP16, literal(-4)))
          CFI (cfiCond289) ?BRET_EXT load(1, XDATA, add(CFA_XSP16, literal(-3)))
          CFI (cfiCond289) DPL0 load(1, XDATA, add(CFA_XSP16, literal(-2)))
          CFI (cfiCond289) DPH0 load(1, XDATA, add(CFA_XSP16, literal(-1)))
          CFI (cfiCond289) CFA_SP SP+-2
          CFI (cfiCond289) CFA_XSP16 add(XSP16, 15)
          CFI Block cfiPicker290 Using cfiCommon1
          CFI (cfiPicker290) NoFunction
          CFI (cfiPicker290) Picker
        LCALL     ?Subroutine41 & 0xFFFF
??CrossCallReturnLabel_83:
        MOVX      A,@DPTR
        RET
          CFI EndBlock cfiCond286
          CFI EndBlock cfiCond287
          CFI EndBlock cfiCond288
          CFI EndBlock cfiCond289
          CFI EndBlock cfiPicker290

        RSEG BANKED_CODE:HUGECODE:NOROOT(0)
?Subroutine7:
          CFI Block cfiCond291 Using cfiCommon0
          CFI Function MT_AfDataRetrieve
          CFI Conditional ??CrossCallReturnLabel_6
          CFI R6 load(1, XDATA, add(CFA_XSP16, literal(-16)))
          CFI VB load(1, XDATA, add(CFA_XSP16, literal(-15)))
          CFI V0 load(1, XDATA, add(CFA_XSP16, literal(-14)))
          CFI V1 load(1, XDATA, add(CFA_XSP16, literal(-13)))
          CFI V2 load(1, XDATA, add(CFA_XSP16, literal(-12)))
          CFI V3 load(1, XDATA, add(CFA_XSP16, literal(-11)))
          CFI V4 load(1, XDATA, add(CFA_XSP16, literal(-10)))
          CFI V5 load(1, XDATA, add(CFA_XSP16, literal(-9)))
          CFI V6 load(1, XDATA, add(CFA_XSP16, literal(-8)))
          CFI V7 load(1, XDATA, add(CFA_XSP16, literal(-7)))
          CFI R7 load(1, XDATA, add(CFA_XSP16, literal(-6)))
          CFI ?RET_LOW load(1, XDATA, add(CFA_XSP16, literal(-5)))
          CFI ?RET_HIGH load(1, XDATA, add(CFA_XSP16, literal(-4)))
          CFI ?BRET_EXT load(1, XDATA, add(CFA_XSP16, literal(-3)))
          CFI DPL0 load(1, XDATA, add(CFA_XSP16, literal(-2)))
          CFI DPH0 load(1, XDATA, add(CFA_XSP16, literal(-1)))
          CFI CFA_SP SP+-2
          CFI CFA_XSP16 add(XSP16, 18)
          CFI Block cfiCond292 Using cfiCommon0
          CFI (cfiCond292) Function MT_AfDataRetrieve
          CFI (cfiCond292) Conditional ??CrossCallReturnLabel_7
          CFI (cfiCond292) R6 load(1, XDATA, add(CFA_XSP16, literal(-16)))
          CFI (cfiCond292) VB load(1, XDATA, add(CFA_XSP16, literal(-15)))
          CFI (cfiCond292) V0 load(1, XDATA, add(CFA_XSP16, literal(-14)))
          CFI (cfiCond292) V1 load(1, XDATA, add(CFA_XSP16, literal(-13)))
          CFI (cfiCond292) V2 load(1, XDATA, add(CFA_XSP16, literal(-12)))
          CFI (cfiCond292) V3 load(1, XDATA, add(CFA_XSP16, literal(-11)))
          CFI (cfiCond292) V4 load(1, XDATA, add(CFA_XSP16, literal(-10)))
          CFI (cfiCond292) V5 load(1, XDATA, add(CFA_XSP16, literal(-9)))
          CFI (cfiCond292) V6 load(1, XDATA, add(CFA_XSP16, literal(-8)))
          CFI (cfiCond292) V7 load(1, XDATA, add(CFA_XSP16, literal(-7)))
          CFI (cfiCond292) R7 load(1, XDATA, add(CFA_XSP16, literal(-6)))
          CFI (cfiCond292) ?RET_LOW load(1, XDATA, add(CFA_XSP16, literal(-5)))
          CFI (cfiCond292) ?RET_HIGH load(1, XDATA, add(CFA_XSP16, literal(-4)))
          CFI (cfiCond292) ?BRET_EXT load(1, XDATA, add(CFA_XSP16, literal(-3)))
          CFI (cfiCond292) DPL0 load(1, XDATA, add(CFA_XSP16, literal(-2)))
          CFI (cfiCond292) DPH0 load(1, XDATA, add(CFA_XSP16, literal(-1)))
          CFI (cfiCond292) CFA_SP SP+-2
          CFI (cfiCond292) CFA_XSP16 add(XSP16, 18)
          CFI Block cfiPicker293 Using cfiCommon1
          CFI (cfiPicker293) NoFunction
          CFI (cfiPicker293) Picker
        LCALL     ?Subroutine42 & 0xFFFF
??CrossCallReturnLabel_160:
        MOV       DPL,?XSP + 0
        MOV       DPH,?XSP + 1
        MOV       A,R0
        MOVX      @DPTR,A
        INC       DPTR
        MOV       A,R1
        MOVX      @DPTR,A
        RET
          CFI EndBlock cfiCond291
          CFI EndBlock cfiCond292
          CFI EndBlock cfiPicker293

        RSEG BANKED_CODE:HUGECODE:NOROOT(0)
?Subroutine5:
          CFI Block cfiCond294 Using cfiCommon0
          CFI Function MT_AfIncomingMsg
          CFI Conditional ??CrossCallReturnLabel_0
          CFI R6 load(1, XDATA, add(CFA_XSP16, literal(-16)))
          CFI VB load(1, XDATA, add(CFA_XSP16, literal(-15)))
          CFI V0 load(1, XDATA, add(CFA_XSP16, literal(-14)))
          CFI V1 load(1, XDATA, add(CFA_XSP16, literal(-13)))
          CFI V2 load(1, XDATA, add(CFA_XSP16, literal(-12)))
          CFI V3 load(1, XDATA, add(CFA_XSP16, literal(-11)))
          CFI V4 load(1, XDATA, add(CFA_XSP16, literal(-10)))
          CFI V5 load(1, XDATA, add(CFA_XSP16, literal(-9)))
          CFI V6 load(1, XDATA, add(CFA_XSP16, literal(-8)))
          CFI V7 load(1, XDATA, add(CFA_XSP16, literal(-7)))
          CFI R7 load(1, XDATA, add(CFA_XSP16, literal(-6)))
          CFI ?RET_LOW load(1, XDATA, add(CFA_XSP16, literal(-5)))
          CFI ?RET_HIGH load(1, XDATA, add(CFA_XSP16, literal(-4)))
          CFI ?BRET_EXT load(1, XDATA, add(CFA_XSP16, literal(-3)))
          CFI DPL0 load(1, XDATA, add(CFA_XSP16, literal(-2)))
          CFI DPH0 load(1, XDATA, add(CFA_XSP16, literal(-1)))
          CFI CFA_XSP16 add(XSP16, 25)
          CFI Block cfiCond295 Using cfiCommon0
          CFI (cfiCond295) Function MT_AfIncomingMsg
          CFI (cfiCond295) Conditional ??CrossCallReturnLabel_1
          CFI (cfiCond295) R6 load(1, XDATA, add(CFA_XSP16, literal(-16)))
          CFI (cfiCond295) VB load(1, XDATA, add(CFA_XSP16, literal(-15)))
          CFI (cfiCond295) V0 load(1, XDATA, add(CFA_XSP16, literal(-14)))
          CFI (cfiCond295) V1 load(1, XDATA, add(CFA_XSP16, literal(-13)))
          CFI (cfiCond295) V2 load(1, XDATA, add(CFA_XSP16, literal(-12)))
          CFI (cfiCond295) V3 load(1, XDATA, add(CFA_XSP16, literal(-11)))
          CFI (cfiCond295) V4 load(1, XDATA, add(CFA_XSP16, literal(-10)))
          CFI (cfiCond295) V5 load(1, XDATA, add(CFA_XSP16, literal(-9)))
          CFI (cfiCond295) V6 load(1, XDATA, add(CFA_XSP16, literal(-8)))
          CFI (cfiCond295) V7 load(1, XDATA, add(CFA_XSP16, literal(-7)))
          CFI (cfiCond295) R7 load(1, XDATA, add(CFA_XSP16, literal(-6)))
          CFI (cfiCond295) ?RET_LOW load(1, XDATA, add(CFA_XSP16, literal(-5)))
          CFI (cfiCond295) ?RET_HIGH load(1, XDATA, add(CFA_XSP16, literal(-4)))
          CFI (cfiCond295) ?BRET_EXT load(1, XDATA, add(CFA_XSP16, literal(-3)))
          CFI (cfiCond295) DPL0 load(1, XDATA, add(CFA_XSP16, literal(-2)))
          CFI (cfiCond295) DPH0 load(1, XDATA, add(CFA_XSP16, literal(-1)))
          CFI (cfiCond295) CFA_XSP16 add(XSP16, 25)
          CFI Block cfiCond296 Using cfiCommon0
          CFI (cfiCond296) Function MT_AfIncomingMsg
          CFI (cfiCond296) Conditional ??CrossCallReturnLabel_2
          CFI (cfiCond296) R6 load(1, XDATA, add(CFA_XSP16, literal(-16)))
          CFI (cfiCond296) VB load(1, XDATA, add(CFA_XSP16, literal(-15)))
          CFI (cfiCond296) V0 load(1, XDATA, add(CFA_XSP16, literal(-14)))
          CFI (cfiCond296) V1 load(1, XDATA, add(CFA_XSP16, literal(-13)))
          CFI (cfiCond296) V2 load(1, XDATA, add(CFA_XSP16, literal(-12)))
          CFI (cfiCond296) V3 load(1, XDATA, add(CFA_XSP16, literal(-11)))
          CFI (cfiCond296) V4 load(1, XDATA, add(CFA_XSP16, literal(-10)))
          CFI (cfiCond296) V5 load(1, XDATA, add(CFA_XSP16, literal(-9)))
          CFI (cfiCond296) V6 load(1, XDATA, add(CFA_XSP16, literal(-8)))
          CFI (cfiCond296) V7 load(1, XDATA, add(CFA_XSP16, literal(-7)))
          CFI (cfiCond296) R7 load(1, XDATA, add(CFA_XSP16, literal(-6)))
          CFI (cfiCond296) ?RET_LOW load(1, XDATA, add(CFA_XSP16, literal(-5)))
          CFI (cfiCond296) ?RET_HIGH load(1, XDATA, add(CFA_XSP16, literal(-4)))
          CFI (cfiCond296) ?BRET_EXT load(1, XDATA, add(CFA_XSP16, literal(-3)))
          CFI (cfiCond296) DPL0 load(1, XDATA, add(CFA_XSP16, literal(-2)))
          CFI (cfiCond296) DPH0 load(1, XDATA, add(CFA_XSP16, literal(-1)))
          CFI (cfiCond296) CFA_SP SP+-2
          CFI (cfiCond296) CFA_XSP16 add(XSP16, 28)
          CFI Block cfiCond297 Using cfiCommon0
          CFI (cfiCond297) Function MT_AfDataRetrieve
          CFI (cfiCond297) Conditional ??CrossCallReturnLabel_3
          CFI (cfiCond297) R6 load(1, XDATA, add(CFA_XSP16, literal(-16)))
          CFI (cfiCond297) VB load(1, XDATA, add(CFA_XSP16, literal(-15)))
          CFI (cfiCond297) V0 load(1, XDATA, add(CFA_XSP16, literal(-14)))
          CFI (cfiCond297) V1 load(1, XDATA, add(CFA_XSP16, literal(-13)))
          CFI (cfiCond297) V2 load(1, XDATA, add(CFA_XSP16, literal(-12)))
          CFI (cfiCond297) V3 load(1, XDATA, add(CFA_XSP16, literal(-11)))
          CFI (cfiCond297) V4 load(1, XDATA, add(CFA_XSP16, literal(-10)))
          CFI (cfiCond297) V5 load(1, XDATA, add(CFA_XSP16, literal(-9)))
          CFI (cfiCond297) V6 load(1, XDATA, add(CFA_XSP16, literal(-8)))
          CFI (cfiCond297) V7 load(1, XDATA, add(CFA_XSP16, literal(-7)))
          CFI (cfiCond297) R7 load(1, XDATA, add(CFA_XSP16, literal(-6)))
          CFI (cfiCond297) ?RET_LOW load(1, XDATA, add(CFA_XSP16, literal(-5)))
          CFI (cfiCond297) ?RET_HIGH load(1, XDATA, add(CFA_XSP16, literal(-4)))
          CFI (cfiCond297) ?BRET_EXT load(1, XDATA, add(CFA_XSP16, literal(-3)))
          CFI (cfiCond297) DPL0 load(1, XDATA, add(CFA_XSP16, literal(-2)))
          CFI (cfiCond297) DPH0 load(1, XDATA, add(CFA_XSP16, literal(-1)))
          CFI (cfiCond297) CFA_SP SP+-2
          CFI (cfiCond297) CFA_XSP16 add(XSP16, 18)
          CFI Block cfiPicker298 Using cfiCommon1
          CFI (cfiPicker298) NoFunction
          CFI (cfiPicker298) Picker
        LCALL     ?Subroutine41 & 0xFFFF
??CrossCallReturnLabel_82:
        INC       DPTR
        INC       DPTR
        RET
          CFI EndBlock cfiCond294
          CFI EndBlock cfiCond295
          CFI EndBlock cfiCond296
          CFI EndBlock cfiCond297
          CFI EndBlock cfiPicker298
//  904 
//  905 /**************************************************************************************************
//  906  * @fn          MT_AfDataStore
//  907  *
//  908  * @brief   Process AF Data Store command to incrementally store the data buffer for very large
//  909  *          outgoing AF message.
//  910  *
//  911  * input parameters
//  912  *
//  913  * @param pBuf - pointer to the received buffer
//  914  *
//  915  * output parameters
//  916  *
//  917  * @param rtrn - AF-Status of the operation.
//  918  *
//  919  * @return      None.
//  920  **************************************************************************************************
//  921  */

        RSEG BANKED_CODE:HUGECODE:NOROOT(0)
//  922 static void MT_AfDataStore(uint8 *pBuf)
MT_AfDataStore:
          CFI Block cfiBlock299 Using cfiCommon0
          CFI Function MT_AfDataStore
        CODE
//  923 {
        FUNCALL MT_AfDataStore, osal_build_uint16
        LOCFRAME ISTACK, 0, STACK
        LOCFRAME PSTACK, 0, STACK
        LOCFRAME XSTACK, 15, STACK
        LOCFRAME IOVERLAY, 0, STATIC
        LOCFRAME DOVERLAY, 0, STATIC
        ARGFRAME ISTACK, 0, STACK
        ARGFRAME PSTACK, 0, STACK
        ARGFRAME XSTACK, 15, STACK
        ARGFRAME IOVERLAY, 0, STATIC
        ARGFRAME DOVERLAY, 0, STATIC
        FUNCALL MT_AfDataStore, AF_DataRequest
        LOCFRAME ISTACK, 0, STACK
        LOCFRAME PSTACK, 0, STACK
        LOCFRAME XSTACK, 24, STACK
        LOCFRAME IOVERLAY, 0, STATIC
        LOCFRAME DOVERLAY, 0, STATIC
        ARGFRAME ISTACK, 0, STACK
        ARGFRAME PSTACK, 0, STACK
        ARGFRAME XSTACK, 24, STACK
        ARGFRAME IOVERLAY, 0, STATIC
        ARGFRAME DOVERLAY, 0, STATIC
        FUNCALL MT_AfDataStore, osal_mem_free
        LOCFRAME ISTACK, 0, STACK
        LOCFRAME PSTACK, 0, STACK
        LOCFRAME XSTACK, 15, STACK
        LOCFRAME IOVERLAY, 0, STATIC
        LOCFRAME DOVERLAY, 0, STATIC
        ARGFRAME ISTACK, 0, STACK
        ARGFRAME PSTACK, 0, STACK
        ARGFRAME XSTACK, 15, STACK
        ARGFRAME IOVERLAY, 0, STATIC
        ARGFRAME DOVERLAY, 0, STATIC
        FUNCALL MT_AfDataStore, osal_memcpy
        LOCFRAME ISTACK, 0, STACK
        LOCFRAME PSTACK, 0, STACK
        LOCFRAME XSTACK, 18, STACK
        LOCFRAME IOVERLAY, 0, STATIC
        LOCFRAME DOVERLAY, 0, STATIC
        ARGFRAME ISTACK, 0, STACK
        ARGFRAME PSTACK, 0, STACK
        ARGFRAME XSTACK, 18, STACK
        ARGFRAME IOVERLAY, 0, STATIC
        ARGFRAME DOVERLAY, 0, STATIC
        FUNCALL MT_AfDataStore, MT_BuildAndSendZToolResponse
        LOCFRAME ISTACK, 0, STACK
        LOCFRAME PSTACK, 0, STACK
        LOCFRAME XSTACK, 15, STACK
        LOCFRAME IOVERLAY, 0, STATIC
        LOCFRAME DOVERLAY, 0, STATIC
        ARGFRAME ISTACK, 0, STACK
        ARGFRAME PSTACK, 0, STACK
        ARGFRAME XSTACK, 15, STACK
        ARGFRAME IOVERLAY, 0, STATIC
        ARGFRAME DOVERLAY, 0, STATIC
        REQUIRE ?V0
        REQUIRE ?V1
        REQUIRE ?V2
        REQUIRE ?V4
        REQUIRE ?V5
        MOV       A,#-0xe
        LCALL     ?BANKED_ENTER_XDATA
          CFI DPH0 load(1, XDATA, add(CFA_XSP16, literal(-1)))
          CFI DPL0 load(1, XDATA, add(CFA_XSP16, literal(-2)))
          CFI ?BRET_EXT load(1, XDATA, add(CFA_XSP16, literal(-3)))
          CFI ?RET_HIGH load(1, XDATA, add(CFA_XSP16, literal(-4)))
          CFI ?RET_LOW load(1, XDATA, add(CFA_XSP16, literal(-5)))
          CFI R7 load(1, XDATA, add(CFA_XSP16, literal(-6)))
          CFI V5 load(1, XDATA, add(CFA_XSP16, literal(-7)))
          CFI V4 load(1, XDATA, add(CFA_XSP16, literal(-8)))
          CFI V3 load(1, XDATA, add(CFA_XSP16, literal(-9)))
          CFI V2 load(1, XDATA, add(CFA_XSP16, literal(-10)))
          CFI V1 load(1, XDATA, add(CFA_XSP16, literal(-11)))
          CFI V0 load(1, XDATA, add(CFA_XSP16, literal(-12)))
          CFI VB load(1, XDATA, add(CFA_XSP16, literal(-13)))
          CFI R6 load(1, XDATA, add(CFA_XSP16, literal(-14)))
          CFI CFA_SP SP+0
          CFI CFA_XSP16 add(XSP16, 14)
        ; Saved register size: 14
        ; Auto size: 1
        MOV       A,#-0x1
        LCALL     ?ALLOC_XSTACK8
          CFI CFA_XSP16 add(XSP16, 15)
        MOV       A,R2
        MOV       R6,A
        MOV       A,R3
        MOV       R7,A
//  924   uint16 idx;
//  925   uint8 len, rtrn = afStatus_FAILED;
        MOV       DPL,?XSP + 0
        MOV       DPH,?XSP + 1
        MOV       A,#0x1
        MOVX      @DPTR,A
//  926 
//  927   pBuf += MT_RPC_FRAME_HDR_SZ;
        MOV       A,R6
        ADD       A,#0x3
        MOV       R6,A
        JNC       ??MT_AfDataStore_0
        INC       R7
//  928   idx = osal_build_uint16( pBuf );
??MT_AfDataStore_0:
        ; Setup parameters for call to function osal_build_uint16
        MOV       R2,A
        MOV       A,R7
        MOV       R3,A
        LCALL     `??osal_build_uint16::?relay`; Banked call to: osal_build_uint16
//  929   len = pBuf[2];
        MOV       DPL,R6
        MOV       DPH,R7
        INC       DPTR
        INC       DPTR
        MOVX      A,@DPTR
        MOV       R1,A
//  930   pBuf += 3;
        MOV       A,R6
        ADD       A,#0x3
        MOV       R6,A
        JNC       ??MT_AfDataStore_1
        INC       R7
//  931 
//  932   if (pMtAfDataReq == NULL)
??MT_AfDataStore_1:
        MOV       DPTR,#pMtAfDataReq
        LCALL     ?Subroutine23 & 0xFFFF
??CrossCallReturnLabel_41:
        MOV       A,R4
        ORL       A,R5
        JNZ       ??MT_AfDataStore_2
//  933   {
//  934     rtrn = afStatus_MEM_FAIL;
        MOV       DPL,?XSP + 0
        MOV       DPH,?XSP + 1
        MOV       A,#0x10
        LJMP      ??MT_AfDataStore_3 & 0xFFFF
//  935   }
//  936   else if (len == 0)  // Indication to send the message.
??MT_AfDataStore_2:
        MOV       DPTR,#pMtAfDataReq
        LCALL     ?Subroutine8 & 0xFFFF
??CrossCallReturnLabel_11:
        MOV       ?V4,A
        INC       DPTR
        MOVX      A,@DPTR
        MOV       ?V5,A
        MOV       A,R1
        JNZ       ??MT_AfDataStore_4
//  937   {
//  938     rtrn = AF_DataRequest(&(pMtAfDataReq->dstAddr), pMtAfDataReq->epDesc, pMtAfDataReq->cId,
//  939                             pMtAfDataReq->dataLen,  pMtAfDataReq->data,
//  940                           &(pMtAfDataReq->transId), pMtAfDataReq->txOpts, pMtAfDataReq->radius);
        ; Setup parameters for call to function AF_DataRequest
        MOV       DPTR,#pMtAfDataReq + 1
        MOVX      A,@DPTR
        XCH       A,R0
        LCALL     ?Subroutine52 & 0xFFFF
??CrossCallReturnLabel_101:
        MOVX      A,@DPTR
        MOV       ?V0,A
        MOV       R0,#?V0
        LCALL     ?PUSH_XSTACK_I_ONE
          CFI CFA_XSP16 add(XSP16, 16)
        MOV       DPTR,#pMtAfDataReq
        MOVX      A,@DPTR
        ADD       A,#0x14
        MOV       ?V0,A
        INC       DPTR
        MOVX      A,@DPTR
        ADDC      A,#0x0
        MOV       ?V1,A
        MOV       R0,#?V0
        LCALL     ?PUSH_XSTACK_I_TWO
          CFI CFA_XSP16 add(XSP16, 18)
        MOV       R0,#?V4
        LCALL     ?PUSH_XSTACK_I_TWO
          CFI CFA_XSP16 add(XSP16, 20)
        LCALL     ?Subroutine16 & 0xFFFF
??CrossCallReturnLabel_29:
        LCALL     ?PUSH_XSTACK8_X_TWO
          CFI CFA_XSP16 add(XSP16, 22)
        LCALL     ?Subroutine15 & 0xFFFF
??CrossCallReturnLabel_27:
        LCALL     ?PUSH_XSTACK8_X_TWO
          CFI CFA_XSP16 add(XSP16, 24)
        MOV       DPTR,#pMtAfDataReq
        LCALL     ?Subroutine11 & 0xFFFF
??CrossCallReturnLabel_19:
        MOV       R1,A
        LCALL     ?Subroutine14 & 0xFFFF
??CrossCallReturnLabel_25:
        LCALL     ?Subroutine23 & 0xFFFF
??CrossCallReturnLabel_42:
        LCALL     ?Subroutine25 & 0xFFFF
??CrossCallReturnLabel_46:
        LCALL     `??AF_DataRequest::?relay`; Banked call to: AF_DataRequest
        MOV       A,#0x9
        LCALL     ?DEALLOC_XSTACK8
          CFI CFA_XSP16 add(XSP16, 15)
        MOV       A,R1
        MOV       DPL,?XSP + 0
        MOV       DPH,?XSP + 1
        MOVX      @DPTR,A
//  941     (void)osal_mem_free(pMtAfDataReq);
        ; Setup parameters for call to function osal_mem_free
        LCALL     ?Subroutine4 & 0xFFFF
??CrossCallReturnLabel_146:
        LCALL     `??osal_mem_free::?relay`; Banked call to: osal_mem_free
//  942     pMtAfDataReq = NULL;
        MOV       DPTR,#pMtAfDataReq
        CLR       A
        MOVX      @DPTR,A
        INC       DPTR
        SJMP      ??MT_AfDataStore_3
//  943   }
//  944   else
//  945   {
//  946     (void)osal_memcpy(pMtAfDataReq->data+idx, pBuf, len);
??MT_AfDataStore_4:
        ; Setup parameters for call to function osal_memcpy
        MOV       ?V0,R6
        MOV       ?V1,R7
        MOV       ?V2,#0x0
        MOV       R0,#?V0
        LCALL     ?PUSH_XSTACK_I_THREE
          CFI CFA_XSP16 add(XSP16, 18)
        MOV       A,R1
        MOV       R4,A
        MOV       R5,#0x0
        MOV       A,?V4
        ADD       A,R2
        MOV       R2,A
        MOV       A,?V5
        ADDC      A,R3
        MOV       R3,A
        LCALL     `??osal_memcpy::?relay`; Banked call to: osal_memcpy
        MOV       A,#0x3
        LCALL     ?DEALLOC_XSTACK8
          CFI CFA_XSP16 add(XSP16, 15)
//  947     rtrn = afStatus_SUCCESS;
        MOV       DPL,?XSP + 0
        MOV       DPH,?XSP + 1
        CLR       A
//  948   }
??MT_AfDataStore_3:
        LCALL     ??Subroutine54_0 & 0xFFFF
//  949 
//  950   MT_BuildAndSendZToolResponse(((uint8)MT_RPC_CMD_SRSP | (uint8)MT_RPC_SYS_AF),
//  951                                                                 MT_AF_DATA_STORE, 1, &rtrn);
??CrossCallReturnLabel_108:
        MOV       R2,#0x11
        MOV       R1,#0x64
        LCALL     `??MT_BuildAndSendZToolResponse::?relay`; Banked call to: MT_BuildAndSendZToolResponse
//  952 }
        MOV       A,#0x1
        LJMP      ?Subroutine0 & 0xFFFF
          CFI EndBlock cfiBlock299

        RSEG BANKED_CODE:HUGECODE:NOROOT(0)
?Subroutine25:
          CFI Block cfiCond300 Using cfiCommon0
          CFI Function MT_AfDataRequest
          CFI Conditional ??CrossCallReturnLabel_45
          CFI R6 load(1, XDATA, add(CFA_XSP16, literal(-16)))
          CFI VB load(1, XDATA, add(CFA_XSP16, literal(-15)))
          CFI V0 load(1, XDATA, add(CFA_XSP16, literal(-14)))
          CFI V1 load(1, XDATA, add(CFA_XSP16, literal(-13)))
          CFI V2 load(1, XDATA, add(CFA_XSP16, literal(-12)))
          CFI V3 load(1, XDATA, add(CFA_XSP16, literal(-11)))
          CFI V4 load(1, XDATA, add(CFA_XSP16, literal(-10)))
          CFI V5 load(1, XDATA, add(CFA_XSP16, literal(-9)))
          CFI V6 load(1, XDATA, add(CFA_XSP16, literal(-8)))
          CFI V7 load(1, XDATA, add(CFA_XSP16, literal(-7)))
          CFI R7 load(1, XDATA, add(CFA_XSP16, literal(-6)))
          CFI ?RET_LOW load(1, XDATA, add(CFA_XSP16, literal(-5)))
          CFI ?RET_HIGH load(1, XDATA, add(CFA_XSP16, literal(-4)))
          CFI ?BRET_EXT load(1, XDATA, add(CFA_XSP16, literal(-3)))
          CFI DPL0 load(1, XDATA, add(CFA_XSP16, literal(-2)))
          CFI DPH0 load(1, XDATA, add(CFA_XSP16, literal(-1)))
          CFI CFA_SP SP+-2
          CFI CFA_XSP16 add(XSP16, 37)
          CFI Block cfiCond301 Using cfiCommon0
          CFI (cfiCond301) Function MT_AfDataStore
          CFI (cfiCond301) Conditional ??CrossCallReturnLabel_46
          CFI (cfiCond301) R6 load(1, XDATA, add(CFA_XSP16, literal(-14)))
          CFI (cfiCond301) VB load(1, XDATA, add(CFA_XSP16, literal(-13)))
          CFI (cfiCond301) V0 load(1, XDATA, add(CFA_XSP16, literal(-12)))
          CFI (cfiCond301) V1 load(1, XDATA, add(CFA_XSP16, literal(-11)))
          CFI (cfiCond301) V2 load(1, XDATA, add(CFA_XSP16, literal(-10)))
          CFI (cfiCond301) V3 load(1, XDATA, add(CFA_XSP16, literal(-9)))
          CFI (cfiCond301) V4 load(1, XDATA, add(CFA_XSP16, literal(-8)))
          CFI (cfiCond301) V5 load(1, XDATA, add(CFA_XSP16, literal(-7)))
          CFI (cfiCond301) R7 load(1, XDATA, add(CFA_XSP16, literal(-6)))
          CFI (cfiCond301) ?RET_LOW load(1, XDATA, add(CFA_XSP16, literal(-5)))
          CFI (cfiCond301) ?RET_HIGH load(1, XDATA, add(CFA_XSP16, literal(-4)))
          CFI (cfiCond301) ?BRET_EXT load(1, XDATA, add(CFA_XSP16, literal(-3)))
          CFI (cfiCond301) DPL0 load(1, XDATA, add(CFA_XSP16, literal(-2)))
          CFI (cfiCond301) DPH0 load(1, XDATA, add(CFA_XSP16, literal(-1)))
          CFI (cfiCond301) CFA_SP SP+-2
          CFI (cfiCond301) CFA_XSP16 add(XSP16, 24)
          CFI Block cfiPicker302 Using cfiCommon1
          CFI (cfiPicker302) NoFunction
          CFI (cfiPicker302) Picker
        MOV       DPTR,#pMtAfDataReq
        MOVX      A,@DPTR
        ADD       A,#0x2
        MOV       R2,A
        INC       DPTR
        MOVX      A,@DPTR
        ADDC      A,#0x0
        MOV       R3,A
        RET
          CFI EndBlock cfiCond300
          CFI EndBlock cfiCond301
          CFI EndBlock cfiPicker302

        RSEG BANKED_CODE:HUGECODE:NOROOT(0)
?Subroutine16:
          CFI Block cfiCond303 Using cfiCommon0
          CFI Function MT_AfDataRequest
          CFI Conditional ??CrossCallReturnLabel_28
          CFI R6 load(1, XDATA, add(CFA_XSP16, literal(-16)))
          CFI VB load(1, XDATA, add(CFA_XSP16, literal(-15)))
          CFI V0 load(1, XDATA, add(CFA_XSP16, literal(-14)))
          CFI V1 load(1, XDATA, add(CFA_XSP16, literal(-13)))
          CFI V2 load(1, XDATA, add(CFA_XSP16, literal(-12)))
          CFI V3 load(1, XDATA, add(CFA_XSP16, literal(-11)))
          CFI V4 load(1, XDATA, add(CFA_XSP16, literal(-10)))
          CFI V5 load(1, XDATA, add(CFA_XSP16, literal(-9)))
          CFI V6 load(1, XDATA, add(CFA_XSP16, literal(-8)))
          CFI V7 load(1, XDATA, add(CFA_XSP16, literal(-7)))
          CFI R7 load(1, XDATA, add(CFA_XSP16, literal(-6)))
          CFI ?RET_LOW load(1, XDATA, add(CFA_XSP16, literal(-5)))
          CFI ?RET_HIGH load(1, XDATA, add(CFA_XSP16, literal(-4)))
          CFI ?BRET_EXT load(1, XDATA, add(CFA_XSP16, literal(-3)))
          CFI DPL0 load(1, XDATA, add(CFA_XSP16, literal(-2)))
          CFI DPH0 load(1, XDATA, add(CFA_XSP16, literal(-1)))
          CFI CFA_SP SP+-2
          CFI CFA_XSP16 add(XSP16, 34)
          CFI Block cfiCond304 Using cfiCommon0
          CFI (cfiCond304) Function MT_AfDataStore
          CFI (cfiCond304) Conditional ??CrossCallReturnLabel_29
          CFI (cfiCond304) R6 load(1, XDATA, add(CFA_XSP16, literal(-14)))
          CFI (cfiCond304) VB load(1, XDATA, add(CFA_XSP16, literal(-13)))
          CFI (cfiCond304) V0 load(1, XDATA, add(CFA_XSP16, literal(-12)))
          CFI (cfiCond304) V1 load(1, XDATA, add(CFA_XSP16, literal(-11)))
          CFI (cfiCond304) V2 load(1, XDATA, add(CFA_XSP16, literal(-10)))
          CFI (cfiCond304) V3 load(1, XDATA, add(CFA_XSP16, literal(-9)))
          CFI (cfiCond304) V4 load(1, XDATA, add(CFA_XSP16, literal(-8)))
          CFI (cfiCond304) V5 load(1, XDATA, add(CFA_XSP16, literal(-7)))
          CFI (cfiCond304) R7 load(1, XDATA, add(CFA_XSP16, literal(-6)))
          CFI (cfiCond304) ?RET_LOW load(1, XDATA, add(CFA_XSP16, literal(-5)))
          CFI (cfiCond304) ?RET_HIGH load(1, XDATA, add(CFA_XSP16, literal(-4)))
          CFI (cfiCond304) ?BRET_EXT load(1, XDATA, add(CFA_XSP16, literal(-3)))
          CFI (cfiCond304) DPL0 load(1, XDATA, add(CFA_XSP16, literal(-2)))
          CFI (cfiCond304) DPH0 load(1, XDATA, add(CFA_XSP16, literal(-1)))
          CFI (cfiCond304) CFA_SP SP+-2
          CFI (cfiCond304) CFA_XSP16 add(XSP16, 20)
          CFI Block cfiPicker305 Using cfiCommon1
          CFI (cfiPicker305) NoFunction
          CFI (cfiPicker305) Picker
        LCALL     ?Subroutine40 & 0xFFFF
??CrossCallReturnLabel_134:
        ADD       A,#0x12
        MOV       DPL,A
        CLR       A
        ADDC      A,R0
        MOV       DPH,A
        RET
          CFI EndBlock cfiCond303
          CFI EndBlock cfiCond304
          CFI EndBlock cfiPicker305

        RSEG BANKED_CODE:HUGECODE:NOROOT(0)
?Subroutine15:
          CFI Block cfiCond306 Using cfiCommon0
          CFI Function MT_AfDataRequest
          CFI Conditional ??CrossCallReturnLabel_26
          CFI R6 load(1, XDATA, add(CFA_XSP16, literal(-16)))
          CFI VB load(1, XDATA, add(CFA_XSP16, literal(-15)))
          CFI V0 load(1, XDATA, add(CFA_XSP16, literal(-14)))
          CFI V1 load(1, XDATA, add(CFA_XSP16, literal(-13)))
          CFI V2 load(1, XDATA, add(CFA_XSP16, literal(-12)))
          CFI V3 load(1, XDATA, add(CFA_XSP16, literal(-11)))
          CFI V4 load(1, XDATA, add(CFA_XSP16, literal(-10)))
          CFI V5 load(1, XDATA, add(CFA_XSP16, literal(-9)))
          CFI V6 load(1, XDATA, add(CFA_XSP16, literal(-8)))
          CFI V7 load(1, XDATA, add(CFA_XSP16, literal(-7)))
          CFI R7 load(1, XDATA, add(CFA_XSP16, literal(-6)))
          CFI ?RET_LOW load(1, XDATA, add(CFA_XSP16, literal(-5)))
          CFI ?RET_HIGH load(1, XDATA, add(CFA_XSP16, literal(-4)))
          CFI ?BRET_EXT load(1, XDATA, add(CFA_XSP16, literal(-3)))
          CFI DPL0 load(1, XDATA, add(CFA_XSP16, literal(-2)))
          CFI DPH0 load(1, XDATA, add(CFA_XSP16, literal(-1)))
          CFI CFA_SP SP+-2
          CFI CFA_XSP16 add(XSP16, 34)
          CFI Block cfiCond307 Using cfiCommon0
          CFI (cfiCond307) Function MT_AfDataStore
          CFI (cfiCond307) Conditional ??CrossCallReturnLabel_27
          CFI (cfiCond307) R6 load(1, XDATA, add(CFA_XSP16, literal(-14)))
          CFI (cfiCond307) VB load(1, XDATA, add(CFA_XSP16, literal(-13)))
          CFI (cfiCond307) V0 load(1, XDATA, add(CFA_XSP16, literal(-12)))
          CFI (cfiCond307) V1 load(1, XDATA, add(CFA_XSP16, literal(-11)))
          CFI (cfiCond307) V2 load(1, XDATA, add(CFA_XSP16, literal(-10)))
          CFI (cfiCond307) V3 load(1, XDATA, add(CFA_XSP16, literal(-9)))
          CFI (cfiCond307) V4 load(1, XDATA, add(CFA_XSP16, literal(-8)))
          CFI (cfiCond307) V5 load(1, XDATA, add(CFA_XSP16, literal(-7)))
          CFI (cfiCond307) R7 load(1, XDATA, add(CFA_XSP16, literal(-6)))
          CFI (cfiCond307) ?RET_LOW load(1, XDATA, add(CFA_XSP16, literal(-5)))
          CFI (cfiCond307) ?RET_HIGH load(1, XDATA, add(CFA_XSP16, literal(-4)))
          CFI (cfiCond307) ?BRET_EXT load(1, XDATA, add(CFA_XSP16, literal(-3)))
          CFI (cfiCond307) DPL0 load(1, XDATA, add(CFA_XSP16, literal(-2)))
          CFI (cfiCond307) DPH0 load(1, XDATA, add(CFA_XSP16, literal(-1)))
          CFI (cfiCond307) CFA_SP SP+-2
          CFI (cfiCond307) CFA_XSP16 add(XSP16, 22)
          CFI Block cfiPicker308 Using cfiCommon1
          CFI (cfiPicker308) NoFunction
          CFI (cfiPicker308) Picker
        LCALL     ?Subroutine40 & 0xFFFF
??CrossCallReturnLabel_133:
        ADD       A,#0x10
        MOV       DPL,A
        CLR       A
        ADDC      A,R0
        MOV       DPH,A
        RET
          CFI EndBlock cfiCond306
          CFI EndBlock cfiCond307
          CFI EndBlock cfiPicker308

        RSEG BANKED_CODE:HUGECODE:NOROOT(0)
?Subroutine14:
          CFI Block cfiCond309 Using cfiCommon0
          CFI Function MT_AfDataRequest
          CFI Conditional ??CrossCallReturnLabel_24
          CFI R6 load(1, XDATA, add(CFA_XSP16, literal(-16)))
          CFI VB load(1, XDATA, add(CFA_XSP16, literal(-15)))
          CFI V0 load(1, XDATA, add(CFA_XSP16, literal(-14)))
          CFI V1 load(1, XDATA, add(CFA_XSP16, literal(-13)))
          CFI V2 load(1, XDATA, add(CFA_XSP16, literal(-12)))
          CFI V3 load(1, XDATA, add(CFA_XSP16, literal(-11)))
          CFI V4 load(1, XDATA, add(CFA_XSP16, literal(-10)))
          CFI V5 load(1, XDATA, add(CFA_XSP16, literal(-9)))
          CFI V6 load(1, XDATA, add(CFA_XSP16, literal(-8)))
          CFI V7 load(1, XDATA, add(CFA_XSP16, literal(-7)))
          CFI R7 load(1, XDATA, add(CFA_XSP16, literal(-6)))
          CFI ?RET_LOW load(1, XDATA, add(CFA_XSP16, literal(-5)))
          CFI ?RET_HIGH load(1, XDATA, add(CFA_XSP16, literal(-4)))
          CFI ?BRET_EXT load(1, XDATA, add(CFA_XSP16, literal(-3)))
          CFI DPL0 load(1, XDATA, add(CFA_XSP16, literal(-2)))
          CFI DPH0 load(1, XDATA, add(CFA_XSP16, literal(-1)))
          CFI CFA_SP SP+-2
          CFI CFA_XSP16 add(XSP16, 34)
          CFI Block cfiCond310 Using cfiCommon0
          CFI (cfiCond310) Function MT_AfDataStore
          CFI (cfiCond310) Conditional ??CrossCallReturnLabel_25
          CFI (cfiCond310) R6 load(1, XDATA, add(CFA_XSP16, literal(-14)))
          CFI (cfiCond310) VB load(1, XDATA, add(CFA_XSP16, literal(-13)))
          CFI (cfiCond310) V0 load(1, XDATA, add(CFA_XSP16, literal(-12)))
          CFI (cfiCond310) V1 load(1, XDATA, add(CFA_XSP16, literal(-11)))
          CFI (cfiCond310) V2 load(1, XDATA, add(CFA_XSP16, literal(-10)))
          CFI (cfiCond310) V3 load(1, XDATA, add(CFA_XSP16, literal(-9)))
          CFI (cfiCond310) V4 load(1, XDATA, add(CFA_XSP16, literal(-8)))
          CFI (cfiCond310) V5 load(1, XDATA, add(CFA_XSP16, literal(-7)))
          CFI (cfiCond310) R7 load(1, XDATA, add(CFA_XSP16, literal(-6)))
          CFI (cfiCond310) ?RET_LOW load(1, XDATA, add(CFA_XSP16, literal(-5)))
          CFI (cfiCond310) ?RET_HIGH load(1, XDATA, add(CFA_XSP16, literal(-4)))
          CFI (cfiCond310) ?BRET_EXT load(1, XDATA, add(CFA_XSP16, literal(-3)))
          CFI (cfiCond310) DPL0 load(1, XDATA, add(CFA_XSP16, literal(-2)))
          CFI (cfiCond310) DPH0 load(1, XDATA, add(CFA_XSP16, literal(-1)))
          CFI (cfiCond310) CFA_SP SP+-2
          CFI (cfiCond310) CFA_XSP16 add(XSP16, 24)
          CFI Block cfiPicker311 Using cfiCommon1
          CFI (cfiPicker311) NoFunction
          CFI (cfiPicker311) Picker
        LCALL     ?Subroutine40 & 0xFFFF
??CrossCallReturnLabel_132:
        ADD       A,#0xe
        MOV       DPL,A
        CLR       A
        ADDC      A,R0
        MOV       DPH,A
        RET
          CFI EndBlock cfiCond309
          CFI EndBlock cfiCond310
          CFI EndBlock cfiPicker311

        RSEG BANKED_CODE:HUGECODE:NOROOT(0)
?Subroutine11:
          CFI Block cfiCond312 Using cfiCommon0
          CFI Function MT_AfIncomingMsg
          CFI Conditional ??CrossCallReturnLabel_18
          CFI R6 load(1, XDATA, add(CFA_XSP16, literal(-16)))
          CFI VB load(1, XDATA, add(CFA_XSP16, literal(-15)))
          CFI V0 load(1, XDATA, add(CFA_XSP16, literal(-14)))
          CFI V1 load(1, XDATA, add(CFA_XSP16, literal(-13)))
          CFI V2 load(1, XDATA, add(CFA_XSP16, literal(-12)))
          CFI V3 load(1, XDATA, add(CFA_XSP16, literal(-11)))
          CFI V4 load(1, XDATA, add(CFA_XSP16, literal(-10)))
          CFI V5 load(1, XDATA, add(CFA_XSP16, literal(-9)))
          CFI V6 load(1, XDATA, add(CFA_XSP16, literal(-8)))
          CFI V7 load(1, XDATA, add(CFA_XSP16, literal(-7)))
          CFI R7 load(1, XDATA, add(CFA_XSP16, literal(-6)))
          CFI ?RET_LOW load(1, XDATA, add(CFA_XSP16, literal(-5)))
          CFI ?RET_HIGH load(1, XDATA, add(CFA_XSP16, literal(-4)))
          CFI ?BRET_EXT load(1, XDATA, add(CFA_XSP16, literal(-3)))
          CFI DPL0 load(1, XDATA, add(CFA_XSP16, literal(-2)))
          CFI DPH0 load(1, XDATA, add(CFA_XSP16, literal(-1)))
          CFI CFA_SP SP+-2
          CFI CFA_XSP16 add(XSP16, 25)
          CFI Block cfiCond313 Using cfiCommon0
          CFI (cfiCond313) Function MT_AfDataStore
          CFI (cfiCond313) Conditional ??CrossCallReturnLabel_19
          CFI (cfiCond313) R6 load(1, XDATA, add(CFA_XSP16, literal(-14)))
          CFI (cfiCond313) VB load(1, XDATA, add(CFA_XSP16, literal(-13)))
          CFI (cfiCond313) V0 load(1, XDATA, add(CFA_XSP16, literal(-12)))
          CFI (cfiCond313) V1 load(1, XDATA, add(CFA_XSP16, literal(-11)))
          CFI (cfiCond313) V2 load(1, XDATA, add(CFA_XSP16, literal(-10)))
          CFI (cfiCond313) V3 load(1, XDATA, add(CFA_XSP16, literal(-9)))
          CFI (cfiCond313) V4 load(1, XDATA, add(CFA_XSP16, literal(-8)))
          CFI (cfiCond313) V5 load(1, XDATA, add(CFA_XSP16, literal(-7)))
          CFI (cfiCond313) R7 load(1, XDATA, add(CFA_XSP16, literal(-6)))
          CFI (cfiCond313) ?RET_LOW load(1, XDATA, add(CFA_XSP16, literal(-5)))
          CFI (cfiCond313) ?RET_HIGH load(1, XDATA, add(CFA_XSP16, literal(-4)))
          CFI (cfiCond313) ?BRET_EXT load(1, XDATA, add(CFA_XSP16, literal(-3)))
          CFI (cfiCond313) DPL0 load(1, XDATA, add(CFA_XSP16, literal(-2)))
          CFI (cfiCond313) DPH0 load(1, XDATA, add(CFA_XSP16, literal(-1)))
          CFI (cfiCond313) CFA_SP SP+-2
          CFI (cfiCond313) CFA_XSP16 add(XSP16, 24)
          CFI Block cfiPicker314 Using cfiCommon1
          CFI (cfiPicker314) NoFunction
          CFI (cfiPicker314) Picker
        LCALL     ??Subroutine55_0 & 0xFFFF
??CrossCallReturnLabel_128:
        LCALL     ?Subroutine51 & 0xFFFF
??CrossCallReturnLabel_100:
        MOVX      A,@DPTR
        RET
          CFI EndBlock cfiCond312
          CFI EndBlock cfiCond313
          CFI EndBlock cfiPicker314

        RSEG BANKED_CODE:HUGECODE:NOROOT(0)
?Subroutine51:
          CFI Block cfiCond315 Using cfiCommon0
          CFI Function MT_AfDataRequest
          CFI Conditional ??CrossCallReturnLabel_99
          CFI R6 load(1, XDATA, add(CFA_XSP16, literal(-16)))
          CFI VB load(1, XDATA, add(CFA_XSP16, literal(-15)))
          CFI V0 load(1, XDATA, add(CFA_XSP16, literal(-14)))
          CFI V1 load(1, XDATA, add(CFA_XSP16, literal(-13)))
          CFI V2 load(1, XDATA, add(CFA_XSP16, literal(-12)))
          CFI V3 load(1, XDATA, add(CFA_XSP16, literal(-11)))
          CFI V4 load(1, XDATA, add(CFA_XSP16, literal(-10)))
          CFI V5 load(1, XDATA, add(CFA_XSP16, literal(-9)))
          CFI V6 load(1, XDATA, add(CFA_XSP16, literal(-8)))
          CFI V7 load(1, XDATA, add(CFA_XSP16, literal(-7)))
          CFI R7 load(1, XDATA, add(CFA_XSP16, literal(-6)))
          CFI ?RET_LOW load(1, XDATA, add(CFA_XSP16, literal(-5)))
          CFI ?RET_HIGH load(1, XDATA, add(CFA_XSP16, literal(-4)))
          CFI ?BRET_EXT load(1, XDATA, add(CFA_XSP16, literal(-3)))
          CFI DPL0 load(1, XDATA, add(CFA_XSP16, literal(-2)))
          CFI DPH0 load(1, XDATA, add(CFA_XSP16, literal(-1)))
          CFI CFA_SP SP+-2
          CFI CFA_XSP16 add(XSP16, 34)
          CFI Block cfiCond316 Using cfiCommon0
          CFI (cfiCond316) Function MT_AfIncomingMsg
          CFI (cfiCond316) Conditional ??CrossCallReturnLabel_100, ??CrossCallReturnLabel_18
          CFI (cfiCond316) R6 load(1, XDATA, add(CFA_XSP16, literal(-16)))
          CFI (cfiCond316) VB load(1, XDATA, add(CFA_XSP16, literal(-15)))
          CFI (cfiCond316) V0 load(1, XDATA, add(CFA_XSP16, literal(-14)))
          CFI (cfiCond316) V1 load(1, XDATA, add(CFA_XSP16, literal(-13)))
          CFI (cfiCond316) V2 load(1, XDATA, add(CFA_XSP16, literal(-12)))
          CFI (cfiCond316) V3 load(1, XDATA, add(CFA_XSP16, literal(-11)))
          CFI (cfiCond316) V4 load(1, XDATA, add(CFA_XSP16, literal(-10)))
          CFI (cfiCond316) V5 load(1, XDATA, add(CFA_XSP16, literal(-9)))
          CFI (cfiCond316) V6 load(1, XDATA, add(CFA_XSP16, literal(-8)))
          CFI (cfiCond316) V7 load(1, XDATA, add(CFA_XSP16, literal(-7)))
          CFI (cfiCond316) R7 load(1, XDATA, add(CFA_XSP16, literal(-6)))
          CFI (cfiCond316) ?RET_LOW load(1, XDATA, add(CFA_XSP16, literal(-5)))
          CFI (cfiCond316) ?RET_HIGH load(1, XDATA, add(CFA_XSP16, literal(-4)))
          CFI (cfiCond316) ?BRET_EXT load(1, XDATA, add(CFA_XSP16, literal(-3)))
          CFI (cfiCond316) DPL0 load(1, XDATA, add(CFA_XSP16, literal(-2)))
          CFI (cfiCond316) DPH0 load(1, XDATA, add(CFA_XSP16, literal(-1)))
          CFI (cfiCond316) CFA_SP SP+-4
          CFI (cfiCond316) CFA_XSP16 add(XSP16, 25)
          CFI Block cfiCond317 Using cfiCommon0
          CFI (cfiCond317) Function MT_AfDataStore
          CFI (cfiCond317) Conditional ??CrossCallReturnLabel_100, ??CrossCallReturnLabel_19
          CFI (cfiCond317) R6 load(1, XDATA, add(CFA_XSP16, literal(-14)))
          CFI (cfiCond317) VB load(1, XDATA, add(CFA_XSP16, literal(-13)))
          CFI (cfiCond317) V0 load(1, XDATA, add(CFA_XSP16, literal(-12)))
          CFI (cfiCond317) V1 load(1, XDATA, add(CFA_XSP16, literal(-11)))
          CFI (cfiCond317) V2 load(1, XDATA, add(CFA_XSP16, literal(-10)))
          CFI (cfiCond317) V3 load(1, XDATA, add(CFA_XSP16, literal(-9)))
          CFI (cfiCond317) V4 load(1, XDATA, add(CFA_XSP16, literal(-8)))
          CFI (cfiCond317) V5 load(1, XDATA, add(CFA_XSP16, literal(-7)))
          CFI (cfiCond317) R7 load(1, XDATA, add(CFA_XSP16, literal(-6)))
          CFI (cfiCond317) ?RET_LOW load(1, XDATA, add(CFA_XSP16, literal(-5)))
          CFI (cfiCond317) ?RET_HIGH load(1, XDATA, add(CFA_XSP16, literal(-4)))
          CFI (cfiCond317) ?BRET_EXT load(1, XDATA, add(CFA_XSP16, literal(-3)))
          CFI (cfiCond317) DPL0 load(1, XDATA, add(CFA_XSP16, literal(-2)))
          CFI (cfiCond317) DPH0 load(1, XDATA, add(CFA_XSP16, literal(-1)))
          CFI (cfiCond317) CFA_SP SP+-4
          CFI (cfiCond317) CFA_XSP16 add(XSP16, 24)
          CFI Block cfiPicker318 Using cfiCommon1
          CFI (cfiPicker318) NoFunction
          CFI (cfiPicker318) Picker
        ADD       A,#0x15
        MOV       DPL,A
        CLR       A
        ADDC      A,R0
        MOV       DPH,A
        RET
          CFI EndBlock cfiCond315
          CFI EndBlock cfiCond316
          CFI EndBlock cfiCond317
          CFI EndBlock cfiPicker318

        RSEG BANK_RELAYS:CODE:REORDER:NOROOT(0)
`??MT_AfExec::?relay`:
        CODE
        LCALL   ?BDISPATCH
        DATA24
        DC24    MT_AfExec

        RSEG BANK_RELAYS:CODE:REORDER:NOROOT(0)
`??MT_AfCommandProcessing::?relay`:
        CODE
        LCALL   ?BDISPATCH
        DATA24
        DC24    MT_AfCommandProcessing

        RSEG BANK_RELAYS:CODE:REORDER:NOROOT(0)
`??MT_AfDataRequest::?relay`:
        CODE
        LCALL   ?BDISPATCH
        DATA24
        DC24    MT_AfDataRequest

        RSEG BANK_RELAYS:CODE:REORDER:NOROOT(0)
`??MT_AfDataRequestSrcRtg::?relay`:
        CODE
        LCALL   ?BDISPATCH
        DATA24
        DC24    MT_AfDataRequestSrcRtg

        RSEG BANK_RELAYS:CODE:REORDER:NOROOT(0)
`??MT_AfDataConfirm::?relay`:
        CODE
        LCALL   ?BDISPATCH
        DATA24
        DC24    MT_AfDataConfirm

        RSEG BANK_RELAYS:CODE:REORDER:NOROOT(0)
`??MT_AfReflectError::?relay`:
        CODE
        LCALL   ?BDISPATCH
        DATA24
        DC24    MT_AfReflectError

        RSEG BANK_RELAYS:CODE:REORDER:NOROOT(0)
`??MT_AfIncomingMsg::?relay`:
        CODE
        LCALL   ?BDISPATCH
        DATA24
        DC24    MT_AfIncomingMsg

        RSEG BANK_RELAYS:CODE:REORDER:NOROOT(0)
`??MT_AfDataRetrieve::?relay`:
        CODE
        LCALL   ?BDISPATCH
        DATA24
        DC24    MT_AfDataRetrieve

        RSEG BANK_RELAYS:CODE:REORDER:NOROOT(0)
`??MT_AfDataStore::?relay`:
        CODE
        LCALL   ?BDISPATCH
        DATA24
        DC24    MT_AfDataStore

        RSEG XDATA_ROM_C:CONST:REORDER:NOROOT(0)
        DATA16
`?<Constant {0, 0}>`:
        DATA8
        DB 0
        DB 0

        RSEG XDATA_ROM_C:CONST:REORDER:NOROOT(0)
        DATA32
__Constant_3e8:
        DD 1000

        END
//  953 
//  954 /**************************************************************************************************
//  955  * @fn          MT_AfAPSF_ConfigSet
//  956  *
//  957  * @brief       This function is the MT proxy for afAPSF_ConfigSet().
//  958  *
//  959  * input parameters
//  960  *
//  961  * @param       pBuf - Pointer to the received buffer.
//  962  *
//  963  * output parameters
//  964  *
//  965  * None.
//  966  *
//  967  * @return      None.
//  968  */
//  969 static void MT_AfAPSF_ConfigSet(uint8 *pBuf)
//  970 {
//  971   afAPSF_Config_t cfg = { pBuf[MT_RPC_POS_DAT0+1], pBuf[MT_RPC_POS_DAT0+2] };
//  972   afStatus_t rtrn = afAPSF_ConfigSet(pBuf[MT_RPC_POS_DAT0], &cfg);
//  973 
//  974   MT_BuildAndSendZToolResponse(((uint8)MT_RPC_CMD_SRSP | (uint8)MT_RPC_SYS_AF),
//  975                                        MT_AF_APSF_CONFIG_SET, 1, (uint8 *)&rtrn);
//  976 }
//  977 
//  978 /**************************************************************************************************
//  979  * @fn          MT_AfAPSF_ConfigGet
//  980  *
//  981  * @brief       This function is the MT proxy for afAPSF_ConfigGet().
//  982  *
//  983  * input parameters
//  984  *
//  985  * @param       pBuf - Pointer to the received buffer.
//  986  *
//  987  * output parameters
//  988  *
//  989  * None.
//  990  *
//  991  * @return      None.
//  992  */
//  993 static void MT_AfAPSF_ConfigGet(uint8 *pBuf)
//  994 {
//  995   afAPSF_Config_t cfg = { 0, 0 };
//  996   uint8 buf[2];
//  997 
//  998   afAPSF_ConfigGet( pBuf[MT_RPC_POS_DAT0], &cfg );
//  999 
// 1000   buf[0] = cfg.frameDelay;
// 1001   buf[1] = cfg.windowSize;
// 1002 
// 1003   MT_BuildAndSendZToolResponse(((uint8)MT_RPC_CMD_SRSP | (uint8)MT_RPC_SYS_AF),
// 1004                                        MT_AF_APSF_CONFIG_GET, 3, buf );
// 1005 }
// 1006 
// 1007 /***************************************************************************************************
// 1008 ***************************************************************************************************/
// 
// 3 931 bytes in segment BANKED_CODE
//    54 bytes in segment BANK_RELAYS
//     6 bytes in segment XDATA_ROM_C
//     4 bytes in segment XDATA_Z
// 
//    54 bytes of CODE     memory
//     2 bytes of CONST    memory (+ 4 bytes shared)
// 3 931 bytes of HUGECODE memory
//     4 bytes of XDATA    memory
//
//Errors: none
//Warnings: none
