###############################################################################
#
# IAR C/C++ Compiler V10.10.1.4655 for 8051               22/Nov/2023  15:42:44
# Copyright 2004-2017 IAR Systems AB.
# Standalone license - IAR Embedded Workbench for 8051
#
#    Core               =  plain
#    Code model         =  banked
#    Data model         =  large
#    Calling convention =  xdata reentrant
#    Constant location  =  data_rom
#    Dptr setup         =  1,16
#                          
#    Source file        =  
#        D:\fuzzing-coordinator-response-collection\Components\osal\common\OSAL.c
#    Command line       =  
#        -f C:\Users\ADMINI~1\AppData\Local\Temp\EWAAB5.tmp
#        (D:\fuzzing-coordinator-response-collection\Components\osal\common\OSAL.c
#        -D SECURE=1 -D TC_LINKKEY_JOIN -D NV_INIT -D NV_RESTORE -D
#        MULTICAST_ENABLED=FALSE -D ZCL_READ -D ZCL_DISCOVER -D ZCL_WRITE -D
#        ZCL_BASIC -D ZCL_IDENTIFY -D ISR_KEYINTERRUPT -D HAL_UART=TRUE -D
#        HAL_LCD=FALSE -D ZCL_ON_OFF -D INT_HEAP_LEN=2800 -D
#        HAL_UART_DMA_RX_MAX=256 -D HAL_UART_DMA_TX_MAX=256 -lC
#        D:\fuzzing-coordinator-response-collection\Projects\zstack\HomeAutomation\SampleSwitch\CC2530DB\CoordinatorEB\List
#        -lA
#        D:\fuzzing-coordinator-response-collection\Projects\zstack\HomeAutomation\SampleSwitch\CC2530DB\CoordinatorEB\List
#        --diag_suppress Pe001,Pa010 -o
#        D:\fuzzing-coordinator-response-collection\Projects\zstack\HomeAutomation\SampleSwitch\CC2530DB\CoordinatorEB\Obj
#        -e --debug --core=plain --dptr=16,1 --data_model=large
#        --code_model=banked --calling_convention=xdata_reentrant
#        --place_constants=data_rom --nr_virtual_regs 8 -f
#        D:\fuzzing-coordinator-response-collection\Projects\zstack\HomeAutomation\SampleSwitch\CC2530DB\..\..\..\Tools\CC2530DB\f8wCoord.cfg
#        (-DCPU32MHZ -DROOT=__near_func -DMAC_CFG_APP_PENDING_QUEUE=TRUE
#        -DMAC_CFG_TX_DATA_MAX=5 -DMAC_CFG_TX_MAX=8 -DMAC_CFG_RX_MAX=5
#        -DZDO_COORDINATOR -DRTR_NWK) -f
#        D:\fuzzing-coordinator-response-collection\Projects\zstack\HomeAutomation\SampleSwitch\CC2530DB\..\..\..\Tools\CC2530DB\f8wConfig.cfg
#        (-DZIGBEEPRO -DSECURE=1 -DZG_SECURE_DYNAMIC=0 -DREFLECTOR
#        -DDEFAULT_CHANLIST=0x00000800 -DZDAPP_CONFIG_PAN_ID=0xFFFF
#        -DNWK_START_DELAY=100 -DEXTENDED_JOINING_RANDOM_MASK=0x007F
#        -DBEACON_REQUEST_DELAY=100 -DBEACON_REQ_DELAY_MASK=0x00FF
#        -DLINK_STATUS_JITTER_MASK=0x007F -DROUTE_EXPIRY_TIME=30
#        -DAPSC_ACK_WAIT_DURATION_POLLED=3000 -DNWK_INDIRECT_MSG_TIMEOUT=7
#        -DMAX_RREQ_ENTRIES=8 -DAPSC_MAX_FRAME_RETRIES=3
#        -DNWK_MAX_DATA_RETRIES=2 -DMAX_POLL_FAILURE_RETRIES=2 -DMAX_BCAST=9
#        -DAPS_MAX_GROUPS=16 -DMAX_RTG_ENTRIES=40 -DNWK_MAX_BINDING_ENTRIES=4
#        -DMAX_BINDING_CLUSTER_IDS=4 "-DDEFAULT_KEY={0x00, 0x01, 0x02, 0x03,
#        0x04, 0x05, 0x06, 0x07, 0x08, 0x09, 0x0A, 0x0B, 0x0C, 0x0D, 0x0E,
#        0x0F}" -DMAC_MAX_FRAME_SIZE=116 -DZDNWKMGR_MIN_TRANSMISSIONS=20
#        "-DCONST=const __code" -DGENERIC=__generic -DRFD_RCVC_ALWAYS_ON=FALSE
#        -DPOLL_RATE=1000 -DQUEUED_POLL_RATE=100 -DRESPONSE_POLL_RATE=100
#        -DREJOIN_POLL_RATE=440 -DREJOIN_BACKOFF=900000 -DREJOIN_SCAN=900000
#        -DENABLE_LED4_DISABLE_S1) -f
#        D:\fuzzing-coordinator-response-collection\Projects\zstack\HomeAutomation\SampleSwitch\CC2530DB\..\..\..\Tools\CC2530DB\f8wZCL.cfg
#        -I
#        D:\fuzzing-coordinator-response-collection\Projects\zstack\HomeAutomation\SampleSwitch\CC2530DB\
#        -I
#        D:\fuzzing-coordinator-response-collection\Projects\zstack\HomeAutomation\SampleSwitch\CC2530DB\..\Source\
#        -I
#        D:\fuzzing-coordinator-response-collection\Projects\zstack\HomeAutomation\SampleSwitch\CC2530DB\..\..\Source\
#        -I
#        D:\fuzzing-coordinator-response-collection\Projects\zstack\HomeAutomation\SampleSwitch\CC2530DB\..\..\..\ZMain\TI2530DB\
#        -I
#        D:\fuzzing-coordinator-response-collection\Projects\zstack\HomeAutomation\SampleSwitch\CC2530DB\..\..\..\..\..\Components\hal\include\
#        -I
#        D:\fuzzing-coordinator-response-collection\Projects\zstack\HomeAutomation\SampleSwitch\CC2530DB\..\..\..\..\..\Components\hal\target\CC2530EB\
#        -I
#        D:\fuzzing-coordinator-response-collection\Projects\zstack\HomeAutomation\SampleSwitch\CC2530DB\..\..\..\..\..\Components\mac\include\
#        -I
#        D:\fuzzing-coordinator-response-collection\Projects\zstack\HomeAutomation\SampleSwitch\CC2530DB\..\..\..\..\..\Components\mac\high_level\
#        -I
#        D:\fuzzing-coordinator-response-collection\Projects\zstack\HomeAutomation\SampleSwitch\CC2530DB\..\..\..\..\..\Components\mac\low_level\srf04\
#        -I
#        D:\fuzzing-coordinator-response-collection\Projects\zstack\HomeAutomation\SampleSwitch\CC2530DB\..\..\..\..\..\Components\mac\low_level\srf04\single_chip\
#        -I
#        D:\fuzzing-coordinator-response-collection\Projects\zstack\HomeAutomation\SampleSwitch\CC2530DB\..\..\..\..\..\Components\mt\
#        -I
#        D:\fuzzing-coordinator-response-collection\Projects\zstack\HomeAutomation\SampleSwitch\CC2530DB\..\..\..\..\..\Components\osal\include\
#        -I
#        D:\fuzzing-coordinator-response-collection\Projects\zstack\HomeAutomation\SampleSwitch\CC2530DB\..\..\..\..\..\Components\services\saddr\
#        -I
#        D:\fuzzing-coordinator-response-collection\Projects\zstack\HomeAutomation\SampleSwitch\CC2530DB\..\..\..\..\..\Components\services\sdata\
#        -I
#        D:\fuzzing-coordinator-response-collection\Projects\zstack\HomeAutomation\SampleSwitch\CC2530DB\..\..\..\..\..\Components\stack\af\
#        -I
#        D:\fuzzing-coordinator-response-collection\Projects\zstack\HomeAutomation\SampleSwitch\CC2530DB\..\..\..\..\..\Components\stack\bdb\
#        -I
#        D:\fuzzing-coordinator-response-collection\Projects\zstack\HomeAutomation\SampleSwitch\CC2530DB\..\..\..\..\..\Components\stack\gp\
#        -I
#        D:\fuzzing-coordinator-response-collection\Projects\zstack\HomeAutomation\SampleSwitch\CC2530DB\..\..\..\..\..\Components\stack\nwk\
#        -I
#        D:\fuzzing-coordinator-response-collection\Projects\zstack\HomeAutomation\SampleSwitch\CC2530DB\..\..\..\..\..\Components\stack\sapi\
#        -I
#        D:\fuzzing-coordinator-response-collection\Projects\zstack\HomeAutomation\SampleSwitch\CC2530DB\..\..\..\..\..\Components\stack\sec\
#        -I
#        D:\fuzzing-coordinator-response-collection\Projects\zstack\HomeAutomation\SampleSwitch\CC2530DB\..\..\..\..\..\Components\stack\sys\
#        -I
#        D:\fuzzing-coordinator-response-collection\Projects\zstack\HomeAutomation\SampleSwitch\CC2530DB\..\..\..\..\..\Components\stack\zcl\
#        -I
#        D:\fuzzing-coordinator-response-collection\Projects\zstack\HomeAutomation\SampleSwitch\CC2530DB\..\..\..\..\..\Components\stack\zdo\
#        -I
#        D:\fuzzing-coordinator-response-collection\Projects\zstack\HomeAutomation\SampleSwitch\CC2530DB\..\..\..\..\..\Components\zmac\
#        -I
#        D:\fuzzing-coordinator-response-collection\Projects\zstack\HomeAutomation\SampleSwitch\CC2530DB\..\..\..\..\..\Components\zmac\f8w\
#        -I
#        D:\fuzzing-coordinator-response-collection\Projects\zstack\HomeAutomation\SampleSwitch\CC2530DB\..\..\..\..\..\Components\hal\target\CC2530EB\Common\
#        -I
#        D:\fuzzing-coordinator-response-collection\Projects\zstack\HomeAutomation\SampleSwitch\CC2530DB\..\..\..\..\..\Components\hal\target\CC2530EB\SPI\
#        -I
#        D:\fuzzing-coordinator-response-collection\Projects\zstack\HomeAutomation\SampleSwitch\CC2530DB\..\..\..\..\..\Components\hal\target\CC2530EB\HW_LCD\Font\
#        -I
#        D:\fuzzing-coordinator-response-collection\Projects\zstack\HomeAutomation\SampleSwitch\CC2530DB\..\..\..\..\..\Components\hal\target\CC2530EB\HW_LCD\HAL_LCD_SPI\
#        -I
#        D:\fuzzing-coordinator-response-collection\Projects\zstack\HomeAutomation\SampleSwitch\CC2530DB\..\..\..\..\..\Components\hal\target\CC2530EB\HW_LCD\HAL_OLED\
#        -I
#        D:\fuzzing-coordinator-response-collection\Projects\zstack\HomeAutomation\SampleSwitch\CC2530DB\..\..\..\..\..\Components\hal\target\CC2530EB\HW_LCD\HAL_TFT\
#        -Ohz --require_prototypes)
#    Locale             =  Chinese (Simplified)_China.936
#    List file          =  
#        D:\fuzzing-coordinator-response-collection\Projects\zstack\HomeAutomation\SampleSwitch\CC2530DB\CoordinatorEB\List\OSAL.lst
#    Object file        =  
#        D:\fuzzing-coordinator-response-collection\Projects\zstack\HomeAutomation\SampleSwitch\CC2530DB\CoordinatorEB\Obj\OSAL.r51
#
###############################################################################

D:\fuzzing-coordinator-response-collection\Components\osal\common\OSAL.c
      1          /**************************************************************************************************
      2            Filename:       OSAL.c
      3            Revised:        $Date: 2014-11-04 15:36:27 -0800 (Tue, 04 Nov 2014) $
      4            Revision:       $Revision: 40989 $
      5          
      6            Description:    This API allows the software components in the Z-stack to be written
      7                            independently of the specifics of the operating system, kernel or tasking
      8                            environment (including control loops or connect-to-interrupt systems).
      9          
     10          
     11            Copyright 2004-2014 Texas Instruments Incorporated. All rights reserved.
     12          
     13            IMPORTANT: Your use of this Software is limited to those specific rights
     14            granted under the terms of a software license agreement between the user
     15            who downloaded the software, his/her employer (which must be your employer)
     16            and Texas Instruments Incorporated (the "License"). You may not use this
     17            Software unless you agree to abide by the terms of the License. The License
     18            limits your use, and you acknowledge, that the Software may not be modified,
     19            copied or distributed unless embedded on a Texas Instruments microcontroller
     20            or used solely and exclusively in conjunction with a Texas Instruments radio
     21            frequency transceiver, which is integrated into your product. Other than for
     22            the foregoing purpose, you may not use, reproduce, copy, prepare derivative
     23            works of, modify, distribute, perform, display or sell this Software and/or
     24            its documentation for any purpose.
     25          
     26            YOU FURTHER ACKNOWLEDGE AND AGREE THAT THE SOFTWARE AND DOCUMENTATION ARE
     27            PROVIDED “AS IS” WITHOUT WARRANTY OF ANY KIND, EITHER EXPRESS OR IMPLIED,
     28            INCLUDING WITHOUT LIMITATION, ANY WARRANTY OF MERCHANTABILITY, TITLE,
     29            NON-INFRINGEMENT AND FITNESS FOR A PARTICULAR PURPOSE. IN NO EVENT SHALL
     30            TEXAS INSTRUMENTS OR ITS LICENSORS BE LIABLE OR OBLIGATED UNDER CONTRACT,
     31            NEGLIGENCE, STRICT LIABILITY, CONTRIBUTION, BREACH OF WARRANTY, OR OTHER
     32            LEGAL EQUITABLE THEORY ANY DIRECT OR INDIRECT DAMAGES OR EXPENSES
     33            INCLUDING BUT NOT LIMITED TO ANY INCIDENTAL, SPECIAL, INDIRECT, PUNITIVE
     34            OR CONSEQUENTIAL DAMAGES, LOST PROFITS OR LOST DATA, COST OF PROCUREMENT
     35            OF SUBSTITUTE GOODS, TECHNOLOGY, SERVICES, OR ANY CLAIMS BY THIRD PARTIES
     36            (INCLUDING BUT NOT LIMITED TO ANY DEFENSE THEREOF), OR OTHER SIMILAR COSTS.
     37          
     38            Should you have any questions regarding your right to use this Software,
     39            contact Texas Instruments Incorporated at www.TI.com.
     40          **************************************************************************************************/
     41          
     42          /*********************************************************************
     43           * INCLUDES
     44           */
     45          
     46          #include <string.h>
     47          
     48          #include "comdef.h"
     49          #include "hal_board.h"

   \                                 In  segment SFR_AN, at 0xa8
   \   union <unnamed> volatile __sfr _A_IEN0
   \                     _A_IEN0:
   \   000000                DS 1
     50          #include "OSAL.h"
     51          #include "OSAL_Tasks.h"
     52          #include "OSAL_Memory.h"
     53          #include "OSAL_PwrMgr.h"
     54          #include "OSAL_Clock.h"
     55          
     56          #include "OnBoard.h"
     57          
     58          /* HAL */
     59          #include "hal_drivers.h"
     60          
     61          #ifdef IAR_ARMCM3_LM
     62            #include "FreeRTOSConfig.h"
     63            #include "osal_task.h"
     64          #endif
     65          
     66          #ifdef USE_ICALL
     67            #include <ICall.h>
     68          #endif /* USE_ICALL */
     69          
     70          /*********************************************************************
     71           * MACROS
     72           */
     73          
     74          /*********************************************************************
     75           * CONSTANTS
     76           */
     77          #ifdef USE_ICALL
     78          // A bit mask to use to indicate a proxy OSAL task ID.
     79          #define OSAL_PROXY_ID_FLAG       0x80
     80          #endif // USE_ICALL
     81          
     82          /*********************************************************************
     83           * TYPEDEFS
     84           */
     85          
     86          /*********************************************************************
     87           * GLOBAL VARIABLES
     88           */
     89          
     90          // Message Pool Definitions

   \                                 In  segment XDATA_Z, align 1, keep-with-next
     91          osal_msg_q_t osal_qHead;
   \                     osal_qHead:
   \   000000                DS 2
   \   000002                REQUIRE __INIT_XDATA_Z
     92          
     93          #ifdef USE_ICALL
     94          // OSAL event loop hook function pointer 
     95          void (*osal_eventloop_hook)(void) = NULL;
     96          #endif /* USE_ICALL */
     97          
     98          /*********************************************************************
     99           * EXTERNAL VARIABLES
    100           */
    101          
    102          /*********************************************************************
    103           * EXTERNAL FUNCTIONS
    104           */
    105          
    106          /*********************************************************************
    107           * LOCAL VARIABLES
    108           */
    109          
    110          // Index of active task

   \                                 In  segment XDATA_I, align 1, keep-with-next
    111          static uint8 activeTaskID = TASK_NO_TASK;
   \                     activeTaskID:
   \   000000                DS 1
   \   000001                REQUIRE `?<Initializer for activeTaskID>`
   \   000001                REQUIRE __INIT_XDATA_I
    112          
    113          #ifdef USE_ICALL
    114          // Maximum number of proxy tasks
    115          #ifndef OSAL_MAX_NUM_PROXY_TASKS
    116          #define OSAL_MAX_NUM_PROXY_TASKS 2
    117          #endif // OSAL_MAX_NUM_PROXY_TASKS
    118          
    119          // ICall entity ID value used to indicate invalid value
    120          #define OSAL_INVALID_DISPATCH_ID 0xffu
    121          
    122          // Semaphore associated with OSAL RTOS thread receive queue
    123          ICall_Semaphore osal_semaphore;
    124          
    125          // Entity ID that OSAL RTOS thread has registered with
    126          ICall_EntityID osal_entity;
    127          
    128          // Last read tick count value reflected into the OSAL timer
    129          uint_least32_t osal_last_timestamp;
    130          
    131          // RTOS tick period in microseconds
    132          uint_least32_t osal_tickperiod;
    133          
    134          // Maximum timeout value in milliseconds that can be used with an RTOS timer
    135          uint_least32_t osal_max_msecs;
    136          
    137          // Timer ID for RTOS timer as backend engine for OSAL timer
    138          static ICall_TimerID osal_timerid_msec_timer;
    139          
    140          // Timer callback sequence tracking counter to handle race condition
    141          static unsigned osal_msec_timer_seq = 0;
    142          
    143          // proxy task ID map
    144          static uint8 osal_proxy_tasks[OSAL_MAX_NUM_PROXY_TASKS];
    145          
    146          // service dispatcher entity IDs corresponding to OSAL tasks
    147          static uint8 *osal_dispatch_entities;
    148          
    149          static uint8 osal_notask_entity;
    150          
    151          #endif // USE_ICALL
    152          
    153          /*********************************************************************
    154           * LOCAL FUNCTION PROTOTYPES
    155           */
    156          
    157          static uint8 osal_msg_enqueue_push( uint8 destination_task, uint8 *msg_ptr, uint8 urgent );
    158          
    159          #ifdef USE_ICALL
    160          static uint8 osal_alien2proxy(ICall_EntityID entity);
    161          static ICall_EntityID osal_proxy2alien(uint8 proxyid);
    162          static uint8 osal_dispatch2id(ICall_EntityID entity);
    163          static void osal_msec_timer_cback(void *arg);
    164          #endif // USE_ICALL
    165          
    166          /*********************************************************************
    167           * HELPER FUNCTIONS
    168           */
    169          /* very ugly stub so Keil can compile */
    170          #ifdef __KEIL__
    171          char *  itoa ( int value, char * buffer, int radix )
    172          {
    173            return(buffer);
    174          }
    175          #endif
    176          
    177          /*********************************************************************
    178           * @fn      osal_strlen
    179           *
    180           * @brief
    181           *
    182           *   Calculates the length of a string.  The string must be null
    183           *   terminated.
    184           *
    185           * @param   char *pString - pointer to text string
    186           *
    187           * @return  int - number of characters
    188           */

   \                                 In  segment BANKED_CODE, align 1, keep-with-next
    189          int osal_strlen( char *pString )
   \                     osal_strlen:
    190          {
   \   000000   C082         PUSH      DPL
   \   000002   C083         PUSH      DPH
   \   000004                ; Saved register size: 2
   \   000004                ; Auto size: 0
    191            return (int)( strlen( pString ) );
   \   000004                ; Setup parameters for call to function strlen
   \   000004   12....       LCALL     `??strlen::?relay`; Banked call to: strlen
   \   000007   02....       LJMP      ?Subroutine0 & 0xFFFF
    192          }

   \                                 In  segment BANKED_CODE, align 1, keep-with-next
   \                     ?Subroutine0:
   \   000000   D083         POP       DPH
   \   000002   D082         POP       DPL
   \   000004   02....       LJMP      ?BRET
    193          
    194          /*********************************************************************
    195           * @fn      osal_memcpy
    196           *
    197           * @brief
    198           *
    199           *   Generic memory copy.
    200           *
    201           *   Note: This function differs from the standard memcpy(), since
    202           *         it returns the pointer to the next destination uint8. The
    203           *         standard memcpy() returns the original destination address.
    204           *
    205           * @param   dst - destination address
    206           * @param   src - source address
    207           * @param   len - number of bytes to copy
    208           *
    209           * @return  pointer to end of destination buffer
    210           */

   \                                 In  segment BANKED_CODE, align 1, keep-with-next
    211          void *osal_memcpy( void *dst, const void GENERIC *src, unsigned int len )
   \                     osal_memcpy:
    212          {
   \   000000   74F7         MOV       A,#-0x9
   \   000002   12....       LCALL     ?BANKED_ENTER_XDATA
   \   000005                ; Saved register size: 9
   \   000005                ; Auto size: 0
   \   000005   EA           MOV       A,R2
   \   000006   FE           MOV       R6,A
   \   000007   EB           MOV       A,R3
   \   000008   FF           MOV       R7,A
    213            uint8 *pDst;
    214            const uint8 GENERIC *pSrc;
    215          
    216            pSrc = src;
   \   000009   7409         MOV       A,#0x9
   \   00000B   12....       LCALL     ?XSTACK_DISP0_8
   \   00000E   12....       LCALL     ?Subroutine8 & 0xFFFF
    217            pDst = dst;
   \                     ??CrossCallReturnLabel_49:
   \   000011   8E82         MOV       DPL,R6
   \   000013   8F83         MOV       DPH,R7
   \   000015   800C         SJMP      ??osal_memcpy_0
    218          
    219            while ( len-- )
    220              *pDst++ = *pSrc++;
   \                     ??osal_memcpy_1:
   \   000017   12....       LCALL     ?C_GPTR_LOAD
   \   00001A   F0           MOVX      @DPTR,A
   \   00001B   E9           MOV       A,R1
   \   00001C   2401         ADD       A,#0x1
   \   00001E   09           INC       R1
   \   00001F   E4           CLR       A
   \   000020   3A           ADDC      A,R2
   \   000021   FA           MOV       R2,A
   \   000022   A3           INC       DPTR
   \                     ??osal_memcpy_0:
   \   000023   12....       LCALL     ?Subroutine15 & 0xFFFF
   \                     ??CrossCallReturnLabel_14:
   \   000026   70EF         JNZ       ??osal_memcpy_1
    221          
    222            return ( pDst );
   \   000028   02....       LJMP      ?Subroutine1 & 0xFFFF
    223          }

   \                                 In  segment BANKED_CODE, align 1, keep-with-next
   \                     ?Subroutine8:
   \   000000   E0           MOVX      A,@DPTR
   \   000001   F9           MOV       R1,A
   \   000002   A3           INC       DPTR
   \   000003                REQUIRE ??Subroutine25_0
   \   000003                ; // Fall through to label ??Subroutine25_0

   \                                 In  segment BANKED_CODE, align 1, keep-with-next
   \                     ??Subroutine25_0:
   \   000000   E0           MOVX      A,@DPTR
   \   000001   FA           MOV       R2,A
   \   000002   A3           INC       DPTR
   \   000003   E0           MOVX      A,@DPTR
   \   000004   FB           MOV       R3,A
   \   000005   22           RET

   \                                 In  segment BANKED_CODE, align 1, keep-with-next
   \                     ?Subroutine15:
   \   000000   EC           MOV       A,R4
   \   000001   FE           MOV       R6,A
   \   000002   ED           MOV       A,R5
   \   000003   FF           MOV       R7,A
   \   000004   EE           MOV       A,R6
   \   000005   24FF         ADD       A,#-0x1
   \   000007   1C           DEC       R4
   \   000008   EF           MOV       A,R7
   \   000009   34FF         ADDC      A,#-0x1
   \   00000B   FD           MOV       R5,A
   \   00000C   EE           MOV       A,R6
   \   00000D   4F           ORL       A,R7
   \   00000E   22           RET

   \                                 In  segment BANKED_CODE, align 1, keep-with-next
   \                     ?Subroutine1:
   \   000000   AA82         MOV       R2,DPL
   \   000002   AB83         MOV       R3,DPH
   \   000004                REQUIRE ??Subroutine27_0
   \   000004                ; // Fall through to label ??Subroutine27_0

   \                                 In  segment BANKED_CODE, align 1, keep-with-next
   \                     ??Subroutine27_0:
   \   000000   7F01         MOV       R7,#0x1
   \   000002   02....       LJMP      ?BANKED_LEAVE_XDATA
    224          
    225          /*********************************************************************
    226           * @fn      osal_revmemcpy
    227           *
    228           * @brief   Generic reverse memory copy.  Starts at the end of the
    229           *   source buffer, by taking the source address pointer and moving
    230           *   pointer ahead "len" bytes, then decrementing the pointer.
    231           *
    232           *   Note: This function differs from the standard memcpy(), since
    233           *         it returns the pointer to the next destination uint8. The
    234           *         standard memcpy() returns the original destination address.
    235           *
    236           * @param   dst - destination address
    237           * @param   src - source address
    238           * @param   len - number of bytes to copy
    239           *
    240           * @return  pointer to end of destination buffer
    241           */

   \                                 In  segment BANKED_CODE, align 1, keep-with-next
    242          void *osal_revmemcpy( void *dst, const void GENERIC *src, unsigned int len )
   \                     osal_revmemcpy:
    243          {
   \   000000   74F7         MOV       A,#-0x9
   \   000002   12....       LCALL     ?BANKED_ENTER_XDATA
   \   000005                ; Saved register size: 9
   \   000005                ; Auto size: 0
   \   000005   EA           MOV       A,R2
   \   000006   FE           MOV       R6,A
   \   000007   EB           MOV       A,R3
   \   000008   FF           MOV       R7,A
    244            uint8 *pDst;
    245            const uint8 GENERIC *pSrc;
    246          
    247            pSrc = src;
    248            pSrc += (len-1);
   \   000009   7409         MOV       A,#0x9
   \   00000B   12....       LCALL     ?XSTACK_DISP0_8
   \   00000E   12....       LCALL     ?Subroutine8 & 0xFFFF
   \                     ??CrossCallReturnLabel_50:
   \   000011   E9           MOV       A,R1
   \   000012   2C           ADD       A,R4
   \   000013   F9           MOV       R1,A
   \   000014   EA           MOV       A,R2
   \   000015   3D           ADDC      A,R5
   \   000016   FA           MOV       R2,A
   \   000017   E9           MOV       A,R1
   \   000018   24FF         ADD       A,#-0x1
   \   00001A   19           DEC       R1
   \   00001B   EA           MOV       A,R2
   \   00001C   34FF         ADDC      A,#-0x1
   \   00001E   FA           MOV       R2,A
    249            pDst = dst;
   \   00001F   8E82         MOV       DPL,R6
   \   000021   8F83         MOV       DPH,R7
   \   000023   800D         SJMP      ??osal_revmemcpy_0
    250          
    251            while ( len-- )
    252              *pDst++ = *pSrc--;
   \                     ??osal_revmemcpy_1:
   \   000025   12....       LCALL     ?C_GPTR_LOAD
   \   000028   F0           MOVX      @DPTR,A
   \   000029   E9           MOV       A,R1
   \   00002A   24FF         ADD       A,#-0x1
   \   00002C   19           DEC       R1
   \   00002D   EA           MOV       A,R2
   \   00002E   34FF         ADDC      A,#-0x1
   \   000030   FA           MOV       R2,A
   \   000031   A3           INC       DPTR
   \                     ??osal_revmemcpy_0:
   \   000032   12....       LCALL     ?Subroutine15 & 0xFFFF
   \                     ??CrossCallReturnLabel_15:
   \   000035   70EE         JNZ       ??osal_revmemcpy_1
    253          
    254            return ( pDst );
   \   000037   02....       LJMP      ?Subroutine1 & 0xFFFF
    255          }
    256          
    257          /*********************************************************************
    258           * @fn      osal_memdup
    259           *
    260           * @brief   Allocates a buffer [with osal_mem_alloc()] and copies
    261           *          the src buffer into the newly allocated space.
    262           *
    263           * @param   src - source address
    264           * @param   len - number of bytes to copy
    265           *
    266           * @return  pointer to the new allocated buffer, or NULL if
    267           *          allocation problem.
    268           */

   \                                 In  segment BANKED_CODE, align 1, keep-with-next
    269          void *osal_memdup( const void GENERIC *src, unsigned int len )
   \                     osal_memdup:
    270          {
   \   000000                REQUIRE ?V0
   \   000000                REQUIRE ?V1
   \   000000                REQUIRE ?V2
   \   000000                REQUIRE ?V4
   \   000000                REQUIRE ?V5
   \   000000                REQUIRE ?V6
   \   000000                REQUIRE ?V7
   \   000000   74F0         MOV       A,#-0x10
   \   000002   12....       LCALL     ?BANKED_ENTER_XDATA
   \   000005                ; Saved register size: 16
   \   000005                ; Auto size: 0
   \   000005   89..         MOV       ?V0,R1
   \   000007   8A..         MOV       ?V1,R2
   \   000009   8B..         MOV       ?V2,R3
   \   00000B   EC           MOV       A,R4
   \   00000C   FE           MOV       R6,A
   \   00000D   ED           MOV       A,R5
   \   00000E   FF           MOV       R7,A
    271            uint8 *pDst;
    272          
    273            pDst = osal_mem_alloc( len );
   \   00000F                ; Setup parameters for call to function osal_mem_alloc
   \   00000F   EE           MOV       A,R6
   \   000010   FA           MOV       R2,A
   \   000011   EF           MOV       A,R7
   \   000012   FB           MOV       R3,A
   \   000013   12....       LCALL     `??osal_mem_alloc::?relay`; Banked call to: osal_mem_alloc
   \   000016   8A..         MOV       ?V6,R2
   \   000018   8B..         MOV       ?V7,R3
    274            if ( pDst )
   \   00001A   EA           MOV       A,R2
   \   00001B   45..         ORL       A,?V7
   \   00001D   6011         JZ        ??osal_memdup_0
    275            {
    276              VOID osal_memcpy( pDst, src, len );
   \   00001F                ; Setup parameters for call to function osal_memcpy
   \   00001F   78..         MOV       R0,#?V0
   \   000021   12....       LCALL     ?PUSH_XSTACK_I_THREE
   \   000024   EE           MOV       A,R6
   \   000025   FC           MOV       R4,A
   \   000026   EF           MOV       A,R7
   \   000027   FD           MOV       R5,A
   \   000028   12....       LCALL     `??osal_memcpy::?relay`; Banked call to: osal_memcpy
   \   00002B   7403         MOV       A,#0x3
   \   00002D   12....       LCALL     ?DEALLOC_XSTACK8
    277            }
    278          
    279            return ( (void *)pDst );
   \                     ??osal_memdup_0:
   \   000030   AA..         MOV       R2,?V6
   \   000032   AB..         MOV       R3,?V7
   \   000034   02....       LJMP      ?Subroutine2 & 0xFFFF
    280          }

   \                                 In  segment BANKED_CODE, align 1, keep-with-next
   \                     ?Subroutine2:
   \   000000   7F08         MOV       R7,#0x8
   \   000002   02....       LJMP      ?BANKED_LEAVE_XDATA
    281          
    282          /*********************************************************************
    283           * @fn      osal_memcmp
    284           *
    285           * @brief
    286           *
    287           *   Generic memory compare.
    288           *
    289           * @param   src1 - source 1 addrexx
    290           * @param   src2 - source 2 address
    291           * @param   len - number of bytes to compare
    292           *
    293           * @return  TRUE - same, FALSE - different
    294           */

   \                                 In  segment BANKED_CODE, align 1, keep-with-next
    295          uint8 osal_memcmp( const void GENERIC *src1, const void GENERIC *src2, unsigned int len )
   \                     osal_memcmp:
    296          {
   \   000000                REQUIRE ?V0
   \   000000                REQUIRE ?V1
   \   000000                REQUIRE ?V4
   \   000000                REQUIRE ?V5
   \   000000                REQUIRE ?V6
   \   000000   74F1         MOV       A,#-0xf
   \   000002   12....       LCALL     ?BANKED_ENTER_XDATA
   \   000005                ; Saved register size: 15
   \   000005                ; Auto size: 3
   \   000005   74FD         MOV       A,#-0x3
   \   000007   12....       LCALL     ?ALLOC_XSTACK8
   \   00000A   8C..         MOV       ?V0,R4
   \   00000C   8D..         MOV       ?V1,R5
    297            const uint8 GENERIC *pSrc1;
    298            const uint8 GENERIC *pSrc2;
    299          
    300            pSrc1 = src1;
   \   00000E   89..         MOV       ?V4,R1
   \   000010   8A..         MOV       ?V5,R2
   \   000012   8B..         MOV       ?V6,R3
    301            pSrc2 = src2;
   \   000014   7412         MOV       A,#0x12
   \   000016   12....       LCALL     ?XSTACK_DISP0_8
   \   000019   12....       LCALL     ?Subroutine23 & 0xFFFF
   \                     ??CrossCallReturnLabel_29:
   \   00001C   A3           INC       DPTR
   \   00001D   E0           MOVX      A,@DPTR
   \   00001E   FE           MOV       R6,A
    302          
    303            while ( len-- )
   \                     ??osal_memcmp_0:
   \   00001F   A8..         MOV       R0,?V0
   \   000021   A9..         MOV       R1,?V1
   \   000023   E8           MOV       A,R0
   \   000024   24FF         ADD       A,#-0x1
   \   000026   F5..         MOV       ?V0,A
   \   000028   E9           MOV       A,R1
   \   000029   34FF         ADDC      A,#-0x1
   \   00002B   F5..         MOV       ?V1,A
   \   00002D   E8           MOV       A,R0
   \   00002E   49           ORL       A,R1
   \   00002F   6044         JZ        ??osal_memcmp_1
    304            {
    305              if( *pSrc1++ != *pSrc2++ )
   \   000031   A9..         MOV       R1,?V4
   \   000033   AA..         MOV       R2,?V5
   \   000035   AB..         MOV       R3,?V6
   \   000037   E9           MOV       A,R1
   \   000038   2401         ADD       A,#0x1
   \   00003A   F5..         MOV       ?V4,A
   \   00003C   E4           CLR       A
   \   00003D   3A           ADDC      A,R2
   \   00003E   F5..         MOV       ?V5,A
   \   000040   85..82       MOV       DPL,?XSP + 0
   \   000043   85..83       MOV       DPH,?XSP + 1
   \   000046   EC           MOV       A,R4
   \   000047   F0           MOVX      @DPTR,A
   \   000048   A3           INC       DPTR
   \   000049   ED           MOV       A,R5
   \   00004A   F0           MOVX      @DPTR,A
   \   00004B   A3           INC       DPTR
   \   00004C   EE           MOV       A,R6
   \   00004D   F0           MOVX      @DPTR,A
   \   00004E   85..82       MOV       DPL,?XSP + 0
   \   000051   85..83       MOV       DPH,?XSP + 1
   \   000054   12....       LCALL     ?Subroutine23 & 0xFFFF
   \                     ??CrossCallReturnLabel_30:
   \   000057   EC           MOV       A,R4
   \   000058   2401         ADD       A,#0x1
   \   00005A   0C           INC       R4
   \   00005B   E4           CLR       A
   \   00005C   3D           ADDC      A,R5
   \   00005D   FD           MOV       R5,A
   \   00005E   12....       LCALL     ?C_GPTR_LOAD
   \   000061   F8           MOV       R0,A
   \   000062   85..82       MOV       DPL,?XSP + 0
   \   000065   85..83       MOV       DPH,?XSP + 1
   \   000068   12....       LCALL     ?Subroutine8 & 0xFFFF
   \                     ??CrossCallReturnLabel_51:
   \   00006B   12....       LCALL     ?C_GPTR_LOAD
   \   00006E   68           XRL       A,R0
   \   00006F   60AE         JZ        ??osal_memcmp_0
    306                return FALSE;
   \   000071   7900         MOV       R1,#0x0
   \   000073   8002         SJMP      ??osal_memcmp_2
    307            }
    308            return TRUE;
   \                     ??osal_memcmp_1:
   \   000075   7901         MOV       R1,#0x1
   \                     ??osal_memcmp_2:
   \   000077   7403         MOV       A,#0x3
   \   000079   12....       LCALL     ?DEALLOC_XSTACK8
   \   00007C   7F07         MOV       R7,#0x7
   \   00007E   02....       LJMP      ?BANKED_LEAVE_XDATA
    309          }

   \                                 In  segment BANKED_CODE, align 1, keep-with-next
   \                     ?Subroutine23:
   \   000000   E0           MOVX      A,@DPTR
   \   000001   FC           MOV       R4,A
   \   000002   A3           INC       DPTR
   \   000003   E0           MOVX      A,@DPTR
   \   000004   FD           MOV       R5,A
   \   000005   22           RET
    310          
    311          
    312          /*********************************************************************
    313           * @fn      osal_memset
    314           *
    315           * @brief
    316           *
    317           *   Set memory buffer to value.
    318           *
    319           * @param   dest - pointer to buffer
    320           * @param   value - what to set each uint8 of the message
    321           * @param   size - how big
    322           *
    323           * @return  pointer to destination buffer
    324           */

   \                                 In  segment BANKED_CODE, align 1, keep-with-next
    325          void *osal_memset( void *dest, uint8 value, int len )
   \                     osal_memset:
    326          {
   \   000000                REQUIRE ?V0
   \   000000                REQUIRE ?V1
   \   000000   74F6         MOV       A,#-0xa
   \   000002   12....       LCALL     ?BANKED_ENTER_XDATA
   \   000005                ; Saved register size: 10
   \   000005                ; Auto size: 0
   \   000005   E9           MOV       A,R1
   \   000006   FE           MOV       R6,A
    327            return memset( dest, value, len );
   \   000007                ; Setup parameters for call to function memset
   \   000007   8C..         MOV       ?V0,R4
   \   000009   8D..         MOV       ?V1,R5
   \   00000B   78..         MOV       R0,#?V0
   \   00000D   12....       LCALL     ?PUSH_XSTACK_I_TWO
   \   000010   EE           MOV       A,R6
   \   000011   FC           MOV       R4,A
   \   000012   7D00         MOV       R5,#0x0
   \   000014   12....       LCALL     `??memset::?relay`; Banked call to: memset
   \   000017   7402         MOV       A,#0x2
   \   000019   12....       LCALL     ?DEALLOC_XSTACK8
   \   00001C   02....       LJMP      ?Subroutine3 & 0xFFFF
    328          }

   \                                 In  segment BANKED_CODE, align 1, keep-with-next
   \                     ?Subroutine3:
   \   000000   7F02         MOV       R7,#0x2
   \   000002   02....       LJMP      ?BANKED_LEAVE_XDATA
    329          
    330          /*********************************************************************
    331           * @fn      osal_build_uint16
    332           *
    333           * @brief
    334           *
    335           *   Build a uint16 out of 2 bytes (0 then 1).
    336           *
    337           * @param   swapped - 0 then 1
    338           *
    339           * @return  uint16
    340           */

   \                                 In  segment BANKED_CODE, align 1, keep-with-next
    341          uint16 osal_build_uint16( uint8 *swapped )
   \                     osal_build_uint16:
    342          {
   \   000000   C082         PUSH      DPL
   \   000002   C083         PUSH      DPH
   \   000004                ; Saved register size: 2
   \   000004                ; Auto size: 0
    343            return ( BUILD_UINT16( swapped[0], swapped[1] ) );
   \   000004   8A82         MOV       DPL,R2
   \   000006   8B83         MOV       DPH,R3
   \   000008   E0           MOVX      A,@DPTR
   \   000009   FC           MOV       R4,A
   \   00000A   A3           INC       DPTR
   \   00000B   E0           MOVX      A,@DPTR
   \   00000C   F8           MOV       R0,A
   \   00000D   E4           CLR       A
   \   00000E   C8           XCH       A,R0
   \   00000F   F9           MOV       R1,A
   \   000010   EC           MOV       A,R4
   \   000011   28           ADD       A,R0
   \   000012   FA           MOV       R2,A
   \   000013   E4           CLR       A
   \   000014   39           ADDC      A,R1
   \   000015   FB           MOV       R3,A
   \   000016   02....       LJMP      ?Subroutine0 & 0xFFFF
    344          }
    345          
    346          /*********************************************************************
    347           * @fn      osal_build_uint32
    348           *
    349           * @brief
    350           *
    351           *   Build a uint32 out of sequential bytes.
    352           *
    353           * @param   swapped - sequential bytes
    354           * @param   len - number of bytes in the uint8 array
    355           *
    356           * @return  uint32
    357           */

   \                                 In  segment BANKED_CODE, align 1, keep-with-next
    358          uint32 osal_build_uint32( uint8 *swapped, uint8 len )
   \                     osal_build_uint32:
    359          {
   \   000000                REQUIRE ?V0
   \   000000                REQUIRE ?V1
   \   000000                REQUIRE ?V2
   \   000000                REQUIRE ?V3
   \   000000                REQUIRE ?V4
   \   000000                REQUIRE ?V5
   \   000000                REQUIRE ?V6
   \   000000                REQUIRE ?V7
   \   000000   74F0         MOV       A,#-0x10
   \   000002   12....       LCALL     ?BANKED_ENTER_XDATA
   \   000005                ; Saved register size: 16
   \   000005                ; Auto size: 0
   \   000005   E9           MOV       A,R1
   \   000006   FE           MOV       R6,A
    360            if ( len == 2 )
   \   000007   8A82         MOV       DPL,R2
   \   000009   8B83         MOV       DPH,R3
   \   00000B   E0           MOVX      A,@DPTR
   \   00000C   F5..         MOV       ?V0,A
   \   00000E   E4           CLR       A
   \   00000F   F5..         MOV       ?V1,A
   \   000011   F5..         MOV       ?V2,A
   \   000013   F5..         MOV       ?V3,A
   \   000015   7402         MOV       A,#0x2
   \   000017   6E           XRL       A,R6
   \   000018   7005         JNZ       ??osal_build_uint32_0
    361              return ( BUILD_UINT32( swapped[0], swapped[1], 0L, 0L ) );
   \   00001A   12....       LCALL     ?Subroutine22 & 0xFFFF
   \                     ??CrossCallReturnLabel_27:
   \   00001D   8047         SJMP      ??osal_build_uint32_1
    362            else if ( len == 3 )
   \                     ??osal_build_uint32_0:
   \   00001F   7403         MOV       A,#0x3
   \   000021   6E           XRL       A,R6
   \   000022   7012         JNZ       ??osal_build_uint32_2
    363              return ( BUILD_UINT32( swapped[0], swapped[1], swapped[2], 0L ) );
   \   000024   12....       LCALL     ?Subroutine10 & 0xFFFF
   \                     ??CrossCallReturnLabel_4:
   \   000027   12....       LCALL     ?L_SHL
   \   00002A   78..         MOV       R0,#?V0
   \   00002C   79..         MOV       R1,#?V4
   \   00002E   12....       LCALL     ?L_ADD
   \   000031   12....       LCALL     ?Subroutine13 & 0xFFFF
   \                     ??CrossCallReturnLabel_10:
   \   000034   8030         SJMP      ??osal_build_uint32_1
    364            else if ( len == 4 )
   \                     ??osal_build_uint32_2:
   \   000036   7404         MOV       A,#0x4
   \   000038   6E           XRL       A,R6
   \   000039   7037         JNZ       ??osal_build_uint32_3
    365              return ( BUILD_UINT32( swapped[0], swapped[1], swapped[2], swapped[3] ) );
   \   00003B   12....       LCALL     ?Subroutine10 & 0xFFFF
   \                     ??CrossCallReturnLabel_5:
   \   00003E   12....       LCALL     ?L_SHL
   \   000041   78..         MOV       R0,#?V0
   \   000043   79..         MOV       R1,#?V4
   \   000045   12....       LCALL     ?L_ADD
   \   000048   12....       LCALL     ?Subroutine13 & 0xFFFF
   \                     ??CrossCallReturnLabel_11:
   \   00004B   78..         MOV       R0,#?V4
   \   00004D   12....       LCALL     ?L_SHL
   \   000050   78..         MOV       R0,#?V0
   \   000052   79..         MOV       R1,#?V4
   \   000054   12....       LCALL     ?L_ADD
   \   000057   8A82         MOV       DPL,R2
   \   000059   8B83         MOV       DPH,R3
   \   00005B   A3           INC       DPTR
   \   00005C   A3           INC       DPTR
   \   00005D   A3           INC       DPTR
   \   00005E   E0           MOVX      A,@DPTR
   \   00005F   F5..         MOV       ?V4,A
   \   000061   E4           CLR       A
   \   000062   F5..         MOV       ?V6,A
   \   000064   7418         MOV       A,#0x18
   \                     ??osal_build_uint32_1:
   \   000066   78..         MOV       R0,#?V4
   \   000068   12....       LCALL     ?L_SHL
   \   00006B   78..         MOV       R0,#?V0
   \   00006D   79..         MOV       R1,#?V4
   \   00006F   12....       LCALL     ?L_ADD
    366            else
    367              return ( (uint32)swapped[0] );
   \                     ??osal_build_uint32_3:
   \   000072   AA..         MOV       R2,?V0
   \   000074   AB..         MOV       R3,?V1
   \   000076   AC..         MOV       R4,?V2
   \   000078   AD..         MOV       R5,?V3
   \   00007A   02....       LJMP      ?Subroutine2 & 0xFFFF
    368          }

   \                                 In  segment BANKED_CODE, align 1, keep-with-next
   \                     ?Subroutine13:
   \   000000   8A82         MOV       DPL,R2
   \   000002   8B83         MOV       DPH,R3
   \   000004   A3           INC       DPTR
   \   000005   A3           INC       DPTR
   \   000006   E0           MOVX      A,@DPTR
   \   000007   F5..         MOV       ?V4,A
   \   000009   E4           CLR       A
   \   00000A   F5..         MOV       ?V5,A
   \   00000C   7410         MOV       A,#0x10
   \   00000E   22           RET

   \                                 In  segment BANKED_CODE, align 1, keep-with-next
   \                     ?Subroutine10:
   \   000000   12....       LCALL     ?Subroutine22 & 0xFFFF
   \                     ??CrossCallReturnLabel_28:
   \   000003   78..         MOV       R0,#?V4
   \   000005   22           RET

   \                                 In  segment BANKED_CODE, align 1, keep-with-next
   \                     ?Subroutine22:
   \   000000   A3           INC       DPTR
   \   000001   E0           MOVX      A,@DPTR
   \   000002   F5..         MOV       ?V4,A
   \   000004   E4           CLR       A
   \   000005   F5..         MOV       ?V5,A
   \   000007   F5..         MOV       ?V6,A
   \   000009   F5..         MOV       ?V7,A
   \   00000B   7408         MOV       A,#0x8
   \   00000D   22           RET
    369          
    370          #if !defined ( ZBIT ) && !defined ( ZBIT2 ) && !defined (UBIT)
    371          /*********************************************************************
    372           * @fn      _ltoa
    373           *
    374           * @brief
    375           *
    376           *   convert a long unsigned int to a string.
    377           *
    378           * @param  l - long to convert
    379           * @param  buf - buffer to convert to
    380           * @param  radix - 10 dec, 16 hex
    381           *
    382           * @return  pointer to buffer
    383           */

   \                                 In  segment BANKED_CODE, align 1, keep-with-next
    384          unsigned char * _ltoa(unsigned long l, unsigned char *buf, unsigned char radix)
   \                     _ltoa:
    385          {
   \   000000                REQUIRE ?V0
   \   000000                REQUIRE ?V1
   \   000000                REQUIRE ?V2
   \   000000                REQUIRE ?V3
   \   000000                REQUIRE ?V4
   \   000000                REQUIRE ?V5
   \   000000                REQUIRE ?V6
   \   000000                REQUIRE ?V7
   \   000000   74F0         MOV       A,#-0x10
   \   000002   12....       LCALL     ?BANKED_ENTER_XDATA
   \   000005                ; Saved register size: 16
   \   000005                ; Auto size: 39
   \   000005   74D9         MOV       A,#-0x27
   \   000007   12....       LCALL     ?ALLOC_XSTACK8
   \   00000A   7405         MOV       A,#0x5
   \   00000C   12....       LCALL     ?XSTACK_DISP0_8
   \   00000F   EA           MOV       A,R2
   \   000010   F0           MOVX      @DPTR,A
   \   000011   A3           INC       DPTR
   \   000012   EB           MOV       A,R3
   \   000013   F0           MOVX      @DPTR,A
   \   000014   A3           INC       DPTR
   \   000015   EC           MOV       A,R4
   \   000016   F0           MOVX      @DPTR,A
   \   000017   A3           INC       DPTR
   \   000018   ED           MOV       A,R5
   \   000019   F0           MOVX      @DPTR,A
   \   00001A   7402         MOV       A,#0x2
   \   00001C   12....       LCALL     ?XSTACK_DISP0_8
   \   00001F   E9           MOV       A,R1
   \   000020   F0           MOVX      @DPTR,A
    386          #if defined (__TI_COMPILER_VERSION)
    387            return ( (unsigned char*)ltoa( l, (char *)buf ) );
    388          #elif defined( __GNUC__ )
    389            return ( (char*)ltoa( l, buf, radix ) );
    390          #else
    391            unsigned char tmp1[10] = "", tmp2[10] = "", tmp3[10] = "";
   \   000021   90....       MOV       DPTR,#`?<Constant "">`
   \   000024   7409         MOV       A,#0x9
   \   000026   12....       LCALL     ?XSTACK_DISP102_8
   \   000029   740A         MOV       A,#0xa
   \   00002B   12....       LCALL     ?MOVE_LONG8_XDATA_XDATA
   \   00002E   90....       MOV       DPTR,#`?<Constant "">_1`
   \   000031   740A         MOV       A,#0xa
   \   000033   12....       LCALL     ?MOVE_LONG8_XDATA_XDATA
   \   000036   90....       MOV       DPTR,#`?<Constant "">_2`
   \   000039   740A         MOV       A,#0xa
   \   00003B   12....       LCALL     ?MOVE_LONG8_XDATA_XDATA
    392            unsigned short num1, num2, num3;
    393            unsigned char i;
    394          
    395            buf[0] = '\0';
   \   00003E   7437         MOV       A,#0x37
   \   000040   12....       LCALL     ?XSTACK_DISP0_8
   \   000043   12....       LCALL     ?Subroutine12 & 0xFFFF
   \                     ??CrossCallReturnLabel_8:
   \   000046   E4           CLR       A
   \   000047   F0           MOVX      @DPTR,A
    396          
    397            if ( radix == 10 )
   \   000048   7403         MOV       A,#0x3
   \   00004A   12....       LCALL     ?XSTACK_DISP0_8
   \   00004D   74..         MOV       A,#`?<Constant "0">` & 0xff
   \   00004F   F0           MOVX      @DPTR,A
   \   000050   A3           INC       DPTR
   \   000051   74..         MOV       A,#(`?<Constant "0">` >> 8) & 0xff
   \   000053   F0           MOVX      @DPTR,A
   \   000054   7402         MOV       A,#0x2
   \   000056   12....       LCALL     ?XSTACK_DISP0_8
   \   000059   E0           MOVX      A,@DPTR
   \   00005A   640A         XRL       A,#0xa
   \   00005C   6003         JZ        $+5
   \   00005E   02....       LJMP      ??_ltoa_0 & 0xFFFF
    398            {
    399              num1 = l % 10000;
   \   000061   7405         MOV       A,#0x5
   \   000063   12....       LCALL     ?XSTACK_DISP0_8
   \   000066   78..         MOV       R0,#?V4
   \   000068   12....       LCALL     ?L_MOV_X
   \   00006B   90....       MOV       DPTR,#__Constant_2710
   \   00006E   78..         MOV       R0,#?V0
   \   000070   12....       LCALL     ?L_MOV_X
   \   000073   78..         MOV       R0,#?V4
   \   000075   79..         MOV       R1,#?V0
   \   000077   12....       LCALL     ?UL_DIV_MOD
   \   00007A   85..82       MOV       DPL,?XSP + 0
   \   00007D   85..83       MOV       DPH,?XSP + 1
   \   000080   E5..         MOV       A,?V0
   \   000082   F0           MOVX      @DPTR,A
   \   000083   A3           INC       DPTR
   \   000084   E5..         MOV       A,?V1
   \   000086   F0           MOVX      @DPTR,A
    400              num2 = (l / 10000) % 10000;
   \   000087   7405         MOV       A,#0x5
   \   000089   12....       LCALL     ?XSTACK_DISP0_8
   \   00008C   78..         MOV       R0,#?V4
   \   00008E   12....       LCALL     ?L_MOV_X
   \   000091   90....       MOV       DPTR,#__Constant_2710
   \   000094   78..         MOV       R0,#?V0
   \   000096   12....       LCALL     ?L_MOV_X
   \   000099   78..         MOV       R0,#?V4
   \   00009B   79..         MOV       R1,#?V0
   \   00009D   12....       LCALL     ?UL_DIV_MOD
   \   0000A0   90....       MOV       DPTR,#__Constant_2710
   \   0000A3   78..         MOV       R0,#?V0
   \   0000A5   12....       LCALL     ?L_MOV_X
   \   0000A8   78..         MOV       R0,#?V4
   \   0000AA   79..         MOV       R1,#?V0
   \   0000AC   12....       LCALL     ?UL_DIV_MOD
   \   0000AF   AE..         MOV       R6,?V0
   \   0000B1   AF..         MOV       R7,?V1
    401              num3 = (unsigned short)(l / 100000000);
   \   0000B3   7405         MOV       A,#0x5
   \   0000B5   12....       LCALL     ?XSTACK_DISP0_8
   \   0000B8   78..         MOV       R0,#?V4
   \   0000BA   12....       LCALL     ?L_MOV_X
   \   0000BD   90....       MOV       DPTR,#__Constant_5f5e100
   \   0000C0   78..         MOV       R0,#?V0
   \   0000C2   12....       LCALL     ?L_MOV_X
   \   0000C5   78..         MOV       R0,#?V4
   \   0000C7   79..         MOV       R1,#?V0
   \   0000C9   12....       LCALL     ?UL_DIV_MOD
   \   0000CC   85....       MOV       ?V6,?V4
   \   0000CF   85....       MOV       ?V7,?V5
    402          
    403              if (num3) _itoa(num3, tmp3, 10);
   \   0000D2   E5..         MOV       A,?V6
   \   0000D4   45..         ORL       A,?V7
   \   0000D6   600E         JZ        ??_ltoa_1
   \   0000D8                ; Setup parameters for call to function _itoa
   \   0000D8   790A         MOV       R1,#0xa
   \   0000DA   741D         MOV       A,#0x1d
   \   0000DC   12....       LCALL     ?XSTACK_DISP102_8
   \   0000DF   AA..         MOV       R2,?V6
   \   0000E1   AB..         MOV       R3,?V7
   \   0000E3   12....       LCALL     `??_itoa::?relay`; Banked call to: _itoa
    404              if (num2) _itoa(num2, tmp2, 10);
   \                     ??_ltoa_1:
   \   0000E6   EE           MOV       A,R6
   \   0000E7   4F           ORL       A,R7
   \   0000E8   600E         JZ        ??_ltoa_2
   \   0000EA                ; Setup parameters for call to function _itoa
   \   0000EA   790A         MOV       R1,#0xa
   \   0000EC   7413         MOV       A,#0x13
   \   0000EE   12....       LCALL     ?XSTACK_DISP102_8
   \   0000F1   EE           MOV       A,R6
   \   0000F2   FA           MOV       R2,A
   \   0000F3   EF           MOV       A,R7
   \   0000F4   FB           MOV       R3,A
   \   0000F5   12....       LCALL     `??_itoa::?relay`; Banked call to: _itoa
    405              if (num1) _itoa(num1, tmp1, 10);
   \                     ??_ltoa_2:
   \   0000F8   12....       LCALL     ?Subroutine7 & 0xFFFF
   \                     ??CrossCallReturnLabel_59:
   \   0000FB   6013         JZ        ??_ltoa_3
   \   0000FD                ; Setup parameters for call to function _itoa
   \   0000FD   790A         MOV       R1,#0xa
   \   0000FF   7409         MOV       A,#0x9
   \   000101   12....       LCALL     ?XSTACK_DISP102_8
   \   000104   85..82       MOV       DPL,?XSP + 0
   \   000107   85..83       MOV       DPH,?XSP + 1
   \   00010A   12....       LCALL     ??Subroutine25_0 & 0xFFFF
   \                     ??CrossCallReturnLabel_35:
   \   00010D   12....       LCALL     `??_itoa::?relay`; Banked call to: _itoa
    406          
    407              if (num3)
   \                     ??_ltoa_3:
   \   000110   E5..         MOV       A,?V6
   \   000112   45..         ORL       A,?V7
   \   000114   6039         JZ        ??_ltoa_4
    408              {
    409                strcpy((char*)buf, (char const*)tmp3);
   \   000116                ; Setup parameters for call to function strcpy
   \   000116   741D         MOV       A,#0x1d
   \   000118   12....       LCALL     ?XSTACK_DISP102_8
   \   00011B   7437         MOV       A,#0x37
   \   00011D   12....       LCALL     ?XSTACK_DISP0_8
   \   000120   12....       LCALL     ??Subroutine25_0 & 0xFFFF
   \                     ??CrossCallReturnLabel_36:
   \   000123   12....       LCALL     `??strcpy::?relay`; Banked call to: strcpy
    410                for (i = 0; i < 4 - strlen((char const*)tmp2); i++)
   \   000126   75..00       MOV       ?V2,#0x0
   \   000129   8013         SJMP      ??_ltoa_5
    411                  strcat((char*)buf, "0");
   \                     ??_ltoa_6:
   \   00012B                ; Setup parameters for call to function strcat
   \   00012B   7403         MOV       A,#0x3
   \   00012D   12....       LCALL     ?XSTACK_DISP0_8
   \   000130   12....       LCALL     ?Subroutine9 & 0xFFFF
   \                     ??CrossCallReturnLabel_0:
   \   000133   12....       LCALL     ?XSTACK_DISP0_8
   \   000136   12....       LCALL     ??Subroutine25_0 & 0xFFFF
   \                     ??CrossCallReturnLabel_37:
   \   000139   12....       LCALL     `??strcat::?relay`; Banked call to: strcat
   \   00013C   05..         INC       ?V2
   \                     ??_ltoa_5:
   \   00013E   E5..         MOV       A,?V2
   \   000140   F5..         MOV       ?V0,A
   \   000142                ; Setup parameters for call to function strlen
   \   000142   7413         MOV       A,#0x13
   \   000144   12....       LCALL     ?XSTACK_DISP101_8
   \   000147   12....       LCALL     `??strlen::?relay`; Banked call to: strlen
   \   00014A   12....       LCALL     ?Subroutine19 & 0xFFFF
    412              }
   \                     ??CrossCallReturnLabel_22:
   \   00014D   40DC         JC        ??_ltoa_6
    413              strcat((char*)buf, (char const*)tmp2);
   \                     ??_ltoa_4:
   \   00014F                ; Setup parameters for call to function strcat
   \   00014F   7413         MOV       A,#0x13
   \   000151   12....       LCALL     ?XSTACK_DISP102_8
   \   000154   7437         MOV       A,#0x37
   \   000156   12....       LCALL     ?XSTACK_DISP0_8
   \   000159   12....       LCALL     ??Subroutine25_0 & 0xFFFF
   \                     ??CrossCallReturnLabel_38:
   \   00015C   12....       LCALL     `??strcat::?relay`; Banked call to: strcat
    414              if (num3 || num2)
   \   00015F   E5..         MOV       A,?V6
   \   000161   45..         ORL       A,?V7
   \   000163   7004         JNZ       ??_ltoa_7
   \   000165   EE           MOV       A,R6
   \   000166   4F           ORL       A,R7
   \   000167   6029         JZ        ??_ltoa_8
    415              {
    416                for (i = 0; i < 4 - strlen((char const*)tmp1); i++)
   \                     ??_ltoa_7:
   \   000169   75..00       MOV       ?V2,#0x0
   \   00016C   8013         SJMP      ??_ltoa_9
    417                  strcat((char*)buf, "0");
   \                     ??_ltoa_10:
   \   00016E                ; Setup parameters for call to function strcat
   \   00016E   7403         MOV       A,#0x3
   \   000170   12....       LCALL     ?XSTACK_DISP0_8
   \   000173   12....       LCALL     ?Subroutine9 & 0xFFFF
   \                     ??CrossCallReturnLabel_1:
   \   000176   12....       LCALL     ?XSTACK_DISP0_8
   \   000179   12....       LCALL     ??Subroutine25_0 & 0xFFFF
   \                     ??CrossCallReturnLabel_39:
   \   00017C   12....       LCALL     `??strcat::?relay`; Banked call to: strcat
   \   00017F   05..         INC       ?V2
   \                     ??_ltoa_9:
   \   000181   E5..         MOV       A,?V2
   \   000183   F5..         MOV       ?V0,A
   \   000185                ; Setup parameters for call to function strlen
   \   000185   7409         MOV       A,#0x9
   \   000187   12....       LCALL     ?XSTACK_DISP101_8
   \   00018A   12....       LCALL     `??strlen::?relay`; Banked call to: strlen
   \   00018D   12....       LCALL     ?Subroutine19 & 0xFFFF
    418              }
   \                     ??CrossCallReturnLabel_23:
   \   000190   40DC         JC        ??_ltoa_10
    419              strcat((char*)buf, (char const*)tmp1);
   \                     ??_ltoa_8:
   \   000192                ; Setup parameters for call to function strcat
   \   000192   7409         MOV       A,#0x9
   \   000194   12....       LCALL     ?XSTACK_DISP102_8
   \   000197   7437         MOV       A,#0x37
   \   000199   12....       LCALL     ?XSTACK_DISP0_8
   \   00019C   12....       LCALL     ??Subroutine25_0 & 0xFFFF
   \                     ??CrossCallReturnLabel_40:
   \   00019F   12....       LCALL     `??strcat::?relay`; Banked call to: strcat
    420              if (!num3 && !num2 && !num1)
   \   0001A2   E5..         MOV       A,?V6
   \   0001A4   45..         ORL       A,?V7
   \   0001A6   7007         JNZ       ??_ltoa_11
   \   0001A8   EE           MOV       A,R6
   \   0001A9   4F           ORL       A,R7
   \   0001AA   7003         JNZ       $+5
   \   0001AC   02....       LJMP      ??_ltoa_12 & 0xFFFF
    421                strcpy((char*)buf, "0");
    422            }
    423            else if ( radix == 16 )
    424            {
    425              num1 = l & 0x0000FFFF;
    426              num2 = l >> 16;
    427          
    428              if (num2) _itoa(num2, tmp2, 16);
    429              if (num1) _itoa(num1, tmp1, 16);
    430          
    431              if (num2)
    432              {
    433                strcpy((char*)buf,(char const*)tmp2);
    434                for (i = 0; i < 4 - strlen((char const*)tmp1); i++)
    435                  strcat((char*)buf, "0");
    436              }
    437              strcat((char*)buf, (char const*)tmp1);
    438              if (!num2 && !num1)
    439                strcpy((char*)buf, "0");
    440            }
    441            else
    442              return NULL;
    443          
    444            return buf;
   \                     ??_ltoa_11:
   \   0001AF   7437         MOV       A,#0x37
   \   0001B1   12....       LCALL     ?XSTACK_DISP0_8
   \   0001B4   12....       LCALL     ??Subroutine25_0 & 0xFFFF
   \                     ??CrossCallReturnLabel_41:
   \   0001B7   7427         MOV       A,#0x27
   \   0001B9   12....       LCALL     ?DEALLOC_XSTACK8
   \   0001BC   02....       LJMP      ?Subroutine2 & 0xFFFF
   \                     ??_ltoa_0:
   \   0001BF   E0           MOVX      A,@DPTR
   \   0001C0   6410         XRL       A,#0x10
   \   0001C2   6003         JZ        $+5
   \   0001C4   02....       LJMP      ??_ltoa_13 & 0xFFFF
   \   0001C7   7405         MOV       A,#0x5
   \   0001C9   12....       LCALL     ?XSTACK_DISP0_8
   \   0001CC   78..         MOV       R0,#?V0
   \   0001CE   12....       LCALL     ?L_MOV_X
   \   0001D1   85..82       MOV       DPL,?XSP + 0
   \   0001D4   85..83       MOV       DPH,?XSP + 1
   \   0001D7   E5..         MOV       A,?V0
   \   0001D9   F0           MOVX      @DPTR,A
   \   0001DA   A3           INC       DPTR
   \   0001DB   E5..         MOV       A,?V1
   \   0001DD   F0           MOVX      @DPTR,A
   \   0001DE   7405         MOV       A,#0x5
   \   0001E0   12....       LCALL     ?XSTACK_DISP0_8
   \   0001E3   78..         MOV       R0,#?V0
   \   0001E5   12....       LCALL     ?L_MOV_X
   \   0001E8   7410         MOV       A,#0x10
   \   0001EA   78..         MOV       R0,#?V0
   \   0001EC   12....       LCALL     ?UL_SHR
   \   0001EF   AE..         MOV       R6,?V0
   \   0001F1   AF..         MOV       R7,?V1
   \   0001F3   EE           MOV       A,R6
   \   0001F4   4F           ORL       A,R7
   \   0001F5   600E         JZ        ??_ltoa_14
   \   0001F7                ; Setup parameters for call to function _itoa
   \   0001F7   7910         MOV       R1,#0x10
   \   0001F9   7413         MOV       A,#0x13
   \   0001FB   12....       LCALL     ?XSTACK_DISP102_8
   \   0001FE   EE           MOV       A,R6
   \   0001FF   FA           MOV       R2,A
   \   000200   EF           MOV       A,R7
   \   000201   FB           MOV       R3,A
   \   000202   12....       LCALL     `??_itoa::?relay`; Banked call to: _itoa
   \                     ??_ltoa_14:
   \   000205   12....       LCALL     ?Subroutine7 & 0xFFFF
   \                     ??CrossCallReturnLabel_60:
   \   000208   6013         JZ        ??_ltoa_15
   \   00020A                ; Setup parameters for call to function _itoa
   \   00020A   7910         MOV       R1,#0x10
   \   00020C   7409         MOV       A,#0x9
   \   00020E   12....       LCALL     ?XSTACK_DISP102_8
   \   000211   85..82       MOV       DPL,?XSP + 0
   \   000214   85..83       MOV       DPH,?XSP + 1
   \   000217   12....       LCALL     ??Subroutine25_0 & 0xFFFF
   \                     ??CrossCallReturnLabel_42:
   \   00021A   12....       LCALL     `??_itoa::?relay`; Banked call to: _itoa
   \                     ??_ltoa_15:
   \   00021D   EE           MOV       A,R6
   \   00021E   4F           ORL       A,R7
   \   00021F   6039         JZ        ??_ltoa_16
   \   000221                ; Setup parameters for call to function strcpy
   \   000221   7413         MOV       A,#0x13
   \   000223   12....       LCALL     ?XSTACK_DISP102_8
   \   000226   7437         MOV       A,#0x37
   \   000228   12....       LCALL     ?XSTACK_DISP0_8
   \   00022B   12....       LCALL     ??Subroutine25_0 & 0xFFFF
   \                     ??CrossCallReturnLabel_43:
   \   00022E   12....       LCALL     `??strcpy::?relay`; Banked call to: strcpy
   \   000231   75..00       MOV       ?V2,#0x0
   \   000234   8013         SJMP      ??_ltoa_17
   \                     ??_ltoa_18:
   \   000236                ; Setup parameters for call to function strcat
   \   000236   7403         MOV       A,#0x3
   \   000238   12....       LCALL     ?XSTACK_DISP0_8
   \   00023B   12....       LCALL     ?Subroutine9 & 0xFFFF
   \                     ??CrossCallReturnLabel_2:
   \   00023E   12....       LCALL     ?XSTACK_DISP0_8
   \   000241   12....       LCALL     ??Subroutine25_0 & 0xFFFF
   \                     ??CrossCallReturnLabel_44:
   \   000244   12....       LCALL     `??strcat::?relay`; Banked call to: strcat
   \   000247   05..         INC       ?V2
   \                     ??_ltoa_17:
   \   000249   E5..         MOV       A,?V2
   \   00024B   F5..         MOV       ?V0,A
   \   00024D                ; Setup parameters for call to function strlen
   \   00024D   7409         MOV       A,#0x9
   \   00024F   12....       LCALL     ?XSTACK_DISP101_8
   \   000252   12....       LCALL     `??strlen::?relay`; Banked call to: strlen
   \   000255   12....       LCALL     ?Subroutine19 & 0xFFFF
   \                     ??CrossCallReturnLabel_24:
   \   000258   40DC         JC        ??_ltoa_18
   \                     ??_ltoa_16:
   \   00025A                ; Setup parameters for call to function strcat
   \   00025A   7409         MOV       A,#0x9
   \   00025C   12....       LCALL     ?XSTACK_DISP102_8
   \   00025F   7437         MOV       A,#0x37
   \   000261   12....       LCALL     ?XSTACK_DISP0_8
   \   000264   12....       LCALL     ??Subroutine25_0 & 0xFFFF
   \                     ??CrossCallReturnLabel_45:
   \   000267   12....       LCALL     `??strcat::?relay`; Banked call to: strcat
   \   00026A   EE           MOV       A,R6
   \   00026B   4F           ORL       A,R7
   \   00026C   6003         JZ        $+5
   \   00026E   02....       LJMP      ??_ltoa_11 & 0xFFFF
   \                     ??_ltoa_12:
   \   000271   12....       LCALL     ?Subroutine7 & 0xFFFF
   \                     ??CrossCallReturnLabel_61:
   \   000274   6003         JZ        $+5
   \   000276   02....       LJMP      ??_ltoa_11 & 0xFFFF
   \   000279                ; Setup parameters for call to function strcpy
   \   000279   7403         MOV       A,#0x3
   \   00027B   12....       LCALL     ?XSTACK_DISP0_8
   \   00027E   12....       LCALL     ?Subroutine9 & 0xFFFF
   \                     ??CrossCallReturnLabel_3:
   \   000281   12....       LCALL     ?XSTACK_DISP0_8
   \   000284   12....       LCALL     ??Subroutine25_0 & 0xFFFF
   \                     ??CrossCallReturnLabel_46:
   \   000287   12....       LCALL     `??strcpy::?relay`; Banked call to: strcpy
   \   00028A   02....       LJMP      ??_ltoa_11 & 0xFFFF
   \                     ??_ltoa_13:
   \   00028D   7A00         MOV       R2,#0x0
   \   00028F   7B00         MOV       R3,#0x0
   \   000291   02....       LJMP      ??CrossCallReturnLabel_41 & 0xFFFF
    445          #endif
    446          }

   \                                 In  segment BANKED_CODE, align 1, keep-with-next
   \                     ?Subroutine19:
   \   000000   8A..         MOV       ?V4,R2
   \   000002   8B..         MOV       ?V5,R3
   \   000004   7404         MOV       A,#0x4
   \   000006   C3           CLR       C
   \   000007   95..         SUBB      A,?V4
   \   000009   F8           MOV       R0,A
   \   00000A   E4           CLR       A
   \   00000B   95..         SUBB      A,?V5
   \   00000D   F9           MOV       R1,A
   \   00000E   C3           CLR       C
   \   00000F   E5..         MOV       A,?V0
   \   000011   98           SUBB      A,R0
   \   000012   E4           CLR       A
   \   000013   99           SUBB      A,R1
   \   000014   22           RET

   \                                 In  segment BANKED_CODE, align 1, keep-with-next
   \                     ?Subroutine9:
   \   000000   12....       LCALL     ?Subroutine23 & 0xFFFF
   \                     ??CrossCallReturnLabel_32:
   \   000003   7437         MOV       A,#0x37
   \   000005   22           RET

   \                                 In  segment BANKED_CODE, align 1, keep-with-next
   \                     ?Subroutine7:
   \   000000   85..82       MOV       DPL,?XSP + 0
   \   000003   85..83       MOV       DPH,?XSP + 1
   \   000006                REQUIRE ??Subroutine28_0
   \   000006                ; // Fall through to label ??Subroutine28_0

   \                                 In  segment BANKED_CODE, align 1, keep-with-next
   \                     ??Subroutine28_0:
   \   000000   E0           MOVX      A,@DPTR
   \   000001   F8           MOV       R0,A
   \   000002   A3           INC       DPTR
   \   000003   E0           MOVX      A,@DPTR
   \   000004   F9           MOV       R1,A
   \   000005   E8           MOV       A,R0
   \   000006   49           ORL       A,R1
   \   000007   22           RET

   \                                 In  segment BANKED_CODE, align 1, keep-with-next
   \                     ?Subroutine12:
   \   000000   E0           MOVX      A,@DPTR
   \   000001   F8           MOV       R0,A
   \   000002   A3           INC       DPTR
   \   000003   E0           MOVX      A,@DPTR
   \   000004   F583         MOV       DPH,A
   \   000006   8882         MOV       DPL,R0
   \   000008   22           RET
    447          #endif // !defined(ZBIT) && !defined(ZBIT2)
    448          
    449          /*********************************************************************
    450           * @fn        osal_rand
    451           *
    452           * @brief    Random number generator
    453           *
    454           * @param   none
    455           *
    456           * @return  uint16 - new random number
    457           */

   \                                 In  segment BANKED_CODE, align 1, keep-with-next
    458          uint16 osal_rand( void )
   \                     osal_rand:
    459          {
   \   000000   C082         PUSH      DPL
   \   000002   C083         PUSH      DPH
   \   000004                ; Saved register size: 2
   \   000004                ; Auto size: 0
    460            return ( Onboard_rand() );
   \   000004                ; Setup parameters for call to function Onboard_rand
   \   000004   12....       LCALL     `??Onboard_rand::?relay`; Banked call to: Onboard_rand
   \   000007   80..         SJMP      ?Subroutine0
    461          }
    462          
    463          /*********************************************************************
    464           * API FUNCTIONS
    465           *********************************************************************/
    466          
    467          #ifdef USE_ICALL
    468          /*********************************************************************
    469           * @fn      osal_prepare_svc_enroll
    470           *
    471           * @brief   Initialize data structures that map OSAL task ids to
    472           *          ICall entity ids.
    473           *
    474           * @param   none
    475           *
    476           * @return  none
    477           */
    478          static void osal_prepare_svc_enroll(void)
    479          {
    480            osal_dispatch_entities = (uint8 *) osal_mem_alloc(tasksCnt * 2);
    481            osal_memset(osal_dispatch_entities, OSAL_INVALID_DISPATCH_ID, tasksCnt * 2);
    482            osal_memset(osal_proxy_tasks, OSAL_INVALID_DISPATCH_ID,
    483                        OSAL_MAX_NUM_PROXY_TASKS);
    484          }
    485          
    486          /*********************************************************************
    487           * @fn      osal_enroll_dispatchid
    488           *
    489           * @brief   Map a task id to an ICall entity id for messaging in
    490           *          both directions (sending and receiving).
    491           *
    492           * @param   taskid       OSAL task id
    493           * @param   dispatchid   ICall entity id
    494           *
    495           * @return  none
    496           */
    497          void osal_enroll_dispatchid(uint8 taskid, ICall_EntityID dispatchid)
    498          {
    499            osal_dispatch_entities[taskid] = dispatchid;
    500            osal_dispatch_entities[tasksCnt + taskid] = dispatchid;
    501          }
    502          
    503          /*********************************************************************
    504           * @fn      osal_enroll_senderid
    505           *
    506           * @brief   Map a task id to an ICall entity id, which shall be used
    507           *          just for sending a message from an OSAL task.
    508           *          Note that osal_enroll_dispatchid() must never be called
    509           *          with the same OSAL task id used in this function call.
    510           *          However, it is OK to call osal_enroll_dispatchid()
    511           *          with the same ICall entity id and a different OSAL task id.
    512           *
    513           * @param   taskid       OSAL task id
    514           * @param   dispatchid   ICall entity id
    515           *
    516           * @return  none
    517           */
    518          void osal_enroll_senderid(uint8 taskid, ICall_EntityID dispatchid)
    519          {
    520            osal_dispatch_entities[tasksCnt + taskid] = dispatchid;
    521          }
    522          
    523          /*********************************************************************
    524           * @fn      osal_enroll_notasksender
    525           *
    526           * @brief   Map no task id to an ICall entity id, which shall be used
    527           *          just for sending a message from non-OSAL task.
    528           *
    529           * @param   dispatchid   ICall entity id
    530           *
    531           * @return  none
    532           */
    533          void osal_enroll_notasksender(ICall_EntityID dispatchid)
    534          {
    535            osal_notask_entity = dispatchid;
    536          }
    537          #endif /* USE_ICALL */
    538          
    539          /*********************************************************************
    540           * @fn      osal_msg_allocate
    541           *
    542           * @brief
    543           *
    544           *    This function is called by a task to allocate a message buffer
    545           *    into which the task will encode the particular message it wishes
    546           *    to send.  This common buffer scheme is used to strictly limit the
    547           *    creation of message buffers within the system due to RAM size
    548           *    limitations on the microprocessor.   Note that all message buffers
    549           *    are a fixed size (at least initially).  The parameter len is kept
    550           *    in case a message pool with varying fixed message sizes is later
    551           *    created (for example, a pool of message buffers of size LARGE,
    552           *    MEDIUM and SMALL could be maintained and allocated based on request
    553           *    from the tasks).
    554           *
    555           *
    556           * @param   uint8 len  - wanted buffer length
    557           *
    558           *
    559           * @return  pointer to allocated buffer or NULL if allocation failed.
    560           */

   \                                 In  segment BANKED_CODE, align 1, keep-with-next
    561          uint8 * osal_msg_allocate( uint16 len )
   \                     osal_msg_allocate:
    562          {
   \   000000                REQUIRE ?V0
   \   000000                REQUIRE ?V1
   \   000000   74F6         MOV       A,#-0xa
   \   000002   12....       LCALL     ?BANKED_ENTER_XDATA
   \   000005                ; Saved register size: 10
   \   000005                ; Auto size: 0
   \   000005   EA           MOV       A,R2
   \   000006   FE           MOV       R6,A
   \   000007   EB           MOV       A,R3
   \   000008   FF           MOV       R7,A
    563            osal_msg_hdr_t *hdr;
    564          
    565            if ( len == 0 )
   \   000009   EE           MOV       A,R6
   \   00000A   4F           ORL       A,R7
   \   00000B   603D         JZ        ??osal_msg_allocate_0
    566              return ( NULL );
    567          
    568            hdr = (osal_msg_hdr_t *) osal_mem_alloc( (short)(len + sizeof( osal_msg_hdr_t )) );
   \   00000D                ; Setup parameters for call to function osal_mem_alloc
   \   00000D   EE           MOV       A,R6
   \   00000E   2405         ADD       A,#0x5
   \   000010   FA           MOV       R2,A
   \   000011   E4           CLR       A
   \   000012   3F           ADDC      A,R7
   \   000013   FB           MOV       R3,A
   \   000014   12....       LCALL     `??osal_mem_alloc::?relay`; Banked call to: osal_mem_alloc
   \   000017   8A..         MOV       ?V0,R2
   \   000019   8B..         MOV       ?V1,R3
   \   00001B   A8..         MOV       R0,?V0
   \   00001D   A9..         MOV       R1,?V1
    569            if ( hdr )
   \   00001F   E8           MOV       A,R0
   \   000020   49           ORL       A,R1
   \   000021   6027         JZ        ??osal_msg_allocate_0
    570            {
    571              hdr->next = NULL;
   \   000023   8882         MOV       DPL,R0
   \   000025   8983         MOV       DPH,R1
   \   000027   E4           CLR       A
   \   000028   F0           MOVX      @DPTR,A
   \   000029   A3           INC       DPTR
   \   00002A   F0           MOVX      @DPTR,A
    572              hdr->len = len;
   \   00002B   8882         MOV       DPL,R0
   \   00002D   8983         MOV       DPH,R1
   \   00002F   A3           INC       DPTR
   \   000030   A3           INC       DPTR
   \   000031   EE           MOV       A,R6
   \   000032   F0           MOVX      @DPTR,A
   \   000033   A3           INC       DPTR
   \   000034   EF           MOV       A,R7
   \   000035   F0           MOVX      @DPTR,A
    573              hdr->dest_id = TASK_NO_TASK;
   \   000036   8882         MOV       DPL,R0
   \   000038   8983         MOV       DPH,R1
   \   00003A   A3           INC       DPTR
   \   00003B   A3           INC       DPTR
   \   00003C   A3           INC       DPTR
   \   00003D   A3           INC       DPTR
   \   00003E   74FF         MOV       A,#-0x1
   \   000040   F0           MOVX      @DPTR,A
    574              return ( (uint8 *) (hdr + 1) );
   \   000041   E8           MOV       A,R0
   \   000042   2405         ADD       A,#0x5
   \   000044   FA           MOV       R2,A
   \   000045   E4           CLR       A
   \   000046   39           ADDC      A,R1
   \   000047   FB           MOV       R3,A
   \   000048   8004         SJMP      ??osal_msg_allocate_1
    575            }
    576            else
    577              return ( NULL );
   \                     ??osal_msg_allocate_0:
   \   00004A   7A00         MOV       R2,#0x0
   \   00004C   7B00         MOV       R3,#0x0
   \                     ??osal_msg_allocate_1:
   \   00004E   02....       LJMP      ?Subroutine3 & 0xFFFF
    578          }
    579          
    580          /*********************************************************************
    581           * @fn      osal_msg_deallocate
    582           *
    583           * @brief
    584           *
    585           *    This function is used to deallocate a message buffer. This function
    586           *    is called by a task (or processing element) after it has finished
    587           *    processing a received message.
    588           *
    589           *
    590           * @param   uint8 *msg_ptr - pointer to new message buffer
    591           *
    592           * @return  SUCCESS, INVALID_MSG_POINTER
    593           */

   \                                 In  segment BANKED_CODE, align 1, keep-with-next
    594          uint8 osal_msg_deallocate( uint8 *msg_ptr )
   \                     osal_msg_deallocate:
    595          {
   \   000000   C082         PUSH      DPL
   \   000002   C083         PUSH      DPH
   \   000004                ; Saved register size: 2
   \   000004                ; Auto size: 0
    596            uint8 *x;
    597          
    598            if ( msg_ptr == NULL )
   \   000004   EA           MOV       A,R2
   \   000005   4B           ORL       A,R3
   \   000006   7004         JNZ       ??osal_msg_deallocate_0
    599              return ( INVALID_MSG_POINTER );
   \   000008   7905         MOV       R1,#0x5
   \   00000A   8016         SJMP      ??osal_msg_deallocate_1
    600          
    601            // don't deallocate queued buffer
    602            if ( OSAL_MSG_ID( msg_ptr ) != TASK_NO_TASK )
   \                     ??osal_msg_deallocate_0:
   \   00000C   12....       LCALL     ?Subroutine14 & 0xFFFF
   \                     ??CrossCallReturnLabel_12:
   \   00000F   6004         JZ        ??osal_msg_deallocate_2
    603              return ( MSG_BUFFER_NOT_AVAIL );
   \   000011   7904         MOV       R1,#0x4
   \   000013   800D         SJMP      ??osal_msg_deallocate_1
    604          
    605            x = (uint8 *)((uint8 *)msg_ptr - sizeof( osal_msg_hdr_t ));
    606          
    607            osal_mem_free( (void *)x );
   \                     ??osal_msg_deallocate_2:
   \   000015                ; Setup parameters for call to function osal_mem_free
   \   000015   EA           MOV       A,R2
   \   000016   24FB         ADD       A,#-0x5
   \   000018   FA           MOV       R2,A
   \   000019   EB           MOV       A,R3
   \   00001A   34FF         ADDC      A,#-0x1
   \   00001C   FB           MOV       R3,A
   \   00001D   12....       LCALL     `??osal_mem_free::?relay`; Banked call to: osal_mem_free
    608          
    609            return ( SUCCESS );
   \   000020   7900         MOV       R1,#0x0
   \                     ??osal_msg_deallocate_1:
   \   000022                REQUIRE ?Subroutine0
   \   000022                ; // Fall through to label ?Subroutine0
    610          }

   \                                 In  segment BANKED_CODE, align 1, keep-with-next
   \                     ?Subroutine14:
   \   000000   12....       LCALL     ?Subroutine24 & 0xFFFF
   \                     ??CrossCallReturnLabel_33:
   \   000003   E0           MOVX      A,@DPTR
   \   000004   F4           CPL       A
   \   000005   22           RET

   \                                 In  segment BANKED_CODE, align 1, keep-with-next
   \                     ?Subroutine24:
   \   000000   EA           MOV       A,R2
   \   000001   24FF         ADD       A,#-0x1
   \   000003   F582         MOV       DPL,A
   \   000005   EB           MOV       A,R3
   \   000006   34FF         ADDC      A,#-0x1
   \   000008   F583         MOV       DPH,A
   \   00000A   22           RET
    611          
    612          /*********************************************************************
    613           * @fn      osal_msg_send
    614           *
    615           * @brief
    616           *
    617           *    This function is called by a task to send a command message to
    618           *    another task or processing element.  The sending_task field must
    619           *    refer to a valid task, since the task ID will be used
    620           *    for the response message.  This function will also set a message
    621           *    ready event in the destination tasks event list.
    622           *
    623           *
    624           * @param   uint8 destination_task - Send msg to Task ID
    625           * @param   uint8 *msg_ptr - pointer to new message buffer
    626           *
    627           * @return  SUCCESS, INVALID_TASK, INVALID_MSG_POINTER
    628           */

   \                                 In  segment BANKED_CODE, align 1, keep-with-next
    629          uint8 osal_msg_send( uint8 destination_task, uint8 *msg_ptr )
   \                     osal_msg_send:
    630          {
   \   000000   74F7         MOV       A,#-0x9
   \   000002   12....       LCALL     ?BANKED_ENTER_XDATA
   \   000005                ; Saved register size: 9
   \   000005                ; Auto size: 0
    631          #ifdef USE_ICALL
    632            if (destination_task & OSAL_PROXY_ID_FLAG)
    633            {
    634              /* Destination is a proxy task */
    635              osal_msg_hdr_t *hdr = (osal_msg_hdr_t *)msg_ptr - 1;
    636              ICall_EntityID src, dst;
    637          
    638              uint8 taskid = osal_self();
    639              if (taskid == TASK_NO_TASK)
    640              {
    641                /* Call must have been made from either an ISR or a user-thread */
    642                src = osal_notask_entity;
    643              }
    644              else
    645              {
    646                src = (ICall_EntityID) osal_dispatch_entities[taskid + tasksCnt];
    647              }
    648              if (src == OSAL_INVALID_DISPATCH_ID)
    649              {
    650                /* The source entity is not registered */
    651                /* abort */
    652                ICall_abort();
    653                return FAILURE;
    654              }
    655              dst = osal_proxy2alien(destination_task);
    656              hdr->dest_id = TASK_NO_TASK;
    657              if (ICall_send(src, dst, ICALL_MSG_FORMAT_KEEP, msg_ptr) ==
    658                  ICALL_ERRNO_SUCCESS)
    659              {
    660                return SUCCESS;
    661              }
    662              osal_msg_deallocate(msg_ptr);
    663              return FAILURE;
    664            }
    665          #endif /* USE_ICALL */
    666            return ( osal_msg_enqueue_push( destination_task, msg_ptr, FALSE ) );
   \   000005                ; Setup parameters for call to function osal_msg_enqueue_push
   \   000005   7C00         MOV       R4,#0x0
   \   000007                REQUIRE ?Subroutine6
   \   000007                ; // Fall through to label ?Subroutine6
    667          }

   \                                 In  segment BANKED_CODE, align 1, keep-with-next
   \                     ?Subroutine6:
   \   000000   12....       LCALL     `??osal_msg_enqueue_push::?relay`; Banked call to: osal_msg_enqueue_push
   \   000003   02....       LJMP      ??Subroutine27_0 & 0xFFFF
    668          
    669          /*********************************************************************
    670           * @fn      osal_msg_push_front
    671           *
    672           * @brief
    673           *
    674           *    This function is called by a task to push a command message
    675           *    to the head of the OSAL queue. The destination_task field
    676           *    must refer to a valid task, since the task ID will be used to
    677           *    send the message to. This function will also set a message
    678           *    ready event in the destination task's event list.
    679           *
    680           * @param   uint8 destination_task - Send msg to Task ID
    681           * @param   uint8 *msg_ptr - pointer to message buffer
    682           *
    683           * @return  SUCCESS, INVALID_TASK, INVALID_MSG_POINTER
    684           */

   \                                 In  segment BANKED_CODE, align 1, keep-with-next
    685          uint8 osal_msg_push_front( uint8 destination_task, uint8 *msg_ptr )
   \                     osal_msg_push_front:
    686          {
   \   000000   74F7         MOV       A,#-0x9
   \   000002   12....       LCALL     ?BANKED_ENTER_XDATA
   \   000005                ; Saved register size: 9
   \   000005                ; Auto size: 0
    687            return ( osal_msg_enqueue_push( destination_task, msg_ptr, TRUE ) );
   \   000005                ; Setup parameters for call to function osal_msg_enqueue_push
   \   000005   7C01         MOV       R4,#0x1
   \   000007   80..         SJMP      ?Subroutine6
    688          }
    689          
    690          /*********************************************************************
    691           * @fn      osal_msg_enqueue_push
    692           *
    693           * @brief
    694           *
    695           *    This function is called by a task to either enqueue (append to
    696           *    queue) or push (prepend to queue) a command message to the OSAL
    697           *    queue. The destination_task field must refer to a valid task,
    698           *    since the task ID will be used to send the message to. This 
    699           *    function will also set a message ready event in the destination
    700           *    task's event list.
    701           *
    702           * @param   uint8 destination_task - Send msg to Task ID
    703           * @param   uint8 *msg_ptr - pointer to message buffer
    704           * @param   uint8 push - TRUE to push, otherwise enqueue
    705           *
    706           * @return  SUCCESS, INVALID_TASK, INVALID_MSG_POINTER
    707           */

   \                                 In  segment BANKED_CODE, align 1, keep-with-next
    708          static uint8 osal_msg_enqueue_push( uint8 destination_task, uint8 *msg_ptr, uint8 push )
   \                     osal_msg_enqueue_push:
    709          {
   \   000000   74F7         MOV       A,#-0x9
   \   000002   12....       LCALL     ?BANKED_ENTER_XDATA
   \   000005                ; Saved register size: 9
   \   000005                ; Auto size: 0
   \   000005   E9           MOV       A,R1
   \   000006   FE           MOV       R6,A
   \   000007   EC           MOV       A,R4
   \   000008   FF           MOV       R7,A
    710            if ( msg_ptr == NULL )
   \   000009   EA           MOV       A,R2
   \   00000A   4B           ORL       A,R3
   \   00000B   6027         JZ        ??osal_msg_enqueue_push_0
    711            {
    712              return ( INVALID_MSG_POINTER );
    713            }
    714          
    715          #ifdef USE_ICALL
    716            if (destination_task & OSAL_PROXY_ID_FLAG)
    717            {
    718              ICall_abort();
    719            }
    720          #endif /* USE_ICALL */
    721          
    722            if ( destination_task >= tasksCnt )
   \   00000D   90....       MOV       DPTR,#tasksCnt
   \   000010   E0           MOVX      A,@DPTR
   \   000011   F8           MOV       R0,A
   \   000012   EE           MOV       A,R6
   \   000013   C3           CLR       C
   \   000014   98           SUBB      A,R0
   \   000015   4007         JC        ??osal_msg_enqueue_push_1
    723            {
    724              osal_msg_deallocate( msg_ptr );
   \   000017                ; Setup parameters for call to function osal_msg_deallocate
   \   000017   12....       LCALL     `??osal_msg_deallocate::?relay`; Banked call to: osal_msg_deallocate
    725              return ( INVALID_TASK );
   \   00001A   7903         MOV       R1,#0x3
   \   00001C   8044         SJMP      ??osal_msg_enqueue_push_2
    726            }
    727          
    728            // Check the message header
    729            if ( OSAL_MSG_NEXT( msg_ptr ) != NULL ||
    730                 OSAL_MSG_ID( msg_ptr ) != TASK_NO_TASK )
   \                     ??osal_msg_enqueue_push_1:
   \   00001E   EA           MOV       A,R2
   \   00001F   24FB         ADD       A,#-0x5
   \   000021   F582         MOV       DPL,A
   \   000023   EB           MOV       A,R3
   \   000024   12....       LCALL     ??Subroutine29_0 & 0xFFFF
   \                     ??CrossCallReturnLabel_62:
   \   000027   12....       LCALL     ??Subroutine28_0 & 0xFFFF
   \                     ??CrossCallReturnLabel_53:
   \   00002A   7005         JNZ       ??osal_msg_enqueue_push_3
   \   00002C   12....       LCALL     ?Subroutine14 & 0xFFFF
   \                     ??CrossCallReturnLabel_13:
   \   00002F   6007         JZ        ??osal_msg_enqueue_push_4
    731            {
    732              osal_msg_deallocate( msg_ptr );
   \                     ??osal_msg_enqueue_push_3:
   \   000031                ; Setup parameters for call to function osal_msg_deallocate
   \   000031   12....       LCALL     `??osal_msg_deallocate::?relay`; Banked call to: osal_msg_deallocate
    733              return ( INVALID_MSG_POINTER );
   \                     ??osal_msg_enqueue_push_0:
   \   000034   7905         MOV       R1,#0x5
   \   000036   802A         SJMP      ??osal_msg_enqueue_push_2
    734            }
    735          
    736            OSAL_MSG_ID( msg_ptr ) = destination_task;
   \                     ??osal_msg_enqueue_push_4:
   \   000038   EE           MOV       A,R6
   \   000039   F0           MOVX      @DPTR,A
    737          
    738            if ( push == TRUE )
   \   00003A   7401         MOV       A,#0x1
   \   00003C   6F           XRL       A,R7
   \   00003D   700D         JNZ       ??osal_msg_enqueue_push_5
    739            {
    740              // prepend the message
    741              osal_msg_push( &osal_qHead, msg_ptr );
   \   00003F                ; Setup parameters for call to function osal_msg_push
   \   00003F   EA           MOV       A,R2
   \   000040   FC           MOV       R4,A
   \   000041   EB           MOV       A,R3
   \   000042   FD           MOV       R5,A
   \   000043   7A..         MOV       R2,#osal_qHead & 0xff
   \   000045   7B..         MOV       R3,#(osal_qHead >> 8) & 0xff
   \   000047   12....       LCALL     `??osal_msg_push::?relay`; Banked call to: osal_msg_push
   \   00004A   800B         SJMP      ??osal_msg_enqueue_push_6
    742            }
    743            else
    744            {
    745              // append the message
    746              osal_msg_enqueue( &osal_qHead, msg_ptr );
   \                     ??osal_msg_enqueue_push_5:
   \   00004C                ; Setup parameters for call to function osal_msg_enqueue
   \   00004C   EA           MOV       A,R2
   \   00004D   FC           MOV       R4,A
   \   00004E   EB           MOV       A,R3
   \   00004F   FD           MOV       R5,A
   \   000050   7A..         MOV       R2,#osal_qHead & 0xff
   \   000052   7B..         MOV       R3,#(osal_qHead >> 8) & 0xff
   \   000054   12....       LCALL     `??osal_msg_enqueue::?relay`; Banked call to: osal_msg_enqueue
    747            }
    748          
    749            // Signal the task that a message is waiting
    750            osal_set_event( destination_task, SYS_EVENT_MSG );
   \                     ??osal_msg_enqueue_push_6:
   \   000057                ; Setup parameters for call to function osal_set_event
   \   000057   7A00         MOV       R2,#0x0
   \   000059   7B80         MOV       R3,#-0x80
   \   00005B   EE           MOV       A,R6
   \   00005C   F9           MOV       R1,A
   \   00005D   12....       LCALL     `??osal_set_event::?relay`; Banked call to: osal_set_event
    751          
    752            return ( SUCCESS );
   \   000060   7900         MOV       R1,#0x0
   \                     ??osal_msg_enqueue_push_2:
   \   000062   02....       LJMP      ??Subroutine27_0 & 0xFFFF
    753          }

   \                                 In  segment BANKED_CODE, align 1, keep-with-next
   \                     ??Subroutine29_0:
   \   000000   34FF         ADDC      A,#-0x1
   \   000002   F583         MOV       DPH,A
   \   000004   22           RET
    754          
    755          /*********************************************************************
    756           * @fn      osal_msg_receive
    757           *
    758           * @brief
    759           *
    760           *    This function is called by a task to retrieve a received command
    761           *    message. The calling task must deallocate the message buffer after
    762           *    processing the message using the osal_msg_deallocate() call.
    763           *
    764           * @param   uint8 task_id - receiving tasks ID
    765           *
    766           * @return  *uint8 - message information or NULL if no message
    767           */

   \                                 In  segment BANKED_CODE, align 1, keep-with-next
    768          uint8 *osal_msg_receive( uint8 task_id )
   \                     osal_msg_receive:
    769          {
   \   000000                REQUIRE ?V0
   \   000000                REQUIRE ?V1
   \   000000                REQUIRE ?V2
   \   000000                REQUIRE ?V3
   \   000000   74F4         MOV       A,#-0xc
   \   000002   12....       LCALL     ?BANKED_ENTER_XDATA
   \   000005                ; Saved register size: 12
   \   000005                ; Auto size: 0
   \   000005   89..         MOV       ?V0,R1
    770            osal_msg_hdr_t *listHdr;
    771            osal_msg_hdr_t *prevHdr = NULL;
   \   000007   75..00       MOV       ?V2,#0x0
   \   00000A   75..00       MOV       ?V3,#0x0
    772            osal_msg_hdr_t *foundHdr = NULL;
   \   00000D   7E00         MOV       R6,#0x0
   \   00000F   7F00         MOV       R7,#0x0
    773            halIntState_t   intState;
    774          
    775            // Hold off interrupts
    776            HAL_ENTER_CRITICAL_SECTION(intState);
   \   000011   A2AF         MOV       C,0xa8.7
   \   000013   E4           CLR       A
   \   000014   33           RLC       A
   \   000015   F5..         MOV       ?V1,A
   \   000017   C2AF         CLR       0xa8.7
    777          
    778            // Point to the top of the queue
    779            listHdr = osal_qHead;
   \   000019   90....       MOV       DPTR,#osal_qHead
   \   00001C   8011         SJMP      ??CrossCallReturnLabel_63
    780          
    781            // Look through the queue for a message that belongs to the asking task
    782            while ( listHdr != NULL )
    783            {
    784              if ( (listHdr - 1)->dest_id == task_id )
    785              {
    786                if ( foundHdr == NULL )
    787                {
    788                  // Save the first one
    789                  foundHdr = listHdr;
    790                }
    791                else
    792                {
    793                  // Second msg found, stop looking
    794                  break;
    795                }
    796              }
    797              if ( foundHdr == NULL )
   \                     ??osal_msg_receive_0:
   \   00001E   EE           MOV       A,R6
   \   00001F   4F           ORL       A,R7
   \   000020   7004         JNZ       ??osal_msg_receive_1
    798              {
    799                prevHdr = listHdr;
   \   000022   88..         MOV       ?V2,R0
   \   000024   89..         MOV       ?V3,R1
    800              }
    801              listHdr = OSAL_MSG_NEXT( listHdr );
   \                     ??osal_msg_receive_1:
   \   000026   E8           MOV       A,R0
   \   000027   24FB         ADD       A,#-0x5
   \   000029   F582         MOV       DPL,A
   \   00002B   E9           MOV       A,R1
   \   00002C   12....       LCALL     ??Subroutine29_0 & 0xFFFF
   \                     ??CrossCallReturnLabel_63:
   \   00002F   12....       LCALL     ??Subroutine28_0 & 0xFFFF
   \                     ??CrossCallReturnLabel_52:
   \   000032   6023         JZ        ??osal_msg_receive_2
   \   000034   E8           MOV       A,R0
   \   000035   24FF         ADD       A,#-0x1
   \   000037   F582         MOV       DPL,A
   \   000039   E9           MOV       A,R1
   \   00003A   12....       LCALL     ??Subroutine29_0 & 0xFFFF
   \                     ??CrossCallReturnLabel_64:
   \   00003D   E0           MOVX      A,@DPTR
   \   00003E   65..         XRL       A,?V0
   \   000040   70DC         JNZ       ??osal_msg_receive_0
   \   000042   EE           MOV       A,R6
   \   000043   4F           ORL       A,R7
   \   000044   7006         JNZ       ??osal_msg_receive_3
   \   000046   E8           MOV       A,R0
   \   000047   FE           MOV       R6,A
   \   000048   E9           MOV       A,R1
   \   000049   FF           MOV       R7,A
   \   00004A   80DA         SJMP      ??osal_msg_receive_1
    802            }
    803          
    804            // Is there more than one?
    805            if ( listHdr != NULL )
    806            {
    807              // Yes, Signal the task that a message is waiting
    808              osal_set_event( task_id, SYS_EVENT_MSG );
   \                     ??osal_msg_receive_3:
   \   00004C                ; Setup parameters for call to function osal_set_event
   \   00004C   7A00         MOV       R2,#0x0
   \   00004E   7B80         MOV       R3,#-0x80
   \   000050   A9..         MOV       R1,?V0
   \   000052   12....       LCALL     `??osal_set_event::?relay`; Banked call to: osal_set_event
   \   000055   800D         SJMP      ??osal_msg_receive_4
    809            }
    810            else
    811            {
    812              // No more
    813              osal_clear_event( task_id, SYS_EVENT_MSG );
   \                     ??osal_msg_receive_2:
   \   000057                ; Setup parameters for call to function osal_clear_event
   \   000057   7A00         MOV       R2,#0x0
   \   000059   7B80         MOV       R3,#-0x80
   \   00005B   A9..         MOV       R1,?V0
   \   00005D   12....       LCALL     `??osal_clear_event::?relay`; Banked call to: osal_clear_event
    814            }
    815          
    816            // Did we find a message?
    817            if ( foundHdr != NULL )
   \   000060   EE           MOV       A,R6
   \   000061   4F           ORL       A,R7
   \   000062   6015         JZ        ??osal_msg_receive_5
    818            {
    819              // Take out of the link list
    820              osal_msg_extract( &osal_qHead, foundHdr, prevHdr );
   \                     ??osal_msg_receive_4:
   \   000064                ; Setup parameters for call to function osal_msg_extract
   \   000064   78..         MOV       R0,#?V2
   \   000066   12....       LCALL     ?PUSH_XSTACK_I_TWO
   \   000069   EE           MOV       A,R6
   \   00006A   FC           MOV       R4,A
   \   00006B   EF           MOV       A,R7
   \   00006C   FD           MOV       R5,A
   \   00006D   7A..         MOV       R2,#osal_qHead & 0xff
   \   00006F   7B..         MOV       R3,#(osal_qHead >> 8) & 0xff
   \   000071   12....       LCALL     `??osal_msg_extract::?relay`; Banked call to: osal_msg_extract
   \   000074   7402         MOV       A,#0x2
   \   000076   12....       LCALL     ?DEALLOC_XSTACK8
    821            }
    822          
    823            // Release interrupts
    824            HAL_EXIT_CRITICAL_SECTION(intState);
   \                     ??osal_msg_receive_5:
   \   000079   E5..         MOV       A,?V1
   \   00007B   A2E0         MOV       C,0xE0 /* A   */.0
   \   00007D   92AF         MOV       0xa8.7,C
    825          
    826            return ( (uint8*) foundHdr );
   \   00007F   EE           MOV       A,R6
   \   000080   FA           MOV       R2,A
   \   000081   EF           MOV       A,R7
   \   000082   FB           MOV       R3,A
   \   000083                REQUIRE ?Subroutine4
   \   000083                REQUIRE _A_IEN0
   \   000083                ; // Fall through to label ?Subroutine4
    827          }

   \                                 In  segment BANKED_CODE, align 1, keep-with-next
   \                     ?Subroutine4:
   \   000000   7F04         MOV       R7,#0x4
   \   000002   02....       LJMP      ?BANKED_LEAVE_XDATA
    828          
    829          /**************************************************************************************************
    830           * @fn          osal_msg_find
    831           *
    832           * @brief       This function finds in place an OSAL message matching the task_id and event
    833           *              parameters.
    834           *
    835           * input parameters
    836           *
    837           * @param       task_id - The OSAL task id that the enqueued OSAL message must match.
    838           * @param       event - The OSAL event id that the enqueued OSAL message must match.
    839           *
    840           * output parameters
    841           *
    842           * None.
    843           *
    844           * @return      NULL if no match, otherwise an in place pointer to the matching OSAL message.
    845           **************************************************************************************************
    846           */

   \                                 In  segment BANKED_CODE, align 1, keep-with-next
    847          osal_event_hdr_t *osal_msg_find(uint8 task_id, uint8 event)
   \                     osal_msg_find:
    848          {
   \   000000   C082         PUSH      DPL
   \   000002   C083         PUSH      DPH
   \   000004                ; Saved register size: 2
   \   000004                ; Auto size: 0
   \   000004   EA           MOV       A,R2
   \   000005   FC           MOV       R4,A
    849            osal_msg_hdr_t *pHdr;
    850            halIntState_t intState;
    851          
    852            HAL_ENTER_CRITICAL_SECTION(intState);  // Hold off interrupts.
   \   000006   A2AF         MOV       C,0xa8.7
   \   000008   E4           CLR       A
   \   000009   33           RLC       A
   \   00000A   F8           MOV       R0,A
   \   00000B   C2AF         CLR       0xa8.7
    853          
    854            pHdr = osal_qHead;  // Point to the top of the queue.
   \   00000D   90....       MOV       DPTR,#osal_qHead
   \   000010   8009         SJMP      ??CrossCallReturnLabel_65
    855          
    856            // Look through the queue for a message that matches the task_id and event parameters.
    857            while (pHdr != NULL)
    858            {
    859              if (((pHdr-1)->dest_id == task_id) && (((osal_event_hdr_t *)pHdr)->event == event))
    860              {
    861                break;
    862              }
    863          
    864              pHdr = OSAL_MSG_NEXT(pHdr);
   \                     ??osal_msg_find_0:
   \   000012   EA           MOV       A,R2
   \   000013   24FB         ADD       A,#-0x5
   \   000015   F582         MOV       DPL,A
   \   000017   EB           MOV       A,R3
   \   000018   12....       LCALL     ??Subroutine29_0 & 0xFFFF
   \                     ??CrossCallReturnLabel_65:
   \   00001B   12....       LCALL     ??Subroutine25_0 & 0xFFFF
   \                     ??CrossCallReturnLabel_47:
   \   00001E   EA           MOV       A,R2
   \   00001F   4B           ORL       A,R3
   \   000020   600F         JZ        ??osal_msg_find_1
   \   000022   12....       LCALL     ?Subroutine16 & 0xFFFF
    865            }
   \                     ??CrossCallReturnLabel_16:
   \   000025   E0           MOVX      A,@DPTR
   \   000026   69           XRL       A,R1
   \   000027   70E9         JNZ       ??osal_msg_find_0
   \   000029   8A82         MOV       DPL,R2
   \   00002B   8B83         MOV       DPH,R3
   \   00002D   E0           MOVX      A,@DPTR
   \   00002E   6C           XRL       A,R4
   \   00002F   70E1         JNZ       ??osal_msg_find_0
    866          
    867            HAL_EXIT_CRITICAL_SECTION(intState);  // Release interrupts.
   \                     ??osal_msg_find_1:
   \   000031   E8           MOV       A,R0
   \   000032   A2E0         MOV       C,0xE0 /* A   */.0
   \   000034   92AF         MOV       0xa8.7,C
    868          
    869            return (osal_event_hdr_t *)pHdr;
   \   000036   02....       LJMP      ?Subroutine0 & 0xFFFF
   \   000039                REQUIRE _A_IEN0
    870          }

   \                                 In  segment BANKED_CODE, align 1, keep-with-next
   \                     ?Subroutine16:
   \   000000   12....       LCALL     ?Subroutine24 & 0xFFFF
   \                     ??CrossCallReturnLabel_34:
   \   000003   22           RET
    871          
    872          /**************************************************************************************************
    873           * @fn          osal_msg_count
    874           *
    875           * @brief       This function counts the number of messages, in the OSAL message queue with a
    876           *              a given task ID and message event type.
    877           *
    878           * input parameters
    879           *
    880           * @param       task_id - The OSAL task id that the enqueued OSAL message must match.
    881           * @param       event - The OSAL event id that the enqueued OSAL message must match. 0xFF for 
    882           *              all events.
    883           *
    884           * output parameters
    885           *
    886           * None.
    887           *
    888           * @return      The number of OSAL messages that match the task ID and Event.
    889           **************************************************************************************************
    890           */

   \                                 In  segment BANKED_CODE, align 1, keep-with-next
    891          uint8 osal_msg_count( uint8 task_id, uint8 event )
   \                     osal_msg_count:
    892          {
   \   000000   74F7         MOV       A,#-0x9
   \   000002   12....       LCALL     ?BANKED_ENTER_XDATA
   \   000005                ; Saved register size: 9
   \   000005                ; Auto size: 0
   \   000005   E9           MOV       A,R1
   \   000006   FB           MOV       R3,A
    893            uint8 count = 0;
   \   000007   7900         MOV       R1,#0x0
    894            osal_msg_hdr_t *pHdr;
    895            halIntState_t intState;
    896          
    897            HAL_ENTER_CRITICAL_SECTION(intState);  // Hold off interrupts.
   \   000009   A2AF         MOV       C,0xa8.7
   \   00000B   E4           CLR       A
   \   00000C   33           RLC       A
   \   00000D   F8           MOV       R0,A
   \   00000E   C2AF         CLR       0xa8.7
    898          
    899            pHdr = osal_qHead;  // Point to the top of the queue.
   \   000010   90....       MOV       DPTR,#osal_qHead
   \   000013   8018         SJMP      ??CrossCallReturnLabel_67
    900          
    901            // Look through the queue for a message that matches the task_id and event parameters.
    902            while (pHdr != NULL)
    903            {
    904              if ( ((pHdr-1)->dest_id == task_id) 
    905                  && ((event == 0xFF) || (((osal_event_hdr_t *)pHdr)->event == event)) )
   \                     ??osal_msg_count_0:
   \   000015   12....       LCALL     ?Subroutine17 & 0xFFFF
   \                     ??CrossCallReturnLabel_18:
   \   000018   E0           MOVX      A,@DPTR
   \   000019   6B           XRL       A,R3
   \   00001A   700E         JNZ       ??osal_msg_count_1
   \   00001C   74FF         MOV       A,#-0x1
   \   00001E   6A           XRL       A,R2
   \   00001F   6008         JZ        ??osal_msg_count_2
   \   000021   8C82         MOV       DPL,R4
   \   000023   8D83         MOV       DPH,R5
   \   000025   E0           MOVX      A,@DPTR
   \   000026   6A           XRL       A,R2
   \   000027   7001         JNZ       ??osal_msg_count_1
    906              {
    907                count++;
   \                     ??osal_msg_count_2:
   \   000029   09           INC       R1
    908              }
    909          
    910              pHdr = OSAL_MSG_NEXT(pHdr);
   \                     ??osal_msg_count_1:
   \   00002A   12....       LCALL     ?Subroutine21 & 0xFFFF
    911            }
   \                     ??CrossCallReturnLabel_67:
   \   00002D   12....       LCALL     ?Subroutine23 & 0xFFFF
   \                     ??CrossCallReturnLabel_31:
   \   000030   EC           MOV       A,R4
   \   000031   4D           ORL       A,R5
   \   000032   70E1         JNZ       ??osal_msg_count_0
    912          
    913            HAL_EXIT_CRITICAL_SECTION(intState);  // Release interrupts.
   \   000034   E8           MOV       A,R0
   \   000035                REQUIRE ?Subroutine5
   \   000035                REQUIRE _A_IEN0
   \   000035                ; // Fall through to label ?Subroutine5
    914          
    915            return ( count );
    916          }

   \                                 In  segment BANKED_CODE, align 1, keep-with-next
   \                     ?Subroutine5:
   \   000000   A2E0         MOV       C,0xE0 /* A   */.0
   \   000002                REQUIRE ??Subroutine26_0
   \   000002                ; // Fall through to label ??Subroutine26_0

   \                                 In  segment BANKED_CODE, align 1, keep-with-next
   \                     ??Subroutine26_0:
   \   000000   92AF         MOV       0xa8.7,C
   \   000002   80..         SJMP      ??Subroutine27_0

   \                                 In  segment BANKED_CODE, align 1, keep-with-next
   \                     ?Subroutine21:
   \   000000   EC           MOV       A,R4
   \   000001   24FB         ADD       A,#-0x5
   \   000003   F582         MOV       DPL,A
   \   000005   ED           MOV       A,R5
   \   000006                REQUIRE ??Subroutine29_0
   \   000006                ; // Fall through to label ??Subroutine29_0

   \                                 In  segment BANKED_CODE, align 1, keep-with-next
   \                     ?Subroutine17:
   \   000000   EC           MOV       A,R4
   \   000001   24FF         ADD       A,#-0x1
   \   000003   F582         MOV       DPL,A
   \   000005   ED           MOV       A,R5
   \   000006   34FF         ADDC      A,#-0x1
   \   000008   F583         MOV       DPH,A
   \   00000A   22           RET
    917          
    918          /*********************************************************************
    919           * @fn      osal_msg_enqueue
    920           *
    921           * @brief
    922           *
    923           *    This function enqueues an OSAL message into an OSAL queue.
    924           *
    925           * @param   osal_msg_q_t *q_ptr - OSAL queue
    926           * @param   void *msg_ptr  - OSAL message
    927           *
    928           * @return  none
    929           */

   \                                 In  segment BANKED_CODE, align 1, keep-with-next
    930          void osal_msg_enqueue( osal_msg_q_t *q_ptr, void *msg_ptr )
   \                     osal_msg_enqueue:
    931          {
   \   000000   74F7         MOV       A,#-0x9
   \   000002   12....       LCALL     ?BANKED_ENTER_XDATA
   \   000005                ; Saved register size: 9
   \   000005                ; Auto size: 0
   \   000005   EA           MOV       A,R2
   \   000006   FE           MOV       R6,A
   \   000007   EB           MOV       A,R3
   \   000008   FF           MOV       R7,A
    932            void *list;
    933            halIntState_t intState;
    934          
    935            // Hold off interrupts
    936            HAL_ENTER_CRITICAL_SECTION(intState);
   \   000009   A2AF         MOV       C,0xa8.7
   \   00000B   E4           CLR       A
   \   00000C   33           RLC       A
   \   00000D   FA           MOV       R2,A
   \   00000E   C2AF         CLR       0xa8.7
    937          
    938            OSAL_MSG_NEXT( msg_ptr ) = NULL;
   \   000010   12....       LCALL     ?Subroutine21 & 0xFFFF
   \                     ??CrossCallReturnLabel_68:
   \   000013   E4           CLR       A
   \   000014   F0           MOVX      @DPTR,A
   \   000015   A3           INC       DPTR
   \   000016   F0           MOVX      @DPTR,A
    939            // If first message in queue
    940            if ( *q_ptr == NULL )
   \   000017   800C         SJMP      ??osal_msg_enqueue_0
    941            {
    942              *q_ptr = msg_ptr;
    943            }
    944            else
    945            {
    946              // Find end of queue
    947              for ( list = *q_ptr; OSAL_MSG_NEXT( list ) != NULL; list = OSAL_MSG_NEXT( list ) );
   \                     ??osal_msg_enqueue_1:
   \   000019   E8           MOV       A,R0
   \   00001A   24FB         ADD       A,#-0x5
   \   00001C   F8           MOV       R0,A
   \   00001D   E9           MOV       A,R1
   \   00001E   34FF         ADDC      A,#-0x1
   \   000020   F9           MOV       R1,A
   \   000021   E8           MOV       A,R0
   \   000022   FE           MOV       R6,A
   \   000023   E9           MOV       A,R1
   \   000024   FF           MOV       R7,A
   \                     ??osal_msg_enqueue_0:
   \   000025   8E82         MOV       DPL,R6
   \   000027   8F83         MOV       DPH,R7
   \   000029   12....       LCALL     ??Subroutine28_0 & 0xFFFF
   \                     ??CrossCallReturnLabel_54:
   \   00002C   70EB         JNZ       ??osal_msg_enqueue_1
    948          
    949              // Add message to end of queue
    950              OSAL_MSG_NEXT( list ) = msg_ptr;
   \   00002E   8E82         MOV       DPL,R6
   \   000030   8F83         MOV       DPH,R7
   \   000032   EC           MOV       A,R4
   \   000033   F0           MOVX      @DPTR,A
   \   000034   A3           INC       DPTR
   \   000035   ED           MOV       A,R5
   \   000036   F0           MOVX      @DPTR,A
    951            }
    952          
    953            // Re-enable interrupts
    954            HAL_EXIT_CRITICAL_SECTION(intState);
   \   000037   EA           MOV       A,R2
   \   000038   80..         SJMP      ?Subroutine5
   \   00003A                REQUIRE _A_IEN0
    955          }
    956          
    957          /*********************************************************************
    958           * @fn      osal_msg_dequeue
    959           *
    960           * @brief
    961           *
    962           *    This function dequeues an OSAL message from an OSAL queue.
    963           *
    964           * @param   osal_msg_q_t *q_ptr - OSAL queue
    965           *
    966           * @return  void * - pointer to OSAL message or NULL of queue is empty.
    967           */

   \                                 In  segment BANKED_CODE, align 1, keep-with-next
    968          void *osal_msg_dequeue( osal_msg_q_t *q_ptr )
   \                     osal_msg_dequeue:
    969          {
   \   000000                REQUIRE ?V0
   \   000000                REQUIRE ?V1
   \   000000   74F6         MOV       A,#-0xa
   \   000002   12....       LCALL     ?BANKED_ENTER_XDATA
   \   000005                ; Saved register size: 10
   \   000005                ; Auto size: 0
   \   000005   EA           MOV       A,R2
   \   000006   FC           MOV       R4,A
   \   000007   EB           MOV       A,R3
   \   000008   FD           MOV       R5,A
    970            void *msg_ptr = NULL;
   \   000009   7A00         MOV       R2,#0x0
   \   00000B   7B00         MOV       R3,#0x0
    971            halIntState_t intState;
    972          
    973            // Hold off interrupts
    974            HAL_ENTER_CRITICAL_SECTION(intState);
   \   00000D   A2AF         MOV       C,0xa8.7
   \   00000F   E4           CLR       A
   \   000010   33           RLC       A
   \   000011   FE           MOV       R6,A
   \   000012   C2AF         CLR       0xa8.7
    975          
    976            if ( *q_ptr != NULL )
   \   000014   8C82         MOV       DPL,R4
   \   000016   8D83         MOV       DPH,R5
   \   000018   12....       LCALL     ??Subroutine28_0 & 0xFFFF
   \                     ??CrossCallReturnLabel_55:
   \   00001B   6030         JZ        ??osal_msg_dequeue_0
    977            {
    978              // Dequeue message
    979              msg_ptr = *q_ptr;
   \   00001D   E8           MOV       A,R0
   \   00001E   FA           MOV       R2,A
   \   00001F   E9           MOV       A,R1
   \   000020   FB           MOV       R3,A
    980              *q_ptr = OSAL_MSG_NEXT( msg_ptr );
   \   000021   EA           MOV       A,R2
   \   000022   24FB         ADD       A,#-0x5
   \   000024   F8           MOV       R0,A
   \   000025   EB           MOV       A,R3
   \   000026   34FF         ADDC      A,#-0x1
   \   000028   F9           MOV       R1,A
   \   000029   8882         MOV       DPL,R0
   \   00002B   8983         MOV       DPH,R1
   \   00002D   E0           MOVX      A,@DPTR
   \   00002E   F5..         MOV       ?V0,A
   \   000030   A3           INC       DPTR
   \   000031   E0           MOVX      A,@DPTR
   \   000032   F5..         MOV       ?V1,A
   \   000034   8C82         MOV       DPL,R4
   \   000036   8D83         MOV       DPH,R5
   \   000038   E5..         MOV       A,?V0
   \   00003A   F0           MOVX      @DPTR,A
   \   00003B   A3           INC       DPTR
   \   00003C   E5..         MOV       A,?V1
   \   00003E   F0           MOVX      @DPTR,A
    981              OSAL_MSG_NEXT( msg_ptr ) = NULL;
   \   00003F   8882         MOV       DPL,R0
   \   000041   8983         MOV       DPH,R1
   \   000043   E4           CLR       A
   \   000044   F0           MOVX      @DPTR,A
   \   000045   A3           INC       DPTR
   \   000046   F0           MOVX      @DPTR,A
    982              OSAL_MSG_ID( msg_ptr ) = TASK_NO_TASK;
   \   000047   12....       LCALL     ?Subroutine16 & 0xFFFF
    983            }
   \                     ??CrossCallReturnLabel_17:
   \   00004A   74FF         MOV       A,#-0x1
   \   00004C   F0           MOVX      @DPTR,A
    984          
    985            // Re-enable interrupts
    986            HAL_EXIT_CRITICAL_SECTION(intState);
   \                     ??osal_msg_dequeue_0:
   \   00004D   EE           MOV       A,R6
   \   00004E   A2E0         MOV       C,0xE0 /* A   */.0
   \   000050   92AF         MOV       0xa8.7,C
    987          
    988            return msg_ptr;
   \   000052                REQUIRE ?Subroutine3
   \   000052                REQUIRE _A_IEN0
   \   000052                ; // Fall through to label ?Subroutine3
    989          }
    990          
    991          /*********************************************************************
    992           * @fn      osal_msg_push
    993           *
    994           * @brief
    995           *
    996           *    This function pushes an OSAL message to the head of an OSAL
    997           *    queue.
    998           *
    999           * @param   osal_msg_q_t *q_ptr - OSAL queue
   1000           * @param   void *msg_ptr  - OSAL message
   1001           *
   1002           * @return  none
   1003           */

   \                                 In  segment BANKED_CODE, align 1, keep-with-next
   1004          void osal_msg_push( osal_msg_q_t *q_ptr, void *msg_ptr )
   \                     osal_msg_push:
   1005          {
   \   000000   74F7         MOV       A,#-0x9
   \   000002   12....       LCALL     ?BANKED_ENTER_XDATA
   \   000005                ; Saved register size: 9
   \   000005                ; Auto size: 0
   1006            halIntState_t intState;
   1007          
   1008            // Hold off interrupts
   1009            HAL_ENTER_CRITICAL_SECTION(intState);
   \   000005   A8A8         MOV       R0,0xa8+0x0
   \   000007   C2AF         CLR       0xa8.7
   1010          
   1011            // Push message to head of queue
   1012            OSAL_MSG_NEXT( msg_ptr ) = *q_ptr;
   \   000009   8A82         MOV       DPL,R2
   \   00000B   8B83         MOV       DPH,R3
   \   00000D   E0           MOVX      A,@DPTR
   \   00000E   FE           MOV       R6,A
   \   00000F   A3           INC       DPTR
   \   000010   E0           MOVX      A,@DPTR
   \   000011   FF           MOV       R7,A
   \   000012   12....       LCALL     ?Subroutine21 & 0xFFFF
   \                     ??CrossCallReturnLabel_69:
   \   000015   EE           MOV       A,R6
   \   000016   F0           MOVX      @DPTR,A
   \   000017   A3           INC       DPTR
   \   000018   EF           MOV       A,R7
   \   000019   F0           MOVX      @DPTR,A
   1013            *q_ptr = msg_ptr;
   \   00001A   8A82         MOV       DPL,R2
   \   00001C   8B83         MOV       DPH,R3
   \   00001E   EC           MOV       A,R4
   \   00001F   F0           MOVX      @DPTR,A
   \   000020   A3           INC       DPTR
   \   000021   ED           MOV       A,R5
   \   000022   F0           MOVX      @DPTR,A
   1014          
   1015            // Re-enable interrupts
   1016            HAL_EXIT_CRITICAL_SECTION(intState);
   \   000023   E8           MOV       A,R0
   \   000024   A2E7         MOV       C,0xE0 /* A   */.7
   \   000026   02....       LJMP      ??Subroutine26_0 & 0xFFFF
   \   000029                REQUIRE _A_IEN0
   1017          }
   1018          
   1019          /*********************************************************************
   1020           * @fn      osal_msg_extract
   1021           *
   1022           * @brief
   1023           *
   1024           *    This function extracts and removes an OSAL message from the
   1025           *    middle of an OSAL queue.
   1026           *
   1027           * @param   osal_msg_q_t *q_ptr - OSAL queue
   1028           * @param   void *msg_ptr  - OSAL message to be extracted
   1029           * @param   void *prev_ptr  - OSAL message before msg_ptr in queue
   1030           *
   1031           * @return  none
   1032           */

   \                                 In  segment BANKED_CODE, align 1, keep-with-next
   1033          void osal_msg_extract( osal_msg_q_t *q_ptr, void *msg_ptr, void *prev_ptr )
   \                     osal_msg_extract:
   1034          {
   \   000000                REQUIRE ?V0
   \   000000                REQUIRE ?V1
   \   000000                REQUIRE ?V2
   \   000000                REQUIRE ?V3
   \   000000   74F4         MOV       A,#-0xc
   \   000002   12....       LCALL     ?BANKED_ENTER_XDATA
   \   000005                ; Saved register size: 12
   \   000005                ; Auto size: 0
   1035            halIntState_t intState;
   1036          
   1037            // Hold off interrupts
   1038            HAL_ENTER_CRITICAL_SECTION(intState);
   \   000005   A2AF         MOV       C,0xa8.7
   \   000007   E4           CLR       A
   \   000008   33           RLC       A
   \   000009   FE           MOV       R6,A
   \   00000A   C2AF         CLR       0xa8.7
   1039          
   1040            if ( msg_ptr == *q_ptr )
   \   00000C   EC           MOV       A,R4
   \   00000D   24FB         ADD       A,#-0x5
   \   00000F   F8           MOV       R0,A
   \   000010   ED           MOV       A,R5
   \   000011   12....       LCALL     ?Subroutine20 & 0xFFFF
   \                     ??CrossCallReturnLabel_25:
   \   000014   E0           MOVX      A,@DPTR
   \   000015   F8           MOV       R0,A
   \   000016   A3           INC       DPTR
   \   000017   E0           MOVX      A,@DPTR
   \   000018   F9           MOV       R1,A
   \   000019   8A82         MOV       DPL,R2
   \   00001B   8B83         MOV       DPH,R3
   \   00001D   E0           MOVX      A,@DPTR
   \   00001E   F5..         MOV       ?V2,A
   \   000020   A3           INC       DPTR
   \   000021   E0           MOVX      A,@DPTR
   \   000022   F5..         MOV       ?V3,A
   \   000024   EC           MOV       A,R4
   \   000025   65..         XRL       A,?V2
   \   000027   7003         JNZ       ??osal_msg_extract_0
   \   000029   ED           MOV       A,R5
   \   00002A   65..         XRL       A,?V3
   \                     ??osal_msg_extract_0:
   \   00002C   7006         JNZ       ??osal_msg_extract_1
   1041            {
   1042              // remove from first
   1043              *q_ptr = OSAL_MSG_NEXT( msg_ptr );
   \   00002E   8A82         MOV       DPL,R2
   \   000030   8B83         MOV       DPH,R3
   \   000032   8012         SJMP      ??CrossCallReturnLabel_66
   1044            }
   1045            else
   1046            {
   1047              // remove from middle
   1048              OSAL_MSG_NEXT( prev_ptr ) = OSAL_MSG_NEXT( msg_ptr );
   \                     ??osal_msg_extract_1:
   \   000034   740C         MOV       A,#0xc
   \   000036   12....       LCALL     ?XSTACK_DISP0_8
   \   000039   E0           MOVX      A,@DPTR
   \   00003A   FA           MOV       R2,A
   \   00003B   A3           INC       DPTR
   \   00003C   E0           MOVX      A,@DPTR
   \   00003D   CA           XCH       A,R2
   \   00003E   24FB         ADD       A,#-0x5
   \   000040   F582         MOV       DPL,A
   \   000042   EA           MOV       A,R2
   \   000043   12....       LCALL     ??Subroutine29_0 & 0xFFFF
   1049            }
   \                     ??CrossCallReturnLabel_66:
   \   000046   E8           MOV       A,R0
   \   000047   F0           MOVX      @DPTR,A
   \   000048   A3           INC       DPTR
   \   000049   E9           MOV       A,R1
   \   00004A   F0           MOVX      @DPTR,A
   1050            OSAL_MSG_NEXT( msg_ptr ) = NULL;
   \   00004B   85..82       MOV       DPL,?V0
   \   00004E   85..83       MOV       DPH,?V1
   \   000051   E4           CLR       A
   \   000052   F0           MOVX      @DPTR,A
   \   000053   A3           INC       DPTR
   \   000054   F0           MOVX      @DPTR,A
   1051            OSAL_MSG_ID( msg_ptr ) = TASK_NO_TASK;
   \   000055   12....       LCALL     ?Subroutine17 & 0xFFFF
   \                     ??CrossCallReturnLabel_19:
   \   000058   74FF         MOV       A,#-0x1
   \   00005A   F0           MOVX      @DPTR,A
   1052          
   1053            // Re-enable interrupts
   1054            HAL_EXIT_CRITICAL_SECTION(intState);
   \   00005B   EE           MOV       A,R6
   \   00005C   A2E0         MOV       C,0xE0 /* A   */.0
   \   00005E   92AF         MOV       0xa8.7,C
   1055          }
   \   000060   02....       LJMP      ?Subroutine4 & 0xFFFF
   \   000063                REQUIRE _A_IEN0

   \                                 In  segment BANKED_CODE, align 1, keep-with-next
   \                     ?Subroutine20:
   \   000000   34FF         ADDC      A,#-0x1
   \   000002   F9           MOV       R1,A
   \   000003   88..         MOV       ?V0,R0
   \   000005   89..         MOV       ?V1,R1
   \   000007   8882         MOV       DPL,R0
   \   000009   F583         MOV       DPH,A
   \   00000B   22           RET
   1056          
   1057          /*********************************************************************
   1058           * @fn      osal_msg_enqueue_max
   1059           *
   1060           * @brief
   1061           *
   1062           *    This function enqueues an OSAL message into an OSAL queue if
   1063           *    the length of the queue is less than max.
   1064           *
   1065           * @param   osal_msg_q_t *q_ptr - OSAL queue
   1066           * @param   void *msg_ptr  - OSAL message
   1067           * @param   uint8 max - maximum length of queue
   1068           *
   1069           * @return  TRUE if message was enqueued, FALSE otherwise
   1070           */

   \                                 In  segment BANKED_CODE, align 1, keep-with-next
   1071          uint8 osal_msg_enqueue_max( osal_msg_q_t *q_ptr, void *msg_ptr, uint8 max )
   \                     osal_msg_enqueue_max:
   1072          {
   \   000000                REQUIRE ?V0
   \   000000                REQUIRE ?V1
   \   000000   74F6         MOV       A,#-0xa
   \   000002   12....       LCALL     ?BANKED_ENTER_XDATA
   \   000005                ; Saved register size: 10
   \   000005                ; Auto size: 0
   \   000005   8A..         MOV       ?V0,R2
   \   000007   8B..         MOV       ?V1,R3
   \   000009   E9           MOV       A,R1
   \   00000A   FE           MOV       R6,A
   1073            void *list;
   1074            uint8 ret = FALSE;
   \   00000B   7A00         MOV       R2,#0x0
   1075            halIntState_t intState;
   1076          
   1077            // Hold off interrupts
   1078            HAL_ENTER_CRITICAL_SECTION(intState);
   \   00000D   A2AF         MOV       C,0xa8.7
   \   00000F   E4           CLR       A
   \   000010   33           RLC       A
   \   000011   FB           MOV       R3,A
   \   000012   C2AF         CLR       0xa8.7
   1079          
   1080            // If first message in queue
   1081            if ( *q_ptr == NULL )
   \   000014   85..82       MOV       DPL,?V0
   \   000017   85..83       MOV       DPH,?V1
   \   00001A   12....       LCALL     ??Subroutine28_0 & 0xFFFF
   \                     ??CrossCallReturnLabel_56:
   \   00001D   7005         JNZ       ??osal_msg_enqueue_max_0
   1082            {
   1083              *q_ptr = msg_ptr;
   \   00001F   8014         SJMP      ??osal_msg_enqueue_max_1
   1084              ret = TRUE;
   1085            }
   1086            else
   1087            {
   1088              // Find end of queue or max
   1089              list = *q_ptr;
   1090              max--;
   1091              while ( (OSAL_MSG_NEXT( list ) != NULL) && (max > 0) )
   \                     ??osal_msg_enqueue_max_2:
   \   000021   EE           MOV       A,R6
   \   000022   601E         JZ        ??osal_msg_enqueue_max_3
   1092              {
   1093                list = OSAL_MSG_NEXT( list );
   1094                max--;
   \                     ??osal_msg_enqueue_max_0:
   \   000024   1E           DEC       R6
   1095              }
   \   000025   E8           MOV       A,R0
   \   000026   24FB         ADD       A,#-0x5
   \   000028   F8           MOV       R0,A
   \   000029   E9           MOV       A,R1
   \   00002A   12....       LCALL     ?Subroutine20 & 0xFFFF
   \                     ??CrossCallReturnLabel_26:
   \   00002D   12....       LCALL     ??Subroutine28_0 & 0xFFFF
   \                     ??CrossCallReturnLabel_57:
   \   000030   70EF         JNZ       ??osal_msg_enqueue_max_2
   1096          
   1097              // Add message to end of queue if max not reached
   1098              if ( max != 0 )
   \   000032   EE           MOV       A,R6
   \   000033   600D         JZ        ??osal_msg_enqueue_max_3
   1099              {
   1100                OSAL_MSG_NEXT( list ) = msg_ptr;
   \                     ??osal_msg_enqueue_max_1:
   \   000035   85..82       MOV       DPL,?V0
   \   000038   85..83       MOV       DPH,?V1
   \   00003B   EC           MOV       A,R4
   \   00003C   F0           MOVX      @DPTR,A
   \   00003D   A3           INC       DPTR
   \   00003E   ED           MOV       A,R5
   \   00003F   F0           MOVX      @DPTR,A
   1101                ret = TRUE;
   \   000040   7A01         MOV       R2,#0x1
   1102              }
   1103            }
   1104          
   1105            // Re-enable interrupts
   1106            HAL_EXIT_CRITICAL_SECTION(intState);
   \                     ??osal_msg_enqueue_max_3:
   \   000042   EB           MOV       A,R3
   \   000043   A2E0         MOV       C,0xE0 /* A   */.0
   \   000045   92AF         MOV       0xa8.7,C
   1107          
   1108            return ret;
   \   000047   EA           MOV       A,R2
   \   000048   F9           MOV       R1,A
   \   000049   02....       LJMP      ?Subroutine3 & 0xFFFF
   \   00004C                REQUIRE _A_IEN0
   1109          }
   1110          
   1111          /*********************************************************************
   1112           * @fn      osal_set_event
   1113           *
   1114           * @brief
   1115           *
   1116           *    This function is called to set the event flags for a task. The
   1117           *    event passed in is OR'd into the task's event variable.
   1118           *
   1119           * @param   uint8 task_id - receiving tasks ID
   1120           * @param   uint8 event_flag - what event to set
   1121           *
   1122           * @return  SUCCESS, MSG_BUFFER_NOT_AVAIL, FAILURE, INVALID_TASK
   1123           */
   1124          #ifdef OSAL_PORT2TIRTOS
   1125          uint8 osal_set_event_raw( uint8 task_id, uint16 event_flag )
   1126          #else /* OSAL_PORT2TIRTOS */

   \                                 In  segment BANKED_CODE, align 1, keep-with-next
   1127          uint8 osal_set_event( uint8 task_id, uint16 event_flag )
   \                     osal_set_event:
   1128          #endif /* OSAL_PORT2TIRTOS */
   1129          {
   \   000000   74F7         MOV       A,#-0x9
   \   000002   12....       LCALL     ?BANKED_ENTER_XDATA
   \   000005                ; Saved register size: 9
   \   000005                ; Auto size: 0
   \   000005   E9           MOV       A,R1
   \   000006   FE           MOV       R6,A
   1130          #ifdef USE_ICALL
   1131            if (task_id & OSAL_PROXY_ID_FLAG)
   1132            {
   1133              /* Destination is a proxy task */
   1134              osal_msg_hdr_t *hdr;
   1135              ICall_EntityID src, dst;
   1136              uint8 taskid;
   1137          
   1138              struct _osal_event_msg_t
   1139              {
   1140                uint16 signature;
   1141                uint16 event_flag;
   1142              } *msg_ptr = (struct _osal_event_msg_t *)
   1143                osal_msg_allocate(sizeof(*msg_ptr));
   1144          
   1145              if (!msg_ptr)
   1146              {
   1147                return MSG_BUFFER_NOT_AVAIL;
   1148              }
   1149              msg_ptr->signature = 0xffffu;
   1150              msg_ptr->event_flag = event_flag;
   1151              hdr = (osal_msg_hdr_t *)msg_ptr - 1;
   1152          
   1153              taskid = osal_self();
   1154              if (taskid == TASK_NO_TASK)
   1155              {
   1156                /* Call must have been made from either an ISR or a user-thread */
   1157                src = osal_notask_entity;
   1158              }
   1159              else
   1160              {
   1161                src = (ICall_EntityID) osal_dispatch_entities[taskid + tasksCnt];
   1162              }
   1163          
   1164              if (src == OSAL_INVALID_DISPATCH_ID)
   1165              {
   1166                /* The source entity is not registered */
   1167                osal_msg_deallocate((uint8 *) msg_ptr);
   1168                ICall_abort();
   1169                return FAILURE;
   1170              }
   1171              dst = osal_proxy2alien(task_id);
   1172              hdr->dest_id = TASK_NO_TASK;
   1173              if (ICall_send(src, dst,
   1174                             ICALL_MSG_FORMAT_KEEP, msg_ptr) ==
   1175                  ICALL_ERRNO_SUCCESS)
   1176              {
   1177                return SUCCESS;
   1178              }
   1179              osal_msg_deallocate((uint8 *) msg_ptr);
   1180              return FAILURE;
   1181            }
   1182          #endif /* USE_ICALL */
   1183          
   1184            if ( task_id < tasksCnt )
   \   000007   90....       MOV       DPTR,#tasksCnt
   \   00000A   E0           MOVX      A,@DPTR
   \   00000B   F8           MOV       R0,A
   \   00000C   EE           MOV       A,R6
   \   00000D   C3           CLR       C
   \   00000E   98           SUBB      A,R0
   \   00000F   5027         JNC       ??osal_set_event_0
   1185            {
   1186              halIntState_t   intState;
   1187              HAL_ENTER_CRITICAL_SECTION(intState);    // Hold off interrupts
   \   000011   ACA8         MOV       R4,0xa8+0x0
   \   000013   C2AF         CLR       0xa8.7
   1188              tasksEvents[task_id] |= event_flag;  // Stuff the event bit(s)
   \   000015   EE           MOV       A,R6
   \   000016   29           ADD       A,R1
   \   000017   F8           MOV       R0,A
   \   000018   E4           CLR       A
   \   000019   33           RLC       A
   \   00001A   F9           MOV       R1,A
   \   00001B   90....       MOV       DPTR,#tasksEvents
   \   00001E   E0           MOVX      A,@DPTR
   \   00001F   28           ADD       A,R0
   \   000020   FD           MOV       R5,A
   \   000021   A3           INC       DPTR
   \   000022   E0           MOVX      A,@DPTR
   \   000023   39           ADDC      A,R1
   \   000024   8D82         MOV       DPL,R5
   \   000026   F583         MOV       DPH,A
   \   000028   E0           MOVX      A,@DPTR
   \   000029   4A           ORL       A,R2
   \   00002A   F0           MOVX      @DPTR,A
   \   00002B   A3           INC       DPTR
   \   00002C   E0           MOVX      A,@DPTR
   \   00002D   4B           ORL       A,R3
   \   00002E   F0           MOVX      @DPTR,A
   1189              HAL_EXIT_CRITICAL_SECTION(intState);     // Release interrupts
   \   00002F   EC           MOV       A,R4
   \   000030   A2E7         MOV       C,0xE0 /* A   */.7
   \   000032   92AF         MOV       0xa8.7,C
   1190          #ifdef USE_ICALL
   1191              ICall_signal(osal_semaphore);
   1192          #endif /* USE_ICALL */
   1193              return ( SUCCESS );
   \   000034   7900         MOV       R1,#0x0
   \   000036   8002         SJMP      ??osal_set_event_1
   1194            }
   1195             else
   1196            {
   1197              return ( INVALID_TASK );
   \                     ??osal_set_event_0:
   \   000038   7903         MOV       R1,#0x3
   1198            }
   \                     ??osal_set_event_1:
   \   00003A   02....       LJMP      ??Subroutine27_0 & 0xFFFF
   \   00003D                REQUIRE _A_IEN0
   1199          }
   1200          
   1201          /*********************************************************************
   1202           * @fn      osal_clear_event
   1203           *
   1204           * @brief
   1205           *
   1206           *    This function is called to clear the event flags for a task. The
   1207           *    event passed in is masked out of the task's event variable.
   1208           *
   1209           * @param   uint8 task_id - receiving tasks ID
   1210           * @param   uint8 event_flag - what event to clear
   1211           *
   1212           * @return  SUCCESS, INVALID_TASK
   1213           */

   \                                 In  segment BANKED_CODE, align 1, keep-with-next
   1214          uint8 osal_clear_event( uint8 task_id, uint16 event_flag )
   \                     osal_clear_event:
   1215          {
   \   000000   74F7         MOV       A,#-0x9
   \   000002   12....       LCALL     ?BANKED_ENTER_XDATA
   \   000005                ; Saved register size: 9
   \   000005                ; Auto size: 0
   \   000005   E9           MOV       A,R1
   \   000006   FF           MOV       R7,A
   1216            if ( task_id < tasksCnt )
   \   000007   90....       MOV       DPTR,#tasksCnt
   \   00000A   E0           MOVX      A,@DPTR
   \   00000B   F8           MOV       R0,A
   \   00000C   EF           MOV       A,R7
   \   00000D   C3           CLR       C
   \   00000E   98           SUBB      A,R0
   \   00000F   501F         JNC       ??osal_clear_event_0
   1217            {
   1218              halIntState_t   intState;
   1219              HAL_ENTER_CRITICAL_SECTION(intState);    // Hold off interrupts
   \   000011   AEA8         MOV       R6,0xa8+0x0
   \   000013   C2AF         CLR       0xa8.7
   1220              tasksEvents[task_id] &= ~(event_flag);   // Clear the event bit(s)
   \   000015   EA           MOV       A,R2
   \   000016   F4           CPL       A
   \   000017   FC           MOV       R4,A
   \   000018   EB           MOV       A,R3
   \   000019   F4           CPL       A
   \   00001A   FD           MOV       R5,A
   \   00001B   EF           MOV       A,R7
   \   00001C   29           ADD       A,R1
   \   00001D   12....       LCALL     ?Subroutine11 & 0xFFFF
   \                     ??CrossCallReturnLabel_6:
   \   000020   E0           MOVX      A,@DPTR
   \   000021   5C           ANL       A,R4
   \   000022   F0           MOVX      @DPTR,A
   \   000023   A3           INC       DPTR
   \   000024   E0           MOVX      A,@DPTR
   \   000025   5D           ANL       A,R5
   \   000026   F0           MOVX      @DPTR,A
   1221              HAL_EXIT_CRITICAL_SECTION(intState);     // Release interrupts
   \   000027   EE           MOV       A,R6
   \   000028   A2E7         MOV       C,0xE0 /* A   */.7
   \   00002A   92AF         MOV       0xa8.7,C
   1222              return ( SUCCESS );
   \   00002C   7900         MOV       R1,#0x0
   \   00002E   8002         SJMP      ??osal_clear_event_1
   1223            }
   1224             else
   1225            {
   1226              return ( INVALID_TASK );
   \                     ??osal_clear_event_0:
   \   000030   7903         MOV       R1,#0x3
   1227            }
   \                     ??osal_clear_event_1:
   \   000032   02....       LJMP      ??Subroutine27_0 & 0xFFFF
   \   000035                REQUIRE _A_IEN0
   1228          }

   \                                 In  segment BANKED_CODE, align 1, keep-with-next
   \                     ?Subroutine11:
   \   000000   F8           MOV       R0,A
   \   000001   E4           CLR       A
   \   000002   33           RLC       A
   \   000003   F9           MOV       R1,A
   \   000004   90....       MOV       DPTR,#tasksEvents
   \   000007   E0           MOVX      A,@DPTR
   \   000008   28           ADD       A,R0
   \   000009   FA           MOV       R2,A
   \   00000A   A3           INC       DPTR
   \   00000B   E0           MOVX      A,@DPTR
   \   00000C   39           ADDC      A,R1
   \   00000D   8A82         MOV       DPL,R2
   \   00000F   F583         MOV       DPH,A
   \   000011   22           RET
   1229          
   1230          /*********************************************************************
   1231           * @fn      osal_isr_register
   1232           *
   1233           * @brief
   1234           *
   1235           *   This function is called to register a service routine with an
   1236           *   interrupt. When the interrupt occurs, this service routine is called.
   1237           *
   1238           * @param   uint8 interrupt_id - Interrupt number
   1239           * @param   void (*isr_ptr)( uint8* ) - function pointer to ISR
   1240           *
   1241           * @return  SUCCESS, INVALID_INTERRUPT_ID,
   1242           */

   \                                 In  segment BANKED_CODE, align 1, keep-with-next
   1243          uint8 osal_isr_register( uint8 interrupt_id, void (*isr_ptr)( uint8* ) )
   \                     osal_isr_register:
   1244          {
   \   000000                ; Saved register size: 0
   \   000000                ; Auto size: 0
   1245            // Remove these statements when functionality is complete
   1246            (void)interrupt_id;
   1247            (void)isr_ptr;
   1248            return ( SUCCESS );
   \   000000   7900         MOV       R1,#0x0
   \   000002   02....       LJMP      ?BRET
   1249          }
   1250          
   1251          /*********************************************************************
   1252           * @fn      osal_int_enable
   1253           *
   1254           * @brief
   1255           *
   1256           *   This function is called to enable an interrupt. Once enabled,
   1257           *   occurrence of the interrupt causes the service routine associated
   1258           *   with that interrupt to be called.
   1259           *
   1260           *   If INTS_ALL is the interrupt_id, interrupts (in general) are enabled.
   1261           *   If a single interrupt is passed in, then interrupts still have
   1262           *   to be enabled with another call to INTS_ALL.
   1263           *
   1264           * @param   uint8 interrupt_id - Interrupt number
   1265           *
   1266           * @return  SUCCESS or INVALID_INTERRUPT_ID
   1267           */

   \                                 In  segment BANKED_CODE, align 1, keep-with-next
   1268          uint8 osal_int_enable( uint8 interrupt_id )
   \                     osal_int_enable:
   1269          {
   \   000000                ; Saved register size: 0
   \   000000                ; Auto size: 0
   \   000000   E9           MOV       A,R1
   \   000001   F8           MOV       R0,A
   1270          
   1271            if ( interrupt_id == INTS_ALL )
   \   000002   74FF         MOV       A,#-0x1
   \   000004   68           XRL       A,R0
   \   000005   7006         JNZ       ??osal_int_enable_0
   1272            {
   1273              HAL_ENABLE_INTERRUPTS();
   \   000007   D2AF         SETB      0xa8.7
   1274              return ( SUCCESS );
   \   000009   7900         MOV       R1,#0x0
   \   00000B   8002         SJMP      ??osal_int_enable_1
   1275            }
   1276            else
   1277            {
   1278              return ( INVALID_INTERRUPT_ID );
   \                     ??osal_int_enable_0:
   \   00000D   7907         MOV       R1,#0x7
   \                     ??osal_int_enable_1:
   \   00000F   02....       LJMP      ?BRET
   \   000012                REQUIRE _A_IEN0
   1279            }
   1280          }
   1281          
   1282          /*********************************************************************
   1283           * @fn      osal_int_disable
   1284           *
   1285           * @brief
   1286           *
   1287           *   This function is called to disable an interrupt. When a disabled
   1288           *   interrupt occurs, the service routine associated with that
   1289           *   interrupt is not called.
   1290           *
   1291           *   If INTS_ALL is the interrupt_id, interrupts (in general) are disabled.
   1292           *   If a single interrupt is passed in, then just that interrupt is disabled.
   1293           *
   1294           * @param   uint8 interrupt_id - Interrupt number
   1295           *
   1296           * @return  SUCCESS or INVALID_INTERRUPT_ID
   1297           */

   \                                 In  segment BANKED_CODE, align 1, keep-with-next
   1298          uint8 osal_int_disable( uint8 interrupt_id )
   \                     osal_int_disable:
   1299          {
   \   000000                ; Saved register size: 0
   \   000000                ; Auto size: 0
   \   000000   E9           MOV       A,R1
   \   000001   F8           MOV       R0,A
   1300          
   1301            if ( interrupt_id == INTS_ALL )
   \   000002   74FF         MOV       A,#-0x1
   \   000004   68           XRL       A,R0
   \   000005   7006         JNZ       ??osal_int_disable_0
   1302            {
   1303              HAL_DISABLE_INTERRUPTS();
   \   000007   C2AF         CLR       0xa8.7
   1304              return ( SUCCESS );
   \   000009   7900         MOV       R1,#0x0
   \   00000B   8002         SJMP      ??osal_int_disable_1
   1305            }
   1306            else
   1307            {
   1308              return ( INVALID_INTERRUPT_ID );
   \                     ??osal_int_disable_0:
   \   00000D   7907         MOV       R1,#0x7
   \                     ??osal_int_disable_1:
   \   00000F   02....       LJMP      ?BRET
   \   000012                REQUIRE _A_IEN0
   1309            }
   1310          }
   1311          
   1312          /*********************************************************************
   1313           * @fn      osal_init_system
   1314           *
   1315           * @brief
   1316           *
   1317           *   This function initializes the "task" system by creating the
   1318           *   tasks defined in the task table (OSAL_Tasks.h).
   1319           *
   1320           * @param   void
   1321           *
   1322           * @return  SUCCESS
   1323           */

   \                                 In  segment BANKED_CODE, align 1, keep-with-next
   1324          uint8 osal_init_system( void )
   \                     osal_init_system:
   1325          {
   \   000000   C082         PUSH      DPL
   \   000002   C083         PUSH      DPH
   \   000004                ; Saved register size: 2
   \   000004                ; Auto size: 0
   1326          #if !defined USE_ICALL && !defined OSAL_PORT2TIRTOS
   1327            // Initialize the Memory Allocation System
   1328            osal_mem_init();
   \   000004                ; Setup parameters for call to function osal_mem_init
   \   000004   12....       LCALL     `??osal_mem_init::?relay`; Banked call to: osal_mem_init
   1329          #endif /* !defined USE_ICALL && !defined OSAL_PORT2TIRTOS */
   1330          
   1331            // Initialize the message queue
   1332            osal_qHead = NULL;
   \   000007   90....       MOV       DPTR,#osal_qHead
   \   00000A   E4           CLR       A
   \   00000B   F0           MOVX      @DPTR,A
   \   00000C   A3           INC       DPTR
   \   00000D   F0           MOVX      @DPTR,A
   1333          
   1334            // Initialize the timers
   1335            osalTimerInit();
   \   00000E                ; Setup parameters for call to function osalTimerInit
   \   00000E   12....       LCALL     `??osalTimerInit::?relay`; Banked call to: osalTimerInit
   1336          
   1337            // Initialize the Power Management System
   1338            osal_pwrmgr_init();
   \   000011                ; Setup parameters for call to function osal_pwrmgr_init
   \   000011   12....       LCALL     `??osal_pwrmgr_init::?relay`; Banked call to: osal_pwrmgr_init
   1339          
   1340          #ifdef USE_ICALL
   1341            /* Prepare memory space for service enrollment */
   1342            osal_prepare_svc_enroll();
   1343          #endif /* USE_ICALL */
   1344          
   1345            // Initialize the system tasks.
   1346            osalInitTasks();
   \   000014                ; Setup parameters for call to function osalInitTasks
   \   000014   12....       LCALL     `??osalInitTasks::?relay`; Banked call to: osalInitTasks
   1347          
   1348          #if !defined USE_ICALL && !defined OSAL_PORT2TIRTOS
   1349            // Setup efficient search for the first free block of heap.
   1350            osal_mem_kick();
   \   000017                ; Setup parameters for call to function osal_mem_kick
   \   000017   12....       LCALL     `??osal_mem_kick::?relay`; Banked call to: osal_mem_kick
   1351          #endif /* !defined USE_ICALL && !defined OSAL_PORT2TIRTOS */
   1352          
   1353          #ifdef USE_ICALL
   1354            // Initialize variables used to track timing and provide OSAL timer service
   1355            osal_last_timestamp = (uint_least32_t) ICall_getTicks();
   1356            osal_tickperiod = (uint_least32_t) ICall_getTickPeriod();
   1357            osal_max_msecs = (uint_least32_t) ICall_getMaxMSecs();
   1358            /* Reduce ceiling considering potential latency */
   1359            osal_max_msecs -= 2;
   1360          #endif /* USE_ICALL */
   1361          
   1362            return ( SUCCESS );
   \   00001A   7900         MOV       R1,#0x0
   \   00001C   02....       LJMP      ?Subroutine0 & 0xFFFF
   1363          }
   1364          
   1365          /*********************************************************************
   1366           * @fn      osal_start_system
   1367           *
   1368           * @brief
   1369           *
   1370           *   This function is the main loop function of the task system (if
   1371           *   ZBIT and UBIT are not defined). This Function doesn't return.
   1372           *
   1373           * @param   void
   1374           *
   1375           * @return  none
   1376           */

   \                                 In  segment BANKED_CODE, align 1, keep-with-next
   1377          void osal_start_system( void )
   \                     osal_start_system:
   1378          {
   \   000000   C082         PUSH      DPL
   \   000002   C083         PUSH      DPH
   \   000004                ; Saved register size: 2
   \   000004                ; Auto size: 0
   1379          #ifdef USE_ICALL
   1380            /* Kick off timer service in order to allocate resources upfront.
   1381             * The first timeout is required to schedule next OSAL timer event
   1382             * as well. */
   1383            ICall_Errno errno = ICall_setTimer(1, osal_msec_timer_cback,
   1384                                               (void *) osal_msec_timer_seq,
   1385                                               &osal_timerid_msec_timer);
   1386            if (errno != ICALL_ERRNO_SUCCESS)
   1387            {
   1388              ICall_abort();
   1389            }
   1390          #endif /* USE_ICALL */
   1391          
   1392          #if !defined ( ZBIT ) && !defined ( UBIT )
   1393            for(;;)  // Forever Loop
   1394          #endif
   1395            {
   1396              osal_run_system();
   \                     ??osal_start_system_0:
   \   000004                ; Setup parameters for call to function osal_run_system
   \   000004   12....       LCALL     `??osal_run_system::?relay`; Banked call to: osal_run_system
   \   000007   80FB         SJMP      ??osal_start_system_0
   1397          
   1398          #ifdef USE_ICALL
   1399              ICall_wait(ICALL_TIMEOUT_FOREVER);
   1400          #endif /* USE_ICALL */
   1401            }
   1402          }
   1403          
   1404          #ifdef USE_ICALL
   1405          /*********************************************************************
   1406           * @fn      osal_alien2proxy
   1407           *
   1408           * @brief
   1409           *
   1410           *   Assign or retrieve a proxy OSAL task id for an external ICall entity.
   1411           *
   1412           * @param   origid  ICall entity id
   1413           *
   1414           * @return  proxy OSAL task id
   1415           */
   1416          static uint8 osal_alien2proxy(ICall_EntityID origid)
   1417          {
   1418            size_t i;
   1419          
   1420            for (i = 0; i < OSAL_MAX_NUM_PROXY_TASKS; i++)
   1421            {
   1422              if (osal_proxy_tasks[i] == OSAL_INVALID_DISPATCH_ID)
   1423              {
   1424                /* proxy not found. Create a new one */
   1425                osal_proxy_tasks[i] = (uint8) origid;
   1426                return (OSAL_PROXY_ID_FLAG | i);
   1427              }
   1428              else if ((ICall_EntityID) osal_proxy_tasks[i] == origid)
   1429              {
   1430                return (OSAL_PROXY_ID_FLAG | i);
   1431              }
   1432            }
   1433            /* abort */
   1434            ICall_abort();
   1435            return TASK_NO_TASK;
   1436          }
   1437          
   1438          /*********************************************************************
   1439           * @fn      osal_proxy2alien
   1440           *
   1441           * @brief
   1442           *
   1443           *   Retrieve the ICall entity id for a proxy OSAL task id
   1444           *
   1445           * @param   proxyid  Proxy OSAL task id
   1446           *
   1447           * @return  ICall entity id
   1448           */
   1449          static ICall_EntityID osal_proxy2alien(uint8 proxyid)
   1450          {
   1451            proxyid ^= OSAL_PROXY_ID_FLAG;
   1452            if (proxyid >= OSAL_MAX_NUM_PROXY_TASKS)
   1453            {
   1454              /* abort */
   1455              ICall_abort();
   1456            }
   1457            return (ICall_EntityID) osal_proxy_tasks[proxyid];
   1458          }
   1459          
   1460          /*********************************************************************
   1461           * @fn      osal_dispatch2id
   1462           *
   1463           * @brief
   1464           *
   1465           *   Retrieve OSAL task id mapped to a designated ICall entity id
   1466           *
   1467           * @param   entity  ICall entity id
   1468           *
   1469           * @return  OSAL task id
   1470           */
   1471          static uint8 osal_dispatch2id(ICall_EntityID entity)
   1472          {
   1473            size_t i;
   1474          
   1475            for (i = 0; i < tasksCnt; i++)
   1476            {
   1477              if ((ICall_EntityID) osal_dispatch_entities[i] == entity)
   1478              {
   1479                return i;
   1480              }
   1481            }
   1482            return TASK_NO_TASK;
   1483          }
   1484          
   1485          /*********************************************************************
   1486           * @fn      osal_msec_timer_cback
   1487           *
   1488           * @brief
   1489           *
   1490           *   This function is a callback function for ICall_setTimer() service
   1491           *   used to implement OSAL timer
   1492           *
   1493           * @param   arg  In this case, the timer sequence number is passed.
   1494           *
   1495           * @return  None
   1496           */
   1497          static void osal_msec_timer_cback(void *arg)
   1498          {
   1499            unsigned seq = (unsigned) arg;
   1500            halIntState_t intState;
   1501          
   1502            HAL_ENTER_CRITICAL_SECTION(intState);
   1503            if (seq == osal_msec_timer_seq)
   1504            {
   1505              ICall_signal(osal_semaphore);
   1506            }
   1507            HAL_EXIT_CRITICAL_SECTION(intState);
   1508          }
   1509          
   1510          /*********************************************************************
   1511           * @fn      osal_service_entry
   1512           *
   1513           * @brief
   1514           *
   1515           *   This function is service function for messaging service
   1516           *
   1517           * @param   args  arguments.
   1518           *
   1519           * @return  ICall error code
   1520           */
   1521          ICall_Errno osal_service_entry(ICall_FuncArgsHdr *args)
   1522          {
   1523            if (args->func == ICALL_MSG_FUNC_GET_LOCAL_MSG_ENTITY_ID)
   1524            {
   1525              /* Get proxy ID */
   1526              ((ICall_GetLocalMsgEntityIdArgs *)args)->localId =
   1527                osal_alien2proxy(((ICall_GetLocalMsgEntityIdArgs *)args)->entity);
   1528              if (((ICall_GetLocalMsgEntityIdArgs *)args)->localId == TASK_NO_TASK)
   1529              {
   1530                return ICALL_ERRNO_NO_RESOURCE;
   1531              }
   1532            }
   1533            else
   1534            {
   1535              return ICALL_ERRNO_INVALID_FUNCTION;
   1536            }
   1537            return ICALL_ERRNO_SUCCESS;
   1538          }
   1539          #endif /* USE_ICALL */
   1540          
   1541          /*********************************************************************
   1542           * @fn      osal_run_system
   1543           *
   1544           * @brief
   1545           *
   1546           *   This function will make one pass through the OSAL taskEvents table
   1547           *   and call the task_event_processor() function for the first task that
   1548           *   is found with at least one event pending. If there are no pending
   1549           *   events (all tasks), this function puts the processor into Sleep.
   1550           *
   1551           * @param   void
   1552           *
   1553           * @return  none
   1554           */

   \                                 In  segment BANKED_CODE, align 1, keep-with-next
   1555          void osal_run_system( void )
   \                     osal_run_system:
   1556          {
   \   000000                REQUIRE ?V0
   \   000000                REQUIRE ?V1
   \   000000   74F6         MOV       A,#-0xa
   \   000002   12....       LCALL     ?BANKED_ENTER_XDATA
   \   000005                ; Saved register size: 10
   \   000005                ; Auto size: 0
   1557            uint8 idx = 0;
   \   000005   75..00       MOV       ?V0,#0x0
   1558          
   1559          #ifdef USE_ICALL
   1560            uint32 next_timeout_prior = osal_next_timeout();
   1561          #else /* USE_ICALL */
   1562          #ifndef HAL_BOARD_CC2538
   1563            osalTimeUpdate();
   \   000008                ; Setup parameters for call to function osalTimeUpdate
   \   000008   12....       LCALL     `??osalTimeUpdate::?relay`; Banked call to: osalTimeUpdate
   1564          #endif
   1565          
   1566            Hal_ProcessPoll();
   \   00000B                ; Setup parameters for call to function Hal_ProcessPoll
   \   00000B   12....       LCALL     `??Hal_ProcessPoll::?relay`; Banked call to: Hal_ProcessPoll
   1567          #endif /* USE_ICALL */
   1568          
   1569          #ifdef USE_ICALL
   1570            {
   1571              /* Update osal timers to the latest before running any OSAL processes
   1572               * regardless of wakeup callback from ICall because OSAL timers are added
   1573               * relative to the current time. */
   1574              unsigned long newtimestamp = ICall_getTicks();
   1575              uint32 milliseconds;
   1576          
   1577              if (osal_tickperiod == 1000)
   1578              {
   1579                milliseconds = newtimestamp - osal_last_timestamp;
   1580                osal_last_timestamp = newtimestamp;
   1581              }
   1582              else
   1583              {
   1584                unsigned long long delta = (unsigned long long)
   1585                  ((newtimestamp - osal_last_timestamp) & 0xfffffffful);
   1586                delta *= osal_tickperiod;
   1587                delta /= 1000;
   1588                milliseconds = (uint32) delta;
   1589                osal_last_timestamp += (uint32) (delta * 1000 / osal_tickperiod);
   1590              }
   1591              osalAdjustTimer(milliseconds);
   1592              /* Set a value that will never match osal_next_timeout()
   1593               * return value so that the next time can be scheduled.
   1594               */
   1595              next_timeout_prior = 0xfffffffful;
   1596            }
   1597            if (osal_eventloop_hook)
   1598            {
   1599              osal_eventloop_hook();
   1600            }
   1601          
   1602            for (;;)
   1603            {
   1604              void *msg;
   1605              ICall_EntityID src, dst;
   1606              osal_msg_hdr_t *hdr;
   1607              uint8 dest_id;
   1608          
   1609              if (ICall_fetchMsg(&src, &dst, &msg) != ICALL_ERRNO_SUCCESS)
   1610              {
   1611                break;
   1612              }
   1613              hdr = (osal_msg_hdr_t *) msg - 1;
   1614              dest_id = osal_dispatch2id(dst);
   1615              if (dest_id == TASK_NO_TASK)
   1616              {
   1617                /* Something wrong */
   1618                ICall_abort();
   1619              }
   1620              else
   1621              {
   1622                /* Message towards one of the tasks */
   1623                /* Create a proxy task ID if necessary and
   1624                 * queue the message to the OSAL internal queue.
   1625                 */
   1626                uint8 proxyid = osal_alien2proxy(hdr->srcentity);
   1627          
   1628                if (hdr->format == ICALL_MSG_FORMAT_1ST_CHAR_TASK_ID)
   1629                {
   1630                  uint8 *bytes = msg;
   1631                  *bytes = proxyid;
   1632                }
   1633                else if (hdr->format == ICALL_MSG_FORMAT_3RD_CHAR_TASK_ID)
   1634                {
   1635                  uint8 *bytes = msg;
   1636                  bytes[2] = proxyid;
   1637                }
   1638                /* now queue the message to the OSAL queue */
   1639                osal_msg_send(dest_id, msg);
   1640              }
   1641            }
   1642          #endif /* USE_ICALL */
   1643          
   1644            do {
   1645              if (tasksEvents[idx])  // Task is highest priority that is ready.
   \                     ??osal_run_system_0:
   \   00000E   A8..         MOV       R0,?V0
   \   000010   E8           MOV       A,R0
   \   000011   28           ADD       A,R0
   \   000012   12....       LCALL     ?Subroutine11 & 0xFFFF
   1646              {
   1647                break;
   1648              }
   1649            } while (++idx < tasksCnt);
   \                     ??CrossCallReturnLabel_7:
   \   000015   12....       LCALL     ??Subroutine28_0 & 0xFFFF
   \                     ??CrossCallReturnLabel_58:
   \   000018   700D         JNZ       ??osal_run_system_1
   \   00001A   05..         INC       ?V0
   \   00001C   90....       MOV       DPTR,#tasksCnt
   \   00001F   E0           MOVX      A,@DPTR
   \   000020   F8           MOV       R0,A
   \   000021   E5..         MOV       A,?V0
   \   000023   C3           CLR       C
   \   000024   98           SUBB      A,R0
   \   000025   40E7         JC        ??osal_run_system_0
   1650          
   1651            if (idx < tasksCnt)
   \                     ??osal_run_system_1:
   \   000027   90....       MOV       DPTR,#tasksCnt
   \   00002A   E0           MOVX      A,@DPTR
   \   00002B   F8           MOV       R0,A
   \   00002C   E5..         MOV       A,?V0
   \   00002E   C3           CLR       C
   \   00002F   98           SUBB      A,R0
   \   000030   5064         JNC       ??osal_run_system_2
   1652            {
   1653              uint16 events;
   1654              halIntState_t intState;
   1655          
   1656              HAL_ENTER_CRITICAL_SECTION(intState);
   \   000032   ACA8         MOV       R4,0xa8+0x0
   \   000034   C2AF         CLR       0xa8.7
   1657              events = tasksEvents[idx];
   \   000036   AE..         MOV       R6,?V0
   \   000038   EE           MOV       A,R6
   \   000039   2E           ADD       A,R6
   \   00003A   FE           MOV       R6,A
   \   00003B   E4           CLR       A
   \   00003C   33           RLC       A
   \   00003D   FF           MOV       R7,A
   \   00003E   90....       MOV       DPTR,#tasksEvents
   \   000041   E0           MOVX      A,@DPTR
   \   000042   2E           ADD       A,R6
   \   000043   F8           MOV       R0,A
   \   000044   A3           INC       DPTR
   \   000045   E0           MOVX      A,@DPTR
   \   000046   3F           ADDC      A,R7
   \   000047   F9           MOV       R1,A
   \   000048   8882         MOV       DPL,R0
   \   00004A   8983         MOV       DPH,R1
   \   00004C   12....       LCALL     ??Subroutine25_0 & 0xFFFF
   1658              tasksEvents[idx] = 0;  // Clear the Events for this task.
   \                     ??CrossCallReturnLabel_48:
   \   00004F   8882         MOV       DPL,R0
   \   000051   8983         MOV       DPH,R1
   \   000053   E4           CLR       A
   \   000054   F0           MOVX      @DPTR,A
   \   000055   A3           INC       DPTR
   \   000056   F0           MOVX      @DPTR,A
   1659              HAL_EXIT_CRITICAL_SECTION(intState);
   \   000057   EC           MOV       A,R4
   \   000058   A2E7         MOV       C,0xE0 /* A   */.7
   \   00005A   92AF         MOV       0xa8.7,C
   1660          
   1661              activeTaskID = idx;
   \   00005C   E5..         MOV       A,?V0
   \   00005E   90....       MOV       DPTR,#activeTaskID
   \   000061   F0           MOVX      @DPTR,A
   1662              events = (tasksArr[idx])( idx, events );
   \   000062                ; Setup parameters for indirect call
   \   000062   F9           MOV       R1,A
   \   000063   74..         MOV       A,#tasksArr & 0xff
   \   000065   2E           ADD       A,R6
   \   000066   F582         MOV       DPL,A
   \   000068   74..         MOV       A,#(tasksArr >> 8) & 0xff
   \   00006A   3F           ADDC      A,R7
   \   00006B   F583         MOV       DPH,A
   \   00006D   12....       LCALL     ?Subroutine12 & 0xFFFF
   \                     ??CrossCallReturnLabel_9:
   \   000070   12....       LCALL     ?CALL_IND
   1663              activeTaskID = TASK_NO_TASK;
   \   000073   90....       MOV       DPTR,#activeTaskID
   \   000076   74FF         MOV       A,#-0x1
   \   000078   F0           MOVX      @DPTR,A
   1664          
   1665              HAL_ENTER_CRITICAL_SECTION(intState);
   \   000079   A8A8         MOV       R0,0xa8+0x0
   \   00007B   C2AF         CLR       0xa8.7
   1666              tasksEvents[idx] |= events;  // Add back unprocessed events to the current task.
   \   00007D   90....       MOV       DPTR,#tasksEvents
   \   000080   E0           MOVX      A,@DPTR
   \   000081   2E           ADD       A,R6
   \   000082   F9           MOV       R1,A
   \   000083   A3           INC       DPTR
   \   000084   E0           MOVX      A,@DPTR
   \   000085   3F           ADDC      A,R7
   \   000086   8982         MOV       DPL,R1
   \   000088   F583         MOV       DPH,A
   \   00008A   E0           MOVX      A,@DPTR
   \   00008B   4A           ORL       A,R2
   \   00008C   F0           MOVX      @DPTR,A
   \   00008D   A3           INC       DPTR
   \   00008E   E0           MOVX      A,@DPTR
   \   00008F   4B           ORL       A,R3
   \   000090   F0           MOVX      @DPTR,A
   1667              HAL_EXIT_CRITICAL_SECTION(intState);
   \   000091   E8           MOV       A,R0
   \   000092   A2E7         MOV       C,0xE0 /* A   */.7
   \   000094   92AF         MOV       0xa8.7,C
   1668            }
   1669          #if defined( POWER_SAVING ) && !defined(USE_ICALL)
   1670            else  // Complete pass through all task events with no activity?
   1671            {
   1672              osal_pwrmgr_powerconserve();  // Put the processor/system into sleep
   1673            }
   1674          #endif
   1675          
   1676            /* Yield in case cooperative scheduling is being used. */
   1677          #if defined (configUSE_PREEMPTION) && (configUSE_PREEMPTION == 0)
   1678            {
   1679              osal_task_yield();
   1680            }
   1681          #endif
   1682          
   1683          #if defined USE_ICALL
   1684            /* Note that scheduling wakeup at this point instead of
   1685             * scheduling it upon ever OSAL start timer request,
   1686             * would only work if OSAL start timer call is made
   1687             * from OSAL tasks, but not from either ISR or
   1688             * non-OSAL application thread.
   1689             * In case, OSAL start timer is called from non-OSAL
   1690             * task, the scheduling should be part of OSAL_Timers
   1691             * module.
   1692             * Such a change to OSAL_Timers module was not made
   1693             * in order not to diverge the OSAL implementations
   1694             * too drastically between pure OSAL solution vs.
   1695             * OSAL upon service dispatcher (RTOS).
   1696             * TODO: reconsider the above statement.
   1697             */
   1698            {
   1699              halIntState_t intState;
   1700          
   1701              uint32 next_timeout_post = osal_next_timeout();
   1702              if (next_timeout_post != next_timeout_prior)
   1703              {
   1704                /* Next wakeup time has to be scheduled */
   1705                if (next_timeout_post == 0)
   1706                {
   1707                  /* No timer. Set time to the max */
   1708                  next_timeout_post = OSAL_TIMERS_MAX_TIMEOUT;
   1709                }
   1710                if (next_timeout_post > osal_max_msecs)
   1711                {
   1712                  next_timeout_post = osal_max_msecs;
   1713                }
   1714                /* Restart timer */
   1715                HAL_ENTER_CRITICAL_SECTION(intState);
   1716                ICall_stopTimer(osal_timerid_msec_timer);
   1717                ICall_setTimerMSecs(next_timeout_post, osal_msec_timer_cback,
   1718                                    (void *) (++osal_msec_timer_seq),
   1719                                    &osal_timerid_msec_timer);
   1720                HAL_EXIT_CRITICAL_SECTION(intState);
   1721              }
   1722            }
   1723          #endif /* USE_ICALL */
   1724          }
   \                     ??osal_run_system_2:
   \   000096   02....       LJMP      ?Subroutine3 & 0xFFFF
   \   000099                REQUIRE _A_IEN0
   1725          
   1726          /*********************************************************************
   1727           * @fn      osal_buffer_uint32
   1728           *
   1729           * @brief
   1730           *
   1731           *   Buffer an uint32 value - LSB first.
   1732           *
   1733           * @param   buf - buffer
   1734           * @param   val - uint32 value
   1735           *
   1736           * @return  pointer to end of destination buffer
   1737           */

   \                                 In  segment BANKED_CODE, align 1, keep-with-next
   1738          uint8* osal_buffer_uint32( uint8 *buf, uint32 val )
   \                     osal_buffer_uint32:
   1739          {
   \   000000                REQUIRE ?V0
   \   000000                REQUIRE ?V1
   \   000000                REQUIRE ?V2
   \   000000                REQUIRE ?V3
   \   000000                REQUIRE ?V4
   \   000000                REQUIRE ?V5
   \   000000                REQUIRE ?V6
   \   000000                REQUIRE ?V7
   \   000000   74F0         MOV       A,#-0x10
   \   000002   12....       LCALL     ?BANKED_ENTER_XDATA
   \   000005                ; Saved register size: 16
   \   000005                ; Auto size: 0
   \   000005   7410         MOV       A,#0x10
   \   000007   12....       LCALL     ?XSTACK_DISP0_8
   \   00000A   78..         MOV       R0,#?V4
   \   00000C   12....       LCALL     ?L_MOV_X
   1740            *buf++ = BREAK_UINT32( val, 0 );
   \   00000F   12....       LCALL     ?Subroutine18 & 0xFFFF
   1741            *buf++ = BREAK_UINT32( val, 1 );
   1742            *buf++ = BREAK_UINT32( val, 2 );
   \                     ??CrossCallReturnLabel_20:
   \   000012   85....       MOV       ?V0,?V4
   \   000015   85....       MOV       ?V2,?V6
   \   000018   85....       MOV       ?V3,?V7
   \   00001B   7410         MOV       A,#0x10
   \   00001D   78..         MOV       R0,#?V0
   \   00001F   12....       LCALL     ?UL_SHR
   \   000022   8A82         MOV       DPL,R2
   \   000024   8B83         MOV       DPH,R3
   \   000026   A3           INC       DPTR
   \   000027   A3           INC       DPTR
   \   000028   E5..         MOV       A,?V0
   \   00002A   F0           MOVX      @DPTR,A
   1743            *buf++ = BREAK_UINT32( val, 3 );
   \   00002B   7418         MOV       A,#0x18
   \   00002D   78..         MOV       R0,#?V4
   \   00002F   12....       LCALL     ?UL_SHR
   \   000032   8A82         MOV       DPL,R2
   \   000034   8B83         MOV       DPH,R3
   \   000036   A3           INC       DPTR
   \   000037   A3           INC       DPTR
   \   000038   A3           INC       DPTR
   \   000039   E5..         MOV       A,?V4
   \   00003B   F0           MOVX      @DPTR,A
   1744          
   1745            return buf;
   \   00003C   EA           MOV       A,R2
   \   00003D   2404         ADD       A,#0x4
   \   00003F   FA           MOV       R2,A
   \   000040   5001         JNC       ??osal_buffer_uint32_0
   \   000042   0B           INC       R3
   \                     ??osal_buffer_uint32_0:
   \   000043                REQUIRE ?Subroutine2
   \   000043                ; // Fall through to label ?Subroutine2
   1746          }

   \                                 In  segment BANKED_CODE, align 1, keep-with-next
   \                     ?Subroutine18:
   \   000000   8A82         MOV       DPL,R2
   \   000002   8B83         MOV       DPH,R3
   \   000004   E5..         MOV       A,?V4
   \   000006   F0           MOVX      @DPTR,A
   \   000007   85....       MOV       ?V1,?V5
   \   00000A   E5..         MOV       A,?V1
   \   00000C   A3           INC       DPTR
   \   00000D   F0           MOVX      @DPTR,A
   \   00000E   22           RET
   1747          
   1748          /*********************************************************************
   1749           * @fn      osal_buffer_uint24
   1750           *
   1751           * @brief
   1752           *
   1753           *   Buffer an uint24 value - LSB first. Note that type uint24 is
   1754           *   typedef to uint32 in comdef.h
   1755           *
   1756           * @param   buf - buffer
   1757           * @param   val - uint24 value
   1758           *
   1759           * @return  pointer to end of destination buffer
   1760           */

   \                                 In  segment BANKED_CODE, align 1, keep-with-next
   1761          uint8* osal_buffer_uint24( uint8 *buf, uint24 val )
   \                     osal_buffer_uint24:
   1762          {
   \   000000                REQUIRE ?V0
   \   000000                REQUIRE ?V1
   \   000000                REQUIRE ?V4
   \   000000                REQUIRE ?V5
   \   000000                REQUIRE ?V6
   \   000000                REQUIRE ?V7
   \   000000   74F0         MOV       A,#-0x10
   \   000002   12....       LCALL     ?BANKED_ENTER_XDATA
   \   000005                ; Saved register size: 16
   \   000005                ; Auto size: 0
   \   000005   7410         MOV       A,#0x10
   \   000007   12....       LCALL     ?XSTACK_DISP0_8
   \   00000A   78..         MOV       R0,#?V4
   \   00000C   12....       LCALL     ?L_MOV_X
   1763            *buf++ = BREAK_UINT32( val, 0 );
   \   00000F   12....       LCALL     ?Subroutine18 & 0xFFFF
   1764            *buf++ = BREAK_UINT32( val, 1 );
   1765            *buf++ = BREAK_UINT32( val, 2 );
   \                     ??CrossCallReturnLabel_21:
   \   000012   7410         MOV       A,#0x10
   \   000014   78..         MOV       R0,#?V4
   \   000016   12....       LCALL     ?UL_SHR
   \   000019   8A82         MOV       DPL,R2
   \   00001B   8B83         MOV       DPH,R3
   \   00001D   A3           INC       DPTR
   \   00001E   A3           INC       DPTR
   \   00001F   E5..         MOV       A,?V4
   \   000021   F0           MOVX      @DPTR,A
   1766          
   1767            return buf;
   \   000022   EA           MOV       A,R2
   \   000023   2403         ADD       A,#0x3
   \   000025   FA           MOV       R2,A
   \   000026   5001         JNC       ??osal_buffer_uint24_0
   \   000028   0B           INC       R3
   \                     ??osal_buffer_uint24_0:
   \   000029   80..         SJMP      ?Subroutine2
   1768          }
   1769          
   1770          /*********************************************************************
   1771           * @fn      osal_isbufset
   1772           *
   1773           * @brief
   1774           *
   1775           *   Is all of the array elements set to a value?
   1776           *
   1777           * @param   buf - buffer to check
   1778           * @param   val - value to check each array element for
   1779           * @param   len - length to check
   1780           *
   1781           * @return  TRUE if all "val"
   1782           *          FALSE otherwise
   1783           */

   \                                 In  segment BANKED_CODE, align 1, keep-with-next
   1784          uint8 osal_isbufset( uint8 *buf, uint8 val, uint8 len )
   \                     osal_isbufset:
   1785          {
   \   000000   74F7         MOV       A,#-0x9
   \   000002   12....       LCALL     ?BANKED_ENTER_XDATA
   \   000005                ; Saved register size: 9
   \   000005                ; Auto size: 0
   \   000005   E9           MOV       A,R1
   \   000006   FD           MOV       R5,A
   1786            uint8 x;
   1787          
   1788            if ( buf == NULL )
   \   000007   EA           MOV       A,R2
   \   000008   4B           ORL       A,R3
   \   000009   6018         JZ        ??osal_isbufset_0
   1789            {
   1790              return ( FALSE );
   1791            }
   1792          
   1793            for ( x = 0; x < len; x++ )
   \   00000B   7800         MOV       R0,#0x0
   \   00000D   8001         SJMP      ??osal_isbufset_1
   \                     ??osal_isbufset_2:
   \   00000F   08           INC       R0
   \                     ??osal_isbufset_1:
   \   000010   E8           MOV       A,R0
   \   000011   C3           CLR       C
   \   000012   9C           SUBB      A,R4
   \   000013   5012         JNC       ??osal_isbufset_3
   1794            {
   1795              // Check for non-initialized value
   1796              if ( buf[x] != val )
   \   000015   E8           MOV       A,R0
   \   000016   FE           MOV       R6,A
   \   000017   EA           MOV       A,R2
   \   000018   2E           ADD       A,R6
   \   000019   F582         MOV       DPL,A
   \   00001B   E4           CLR       A
   \   00001C   3B           ADDC      A,R3
   \   00001D   F583         MOV       DPH,A
   \   00001F   E0           MOVX      A,@DPTR
   \   000020   6D           XRL       A,R5
   \   000021   60EC         JZ        ??osal_isbufset_2
   1797              {
   1798                return ( FALSE );
   \                     ??osal_isbufset_0:
   \   000023   7900         MOV       R1,#0x0
   \   000025   8002         SJMP      ??osal_isbufset_4
   1799              }
   1800            }
   1801            return ( TRUE );
   \                     ??osal_isbufset_3:
   \   000027   7901         MOV       R1,#0x1
   \                     ??osal_isbufset_4:
   \   000029   02....       LJMP      ??Subroutine27_0 & 0xFFFF
   1802          }
   1803          
   1804          /*********************************************************************
   1805           * @fn      osal_self
   1806           *
   1807           * @brief
   1808           *
   1809           *   This function returns the task ID of the current (active) task.
   1810           *
   1811           * @param   void
   1812           *
   1813           * @return   active task ID or TASK_NO_TASK if no task is active
   1814           */

   \                                 In  segment BANKED_CODE, align 1, keep-with-next
   1815          uint8 osal_self( void )
   \                     osal_self:
   1816          {
   \   000000   C082         PUSH      DPL
   \   000002   C083         PUSH      DPH
   \   000004                ; Saved register size: 2
   \   000004                ; Auto size: 0
   1817            return ( activeTaskID );
   \   000004   90....       MOV       DPTR,#activeTaskID
   \   000007   E0           MOVX      A,@DPTR
   \   000008   F9           MOV       R1,A
   \   000009   02....       LJMP      ?Subroutine0 & 0xFFFF
   1818          }

   \                                 In  segment XDATA_ID, align 1, keep-with-next
   \                     `?<Initializer for activeTaskID>`:
   \   000000   FF           DB 255

   \                                 In  segment BANK_RELAYS, align 1
   \                     `??osal_strlen::?relay`:
   \   000000   12....       LCALL   ?BDISPATCH
   \   000003   ......       DC24    osal_strlen

   \                                 In  segment BANK_RELAYS, align 1
   \                     `??osal_memcpy::?relay`:
   \   000000   12....       LCALL   ?BDISPATCH
   \   000003   ......       DC24    osal_memcpy

   \                                 In  segment BANK_RELAYS, align 1
   \                     `??osal_revmemcpy::?relay`:
   \   000000   12....       LCALL   ?BDISPATCH
   \   000003   ......       DC24    osal_revmemcpy

   \                                 In  segment BANK_RELAYS, align 1
   \                     `??osal_memdup::?relay`:
   \   000000   12....       LCALL   ?BDISPATCH
   \   000003   ......       DC24    osal_memdup

   \                                 In  segment BANK_RELAYS, align 1
   \                     `??osal_memcmp::?relay`:
   \   000000   12....       LCALL   ?BDISPATCH
   \   000003   ......       DC24    osal_memcmp

   \                                 In  segment BANK_RELAYS, align 1
   \                     `??osal_memset::?relay`:
   \   000000   12....       LCALL   ?BDISPATCH
   \   000003   ......       DC24    osal_memset

   \                                 In  segment BANK_RELAYS, align 1
   \                     `??osal_build_uint16::?relay`:
   \   000000   12....       LCALL   ?BDISPATCH
   \   000003   ......       DC24    osal_build_uint16

   \                                 In  segment BANK_RELAYS, align 1
   \                     `??osal_build_uint32::?relay`:
   \   000000   12....       LCALL   ?BDISPATCH
   \   000003   ......       DC24    osal_build_uint32

   \                                 In  segment BANK_RELAYS, align 1
   \                     `??_ltoa::?relay`:
   \   000000   12....       LCALL   ?BDISPATCH
   \   000003   ......       DC24    _ltoa

   \                                 In  segment BANK_RELAYS, align 1
   \                     `??osal_rand::?relay`:
   \   000000   12....       LCALL   ?BDISPATCH
   \   000003   ......       DC24    osal_rand

   \                                 In  segment BANK_RELAYS, align 1
   \                     `??osal_msg_allocate::?relay`:
   \   000000   12....       LCALL   ?BDISPATCH
   \   000003   ......       DC24    osal_msg_allocate

   \                                 In  segment BANK_RELAYS, align 1
   \                     `??osal_msg_deallocate::?relay`:
   \   000000   12....       LCALL   ?BDISPATCH
   \   000003   ......       DC24    osal_msg_deallocate

   \                                 In  segment BANK_RELAYS, align 1
   \                     `??osal_msg_send::?relay`:
   \   000000   12....       LCALL   ?BDISPATCH
   \   000003   ......       DC24    osal_msg_send

   \                                 In  segment BANK_RELAYS, align 1
   \                     `??osal_msg_push_front::?relay`:
   \   000000   12....       LCALL   ?BDISPATCH
   \   000003   ......       DC24    osal_msg_push_front

   \                                 In  segment BANK_RELAYS, align 1
   \                     `??osal_msg_enqueue_push::?relay`:
   \   000000   12....       LCALL   ?BDISPATCH
   \   000003   ......       DC24    osal_msg_enqueue_push

   \                                 In  segment BANK_RELAYS, align 1
   \                     `??osal_msg_receive::?relay`:
   \   000000   12....       LCALL   ?BDISPATCH
   \   000003   ......       DC24    osal_msg_receive

   \                                 In  segment BANK_RELAYS, align 1
   \                     `??osal_msg_find::?relay`:
   \   000000   12....       LCALL   ?BDISPATCH
   \   000003   ......       DC24    osal_msg_find

   \                                 In  segment BANK_RELAYS, align 1
   \                     `??osal_msg_count::?relay`:
   \   000000   12....       LCALL   ?BDISPATCH
   \   000003   ......       DC24    osal_msg_count

   \                                 In  segment BANK_RELAYS, align 1
   \                     `??osal_msg_enqueue::?relay`:
   \   000000   12....       LCALL   ?BDISPATCH
   \   000003   ......       DC24    osal_msg_enqueue

   \                                 In  segment BANK_RELAYS, align 1
   \                     `??osal_msg_dequeue::?relay`:
   \   000000   12....       LCALL   ?BDISPATCH
   \   000003   ......       DC24    osal_msg_dequeue

   \                                 In  segment BANK_RELAYS, align 1
   \                     `??osal_msg_push::?relay`:
   \   000000   12....       LCALL   ?BDISPATCH
   \   000003   ......       DC24    osal_msg_push

   \                                 In  segment BANK_RELAYS, align 1
   \                     `??osal_msg_extract::?relay`:
   \   000000   12....       LCALL   ?BDISPATCH
   \   000003   ......       DC24    osal_msg_extract

   \                                 In  segment BANK_RELAYS, align 1
   \                     `??osal_msg_enqueue_max::?relay`:
   \   000000   12....       LCALL   ?BDISPATCH
   \   000003   ......       DC24    osal_msg_enqueue_max

   \                                 In  segment BANK_RELAYS, align 1
   \                     `??osal_set_event::?relay`:
   \   000000   12....       LCALL   ?BDISPATCH
   \   000003   ......       DC24    osal_set_event

   \                                 In  segment BANK_RELAYS, align 1
   \                     `??osal_clear_event::?relay`:
   \   000000   12....       LCALL   ?BDISPATCH
   \   000003   ......       DC24    osal_clear_event

   \                                 In  segment BANK_RELAYS, align 1
   \                     `??osal_isr_register::?relay`:
   \   000000   12....       LCALL   ?BDISPATCH
   \   000003   ......       DC24    osal_isr_register

   \                                 In  segment BANK_RELAYS, align 1
   \                     `??osal_int_enable::?relay`:
   \   000000   12....       LCALL   ?BDISPATCH
   \   000003   ......       DC24    osal_int_enable

   \                                 In  segment BANK_RELAYS, align 1
   \                     `??osal_int_disable::?relay`:
   \   000000   12....       LCALL   ?BDISPATCH
   \   000003   ......       DC24    osal_int_disable

   \                                 In  segment BANK_RELAYS, align 1
   \                     `??osal_init_system::?relay`:
   \   000000   12....       LCALL   ?BDISPATCH
   \   000003   ......       DC24    osal_init_system

   \                                 In  segment BANK_RELAYS, align 1
   \                     `??osal_start_system::?relay`:
   \   000000   12....       LCALL   ?BDISPATCH
   \   000003   ......       DC24    osal_start_system

   \                                 In  segment BANK_RELAYS, align 1
   \                     `??osal_run_system::?relay`:
   \   000000   12....       LCALL   ?BDISPATCH
   \   000003   ......       DC24    osal_run_system

   \                                 In  segment BANK_RELAYS, align 1
   \                     `??osal_buffer_uint32::?relay`:
   \   000000   12....       LCALL   ?BDISPATCH
   \   000003   ......       DC24    osal_buffer_uint32

   \                                 In  segment BANK_RELAYS, align 1
   \                     `??osal_buffer_uint24::?relay`:
   \   000000   12....       LCALL   ?BDISPATCH
   \   000003   ......       DC24    osal_buffer_uint24

   \                                 In  segment BANK_RELAYS, align 1
   \                     `??osal_isbufset::?relay`:
   \   000000   12....       LCALL   ?BDISPATCH
   \   000003   ......       DC24    osal_isbufset

   \                                 In  segment BANK_RELAYS, align 1
   \                     `??osal_self::?relay`:
   \   000000   12....       LCALL   ?BDISPATCH
   \   000003   ......       DC24    osal_self

   \                                 In  segment XDATA_ROM_C, align 1
   \                     `?<Constant "">`:
   \   000000   00           DB ""
   \   000001   00000000     DB 0, 0, 0, 0, 0, 0, 0, 0
   \            00000000
   \   000009   00           DB 0

   \                                 In  segment XDATA_ROM_C, align 1
   \                     `?<Constant "">_1`:
   \   000000   00           DB ""
   \   000001   00000000     DB 0, 0, 0, 0, 0, 0, 0, 0
   \            00000000
   \   000009   00           DB 0

   \                                 In  segment XDATA_ROM_C, align 1
   \                     `?<Constant "">_2`:
   \   000000   00           DB ""
   \   000001   00000000     DB 0, 0, 0, 0, 0, 0, 0, 0
   \            00000000
   \   000009   00           DB 0

   \                                 In  segment XDATA_ROM_C, align 1
   \                     `?<Constant "0">`:
   \   000000   3000         DB "0"

   \                                 In  segment XDATA_ROM_C, align 1
   \                     __Constant_2710:
   \   000000   10270000     DD 10000

   \                                 In  segment XDATA_ROM_C, align 1
   \                     __Constant_5f5e100:
   \   000000   00E1F505     DD 100000000
   1819          
   1820          /*********************************************************************
   1821           */

   Maximum stack usage in bytes:

   ISTACK XSTACK Function
   ------ ------ --------
      1     57   _ltoa
        0     55   -> _itoa
        0     55   -> strcat
        0     55   -> strcpy
        0     55   -> strlen
      1     20   osal_buffer_uint24
      1     20   osal_buffer_uint32
      2      0   osal_build_uint16
      0     16   osal_build_uint32
      0     21   osal_clear_event
      2      0   osal_init_system
        2      0   -> osalInitTasks
        2      0   -> osalTimerInit
        2      0   -> osal_mem_init
        2      0   -> osal_mem_kick
        2      0   -> osal_pwrmgr_init
      0      0   osal_int_disable
      0      0   osal_int_enable
      0      9   osal_isbufset
      0      0   osal_isr_register
      0     21   osal_memcmp
      1     28   osal_memcpy
      0     19   osal_memdup
        0     16   -> osal_mem_alloc
        0     19   -> osal_memcpy
      0     12   osal_memset
        0     12   -> memset
      0     10   osal_msg_allocate
        0     10   -> osal_mem_alloc
      0      9   osal_msg_count
      2      9   osal_msg_deallocate
        2      0   -> osal_mem_free
      0     10   osal_msg_dequeue
      0     18   osal_msg_enqueue
      0     10   osal_msg_enqueue_max
      1     18   osal_msg_enqueue_push
        0      9   -> osal_msg_deallocate
        0      9   -> osal_msg_enqueue
        0      9   -> osal_msg_push
        0      9   -> osal_set_event
      0     26   osal_msg_extract
      2      0   osal_msg_find
      0     18   osal_msg_push
      0      9   osal_msg_push_front
        0      9   -> osal_msg_enqueue_push
      0     14   osal_msg_receive
        0     12   -> osal_clear_event
        0     14   -> osal_msg_extract
        0     12   -> osal_set_event
      0      9   osal_msg_send
        0      9   -> osal_msg_enqueue_push
      2      0   osal_rand
        2      0   -> Onboard_rand
      1     12   osal_revmemcpy
      0     10   osal_run_system
        0     10   -> Hal_ProcessPoll
        0     10   -> osalTimeUpdate
      2      0   osal_self
      0     21   osal_set_event
      2      0   osal_start_system
        2      0   -> osal_run_system
      2      0   osal_strlen
        2      0   -> strlen


   Segment part sizes:

   Bytes  Function/Label
   -----  --------------
      10  ?<Constant "">
      10  ?<Constant "">_1
      10  ?<Constant "">_2
       2  ?<Constant "0">
       1  ?<Initializer for activeTaskID>
       6  ??Subroutine25_0
       4  ??Subroutine26_0
       5  ??Subroutine27_0
       8  ??Subroutine28_0
       5  ??Subroutine29_0
       7  ?Subroutine0
       4  ?Subroutine1
       6  ?Subroutine10
      18  ?Subroutine11
       9  ?Subroutine12
      15  ?Subroutine13
       6  ?Subroutine14
      15  ?Subroutine15
       4  ?Subroutine16
      11  ?Subroutine17
      15  ?Subroutine18
      21  ?Subroutine19
       5  ?Subroutine2
      12  ?Subroutine20
       6  ?Subroutine21
      14  ?Subroutine22
       6  ?Subroutine23
      11  ?Subroutine24
       5  ?Subroutine3
       5  ?Subroutine4
       2  ?Subroutine5
       6  ?Subroutine6
       6  ?Subroutine7
       3  ?Subroutine8
       6  ?Subroutine9
       1  _A_IEN0
       4  __Constant_2710
       4  __Constant_5f5e100
     660  _ltoa
       6  _ltoa::?relay
       1  activeTaskID
      43  osal_buffer_uint24
       6  osal_buffer_uint24::?relay
      67  osal_buffer_uint32
       6  osal_buffer_uint32::?relay
      25  osal_build_uint16
       6  osal_build_uint16::?relay
     125  osal_build_uint32
       6  osal_build_uint32::?relay
      53  osal_clear_event
       6  osal_clear_event::?relay
      31  osal_init_system
       6  osal_init_system::?relay
      18  osal_int_disable
       6  osal_int_disable::?relay
      18  osal_int_enable
       6  osal_int_enable::?relay
      44  osal_isbufset
       6  osal_isbufset::?relay
       5  osal_isr_register
       6  osal_isr_register::?relay
     129  osal_memcmp
       6  osal_memcmp::?relay
      43  osal_memcpy
       6  osal_memcpy::?relay
      55  osal_memdup
       6  osal_memdup::?relay
      31  osal_memset
       6  osal_memset::?relay
      81  osal_msg_allocate
       6  osal_msg_allocate::?relay
      53  osal_msg_count
       6  osal_msg_count::?relay
      34  osal_msg_deallocate
       6  osal_msg_deallocate::?relay
      82  osal_msg_dequeue
       6  osal_msg_dequeue::?relay
      58  osal_msg_enqueue
       6  osal_msg_enqueue::?relay
      76  osal_msg_enqueue_max
       6  osal_msg_enqueue_max::?relay
     101  osal_msg_enqueue_push
       6  osal_msg_enqueue_push::?relay
      99  osal_msg_extract
       6  osal_msg_extract::?relay
      57  osal_msg_find
       6  osal_msg_find::?relay
      41  osal_msg_push
       6  osal_msg_push::?relay
       9  osal_msg_push_front
       6  osal_msg_push_front::?relay
     131  osal_msg_receive
       6  osal_msg_receive::?relay
       7  osal_msg_send
       6  osal_msg_send::?relay
       2  osal_qHead
       9  osal_rand
       6  osal_rand::?relay
      58  osal_revmemcpy
       6  osal_revmemcpy::?relay
     153  osal_run_system
       6  osal_run_system::?relay
      12  osal_self
       6  osal_self::?relay
      61  osal_set_event
       6  osal_set_event::?relay
       9  osal_start_system
       6  osal_start_system::?relay
      10  osal_strlen
       6  osal_strlen::?relay

 
 2 734 bytes in segment BANKED_CODE
   210 bytes in segment BANK_RELAYS
     1 byte  in segment SFR_AN
     1 byte  in segment XDATA_I
     1 byte  in segment XDATA_ID
    40 bytes in segment XDATA_ROM_C
     2 bytes in segment XDATA_Z
 
   211 bytes of CODE     memory
    32 bytes of CONST    memory (+ 8 bytes shared)
     0 bytes of DATA     memory (+ 1 byte  shared)
 2 734 bytes of HUGECODE memory
     3 bytes of XDATA    memory

Errors: none
Warnings: none
