///////////////////////////////////////////////////////////////////////////////
//
// IAR C/C++ Compiler V10.10.1.4655 for 8051              22/Nov/2023  15:42:44
// Copyright 2004-2017 IAR Systems AB.
// Standalone license - IAR Embedded Workbench for 8051
//
//    Core               =  plain
//    Code model         =  banked
//    Data model         =  large
//    Calling convention =  xdata reentrant
//    Constant location  =  data_rom
//    Dptr setup         =  1,16
//                          
//    Source file        =  
//        D:\fuzzing-coordinator-response-collection\Components\osal\common\OSAL_PwrMgr.c
//    Command line       =  
//        -f C:\Users\ADMINI~1\AppData\Local\Temp\EWAC10.tmp
//        (D:\fuzzing-coordinator-response-collection\Components\osal\common\OSAL_PwrMgr.c
//        -D SECURE=1 -D TC_LINKKEY_JOIN -D NV_INIT -D NV_RESTORE -D
//        MULTICAST_ENABLED=FALSE -D ZCL_READ -D ZCL_DISCOVER -D ZCL_WRITE -D
//        ZCL_BASIC -D ZCL_IDENTIFY -D ISR_KEYINTERRUPT -D HAL_UART=TRUE -D
//        HAL_LCD=FALSE -D ZCL_ON_OFF -D INT_HEAP_LEN=2800 -D
//        HAL_UART_DMA_RX_MAX=256 -D HAL_UART_DMA_TX_MAX=256 -lC
//        D:\fuzzing-coordinator-response-collection\Projects\zstack\HomeAutomation\SampleSwitch\CC2530DB\CoordinatorEB\List
//        -lA
//        D:\fuzzing-coordinator-response-collection\Projects\zstack\HomeAutomation\SampleSwitch\CC2530DB\CoordinatorEB\List
//        --diag_suppress Pe001,Pa010 -o
//        D:\fuzzing-coordinator-response-collection\Projects\zstack\HomeAutomation\SampleSwitch\CC2530DB\CoordinatorEB\Obj
//        -e --debug --core=plain --dptr=16,1 --data_model=large
//        --code_model=banked --calling_convention=xdata_reentrant
//        --place_constants=data_rom --nr_virtual_regs 8 -f
//        D:\fuzzing-coordinator-response-collection\Projects\zstack\HomeAutomation\SampleSwitch\CC2530DB\..\..\..\Tools\CC2530DB\f8wCoord.cfg
//        (-DCPU32MHZ -DROOT=__near_func -DMAC_CFG_APP_PENDING_QUEUE=TRUE
//        -DMAC_CFG_TX_DATA_MAX=5 -DMAC_CFG_TX_MAX=8 -DMAC_CFG_RX_MAX=5
//        -DZDO_COORDINATOR -DRTR_NWK) -f
//        D:\fuzzing-coordinator-response-collection\Projects\zstack\HomeAutomation\SampleSwitch\CC2530DB\..\..\..\Tools\CC2530DB\f8wConfig.cfg
//        (-DZIGBEEPRO -DSECURE=1 -DZG_SECURE_DYNAMIC=0 -DREFLECTOR
//        -DDEFAULT_CHANLIST=0x00000800 -DZDAPP_CONFIG_PAN_ID=0xFFFF
//        -DNWK_START_DELAY=100 -DEXTENDED_JOINING_RANDOM_MASK=0x007F
//        -DBEACON_REQUEST_DELAY=100 -DBEACON_REQ_DELAY_MASK=0x00FF
//        -DLINK_STATUS_JITTER_MASK=0x007F -DROUTE_EXPIRY_TIME=30
//        -DAPSC_ACK_WAIT_DURATION_POLLED=3000 -DNWK_INDIRECT_MSG_TIMEOUT=7
//        -DMAX_RREQ_ENTRIES=8 -DAPSC_MAX_FRAME_RETRIES=3
//        -DNWK_MAX_DATA_RETRIES=2 -DMAX_POLL_FAILURE_RETRIES=2 -DMAX_BCAST=9
//        -DAPS_MAX_GROUPS=16 -DMAX_RTG_ENTRIES=40 -DNWK_MAX_BINDING_ENTRIES=4
//        -DMAX_BINDING_CLUSTER_IDS=4 "-DDEFAULT_KEY={0x00, 0x01, 0x02, 0x03,
//        0x04, 0x05, 0x06, 0x07, 0x08, 0x09, 0x0A, 0x0B, 0x0C, 0x0D, 0x0E,
//        0x0F}" -DMAC_MAX_FRAME_SIZE=116 -DZDNWKMGR_MIN_TRANSMISSIONS=20
//        "-DCONST=const __code" -DGENERIC=__generic -DRFD_RCVC_ALWAYS_ON=FALSE
//        -DPOLL_RATE=1000 -DQUEUED_POLL_RATE=100 -DRESPONSE_POLL_RATE=100
//        -DREJOIN_POLL_RATE=440 -DREJOIN_BACKOFF=900000 -DREJOIN_SCAN=900000
//        -DENABLE_LED4_DISABLE_S1) -f
//        D:\fuzzing-coordinator-response-collection\Projects\zstack\HomeAutomation\SampleSwitch\CC2530DB\..\..\..\Tools\CC2530DB\f8wZCL.cfg
//        -I
//        D:\fuzzing-coordinator-response-collection\Projects\zstack\HomeAutomation\SampleSwitch\CC2530DB\
//        -I
//        D:\fuzzing-coordinator-response-collection\Projects\zstack\HomeAutomation\SampleSwitch\CC2530DB\..\Source\
//        -I
//        D:\fuzzing-coordinator-response-collection\Projects\zstack\HomeAutomation\SampleSwitch\CC2530DB\..\..\Source\
//        -I
//        D:\fuzzing-coordinator-response-collection\Projects\zstack\HomeAutomation\SampleSwitch\CC2530DB\..\..\..\ZMain\TI2530DB\
//        -I
//        D:\fuzzing-coordinator-response-collection\Projects\zstack\HomeAutomation\SampleSwitch\CC2530DB\..\..\..\..\..\Components\hal\include\
//        -I
//        D:\fuzzing-coordinator-response-collection\Projects\zstack\HomeAutomation\SampleSwitch\CC2530DB\..\..\..\..\..\Components\hal\target\CC2530EB\
//        -I
//        D:\fuzzing-coordinator-response-collection\Projects\zstack\HomeAutomation\SampleSwitch\CC2530DB\..\..\..\..\..\Components\mac\include\
//        -I
//        D:\fuzzing-coordinator-response-collection\Projects\zstack\HomeAutomation\SampleSwitch\CC2530DB\..\..\..\..\..\Components\mac\high_level\
//        -I
//        D:\fuzzing-coordinator-response-collection\Projects\zstack\HomeAutomation\SampleSwitch\CC2530DB\..\..\..\..\..\Components\mac\low_level\srf04\
//        -I
//        D:\fuzzing-coordinator-response-collection\Projects\zstack\HomeAutomation\SampleSwitch\CC2530DB\..\..\..\..\..\Components\mac\low_level\srf04\single_chip\
//        -I
//        D:\fuzzing-coordinator-response-collection\Projects\zstack\HomeAutomation\SampleSwitch\CC2530DB\..\..\..\..\..\Components\mt\
//        -I
//        D:\fuzzing-coordinator-response-collection\Projects\zstack\HomeAutomation\SampleSwitch\CC2530DB\..\..\..\..\..\Components\osal\include\
//        -I
//        D:\fuzzing-coordinator-response-collection\Projects\zstack\HomeAutomation\SampleSwitch\CC2530DB\..\..\..\..\..\Components\services\saddr\
//        -I
//        D:\fuzzing-coordinator-response-collection\Projects\zstack\HomeAutomation\SampleSwitch\CC2530DB\..\..\..\..\..\Components\services\sdata\
//        -I
//        D:\fuzzing-coordinator-response-collection\Projects\zstack\HomeAutomation\SampleSwitch\CC2530DB\..\..\..\..\..\Components\stack\af\
//        -I
//        D:\fuzzing-coordinator-response-collection\Projects\zstack\HomeAutomation\SampleSwitch\CC2530DB\..\..\..\..\..\Components\stack\bdb\
//        -I
//        D:\fuzzing-coordinator-response-collection\Projects\zstack\HomeAutomation\SampleSwitch\CC2530DB\..\..\..\..\..\Components\stack\gp\
//        -I
//        D:\fuzzing-coordinator-response-collection\Projects\zstack\HomeAutomation\SampleSwitch\CC2530DB\..\..\..\..\..\Components\stack\nwk\
//        -I
//        D:\fuzzing-coordinator-response-collection\Projects\zstack\HomeAutomation\SampleSwitch\CC2530DB\..\..\..\..\..\Components\stack\sapi\
//        -I
//        D:\fuzzing-coordinator-response-collection\Projects\zstack\HomeAutomation\SampleSwitch\CC2530DB\..\..\..\..\..\Components\stack\sec\
//        -I
//        D:\fuzzing-coordinator-response-collection\Projects\zstack\HomeAutomation\SampleSwitch\CC2530DB\..\..\..\..\..\Components\stack\sys\
//        -I
//        D:\fuzzing-coordinator-response-collection\Projects\zstack\HomeAutomation\SampleSwitch\CC2530DB\..\..\..\..\..\Components\stack\zcl\
//        -I
//        D:\fuzzing-coordinator-response-collection\Projects\zstack\HomeAutomation\SampleSwitch\CC2530DB\..\..\..\..\..\Components\stack\zdo\
//        -I
//        D:\fuzzing-coordinator-response-collection\Projects\zstack\HomeAutomation\SampleSwitch\CC2530DB\..\..\..\..\..\Components\zmac\
//        -I
//        D:\fuzzing-coordinator-response-collection\Projects\zstack\HomeAutomation\SampleSwitch\CC2530DB\..\..\..\..\..\Components\zmac\f8w\
//        -I
//        D:\fuzzing-coordinator-response-collection\Projects\zstack\HomeAutomation\SampleSwitch\CC2530DB\..\..\..\..\..\Components\hal\target\CC2530EB\Common\
//        -I
//        D:\fuzzing-coordinator-response-collection\Projects\zstack\HomeAutomation\SampleSwitch\CC2530DB\..\..\..\..\..\Components\hal\target\CC2530EB\SPI\
//        -I
//        D:\fuzzing-coordinator-response-collection\Projects\zstack\HomeAutomation\SampleSwitch\CC2530DB\..\..\..\..\..\Components\hal\target\CC2530EB\HW_LCD\Font\
//        -I
//        D:\fuzzing-coordinator-response-collection\Projects\zstack\HomeAutomation\SampleSwitch\CC2530DB\..\..\..\..\..\Components\hal\target\CC2530EB\HW_LCD\HAL_LCD_SPI\
//        -I
//        D:\fuzzing-coordinator-response-collection\Projects\zstack\HomeAutomation\SampleSwitch\CC2530DB\..\..\..\..\..\Components\hal\target\CC2530EB\HW_LCD\HAL_OLED\
//        -I
//        D:\fuzzing-coordinator-response-collection\Projects\zstack\HomeAutomation\SampleSwitch\CC2530DB\..\..\..\..\..\Components\hal\target\CC2530EB\HW_LCD\HAL_TFT\
//        -Ohz --require_prototypes)
//    Locale             =  Chinese (Simplified)_China.936
//    List file          =  
//        D:\fuzzing-coordinator-response-collection\Projects\zstack\HomeAutomation\SampleSwitch\CC2530DB\CoordinatorEB\List\OSAL_PwrMgr.s51
//
///////////////////////////////////////////////////////////////////////////////

        NAME OSAL_PwrMgr

        RTMODEL "__SystemLibrary", "CLib"
        RTMODEL "__calling_convention", "xdata_reentrant"
        RTMODEL "__code_model", "banked"
        RTMODEL "__core", "plain"
        RTMODEL "__data_model", "large"
        RTMODEL "__dptr_size", "16"
        RTMODEL "__extended_stack", "disabled"
        RTMODEL "__location_for_constants", "data"
        RTMODEL "__number_of_dptrs", "1"
        RTMODEL "__register_banks", "*"
        RTMODEL "__rt_version", "1"

        RSEG DOVERLAY:DATA:NOROOT(0)
        RSEG IOVERLAY:IDATA:NOROOT(0)
        RSEG ISTACK:IDATA:NOROOT(0)
        RSEG PSTACK:XDATA:NOROOT(0)
        RSEG XSTACK:XDATA:NOROOT(0)

        EXTERN ?V0
        EXTERN ?V1
        EXTERN ?BANKED_ENTER_XDATA
        EXTERN ?BANKED_LEAVE_XDATA
        EXTERN ?BDISPATCH
        EXTERN ?BRET
        EXTERN ?S_SHL
        EXTERN __INIT_XDATA_Z

        PUBLIC `??osal_pwrmgr_device::?relay`
        FUNCTION `??osal_pwrmgr_device::?relay`,0203H
        PUBLIC `??osal_pwrmgr_init::?relay`
        FUNCTION `??osal_pwrmgr_init::?relay`,0203H
        PUBLIC `??osal_pwrmgr_task_state::?relay`
        FUNCTION `??osal_pwrmgr_task_state::?relay`,0203H
        PUBWEAK _A_IEN0
        PUBLIC osal_pwrmgr_device
        FUNCTION osal_pwrmgr_device,0203H
        ARGFRAME XSTACK, 0, STACK
        LOCFRAME ISTACK, 2, STACK
        PUBLIC osal_pwrmgr_init
        FUNCTION osal_pwrmgr_init,0203H
        ARGFRAME XSTACK, 0, STACK
        LOCFRAME ISTACK, 2, STACK
        PUBLIC osal_pwrmgr_task_state
        FUNCTION osal_pwrmgr_task_state,080203H
        ARGFRAME XSTACK, 0, STACK
        LOCFRAME XSTACK, 10, STACK
        PUBLIC pwrmgr_attribute
        
          CFI Names cfiNames0
          CFI StackFrame CFA_SP SP IDATA
          CFI StackFrame CFA_PSP16 PSP16 XDATA
          CFI StackFrame CFA_XSP16 XSP16 XDATA
          CFI StaticOverlayFrame CFA_IOVERLAY IOVERLAY
          CFI StaticOverlayFrame CFA_DOVERLAY DOVERLAY
          CFI Resource `PSW.CY`:1, `B.BR0`:1, `B.BR1`:1, `B.BR2`:1, `B.BR3`:1
          CFI Resource `B.BR4`:1, `B.BR5`:1, `B.BR6`:1, `B.BR7`:1, `VB.BR8`:1
          CFI Resource `VB.BR9`:1, `VB.BR10`:1, `VB.BR11`:1, `VB.BR12`:1
          CFI Resource `VB.BR13`:1, `VB.BR14`:1, `VB.BR15`:1, VB:8, B:8, A:8
          CFI Resource PSW:8, DPL0:8, DPH0:8, R0:8, R1:8, R2:8, R3:8, R4:8, R5:8
          CFI Resource R6:8, R7:8, V0:8, V1:8, V2:8, V3:8, V4:8, V5:8, V6:8, V7:8
          CFI Resource SP:8, PSPH:8, PSPL:8, PSP16:16, XSPH:8, XSPL:8, XSP16:16
          CFI VirtualResource ?RET:24
          CFI Resource ?BRET_EXT:8
          CFI VirtualResource ?RET_HIGH:8, ?RET_LOW:8
          CFI ResourceParts PSP16 PSPH, PSPL
          CFI ResourceParts XSP16 XSPH, XSPL
          CFI ResourceParts ?RET ?BRET_EXT, ?RET_HIGH, ?RET_LOW
          CFI EndNames cfiNames0
        
          CFI Common cfiCommon0 Using cfiNames0
          CFI CodeAlign 1
          CFI DataAlign -1
          CFI ReturnAddress ?RET CODE
          CFI CFA_DOVERLAY Used
          CFI CFA_IOVERLAY Used
          CFI CFA_SP SP+-3
          CFI CFA_PSP16 PSP16+0
          CFI CFA_XSP16 XSP16+0
          CFI `PSW.CY` SameValue
          CFI `B.BR0` SameValue
          CFI `B.BR1` SameValue
          CFI `B.BR2` SameValue
          CFI `B.BR3` SameValue
          CFI `B.BR4` SameValue
          CFI `B.BR5` SameValue
          CFI `B.BR6` SameValue
          CFI `B.BR7` SameValue
          CFI `VB.BR8` SameValue
          CFI `VB.BR9` SameValue
          CFI `VB.BR10` SameValue
          CFI `VB.BR11` SameValue
          CFI `VB.BR12` SameValue
          CFI `VB.BR13` SameValue
          CFI `VB.BR14` SameValue
          CFI `VB.BR15` SameValue
          CFI VB SameValue
          CFI B Undefined
          CFI A Undefined
          CFI PSW SameValue
          CFI DPL0 SameValue
          CFI DPH0 SameValue
          CFI R0 Undefined
          CFI R1 Undefined
          CFI R2 Undefined
          CFI R3 Undefined
          CFI R4 Undefined
          CFI R5 Undefined
          CFI R6 SameValue
          CFI R7 SameValue
          CFI V0 SameValue
          CFI V1 SameValue
          CFI V2 SameValue
          CFI V3 SameValue
          CFI V4 SameValue
          CFI V5 SameValue
          CFI V6 SameValue
          CFI V7 SameValue
          CFI PSPH Undefined
          CFI PSPL Undefined
          CFI XSPH Undefined
          CFI XSPL Undefined
          CFI ?RET Concat
          CFI ?BRET_EXT Frame(CFA_SP, 3)
          CFI ?RET_HIGH Frame(CFA_SP, 2)
          CFI ?RET_LOW Frame(CFA_SP, 1)
          CFI EndCommon cfiCommon0
        
osal_pwrmgr_device  SYMBOL "osal_pwrmgr_device"
`??osal_pwrmgr_device::?relay` SYMBOL "?relay", osal_pwrmgr_device
osal_pwrmgr_init    SYMBOL "osal_pwrmgr_init"
`??osal_pwrmgr_init::?relay` SYMBOL "?relay", osal_pwrmgr_init
osal_pwrmgr_task_state SYMBOL "osal_pwrmgr_task_state"
`??osal_pwrmgr_task_state::?relay` SYMBOL "?relay", osal_pwrmgr_task_state

        EXTERN tasksCnt

// D:\fuzzing-coordinator-response-collection\Components\osal\common\OSAL_PwrMgr.c
//    1 /**************************************************************************************************
//    2   Filename:       OSAL_pwrmgr.c
//    3   Revised:        $Date: 2014-11-21 16:17:37 -0800 (Fri, 21 Nov 2014) $
//    4   Revision:       $Revision: 41218 $
//    5 
//    6   Description:    This file contains the OSAL Power Management API.
//    7 
//    8 
//    9   Copyright 2004-2014 Texas Instruments Incorporated. All rights reserved.
//   10 
//   11   IMPORTANT: Your use of this Software is limited to those specific rights
//   12   granted under the terms of a software license agreement between the user
//   13   who downloaded the software, his/her employer (which must be your employer)
//   14   and Texas Instruments Incorporated (the "License").  You may not use this
//   15   Software unless you agree to abide by the terms of the License. The License
//   16   limits your use, and you acknowledge, that the Software may not be modified,
//   17   copied or distributed unless embedded on a Texas Instruments microcontroller
//   18   or used solely and exclusively in conjunction with a Texas Instruments radio
//   19   frequency transceiver, which is integrated into your product.  Other than for
//   20   the foregoing purpose, you may not use, reproduce, copy, prepare derivative
//   21   works of, modify, distribute, perform, display or sell this Software and/or
//   22   its documentation for any purpose.
//   23 
//   24   YOU FURTHER ACKNOWLEDGE AND AGREE THAT THE SOFTWARE AND DOCUMENTATION ARE
//   25   PROVIDED “AS IS” WITHOUT WARRANTY OF ANY KIND, EITHER EXPRESS OR IMPLIED,
//   26   INCLUDING WITHOUT LIMITATION, ANY WARRANTY OF MERCHANTABILITY, TITLE,
//   27   NON-INFRINGEMENT AND FITNESS FOR A PARTICULAR PURPOSE. IN NO EVENT SHALL
//   28   TEXAS INSTRUMENTS OR ITS LICENSORS BE LIABLE OR OBLIGATED UNDER CONTRACT,
//   29   NEGLIGENCE, STRICT LIABILITY, CONTRIBUTION, BREACH OF WARRANTY, OR OTHER
//   30   LEGAL EQUITABLE THEORY ANY DIRECT OR INDIRECT DAMAGES OR EXPENSES
//   31   INCLUDING BUT NOT LIMITED TO ANY INCIDENTAL, SPECIAL, INDIRECT, PUNITIVE
//   32   OR CONSEQUENTIAL DAMAGES, LOST PROFITS OR LOST DATA, COST OF PROCUREMENT
//   33   OF SUBSTITUTE GOODS, TECHNOLOGY, SERVICES, OR ANY CLAIMS BY THIRD PARTIES
//   34   (INCLUDING BUT NOT LIMITED TO ANY DEFENSE THEREOF), OR OTHER SIMILAR COSTS.
//   35 
//   36   Should you have any questions regarding your right to use this Software,
//   37   contact Texas Instruments Incorporated at www.TI.com.
//   38 **************************************************************************************************/
//   39 
//   40 /*********************************************************************
//   41  * INCLUDES
//   42  */
//   43 
//   44 #include "comdef.h"
//   45 #include "OnBoard.h"

        ASEGN SFR_AN:DATA:NOROOT,0a8H
// union <unnamed> volatile __sfr _A_IEN0
_A_IEN0:
        DATA8
        DS 1
//   46 #include "OSAL.h"
//   47 #include "OSAL_Tasks.h"
//   48 #include "OSAL_Timers.h"
//   49 #include "OSAL_PwrMgr.h"
//   50 
//   51 #ifdef USE_ICALL
//   52 #include <ICall.h>
//   53 #endif /* USE_ICALL */
//   54 
//   55 #ifdef OSAL_PORT2TIRTOS
//   56 /* Direct port to TI-RTOS API */
//   57 #if defined CC26XX
//   58 #include <ti/sysbios/family/arm/cc26xx/Power.h>
//   59 #include <ti/sysbios/family/arm/cc26xx/PowerCC2650.h>
//   60 #endif /* CC26XX */
//   61 #endif /* OSAL_PORT2TIRTOS */
//   62 
//   63 /*********************************************************************
//   64  * MACROS
//   65  */
//   66 
//   67 /*********************************************************************
//   68  * CONSTANTS
//   69  */
//   70 
//   71 /*********************************************************************
//   72  * TYPEDEFS
//   73  */
//   74 
//   75 /*********************************************************************
//   76  * GLOBAL VARIABLES
//   77  */
//   78 
//   79 /* This global variable stores the power management attributes.
//   80  */

        RSEG XDATA_Z:XDATA:NOROOT(0)
        DATA8
//   81 pwrmgr_attribute_t pwrmgr_attribute;
pwrmgr_attribute:
        DS 7
        REQUIRE __INIT_XDATA_Z
//   82 #if defined USE_ICALL || defined OSAL_PORT2TIRTOS
//   83 uint8 pwrmgr_initialized = FALSE;
//   84 #endif /* defined USE_ICALL || defined OSAL_PORT2TIRTOS */
//   85 
//   86 /*********************************************************************
//   87  * EXTERNAL VARIABLES
//   88  */
//   89 
//   90 /*********************************************************************
//   91  * EXTERNAL FUNCTIONS
//   92  */
//   93 
//   94 /*********************************************************************
//   95  * LOCAL VARIABLES
//   96  */
//   97 
//   98 /*********************************************************************
//   99  * LOCAL FUNCTION PROTOTYPES
//  100  */
//  101 
//  102 /*********************************************************************
//  103  * FUNCTIONS
//  104  *********************************************************************/
//  105 
//  106 /*********************************************************************
//  107  * @fn      osal_pwrmgr_init
//  108  *
//  109  * @brief   Initialize the power management system.
//  110  *
//  111  * @param   none.
//  112  *
//  113  * @return  none.
//  114  */

        RSEG BANKED_CODE:HUGECODE:NOROOT(0)
//  115 void osal_pwrmgr_init( void )
osal_pwrmgr_init:
          CFI Block cfiBlock0 Using cfiCommon0
          CFI Function osal_pwrmgr_init
        CODE
//  116 {
        PUSH      DPL
          CFI DPL0 Frame(CFA_SP, 4)
          CFI CFA_SP SP+-4
        PUSH      DPH
          CFI DPH0 Frame(CFA_SP, 5)
          CFI CFA_SP SP+-5
        ; Saved register size: 2
        ; Auto size: 0
//  117 #if !defined USE_ICALL && !defined OSAL_PORT2TIRTOS
//  118   pwrmgr_attribute.pwrmgr_device = PWRMGR_ALWAYS_ON; // Default to no power conservation.
        MOV       DPTR,#pwrmgr_attribute + 6
        CLR       A
        MOVX      @DPTR,A
//  119 #endif /* USE_ICALL */
//  120   pwrmgr_attribute.pwrmgr_task_state = 0;            // Cleared.  All set to conserve
        MOV       DPTR,#pwrmgr_attribute
        MOVX      @DPTR,A
        INC       DPTR
          CFI EndBlock cfiBlock0
        REQUIRE ?Subroutine0
        ; // Fall through to label ?Subroutine0
//  121 #if defined USE_ICALL || defined OSAL_PORT2TIRTOS
//  122   pwrmgr_initialized = TRUE;
//  123 #endif /* defined USE_ICALL || defined OSAL_PORT2TIRTOS */
//  124 }

        RSEG BANKED_CODE:HUGECODE:NOROOT(0)
?Subroutine0:
          CFI Block cfiBlock1 Using cfiCommon0
          CFI NoFunction
          CFI CFA_SP SP+-5
          CFI DPL0 Frame(CFA_SP, 4)
          CFI DPH0 Frame(CFA_SP, 5)
        MOVX      @DPTR,A
        POP       DPH
          CFI CFA_SP SP+-4
          CFI DPH0 SameValue
        POP       DPL
          CFI CFA_SP SP+-3
          CFI DPL0 SameValue
        LJMP      ?BRET
          CFI EndBlock cfiBlock1
//  125 
//  126 #if !defined USE_ICALL && !defined OSAL_PORT2TIRTOS
//  127 /*********************************************************************
//  128  * @fn      osal_pwrmgr_device
//  129  *
//  130  * @brief   Sets the device power characteristic.
//  131  *
//  132  * @param   pwrmgr_device - type of power devices. With PWRMGR_ALWAYS_ON
//  133  *          selection, there is no power savings and the device is most
//  134  *          likely on mains power. The PWRMGR_BATTERY selection allows the
//  135  *          HAL sleep manager to enter sleep.
//  136  *
//  137  * @return  none
//  138  */

        RSEG BANKED_CODE:HUGECODE:NOROOT(0)
//  139 void osal_pwrmgr_device( uint8 pwrmgr_device )
osal_pwrmgr_device:
          CFI Block cfiBlock2 Using cfiCommon0
          CFI Function osal_pwrmgr_device
        CODE
//  140 {
        PUSH      DPL
          CFI DPL0 Frame(CFA_SP, 4)
          CFI CFA_SP SP+-4
        PUSH      DPH
          CFI DPH0 Frame(CFA_SP, 5)
          CFI CFA_SP SP+-5
        ; Saved register size: 2
        ; Auto size: 0
//  141   pwrmgr_attribute.pwrmgr_device = pwrmgr_device;
        MOV       A,R1
        MOV       DPTR,#pwrmgr_attribute + 6
        SJMP      ?Subroutine0
//  142 }
          CFI EndBlock cfiBlock2
//  143 #endif /* !defined USE_ICALL && !defined OSAL_PORT2TIRTOS*/
//  144 
//  145 /*********************************************************************
//  146  * @fn      osal_pwrmgr_task_state
//  147  *
//  148  * @brief   This function is called by each task to state whether or
//  149  *          not this task wants to conserve power.
//  150  *
//  151  * @param   task_id - calling task ID.
//  152  *          state - whether the calling task wants to
//  153  *          conserve power or not.
//  154  *
//  155  * @return  SUCCESS if task complete
//  156  */

        RSEG BANKED_CODE:HUGECODE:NOROOT(0)
//  157 uint8 osal_pwrmgr_task_state( uint8 task_id, uint8 state )
osal_pwrmgr_task_state:
          CFI Block cfiBlock3 Using cfiCommon0
          CFI Function osal_pwrmgr_task_state
        CODE
//  158 {
        REQUIRE ?V0
        REQUIRE ?V1
        MOV       A,#-0xa
        LCALL     ?BANKED_ENTER_XDATA
          CFI DPH0 load(1, XDATA, add(CFA_XSP16, literal(-1)))
          CFI DPL0 load(1, XDATA, add(CFA_XSP16, literal(-2)))
          CFI ?BRET_EXT load(1, XDATA, add(CFA_XSP16, literal(-3)))
          CFI ?RET_HIGH load(1, XDATA, add(CFA_XSP16, literal(-4)))
          CFI ?RET_LOW load(1, XDATA, add(CFA_XSP16, literal(-5)))
          CFI R7 load(1, XDATA, add(CFA_XSP16, literal(-6)))
          CFI V1 load(1, XDATA, add(CFA_XSP16, literal(-7)))
          CFI V0 load(1, XDATA, add(CFA_XSP16, literal(-8)))
          CFI VB load(1, XDATA, add(CFA_XSP16, literal(-9)))
          CFI R6 load(1, XDATA, add(CFA_XSP16, literal(-10)))
          CFI CFA_SP SP+0
          CFI CFA_XSP16 add(XSP16, 10)
        ; Saved register size: 10
        ; Auto size: 0
        MOV       A,R1
        MOV       R6,A
//  159   halIntState_t intState;
//  160 
//  161   if ( task_id >= tasksCnt )
        MOV       DPTR,#tasksCnt
        MOVX      A,@DPTR
        MOV       R0,A
        MOV       A,R6
        CLR       C
        SUBB      A,R0
        JC        ??osal_pwrmgr_task_state_0
//  162     return ( INVALID_TASK );
        MOV       R1,#0x3
        SJMP      ??osal_pwrmgr_task_state_1
//  163 
//  164 #if defined USE_ICALL || defined OSAL_PORT2TIRTOS
//  165   if ( !pwrmgr_initialized )
//  166   {
//  167     /* If voting is made before this module is initialized,
//  168      * pwrmgr_task_state will reset later when the module is
//  169      * initialized, and cause incorrect activity count.
//  170      */
//  171     return ( SUCCESS );
//  172   }
//  173 #endif /* defined USE_ICALL || defined OSAL_PORT2TIRTOS */
//  174 
//  175   HAL_ENTER_CRITICAL_SECTION( intState );
??osal_pwrmgr_task_state_0:
        MOV       C,0xa8.7
        CLR       A
        RLC       A
        MOV       R3,A
        CLR       0xa8.7
//  176 
//  177   if ( state == PWRMGR_CONSERVE )
        MOV       ?V0,#0x1
        MOV       ?V1,#0x0
        MOV       A,R6
        MOV       R0,#?V0
        LCALL     ?S_SHL
        MOV       R4,?V0
        MOV       R5,?V1
        MOV       A,R2
        JNZ       ??osal_pwrmgr_task_state_2
//  178   {
//  179 #if defined USE_ICALL || defined OSAL_PORT2TIRTOS
//  180     uint16 cache = pwrmgr_attribute.pwrmgr_task_state;
//  181 #endif /* defined USE_ICALL || defined OSAL_PORT2TIRTOS */
//  182     // Clear the task state flag
//  183     pwrmgr_attribute.pwrmgr_task_state &= ~(1 << task_id );
        MOV       A,R4
        CPL       A
        MOV       R0,A
        MOV       A,R5
        CPL       A
        MOV       R1,A
        MOV       DPTR,#pwrmgr_attribute
        MOVX      A,@DPTR
        ANL       A,R0
        MOVX      @DPTR,A
        INC       DPTR
        MOVX      A,@DPTR
        ANL       A,R1
        SJMP      ??osal_pwrmgr_task_state_3
//  184 #if defined USE_ICALL || defined OSAL_PORT2TIRTOS
//  185     if (cache != 0 && pwrmgr_attribute.pwrmgr_task_state == 0)
//  186     {
//  187 #ifdef USE_ICALL
//  188       /* Decrement activity counter */
//  189       ICall_pwrUpdActivityCounter(FALSE);
//  190 #else /* USE_ICALL */
//  191       Power_releaseConstraint(Power_SD_DISALLOW);
//  192       Power_releaseConstraint(Power_SB_DISALLOW);
//  193 #endif /* USE_ICALL */
//  194     }
//  195 #endif /* defined USE_ICALL || defined OSAL_PORT2TIRTOS */
//  196   }
//  197   else
//  198   {
//  199 #if defined USE_ICALL || defined OSAL_PORT2TIRTOS
//  200     if (pwrmgr_attribute.pwrmgr_task_state == 0)
//  201     {
//  202 #ifdef USE_ICALL
//  203       /* Increment activity counter */
//  204       ICall_pwrUpdActivityCounter(TRUE);
//  205 #else /* USE_ICALL */
//  206       Power_setConstraint(Power_SD_DISALLOW);
//  207       Power_setConstraint(Power_SB_DISALLOW);
//  208 #endif /* USE_ICALL */
//  209     }
//  210 #endif /* defined USE_ICALL || defined OSAL_PORT2TIRTOS */
//  211     // Set the task state flag
//  212     pwrmgr_attribute.pwrmgr_task_state |= (1 << task_id);
??osal_pwrmgr_task_state_2:
        MOV       DPTR,#pwrmgr_attribute
        MOVX      A,@DPTR
        ORL       A,R4
        MOVX      @DPTR,A
        INC       DPTR
        MOVX      A,@DPTR
        ORL       A,R5
??osal_pwrmgr_task_state_3:
        MOVX      @DPTR,A
//  213   }
//  214 
//  215   HAL_EXIT_CRITICAL_SECTION( intState );
        MOV       A,R3
        MOV       C,0xE0 /* A   */.0
        MOV       0xa8.7,C
//  216 
//  217   return ( SUCCESS );
        MOV       R1,#0x0
??osal_pwrmgr_task_state_1:
        MOV       R7,#0x2
        LJMP      ?BANKED_LEAVE_XDATA
          CFI EndBlock cfiBlock3
        REQUIRE _A_IEN0
//  218 }

        RSEG BANK_RELAYS:CODE:REORDER:NOROOT(0)
`??osal_pwrmgr_init::?relay`:
        CODE
        LCALL   ?BDISPATCH
        DATA24
        DC24    osal_pwrmgr_init

        RSEG BANK_RELAYS:CODE:REORDER:NOROOT(0)
`??osal_pwrmgr_device::?relay`:
        CODE
        LCALL   ?BDISPATCH
        DATA24
        DC24    osal_pwrmgr_device

        RSEG BANK_RELAYS:CODE:REORDER:NOROOT(0)
`??osal_pwrmgr_task_state::?relay`:
        CODE
        LCALL   ?BDISPATCH
        DATA24
        DC24    osal_pwrmgr_task_state

        END
//  219 
//  220 #if defined( POWER_SAVING ) && !(defined USE_ICALL || defined OSAL_PORT2TIRTOS)
//  221 /*********************************************************************
//  222  * @fn      osal_pwrmgr_powerconserve
//  223  *
//  224  * @brief   This function is called from the main OSAL loop when there are
//  225  *          no events scheduled and shouldn't be called from anywhere else.
//  226  *
//  227  * @param   none.
//  228  *
//  229  * @return  none.
//  230  */
//  231 void osal_pwrmgr_powerconserve( void )
//  232 {
//  233   uint32        next;
//  234   halIntState_t intState;
//  235 
//  236   // Should we even look into power conservation
//  237   if ( pwrmgr_attribute.pwrmgr_device != PWRMGR_ALWAYS_ON )
//  238   {
//  239     // Are all tasks in agreement to conserve
//  240     if ( pwrmgr_attribute.pwrmgr_task_state == 0 )
//  241     {
//  242       // Hold off interrupts.
//  243       HAL_ENTER_CRITICAL_SECTION( intState );
//  244 
//  245       // Get next time-out
//  246       next = osal_next_timeout();
//  247 
//  248       // Re-enable interrupts.
//  249       HAL_EXIT_CRITICAL_SECTION( intState );
//  250 
//  251       // Put the processor into sleep mode
//  252       OSAL_SET_CPU_INTO_SLEEP( next );
//  253     }
//  254   }
//  255 }
//  256 #endif /* POWER_SAVING */
//  257 
//  258 /*********************************************************************
//  259 *********************************************************************/
// 
// 118 bytes in segment BANKED_CODE
//  18 bytes in segment BANK_RELAYS
//   1 byte  in segment SFR_AN
//   7 bytes in segment XDATA_Z
// 
//  18 bytes of CODE     memory
//   0 bytes of DATA     memory (+ 1 byte shared)
// 118 bytes of HUGECODE memory
//   7 bytes of XDATA    memory
//
//Errors: none
//Warnings: none
