///////////////////////////////////////////////////////////////////////////////
//
// IAR C/C++ Compiler V10.10.1.4655 for 8051              22/Nov/2023  15:42:47
// Copyright 2004-2017 IAR Systems AB.
// Standalone license - IAR Embedded Workbench for 8051
//
//    Core               =  plain
//    Code model         =  banked
//    Data model         =  large
//    Calling convention =  xdata reentrant
//    Constant location  =  data_rom
//    Dptr setup         =  1,16
//                          
//    Source file        =  
//        D:\fuzzing-coordinator-response-collection\Components\stack\zcl\zcl.c
//    Command line       =  
//        -f C:\Users\ADMINI~1\AppData\Local\Temp\EWAD6D.tmp
//        (D:\fuzzing-coordinator-response-collection\Components\stack\zcl\zcl.c
//        -D SECURE=1 -D TC_LINKKEY_JOIN -D NV_INIT -D NV_RESTORE -D
//        MULTICAST_ENABLED=FALSE -D ZCL_READ -D ZCL_DISCOVER -D ZCL_WRITE -D
//        ZCL_BASIC -D ZCL_IDENTIFY -D ISR_KEYINTERRUPT -D HAL_UART=TRUE -D
//        HAL_LCD=FALSE -D ZCL_ON_OFF -D INT_HEAP_LEN=2800 -D
//        HAL_UART_DMA_RX_MAX=256 -D HAL_UART_DMA_TX_MAX=256 -lC
//        D:\fuzzing-coordinator-response-collection\Projects\zstack\HomeAutomation\SampleSwitch\CC2530DB\CoordinatorEB\List
//        -lA
//        D:\fuzzing-coordinator-response-collection\Projects\zstack\HomeAutomation\SampleSwitch\CC2530DB\CoordinatorEB\List
//        --diag_suppress Pe001,Pa010 -o
//        D:\fuzzing-coordinator-response-collection\Projects\zstack\HomeAutomation\SampleSwitch\CC2530DB\CoordinatorEB\Obj
//        -e --debug --core=plain --dptr=16,1 --data_model=large
//        --code_model=banked --calling_convention=xdata_reentrant
//        --place_constants=data_rom --nr_virtual_regs 8 -f
//        D:\fuzzing-coordinator-response-collection\Projects\zstack\HomeAutomation\SampleSwitch\CC2530DB\..\..\..\Tools\CC2530DB\f8wCoord.cfg
//        (-DCPU32MHZ -DROOT=__near_func -DMAC_CFG_APP_PENDING_QUEUE=TRUE
//        -DMAC_CFG_TX_DATA_MAX=5 -DMAC_CFG_TX_MAX=8 -DMAC_CFG_RX_MAX=5
//        -DZDO_COORDINATOR -DRTR_NWK) -f
//        D:\fuzzing-coordinator-response-collection\Projects\zstack\HomeAutomation\SampleSwitch\CC2530DB\..\..\..\Tools\CC2530DB\f8wConfig.cfg
//        (-DZIGBEEPRO -DSECURE=1 -DZG_SECURE_DYNAMIC=0 -DREFLECTOR
//        -DDEFAULT_CHANLIST=0x00000800 -DZDAPP_CONFIG_PAN_ID=0xFFFF
//        -DNWK_START_DELAY=100 -DEXTENDED_JOINING_RANDOM_MASK=0x007F
//        -DBEACON_REQUEST_DELAY=100 -DBEACON_REQ_DELAY_MASK=0x00FF
//        -DLINK_STATUS_JITTER_MASK=0x007F -DROUTE_EXPIRY_TIME=30
//        -DAPSC_ACK_WAIT_DURATION_POLLED=3000 -DNWK_INDIRECT_MSG_TIMEOUT=7
//        -DMAX_RREQ_ENTRIES=8 -DAPSC_MAX_FRAME_RETRIES=3
//        -DNWK_MAX_DATA_RETRIES=2 -DMAX_POLL_FAILURE_RETRIES=2 -DMAX_BCAST=9
//        -DAPS_MAX_GROUPS=16 -DMAX_RTG_ENTRIES=40 -DNWK_MAX_BINDING_ENTRIES=4
//        -DMAX_BINDING_CLUSTER_IDS=4 "-DDEFAULT_KEY={0x00, 0x01, 0x02, 0x03,
//        0x04, 0x05, 0x06, 0x07, 0x08, 0x09, 0x0A, 0x0B, 0x0C, 0x0D, 0x0E,
//        0x0F}" -DMAC_MAX_FRAME_SIZE=116 -DZDNWKMGR_MIN_TRANSMISSIONS=20
//        "-DCONST=const __code" -DGENERIC=__generic -DRFD_RCVC_ALWAYS_ON=FALSE
//        -DPOLL_RATE=1000 -DQUEUED_POLL_RATE=100 -DRESPONSE_POLL_RATE=100
//        -DREJOIN_POLL_RATE=440 -DREJOIN_BACKOFF=900000 -DREJOIN_SCAN=900000
//        -DENABLE_LED4_DISABLE_S1) -f
//        D:\fuzzing-coordinator-response-collection\Projects\zstack\HomeAutomation\SampleSwitch\CC2530DB\..\..\..\Tools\CC2530DB\f8wZCL.cfg
//        -I
//        D:\fuzzing-coordinator-response-collection\Projects\zstack\HomeAutomation\SampleSwitch\CC2530DB\
//        -I
//        D:\fuzzing-coordinator-response-collection\Projects\zstack\HomeAutomation\SampleSwitch\CC2530DB\..\Source\
//        -I
//        D:\fuzzing-coordinator-response-collection\Projects\zstack\HomeAutomation\SampleSwitch\CC2530DB\..\..\Source\
//        -I
//        D:\fuzzing-coordinator-response-collection\Projects\zstack\HomeAutomation\SampleSwitch\CC2530DB\..\..\..\ZMain\TI2530DB\
//        -I
//        D:\fuzzing-coordinator-response-collection\Projects\zstack\HomeAutomation\SampleSwitch\CC2530DB\..\..\..\..\..\Components\hal\include\
//        -I
//        D:\fuzzing-coordinator-response-collection\Projects\zstack\HomeAutomation\SampleSwitch\CC2530DB\..\..\..\..\..\Components\hal\target\CC2530EB\
//        -I
//        D:\fuzzing-coordinator-response-collection\Projects\zstack\HomeAutomation\SampleSwitch\CC2530DB\..\..\..\..\..\Components\mac\include\
//        -I
//        D:\fuzzing-coordinator-response-collection\Projects\zstack\HomeAutomation\SampleSwitch\CC2530DB\..\..\..\..\..\Components\mac\high_level\
//        -I
//        D:\fuzzing-coordinator-response-collection\Projects\zstack\HomeAutomation\SampleSwitch\CC2530DB\..\..\..\..\..\Components\mac\low_level\srf04\
//        -I
//        D:\fuzzing-coordinator-response-collection\Projects\zstack\HomeAutomation\SampleSwitch\CC2530DB\..\..\..\..\..\Components\mac\low_level\srf04\single_chip\
//        -I
//        D:\fuzzing-coordinator-response-collection\Projects\zstack\HomeAutomation\SampleSwitch\CC2530DB\..\..\..\..\..\Components\mt\
//        -I
//        D:\fuzzing-coordinator-response-collection\Projects\zstack\HomeAutomation\SampleSwitch\CC2530DB\..\..\..\..\..\Components\osal\include\
//        -I
//        D:\fuzzing-coordinator-response-collection\Projects\zstack\HomeAutomation\SampleSwitch\CC2530DB\..\..\..\..\..\Components\services\saddr\
//        -I
//        D:\fuzzing-coordinator-response-collection\Projects\zstack\HomeAutomation\SampleSwitch\CC2530DB\..\..\..\..\..\Components\services\sdata\
//        -I
//        D:\fuzzing-coordinator-response-collection\Projects\zstack\HomeAutomation\SampleSwitch\CC2530DB\..\..\..\..\..\Components\stack\af\
//        -I
//        D:\fuzzing-coordinator-response-collection\Projects\zstack\HomeAutomation\SampleSwitch\CC2530DB\..\..\..\..\..\Components\stack\bdb\
//        -I
//        D:\fuzzing-coordinator-response-collection\Projects\zstack\HomeAutomation\SampleSwitch\CC2530DB\..\..\..\..\..\Components\stack\gp\
//        -I
//        D:\fuzzing-coordinator-response-collection\Projects\zstack\HomeAutomation\SampleSwitch\CC2530DB\..\..\..\..\..\Components\stack\nwk\
//        -I
//        D:\fuzzing-coordinator-response-collection\Projects\zstack\HomeAutomation\SampleSwitch\CC2530DB\..\..\..\..\..\Components\stack\sapi\
//        -I
//        D:\fuzzing-coordinator-response-collection\Projects\zstack\HomeAutomation\SampleSwitch\CC2530DB\..\..\..\..\..\Components\stack\sec\
//        -I
//        D:\fuzzing-coordinator-response-collection\Projects\zstack\HomeAutomation\SampleSwitch\CC2530DB\..\..\..\..\..\Components\stack\sys\
//        -I
//        D:\fuzzing-coordinator-response-collection\Projects\zstack\HomeAutomation\SampleSwitch\CC2530DB\..\..\..\..\..\Components\stack\zcl\
//        -I
//        D:\fuzzing-coordinator-response-collection\Projects\zstack\HomeAutomation\SampleSwitch\CC2530DB\..\..\..\..\..\Components\stack\zdo\
//        -I
//        D:\fuzzing-coordinator-response-collection\Projects\zstack\HomeAutomation\SampleSwitch\CC2530DB\..\..\..\..\..\Components\zmac\
//        -I
//        D:\fuzzing-coordinator-response-collection\Projects\zstack\HomeAutomation\SampleSwitch\CC2530DB\..\..\..\..\..\Components\zmac\f8w\
//        -I
//        D:\fuzzing-coordinator-response-collection\Projects\zstack\HomeAutomation\SampleSwitch\CC2530DB\..\..\..\..\..\Components\hal\target\CC2530EB\Common\
//        -I
//        D:\fuzzing-coordinator-response-collection\Projects\zstack\HomeAutomation\SampleSwitch\CC2530DB\..\..\..\..\..\Components\hal\target\CC2530EB\SPI\
//        -I
//        D:\fuzzing-coordinator-response-collection\Projects\zstack\HomeAutomation\SampleSwitch\CC2530DB\..\..\..\..\..\Components\hal\target\CC2530EB\HW_LCD\Font\
//        -I
//        D:\fuzzing-coordinator-response-collection\Projects\zstack\HomeAutomation\SampleSwitch\CC2530DB\..\..\..\..\..\Components\hal\target\CC2530EB\HW_LCD\HAL_LCD_SPI\
//        -I
//        D:\fuzzing-coordinator-response-collection\Projects\zstack\HomeAutomation\SampleSwitch\CC2530DB\..\..\..\..\..\Components\hal\target\CC2530EB\HW_LCD\HAL_OLED\
//        -I
//        D:\fuzzing-coordinator-response-collection\Projects\zstack\HomeAutomation\SampleSwitch\CC2530DB\..\..\..\..\..\Components\hal\target\CC2530EB\HW_LCD\HAL_TFT\
//        -Ohz --require_prototypes)
//    Locale             =  Chinese (Simplified)_China.936
//    List file          =  
//        D:\fuzzing-coordinator-response-collection\Projects\zstack\HomeAutomation\SampleSwitch\CC2530DB\CoordinatorEB\List\zcl.s51
//
///////////////////////////////////////////////////////////////////////////////

        NAME zcl

        RTMODEL "__SystemLibrary", "CLib"
        RTMODEL "__calling_convention", "xdata_reentrant"
        RTMODEL "__code_model", "banked"
        RTMODEL "__core", "plain"
        RTMODEL "__data_model", "large"
        RTMODEL "__dptr_size", "16"
        RTMODEL "__extended_stack", "disabled"
        RTMODEL "__iar_require _formatted_write", ""
        RTMODEL "__location_for_constants", "data"
        RTMODEL "__number_of_dptrs", "1"
        RTMODEL "__register_banks", "*"
        RTMODEL "__rt_version", "1"

        RSEG DOVERLAY:DATA:NOROOT(0)
        RSEG IOVERLAY:IDATA:NOROOT(0)
        RSEG ISTACK:IDATA:NOROOT(0)
        RSEG PSTACK:XDATA:NOROOT(0)
        RSEG XSTACK:XDATA:NOROOT(0)

        EXTERN ?V0
        EXTERN ?V1
        EXTERN ?V2
        EXTERN ?V3
        EXTERN ?V4
        EXTERN ?V5
        EXTERN ?V6
        EXTERN ?V7
        EXTERN ?ALLOC_XSTACK8
        EXTERN ?BANKED_ENTER_XDATA
        EXTERN ?BANKED_LEAVE_XDATA
        EXTERN ?BDISPATCH
        EXTERN ?BRET
        EXTERN ?CALL_IND
        EXTERN ?DEALLOC_XSTACK8
        EXTERN ?L_MOV_X
        EXTERN ?MOVE_LONG8_XDATA_CODE
        EXTERN ?MOVE_LONG8_XDATA_XDATA
        EXTERN ?PUSH_XSTACK8_X_FOUR
        EXTERN ?PUSH_XSTACK8_X_TWO
        EXTERN ?PUSH_XSTACK_I_ONE
        EXTERN ?PUSH_XSTACK_I_THREE
        EXTERN ?PUSH_XSTACK_I_TWO
        EXTERN ?S_SHL
        EXTERN ?UC_SWITCH_SPARSE
        EXTERN ?UL_SHR
        EXTERN ?US_DIV_MOD
        EXTERN ?US_SHR
        EXTERN ?VB
        EXTERN ?XSP
        EXTERN ?XSTACK_DISP0_8
        EXTERN ?XSTACK_DISP100_8
        EXTERN ?XSTACK_DISP101_8
        EXTERN ?XSTACK_DISP102_8
        EXTERN __INIT_XDATA_I
        EXTERN __INIT_XDATA_Z

        FUNCTION `??zclAuthorizeWrite::?relay`,0203H
        FUNCTION `??zclBuildHdr::?relay`,0203H
        PUBLIC `??zclFindAttrRec::?relay`
        FUNCTION `??zclFindAttrRec::?relay`,0203H
        PUBLIC `??zclFindAttrRecsList::?relay`
        FUNCTION `??zclFindAttrRecsList::?relay`,0203H
        FUNCTION `??zclFindClusterOption::?relay`,0203H
        PUBLIC `??zclFindCmdRec::?relay`
        FUNCTION `??zclFindCmdRec::?relay`,0203H
        FUNCTION `??zclFindCmdRecsList::?relay`,0203H
        FUNCTION `??zclFindNextAttrRec::?relay`,0203H
        FUNCTION `??zclFindNextCmdRec::?relay`,0203H
        PUBLIC `??zclGetAttrDataLength::?relay`
        FUNCTION `??zclGetAttrDataLength::?relay`,0203H
        FUNCTION `??zclGetAttrDataLengthUsingCB::?relay`,0203H
        FUNCTION `??zclGetAuthorizeCB::?relay`,0203H
        FUNCTION `??zclGetClusterOption::?relay`,0203H
        PUBLIC `??zclGetDataTypeLength::?relay`
        FUNCTION `??zclGetDataTypeLength::?relay`,0203H
        FUNCTION `??zclGetReadWriteCB::?relay`,0203H
        PUBLIC `??zclParseHdr::?relay`
        FUNCTION `??zclParseHdr::?relay`,0203H
        FUNCTION `??zclParseInDefaultRspCmd::?relay`,0203H
        PUBLIC `??zclParseInDiscAttrsCmd::?relay`
        FUNCTION `??zclParseInDiscAttrsCmd::?relay`,0203H
        FUNCTION `??zclParseInDiscAttrsExtRspCmd::?relay`,0203H
        FUNCTION `??zclParseInDiscAttrsRspCmd::?relay`,0203H
        PUBLIC `??zclParseInDiscCmdsCmd::?relay`
        FUNCTION `??zclParseInDiscCmdsCmd::?relay`,0203H
        FUNCTION `??zclParseInDiscCmdsRspCmd::?relay`,0203H
        PUBLIC `??zclParseInReadCmd::?relay`
        FUNCTION `??zclParseInReadCmd::?relay`,0203H
        FUNCTION `??zclParseInReadRspCmd::?relay`,0203H
        PUBLIC `??zclParseInWriteCmd::?relay`
        FUNCTION `??zclParseInWriteCmd::?relay`,0203H
        FUNCTION `??zclParseInWriteRspCmd::?relay`,0203H
        FUNCTION `??zclProcessInDiscAttrs::?relay`,0203H
        FUNCTION `??zclProcessInDiscAttrsCmd::?relay`,0203H
        FUNCTION `??zclProcessInDiscAttrsExtCmd::?relay`,0203H
        FUNCTION `??zclProcessInDiscCmd::?relay`,0203H
        FUNCTION `??zclProcessInReadCmd::?relay`,0203H
        FUNCTION `??zclProcessInWriteCmd::?relay`,0203H
        FUNCTION `??zclProcessInWriteUndividedCmd::?relay`,0203H
        PUBLIC `??zclReadAttrData::?relay`
        FUNCTION `??zclReadAttrData::?relay`,0203H
        FUNCTION `??zclReadAttrDataUsingCB::?relay`,0203H
        FUNCTION `??zclRevertWriteUndividedCmd::?relay`,0203H
        PUBLIC `??zclSerializeData::?relay`
        FUNCTION `??zclSerializeData::?relay`,0203H
        FUNCTION `??zclSetSecurityOption::?relay`,0203H
        FUNCTION `??zclWriteAttrData::?relay`,0203H
        FUNCTION `??zclWriteAttrDataUsingCB::?relay`,0203H
        FUNCTION `??zcl_DeviceOperational::?relay`,0203H
        PUBLIC `??zcl_HandleExternal::?relay`
        FUNCTION `??zcl_HandleExternal::?relay`,0203H
        PUBLIC `??zcl_Init::?relay`
        FUNCTION `??zcl_Init::?relay`,0203H
        PUBLIC `??zcl_ProcessMessageMSG::?relay`
        FUNCTION `??zcl_ProcessMessageMSG::?relay`,0203H
        PUBLIC `??zcl_ReadAttrData::?relay`
        FUNCTION `??zcl_ReadAttrData::?relay`,0203H
        PUBLIC `??zcl_SendCommand::?relay`
        FUNCTION `??zcl_SendCommand::?relay`,0203H
        PUBLIC `??zcl_SendDefaultRspCmd::?relay`
        FUNCTION `??zcl_SendDefaultRspCmd::?relay`,0203H
        PUBLIC `??zcl_SendDiscoverAttrsCmd::?relay`
        FUNCTION `??zcl_SendDiscoverAttrsCmd::?relay`,0203H
        PUBLIC `??zcl_SendDiscoverAttrsExt::?relay`
        FUNCTION `??zcl_SendDiscoverAttrsExt::?relay`,0203H
        PUBLIC `??zcl_SendDiscoverAttrsExtRsp::?relay`
        FUNCTION `??zcl_SendDiscoverAttrsExtRsp::?relay`,0203H
        PUBLIC `??zcl_SendDiscoverAttrsRspCmd::?relay`
        FUNCTION `??zcl_SendDiscoverAttrsRspCmd::?relay`,0203H
        PUBLIC `??zcl_SendDiscoverCmdsCmd::?relay`
        FUNCTION `??zcl_SendDiscoverCmdsCmd::?relay`,0203H
        PUBLIC `??zcl_SendDiscoverCmdsRspCmd::?relay`
        FUNCTION `??zcl_SendDiscoverCmdsRspCmd::?relay`,0203H
        PUBLIC `??zcl_SendRead::?relay`
        FUNCTION `??zcl_SendRead::?relay`,0203H
        PUBLIC `??zcl_SendReadRsp::?relay`
        FUNCTION `??zcl_SendReadRsp::?relay`,0203H
        PUBLIC `??zcl_SendWriteRequest::?relay`
        FUNCTION `??zcl_SendWriteRequest::?relay`,0203H
        PUBLIC `??zcl_SendWriteRsp::?relay`
        FUNCTION `??zcl_SendWriteRsp::?relay`,0203H
        FUNCTION `??zcl_addExternalFoundationHandler::?relay`,0203H
        PUBLIC `??zcl_event_loop::?relay`
        FUNCTION `??zcl_event_loop::?relay`,0203H
        FUNCTION `??zcl_getExternalFoundationHandler::?relay`,0203H
        PUBLIC `??zcl_getParsedTransSeqNum::?relay`
        FUNCTION `??zcl_getParsedTransSeqNum::?relay`,0203H
        PUBLIC `??zcl_getRawAFMsg::?relay`
        FUNCTION `??zcl_getRawAFMsg::?relay`,0203H
        PUBLIC `??zcl_registerAttrList::?relay`
        FUNCTION `??zcl_registerAttrList::?relay`,0203H
        PUBLIC `??zcl_registerClusterOptionList::?relay`
        FUNCTION `??zcl_registerClusterOptionList::?relay`,0203H
        PUBLIC `??zcl_registerCmdList::?relay`
        FUNCTION `??zcl_registerCmdList::?relay`,0203H
        PUBLIC `??zcl_registerForMsg::?relay`
        FUNCTION `??zcl_registerForMsg::?relay`,0203H
        PUBLIC `??zcl_registerForMsgExt::?relay`
        FUNCTION `??zcl_registerForMsgExt::?relay`,0203H
        PUBLIC `??zcl_registerPlugin::?relay`
        FUNCTION `??zcl_registerPlugin::?relay`,0203H
        PUBLIC `??zcl_registerReadWriteCB::?relay`
        FUNCTION `??zcl_registerReadWriteCB::?relay`,0203H
        PUBLIC `??zcl_registerValidateAttrData::?relay`
        FUNCTION `??zcl_registerValidateAttrData::?relay`,0203H
        PUBWEAK __Constant_32
        FUNCTION zclAuthorizeWrite,0a1203H
        ARGFRAME XSTACK, 15, STACK
        ARGFRAME IOVERLAY, 0, STATIC
        ARGFRAME DOVERLAY, 0, STATIC
        LOCFRAME XSTACK, 14, STACK
        FUNCTION zclBuildHdr,0203H
        ARGFRAME XSTACK, 27, STACK
        ARGFRAME IOVERLAY, 0, STATIC
        ARGFRAME DOVERLAY, 0, STATIC
        LOCFRAME ISTACK, 1, STACK
        LOCFRAME XSTACK, 9, STACK
        PUBLIC zclFindAttrRec
        FUNCTION zclFindAttrRec,0a1203H
        ARGFRAME XSTACK, 38, STACK
        ARGFRAME IOVERLAY, 0, STATIC
        ARGFRAME DOVERLAY, 0, STATIC
        LOCFRAME ISTACK, 2, STACK
        LOCFRAME XSTACK, 14, STACK
        PUBLIC zclFindAttrRecsList
        FUNCTION zclFindAttrRecsList,0203H
        ARGFRAME XSTACK, 16, STACK
        ARGFRAME IOVERLAY, 0, STATIC
        ARGFRAME DOVERLAY, 0, STATIC
        LOCFRAME ISTACK, 2, STACK
        FUNCTION zclFindClusterOption,080203H
        ARGFRAME XSTACK, 10, STACK
        ARGFRAME IOVERLAY, 0, STATIC
        ARGFRAME DOVERLAY, 0, STATIC
        LOCFRAME XSTACK, 9, STACK
        PUBLIC zclFindCmdRec
        FUNCTION zclFindCmdRec,0a1203H
        ARGFRAME XSTACK, 2, STACK
        LOCFRAME ISTACK, 2, STACK
        LOCFRAME XSTACK, 12, STACK
        FUNCTION zclFindCmdRecsList,0203H
        ARGFRAME XSTACK, 14, STACK
        ARGFRAME IOVERLAY, 0, STATIC
        ARGFRAME DOVERLAY, 0, STATIC
        LOCFRAME ISTACK, 2, STACK
        FUNCTION zclFindNextAttrRec,0a1203H
        ARGFRAME XSTACK, 33, STACK
        ARGFRAME IOVERLAY, 0, STATIC
        ARGFRAME DOVERLAY, 0, STATIC
        LOCFRAME XSTACK, 16, STACK
        FUNCTION zclFindNextCmdRec,0a1203H
        ARGFRAME XSTACK, 31, STACK
        ARGFRAME IOVERLAY, 0, STATIC
        ARGFRAME DOVERLAY, 0, STATIC
        LOCFRAME ISTACK, 1, STACK
        LOCFRAME XSTACK, 14, STACK
        PUBLIC zclGetAttrDataLength
        FUNCTION zclGetAttrDataLength,021203H
        ARGFRAME XSTACK, 36, STACK
        ARGFRAME IOVERLAY, 0, STATIC
        ARGFRAME DOVERLAY, 0, STATIC
        LOCFRAME XSTACK, 9, STACK
        FUNCTION zclGetAttrDataLengthUsingCB,0a1203H
        ARGFRAME XSTACK, 36, STACK
        ARGFRAME IOVERLAY, 0, STATIC
        ARGFRAME DOVERLAY, 0, STATIC
        LOCFRAME XSTACK, 22, STACK
        FUNCTION zclGetAuthorizeCB,0a1203H
        ARGFRAME XSTACK, 30, STACK
        ARGFRAME IOVERLAY, 0, STATIC
        ARGFRAME DOVERLAY, 0, STATIC
        LOCFRAME XSTACK, 10, STACK
        FUNCTION zclGetClusterOption,0a1203H
        ARGFRAME XSTACK, 37, STACK
        ARGFRAME IOVERLAY, 0, STATIC
        ARGFRAME DOVERLAY, 0, STATIC
        LOCFRAME XSTACK, 10, STACK
        PUBLIC zclGetDataTypeLength
        FUNCTION zclGetDataTypeLength,0203H
        ARGFRAME XSTACK, 9, STACK
        ARGFRAME IOVERLAY, 0, STATIC
        ARGFRAME DOVERLAY, 0, STATIC
        FUNCTION zclGetReadWriteCB,0a1203H
        ARGFRAME XSTACK, 18, STACK
        ARGFRAME IOVERLAY, 0, STATIC
        ARGFRAME DOVERLAY, 0, STATIC
        LOCFRAME XSTACK, 10, STACK
        PUBLIC zclParseHdr
        FUNCTION zclParseHdr,0a1203H
        ARGFRAME XSTACK, 37, STACK
        ARGFRAME IOVERLAY, 0, STATIC
        ARGFRAME DOVERLAY, 0, STATIC
        LOCFRAME ISTACK, 1, STACK
        LOCFRAME XSTACK, 12, STACK
        FUNCTION zclParseInDefaultRspCmd,0a1603H
        ARGFRAME XSTACK, 0, STACK
        LOCFRAME ISTACK, 1, STACK
        LOCFRAME XSTACK, 10, STACK
        PUBLIC zclParseInDiscAttrsCmd
        FUNCTION zclParseInDiscAttrsCmd,0a1603H
        ARGFRAME XSTACK, 0, STACK
        LOCFRAME ISTACK, 1, STACK
        LOCFRAME XSTACK, 10, STACK
        FUNCTION zclParseInDiscAttrsExtRspCmd,0a1603H
        ARGFRAME XSTACK, 0, STACK
        LOCFRAME ISTACK, 1, STACK
        LOCFRAME XSTACK, 14, STACK
        FUNCTION zclParseInDiscAttrsRspCmd,0a1603H
        ARGFRAME XSTACK, 0, STACK
        LOCFRAME ISTACK, 1, STACK
        LOCFRAME XSTACK, 14, STACK
        PUBLIC zclParseInDiscCmdsCmd
        FUNCTION zclParseInDiscCmdsCmd,0a1603H
        ARGFRAME XSTACK, 0, STACK
        LOCFRAME ISTACK, 1, STACK
        LOCFRAME XSTACK, 10, STACK
        FUNCTION zclParseInDiscCmdsRspCmd,0a1603H
        ARGFRAME XSTACK, 0, STACK
        LOCFRAME ISTACK, 1, STACK
        LOCFRAME XSTACK, 14, STACK
        PUBLIC zclParseInReadCmd
        FUNCTION zclParseInReadCmd,0a1603H
        ARGFRAME XSTACK, 0, STACK
        LOCFRAME ISTACK, 1, STACK
        LOCFRAME XSTACK, 12, STACK
        FUNCTION zclParseInReadRspCmd,0a1603H
        ARGFRAME XSTACK, 0, STACK
        LOCFRAME ISTACK, 1, STACK
        LOCFRAME XSTACK, 25, STACK
        PUBLIC zclParseInWriteCmd
        FUNCTION zclParseInWriteCmd,0a1603H
        ARGFRAME XSTACK, 0, STACK
        LOCFRAME ISTACK, 1, STACK
        LOCFRAME XSTACK, 25, STACK
        FUNCTION zclParseInWriteRspCmd,0a1603H
        ARGFRAME XSTACK, 0, STACK
        LOCFRAME ISTACK, 1, STACK
        LOCFRAME XSTACK, 16, STACK
        FUNCTION zclProcessInDiscAttrs,0a1603H
        ARGFRAME XSTACK, 0, STACK
        LOCFRAME XSTACK, 30, STACK
        FUNCTION zclProcessInDiscAttrsCmd,0a1203H
        ARGFRAME XSTACK, 26, STACK
        ARGFRAME IOVERLAY, 0, STATIC
        ARGFRAME DOVERLAY, 0, STATIC
        LOCFRAME ISTACK, 1, STACK
        LOCFRAME XSTACK, 34, STACK
        FUNCTION zclProcessInDiscAttrsExtCmd,0a1203H
        ARGFRAME XSTACK, 26, STACK
        ARGFRAME IOVERLAY, 0, STATIC
        ARGFRAME DOVERLAY, 0, STATIC
        LOCFRAME ISTACK, 1, STACK
        LOCFRAME XSTACK, 34, STACK
        FUNCTION zclProcessInDiscCmd,0a1603H
        ARGFRAME XSTACK, 0, STACK
        LOCFRAME ISTACK, 1, STACK
        LOCFRAME XSTACK, 32, STACK
        FUNCTION zclProcessInReadCmd,0a1603H
        ARGFRAME XSTACK, 0, STACK
        LOCFRAME ISTACK, 1, STACK
        LOCFRAME XSTACK, 35, STACK
        FUNCTION zclProcessInWriteCmd,0a1603H
        ARGFRAME XSTACK, 0, STACK
        LOCFRAME ISTACK, 1, STACK
        LOCFRAME XSTACK, 37, STACK
        FUNCTION zclProcessInWriteUndividedCmd,0a1603H
        ARGFRAME XSTACK, 0, STACK
        LOCFRAME ISTACK, 1, STACK
        LOCFRAME XSTACK, 41, STACK
        PUBLIC zclReadAttrData
        FUNCTION zclReadAttrData,0a1203H
        ARGFRAME XSTACK, 38, STACK
        ARGFRAME IOVERLAY, 0, STATIC
        ARGFRAME DOVERLAY, 0, STATIC
        LOCFRAME XSTACK, 17, STACK
        FUNCTION zclReadAttrDataUsingCB,0a1203H
        ARGFRAME XSTACK, 40, STACK
        ARGFRAME IOVERLAY, 0, STATIC
        ARGFRAME DOVERLAY, 0, STATIC
        LOCFRAME XSTACK, 20, STACK
        FUNCTION zclRevertWriteUndividedCmd,0a1203H
        ARGFRAME XSTACK, 38, STACK
        ARGFRAME IOVERLAY, 0, STATIC
        ARGFRAME DOVERLAY, 0, STATIC
        LOCFRAME XSTACK, 30, STACK
        PUBLIC zclSerializeData
        FUNCTION zclSerializeData,0a1203H
        ARGFRAME XSTACK, 22, STACK
        ARGFRAME IOVERLAY, 0, STATIC
        ARGFRAME DOVERLAY, 0, STATIC
        LOCFRAME ISTACK, 1, STACK
        LOCFRAME XSTACK, 19, STACK
        FUNCTION zclSetSecurityOption,0a1203H
        ARGFRAME XSTACK, 37, STACK
        ARGFRAME IOVERLAY, 0, STATIC
        ARGFRAME DOVERLAY, 0, STATIC
        LOCFRAME XSTACK, 10, STACK
        FUNCTION zclWriteAttrData,0a1203H
        ARGFRAME XSTACK, 38, STACK
        ARGFRAME IOVERLAY, 0, STATIC
        ARGFRAME DOVERLAY, 0, STATIC
        LOCFRAME XSTACK, 18, STACK
        FUNCTION zclWriteAttrDataUsingCB,0a1203H
        ARGFRAME XSTACK, 38, STACK
        ARGFRAME IOVERLAY, 0, STATIC
        ARGFRAME DOVERLAY, 0, STATIC
        LOCFRAME XSTACK, 18, STACK
        FUNCTION zcl_DeviceOperational,0a1203H
        ARGFRAME XSTACK, 39, STACK
        ARGFRAME IOVERLAY, 0, STATIC
        ARGFRAME DOVERLAY, 0, STATIC
        LOCFRAME XSTACK, 23, STACK
        PUBLIC zcl_HandleExternal
        FUNCTION zcl_HandleExternal,0a1603H
        ARGFRAME XSTACK, 0, STACK
        LOCFRAME ISTACK, 1, STACK
        LOCFRAME XSTACK, 12, STACK
        PUBLIC zcl_InSeqNum
        PUBLIC zcl_Init
        FUNCTION zcl_Init,0203H
        ARGFRAME XSTACK, 0, STACK
        LOCFRAME ISTACK, 2, STACK
        PUBLIC zcl_ProcessMessageMSG
        FUNCTION zcl_ProcessMessageMSG,0a1203H
        ARGFRAME XSTACK, 92, STACK
        ARGFRAME IOVERLAY, 0, STATIC
        ARGFRAME DOVERLAY, 0, STATIC
        LOCFRAME ISTACK, 1, STACK
        LOCFRAME XSTACK, 44, STACK
        PUBLIC zcl_ReadAttrData
        FUNCTION zcl_ReadAttrData,0a1203H
        ARGFRAME XSTACK, 4, STACK
        LOCFRAME XSTACK, 26, STACK
        PUBLIC zcl_SendCommand
        FUNCTION zcl_SendCommand,0a1203H
        ARGFRAME XSTACK, 103, STACK
        ARGFRAME IOVERLAY, 0, STATIC
        ARGFRAME DOVERLAY, 0, STATIC
        LOCFRAME ISTACK, 1, STACK
        LOCFRAME XSTACK, 36, STACK
        PUBLIC zcl_SendDefaultRspCmd
        FUNCTION zcl_SendDefaultRspCmd,0a1203H
        ARGFRAME XSTACK, 44, STACK
        ARGFRAME IOVERLAY, 0, STATIC
        ARGFRAME DOVERLAY, 0, STATIC
        LOCFRAME ISTACK, 1, STACK
        LOCFRAME XSTACK, 23, STACK
        PUBLIC zcl_SendDiscoverAttrsCmd
        FUNCTION zcl_SendDiscoverAttrsCmd,0a1203H
        ARGFRAME XSTACK, 5, STACK
        LOCFRAME ISTACK, 1, STACK
        LOCFRAME XSTACK, 27, STACK
        PUBLIC zcl_SendDiscoverAttrsExt
        FUNCTION zcl_SendDiscoverAttrsExt,0a1203H
        ARGFRAME XSTACK, 5, STACK
        LOCFRAME ISTACK, 1, STACK
        LOCFRAME XSTACK, 24, STACK
        PUBLIC zcl_SendDiscoverAttrsExtRsp
        FUNCTION zcl_SendDiscoverAttrsExtRsp,0a1203H
        ARGFRAME XSTACK, 34, STACK
        ARGFRAME IOVERLAY, 0, STATIC
        ARGFRAME DOVERLAY, 0, STATIC
        LOCFRAME ISTACK, 1, STACK
        LOCFRAME XSTACK, 32, STACK
        PUBLIC zcl_SendDiscoverAttrsRspCmd
        FUNCTION zcl_SendDiscoverAttrsRspCmd,0a1203H
        ARGFRAME XSTACK, 34, STACK
        ARGFRAME IOVERLAY, 0, STATIC
        ARGFRAME DOVERLAY, 0, STATIC
        LOCFRAME ISTACK, 1, STACK
        LOCFRAME XSTACK, 32, STACK
        PUBLIC zcl_SendDiscoverCmdsCmd
        FUNCTION zcl_SendDiscoverCmdsCmd,0a1203H
        ARGFRAME XSTACK, 6, STACK
        LOCFRAME ISTACK, 1, STACK
        LOCFRAME XSTACK, 27, STACK
        PUBLIC zcl_SendDiscoverCmdsRspCmd
        FUNCTION zcl_SendDiscoverCmdsRspCmd,0a1203H
        ARGFRAME XSTACK, 32, STACK
        ARGFRAME IOVERLAY, 0, STATIC
        ARGFRAME DOVERLAY, 0, STATIC
        LOCFRAME ISTACK, 1, STACK
        LOCFRAME XSTACK, 31, STACK
        PUBLIC zcl_SendRead
        FUNCTION zcl_SendRead,0a1203H
        ARGFRAME XSTACK, 5, STACK
        LOCFRAME ISTACK, 1, STACK
        LOCFRAME XSTACK, 30, STACK
        PUBLIC zcl_SendReadRsp
        FUNCTION zcl_SendReadRsp,0a1203H
        ARGFRAME XSTACK, 35, STACK
        ARGFRAME IOVERLAY, 0, STATIC
        ARGFRAME DOVERLAY, 0, STATIC
        LOCFRAME ISTACK, 1, STACK
        LOCFRAME XSTACK, 33, STACK
        PUBLIC zcl_SendWriteRequest
        FUNCTION zcl_SendWriteRequest,0a1203H
        ARGFRAME XSTACK, 6, STACK
        LOCFRAME ISTACK, 1, STACK
        LOCFRAME XSTACK, 32, STACK
        PUBLIC zcl_SendWriteRsp
        FUNCTION zcl_SendWriteRsp,0a1203H
        ARGFRAME XSTACK, 41, STACK
        ARGFRAME IOVERLAY, 0, STATIC
        ARGFRAME DOVERLAY, 0, STATIC
        LOCFRAME ISTACK, 1, STACK
        LOCFRAME XSTACK, 30, STACK
        PUBLIC zcl_TaskID
        PUBLIC zcl_ValidateAttrDataCB
        FUNCTION zcl_addExternalFoundationHandler,0a1203H
        ARGFRAME XSTACK, 9, STACK
        ARGFRAME IOVERLAY, 0, STATIC
        ARGFRAME DOVERLAY, 0, STATIC
        LOCFRAME ISTACK, 1, STACK
        LOCFRAME XSTACK, 10, STACK
        PUBLIC zcl_event_loop
        FUNCTION zcl_event_loop,0a1203H
        ARGFRAME XSTACK, 0, STACK
        LOCFRAME XSTACK, 103, STACK
        FUNCTION zcl_getExternalFoundationHandler,0203H
        ARGFRAME XSTACK, 92, STACK
        ARGFRAME IOVERLAY, 0, STATIC
        ARGFRAME DOVERLAY, 0, STATIC
        LOCFRAME ISTACK, 2, STACK
        PUBLIC zcl_getParsedTransSeqNum
        FUNCTION zcl_getParsedTransSeqNum,0203H
        ARGFRAME XSTACK, 0, STACK
        LOCFRAME ISTACK, 2, STACK
        PUBLIC zcl_getRawAFMsg
        FUNCTION zcl_getRawAFMsg,0203H
        ARGFRAME XSTACK, 0, STACK
        LOCFRAME ISTACK, 2, STACK
        PUBLIC zcl_radius
        PUBLIC zcl_registerAttrList
        FUNCTION zcl_registerAttrList,0a1203H
        ARGFRAME XSTACK, 0, STACK
        LOCFRAME ISTACK, 1, STACK
        LOCFRAME XSTACK, 12, STACK
        PUBLIC zcl_registerClusterOptionList
        FUNCTION zcl_registerClusterOptionList,0a1203H
        ARGFRAME XSTACK, 0, STACK
        LOCFRAME ISTACK, 1, STACK
        LOCFRAME XSTACK, 12, STACK
        PUBLIC zcl_registerCmdList
        FUNCTION zcl_registerCmdList,0a1203H
        ARGFRAME XSTACK, 0, STACK
        LOCFRAME ISTACK, 1, STACK
        LOCFRAME XSTACK, 12, STACK
        PUBLIC zcl_registerForMsg
        FUNCTION zcl_registerForMsg,021203H
        ARGFRAME XSTACK, 0, STACK
        LOCFRAME XSTACK, 9, STACK
        PUBLIC zcl_registerForMsgExt
        FUNCTION zcl_registerForMsgExt,021203H
        ARGFRAME XSTACK, 0, STACK
        LOCFRAME XSTACK, 9, STACK
        PUBLIC zcl_registerPlugin
        FUNCTION zcl_registerPlugin,0a1203H
        ARGFRAME XSTACK, 2, STACK
        LOCFRAME XSTACK, 12, STACK
        PUBLIC zcl_registerReadWriteCB
        FUNCTION zcl_registerReadWriteCB,0a1203H
        ARGFRAME XSTACK, 0, STACK
        LOCFRAME XSTACK, 14, STACK
        PUBLIC zcl_registerValidateAttrData
        FUNCTION zcl_registerValidateAttrData,0203H
        ARGFRAME XSTACK, 0, STACK
        LOCFRAME ISTACK, 2, STACK
        
          CFI Names cfiNames0
          CFI StackFrame CFA_SP SP IDATA
          CFI StackFrame CFA_PSP16 PSP16 XDATA
          CFI StackFrame CFA_XSP16 XSP16 XDATA
          CFI StaticOverlayFrame CFA_IOVERLAY IOVERLAY
          CFI StaticOverlayFrame CFA_DOVERLAY DOVERLAY
          CFI Resource `PSW.CY`:1, `B.BR0`:1, `B.BR1`:1, `B.BR2`:1, `B.BR3`:1
          CFI Resource `B.BR4`:1, `B.BR5`:1, `B.BR6`:1, `B.BR7`:1, `VB.BR8`:1
          CFI Resource `VB.BR9`:1, `VB.BR10`:1, `VB.BR11`:1, `VB.BR12`:1
          CFI Resource `VB.BR13`:1, `VB.BR14`:1, `VB.BR15`:1, VB:8, B:8, A:8
          CFI Resource PSW:8, DPL0:8, DPH0:8, R0:8, R1:8, R2:8, R3:8, R4:8, R5:8
          CFI Resource R6:8, R7:8, V0:8, V1:8, V2:8, V3:8, V4:8, V5:8, V6:8, V7:8
          CFI Resource SP:8, PSPH:8, PSPL:8, PSP16:16, XSPH:8, XSPL:8, XSP16:16
          CFI VirtualResource ?RET:24
          CFI Resource ?BRET_EXT:8
          CFI VirtualResource ?RET_HIGH:8, ?RET_LOW:8
          CFI ResourceParts PSP16 PSPH, PSPL
          CFI ResourceParts XSP16 XSPH, XSPL
          CFI ResourceParts ?RET ?BRET_EXT, ?RET_HIGH, ?RET_LOW
          CFI EndNames cfiNames0
        
          CFI Common cfiCommon0 Using cfiNames0
          CFI CodeAlign 1
          CFI DataAlign -1
          CFI ReturnAddress ?RET CODE
          CFI CFA_DOVERLAY Used
          CFI CFA_IOVERLAY Used
          CFI CFA_SP SP+-3
          CFI CFA_PSP16 PSP16+0
          CFI CFA_XSP16 XSP16+0
          CFI `PSW.CY` SameValue
          CFI `B.BR0` SameValue
          CFI `B.BR1` SameValue
          CFI `B.BR2` SameValue
          CFI `B.BR3` SameValue
          CFI `B.BR4` SameValue
          CFI `B.BR5` SameValue
          CFI `B.BR6` SameValue
          CFI `B.BR7` SameValue
          CFI `VB.BR8` SameValue
          CFI `VB.BR9` SameValue
          CFI `VB.BR10` SameValue
          CFI `VB.BR11` SameValue
          CFI `VB.BR12` SameValue
          CFI `VB.BR13` SameValue
          CFI `VB.BR14` SameValue
          CFI `VB.BR15` SameValue
          CFI VB SameValue
          CFI B Undefined
          CFI A Undefined
          CFI PSW SameValue
          CFI DPL0 SameValue
          CFI DPH0 SameValue
          CFI R0 Undefined
          CFI R1 Undefined
          CFI R2 Undefined
          CFI R3 Undefined
          CFI R4 Undefined
          CFI R5 Undefined
          CFI R6 SameValue
          CFI R7 SameValue
          CFI V0 SameValue
          CFI V1 SameValue
          CFI V2 SameValue
          CFI V3 SameValue
          CFI V4 SameValue
          CFI V5 SameValue
          CFI V6 SameValue
          CFI V7 SameValue
          CFI PSPH Undefined
          CFI PSPL Undefined
          CFI XSPH Undefined
          CFI XSPL Undefined
          CFI ?RET Concat
          CFI ?BRET_EXT Frame(CFA_SP, 3)
          CFI ?RET_HIGH Frame(CFA_SP, 2)
          CFI ?RET_LOW Frame(CFA_SP, 1)
          CFI EndCommon cfiCommon0
        
        
          CFI Common cfiCommon1 Using cfiNames0
          CFI CodeAlign 1
          CFI DataAlign -1
          CFI ReturnAddress ?RET CODE
          CFI CFA_DOVERLAY Used
          CFI CFA_IOVERLAY Used
          CFI CFA_SP SP+-2
          CFI CFA_PSP16 PSP16+0
          CFI CFA_XSP16 XSP16+0
          CFI `PSW.CY` SameValue
          CFI `B.BR0` SameValue
          CFI `B.BR1` SameValue
          CFI `B.BR2` SameValue
          CFI `B.BR3` SameValue
          CFI `B.BR4` SameValue
          CFI `B.BR5` SameValue
          CFI `B.BR6` SameValue
          CFI `B.BR7` SameValue
          CFI `VB.BR8` SameValue
          CFI `VB.BR9` SameValue
          CFI `VB.BR10` SameValue
          CFI `VB.BR11` SameValue
          CFI `VB.BR12` SameValue
          CFI `VB.BR13` SameValue
          CFI `VB.BR14` SameValue
          CFI `VB.BR15` SameValue
          CFI VB SameValue
          CFI B SameValue
          CFI A SameValue
          CFI PSW SameValue
          CFI DPL0 SameValue
          CFI DPH0 SameValue
          CFI R0 SameValue
          CFI R1 SameValue
          CFI R2 SameValue
          CFI R3 SameValue
          CFI R4 SameValue
          CFI R5 SameValue
          CFI R6 SameValue
          CFI R7 SameValue
          CFI V0 SameValue
          CFI V1 SameValue
          CFI V2 SameValue
          CFI V3 SameValue
          CFI V4 SameValue
          CFI V5 SameValue
          CFI V6 SameValue
          CFI V7 SameValue
          CFI PSPH Undefined
          CFI PSPL Undefined
          CFI XSPH Undefined
          CFI XSPL Undefined
          CFI ?RET Concat
          CFI ?BRET_EXT SameValue
          CFI ?RET_HIGH Frame(CFA_SP, 2)
          CFI ?RET_LOW Frame(CFA_SP, 1)
          CFI EndCommon cfiCommon1
        
AF_DataRequest      SYMBOL "AF_DataRequest"
`??AF_DataRequest::?relay` SYMBOL "?relay", AF_DataRequest
afFindEndPointDesc  SYMBOL "afFindEndPointDesc"
`??afFindEndPointDesc::?relay` SYMBOL "?relay", afFindEndPointDesc
bdb_ZclIdentifyCmdInd SYMBOL "bdb_ZclIdentifyCmdInd"
`??bdb_ZclIdentifyCmdInd::?relay` SYMBOL "?relay", bdb_ZclIdentifyCmdInd
bdb_getZCLFrameCounter SYMBOL "bdb_getZCLFrameCounter"
`??bdb_getZCLFrameCounter::?relay` SYMBOL "?relay", bdb_getZCLFrameCounter
gp_GetHeadNotificationMsg SYMBOL "gp_GetHeadNotificationMsg"
`??gp_GetHeadNotificationMsg::?relay` SYMBOL "?relay", gp_GetHeadNotificationMsg
gp_GetPHeadNotification SYMBOL "gp_GetPHeadNotification"
`??gp_GetPHeadNotification::?relay` SYMBOL "?relay", gp_GetPHeadNotification
gp_NotificationMsgClean SYMBOL "gp_NotificationMsgClean"
`??gp_NotificationMsgClean::?relay` SYMBOL "?relay", gp_NotificationMsgClean
gp_getProxyTableByGpId SYMBOL "gp_getProxyTableByGpId"
`??gp_getProxyTableByGpId::?relay` SYMBOL "?relay", gp_getProxyTableByGpId
osal_buffer_uint32  SYMBOL "osal_buffer_uint32"
`??osal_buffer_uint32::?relay` SYMBOL "?relay", osal_buffer_uint32
osal_mem_alloc      SYMBOL "osal_mem_alloc"
`??osal_mem_alloc::?relay` SYMBOL "?relay", osal_mem_alloc
osal_mem_free       SYMBOL "osal_mem_free"
`??osal_mem_free::?relay` SYMBOL "?relay", osal_mem_free
osal_memcpy         SYMBOL "osal_memcpy"
`??osal_memcpy::?relay` SYMBOL "?relay", osal_memcpy
osal_memset         SYMBOL "osal_memset"
`??osal_memset::?relay` SYMBOL "?relay", osal_memset
osal_msg_allocate   SYMBOL "osal_msg_allocate"
`??osal_msg_allocate::?relay` SYMBOL "?relay", osal_msg_allocate
osal_msg_deallocate SYMBOL "osal_msg_deallocate"
`??osal_msg_deallocate::?relay` SYMBOL "?relay", osal_msg_deallocate
osal_msg_receive    SYMBOL "osal_msg_receive"
`??osal_msg_receive::?relay` SYMBOL "?relay", osal_msg_receive
osal_msg_send       SYMBOL "osal_msg_send"
`??osal_msg_send::?relay` SYMBOL "?relay", osal_msg_send
osal_revmemcpy      SYMBOL "osal_revmemcpy"
`??osal_revmemcpy::?relay` SYMBOL "?relay", osal_revmemcpy
osal_start_timerEx  SYMBOL "osal_start_timerEx"
`??osal_start_timerEx::?relay` SYMBOL "?relay", osal_start_timerEx
printf              SYMBOL "printf"
`??printf::?relay`  SYMBOL "?relay", printf
zclFindAttrRec      SYMBOL "zclFindAttrRec"
`??zclFindAttrRec::?relay` SYMBOL "?relay", zclFindAttrRec
zclFindAttrRecsList SYMBOL "zclFindAttrRecsList"
`??zclFindAttrRecsList::?relay` SYMBOL "?relay", zclFindAttrRecsList
zclFindCmdRec       SYMBOL "zclFindCmdRec"
`??zclFindCmdRec::?relay` SYMBOL "?relay", zclFindCmdRec
zclGetAttrDataLength SYMBOL "zclGetAttrDataLength"
`??zclGetAttrDataLength::?relay` SYMBOL "?relay", zclGetAttrDataLength
zclGetDataTypeLength SYMBOL "zclGetDataTypeLength"
`??zclGetDataTypeLength::?relay` SYMBOL "?relay", zclGetDataTypeLength
zclParseHdr         SYMBOL "zclParseHdr"
`??zclParseHdr::?relay` SYMBOL "?relay", zclParseHdr
zclParseInDiscAttrsCmd SYMBOL "zclParseInDiscAttrsCmd"
`??zclParseInDiscAttrsCmd::?relay` SYMBOL "?relay", zclParseInDiscAttrsCmd
zclParseInDiscCmdsCmd SYMBOL "zclParseInDiscCmdsCmd"
`??zclParseInDiscCmdsCmd::?relay` SYMBOL "?relay", zclParseInDiscCmdsCmd
zclParseInReadCmd   SYMBOL "zclParseInReadCmd"
`??zclParseInReadCmd::?relay` SYMBOL "?relay", zclParseInReadCmd
zclParseInWriteCmd  SYMBOL "zclParseInWriteCmd"
`??zclParseInWriteCmd::?relay` SYMBOL "?relay", zclParseInWriteCmd
zclReadAttrData     SYMBOL "zclReadAttrData"
`??zclReadAttrData::?relay` SYMBOL "?relay", zclReadAttrData
zclSerializeData    SYMBOL "zclSerializeData"
`??zclSerializeData::?relay` SYMBOL "?relay", zclSerializeData
zcl_HandleExternal  SYMBOL "zcl_HandleExternal"
`??zcl_HandleExternal::?relay` SYMBOL "?relay", zcl_HandleExternal
zcl_Init            SYMBOL "zcl_Init"
`??zcl_Init::?relay` SYMBOL "?relay", zcl_Init
zcl_ProcessMessageMSG SYMBOL "zcl_ProcessMessageMSG"
`??zcl_ProcessMessageMSG::?relay` SYMBOL "?relay", zcl_ProcessMessageMSG
zcl_ReadAttrData    SYMBOL "zcl_ReadAttrData"
`??zcl_ReadAttrData::?relay` SYMBOL "?relay", zcl_ReadAttrData
zcl_SendCommand     SYMBOL "zcl_SendCommand"
`??zcl_SendCommand::?relay` SYMBOL "?relay", zcl_SendCommand
zcl_SendDefaultRspCmd SYMBOL "zcl_SendDefaultRspCmd"
`??zcl_SendDefaultRspCmd::?relay` SYMBOL "?relay", zcl_SendDefaultRspCmd
zcl_SendDiscoverAttrsCmd SYMBOL "zcl_SendDiscoverAttrsCmd"
`??zcl_SendDiscoverAttrsCmd::?relay` SYMBOL "?relay", zcl_SendDiscoverAttrsCmd
zcl_SendDiscoverAttrsExt SYMBOL "zcl_SendDiscoverAttrsExt"
`??zcl_SendDiscoverAttrsExt::?relay` SYMBOL "?relay", zcl_SendDiscoverAttrsExt
zcl_SendDiscoverAttrsExtRsp SYMBOL "zcl_SendDiscoverAttrsExtRsp"
`??zcl_SendDiscoverAttrsExtRsp::?relay` SYMBOL "?relay", zcl_SendDiscoverAttrsExtRsp
zcl_SendDiscoverAttrsRspCmd SYMBOL "zcl_SendDiscoverAttrsRspCmd"
`??zcl_SendDiscoverAttrsRspCmd::?relay` SYMBOL "?relay", zcl_SendDiscoverAttrsRspCmd
zcl_SendDiscoverCmdsCmd SYMBOL "zcl_SendDiscoverCmdsCmd"
`??zcl_SendDiscoverCmdsCmd::?relay` SYMBOL "?relay", zcl_SendDiscoverCmdsCmd
zcl_SendDiscoverCmdsRspCmd SYMBOL "zcl_SendDiscoverCmdsRspCmd"
`??zcl_SendDiscoverCmdsRspCmd::?relay` SYMBOL "?relay", zcl_SendDiscoverCmdsRspCmd
zcl_SendRead        SYMBOL "zcl_SendRead"
`??zcl_SendRead::?relay` SYMBOL "?relay", zcl_SendRead
zcl_SendReadRsp     SYMBOL "zcl_SendReadRsp"
`??zcl_SendReadRsp::?relay` SYMBOL "?relay", zcl_SendReadRsp
zcl_SendWriteRequest SYMBOL "zcl_SendWriteRequest"
`??zcl_SendWriteRequest::?relay` SYMBOL "?relay", zcl_SendWriteRequest
zcl_SendWriteRsp    SYMBOL "zcl_SendWriteRsp"
`??zcl_SendWriteRsp::?relay` SYMBOL "?relay", zcl_SendWriteRsp
zcl_event_loop      SYMBOL "zcl_event_loop"
`??zcl_event_loop::?relay` SYMBOL "?relay", zcl_event_loop
zcl_getParsedTransSeqNum SYMBOL "zcl_getParsedTransSeqNum"
`??zcl_getParsedTransSeqNum::?relay` SYMBOL "?relay", zcl_getParsedTransSeqNum
zcl_getRawAFMsg     SYMBOL "zcl_getRawAFMsg"
`??zcl_getRawAFMsg::?relay` SYMBOL "?relay", zcl_getRawAFMsg
zcl_registerAttrList SYMBOL "zcl_registerAttrList"
`??zcl_registerAttrList::?relay` SYMBOL "?relay", zcl_registerAttrList
zcl_registerClusterOptionList SYMBOL "zcl_registerClusterOptionList"
`??zcl_registerClusterOptionList::?relay` SYMBOL "?relay", zcl_registerClusterOptionList
zcl_registerCmdList SYMBOL "zcl_registerCmdList"
`??zcl_registerCmdList::?relay` SYMBOL "?relay", zcl_registerCmdList
zcl_registerForMsg  SYMBOL "zcl_registerForMsg"
`??zcl_registerForMsg::?relay` SYMBOL "?relay", zcl_registerForMsg
zcl_registerForMsgExt SYMBOL "zcl_registerForMsgExt"
`??zcl_registerForMsgExt::?relay` SYMBOL "?relay", zcl_registerForMsgExt
zcl_registerPlugin  SYMBOL "zcl_registerPlugin"
`??zcl_registerPlugin::?relay` SYMBOL "?relay", zcl_registerPlugin
zcl_registerReadWriteCB SYMBOL "zcl_registerReadWriteCB"
`??zcl_registerReadWriteCB::?relay` SYMBOL "?relay", zcl_registerReadWriteCB
zcl_registerValidateAttrData SYMBOL "zcl_registerValidateAttrData"
`??zcl_registerValidateAttrData::?relay` SYMBOL "?relay", zcl_registerValidateAttrData

        EXTERN `??AF_DataRequest::?relay`
        FUNCTION `??AF_DataRequest::?relay`,00H
        EXTERN `??afFindEndPointDesc::?relay`
        FUNCTION `??afFindEndPointDesc::?relay`,00H
        EXTERN `??bdb_ZclIdentifyCmdInd::?relay`
        FUNCTION `??bdb_ZclIdentifyCmdInd::?relay`,00H
        EXTERN `??bdb_getZCLFrameCounter::?relay`
        FUNCTION `??bdb_getZCLFrameCounter::?relay`,00H
        EXTERN `??gp_GetHeadNotificationMsg::?relay`
        FUNCTION `??gp_GetHeadNotificationMsg::?relay`,00H
        EXTERN `??gp_GetPHeadNotification::?relay`
        FUNCTION `??gp_GetPHeadNotification::?relay`,00H
        EXTERN `??gp_NotificationMsgClean::?relay`
        FUNCTION `??gp_NotificationMsgClean::?relay`,00H
        EXTERN `??gp_getProxyTableByGpId::?relay`
        FUNCTION `??gp_getProxyTableByGpId::?relay`,00H
        EXTERN `??osal_buffer_uint32::?relay`
        FUNCTION `??osal_buffer_uint32::?relay`,00H
        EXTERN `??osal_mem_alloc::?relay`
        FUNCTION `??osal_mem_alloc::?relay`,00H
        EXTERN `??osal_mem_free::?relay`
        FUNCTION `??osal_mem_free::?relay`,00H
        EXTERN `??osal_memcpy::?relay`
        FUNCTION `??osal_memcpy::?relay`,00H
        EXTERN `??osal_memset::?relay`
        FUNCTION `??osal_memset::?relay`,00H
        EXTERN `??osal_msg_allocate::?relay`
        FUNCTION `??osal_msg_allocate::?relay`,00H
        EXTERN `??osal_msg_deallocate::?relay`
        FUNCTION `??osal_msg_deallocate::?relay`,00H
        EXTERN `??osal_msg_receive::?relay`
        FUNCTION `??osal_msg_receive::?relay`,00H
        EXTERN `??osal_msg_send::?relay`
        FUNCTION `??osal_msg_send::?relay`,00H
        EXTERN `??osal_revmemcpy::?relay`
        FUNCTION `??osal_revmemcpy::?relay`,00H
        EXTERN `??osal_start_timerEx::?relay`
        FUNCTION `??osal_start_timerEx::?relay`,00H
        EXTERN `??printf::?relay`
        FUNCTION `??printf::?relay`,00H
        EXTERN AF_DataRequest
        FUNCTION AF_DataRequest,0202H
        ARGFRAME ISTACK, 0, STACK
        ARGFRAME PSTACK, 0, STACK
        ARGFRAME XSTACK, 36, STACK
        ARGFRAME IOVERLAY, 0, STATIC
        ARGFRAME DOVERLAY, 0, STATIC
        EXTERN APS_Counter
        EXTERN _NIB
        EXTERN afFindEndPointDesc
        FUNCTION afFindEndPointDesc,0202H
        ARGFRAME ISTACK, 0, STACK
        ARGFRAME PSTACK, 0, STACK
        ARGFRAME XSTACK, 37, STACK
        ARGFRAME IOVERLAY, 0, STATIC
        ARGFRAME DOVERLAY, 0, STATIC
        EXTERN bdb_ZclIdentifyCmdInd
        FUNCTION bdb_ZclIdentifyCmdInd,0202H
        ARGFRAME ISTACK, 0, STACK
        ARGFRAME PSTACK, 0, STACK
        ARGFRAME XSTACK, 32, STACK
        ARGFRAME IOVERLAY, 0, STATIC
        ARGFRAME DOVERLAY, 0, STATIC
        EXTERN bdb_getZCLFrameCounter
        FUNCTION bdb_getZCLFrameCounter,0202H
        ARGFRAME ISTACK, 0, STACK
        ARGFRAME PSTACK, 0, STACK
        ARGFRAME XSTACK, 92, STACK
        ARGFRAME IOVERLAY, 0, STATIC
        ARGFRAME DOVERLAY, 0, STATIC
        EXTERN gp_GetHeadNotificationMsg
        FUNCTION gp_GetHeadNotificationMsg,0202H
        ARGFRAME ISTACK, 0, STACK
        ARGFRAME PSTACK, 0, STACK
        ARGFRAME XSTACK, 92, STACK
        ARGFRAME IOVERLAY, 0, STATIC
        ARGFRAME DOVERLAY, 0, STATIC
        EXTERN gp_GetPHeadNotification
        FUNCTION gp_GetPHeadNotification,0202H
        ARGFRAME ISTACK, 0, STACK
        ARGFRAME PSTACK, 0, STACK
        ARGFRAME XSTACK, 92, STACK
        ARGFRAME IOVERLAY, 0, STATIC
        ARGFRAME DOVERLAY, 0, STATIC
        EXTERN gp_NotificationMsgClean
        FUNCTION gp_NotificationMsgClean,0202H
        ARGFRAME ISTACK, 0, STACK
        ARGFRAME PSTACK, 0, STACK
        ARGFRAME XSTACK, 92, STACK
        ARGFRAME IOVERLAY, 0, STATIC
        ARGFRAME DOVERLAY, 0, STATIC
        EXTERN gp_getProxyTableByGpId
        FUNCTION gp_getProxyTableByGpId,0202H
        ARGFRAME ISTACK, 0, STACK
        ARGFRAME PSTACK, 0, STACK
        ARGFRAME XSTACK, 94, STACK
        ARGFRAME IOVERLAY, 0, STATIC
        ARGFRAME DOVERLAY, 0, STATIC
        EXTERN osal_buffer_uint32
        FUNCTION osal_buffer_uint32,0202H
        ARGFRAME ISTACK, 0, STACK
        ARGFRAME PSTACK, 0, STACK
        ARGFRAME XSTACK, 19, STACK
        ARGFRAME IOVERLAY, 0, STATIC
        ARGFRAME DOVERLAY, 0, STATIC
        EXTERN osal_mem_alloc
        FUNCTION osal_mem_alloc,0202H
        ARGFRAME ISTACK, 0, STACK
        ARGFRAME PSTACK, 0, STACK
        ARGFRAME XSTACK, 36, STACK
        ARGFRAME IOVERLAY, 0, STATIC
        ARGFRAME DOVERLAY, 0, STATIC
        EXTERN osal_mem_free
        FUNCTION osal_mem_free,0202H
        ARGFRAME ISTACK, 0, STACK
        ARGFRAME PSTACK, 0, STACK
        ARGFRAME XSTACK, 37, STACK
        ARGFRAME IOVERLAY, 0, STATIC
        ARGFRAME DOVERLAY, 0, STATIC
        EXTERN osal_memcpy
        FUNCTION osal_memcpy,0202H
        ARGFRAME ISTACK, 0, STACK
        ARGFRAME PSTACK, 0, STACK
        ARGFRAME XSTACK, 95, STACK
        ARGFRAME IOVERLAY, 0, STATIC
        ARGFRAME DOVERLAY, 0, STATIC
        EXTERN osal_memset
        FUNCTION osal_memset,0202H
        ARGFRAME ISTACK, 0, STACK
        ARGFRAME PSTACK, 0, STACK
        ARGFRAME XSTACK, 27, STACK
        ARGFRAME IOVERLAY, 0, STATIC
        ARGFRAME DOVERLAY, 0, STATIC
        EXTERN osal_msg_allocate
        FUNCTION osal_msg_allocate,0202H
        ARGFRAME ISTACK, 0, STACK
        ARGFRAME PSTACK, 0, STACK
        ARGFRAME XSTACK, 12, STACK
        ARGFRAME IOVERLAY, 0, STATIC
        ARGFRAME DOVERLAY, 0, STATIC
        EXTERN osal_msg_deallocate
        FUNCTION osal_msg_deallocate,0202H
        ARGFRAME ISTACK, 0, STACK
        ARGFRAME PSTACK, 0, STACK
        ARGFRAME XSTACK, 92, STACK
        ARGFRAME IOVERLAY, 0, STATIC
        ARGFRAME DOVERLAY, 0, STATIC
        EXTERN osal_msg_receive
        FUNCTION osal_msg_receive,0202H
        ARGFRAME ISTACK, 0, STACK
        ARGFRAME PSTACK, 0, STACK
        ARGFRAME XSTACK, 92, STACK
        ARGFRAME IOVERLAY, 0, STATIC
        ARGFRAME DOVERLAY, 0, STATIC
        EXTERN osal_msg_send
        FUNCTION osal_msg_send,0202H
        ARGFRAME ISTACK, 0, STACK
        ARGFRAME PSTACK, 0, STACK
        ARGFRAME XSTACK, 92, STACK
        ARGFRAME IOVERLAY, 0, STATIC
        ARGFRAME DOVERLAY, 0, STATIC
        EXTERN osal_revmemcpy
        FUNCTION osal_revmemcpy,0202H
        ARGFRAME ISTACK, 0, STACK
        ARGFRAME PSTACK, 0, STACK
        ARGFRAME XSTACK, 95, STACK
        ARGFRAME IOVERLAY, 0, STATIC
        ARGFRAME DOVERLAY, 0, STATIC
        EXTERN osal_start_timerEx
        FUNCTION osal_start_timerEx,0202H
        ARGFRAME ISTACK, 0, STACK
        ARGFRAME PSTACK, 0, STACK
        ARGFRAME XSTACK, 96, STACK
        ARGFRAME IOVERLAY, 0, STATIC
        ARGFRAME DOVERLAY, 0, STATIC
        EXTERN printf
        FUNCTION printf,0202H
        ARGFRAME ISTACK, 0, STACK
        ARGFRAME PSTACK, 0, STACK
        ARGFRAME XSTACK, 32, STACK
        ARGFRAME IOVERLAY, 0, STATIC
        ARGFRAME DOVERLAY, 0, STATIC

// D:\fuzzing-coordinator-response-collection\Components\stack\zcl\zcl.c
//    1 /**************************************************************************************************
//    2   Filename:       zcl.c
//    3   Revised:        $Date: 2015-09-09 11:51:49 -0700 (Wed, 09 Sep 2015) $
//    4   Revision:       $Revision: 44489 $
//    5 
//    6   Description:    This file contains the Zigbee Cluster Library Foundation functions.
//    7 
//    8 
//    9   Copyright 2006-2015 Texas Instruments Incorporated. All rights reserved.
//   10 
//   11   IMPORTANT: Your use of this Software is limited to those specific rights
//   12   granted under the terms of a software license agreement between the user
//   13   who downloaded the software, his/her employer (which must be your employer)
//   14   and Texas Instruments Incorporated (the "License").  You may not use this
//   15   Software unless you agree to abide by the terms of the License. The License
//   16   limits your use, and you acknowledge, that the Software may not be modified,
//   17   copied or distributed unless embedded on a Texas Instruments microcontroller
//   18   or used solely and exclusively in conjunction with a Texas Instruments radio
//   19   frequency transceiver, which is integrated into your product.  Other than for
//   20   the foregoing purpose, you may not use, reproduce, copy, prepare derivative
//   21   works of, modify, distribute, perform, display or sell this Software and/or
//   22   its documentation for any purpose.
//   23 
//   24   YOU FURTHER ACKNOWLEDGE AND AGREE THAT THE SOFTWARE AND DOCUMENTATION ARE
//   25   PROVIDED "AS IS" WITHOUT WARRANTY OF ANY KIND, EITHER EXPRESS OR IMPLIED,
//   26   INCLUDING WITHOUT LIMITATION, ANY WARRANTY OF MERCHANTABILITY, TITLE,
//   27   NON-INFRINGEMENT AND FITNESS FOR A PARTICULAR PURPOSE. IN NO EVENT SHALL
//   28   TEXAS INSTRUMENTS OR ITS LICENSORS BE LIABLE OR OBLIGATED UNDER CONTRACT,
//   29   NEGLIGENCE, STRICT LIABILITY, CONTRIBUTION, BREACH OF WARRANTY, OR OTHER
//   30   LEGAL EQUITABLE THEORY ANY DIRECT OR INDIRECT DAMAGES OR EXPENSES
//   31   INCLUDING BUT NOT LIMITED TO ANY INCIDENTAL, SPECIAL, INDIRECT, PUNITIVE
//   32   OR CONSEQUENTIAL DAMAGES, LOST PROFITS OR LOST DATA, COST OF PROCUREMENT
//   33   OF SUBSTITUTE GOODS, TECHNOLOGY, SERVICES, OR ANY CLAIMS BY THIRD PARTIES
//   34   (INCLUDING BUT NOT LIMITED TO ANY DEFENSE THEREOF), OR OTHER SIMILAR COSTS.
//   35 
//   36   Should you have any questions regarding your right to use this Software,
//   37   contact Texas Instruments Incorporated at www.TI.com.
//   38 **************************************************************************************************/
//   39 
//   40 /*********************************************************************
//   41  * INCLUDES
//   42  */
//   43 #include "ZComDef.h"
//   44 #include "AF.h"
//   45 #include "APS.h"
//   46 #include "zcl.h"
//   47 #include "zcl_general.h"
//   48 #include <stdio.h>
//   49 
//   50 #if defined ( INTER_PAN )
//   51   #include "stub_aps.h"
//   52 #endif
//   53    
//   54 #ifdef BDB_REPORTING
//   55   #include "bdb_Reporting.h"
//   56 #endif
//   57 #include "bdb_interface.h"
//   58 
//   59 #include "zcl_green_power.h"
//   60 
//   61    
//   62 /*********************************************************************
//   63  * MACROS
//   64  */
//   65 /*** Frame Control ***/
//   66 #define zcl_FCType( a )               ( (a) & ZCL_FRAME_CONTROL_TYPE )
//   67 #define zcl_FCManuSpecific( a )       ( (a) & ZCL_FRAME_CONTROL_MANU_SPECIFIC )
//   68 #define zcl_FCDirection( a )          ( (a) & ZCL_FRAME_CONTROL_DIRECTION )
//   69 #define zcl_FCDisableDefaultRsp( a )  ( (a) & ZCL_FRAME_CONTROL_DISABLE_DEFAULT_RSP )
//   70 
//   71 /*** Attribute Access Control ***/
//   72 #define zcl_AccessCtrlRead( a )       ( (a) & ACCESS_CONTROL_READ )
//   73 #define zcl_AccessCtrlWrite( a )      ( (a) & ACCESS_CONTROL_WRITE )
//   74 #define zcl_AccessCtrlCmd( a )        ( (a) & ACCESS_CONTROL_CMD )
//   75 #define zcl_AccessCtrlAuthRead( a )   ( (a) & ACCESS_CONTROL_AUTH_READ )
//   76 #define zcl_AccessCtrlAuthWrite( a )  ( (a) & ACCESS_CONTROL_AUTH_WRITE )
//   77 #define zcl_AccessClient( a )         ( (a) & ACCESS_CLIENT )
//   78 
//   79 #define zclParseCmd( a, b )           zclCmdTable[(a)].pfnParseInProfile( (b) )
//   80 #define zclProcessCmd( a, b )         zclCmdTable[(a)].pfnProcessInProfile( (b) )
//   81 
//   82 #define zcl_DefaultRspCmd( zclHdr )   ( zcl_ProfileCmd( (zclHdr).fc.type )     && \ 
//   83                                         (zclHdr).fc.manuSpecific == 0          && \ 
//   84                                         (zclHdr).commandID == ZCL_CMD_DEFAULT_RSP )
//   85 
//   86 // Commands that have corresponding responses (ZCL_CMD_WRITE_NO_RSP, does not have response, but must not send default response)
//   87 #define CMD_HAS_RSP( cmd )            ( (cmd) == ZCL_CMD_READ                   || \ 
//   88                                         (cmd) == ZCL_CMD_WRITE                  || \ 
//   89                                         (cmd) == ZCL_CMD_WRITE_UNDIVIDED        || \ 
//   90                                         (cmd) == ZCL_CMD_WRITE_NO_RSP           || \ 
//   91                                         (cmd) == ZCL_CMD_CONFIG_REPORT          || \ 
//   92                                         (cmd) == ZCL_CMD_READ_REPORT_CFG        || \ 
//   93                                         (cmd) == ZCL_CMD_DISCOVER_ATTRS         || \ 
//   94                                         (cmd) == ZCL_CMD_DISCOVER_CMDS_RECEIVED || \ 
//   95                                         (cmd) == ZCL_CMD_DISCOVER_CMDS_GEN      || \ 
//   96                                         (cmd) == ZCL_CMD_DISCOVER_ATTRS_EXT     || \ 
//   97                                         (cmd) == ZCL_CMD_DEFAULT_RSP ) // exception
//   98 #define  ZCL_VALID_MIN_HEADER_LEN  3
//   99 
//  100 /*********************************************************************
//  101  * CONSTANTS
//  102  */
//  103 
//  104 /*********************************************************************
//  105  * TYPEDEFS
//  106  */
//  107 typedef struct zclLibPlugin
//  108 {
//  109   struct zclLibPlugin *next;
//  110   uint16              startClusterID;    // starting cluster ID
//  111   uint16              endClusterID;      // ending cluster ID
//  112   zclInHdlr_t         pfnIncomingHdlr;    // function to handle incoming message
//  113 } zclLibPlugin_t;
//  114 
//  115 // Command record list
//  116 typedef struct zclCmdRecsList
//  117 {
//  118   struct zclCmdRecsList *pNext;
//  119   uint8                 endpoint;
//  120   uint8                 numCommands;
//  121   CONST zclCommandRec_t *pCmdRecs;
//  122 } zclCmdRecsList_t;
//  123 
//  124 
//  125 // Cluster option list item
//  126 typedef struct zclClusterOptionList
//  127 {
//  128   struct zclClusterOptionList *next;
//  129   uint8                       endpoint;   // Used to link it into the endpoint descriptor
//  130   uint8                       numOptions; // Number of the following records
//  131   zclOptionRec_t              *options;   // option records
//  132 } zclClusterOptionList;
//  133 
//  134 typedef void *(*zclParseInProfileCmd_t)( zclParseCmd_t *pCmd );
//  135 typedef uint8 (*zclProcessInProfileCmd_t)( zclIncoming_t *pInMsg );
//  136 
//  137 typedef struct
//  138 {
//  139   zclParseInProfileCmd_t   pfnParseInProfile;
//  140   zclProcessInProfileCmd_t pfnProcessInProfile;
//  141 } zclCmdItems_t;
//  142 
//  143 
//  144 // List record for external handler for unhandled ZCL Foundation commands/rsps
//  145 typedef struct zclExternalFoundationHandlerList
//  146 {
//  147     struct zclExternalFoundationHandlerList *next;
//  148     uint8 zcl_ExternalTaskID;
//  149     uint8 zcl_ExternalEndPoint;
//  150 } zclExternalFoundationHandlerList;
//  151 
//  152 
//  153 /*********************************************************************
//  154  * GLOBAL VARIABLES
//  155  */
//  156 
//  157 #if !defined ( ZCL_STANDALONE )

        RSEG XDATA_Z:XDATA:NOROOT(0)
        DATA8
//  158   uint8 zcl_TaskID;
zcl_TaskID:
        DS 1
        REQUIRE __INIT_XDATA_Z
//  159 #endif
//  160 
//  161 // The Application should register its attribute data validation function

        RSEG XDATA_Z:XDATA:NOROOT(0)
        DATA16
//  162 zclValidateAttrData_t zcl_ValidateAttrDataCB = (zclValidateAttrData_t)NULL;
zcl_ValidateAttrDataCB:
        DS 2
        REQUIRE __INIT_XDATA_Z
//  163 
//  164 // ZCL Sequence number
//  165 //uint8 zcl_SeqNum = 0x00;  //Not longer used, refer to bdb_getZCLFrameCounter() in bdb_interface.h

        RSEG XDATA_Z:XDATA:NOROOT(0)
        DATA8
//  166 uint8 zcl_InSeqNum = 0x00;
zcl_InSeqNum:
        DS 1
        REQUIRE __INIT_XDATA_Z
//  167 

        RSEG XDATA_I:XDATA:NOROOT(0)
//  168 uint8 zcl_radius = AF_DEFAULT_RADIUS;
zcl_radius:
        DATA8
        DS 1
        REQUIRE `?<Initializer for zcl_radius>`
        REQUIRE __INIT_XDATA_I
//  169 

        RSEG XDATA_Z:XDATA:NOROOT(0)
        DATA8
//  170 static uint8 savedZCLTransSeqNum = 0;
savedZCLTransSeqNum:
        DS 1
        REQUIRE __INIT_XDATA_Z
//  171 
//  172 /*********************************************************************
//  173  * EXTERNAL VARIABLES
//  174  */
//  175 
//  176 /*********************************************************************
//  177  * EXTERNAL FUNCTIONS
//  178  */
//  179 
//  180 /*********************************************************************
//  181  * LOCAL VARIABLES
//  182  */

        RSEG XDATA_Z:XDATA:NOROOT(0)
        DATA16
//  183 static zclLibPlugin_t *plugins = (zclLibPlugin_t *)NULL;
plugins:
        DS 2
        REQUIRE __INIT_XDATA_Z
//  184 
//  185 #if defined ( ZCL_DISCOVER )

        RSEG XDATA_Z:XDATA:NOROOT(0)
        DATA16
//  186   static zclCmdRecsList_t *gpCmdList = (zclCmdRecsList_t *)NULL;
gpCmdList:
        DS 2
        REQUIRE __INIT_XDATA_Z
//  187 #endif
//  188 

        RSEG XDATA_Z:XDATA:NOROOT(0)
        DATA16
//  189 static zclAttrRecsList *attrList = (zclAttrRecsList *)NULL;
attrList:
        DS 2
        REQUIRE __INIT_XDATA_Z

        RSEG XDATA_Z:XDATA:NOROOT(0)
        DATA16
//  190 static zclClusterOptionList *clusterOptionList = (zclClusterOptionList *)NULL;
clusterOptionList:
        DS 2
        REQUIRE __INIT_XDATA_Z
//  191 

        RSEG XDATA_Z:XDATA:NOROOT(0)
        DATA16
//  192 static afIncomingMSGPacket_t *rawAFMsg = (afIncomingMSGPacket_t *)NULL;
rawAFMsg:
        DS 2
        REQUIRE __INIT_XDATA_Z
//  193 
//  194 #if !defined ( ZCL_STANDALONE )

        RSEG XDATA_Z:XDATA:NOROOT(0)
        DATA16
//  195 static zclExternalFoundationHandlerList *externalEndPointHandlerList = (zclExternalFoundationHandlerList *)NULL;
externalEndPointHandlerList:
        DS 2
        REQUIRE __INIT_XDATA_Z
//  196 #endif
//  197 
//  198 /*********************************************************************
//  199  * LOCAL FUNCTIONS
//  200  */
//  201 static uint8 *zclBuildHdr( zclFrameHdr_t *hdr, uint8 *pData );
//  202 static uint8 zclCalcHdrSize( zclFrameHdr_t *hdr );
//  203 static zclLibPlugin_t *zclFindPlugin( uint16 clusterID, uint16 profileID );
//  204 
//  205 #if !defined ( ZCL_STANDALONE )
//  206 static uint8 zcl_addExternalFoundationHandler( uint8 taskId, uint8 endPointId );
//  207 static uint8 zcl_getExternalFoundationHandler( afIncomingMSGPacket_t *pInMsg );
//  208 #endif // !defined ( ZCL_STANDALONE )
//  209 
//  210 #if defined ( ZCL_DISCOVER )
//  211   static zclCmdRecsList_t *zclFindCmdRecsList( uint8 endpoint );
//  212 #endif
//  213 
//  214 zclAttrRecsList *zclFindAttrRecsList( uint8 endpoint );
//  215 static zclOptionRec_t *zclFindClusterOption( uint8 endpoint, uint16 clusterID );
//  216 static uint8 zclGetClusterOption( uint8 endpoint, uint16 clusterID );
//  217 static void zclSetSecurityOption( uint8 endpoint, uint16 clusterID, uint8 enable );
//  218 
//  219 static uint8 zcl_DeviceOperational( uint8 srcEP, uint16 clusterID, uint8 frameType, uint8 cmd, uint16 profileID );
//  220 
//  221 #if defined ( ZCL_READ ) || defined ( ZCL_WRITE )
//  222 static zclReadWriteCB_t zclGetReadWriteCB( uint8 endpoint );
//  223 static zclAuthorizeCB_t zclGetAuthorizeCB( uint8 endpoint );
//  224 #endif // ZCL_READ || ZCL_WRITE
//  225 
//  226 #ifdef ZCL_READ
//  227 ZStatus_t zclReadAttrData( uint8 *pAttrData, zclAttrRec_t *pAttr, uint16 *pDataLen );
//  228 static uint16 zclGetAttrDataLengthUsingCB( uint8 endpoint, uint16 clusterID, uint16 attrId );
//  229 static ZStatus_t zclReadAttrDataUsingCB( uint8 endpoint, uint16 clusterId, uint16 attrId,
//  230                                          uint8 *pAttrData, uint16 *pDataLen );
//  231 static ZStatus_t zclAuthorizeRead( uint8 endpoint, afAddrType_t *srcAddr, zclAttrRec_t *pAttr );
//  232 static void *zclParseInReadRspCmd( zclParseCmd_t *pCmd );
//  233 static uint8 zclProcessInReadCmd( zclIncoming_t *pInMsg );
//  234 #endif // ZCL_READ
//  235 
//  236 #ifdef ZCL_WRITE
//  237 static ZStatus_t zclWriteAttrData( uint8 endpoint, afAddrType_t *srcAddr,
//  238                                    zclAttrRec_t *pAttr, zclWriteRec_t *pWriteRec );
//  239 static ZStatus_t zclWriteAttrDataUsingCB( uint8 endpoint, afAddrType_t *srcAddr,
//  240                                           zclAttrRec_t *pAttr, uint8 *pAttrData );
//  241 static ZStatus_t zclAuthorizeWrite( uint8 endpoint, afAddrType_t *srcAddr, zclAttrRec_t *pAttr );
//  242 static void *zclParseInWriteRspCmd( zclParseCmd_t *pCmd );
//  243 static uint8 zclProcessInWriteCmd( zclIncoming_t *pInMsg );
//  244 static uint8 zclProcessInWriteUndividedCmd( zclIncoming_t *pInMsg );
//  245 #endif // ZCL_WRITE
//  246 
//  247 #ifdef ZCL_REPORT_CONFIGURING_DEVICE
//  248 static void *zclParseInConfigReportRspCmd( zclParseCmd_t *pCmd );
//  249 static void *zclParseInReadReportCfgRspCmd( zclParseCmd_t *pCmd );
//  250 #endif
//  251 
//  252 static void *zclParseInDefaultRspCmd( zclParseCmd_t *pCmd );
//  253 
//  254 #ifdef ZCL_DISCOVER
//  255 static uint8 zclFindNextCmdRec( uint8 endpoint, uint16 clusterID, uint8 commandID, uint8 direction, uint8 *pCmdID, zclCommandRec_t *pCmd );
//  256 static uint8 zclFindNextAttrRec( uint8 endpoint, uint16 clusterID, uint8 direction, uint16 *attrId, zclAttrRec_t *pAttr );
//  257 static void *zclParseInDiscCmdsRspCmd( zclParseCmd_t *pCmd );
//  258 static void *zclParseInDiscAttrsRspCmd( zclParseCmd_t *pCmd );
//  259 static void *zclParseInDiscAttrsExtRspCmd( zclParseCmd_t *pCmd );
//  260 static uint8 zclProcessInDiscCmd( zclIncoming_t *pInMsg );
//  261 static uint8 zclProcessInDiscAttrs( zclIncoming_t *pInMsg );
//  262 static void zclProcessInDiscAttrsCmd( zclIncoming_t *pInMsg, zclDiscoverAttrsCmd_t *pDiscoverCmd, uint8 attrLenBuf );
//  263 static void zclProcessInDiscAttrsExtCmd( zclIncoming_t *pInMsg, zclDiscoverAttrsCmd_t *pDiscoverCmd, uint8 attrLenBuf );
//  264 #endif // ZCL_DISCOVER
//  265 
//  266 /*********************************************************************
//  267  * Parse Profile Command Function Table
//  268  */
//  269 

        RSEG CODE_C:CODE:REORDER:NOROOT(0)
        DATA8
//  270 static CONST zclCmdItems_t zclCmdTable[] =
zclCmdTable:
        DATA16
        DW `??zclParseInReadCmd::?relay`
        DW `??zclProcessInReadCmd::?relay`
        DW `??zclParseInReadRspCmd::?relay`
        DW `??zcl_HandleExternal::?relay`
        DW `??zclParseInWriteCmd::?relay`
        DW `??zclProcessInWriteCmd::?relay`
        DW `??zclParseInWriteCmd::?relay`
        DW `??zclProcessInWriteUndividedCmd::?relay`
        DW `??zclParseInWriteRspCmd::?relay`
        DW `??zcl_HandleExternal::?relay`
        DW `??zclParseInWriteCmd::?relay`
        DW `??zclProcessInWriteCmd::?relay`
        DW 0H
        DW 0H
        DW 0H
        DW 0H
        DW 0H
        DW 0H
        DW 0H
        DW 0H
        DW 0H
        DW 0H
        DW `??zclParseInDefaultRspCmd::?relay`
        DW `??zcl_HandleExternal::?relay`
        DW `??zclParseInDiscAttrsCmd::?relay`
        DW `??zclProcessInDiscAttrs::?relay`
        DW `??zclParseInDiscAttrsRspCmd::?relay`
        DW `??zcl_HandleExternal::?relay`
        DW 0H
        DW 0H
        DW 0H
        DW 0H
        DW 0H
        DW 0H
        DW `??zclParseInDiscCmdsCmd::?relay`
        DW `??zclProcessInDiscCmd::?relay`
        DW `??zclParseInDiscCmdsRspCmd::?relay`
        DW `??zcl_HandleExternal::?relay`
        DW `??zclParseInDiscCmdsCmd::?relay`
        DW `??zclProcessInDiscCmd::?relay`
        DW `??zclParseInDiscCmdsRspCmd::?relay`
        DW `??zcl_HandleExternal::?relay`
        DW `??zclParseInDiscAttrsCmd::?relay`
        DW `??zclProcessInDiscAttrs::?relay`
        DW `??zclParseInDiscAttrsExtRspCmd::?relay`
        DW `??zcl_HandleExternal::?relay`
//  271 {
//  272 #ifdef ZCL_READ
//  273   /* ZCL_CMD_READ */                { zclParseInReadCmd,             zclProcessInReadCmd             },
//  274   /* ZCL_CMD_READ_RSP */            { zclParseInReadRspCmd,          zcl_HandleExternal              },
//  275 #else
//  276   /* ZCL_CMD_READ */                { (zclParseInProfileCmd_t)NULL,  (zclProcessInProfileCmd_t)NULL  },
//  277   /* ZCL_CMD_READ_RSP */            { (zclParseInProfileCmd_t)NULL,  (zclProcessInProfileCmd_t)NULL  },
//  278 #endif // ZCL_READ
//  279 
//  280 #ifdef ZCL_WRITE
//  281   /* ZCL_CMD_WRITE */               { zclParseInWriteCmd,            zclProcessInWriteCmd            },
//  282   /* ZCL_CMD_WRITE_UNDIVIDED */     { zclParseInWriteCmd,            zclProcessInWriteUndividedCmd   },
//  283   /* ZCL_CMD_WRITE_RSP */           { zclParseInWriteRspCmd,         zcl_HandleExternal              },
//  284   /* ZCL_CMD_WRITE_NO_RSP */        { zclParseInWriteCmd,            zclProcessInWriteCmd            },
//  285 #else
//  286   /* ZCL_CMD_WRITE */               { (zclParseInProfileCmd_t)NULL,  (zclProcessInProfileCmd_t)NULL  },
//  287   /* ZCL_CMD_WRITE_UNDIVIDED */     { (zclParseInProfileCmd_t)NULL,  (zclProcessInProfileCmd_t)NULL  },
//  288   /* ZCL_CMD_WRITE_RSP */           { (zclParseInProfileCmd_t)NULL,  (zclProcessInProfileCmd_t)NULL  },
//  289   /* ZCL_CMD_WRITE_NO_RSP */        { (zclParseInProfileCmd_t)NULL,  (zclProcessInProfileCmd_t)NULL  },
//  290 #endif // ZCL_WRITE
//  291 
//  292 #ifdef ZCL_REPORTING_DEVICE
//  293     /* ZCL_CMD_CONFIG_REPORT */       { zclParseInConfigReportCmd,     zcl_HandleExternal              },
//  294 #else
//  295     /* ZCL_CMD_CONFIG_REPORT */       { (zclParseInProfileCmd_t)NULL,  (zclProcessInProfileCmd_t)NULL  },
//  296 #endif
//  297 
//  298 #ifdef ZCL_REPORT_CONFIGURING_DEVICE
//  299     /* ZCL_CMD_CONFIG_REPORT_RSP */   { zclParseInConfigReportRspCmd,  zcl_HandleExternal              },
//  300 #else
//  301     /* ZCL_CMD_CONFIG_REPORT_RSP */   { (zclParseInProfileCmd_t)NULL,  (zclProcessInProfileCmd_t)NULL  },
//  302 #endif
//  303 
//  304 #ifdef ZCL_REPORTING_DEVICE
//  305     /* ZCL_CMD_READ_REPORT_CFG */     { zclParseInReadReportCfgCmd,    zcl_HandleExternal              },
//  306 #else
//  307     /* ZCL_CMD_READ_REPORT_CFG */     { (zclParseInProfileCmd_t)NULL,  (zclProcessInProfileCmd_t)NULL  },
//  308 #endif
//  309 
//  310 #ifdef ZCL_REPORT_CONFIGURING_DEVICE
//  311     /* ZCL_CMD_READ_REPORT_CFG_RSP */ { zclParseInReadReportCfgRspCmd, zcl_HandleExternal              },
//  312 #else
//  313     /* ZCL_CMD_READ_REPORT_CFG_RSP */ { (zclParseInProfileCmd_t)NULL,  (zclProcessInProfileCmd_t)NULL  },
//  314 #endif
//  315 
//  316 #ifdef ZCL_REPORT_DESTINATION_DEVICE
//  317     /* ZCL_CMD_REPORT */              { zclParseInReportCmd,           zcl_HandleExternal              },
//  318 #else
//  319     /* ZCL_CMD_REPORT */              { (zclParseInProfileCmd_t)NULL,  (zclProcessInProfileCmd_t)NULL  },
//  320 #endif
//  321 
//  322   /* ZCL_CMD_DEFAULT_RSP */         { zclParseInDefaultRspCmd,       zcl_HandleExternal              },
//  323 
//  324 #ifdef ZCL_DISCOVER
//  325   /* ZCL_CMD_DISCOVER_ATTRS */                { zclParseInDiscAttrsCmd,         zclProcessInDiscAttrs           },
//  326   /* ZCL_CMD_DISCOVER_ATTRS_RSP */            { zclParseInDiscAttrsRspCmd,      zcl_HandleExternal              },
//  327   /* *not supported* READ_ATTRS_STRCT */      { NULL,                           (zclProcessInProfileCmd_t)NULL  },
//  328   /* *not supported* WRITE_ATTRS_STRCT */     { NULL,                           (zclProcessInProfileCmd_t)NULL  },
//  329   /* *not supported* WRITE_ATTRS_STRCT_RSP */ { NULL,                           (zclProcessInProfileCmd_t)NULL  },
//  330   /* ZCL_CMD_DISCOVER_CMDS_RECEIVED */        { zclParseInDiscCmdsCmd,          zclProcessInDiscCmd             },
//  331   /* ZCL_CMD_DISCOVER_CMDS_RECEIVED_RSP */    { zclParseInDiscCmdsRspCmd,       zcl_HandleExternal              },
//  332   /* ZCL_CMD_DISCOVER_CMDS_GEN */             { zclParseInDiscCmdsCmd,          zclProcessInDiscCmd             },
//  333   /* ZCL_CMD_DISCOVER_CMDS_GEN_RSP */         { zclParseInDiscCmdsRspCmd,       zcl_HandleExternal              },
//  334   /* ZCL_CMD_DISCOVER_ATTRS_EXT */            { zclParseInDiscAttrsCmd,         zclProcessInDiscAttrs           },
//  335   /* ZCL_CMD_DISCOVER_ATTRS_EXT_RSP */        { zclParseInDiscAttrsExtRspCmd,   zcl_HandleExternal              },
//  336 #else
//  337   /* ZCL_CMD_DISCOVER_ATTRS */                { (zclParseInProfileCmd_t)NULL,    (zclProcessInProfileCmd_t)NULL  },
//  338   /* ZCL_CMD_DISCOVER_ATTRS_RSP */            { (zclParseInProfileCmd_t)NULL,   (zclProcessInProfileCmd_t)NULL  },
//  339   /* *not supported* READ_ATTRS_STRCT */      { (zclParseInProfileCmd_t)NULL,   (zclProcessInProfileCmd_t)NULL  },
//  340   /* *not supported* WRITE_ATTRS_STRCT */     { (zclParseInProfileCmd_t)NULL,   (zclProcessInProfileCmd_t)NULL  },
//  341   /* *not supported* WRITE_ATTRS_STRCT_RSP */ { (zclParseInProfileCmd_t)NULL,   (zclProcessInProfileCmd_t)NULL  },
//  342   /* ZCL_CMD_DISCOVER_CMDS_RECEIVED */        { (zclParseInProfileCmd_t)NULL,   (zclProcessInProfileCmd_t)NULL  },
//  343   /* ZCL_CMD_DISCOVER_CMDS_RECEIVED_RSP */    { (zclParseInProfileCmd_t)NULL,   (zclProcessInProfileCmd_t)NULL  },
//  344   /* ZCL_CMD_DISCOVER_CMDS_GEN */             { (zclParseInProfileCmd_t)NULL,   (zclProcessInProfileCmd_t)NULL  },
//  345   /* ZCL_CMD_DISCOVER_CMDS_GEN_RSP */         { (zclParseInProfileCmd_t)NULL,   (zclProcessInProfileCmd_t)NULL  },
//  346   /* ZCL_CMD_DISCOVER_ATTRS_EXT */            { (zclParseInProfileCmd_t)NULL,   (zclProcessInProfileCmd_t)NULL  },
//  347   /* ZCL_CMD_DISCOVER_ATTRS_EXT_RSP */        { (zclParseInProfileCmd_t)NULL,   (zclProcessInProfileCmd_t)NULL  },
//  348 #endif // ZCL_DISCOVER
//  349 };
//  350 
//  351 /*********************************************************************
//  352  * PUBLIC FUNCTIONS
//  353  *********************************************************************/
//  354 
//  355 #if !defined ( ZCL_STANDALONE )
//  356 /*********************************************************************
//  357  * @fn          zcl_Init
//  358  *
//  359  * @brief       Initialization function for the zcl layer.
//  360  *
//  361  * @param       task_id - ZCL task id
//  362  *
//  363  * @return      none
//  364  */

        RSEG BANKED_CODE:HUGECODE:NOROOT(0)
//  365 void zcl_Init( uint8 task_id )
zcl_Init:
          CFI Block cfiBlock0 Using cfiCommon0
          CFI Function zcl_Init
        CODE
//  366 {
        PUSH      DPL
          CFI DPL0 Frame(CFA_SP, 4)
          CFI CFA_SP SP+-4
        PUSH      DPH
          CFI DPH0 Frame(CFA_SP, 5)
          CFI CFA_SP SP+-5
        ; Saved register size: 2
        ; Auto size: 0
//  367   zcl_TaskID = task_id;
        MOV       A,R1
        MOV       DPTR,#zcl_TaskID
        MOVX      @DPTR,A
//  368 }
        LJMP      ?Subroutine0 & 0xFFFF
          CFI EndBlock cfiBlock0
//  369 #endif
//  370 
//  371 #if !defined ( ZCL_STANDALONE )
//  372 /*********************************************************************
//  373  * @fn          zcl_event_loop
//  374  *
//  375  * @brief       Event Loop Processor for zcl.
//  376  *
//  377  * @param       task_id - task id
//  378  * @param       events - event bitmap
//  379  *
//  380  * @return      unprocessed events
//  381  */

        RSEG BANKED_CODE:HUGECODE:NOROOT(0)
//  382 uint16 zcl_event_loop( uint8 task_id, uint16 events )
zcl_event_loop:
          CFI Block cfiBlock1 Using cfiCommon0
          CFI Function zcl_event_loop
        CODE
//  383 {
        FUNCALL zcl_event_loop, osal_msg_receive
        LOCFRAME ISTACK, 0, STACK
        LOCFRAME PSTACK, 0, STACK
        LOCFRAME XSTACK, 92, STACK
        LOCFRAME IOVERLAY, 0, STATIC
        LOCFRAME DOVERLAY, 0, STATIC
        ARGFRAME ISTACK, 0, STACK
        ARGFRAME PSTACK, 0, STACK
        ARGFRAME XSTACK, 92, STACK
        ARGFRAME IOVERLAY, 0, STATIC
        ARGFRAME DOVERLAY, 0, STATIC
        FUNCALL zcl_event_loop, zcl_ProcessMessageMSG
        LOCFRAME ISTACK, 0, STACK
        LOCFRAME PSTACK, 0, STACK
        LOCFRAME XSTACK, 92, STACK
        LOCFRAME IOVERLAY, 0, STATIC
        LOCFRAME DOVERLAY, 0, STATIC
        ARGFRAME ISTACK, 0, STACK
        ARGFRAME PSTACK, 0, STACK
        ARGFRAME XSTACK, 92, STACK
        ARGFRAME IOVERLAY, 0, STATIC
        ARGFRAME DOVERLAY, 0, STATIC
        FUNCALL zcl_event_loop, osal_msg_deallocate
        LOCFRAME ISTACK, 0, STACK
        LOCFRAME PSTACK, 0, STACK
        LOCFRAME XSTACK, 92, STACK
        LOCFRAME IOVERLAY, 0, STATIC
        LOCFRAME DOVERLAY, 0, STATIC
        ARGFRAME ISTACK, 0, STACK
        ARGFRAME PSTACK, 0, STACK
        ARGFRAME XSTACK, 92, STACK
        ARGFRAME IOVERLAY, 0, STATIC
        ARGFRAME DOVERLAY, 0, STATIC
        FUNCALL zcl_event_loop, osal_msg_receive
        LOCFRAME ISTACK, 0, STACK
        LOCFRAME PSTACK, 0, STACK
        LOCFRAME XSTACK, 92, STACK
        LOCFRAME IOVERLAY, 0, STATIC
        LOCFRAME DOVERLAY, 0, STATIC
        ARGFRAME ISTACK, 0, STACK
        ARGFRAME PSTACK, 0, STACK
        ARGFRAME XSTACK, 92, STACK
        ARGFRAME IOVERLAY, 0, STATIC
        ARGFRAME DOVERLAY, 0, STATIC
        FUNCALL zcl_event_loop, zcl_getExternalFoundationHandler
        LOCFRAME ISTACK, 0, STACK
        LOCFRAME PSTACK, 0, STACK
        LOCFRAME XSTACK, 92, STACK
        LOCFRAME IOVERLAY, 0, STATIC
        LOCFRAME DOVERLAY, 0, STATIC
        ARGFRAME ISTACK, 0, STACK
        ARGFRAME PSTACK, 0, STACK
        ARGFRAME XSTACK, 92, STACK
        ARGFRAME IOVERLAY, 0, STATIC
        ARGFRAME DOVERLAY, 0, STATIC
        FUNCALL zcl_event_loop, osal_msg_send
        LOCFRAME ISTACK, 0, STACK
        LOCFRAME PSTACK, 0, STACK
        LOCFRAME XSTACK, 92, STACK
        LOCFRAME IOVERLAY, 0, STATIC
        LOCFRAME DOVERLAY, 0, STATIC
        ARGFRAME ISTACK, 0, STACK
        ARGFRAME PSTACK, 0, STACK
        ARGFRAME XSTACK, 92, STACK
        ARGFRAME IOVERLAY, 0, STATIC
        ARGFRAME DOVERLAY, 0, STATIC
        FUNCALL zcl_event_loop, gp_GetHeadNotificationMsg
        LOCFRAME ISTACK, 0, STACK
        LOCFRAME PSTACK, 0, STACK
        LOCFRAME XSTACK, 92, STACK
        LOCFRAME IOVERLAY, 0, STATIC
        LOCFRAME DOVERLAY, 0, STATIC
        ARGFRAME ISTACK, 0, STACK
        ARGFRAME PSTACK, 0, STACK
        ARGFRAME XSTACK, 92, STACK
        ARGFRAME IOVERLAY, 0, STATIC
        ARGFRAME DOVERLAY, 0, STATIC
        FUNCALL zcl_event_loop, osal_memcpy
        LOCFRAME ISTACK, 0, STACK
        LOCFRAME PSTACK, 0, STACK
        LOCFRAME XSTACK, 95, STACK
        LOCFRAME IOVERLAY, 0, STATIC
        LOCFRAME DOVERLAY, 0, STATIC
        ARGFRAME ISTACK, 0, STACK
        ARGFRAME PSTACK, 0, STACK
        ARGFRAME XSTACK, 95, STACK
        ARGFRAME IOVERLAY, 0, STATIC
        ARGFRAME DOVERLAY, 0, STATIC
        FUNCALL zcl_event_loop, osal_memcpy
        LOCFRAME ISTACK, 0, STACK
        LOCFRAME PSTACK, 0, STACK
        LOCFRAME XSTACK, 95, STACK
        LOCFRAME IOVERLAY, 0, STATIC
        LOCFRAME DOVERLAY, 0, STATIC
        ARGFRAME ISTACK, 0, STACK
        ARGFRAME PSTACK, 0, STACK
        ARGFRAME XSTACK, 95, STACK
        ARGFRAME IOVERLAY, 0, STATIC
        ARGFRAME DOVERLAY, 0, STATIC
        FUNCALL zcl_event_loop, osal_revmemcpy
        LOCFRAME ISTACK, 0, STACK
        LOCFRAME PSTACK, 0, STACK
        LOCFRAME XSTACK, 95, STACK
        LOCFRAME IOVERLAY, 0, STATIC
        LOCFRAME DOVERLAY, 0, STATIC
        ARGFRAME ISTACK, 0, STACK
        ARGFRAME PSTACK, 0, STACK
        ARGFRAME XSTACK, 95, STACK
        ARGFRAME IOVERLAY, 0, STATIC
        ARGFRAME DOVERLAY, 0, STATIC
        FUNCALL zcl_event_loop, osal_memcpy
        LOCFRAME ISTACK, 0, STACK
        LOCFRAME PSTACK, 0, STACK
        LOCFRAME XSTACK, 95, STACK
        LOCFRAME IOVERLAY, 0, STATIC
        LOCFRAME DOVERLAY, 0, STATIC
        ARGFRAME ISTACK, 0, STACK
        ARGFRAME PSTACK, 0, STACK
        ARGFRAME XSTACK, 95, STACK
        ARGFRAME IOVERLAY, 0, STATIC
        ARGFRAME DOVERLAY, 0, STATIC
        FUNCALL zcl_event_loop, gp_getProxyTableByGpId
        LOCFRAME ISTACK, 0, STACK
        LOCFRAME PSTACK, 0, STACK
        LOCFRAME XSTACK, 94, STACK
        LOCFRAME IOVERLAY, 0, STATIC
        LOCFRAME DOVERLAY, 0, STATIC
        ARGFRAME ISTACK, 0, STACK
        ARGFRAME PSTACK, 0, STACK
        ARGFRAME XSTACK, 94, STACK
        ARGFRAME IOVERLAY, 0, STATIC
        ARGFRAME DOVERLAY, 0, STATIC
        FUNCALL zcl_event_loop, osal_memcpy
        LOCFRAME ISTACK, 0, STACK
        LOCFRAME PSTACK, 0, STACK
        LOCFRAME XSTACK, 95, STACK
        LOCFRAME IOVERLAY, 0, STATIC
        LOCFRAME DOVERLAY, 0, STATIC
        ARGFRAME ISTACK, 0, STACK
        ARGFRAME PSTACK, 0, STACK
        ARGFRAME XSTACK, 95, STACK
        ARGFRAME IOVERLAY, 0, STATIC
        ARGFRAME DOVERLAY, 0, STATIC
        FUNCALL zcl_event_loop, bdb_getZCLFrameCounter
        LOCFRAME ISTACK, 0, STACK
        LOCFRAME PSTACK, 0, STACK
        LOCFRAME XSTACK, 92, STACK
        LOCFRAME IOVERLAY, 0, STATIC
        LOCFRAME DOVERLAY, 0, STATIC
        ARGFRAME ISTACK, 0, STACK
        ARGFRAME PSTACK, 0, STACK
        ARGFRAME XSTACK, 92, STACK
        ARGFRAME IOVERLAY, 0, STATIC
        ARGFRAME DOVERLAY, 0, STATIC
        FUNCALL zcl_event_loop, zcl_SendCommand
        LOCFRAME ISTACK, 0, STACK
        LOCFRAME PSTACK, 0, STACK
        LOCFRAME XSTACK, 103, STACK
        LOCFRAME IOVERLAY, 0, STATIC
        LOCFRAME DOVERLAY, 0, STATIC
        ARGFRAME ISTACK, 0, STACK
        ARGFRAME PSTACK, 0, STACK
        ARGFRAME XSTACK, 103, STACK
        ARGFRAME IOVERLAY, 0, STATIC
        ARGFRAME DOVERLAY, 0, STATIC
        FUNCALL zcl_event_loop, gp_GetPHeadNotification
        LOCFRAME ISTACK, 0, STACK
        LOCFRAME PSTACK, 0, STACK
        LOCFRAME XSTACK, 92, STACK
        LOCFRAME IOVERLAY, 0, STATIC
        LOCFRAME DOVERLAY, 0, STATIC
        ARGFRAME ISTACK, 0, STACK
        ARGFRAME PSTACK, 0, STACK
        ARGFRAME XSTACK, 92, STACK
        ARGFRAME IOVERLAY, 0, STATIC
        ARGFRAME DOVERLAY, 0, STATIC
        FUNCALL zcl_event_loop, gp_NotificationMsgClean
        LOCFRAME ISTACK, 0, STACK
        LOCFRAME PSTACK, 0, STACK
        LOCFRAME XSTACK, 92, STACK
        LOCFRAME IOVERLAY, 0, STATIC
        LOCFRAME DOVERLAY, 0, STATIC
        ARGFRAME ISTACK, 0, STACK
        ARGFRAME PSTACK, 0, STACK
        ARGFRAME XSTACK, 92, STACK
        ARGFRAME IOVERLAY, 0, STATIC
        ARGFRAME DOVERLAY, 0, STATIC
        FUNCALL zcl_event_loop, gp_GetHeadNotificationMsg
        LOCFRAME ISTACK, 0, STACK
        LOCFRAME PSTACK, 0, STACK
        LOCFRAME XSTACK, 92, STACK
        LOCFRAME IOVERLAY, 0, STATIC
        LOCFRAME DOVERLAY, 0, STATIC
        ARGFRAME ISTACK, 0, STACK
        ARGFRAME PSTACK, 0, STACK
        ARGFRAME XSTACK, 92, STACK
        ARGFRAME IOVERLAY, 0, STATIC
        ARGFRAME DOVERLAY, 0, STATIC
        FUNCALL zcl_event_loop, osal_start_timerEx
        LOCFRAME ISTACK, 0, STACK
        LOCFRAME PSTACK, 0, STACK
        LOCFRAME XSTACK, 96, STACK
        LOCFRAME IOVERLAY, 0, STATIC
        LOCFRAME DOVERLAY, 0, STATIC
        ARGFRAME ISTACK, 0, STACK
        ARGFRAME PSTACK, 0, STACK
        ARGFRAME XSTACK, 96, STACK
        ARGFRAME IOVERLAY, 0, STATIC
        ARGFRAME DOVERLAY, 0, STATIC
        REQUIRE ?V0
        REQUIRE ?V1
        REQUIRE ?V2
        REQUIRE ?V3
        REQUIRE ?V4
        REQUIRE ?V5
        REQUIRE ?V6
        REQUIRE ?V7
        MOV       A,#-0x10
        LCALL     ?BANKED_ENTER_XDATA
          CFI DPH0 load(1, XDATA, add(CFA_XSP16, literal(-1)))
          CFI DPL0 load(1, XDATA, add(CFA_XSP16, literal(-2)))
          CFI ?BRET_EXT load(1, XDATA, add(CFA_XSP16, literal(-3)))
          CFI ?RET_HIGH load(1, XDATA, add(CFA_XSP16, literal(-4)))
          CFI ?RET_LOW load(1, XDATA, add(CFA_XSP16, literal(-5)))
          CFI R7 load(1, XDATA, add(CFA_XSP16, literal(-6)))
          CFI V7 load(1, XDATA, add(CFA_XSP16, literal(-7)))
          CFI V6 load(1, XDATA, add(CFA_XSP16, literal(-8)))
          CFI V5 load(1, XDATA, add(CFA_XSP16, literal(-9)))
          CFI V4 load(1, XDATA, add(CFA_XSP16, literal(-10)))
          CFI V3 load(1, XDATA, add(CFA_XSP16, literal(-11)))
          CFI V2 load(1, XDATA, add(CFA_XSP16, literal(-12)))
          CFI V1 load(1, XDATA, add(CFA_XSP16, literal(-13)))
          CFI V0 load(1, XDATA, add(CFA_XSP16, literal(-14)))
          CFI VB load(1, XDATA, add(CFA_XSP16, literal(-15)))
          CFI R6 load(1, XDATA, add(CFA_XSP16, literal(-16)))
          CFI CFA_SP SP+0
          CFI CFA_XSP16 add(XSP16, 16)
        ; Saved register size: 16
        ; Auto size: 76
        MOV       A,#-0x4c
        LCALL     ?ALLOC_XSTACK8
          CFI CFA_XSP16 add(XSP16, 92)
        MOV       A,R2
        MOV       R6,A
        MOV       A,R3
        MOV       R7,A
//  384   uint8 *msgPtr;
//  385 
//  386   (void)task_id;  // Intentionally unreferenced parameter
//  387 
//  388   if ( events & SYS_EVENT_MSG )
        ANL       A,#0x80
        JZ        ??zcl_event_loop_0
//  389   {
//  390     msgPtr = osal_msg_receive( zcl_TaskID );
        ; Setup parameters for call to function osal_msg_receive
        SJMP      ??zcl_event_loop_1
//  391     while ( msgPtr != NULL )
//  392     {
//  393       uint8 dealloc = TRUE;
//  394 
//  395       if ( *msgPtr == AF_INCOMING_MSG_CMD )
//  396       {
//  397         zcl_ProcessMessageMSG( (afIncomingMSGPacket_t *)msgPtr );
??zcl_event_loop_2:
        ; Setup parameters for call to function zcl_ProcessMessageMSG
        LCALL     `??zcl_ProcessMessageMSG::?relay`; Banked call to: zcl_ProcessMessageMSG
//  398       }
//  399       else
//  400       {
//  401         uint8 taskID;
//  402         taskID = zcl_getExternalFoundationHandler( (afIncomingMSGPacket_t *)msgPtr );
//  403 
//  404         if ( taskID != TASK_NO_TASK )
//  405         {
//  406           // send it to another task to process.
//  407           osal_msg_send( taskID, msgPtr );
//  408           dealloc = FALSE;
//  409         }
//  410       }
//  411 
//  412       // Release the memory
//  413       if ( dealloc )
//  414       {
//  415         osal_msg_deallocate( msgPtr );
??zcl_event_loop_3:
        ; Setup parameters for call to function osal_msg_deallocate
        MOV       R2,?V0
        MOV       R3,?V1
        LCALL     `??osal_msg_deallocate::?relay`; Banked call to: osal_msg_deallocate
//  416       }
//  417 
//  418       // Next
//  419       msgPtr = osal_msg_receive( zcl_TaskID );
??zcl_event_loop_1:
        ; Setup parameters for call to function osal_msg_receive
        MOV       DPTR,#zcl_TaskID
        MOVX      A,@DPTR
        MOV       R1,A
        LCALL     `??osal_msg_receive::?relay`; Banked call to: osal_msg_receive
        MOV       ?V0,R2
        MOV       ?V1,R3
        MOV       A,?V0
        ORL       A,?V1
        JZ        ??zcl_event_loop_4
        MOV       DPL,?V0
        MOV       DPH,?V1
        MOVX      A,@DPTR
        XRL       A,#0x1a
        MOV       R2,?V0
        MOV       R3,?V1
        JZ        ??zcl_event_loop_2
        ; Setup parameters for call to function zcl_getExternalFoundationHandler
        LCALL     `??zcl_getExternalFoundationHandler::?relay`; Banked call to: zcl_getExternalFoundationHandler
        MOV       A,R1
        MOV       R1,A
        MOV       A,#-0x1
        XRL       A,R1
        JZ        ??zcl_event_loop_3
        ; Setup parameters for call to function osal_msg_send
        MOV       R2,?V0
        MOV       R3,?V1
        LCALL     `??osal_msg_send::?relay`; Banked call to: osal_msg_send
        SJMP      ??zcl_event_loop_1
//  420     }
//  421 
//  422     // return unprocessed events
//  423     return (events ^ SYS_EVENT_MSG);
??zcl_event_loop_4:
        MOV       A,R6
        MOV       R2,A
        MOV       A,R7
        XRL       A,#0x80
        MOV       R3,A
        LJMP      ??zcl_event_loop_5 & 0xFFFF
//  424   }
//  425 
//  426 #if !defined (DISABLE_GREENPOWER_BASIC_PROXY) && (ZG_BUILD_RTR_TYPE)
//  427   if ( events & ZCL_DATABUF_SEND )
??zcl_event_loop_0:
        MOV       A,R6
        ANL       A,#0x20
        JNZ       $+5
        LJMP      ??zcl_event_loop_6 & 0xFFFF
//  428   {
//  429     gpNotificationMsg_t *gpNotification = NULL;
//  430     gpCmdPayloadMsg_t *pCmdPayloadMsgCurr = NULL;
//  431     gpd_ID_t gpd_ID;
//  432     uint8 *pgpdid;
//  433     uint8 entry[PROXY_TBL_ENTRY_LEN];
//  434     uint8 appId;
//  435     uint8 nwkSeqNum;
//  436     uint8 apsSecNum;
//  437     uint16 nwkAddr;
//  438     
//  439     gpNotification = gp_GetHeadNotificationMsg( );
        ; Setup parameters for call to function gp_GetHeadNotificationMsg
        LCALL     `??gp_GetHeadNotificationMsg::?relay`; Banked call to: gp_GetHeadNotificationMsg
        MOV       ?V6,R2
        MOV       ?V7,R3
//  440     
//  441     if ( gpNotification == NULL )
        MOV       A,R2
        ORL       A,?V7
        JNZ       $+5
        LJMP      ??zcl_event_loop_6 & 0xFFFF
//  442     {
//  443       return 0;
//  444     }
//  445     
//  446     pCmdPayloadMsgCurr = ( gpCmdPayloadMsg_t* ) gpNotification->pMsg ;
        MOV       A,R2
        ADD       A,#0xd
        MOV       DPL,A
        CLR       A
        ADDC      A,?V7
        MOV       DPH,A
        LCALL     ??Subroutine219_0 & 0xFFFF
//  447     appId = PROXY_TBL_GET_APPLICTION_ID((uint16)*pCmdPayloadMsgCurr->pMsg);
??CrossCallReturnLabel_494:
        MOV       A,R6
        ADD       A,#0x2
        MOV       ?V4,A
        CLR       A
        ADDC      A,R7
        MOV       ?V5,A
        MOV       DPL,?V4
        MOV       DPH,A
        LCALL     ??Subroutine225_0 & 0xFFFF
??CrossCallReturnLabel_533:
        ANL       A,#0x7
        MOV       R0,A
//  448     
//  449     // To save the NIB nwk sequense number and use the GP alias nwk sequence number
//  450     // for the GP notification
//  451     nwkSeqNum = _NIB.SequenceNum;
        MOV       DPTR,#_NIB
        MOVX      A,@DPTR
        MOV       ?V3,A
//  452     _NIB.SequenceNum = pCmdPayloadMsgCurr->secNum;
        MOV       DPL,R6
        MOV       DPH,R7
        MOVX      A,@DPTR
        MOV       DPTR,#_NIB
        MOVX      @DPTR,A
//  453     
//  454     // To save the NIB nwk address and use the GP alias nwk address for the GP notification
//  455     nwkAddr = _NIB.nwkDevAddress;
        MOV       DPTR,#_NIB + 20
        LCALL     ??Subroutine209_0 & 0xFFFF
??CrossCallReturnLabel_389:
        LCALL     ?Subroutine33 & 0xFFFF
//  456     
//  457     if( appId == GP_OPT_APP_ID_GPD )
??CrossCallReturnLabel_459:
        MOV       A,R0
        JNZ       ??zcl_event_loop_7
//  458     {
//  459       pgpdid = pCmdPayloadMsgCurr->pMsg + sizeof( uint16 );
        MOV       DPL,?V4
        MOV       DPH,?V5
        MOVX      A,@DPTR
        ADD       A,#0x2
        LCALL     ?Subroutine108 & 0xFFFF
//  460       
//  461       osal_memcpy( &_NIB.nwkDevAddress, pgpdid, sizeof(uint16) );
??CrossCallReturnLabel_203:
        LCALL     ?PUSH_XSTACK_I_THREE
          CFI CFA_XSP16 add(XSP16, 95)
        MOV       R4,#0x2
        MOV       R5,#0x0
        MOV       R2,#(_NIB + 20) & 0xff
        MOV       R3,#((_NIB + 20) >> 8) & 0xff
        LCALL     `??osal_memcpy::?relay`; Banked call to: osal_memcpy
        MOV       A,#0x3
        LCALL     ?DEALLOC_XSTACK8
          CFI CFA_XSP16 add(XSP16, 92)
//  462       gpd_ID.AppID = GP_OPT_APP_ID_GPD;
        MOV       A,#0x2
        LCALL     ?XSTACK_DISP0_8
        CLR       A
        MOVX      @DPTR,A
//  463       osal_memcpy( &gpd_ID.GPDId.SrcID, pgpdid, sizeof( uint32 ) );
        ; Setup parameters for call to function osal_memcpy
        MOV       R0,#?V0
        LCALL     ?PUSH_XSTACK_I_THREE
          CFI CFA_XSP16 add(XSP16, 95)
        MOV       R4,#0x4
        SJMP      ??zcl_event_loop_8
          CFI CFA_XSP16 add(XSP16, 92)
//  464     }
//  465     else if( appId == GP_OPT_APP_ID_IEEE )
??zcl_event_loop_7:
        MOV       A,#0x2
        XRL       A,R0
        JNZ       ??zcl_event_loop_9
//  466     {
//  467       pgpdid = pCmdPayloadMsgCurr->pMsg + Z_EXTADDR_LEN;
//  468       
//  469       osal_revmemcpy( &_NIB.nwkDevAddress,(pCmdPayloadMsgCurr->pMsg + Z_EXTADDR_LEN), sizeof(uint16) );
        ; Setup parameters for call to function osal_revmemcpy
        MOV       DPL,?V4
        MOV       DPH,?V5
        MOVX      A,@DPTR
        ADD       A,#0x8
        LCALL     ?Subroutine108 & 0xFFFF
??CrossCallReturnLabel_204:
        LCALL     ?PUSH_XSTACK_I_THREE
          CFI CFA_XSP16 add(XSP16, 95)
        MOV       R4,#0x2
        MOV       R5,#0x0
        MOV       R2,#(_NIB + 20) & 0xff
        MOV       R3,#((_NIB + 20) >> 8) & 0xff
        LCALL     `??osal_revmemcpy::?relay`; Banked call to: osal_revmemcpy
        MOV       A,#0x3
        LCALL     ?DEALLOC_XSTACK8
          CFI CFA_XSP16 add(XSP16, 92)
//  470       
//  471       gpd_ID.AppID = GP_OPT_APP_ID_IEEE;
        MOV       A,#0x2
        LCALL     ?XSTACK_DISP0_8
        MOV       A,#0x2
        LCALL     ?Subroutine40 & 0xFFFF
//  472 
//  473       pgpdid = pCmdPayloadMsgCurr->pMsg + sizeof( uint16 );
//  474       osal_memcpy( gpd_ID.GPDId.GPDExtAddr, pgpdid, Z_EXTADDR_LEN );
//  475     }
??CrossCallReturnLabel_55:
        ADD       A,#0x2
        MOV       ?V0,A
        INC       DPTR
        MOVX      A,@DPTR
        ADDC      A,#0x0
        MOV       ?V1,A
        MOV       R0,#?V0
        LCALL     ?PUSH_XSTACK_I_THREE
          CFI CFA_XSP16 add(XSP16, 95)
        MOV       R4,#0x8
??zcl_event_loop_8:
        MOV       R5,#0x0
        MOV       A,#0x6
        LCALL     ?XSTACK_DISP0_8
        MOV       R2,DPL
        MOV       R3,DPH
        LCALL     `??osal_memcpy::?relay`; Banked call to: osal_memcpy
        MOV       A,#0x3
        LCALL     ?DEALLOC_XSTACK8
          CFI CFA_XSP16 add(XSP16, 92)
//  476     
//  477     gp_getProxyTableByGpId(&gpd_ID, entry, NULL);
??zcl_event_loop_9:
        ; Setup parameters for call to function gp_getProxyTableByGpId
        CLR       A
        MOV       ?V0,A
        MOV       ?V1,A
        MOV       R0,#?V0
        LCALL     ?PUSH_XSTACK_I_TWO
          CFI CFA_XSP16 add(XSP16, 94)
        MOV       A,#0xd
        LCALL     ?XSTACK_DISP102_8
        MOV       A,#0x4
        LCALL     ?XSTACK_DISP101_8
        LCALL     `??gp_getProxyTableByGpId::?relay`; Banked call to: gp_getProxyTableByGpId
        MOV       A,#0x2
        LCALL     ?DEALLOC_XSTACK8
          CFI CFA_XSP16 add(XSP16, 92)
//  478 
//  479     if ( PROXY_TBL_GET_ASSIGNED_ALIAS( entry[PROXY_TBL_ENTRY_OPT + 1] ) )
        MOV       A,#0xc
        LCALL     ?XSTACK_DISP0_8
        MOVX      A,@DPTR
        MOV       C,0xE0 /* A   */.5
        JNC       ??zcl_event_loop_10
//  480     {
//  481       _NIB.nwkDevAddress = 0;
        MOV       DPTR,#_NIB + 20
        CLR       A
        MOVX      @DPTR,A
        INC       DPTR
        MOVX      @DPTR,A
//  482       osal_memcpy( (uint8*)&_NIB.nwkDevAddress, &entry[PROXY_TBL_ENTRY_ALIAS], sizeof(uint16));
        ; Setup parameters for call to function osal_memcpy
        MOV       A,#0x16
        LCALL     ?XSTACK_DISP0_8
        MOV       R1,DPL
        MOV       R2,DPH
        MOV       ?V0,R1
        MOV       ?V1,R2
        MOV       ?V2,#0x0
        MOV       R0,#?V0
        LCALL     ?PUSH_XSTACK_I_THREE
          CFI CFA_XSP16 add(XSP16, 95)
        MOV       R4,#0x2
        MOV       R5,#0x0
        MOV       R2,#(_NIB + 20) & 0xff
        MOV       R3,#((_NIB + 20) >> 8) & 0xff
        LCALL     `??osal_memcpy::?relay`; Banked call to: osal_memcpy
        MOV       A,#0x3
        LCALL     ?DEALLOC_XSTACK8
          CFI CFA_XSP16 add(XSP16, 92)
//  483     }
//  484     
//  485     // save aps sequence number
//  486     apsSecNum = APS_Counter;
??zcl_event_loop_10:
        MOV       DPTR,#APS_Counter
        MOVX      A,@DPTR
        MOV       ?V0,A
//  487     APS_Counter = pCmdPayloadMsgCurr->secNum;
        MOV       DPL,R6
        MOV       DPH,R7
        MOVX      A,@DPTR
        MOV       DPTR,#APS_Counter
        MOVX      @DPTR,A
//  488     
//  489     // Set nwk radius for zcl frame
//  490     if ( entry[PROXY_TBL_ENTRY_GRP_RAD] != 0xFF)
        MOV       A,#0x4a
        LCALL     ?XSTACK_DISP0_8
        MOVX      A,@DPTR
        MOV       R0,A
        MOV       A,#-0x1
        XRL       A,R0
        JZ        ??zcl_event_loop_11
//  491     {
//  492       zcl_radius =  entry[PROXY_TBL_ENTRY_GRP_RAD];
        MOV       A,R0
        MOV       DPTR,#zcl_radius
        MOVX      @DPTR,A
//  493     }
//  494     
//  495     zcl_SendCommand( GREEN_POWER_INTERNAL_ENDPOINT, &gpNotification->addr, ZCL_CLUSTER_ID_GREEN_POWER,
//  496                           COMMAND_GP_NOTIFICATION, TRUE, ZCL_FRAME_CLIENT_SERVER_DIR,
//  497                           TRUE, 0,  bdb_getZCLFrameCounter(), pCmdPayloadMsgCurr->lenght, pCmdPayloadMsgCurr->pMsg );
??zcl_event_loop_11:
        ; Setup parameters for call to function bdb_getZCLFrameCounter
        LCALL     `??bdb_getZCLFrameCounter::?relay`; Banked call to: bdb_getZCLFrameCounter
        MOV       A,R1
        MOV       R1,A
        ; Setup parameters for call to function zcl_SendCommand
        MOV       DPL,?V4
        MOV       DPH,?V5
        LCALL     ?PUSH_XSTACK8_X_TWO
          CFI CFA_XSP16 add(XSP16, 94)
        MOV       DPL,R6
        MOV       DPH,R7
        INC       DPTR
        MOVX      A,@DPTR
        MOV       ?V4,A
        MOV       ?V5,#0x0
        MOV       R0,#?V4
        LCALL     ?PUSH_XSTACK_I_TWO
          CFI CFA_XSP16 add(XSP16, 96)
        MOV       A,R1
        MOV       ?V1,A
        MOV       R0,#?V1
        LCALL     ?PUSH_XSTACK_I_ONE
          CFI CFA_XSP16 add(XSP16, 97)
        CLR       A
        MOV       ?V4,A
        MOV       R0,#?V4
        LCALL     ?PUSH_XSTACK_I_TWO
          CFI CFA_XSP16 add(XSP16, 99)
        MOV       ?V1,#0x1
        MOV       R0,#?V1
        LCALL     ?PUSH_XSTACK_I_ONE
          CFI CFA_XSP16 add(XSP16, 100)
        MOV       ?V1,#0x0
        MOV       R0,#?V1
        LCALL     ?PUSH_XSTACK_I_ONE
          CFI CFA_XSP16 add(XSP16, 101)
        MOV       ?V1,#0x1
        MOV       R0,#?V1
        LCALL     ?PUSH_XSTACK_I_ONE
          CFI CFA_XSP16 add(XSP16, 102)
        MOV       ?V1,#0x0
        MOV       R0,#?V1
        LCALL     ?PUSH_XSTACK_I_ONE
          CFI CFA_XSP16 add(XSP16, 103)
        MOV       R4,#0x21
        MOV       R5,#0x0
        MOV       R2,?V6
        MOV       R3,?V7
        MOV       R1,#-0xe
        LCALL     `??zcl_SendCommand::?relay`; Banked call to: zcl_SendCommand
        MOV       A,#0xb
        LCALL     ?DEALLOC_XSTACK8
          CFI CFA_XSP16 add(XSP16, 92)
//  498     
//  499     // restore nwk radius
//  500     zcl_radius = AF_DEFAULT_RADIUS;
        MOV       DPTR,#zcl_radius
        MOV       A,#0x1e
        MOVX      @DPTR,A
//  501     
//  502     // restore aps sequence number
//  503     APS_Counter = apsSecNum;
        MOV       A,?V0
        MOV       DPTR,#APS_Counter
        MOVX      @DPTR,A
//  504      
//  505     // Restore the NIB nwk sequence number
//  506     _NIB.SequenceNum = nwkSeqNum;
        MOV       A,?V3
        MOV       DPTR,#_NIB
        LCALL     ??Subroutine226_0 & 0xFFFF
//  507     
//  508     // Restore the NIB nwk address
//  509     _NIB.nwkDevAddress = nwkAddr;
??CrossCallReturnLabel_542:
        MOV       R1,A
        MOV       DPTR,#_NIB + 20
        LCALL     ??Subroutine216_0 & 0xFFFF
//  510     
//  511     gp_NotificationMsgClean( gp_GetPHeadNotification ( ) );
??CrossCallReturnLabel_468:
        ; Setup parameters for call to function gp_GetPHeadNotification
        LCALL     `??gp_GetPHeadNotification::?relay`; Banked call to: gp_GetPHeadNotification
        ; Setup parameters for call to function gp_NotificationMsgClean
        LCALL     `??gp_NotificationMsgClean::?relay`; Banked call to: gp_NotificationMsgClean
//  512     
//  513     if ( gp_GetHeadNotificationMsg ( ) != NULL )
        ; Setup parameters for call to function gp_GetHeadNotificationMsg
        LCALL     `??gp_GetHeadNotificationMsg::?relay`; Banked call to: gp_GetHeadNotificationMsg
        MOV       ?V1,R3
        MOV       A,R2
        ORL       A,?V1
        JZ        ??zcl_event_loop_6
//  514     {
//  515       osal_start_timerEx( zcl_TaskID, ZCL_DATABUF_SEND, 50 );
        ; Setup parameters for call to function osal_start_timerEx
        MOV       DPTR,#__Constant_32
        LCALL     ?PUSH_XSTACK8_X_FOUR
          CFI CFA_XSP16 add(XSP16, 96)
        MOV       R2,#0x20
        MOV       R3,#0x0
        MOV       DPTR,#zcl_TaskID
        MOVX      A,@DPTR
        MOV       R1,A
        LCALL     `??osal_start_timerEx::?relay`; Banked call to: osal_start_timerEx
        MOV       A,#0x4
        LCALL     ?DEALLOC_XSTACK8
          CFI CFA_XSP16 add(XSP16, 92)
//  516     }
//  517   }
//  518 #endif
//  519 
//  520   // Discard unknown events
//  521   return 0;
??zcl_event_loop_6:
        MOV       R2,#0x0
        MOV       R3,#0x0
??zcl_event_loop_5:
        MOV       A,#0x4c
        LJMP      ??Subroutine194_0 & 0xFFFF
//  522 }
          CFI EndBlock cfiBlock1

        RSEG BANKED_CODE:HUGECODE:NOROOT(0)
?Subroutine108:
          CFI Block cfiCond2 Using cfiCommon0
          CFI Function zcl_event_loop
          CFI Conditional ??CrossCallReturnLabel_203
          CFI R6 load(1, XDATA, add(CFA_XSP16, literal(-16)))
          CFI VB load(1, XDATA, add(CFA_XSP16, literal(-15)))
          CFI V0 load(1, XDATA, add(CFA_XSP16, literal(-14)))
          CFI V1 load(1, XDATA, add(CFA_XSP16, literal(-13)))
          CFI V2 load(1, XDATA, add(CFA_XSP16, literal(-12)))
          CFI V3 load(1, XDATA, add(CFA_XSP16, literal(-11)))
          CFI V4 load(1, XDATA, add(CFA_XSP16, literal(-10)))
          CFI V5 load(1, XDATA, add(CFA_XSP16, literal(-9)))
          CFI V6 load(1, XDATA, add(CFA_XSP16, literal(-8)))
          CFI V7 load(1, XDATA, add(CFA_XSP16, literal(-7)))
          CFI R7 load(1, XDATA, add(CFA_XSP16, literal(-6)))
          CFI ?RET_LOW load(1, XDATA, add(CFA_XSP16, literal(-5)))
          CFI ?RET_HIGH load(1, XDATA, add(CFA_XSP16, literal(-4)))
          CFI ?BRET_EXT load(1, XDATA, add(CFA_XSP16, literal(-3)))
          CFI DPL0 load(1, XDATA, add(CFA_XSP16, literal(-2)))
          CFI DPH0 load(1, XDATA, add(CFA_XSP16, literal(-1)))
          CFI CFA_SP SP+-2
          CFI CFA_XSP16 add(XSP16, 92)
          CFI Block cfiCond3 Using cfiCommon0
          CFI (cfiCond3) Function zcl_event_loop
          CFI (cfiCond3) Conditional ??CrossCallReturnLabel_204
          CFI (cfiCond3) R6 load(1, XDATA, add(CFA_XSP16, literal(-16)))
          CFI (cfiCond3) VB load(1, XDATA, add(CFA_XSP16, literal(-15)))
          CFI (cfiCond3) V0 load(1, XDATA, add(CFA_XSP16, literal(-14)))
          CFI (cfiCond3) V1 load(1, XDATA, add(CFA_XSP16, literal(-13)))
          CFI (cfiCond3) V2 load(1, XDATA, add(CFA_XSP16, literal(-12)))
          CFI (cfiCond3) V3 load(1, XDATA, add(CFA_XSP16, literal(-11)))
          CFI (cfiCond3) V4 load(1, XDATA, add(CFA_XSP16, literal(-10)))
          CFI (cfiCond3) V5 load(1, XDATA, add(CFA_XSP16, literal(-9)))
          CFI (cfiCond3) V6 load(1, XDATA, add(CFA_XSP16, literal(-8)))
          CFI (cfiCond3) V7 load(1, XDATA, add(CFA_XSP16, literal(-7)))
          CFI (cfiCond3) R7 load(1, XDATA, add(CFA_XSP16, literal(-6)))
          CFI (cfiCond3) ?RET_LOW load(1, XDATA, add(CFA_XSP16, literal(-5)))
          CFI (cfiCond3) ?RET_HIGH load(1, XDATA, add(CFA_XSP16, literal(-4)))
          CFI (cfiCond3) ?BRET_EXT load(1, XDATA, add(CFA_XSP16, literal(-3)))
          CFI (cfiCond3) DPL0 load(1, XDATA, add(CFA_XSP16, literal(-2)))
          CFI (cfiCond3) DPH0 load(1, XDATA, add(CFA_XSP16, literal(-1)))
          CFI (cfiCond3) CFA_SP SP+-2
          CFI (cfiCond3) CFA_XSP16 add(XSP16, 92)
          CFI Block cfiPicker4 Using cfiCommon1
          CFI (cfiPicker4) NoFunction
          CFI (cfiPicker4) Picker
        MOV       ?V0,A
        INC       DPTR
        MOVX      A,@DPTR
        ADDC      A,#0x0
        MOV       ?V1,A
        MOV       ?V2,#0x0
        ; Setup parameters for call to function osal_memcpy
        MOV       R0,#?V0
        RET
          CFI EndBlock cfiCond2
          CFI EndBlock cfiCond3
          CFI EndBlock cfiPicker4
//  523 #endif
//  524 
//  525 #if !defined ( ZCL_STANDALONE )
//  526 /*********************************************************************
//  527  * @fn      zcl_registerForMsg
//  528  *
//  529  * @brief   The ZCL is setup to send all incoming Foundation Command/Response
//  530  *          messages that aren't processed to one task (if a task is
//  531  *          registered).
//  532  *
//  533  * @param   taskId - task Id of the Application where commands will be sent to
//  534  *
//  535  * @return  TRUE if task registeration successful, FALSE otherwise
//  536  *********************************************************************/

        RSEG BANKED_CODE:HUGECODE:NOROOT(0)
//  537 uint8 zcl_registerForMsg( uint8 taskId )
zcl_registerForMsg:
          CFI Block cfiBlock5 Using cfiCommon0
          CFI Function zcl_registerForMsg
        CODE
//  538 {
        FUNCALL zcl_registerForMsg, zcl_addExternalFoundationHandler
        LOCFRAME ISTACK, 0, STACK
        LOCFRAME PSTACK, 0, STACK
        LOCFRAME XSTACK, 9, STACK
        LOCFRAME IOVERLAY, 0, STATIC
        LOCFRAME DOVERLAY, 0, STATIC
        ARGFRAME ISTACK, 0, STACK
        ARGFRAME PSTACK, 0, STACK
        ARGFRAME XSTACK, 9, STACK
        ARGFRAME IOVERLAY, 0, STATIC
        ARGFRAME DOVERLAY, 0, STATIC
        MOV       A,#-0x9
        LCALL     ?BANKED_ENTER_XDATA
          CFI DPH0 load(1, XDATA, add(CFA_XSP16, literal(-1)))
          CFI DPL0 load(1, XDATA, add(CFA_XSP16, literal(-2)))
          CFI ?BRET_EXT load(1, XDATA, add(CFA_XSP16, literal(-3)))
          CFI ?RET_HIGH load(1, XDATA, add(CFA_XSP16, literal(-4)))
          CFI ?RET_LOW load(1, XDATA, add(CFA_XSP16, literal(-5)))
          CFI R7 load(1, XDATA, add(CFA_XSP16, literal(-6)))
          CFI V0 load(1, XDATA, add(CFA_XSP16, literal(-7)))
          CFI VB load(1, XDATA, add(CFA_XSP16, literal(-8)))
          CFI R6 load(1, XDATA, add(CFA_XSP16, literal(-9)))
          CFI CFA_SP SP+0
          CFI CFA_XSP16 add(XSP16, 9)
        ; Saved register size: 9
        ; Auto size: 0
//  539   return zcl_addExternalFoundationHandler( taskId, AF_BROADCAST_ENDPOINT );
        ; Setup parameters for call to function zcl_addExternalFoundationHandler
        MOV       R2,#-0x1
        LJMP      ?Subroutine2 & 0xFFFF
//  540 }
          CFI EndBlock cfiBlock5
//  541 
//  542 /*********************************************************************
//  543  * @fn      zcl_registerForMsgExt
//  544  *
//  545  * @brief   This function enables a Task to register to recieve all
//  546  *          incoming Foundation Command/Response messages, for a particular
//  547  *          End Point, that aren't processed by ZCL.
//  548  *
//  549  *          NOTE: Any Task registered for a unique end point will take
//  550  *          priority over any Task registered with the AF_BROADCAST_ENDPOINT
//  551  *          value.  ie. If task A registers for End Point 1, task B registers
//  552  *          for AF_BROADCAST_ENDPOINT,  commands addressed to End Point 1 will be
//  553  *          sent to Task A and NOT Task B.
//  554  *
//  555  * @param   taskId - task Id of the Application where commands will be sent to
//  556  * @param   endPointId - end point Id of interest
//  557  *
//  558  * @return  TRUE if task registeration successful, FALSE otherwise
//  559  *********************************************************************/

        RSEG BANKED_CODE:HUGECODE:NOROOT(0)
//  560 uint8 zcl_registerForMsgExt( uint8 taskId, uint8 endPointId  )
zcl_registerForMsgExt:
          CFI Block cfiBlock6 Using cfiCommon0
          CFI Function zcl_registerForMsgExt
        CODE
//  561 {
        FUNCALL zcl_registerForMsgExt, zcl_addExternalFoundationHandler
        LOCFRAME ISTACK, 0, STACK
        LOCFRAME PSTACK, 0, STACK
        LOCFRAME XSTACK, 9, STACK
        LOCFRAME IOVERLAY, 0, STATIC
        LOCFRAME DOVERLAY, 0, STATIC
        ARGFRAME ISTACK, 0, STACK
        ARGFRAME PSTACK, 0, STACK
        ARGFRAME XSTACK, 9, STACK
        ARGFRAME IOVERLAY, 0, STATIC
        ARGFRAME DOVERLAY, 0, STATIC
        MOV       A,#-0x9
        LCALL     ?BANKED_ENTER_XDATA
          CFI DPH0 load(1, XDATA, add(CFA_XSP16, literal(-1)))
          CFI DPL0 load(1, XDATA, add(CFA_XSP16, literal(-2)))
          CFI ?BRET_EXT load(1, XDATA, add(CFA_XSP16, literal(-3)))
          CFI ?RET_HIGH load(1, XDATA, add(CFA_XSP16, literal(-4)))
          CFI ?RET_LOW load(1, XDATA, add(CFA_XSP16, literal(-5)))
          CFI R7 load(1, XDATA, add(CFA_XSP16, literal(-6)))
          CFI V0 load(1, XDATA, add(CFA_XSP16, literal(-7)))
          CFI VB load(1, XDATA, add(CFA_XSP16, literal(-8)))
          CFI R6 load(1, XDATA, add(CFA_XSP16, literal(-9)))
          CFI CFA_SP SP+0
          CFI CFA_XSP16 add(XSP16, 9)
        ; Saved register size: 9
        ; Auto size: 0
//  562   return ( zcl_addExternalFoundationHandler( taskId, endPointId  ) );
        ; Setup parameters for call to function zcl_addExternalFoundationHandler
        LJMP      ?Subroutine2 & 0xFFFF
//  563 }
          CFI EndBlock cfiBlock6
//  564 
//  565 /*********************************************************************
//  566  * @fn      zcl_addExternalFoundationHandler
//  567  *
//  568  * @brief   This function adds a record to the internal list of external
//  569  *          handlers of unhandled incoming Foundation Command/Response messages.
//  570  *
//  571  * @param   taskId - task Id of the Application where commands will be sent to
//  572  * @param   endPointId - end point Id of interest
//  573  *
//  574  * @return  TRUE if task registeration successful, FALSE otherwise
//  575  *********************************************************************/

        RSEG BANKED_CODE:HUGECODE:NOROOT(0)
//  576 uint8 zcl_addExternalFoundationHandler( uint8 taskId, uint8 endPointId  )
zcl_addExternalFoundationHandler:
          CFI Block cfiBlock7 Using cfiCommon0
          CFI Function zcl_addExternalFoundationHandler
        CODE
//  577 {
        FUNCALL zcl_addExternalFoundationHandler, osal_mem_alloc
        LOCFRAME ISTACK, 0, STACK
        LOCFRAME PSTACK, 0, STACK
        LOCFRAME XSTACK, 10, STACK
        LOCFRAME IOVERLAY, 0, STATIC
        LOCFRAME DOVERLAY, 0, STATIC
        ARGFRAME ISTACK, 0, STACK
        ARGFRAME PSTACK, 0, STACK
        ARGFRAME XSTACK, 10, STACK
        ARGFRAME IOVERLAY, 0, STATIC
        ARGFRAME DOVERLAY, 0, STATIC
        FUNCALL zcl_addExternalFoundationHandler, osal_mem_free
        LOCFRAME ISTACK, 0, STACK
        LOCFRAME PSTACK, 0, STACK
        LOCFRAME XSTACK, 10, STACK
        LOCFRAME IOVERLAY, 0, STATIC
        LOCFRAME DOVERLAY, 0, STATIC
        ARGFRAME ISTACK, 0, STACK
        ARGFRAME PSTACK, 0, STACK
        ARGFRAME XSTACK, 10, STACK
        ARGFRAME IOVERLAY, 0, STATIC
        ARGFRAME DOVERLAY, 0, STATIC
        REQUIRE ?V0
        REQUIRE ?V1
        MOV       A,#-0xa
        LCALL     ?BANKED_ENTER_XDATA
          CFI DPH0 load(1, XDATA, add(CFA_XSP16, literal(-1)))
          CFI DPL0 load(1, XDATA, add(CFA_XSP16, literal(-2)))
          CFI ?BRET_EXT load(1, XDATA, add(CFA_XSP16, literal(-3)))
          CFI ?RET_HIGH load(1, XDATA, add(CFA_XSP16, literal(-4)))
          CFI ?RET_LOW load(1, XDATA, add(CFA_XSP16, literal(-5)))
          CFI R7 load(1, XDATA, add(CFA_XSP16, literal(-6)))
          CFI V1 load(1, XDATA, add(CFA_XSP16, literal(-7)))
          CFI V0 load(1, XDATA, add(CFA_XSP16, literal(-8)))
          CFI VB load(1, XDATA, add(CFA_XSP16, literal(-9)))
          CFI R6 load(1, XDATA, add(CFA_XSP16, literal(-10)))
          CFI CFA_SP SP+0
          CFI CFA_XSP16 add(XSP16, 10)
        ; Saved register size: 10
        ; Auto size: 0
        MOV       A,R1
        MOV       R6,A
        MOV       A,R2
        MOV       R7,A
//  578   zclExternalFoundationHandlerList *pNewItem;
//  579   zclExternalFoundationHandlerList *pLoop;
//  580   zclExternalFoundationHandlerList *pLoopPrev;
//  581 
//  582   // Fill in the new endpoint registrant list
//  583   pNewItem = zcl_mem_alloc( sizeof( zclExternalFoundationHandlerList ) );
        ; Setup parameters for call to function osal_mem_alloc
        MOV       R2,#0x4
        MOV       R3,#0x0
        LCALL     `??osal_mem_alloc::?relay`; Banked call to: osal_mem_alloc
        MOV       ?V0,R2
        MOV       ?V1,R3
        MOV       R0,?V0
        MOV       R1,?V1
//  584   if ( pNewItem == NULL )
        MOV       A,R0
        ORL       A,R1
        JZ        ??zcl_addExternalFoundationHandler_0
//  585   {
//  586     return ( false );
//  587   }
//  588 
//  589   pNewItem->zcl_ExternalEndPoint = endPointId;
        MOV       A,R7
        MOV       DPL,R0
        MOV       DPH,R1
        INC       DPTR
        INC       DPTR
        INC       DPTR
        MOVX      @DPTR,A
//  590   pNewItem->zcl_ExternalTaskID = taskId;
        MOV       A,R6
        MOV       DPL,R0
        MOV       DPH,R1
        INC       DPTR
        INC       DPTR
        LCALL     ?Subroutine35 & 0xFFFF
//  591   pNewItem->next = NULL;
//  592 
//  593   // Add to the list
//  594   if ( externalEndPointHandlerList == NULL )
??CrossCallReturnLabel_48:
        MOV       DPTR,#externalEndPointHandlerList
        LCALL     ??Subroutine189_0 & 0xFFFF
??CrossCallReturnLabel_321:
        JNZ       ??zcl_addExternalFoundationHandler_1
//  595   {
//  596     externalEndPointHandlerList = pNewItem;
        MOV       DPTR,#externalEndPointHandlerList
        MOV       A,R0
        MOVX      @DPTR,A
        INC       DPTR
        MOV       A,R1
        SJMP      ??zcl_addExternalFoundationHandler_2
//  597   }
//  598   else
//  599   {
//  600     // make sure no one else tried to register for this endpoint
//  601     pLoop = externalEndPointHandlerList;
??zcl_addExternalFoundationHandler_1:
        MOVX      A,@DPTR
        MOV       R3,A
//  602     pLoopPrev = externalEndPointHandlerList;
//  603 
//  604     while ( pLoop != NULL )
//  605     {
//  606       if ( ( pLoop->zcl_ExternalEndPoint ) == endPointId )
??zcl_addExternalFoundationHandler_3:
        MOV       DPL,R2
        MOV       DPH,R3
        INC       DPTR
        INC       DPTR
        INC       DPTR
        MOVX      A,@DPTR
        XRL       A,R7
        JNZ       ??zcl_addExternalFoundationHandler_4
//  607       {
//  608         zcl_mem_free(pNewItem);
        ; Setup parameters for call to function osal_mem_free
        MOV       A,R0
        MOV       R2,A
        MOV       A,R1
        MOV       R3,A
        LCALL     `??osal_mem_free::?relay`; Banked call to: osal_mem_free
//  609         return ( false );
??zcl_addExternalFoundationHandler_0:
        MOV       R1,#0x0
        SJMP      ??zcl_addExternalFoundationHandler_5
//  610       }
//  611       pLoopPrev = pLoop;
??zcl_addExternalFoundationHandler_4:
        MOV       A,R2
        MOV       R4,A
        MOV       A,R3
        MOV       R5,A
//  612       pLoop = pLoop->next;
        MOV       DPL,R2
        MOV       DPH,R3
        LCALL     ??Subroutine189_0 & 0xFFFF
//  613     }
??CrossCallReturnLabel_318:
        JNZ       ??zcl_addExternalFoundationHandler_3
//  614 
//  615     if ( endPointId == AF_BROADCAST_ENDPOINT )
        MOV       A,#-0x1
        XRL       A,R7
        JNZ       ??zcl_addExternalFoundationHandler_6
//  616     {
//  617       // put new registration at the end of the list
//  618       pLoopPrev->next = pNewItem;
        MOV       DPL,R4
        MOV       DPH,R5
        LCALL     ?Subroutine41 & 0xFFFF
//  619       pNewItem->next = NULL;
//  620     }
??CrossCallReturnLabel_57:
        CLR       A
        MOVX      @DPTR,A
        INC       DPTR
        SJMP      ??zcl_addExternalFoundationHandler_2
//  621     else
//  622     {
//  623       // put new registration at the front of the list
//  624       zclExternalFoundationHandlerList *temp = externalEndPointHandlerList;
??zcl_addExternalFoundationHandler_6:
        MOV       DPTR,#externalEndPointHandlerList
        LCALL     ??Subroutine209_0 & 0xFFFF
//  625       externalEndPointHandlerList = pNewItem;
??CrossCallReturnLabel_390:
        MOV       DPTR,#externalEndPointHandlerList
        LCALL     ?Subroutine41 & 0xFFFF
//  626       pNewItem->next = temp;
//  627     }
//  628   }
??CrossCallReturnLabel_58:
        MOV       A,R2
        MOVX      @DPTR,A
        INC       DPTR
        MOV       A,R3
??zcl_addExternalFoundationHandler_2:
        MOVX      @DPTR,A
//  629 
//  630   return ( true );
        MOV       R1,#0x1
??zcl_addExternalFoundationHandler_5:
        LJMP      ??Subroutine199_0 & 0xFFFF
//  631 
//  632 }
          CFI EndBlock cfiBlock7

        RSEG BANKED_CODE:HUGECODE:NOROOT(0)
?Subroutine41:
          CFI Block cfiCond8 Using cfiCommon0
          CFI Function zcl_addExternalFoundationHandler
          CFI Conditional ??CrossCallReturnLabel_57
          CFI R6 load(1, XDATA, add(CFA_XSP16, literal(-10)))
          CFI VB load(1, XDATA, add(CFA_XSP16, literal(-9)))
          CFI V0 load(1, XDATA, add(CFA_XSP16, literal(-8)))
          CFI V1 load(1, XDATA, add(CFA_XSP16, literal(-7)))
          CFI R7 load(1, XDATA, add(CFA_XSP16, literal(-6)))
          CFI ?RET_LOW load(1, XDATA, add(CFA_XSP16, literal(-5)))
          CFI ?RET_HIGH load(1, XDATA, add(CFA_XSP16, literal(-4)))
          CFI ?BRET_EXT load(1, XDATA, add(CFA_XSP16, literal(-3)))
          CFI DPL0 load(1, XDATA, add(CFA_XSP16, literal(-2)))
          CFI DPH0 load(1, XDATA, add(CFA_XSP16, literal(-1)))
          CFI CFA_SP SP+-2
          CFI CFA_XSP16 add(XSP16, 10)
          CFI Block cfiCond9 Using cfiCommon0
          CFI (cfiCond9) Function zcl_addExternalFoundationHandler
          CFI (cfiCond9) Conditional ??CrossCallReturnLabel_58
          CFI (cfiCond9) R6 load(1, XDATA, add(CFA_XSP16, literal(-10)))
          CFI (cfiCond9) VB load(1, XDATA, add(CFA_XSP16, literal(-9)))
          CFI (cfiCond9) V0 load(1, XDATA, add(CFA_XSP16, literal(-8)))
          CFI (cfiCond9) V1 load(1, XDATA, add(CFA_XSP16, literal(-7)))
          CFI (cfiCond9) R7 load(1, XDATA, add(CFA_XSP16, literal(-6)))
          CFI (cfiCond9) ?RET_LOW load(1, XDATA, add(CFA_XSP16, literal(-5)))
          CFI (cfiCond9) ?RET_HIGH load(1, XDATA, add(CFA_XSP16, literal(-4)))
          CFI (cfiCond9) ?BRET_EXT load(1, XDATA, add(CFA_XSP16, literal(-3)))
          CFI (cfiCond9) DPL0 load(1, XDATA, add(CFA_XSP16, literal(-2)))
          CFI (cfiCond9) DPH0 load(1, XDATA, add(CFA_XSP16, literal(-1)))
          CFI (cfiCond9) CFA_SP SP+-2
          CFI (cfiCond9) CFA_XSP16 add(XSP16, 10)
          CFI Block cfiPicker10 Using cfiCommon1
          CFI (cfiPicker10) NoFunction
          CFI (cfiPicker10) Picker
        MOV       A,R0
        MOVX      @DPTR,A
        INC       DPTR
        MOV       A,R1
        LCALL     ?Subroutine149 & 0xFFFF
??CrossCallReturnLabel_334:
        RET
          CFI EndBlock cfiCond8
          CFI EndBlock cfiCond9
          CFI EndBlock cfiPicker10

        RSEG BANKED_CODE:HUGECODE:NOROOT(0)
?Subroutine149:
          CFI Block cfiCond11 Using cfiCommon0
          CFI Function zcl_addExternalFoundationHandler
          CFI Conditional ??CrossCallReturnLabel_334, ??CrossCallReturnLabel_57
          CFI R6 load(1, XDATA, add(CFA_XSP16, literal(-10)))
          CFI VB load(1, XDATA, add(CFA_XSP16, literal(-9)))
          CFI V0 load(1, XDATA, add(CFA_XSP16, literal(-8)))
          CFI V1 load(1, XDATA, add(CFA_XSP16, literal(-7)))
          CFI R7 load(1, XDATA, add(CFA_XSP16, literal(-6)))
          CFI ?RET_LOW load(1, XDATA, add(CFA_XSP16, literal(-5)))
          CFI ?RET_HIGH load(1, XDATA, add(CFA_XSP16, literal(-4)))
          CFI ?BRET_EXT load(1, XDATA, add(CFA_XSP16, literal(-3)))
          CFI DPL0 load(1, XDATA, add(CFA_XSP16, literal(-2)))
          CFI DPH0 load(1, XDATA, add(CFA_XSP16, literal(-1)))
          CFI CFA_SP SP+-4
          CFI CFA_XSP16 add(XSP16, 10)
          CFI Block cfiCond12 Using cfiCommon0
          CFI (cfiCond12) Function zcl_addExternalFoundationHandler
          CFI (cfiCond12) Conditional ??CrossCallReturnLabel_334, ??CrossCallReturnLabel_58
          CFI (cfiCond12) R6 load(1, XDATA, add(CFA_XSP16, literal(-10)))
          CFI (cfiCond12) VB load(1, XDATA, add(CFA_XSP16, literal(-9)))
          CFI (cfiCond12) V0 load(1, XDATA, add(CFA_XSP16, literal(-8)))
          CFI (cfiCond12) V1 load(1, XDATA, add(CFA_XSP16, literal(-7)))
          CFI (cfiCond12) R7 load(1, XDATA, add(CFA_XSP16, literal(-6)))
          CFI (cfiCond12) ?RET_LOW load(1, XDATA, add(CFA_XSP16, literal(-5)))
          CFI (cfiCond12) ?RET_HIGH load(1, XDATA, add(CFA_XSP16, literal(-4)))
          CFI (cfiCond12) ?BRET_EXT load(1, XDATA, add(CFA_XSP16, literal(-3)))
          CFI (cfiCond12) DPL0 load(1, XDATA, add(CFA_XSP16, literal(-2)))
          CFI (cfiCond12) DPH0 load(1, XDATA, add(CFA_XSP16, literal(-1)))
          CFI (cfiCond12) CFA_SP SP+-4
          CFI (cfiCond12) CFA_XSP16 add(XSP16, 10)
          CFI Block cfiCond13 Using cfiCommon0
          CFI (cfiCond13) Function zcl_addExternalFoundationHandler
          CFI (cfiCond13) Conditional ??CrossCallReturnLabel_335, ??CrossCallReturnLabel_48
          CFI (cfiCond13) R6 load(1, XDATA, add(CFA_XSP16, literal(-10)))
          CFI (cfiCond13) VB load(1, XDATA, add(CFA_XSP16, literal(-9)))
          CFI (cfiCond13) V0 load(1, XDATA, add(CFA_XSP16, literal(-8)))
          CFI (cfiCond13) V1 load(1, XDATA, add(CFA_XSP16, literal(-7)))
          CFI (cfiCond13) R7 load(1, XDATA, add(CFA_XSP16, literal(-6)))
          CFI (cfiCond13) ?RET_LOW load(1, XDATA, add(CFA_XSP16, literal(-5)))
          CFI (cfiCond13) ?RET_HIGH load(1, XDATA, add(CFA_XSP16, literal(-4)))
          CFI (cfiCond13) ?BRET_EXT load(1, XDATA, add(CFA_XSP16, literal(-3)))
          CFI (cfiCond13) DPL0 load(1, XDATA, add(CFA_XSP16, literal(-2)))
          CFI (cfiCond13) DPH0 load(1, XDATA, add(CFA_XSP16, literal(-1)))
          CFI (cfiCond13) CFA_SP SP+-4
          CFI (cfiCond13) CFA_XSP16 add(XSP16, 10)
          CFI Block cfiCond14 Using cfiCommon0
          CFI (cfiCond14) Function zcl_HandleExternal
          CFI (cfiCond14) Conditional ??CrossCallReturnLabel_335, ??CrossCallReturnLabel_49
          CFI (cfiCond14) R6 load(1, XDATA, add(CFA_XSP16, literal(-12)))
          CFI (cfiCond14) VB load(1, XDATA, add(CFA_XSP16, literal(-11)))
          CFI (cfiCond14) V0 load(1, XDATA, add(CFA_XSP16, literal(-10)))
          CFI (cfiCond14) V1 load(1, XDATA, add(CFA_XSP16, literal(-9)))
          CFI (cfiCond14) V2 load(1, XDATA, add(CFA_XSP16, literal(-8)))
          CFI (cfiCond14) V3 load(1, XDATA, add(CFA_XSP16, literal(-7)))
          CFI (cfiCond14) R7 load(1, XDATA, add(CFA_XSP16, literal(-6)))
          CFI (cfiCond14) ?RET_LOW load(1, XDATA, add(CFA_XSP16, literal(-5)))
          CFI (cfiCond14) ?RET_HIGH load(1, XDATA, add(CFA_XSP16, literal(-4)))
          CFI (cfiCond14) ?BRET_EXT load(1, XDATA, add(CFA_XSP16, literal(-3)))
          CFI (cfiCond14) DPL0 load(1, XDATA, add(CFA_XSP16, literal(-2)))
          CFI (cfiCond14) DPH0 load(1, XDATA, add(CFA_XSP16, literal(-1)))
          CFI (cfiCond14) CFA_SP SP+-4
          CFI (cfiCond14) CFA_XSP16 add(XSP16, 12)
          CFI Block cfiCond15 Using cfiCommon0
          CFI (cfiCond15) Function zcl_registerPlugin
          CFI (cfiCond15) Conditional ??CrossCallReturnLabel_336
          CFI (cfiCond15) R6 load(1, XDATA, add(CFA_XSP16, literal(-12)))
          CFI (cfiCond15) VB load(1, XDATA, add(CFA_XSP16, literal(-11)))
          CFI (cfiCond15) V0 load(1, XDATA, add(CFA_XSP16, literal(-10)))
          CFI (cfiCond15) V1 load(1, XDATA, add(CFA_XSP16, literal(-9)))
          CFI (cfiCond15) V2 load(1, XDATA, add(CFA_XSP16, literal(-8)))
          CFI (cfiCond15) V3 load(1, XDATA, add(CFA_XSP16, literal(-7)))
          CFI (cfiCond15) R7 load(1, XDATA, add(CFA_XSP16, literal(-6)))
          CFI (cfiCond15) ?RET_LOW load(1, XDATA, add(CFA_XSP16, literal(-5)))
          CFI (cfiCond15) ?RET_HIGH load(1, XDATA, add(CFA_XSP16, literal(-4)))
          CFI (cfiCond15) ?BRET_EXT load(1, XDATA, add(CFA_XSP16, literal(-3)))
          CFI (cfiCond15) DPL0 load(1, XDATA, add(CFA_XSP16, literal(-2)))
          CFI (cfiCond15) DPH0 load(1, XDATA, add(CFA_XSP16, literal(-1)))
          CFI (cfiCond15) CFA_SP SP+-2
          CFI (cfiCond15) CFA_XSP16 add(XSP16, 12)
          CFI Block cfiCond16 Using cfiCommon0
          CFI (cfiCond16) Function zcl_SendDefaultRspCmd
          CFI (cfiCond16) Conditional ??CrossCallReturnLabel_337, ??CrossCallReturnLabel_329
          CFI (cfiCond16) R6 load(1, XDATA, add(CFA_XSP16, literal(-10)))
          CFI (cfiCond16) VB load(1, XDATA, add(CFA_XSP16, literal(-9)))
          CFI (cfiCond16) V0 load(1, XDATA, add(CFA_XSP16, literal(-8)))
          CFI (cfiCond16) V1 load(1, XDATA, add(CFA_XSP16, literal(-7)))
          CFI (cfiCond16) R7 load(1, XDATA, add(CFA_XSP16, literal(-6)))
          CFI (cfiCond16) ?RET_LOW load(1, XDATA, add(CFA_XSP16, literal(-5)))
          CFI (cfiCond16) ?RET_HIGH load(1, XDATA, add(CFA_XSP16, literal(-4)))
          CFI (cfiCond16) ?BRET_EXT load(1, XDATA, add(CFA_XSP16, literal(-3)))
          CFI (cfiCond16) DPL0 load(1, XDATA, add(CFA_XSP16, literal(-2)))
          CFI (cfiCond16) DPH0 load(1, XDATA, add(CFA_XSP16, literal(-1)))
          CFI (cfiCond16) CFA_SP SP+-4
          CFI (cfiCond16) CFA_XSP16 add(XSP16, 12)
          CFI Block cfiCond17 Using cfiCommon0
          CFI (cfiCond17) Function zcl_SendDiscoverCmdsCmd
          CFI (cfiCond17) Conditional ??CrossCallReturnLabel_337, ??CrossCallReturnLabel_330
          CFI (cfiCond17) R6 load(1, XDATA, add(CFA_XSP16, literal(-14)))
          CFI (cfiCond17) VB load(1, XDATA, add(CFA_XSP16, literal(-13)))
          CFI (cfiCond17) V0 load(1, XDATA, add(CFA_XSP16, literal(-12)))
          CFI (cfiCond17) V1 load(1, XDATA, add(CFA_XSP16, literal(-11)))
          CFI (cfiCond17) V2 load(1, XDATA, add(CFA_XSP16, literal(-10)))
          CFI (cfiCond17) V3 load(1, XDATA, add(CFA_XSP16, literal(-9)))
          CFI (cfiCond17) V4 load(1, XDATA, add(CFA_XSP16, literal(-8)))
          CFI (cfiCond17) V5 load(1, XDATA, add(CFA_XSP16, literal(-7)))
          CFI (cfiCond17) R7 load(1, XDATA, add(CFA_XSP16, literal(-6)))
          CFI (cfiCond17) ?RET_LOW load(1, XDATA, add(CFA_XSP16, literal(-5)))
          CFI (cfiCond17) ?RET_HIGH load(1, XDATA, add(CFA_XSP16, literal(-4)))
          CFI (cfiCond17) ?BRET_EXT load(1, XDATA, add(CFA_XSP16, literal(-3)))
          CFI (cfiCond17) DPL0 load(1, XDATA, add(CFA_XSP16, literal(-2)))
          CFI (cfiCond17) DPH0 load(1, XDATA, add(CFA_XSP16, literal(-1)))
          CFI (cfiCond17) CFA_SP SP+-4
          CFI (cfiCond17) CFA_XSP16 add(XSP16, 16)
          CFI Block cfiCond18 Using cfiCommon0
          CFI (cfiCond18) Function zcl_SendDiscoverAttrsExt
          CFI (cfiCond18) Conditional ??CrossCallReturnLabel_337, ??CrossCallReturnLabel_331
          CFI (cfiCond18) R6 load(1, XDATA, add(CFA_XSP16, literal(-10)))
          CFI (cfiCond18) VB load(1, XDATA, add(CFA_XSP16, literal(-9)))
          CFI (cfiCond18) V0 load(1, XDATA, add(CFA_XSP16, literal(-8)))
          CFI (cfiCond18) V1 load(1, XDATA, add(CFA_XSP16, literal(-7)))
          CFI (cfiCond18) R7 load(1, XDATA, add(CFA_XSP16, literal(-6)))
          CFI (cfiCond18) ?RET_LOW load(1, XDATA, add(CFA_XSP16, literal(-5)))
          CFI (cfiCond18) ?RET_HIGH load(1, XDATA, add(CFA_XSP16, literal(-4)))
          CFI (cfiCond18) ?BRET_EXT load(1, XDATA, add(CFA_XSP16, literal(-3)))
          CFI (cfiCond18) DPL0 load(1, XDATA, add(CFA_XSP16, literal(-2)))
          CFI (cfiCond18) DPH0 load(1, XDATA, add(CFA_XSP16, literal(-1)))
          CFI (cfiCond18) CFA_SP SP+-4
          CFI (cfiCond18) CFA_XSP16 add(XSP16, 13)
          CFI Block cfiCond19 Using cfiCommon0
          CFI (cfiCond19) Function zcl_SendDiscoverAttrsCmd
          CFI (cfiCond19) Conditional ??CrossCallReturnLabel_337, ??CrossCallReturnLabel_332
          CFI (cfiCond19) R6 load(1, XDATA, add(CFA_XSP16, literal(-16)))
          CFI (cfiCond19) VB load(1, XDATA, add(CFA_XSP16, literal(-15)))
          CFI (cfiCond19) V0 load(1, XDATA, add(CFA_XSP16, literal(-14)))
          CFI (cfiCond19) V1 load(1, XDATA, add(CFA_XSP16, literal(-13)))
          CFI (cfiCond19) V2 load(1, XDATA, add(CFA_XSP16, literal(-12)))
          CFI (cfiCond19) V3 load(1, XDATA, add(CFA_XSP16, literal(-11)))
          CFI (cfiCond19) V4 load(1, XDATA, add(CFA_XSP16, literal(-10)))
          CFI (cfiCond19) V5 load(1, XDATA, add(CFA_XSP16, literal(-9)))
          CFI (cfiCond19) V6 load(1, XDATA, add(CFA_XSP16, literal(-8)))
          CFI (cfiCond19) V7 load(1, XDATA, add(CFA_XSP16, literal(-7)))
          CFI (cfiCond19) R7 load(1, XDATA, add(CFA_XSP16, literal(-6)))
          CFI (cfiCond19) ?RET_LOW load(1, XDATA, add(CFA_XSP16, literal(-5)))
          CFI (cfiCond19) ?RET_HIGH load(1, XDATA, add(CFA_XSP16, literal(-4)))
          CFI (cfiCond19) ?BRET_EXT load(1, XDATA, add(CFA_XSP16, literal(-3)))
          CFI (cfiCond19) DPL0 load(1, XDATA, add(CFA_XSP16, literal(-2)))
          CFI (cfiCond19) DPH0 load(1, XDATA, add(CFA_XSP16, literal(-1)))
          CFI (cfiCond19) CFA_SP SP+-4
          CFI (cfiCond19) CFA_XSP16 add(XSP16, 16)
          CFI Block cfiCond20 Using cfiCommon0
          CFI (cfiCond20) Function zclBuildHdr
          CFI (cfiCond20) Conditional ??CrossCallReturnLabel_337, ??CrossCallReturnLabel_333
          CFI (cfiCond20) R6 load(1, XDATA, add(CFA_XSP16, literal(-9)))
          CFI (cfiCond20) VB load(1, XDATA, add(CFA_XSP16, literal(-8)))
          CFI (cfiCond20) V0 load(1, XDATA, add(CFA_XSP16, literal(-7)))
          CFI (cfiCond20) R7 load(1, XDATA, add(CFA_XSP16, literal(-6)))
          CFI (cfiCond20) ?RET_LOW load(1, XDATA, add(CFA_XSP16, literal(-5)))
          CFI (cfiCond20) ?RET_HIGH load(1, XDATA, add(CFA_XSP16, literal(-4)))
          CFI (cfiCond20) ?BRET_EXT load(1, XDATA, add(CFA_XSP16, literal(-3)))
          CFI (cfiCond20) DPL0 load(1, XDATA, add(CFA_XSP16, literal(-2)))
          CFI (cfiCond20) DPH0 load(1, XDATA, add(CFA_XSP16, literal(-1)))
          CFI (cfiCond20) CFA_SP SP+-4
          CFI (cfiCond20) CFA_XSP16 add(XSP16, 9)
          CFI Block cfiCond21 Using cfiCommon0
          CFI (cfiCond21) Function zcl_SendDiscoverAttrsCmd
          CFI (cfiCond21) Conditional ??CrossCallReturnLabel_338, ??CrossCallReturnLabel_66
          CFI (cfiCond21) R6 load(1, XDATA, add(CFA_XSP16, literal(-16)))
          CFI (cfiCond21) VB load(1, XDATA, add(CFA_XSP16, literal(-15)))
          CFI (cfiCond21) V0 load(1, XDATA, add(CFA_XSP16, literal(-14)))
          CFI (cfiCond21) V1 load(1, XDATA, add(CFA_XSP16, literal(-13)))
          CFI (cfiCond21) V2 load(1, XDATA, add(CFA_XSP16, literal(-12)))
          CFI (cfiCond21) V3 load(1, XDATA, add(CFA_XSP16, literal(-11)))
          CFI (cfiCond21) V4 load(1, XDATA, add(CFA_XSP16, literal(-10)))
          CFI (cfiCond21) V5 load(1, XDATA, add(CFA_XSP16, literal(-9)))
          CFI (cfiCond21) V6 load(1, XDATA, add(CFA_XSP16, literal(-8)))
          CFI (cfiCond21) V7 load(1, XDATA, add(CFA_XSP16, literal(-7)))
          CFI (cfiCond21) R7 load(1, XDATA, add(CFA_XSP16, literal(-6)))
          CFI (cfiCond21) ?RET_LOW load(1, XDATA, add(CFA_XSP16, literal(-5)))
          CFI (cfiCond21) ?RET_HIGH load(1, XDATA, add(CFA_XSP16, literal(-4)))
          CFI (cfiCond21) ?BRET_EXT load(1, XDATA, add(CFA_XSP16, literal(-3)))
          CFI (cfiCond21) DPL0 load(1, XDATA, add(CFA_XSP16, literal(-2)))
          CFI (cfiCond21) DPH0 load(1, XDATA, add(CFA_XSP16, literal(-1)))
          CFI (cfiCond21) CFA_SP SP+-4
          CFI (cfiCond21) CFA_XSP16 add(XSP16, 16)
          CFI Block cfiCond22 Using cfiCommon0
          CFI (cfiCond22) Function zcl_SendDiscoverAttrsExt
          CFI (cfiCond22) Conditional ??CrossCallReturnLabel_338, ??CrossCallReturnLabel_67
          CFI (cfiCond22) R6 load(1, XDATA, add(CFA_XSP16, literal(-10)))
          CFI (cfiCond22) VB load(1, XDATA, add(CFA_XSP16, literal(-9)))
          CFI (cfiCond22) V0 load(1, XDATA, add(CFA_XSP16, literal(-8)))
          CFI (cfiCond22) V1 load(1, XDATA, add(CFA_XSP16, literal(-7)))
          CFI (cfiCond22) R7 load(1, XDATA, add(CFA_XSP16, literal(-6)))
          CFI (cfiCond22) ?RET_LOW load(1, XDATA, add(CFA_XSP16, literal(-5)))
          CFI (cfiCond22) ?RET_HIGH load(1, XDATA, add(CFA_XSP16, literal(-4)))
          CFI (cfiCond22) ?BRET_EXT load(1, XDATA, add(CFA_XSP16, literal(-3)))
          CFI (cfiCond22) DPL0 load(1, XDATA, add(CFA_XSP16, literal(-2)))
          CFI (cfiCond22) DPH0 load(1, XDATA, add(CFA_XSP16, literal(-1)))
          CFI (cfiCond22) CFA_SP SP+-4
          CFI (cfiCond22) CFA_XSP16 add(XSP16, 13)
          CFI Block cfiPicker23 Using cfiCommon1
          CFI (cfiPicker23) NoFunction
          CFI (cfiPicker23) Picker
        MOVX      @DPTR,A
        MOV       DPL,R0
        MOV       DPH,R1
        RET
          CFI EndBlock cfiCond11
          CFI EndBlock cfiCond12
          CFI EndBlock cfiCond13
          CFI EndBlock cfiCond14
          CFI EndBlock cfiCond15
          CFI EndBlock cfiCond16
          CFI EndBlock cfiCond17
          CFI EndBlock cfiCond18
          CFI EndBlock cfiCond19
          CFI EndBlock cfiCond20
          CFI EndBlock cfiCond21
          CFI EndBlock cfiCond22
          CFI EndBlock cfiPicker23
//  633 
//  634 /*********************************************************************
//  635  * @fn      zcl_getExternalFoundationHandler
//  636  *
//  637  * @brief   This function retrieves the Task ID of the task registered
//  638  *          to received unhandled incoming Foundation Command/Response messages
//  639  *          for a particular End Point ID.
//  640  *
//  641  * @param   pInMsg - recevied ZCL command
//  642  *
//  643  * @return  TASK ID of registered task.  If no task is reigistered, it returns
//  644  *          TASK_NO_TASK.
//  645  *********************************************************************/

        RSEG BANKED_CODE:HUGECODE:NOROOT(0)
//  646 static uint8 zcl_getExternalFoundationHandler( afIncomingMSGPacket_t *pInMsg )
zcl_getExternalFoundationHandler:
          CFI Block cfiBlock24 Using cfiCommon0
          CFI Function zcl_getExternalFoundationHandler
        CODE
//  647 {
        PUSH      DPL
          CFI DPL0 Frame(CFA_SP, 4)
          CFI CFA_SP SP+-4
        PUSH      DPH
          CFI DPH0 Frame(CFA_SP, 5)
          CFI CFA_SP SP+-5
        ; Saved register size: 2
        ; Auto size: 0
//  648   zclExternalFoundationHandlerList *pLoop;
//  649   uint8 addressedEndPointId = pInMsg->endPoint;
        MOV       A,R2
        LCALL     ?Subroutine136 & 0xFFFF
??CrossCallReturnLabel_247:
        ADDC      A,R3
        MOV       DPH,A
        MOVX      A,@DPTR
        MOV       R2,A
//  650 
//  651   // make sure no one else tried to register for this endpoint
//  652   pLoop = externalEndPointHandlerList;
        MOV       DPTR,#externalEndPointHandlerList
        SJMP      ??zcl_getExternalFoundationHandler_0
//  653 
//  654   while ( pLoop != NULL )
//  655   {
//  656     if ( ( ( pLoop->zcl_ExternalEndPoint ) == addressedEndPointId ) ||
//  657          ( ( pLoop->zcl_ExternalEndPoint ) == AF_BROADCAST_ENDPOINT ) )
//  658     {
//  659       return ( pLoop->zcl_ExternalTaskID );
//  660     }
//  661     pLoop = pLoop->next;
??zcl_getExternalFoundationHandler_1:
        MOV       DPL,R0
        MOV       DPH,R1
??zcl_getExternalFoundationHandler_0:
        LCALL     ??Subroutine212_0 & 0xFFFF
??CrossCallReturnLabel_422:
        JZ        ??zcl_getExternalFoundationHandler_2
        MOV       DPL,R0
        MOV       DPH,R1
        INC       DPTR
        INC       DPTR
        INC       DPTR
        MOVX      A,@DPTR
        MOV       R3,A
        MOV       A,R2
        XRL       A,R3
        JZ        ??zcl_getExternalFoundationHandler_3
        MOV       A,#-0x1
        XRL       A,R3
        JNZ       ??zcl_getExternalFoundationHandler_1
??zcl_getExternalFoundationHandler_3:
        MOV       DPL,R0
        MOV       DPH,R1
        INC       DPTR
        INC       DPTR
        MOVX      A,@DPTR
        MOV       R1,A
        SJMP      ??zcl_getExternalFoundationHandler_4
//  662   }
//  663 
//  664   return ( TASK_NO_TASK );
??zcl_getExternalFoundationHandler_2:
        MOV       R1,#-0x1
??zcl_getExternalFoundationHandler_4:
        LJMP      ?Subroutine0 & 0xFFFF
//  665 }
          CFI EndBlock cfiBlock24
//  666 #endif
//  667 
//  668 #if !defined ( ZCL_STANDALONE )
//  669 /*********************************************************************
//  670  * @fn      zcl_HandleExternal
//  671  *
//  672  * @brief
//  673  *
//  674  * @param   pInMsg - incoming message to process
//  675  *
//  676  * @return  TRUE
//  677  */

        RSEG BANKED_CODE:HUGECODE:NOROOT(0)
//  678 uint8 zcl_HandleExternal( zclIncoming_t *pInMsg )
zcl_HandleExternal:
          CFI Block cfiBlock25 Using cfiCommon0
          CFI Function zcl_HandleExternal
        CODE
//  679 {
        FUNCALL zcl_HandleExternal, zcl_getExternalFoundationHandler
        LOCFRAME ISTACK, 0, STACK
        LOCFRAME PSTACK, 0, STACK
        LOCFRAME XSTACK, 12, STACK
        LOCFRAME IOVERLAY, 0, STATIC
        LOCFRAME DOVERLAY, 0, STATIC
        ARGFRAME ISTACK, 0, STACK
        ARGFRAME PSTACK, 0, STACK
        ARGFRAME XSTACK, 12, STACK
        ARGFRAME IOVERLAY, 0, STATIC
        ARGFRAME DOVERLAY, 0, STATIC
        FUNCALL zcl_HandleExternal, osal_msg_allocate
        LOCFRAME ISTACK, 0, STACK
        LOCFRAME PSTACK, 0, STACK
        LOCFRAME XSTACK, 12, STACK
        LOCFRAME IOVERLAY, 0, STATIC
        LOCFRAME DOVERLAY, 0, STATIC
        ARGFRAME ISTACK, 0, STACK
        ARGFRAME PSTACK, 0, STACK
        ARGFRAME XSTACK, 12, STACK
        ARGFRAME IOVERLAY, 0, STATIC
        ARGFRAME DOVERLAY, 0, STATIC
        FUNCALL zcl_HandleExternal, osal_msg_send
        LOCFRAME ISTACK, 0, STACK
        LOCFRAME PSTACK, 0, STACK
        LOCFRAME XSTACK, 12, STACK
        LOCFRAME IOVERLAY, 0, STATIC
        LOCFRAME DOVERLAY, 0, STATIC
        ARGFRAME ISTACK, 0, STACK
        ARGFRAME PSTACK, 0, STACK
        ARGFRAME XSTACK, 12, STACK
        ARGFRAME IOVERLAY, 0, STATIC
        ARGFRAME DOVERLAY, 0, STATIC
        REQUIRE ?V0
        REQUIRE ?V1
        REQUIRE ?V2
        REQUIRE ?V3
        MOV       A,#-0xc
        LCALL     ?BANKED_ENTER_XDATA
          CFI DPH0 load(1, XDATA, add(CFA_XSP16, literal(-1)))
          CFI DPL0 load(1, XDATA, add(CFA_XSP16, literal(-2)))
          CFI ?BRET_EXT load(1, XDATA, add(CFA_XSP16, literal(-3)))
          CFI ?RET_HIGH load(1, XDATA, add(CFA_XSP16, literal(-4)))
          CFI ?RET_LOW load(1, XDATA, add(CFA_XSP16, literal(-5)))
          CFI R7 load(1, XDATA, add(CFA_XSP16, literal(-6)))
          CFI V3 load(1, XDATA, add(CFA_XSP16, literal(-7)))
          CFI V2 load(1, XDATA, add(CFA_XSP16, literal(-8)))
          CFI V1 load(1, XDATA, add(CFA_XSP16, literal(-9)))
          CFI V0 load(1, XDATA, add(CFA_XSP16, literal(-10)))
          CFI VB load(1, XDATA, add(CFA_XSP16, literal(-11)))
          CFI R6 load(1, XDATA, add(CFA_XSP16, literal(-12)))
          CFI CFA_SP SP+0
          CFI CFA_XSP16 add(XSP16, 12)
        ; Saved register size: 12
        ; Auto size: 0
        MOV       A,R2
        MOV       R6,A
        MOV       A,R3
        MOV       R7,A
//  680   zclIncomingMsg_t *pCmd;
//  681   uint8 taskID;
//  682 
//  683   taskID = zcl_getExternalFoundationHandler( pInMsg->msg );
        ; Setup parameters for call to function zcl_getExternalFoundationHandler
        MOV       DPL,R6
        MOV       DPH,R7
        LCALL     ??Subroutine209_0 & 0xFFFF
??CrossCallReturnLabel_391:
        LCALL     `??zcl_getExternalFoundationHandler::?relay`; Banked call to: zcl_getExternalFoundationHandler
        MOV       A,R1
        MOV       ?V0,A
//  684 
//  685   if ( taskID == TASK_NO_TASK )
        MOV       A,#-0x1
        XRL       A,?V0
        JNZ       $+5
        LJMP      ??zcl_HandleExternal_0 & 0xFFFF
//  686   {
//  687     return ( TRUE );
//  688   }
//  689 
//  690   pCmd = (zclIncomingMsg_t *)osal_msg_allocate( sizeof ( zclIncomingMsg_t ) );
        ; Setup parameters for call to function osal_msg_allocate
        MOV       R2,#0x19
        MOV       R3,#0x0
        LCALL     `??osal_msg_allocate::?relay`; Banked call to: osal_msg_allocate
//  691   if ( pCmd != NULL )
        MOV       A,R2
        ORL       A,R3
        JNZ       $+5
        LJMP      ??zcl_HandleExternal_0 & 0xFFFF
//  692   {
//  693     // fill in the message
//  694     pCmd->hdr.event = ZCL_INCOMING_MSG;
        MOV       DPL,R2
        MOV       DPH,R3
        MOV       A,#0x34
        LCALL     ?Subroutine46 & 0xFFFF
//  695     pCmd->zclHdr    = pInMsg->hdr;
??CrossCallReturnLabel_63:
        INC       DPTR
        MOV       A,R2
        ADD       A,#0x2
        MOV       R4,A
        CLR       A
        ADDC      A,R3
        MOV       R5,A
        MOV       A,#0x6
        LCALL     ?MOVE_LONG8_XDATA_XDATA
//  696     pCmd->clusterId = pInMsg->msg->clusterId;
        MOV       DPL,R6
        MOV       DPH,R7
        LCALL     ?Subroutine116 & 0xFFFF
??CrossCallReturnLabel_220:
        LCALL     ?Subroutine120 & 0xFFFF
??CrossCallReturnLabel_518:
        MOV       DPL,R2
        MOV       DPH,R3
        INC       DPTR
        INC       DPTR
        INC       DPTR
        INC       DPTR
        INC       DPTR
        INC       DPTR
        INC       DPTR
        INC       DPTR
        LCALL     ?Subroutine36 & 0xFFFF
//  697     pCmd->srcAddr   = pInMsg->msg->srcAddr;
??CrossCallReturnLabel_345:
        MOV       DPL,R0
        MOV       DPH,R1
        INC       DPTR
        INC       DPTR
        INC       DPTR
        INC       DPTR
        INC       DPTR
        INC       DPTR
        MOV       A,R2
        ADD       A,#0xa
        MOV       R4,A
        CLR       A
        ADDC      A,R3
        MOV       R5,A
        MOV       A,#0xc
        LCALL     ?MOVE_LONG8_XDATA_XDATA
//  698     pCmd->endPoint  = pInMsg->msg->endPoint;
        MOV       DPL,R6
        MOV       DPH,R7
        LCALL     ??Subroutine227_0 & 0xFFFF
??CrossCallReturnLabel_543:
        XCH       A,R0
        LCALL     ?Subroutine136 & 0xFFFF
??CrossCallReturnLabel_248:
        ADDC      A,R0
        MOV       DPH,A
        MOVX      A,@DPTR
        PUSH      A
          CFI CFA_SP SP+-1
        MOV       A,R2
        ADD       A,#0x16
        MOV       DPL,A
        CLR       A
        ADDC      A,R3
        MOV       DPH,A
        POP       A
          CFI CFA_SP SP+0
        MOVX      @DPTR,A
//  699     pCmd->attrCmd   = pInMsg->attrCmd;
        MOV       A,R6
        ADD       A,#0xc
        MOV       R0,A
        CLR       A
        ADDC      A,R7
        MOV       R1,A
        MOV       DPL,R0
        MOV       DPH,R1
        LCALL     ??Subroutine222_0 & 0xFFFF
??CrossCallReturnLabel_505:
        MOV       A,R2
        ADD       A,#0x17
        MOV       DPL,A
        CLR       A
        ADDC      A,R3
        MOV       DPH,A
        MOV       A,R4
        MOVX      @DPTR,A
        INC       DPTR
        MOV       A,R5
        LCALL     ?Subroutine35 & 0xFFFF
//  700     
//  701 #ifdef BDB_REPORTING
//  702     if(pCmd->zclHdr.commandID == ZCL_CMD_CONFIG_REPORT)
//  703     {
//  704       bdb_ProcessInConfigReportCmd(pCmd);
//  705       osal_msg_deallocate((uint8*)pCmd);
//  706       return TRUE;          
//  707     }
//  708     if(pCmd->zclHdr.commandID == ZCL_CMD_READ_REPORT_CFG)
//  709     {
//  710       bdb_ProcessInReadReportCfgCmd(pCmd);
//  711       osal_msg_deallocate((uint8*)pCmd);
//  712       return TRUE;
//  713     }
//  714 #endif
//  715     // Application will free the attrCmd buffer
//  716     pInMsg->attrCmd = NULL;
//  717 
//  718     /* send message through task message */
//  719     osal_msg_send( taskID, (uint8 *)pCmd );
??CrossCallReturnLabel_49:
        ; Setup parameters for call to function osal_msg_send
        MOV       R1,?V0
        LCALL     `??osal_msg_send::?relay`; Banked call to: osal_msg_send
//  720   }
//  721 
//  722   return ( TRUE );
??zcl_HandleExternal_0:
        MOV       R1,#0x1
        LJMP      ?Subroutine4 & 0xFFFF
//  723 }
          CFI EndBlock cfiBlock25

        RSEG BANKED_CODE:HUGECODE:NOROOT(0)
?Subroutine35:
          CFI Block cfiCond26 Using cfiCommon0
          CFI Function zcl_addExternalFoundationHandler
          CFI Conditional ??CrossCallReturnLabel_48
          CFI R6 load(1, XDATA, add(CFA_XSP16, literal(-10)))
          CFI VB load(1, XDATA, add(CFA_XSP16, literal(-9)))
          CFI V0 load(1, XDATA, add(CFA_XSP16, literal(-8)))
          CFI V1 load(1, XDATA, add(CFA_XSP16, literal(-7)))
          CFI R7 load(1, XDATA, add(CFA_XSP16, literal(-6)))
          CFI ?RET_LOW load(1, XDATA, add(CFA_XSP16, literal(-5)))
          CFI ?RET_HIGH load(1, XDATA, add(CFA_XSP16, literal(-4)))
          CFI ?BRET_EXT load(1, XDATA, add(CFA_XSP16, literal(-3)))
          CFI DPL0 load(1, XDATA, add(CFA_XSP16, literal(-2)))
          CFI DPH0 load(1, XDATA, add(CFA_XSP16, literal(-1)))
          CFI CFA_SP SP+-2
          CFI CFA_XSP16 add(XSP16, 10)
          CFI Block cfiCond27 Using cfiCommon0
          CFI (cfiCond27) Function zcl_HandleExternal
          CFI (cfiCond27) Conditional ??CrossCallReturnLabel_49
          CFI (cfiCond27) R6 load(1, XDATA, add(CFA_XSP16, literal(-12)))
          CFI (cfiCond27) VB load(1, XDATA, add(CFA_XSP16, literal(-11)))
          CFI (cfiCond27) V0 load(1, XDATA, add(CFA_XSP16, literal(-10)))
          CFI (cfiCond27) V1 load(1, XDATA, add(CFA_XSP16, literal(-9)))
          CFI (cfiCond27) V2 load(1, XDATA, add(CFA_XSP16, literal(-8)))
          CFI (cfiCond27) V3 load(1, XDATA, add(CFA_XSP16, literal(-7)))
          CFI (cfiCond27) R7 load(1, XDATA, add(CFA_XSP16, literal(-6)))
          CFI (cfiCond27) ?RET_LOW load(1, XDATA, add(CFA_XSP16, literal(-5)))
          CFI (cfiCond27) ?RET_HIGH load(1, XDATA, add(CFA_XSP16, literal(-4)))
          CFI (cfiCond27) ?BRET_EXT load(1, XDATA, add(CFA_XSP16, literal(-3)))
          CFI (cfiCond27) DPL0 load(1, XDATA, add(CFA_XSP16, literal(-2)))
          CFI (cfiCond27) DPH0 load(1, XDATA, add(CFA_XSP16, literal(-1)))
          CFI (cfiCond27) CFA_SP SP+-2
          CFI (cfiCond27) CFA_XSP16 add(XSP16, 12)
          CFI Block cfiPicker28 Using cfiCommon1
          CFI (cfiPicker28) NoFunction
          CFI (cfiPicker28) Picker
        LCALL     ?Subroutine149 & 0xFFFF
??CrossCallReturnLabel_335:
        CLR       A
        MOVX      @DPTR,A
        INC       DPTR
        MOVX      @DPTR,A
        RET
          CFI EndBlock cfiCond26
          CFI EndBlock cfiCond27
          CFI EndBlock cfiPicker28
//  724 #endif
//  725 
//  726 
//  727 /*********************************************************************
//  728  * @fn          zcl_getRawAFMsg
//  729  *
//  730  * @brief       Call to get original unprocessed AF message
//  731  *              (not parsed by ZCL).
//  732  *
//  733  *   NOTE:  This function can only be called during a ZCL callback function
//  734  *          and the calling function must NOT change any data in the message.
//  735  *
//  736  * @param       none
//  737  *
//  738  * @return      pointer to original AF message, NULL if not processing
//  739  *              AF message.
//  740  */

        RSEG BANKED_CODE:HUGECODE:NOROOT(0)
//  741 afIncomingMSGPacket_t *zcl_getRawAFMsg( void )
zcl_getRawAFMsg:
          CFI Block cfiBlock29 Using cfiCommon0
          CFI Function zcl_getRawAFMsg
        CODE
//  742 {
        PUSH      DPL
          CFI DPL0 Frame(CFA_SP, 4)
          CFI CFA_SP SP+-4
        PUSH      DPH
          CFI DPH0 Frame(CFA_SP, 5)
          CFI CFA_SP SP+-5
        ; Saved register size: 2
        ; Auto size: 0
//  743   return ( rawAFMsg );
        MOV       DPTR,#rawAFMsg
        LCALL     ??Subroutine209_0 & 0xFFFF
??CrossCallReturnLabel_392:
        SJMP      ?Subroutine0
//  744 }
          CFI EndBlock cfiBlock29
//  745 
//  746 /*********************************************************************
//  747  * @fn          zcl_getParsedTransSeqNum
//  748  *
//  749  * @brief       Call to the get the transaction sequence number from
//  750  *              the incoming message.
//  751  *
//  752  *   NOTE:  This function can only be called during a ZCL callback function
//  753  *          and the calling function must NOT change any data in the message.
//  754  *
//  755  * @param       none
//  756  *
//  757  * @return      transaction sequence number.
//  758  */

        RSEG BANKED_CODE:HUGECODE:NOROOT(0)
//  759 uint8 zcl_getParsedTransSeqNum( void )
zcl_getParsedTransSeqNum:
          CFI Block cfiBlock30 Using cfiCommon0
          CFI Function zcl_getParsedTransSeqNum
        CODE
//  760 {
        PUSH      DPL
          CFI DPL0 Frame(CFA_SP, 4)
          CFI CFA_SP SP+-4
        PUSH      DPH
          CFI DPH0 Frame(CFA_SP, 5)
          CFI CFA_SP SP+-5
        ; Saved register size: 2
        ; Auto size: 0
//  761   return ( savedZCLTransSeqNum );
        MOV       DPTR,#savedZCLTransSeqNum
        MOVX      A,@DPTR
        MOV       R1,A
          CFI EndBlock cfiBlock30
        REQUIRE ?Subroutine0
        ; // Fall through to label ?Subroutine0
//  762 }

        RSEG BANKED_CODE:HUGECODE:NOROOT(0)
?Subroutine0:
          CFI Block cfiBlock31 Using cfiCommon0
          CFI NoFunction
          CFI CFA_SP SP+-5
          CFI DPL0 Frame(CFA_SP, 4)
          CFI DPH0 Frame(CFA_SP, 5)
        POP       DPH
          CFI CFA_SP SP+-4
          CFI DPH0 SameValue
        POP       DPL
          CFI CFA_SP SP+-3
          CFI DPL0 SameValue
        LJMP      ?BRET
          CFI EndBlock cfiBlock31
//  763 
//  764 /*********************************************************************
//  765  * @fn          zcl_registerPlugin
//  766  *
//  767  * @brief       Add a Cluster Library handler
//  768  *
//  769  * @param       startClusterID - starting cluster ID
//  770  * @param       endClusterID - ending cluster ID
//  771  * @param       pfnHdlr - function pointer to incoming message handler
//  772  *
//  773  * @return      ZSuccess if OK
//  774  */

        RSEG BANKED_CODE:HUGECODE:NOROOT(0)
//  775 ZStatus_t zcl_registerPlugin( uint16 startClusterID,
zcl_registerPlugin:
          CFI Block cfiBlock32 Using cfiCommon0
          CFI Function zcl_registerPlugin
        CODE
//  776           uint16 endClusterID, zclInHdlr_t pfnIncomingHdlr )
//  777 {
        FUNCALL zcl_registerPlugin, osal_mem_alloc
        LOCFRAME ISTACK, 0, STACK
        LOCFRAME PSTACK, 0, STACK
        LOCFRAME XSTACK, 12, STACK
        LOCFRAME IOVERLAY, 0, STATIC
        LOCFRAME DOVERLAY, 0, STATIC
        ARGFRAME ISTACK, 0, STACK
        ARGFRAME PSTACK, 0, STACK
        ARGFRAME XSTACK, 12, STACK
        ARGFRAME IOVERLAY, 0, STATIC
        ARGFRAME DOVERLAY, 0, STATIC
        REQUIRE ?V0
        REQUIRE ?V1
        REQUIRE ?V2
        REQUIRE ?V3
        MOV       A,#-0xc
        LCALL     ?BANKED_ENTER_XDATA
          CFI DPH0 load(1, XDATA, add(CFA_XSP16, literal(-1)))
          CFI DPL0 load(1, XDATA, add(CFA_XSP16, literal(-2)))
          CFI ?BRET_EXT load(1, XDATA, add(CFA_XSP16, literal(-3)))
          CFI ?RET_HIGH load(1, XDATA, add(CFA_XSP16, literal(-4)))
          CFI ?RET_LOW load(1, XDATA, add(CFA_XSP16, literal(-5)))
          CFI R7 load(1, XDATA, add(CFA_XSP16, literal(-6)))
          CFI V3 load(1, XDATA, add(CFA_XSP16, literal(-7)))
          CFI V2 load(1, XDATA, add(CFA_XSP16, literal(-8)))
          CFI V1 load(1, XDATA, add(CFA_XSP16, literal(-9)))
          CFI V0 load(1, XDATA, add(CFA_XSP16, literal(-10)))
          CFI VB load(1, XDATA, add(CFA_XSP16, literal(-11)))
          CFI R6 load(1, XDATA, add(CFA_XSP16, literal(-12)))
          CFI CFA_SP SP+0
          CFI CFA_XSP16 add(XSP16, 12)
        ; Saved register size: 12
        ; Auto size: 0
        MOV       ?V0,R2
        MOV       ?V1,R3
        MOV       A,R4
        MOV       R6,A
        MOV       A,R5
        MOV       R7,A
//  778   zclLibPlugin_t *pNewItem;
//  779   zclLibPlugin_t *pLoop;
//  780 
//  781   // Fill in the new profile list
//  782   pNewItem = zcl_mem_alloc( sizeof( zclLibPlugin_t ) );
        ; Setup parameters for call to function osal_mem_alloc
        MOV       R2,#0x8
        MOV       R3,#0x0
        LCALL     `??osal_mem_alloc::?relay`; Banked call to: osal_mem_alloc
        MOV       ?V2,R2
        MOV       ?V3,R3
        MOV       R0,?V2
        MOV       R1,?V3
//  783   if ( pNewItem == NULL )
        MOV       A,R0
        ORL       A,R1
        JNZ       ??zcl_registerPlugin_0
//  784   {
//  785     return (ZMemError);
        MOV       R1,#0x10
        SJMP      ??CrossCallReturnLabel_32
//  786   }
//  787 
//  788   // Fill in the plugin record.
//  789   pNewItem->next = (zclLibPlugin_t *)NULL;
??zcl_registerPlugin_0:
        MOV       DPL,R0
        MOV       DPH,R1
        CLR       A
        MOVX      @DPTR,A
        INC       DPTR
        LCALL     ?Subroutine149 & 0xFFFF
//  790   pNewItem->startClusterID = startClusterID;
??CrossCallReturnLabel_336:
        LCALL     ?Subroutine23 & 0xFFFF
//  791   pNewItem->endClusterID = endClusterID;
??CrossCallReturnLabel_24:
        LCALL     ??Subroutine204_0 & 0xFFFF
//  792   pNewItem->pfnIncomingHdlr = pfnIncomingHdlr;
??CrossCallReturnLabel_383:
        MOV       A,#0xc
        LCALL     ?XSTACK_DISP0_8
        LCALL     ?Subroutine66 & 0xFFFF
??CrossCallReturnLabel_118:
        INC       DPTR
        INC       DPTR
        INC       DPTR
        INC       DPTR
        LCALL     ??Subroutine214_0 & 0xFFFF
//  793 
//  794   // Find spot in list
//  795   if (  plugins == NULL )
??CrossCallReturnLabel_446:
        MOV       DPTR,#plugins
        LCALL     ??Subroutine189_0 & 0xFFFF
??CrossCallReturnLabel_322:
        MOV       DPTR,#plugins
        JZ        ??zcl_registerPlugin_1
//  796   {
//  797     plugins = pNewItem;
//  798   }
//  799   else
//  800   {
//  801     // Look for end of list
//  802     pLoop = plugins;
        LCALL     ?Subroutine177 & 0xFFFF
??CrossCallReturnLabel_299:
        SJMP      ??zcl_registerPlugin_2
//  803     while ( pLoop->next != NULL )
//  804     {
//  805       pLoop = pLoop->next;
??zcl_registerPlugin_3:
        MOV       A,R2
        MOV       R4,A
        MOV       A,R3
//  806     }
??zcl_registerPlugin_2:
        LCALL     ?Subroutine52 & 0xFFFF
??CrossCallReturnLabel_314:
        JNZ       ??zcl_registerPlugin_3
//  807 
//  808     // Put new item at end of list
//  809     pLoop->next = pNewItem;
        MOV       DPL,R4
        MOV       DPH,R5
//  810   }
??zcl_registerPlugin_1:
        LCALL     ?Subroutine27 & 0xFFFF
//  811 
//  812   return ( ZSuccess );
??CrossCallReturnLabel_32:
        LJMP      ?Subroutine4 & 0xFFFF
//  813 }
          CFI EndBlock cfiBlock32
//  814 
//  815 #ifdef ZCL_DISCOVER
//  816 /*********************************************************************
//  817  * @fn          zcl_registerCmdList
//  818  *
//  819  * @brief       Register a Command List with ZCL Foundation
//  820  *
//  821  * @param       endpoint - endpoint the attribute list belongs to
//  822  * @param       newCmdList - array of command records
//  823  *
//  824  * @return      ZSuccess if OK
//  825  */

        RSEG BANKED_CODE:HUGECODE:NOROOT(0)
//  826 ZStatus_t zcl_registerCmdList( uint8 endpoint, CONST uint8 cmdListSize, CONST zclCommandRec_t newCmdList[] )
zcl_registerCmdList:
          CFI Block cfiBlock33 Using cfiCommon0
          CFI Function zcl_registerCmdList
        CODE
//  827 {
        FUNCALL zcl_registerCmdList, osal_mem_alloc
        LOCFRAME ISTACK, 0, STACK
        LOCFRAME PSTACK, 0, STACK
        LOCFRAME XSTACK, 12, STACK
        LOCFRAME IOVERLAY, 0, STATIC
        LOCFRAME DOVERLAY, 0, STATIC
        ARGFRAME ISTACK, 0, STACK
        ARGFRAME PSTACK, 0, STACK
        ARGFRAME XSTACK, 12, STACK
        ARGFRAME IOVERLAY, 0, STATIC
        ARGFRAME DOVERLAY, 0, STATIC
        REQUIRE ?V0
        REQUIRE ?V1
        REQUIRE ?V2
        REQUIRE ?V3
        MOV       A,#-0xc
        LCALL     ?BANKED_ENTER_XDATA
          CFI DPH0 load(1, XDATA, add(CFA_XSP16, literal(-1)))
          CFI DPL0 load(1, XDATA, add(CFA_XSP16, literal(-2)))
          CFI ?BRET_EXT load(1, XDATA, add(CFA_XSP16, literal(-3)))
          CFI ?RET_HIGH load(1, XDATA, add(CFA_XSP16, literal(-4)))
          CFI ?RET_LOW load(1, XDATA, add(CFA_XSP16, literal(-5)))
          CFI R7 load(1, XDATA, add(CFA_XSP16, literal(-6)))
          CFI V3 load(1, XDATA, add(CFA_XSP16, literal(-7)))
          CFI V2 load(1, XDATA, add(CFA_XSP16, literal(-8)))
          CFI V1 load(1, XDATA, add(CFA_XSP16, literal(-9)))
          CFI V0 load(1, XDATA, add(CFA_XSP16, literal(-10)))
          CFI VB load(1, XDATA, add(CFA_XSP16, literal(-11)))
          CFI R6 load(1, XDATA, add(CFA_XSP16, literal(-12)))
          CFI CFA_SP SP+0
          CFI CFA_XSP16 add(XSP16, 12)
        ; Saved register size: 12
        ; Auto size: 0
        MOV       ?V0,R1
        MOV       ?V1,R2
        MOV       A,R4
        MOV       R6,A
        MOV       A,R5
        MOV       R7,A
//  828   zclCmdRecsList_t *pNewItem;
//  829   zclCmdRecsList_t *pLoop;
//  830 
//  831   // Fill in the new profile list
//  832   pNewItem = zcl_mem_alloc( sizeof( zclCmdRecsList_t ) );
        ; Setup parameters for call to function osal_mem_alloc
        MOV       R2,#0x6
        MOV       R3,#0x0
        LCALL     `??osal_mem_alloc::?relay`; Banked call to: osal_mem_alloc
        MOV       ?V2,R2
        MOV       ?V3,R3
        MOV       R0,?V2
        MOV       R1,?V3
//  833   if ( pNewItem == NULL )
        MOV       A,R0
        ORL       A,R1
        JNZ       ??zcl_registerCmdList_0
//  834   {
//  835     return (ZMemError);
        MOV       R1,#0x10
        SJMP      ??CrossCallReturnLabel_33
//  836   }
//  837 
//  838   pNewItem->pNext = (zclCmdRecsList_t *)NULL;
??zcl_registerCmdList_0:
        LCALL     ?Subroutine11 & 0xFFFF
//  839   pNewItem->endpoint = endpoint;
//  840   pNewItem->numCommands = cmdListSize;
//  841   pNewItem->pCmdRecs = newCmdList;
//  842 
//  843   // Find spot in list
//  844   if ( gpCmdList == NULL )
??CrossCallReturnLabel_4:
        MOV       DPTR,#gpCmdList
        LCALL     ??Subroutine189_0 & 0xFFFF
??CrossCallReturnLabel_323:
        MOV       DPTR,#gpCmdList
        JZ        ??zcl_registerCmdList_1
//  845   {
//  846     gpCmdList = pNewItem;
//  847   }
//  848   else
//  849   {
//  850     // Look for end of list
//  851     pLoop = gpCmdList;
        LCALL     ?Subroutine177 & 0xFFFF
??CrossCallReturnLabel_300:
        SJMP      ??zcl_registerCmdList_2
//  852     while ( pLoop->pNext != NULL )
//  853     {
//  854       pLoop = pLoop->pNext;
??zcl_registerCmdList_3:
        MOV       A,R2
        MOV       R4,A
        MOV       A,R3
//  855     }
??zcl_registerCmdList_2:
        LCALL     ?Subroutine52 & 0xFFFF
??CrossCallReturnLabel_315:
        JNZ       ??zcl_registerCmdList_3
//  856 
//  857     // Put new item at end of list
//  858     pLoop->pNext = pNewItem;
        MOV       DPL,R4
        MOV       DPH,R5
//  859   }
??zcl_registerCmdList_1:
        LCALL     ?Subroutine27 & 0xFFFF
//  860 
//  861   return ( ZSuccess );
??CrossCallReturnLabel_33:
        LJMP      ?Subroutine4 & 0xFFFF
//  862 }
          CFI EndBlock cfiBlock33
//  863 #endif  // ZCL_DISCOVER
//  864 
//  865 /*********************************************************************
//  866  * @fn          zcl_registerAttrList
//  867  *
//  868  * @brief       Register an Attribute List with ZCL Foundation
//  869  *
//  870  * @param       endpoint - endpoint the attribute list belongs to
//  871  * @param       numAttr - number of attributes in list
//  872  * @param       newAttrList - array of Attribute records.
//  873  *                            NOTE: THE ATTRIBUTE IDs (FOR A CLUSTER) MUST BE IN
//  874  *                            ASCENDING ORDER. OTHERWISE, THE DISCOVERY RESPONSE
//  875  *                            COMMAND WILL NOT HAVE THE RIGHT ATTRIBUTE INFO
//  876  *
//  877  * @return      ZSuccess if OK
//  878  */

        RSEG BANKED_CODE:HUGECODE:NOROOT(0)
//  879 ZStatus_t zcl_registerAttrList( uint8 endpoint, uint8 numAttr, CONST zclAttrRec_t newAttrList[] )
zcl_registerAttrList:
          CFI Block cfiBlock34 Using cfiCommon0
          CFI Function zcl_registerAttrList
        CODE
//  880 {
        FUNCALL zcl_registerAttrList, osal_mem_alloc
        LOCFRAME ISTACK, 0, STACK
        LOCFRAME PSTACK, 0, STACK
        LOCFRAME XSTACK, 12, STACK
        LOCFRAME IOVERLAY, 0, STATIC
        LOCFRAME DOVERLAY, 0, STATIC
        ARGFRAME ISTACK, 0, STACK
        ARGFRAME PSTACK, 0, STACK
        ARGFRAME XSTACK, 12, STACK
        ARGFRAME IOVERLAY, 0, STATIC
        ARGFRAME DOVERLAY, 0, STATIC
        REQUIRE ?V0
        REQUIRE ?V1
        REQUIRE ?V2
        REQUIRE ?V3
        MOV       A,#-0xc
        LCALL     ?BANKED_ENTER_XDATA
          CFI DPH0 load(1, XDATA, add(CFA_XSP16, literal(-1)))
          CFI DPL0 load(1, XDATA, add(CFA_XSP16, literal(-2)))
          CFI ?BRET_EXT load(1, XDATA, add(CFA_XSP16, literal(-3)))
          CFI ?RET_HIGH load(1, XDATA, add(CFA_XSP16, literal(-4)))
          CFI ?RET_LOW load(1, XDATA, add(CFA_XSP16, literal(-5)))
          CFI R7 load(1, XDATA, add(CFA_XSP16, literal(-6)))
          CFI V3 load(1, XDATA, add(CFA_XSP16, literal(-7)))
          CFI V2 load(1, XDATA, add(CFA_XSP16, literal(-8)))
          CFI V1 load(1, XDATA, add(CFA_XSP16, literal(-9)))
          CFI V0 load(1, XDATA, add(CFA_XSP16, literal(-10)))
          CFI VB load(1, XDATA, add(CFA_XSP16, literal(-11)))
          CFI R6 load(1, XDATA, add(CFA_XSP16, literal(-12)))
          CFI CFA_SP SP+0
          CFI CFA_XSP16 add(XSP16, 12)
        ; Saved register size: 12
        ; Auto size: 0
        MOV       ?V0,R1
        MOV       ?V1,R2
        MOV       A,R4
        MOV       R6,A
        MOV       A,R5
        MOV       R7,A
//  881   zclAttrRecsList *pNewItem;
//  882   zclAttrRecsList *pLoop;
//  883 
//  884   // Fill in the new profile list
//  885   pNewItem = zcl_mem_alloc( sizeof( zclAttrRecsList ) );
        ; Setup parameters for call to function osal_mem_alloc
        MOV       R2,#0xa
        MOV       R3,#0x0
        LCALL     `??osal_mem_alloc::?relay`; Banked call to: osal_mem_alloc
        MOV       ?V2,R2
        MOV       ?V3,R3
        MOV       R0,?V2
        MOV       R1,?V3
//  886   if ( pNewItem == NULL )
        MOV       A,R0
        ORL       A,R1
        JNZ       ??zcl_registerAttrList_0
//  887   {
//  888     return (ZMemError);
        MOV       R1,#0x10
        SJMP      ??CrossCallReturnLabel_34
//  889   }
//  890 
//  891   pNewItem->next = (zclAttrRecsList *)NULL;
??zcl_registerAttrList_0:
        LCALL     ?Subroutine145 & 0xFFFF
//  892   pNewItem->endpoint = endpoint;
//  893   pNewItem->pfnReadWriteCB = NULL;
??CrossCallReturnLabel_268:
        CLR       A
        MOVX      @DPTR,A
        INC       DPTR
        LCALL     ?Subroutine28 & 0xFFFF
//  894   pNewItem->numAttributes = numAttr;
??CrossCallReturnLabel_36:
        MOV       A,?V1
        LCALL     ?Subroutine28 & 0xFFFF
//  895   pNewItem->attrs = newAttrList;
??CrossCallReturnLabel_37:
        LCALL     ?Subroutine43 & 0xFFFF
//  896 
//  897   // Find spot in list
//  898   if ( attrList == NULL )
??CrossCallReturnLabel_387:
        MOV       DPTR,#attrList
        LCALL     ??Subroutine189_0 & 0xFFFF
??CrossCallReturnLabel_324:
        MOV       DPTR,#attrList
        JZ        ??zcl_registerAttrList_1
//  899   {
//  900     attrList = pNewItem;
//  901   }
//  902   else
//  903   {
//  904     // Look for end of list
//  905     pLoop = attrList;
        LCALL     ?Subroutine177 & 0xFFFF
??CrossCallReturnLabel_301:
        SJMP      ??zcl_registerAttrList_2
//  906     while ( pLoop->next != NULL )
//  907     {
//  908       pLoop = pLoop->next;
??zcl_registerAttrList_3:
        MOV       A,R2
        MOV       R4,A
        MOV       A,R3
//  909     }
??zcl_registerAttrList_2:
        LCALL     ?Subroutine52 & 0xFFFF
??CrossCallReturnLabel_316:
        JNZ       ??zcl_registerAttrList_3
//  910 
//  911     // Put new item at end of list
//  912     pLoop->next = pNewItem;
        MOV       DPL,R4
        MOV       DPH,R5
//  913   }
??zcl_registerAttrList_1:
        LCALL     ?Subroutine27 & 0xFFFF
//  914 
//  915   return ( ZSuccess );
??CrossCallReturnLabel_34:
        SJMP      ?Subroutine4
//  916 }
          CFI EndBlock cfiBlock34

        RSEG BANKED_CODE:HUGECODE:NOROOT(0)
?Subroutine28:
          CFI Block cfiCond35 Using cfiCommon0
          CFI Function zcl_registerAttrList
          CFI Conditional ??CrossCallReturnLabel_36
          CFI R6 load(1, XDATA, add(CFA_XSP16, literal(-12)))
          CFI VB load(1, XDATA, add(CFA_XSP16, literal(-11)))
          CFI V0 load(1, XDATA, add(CFA_XSP16, literal(-10)))
          CFI V1 load(1, XDATA, add(CFA_XSP16, literal(-9)))
          CFI V2 load(1, XDATA, add(CFA_XSP16, literal(-8)))
          CFI V3 load(1, XDATA, add(CFA_XSP16, literal(-7)))
          CFI R7 load(1, XDATA, add(CFA_XSP16, literal(-6)))
          CFI ?RET_LOW load(1, XDATA, add(CFA_XSP16, literal(-5)))
          CFI ?RET_HIGH load(1, XDATA, add(CFA_XSP16, literal(-4)))
          CFI ?BRET_EXT load(1, XDATA, add(CFA_XSP16, literal(-3)))
          CFI DPL0 load(1, XDATA, add(CFA_XSP16, literal(-2)))
          CFI DPH0 load(1, XDATA, add(CFA_XSP16, literal(-1)))
          CFI CFA_SP SP+-2
          CFI CFA_XSP16 add(XSP16, 12)
          CFI Block cfiCond36 Using cfiCommon0
          CFI (cfiCond36) Function zcl_registerAttrList
          CFI (cfiCond36) Conditional ??CrossCallReturnLabel_37
          CFI (cfiCond36) R6 load(1, XDATA, add(CFA_XSP16, literal(-12)))
          CFI (cfiCond36) VB load(1, XDATA, add(CFA_XSP16, literal(-11)))
          CFI (cfiCond36) V0 load(1, XDATA, add(CFA_XSP16, literal(-10)))
          CFI (cfiCond36) V1 load(1, XDATA, add(CFA_XSP16, literal(-9)))
          CFI (cfiCond36) V2 load(1, XDATA, add(CFA_XSP16, literal(-8)))
          CFI (cfiCond36) V3 load(1, XDATA, add(CFA_XSP16, literal(-7)))
          CFI (cfiCond36) R7 load(1, XDATA, add(CFA_XSP16, literal(-6)))
          CFI (cfiCond36) ?RET_LOW load(1, XDATA, add(CFA_XSP16, literal(-5)))
          CFI (cfiCond36) ?RET_HIGH load(1, XDATA, add(CFA_XSP16, literal(-4)))
          CFI (cfiCond36) ?BRET_EXT load(1, XDATA, add(CFA_XSP16, literal(-3)))
          CFI (cfiCond36) DPL0 load(1, XDATA, add(CFA_XSP16, literal(-2)))
          CFI (cfiCond36) DPH0 load(1, XDATA, add(CFA_XSP16, literal(-1)))
          CFI (cfiCond36) CFA_SP SP+-2
          CFI (cfiCond36) CFA_XSP16 add(XSP16, 12)
          CFI Block cfiPicker37 Using cfiCommon1
          CFI (cfiPicker37) NoFunction
          CFI (cfiPicker37) Picker
        LCALL     ??Subroutine188_0 & 0xFFFF
??CrossCallReturnLabel_311:
        INC       DPTR
        INC       DPTR
        INC       DPTR
        RET
          CFI EndBlock cfiCond35
          CFI EndBlock cfiCond36
          CFI EndBlock cfiPicker37

        RSEG BANKED_CODE:HUGECODE:NOROOT(0)
?Subroutine27:
          CFI Block cfiCond38 Using cfiCommon0
          CFI Function zcl_registerPlugin
          CFI Conditional ??CrossCallReturnLabel_32
          CFI R6 load(1, XDATA, add(CFA_XSP16, literal(-12)))
          CFI VB load(1, XDATA, add(CFA_XSP16, literal(-11)))
          CFI V0 load(1, XDATA, add(CFA_XSP16, literal(-10)))
          CFI V1 load(1, XDATA, add(CFA_XSP16, literal(-9)))
          CFI V2 load(1, XDATA, add(CFA_XSP16, literal(-8)))
          CFI V3 load(1, XDATA, add(CFA_XSP16, literal(-7)))
          CFI R7 load(1, XDATA, add(CFA_XSP16, literal(-6)))
          CFI ?RET_LOW load(1, XDATA, add(CFA_XSP16, literal(-5)))
          CFI ?RET_HIGH load(1, XDATA, add(CFA_XSP16, literal(-4)))
          CFI ?BRET_EXT load(1, XDATA, add(CFA_XSP16, literal(-3)))
          CFI DPL0 load(1, XDATA, add(CFA_XSP16, literal(-2)))
          CFI DPH0 load(1, XDATA, add(CFA_XSP16, literal(-1)))
          CFI CFA_SP SP+-2
          CFI CFA_XSP16 add(XSP16, 12)
          CFI Block cfiCond39 Using cfiCommon0
          CFI (cfiCond39) Function zcl_registerCmdList
          CFI (cfiCond39) Conditional ??CrossCallReturnLabel_33
          CFI (cfiCond39) R6 load(1, XDATA, add(CFA_XSP16, literal(-12)))
          CFI (cfiCond39) VB load(1, XDATA, add(CFA_XSP16, literal(-11)))
          CFI (cfiCond39) V0 load(1, XDATA, add(CFA_XSP16, literal(-10)))
          CFI (cfiCond39) V1 load(1, XDATA, add(CFA_XSP16, literal(-9)))
          CFI (cfiCond39) V2 load(1, XDATA, add(CFA_XSP16, literal(-8)))
          CFI (cfiCond39) V3 load(1, XDATA, add(CFA_XSP16, literal(-7)))
          CFI (cfiCond39) R7 load(1, XDATA, add(CFA_XSP16, literal(-6)))
          CFI (cfiCond39) ?RET_LOW load(1, XDATA, add(CFA_XSP16, literal(-5)))
          CFI (cfiCond39) ?RET_HIGH load(1, XDATA, add(CFA_XSP16, literal(-4)))
          CFI (cfiCond39) ?BRET_EXT load(1, XDATA, add(CFA_XSP16, literal(-3)))
          CFI (cfiCond39) DPL0 load(1, XDATA, add(CFA_XSP16, literal(-2)))
          CFI (cfiCond39) DPH0 load(1, XDATA, add(CFA_XSP16, literal(-1)))
          CFI (cfiCond39) CFA_SP SP+-2
          CFI (cfiCond39) CFA_XSP16 add(XSP16, 12)
          CFI Block cfiCond40 Using cfiCommon0
          CFI (cfiCond40) Function zcl_registerAttrList
          CFI (cfiCond40) Conditional ??CrossCallReturnLabel_34
          CFI (cfiCond40) R6 load(1, XDATA, add(CFA_XSP16, literal(-12)))
          CFI (cfiCond40) VB load(1, XDATA, add(CFA_XSP16, literal(-11)))
          CFI (cfiCond40) V0 load(1, XDATA, add(CFA_XSP16, literal(-10)))
          CFI (cfiCond40) V1 load(1, XDATA, add(CFA_XSP16, literal(-9)))
          CFI (cfiCond40) V2 load(1, XDATA, add(CFA_XSP16, literal(-8)))
          CFI (cfiCond40) V3 load(1, XDATA, add(CFA_XSP16, literal(-7)))
          CFI (cfiCond40) R7 load(1, XDATA, add(CFA_XSP16, literal(-6)))
          CFI (cfiCond40) ?RET_LOW load(1, XDATA, add(CFA_XSP16, literal(-5)))
          CFI (cfiCond40) ?RET_HIGH load(1, XDATA, add(CFA_XSP16, literal(-4)))
          CFI (cfiCond40) ?BRET_EXT load(1, XDATA, add(CFA_XSP16, literal(-3)))
          CFI (cfiCond40) DPL0 load(1, XDATA, add(CFA_XSP16, literal(-2)))
          CFI (cfiCond40) DPH0 load(1, XDATA, add(CFA_XSP16, literal(-1)))
          CFI (cfiCond40) CFA_SP SP+-2
          CFI (cfiCond40) CFA_XSP16 add(XSP16, 12)
          CFI Block cfiCond41 Using cfiCommon0
          CFI (cfiCond41) Function zcl_registerClusterOptionList
          CFI (cfiCond41) Conditional ??CrossCallReturnLabel_35
          CFI (cfiCond41) R6 load(1, XDATA, add(CFA_XSP16, literal(-12)))
          CFI (cfiCond41) VB load(1, XDATA, add(CFA_XSP16, literal(-11)))
          CFI (cfiCond41) V0 load(1, XDATA, add(CFA_XSP16, literal(-10)))
          CFI (cfiCond41) V1 load(1, XDATA, add(CFA_XSP16, literal(-9)))
          CFI (cfiCond41) V2 load(1, XDATA, add(CFA_XSP16, literal(-8)))
          CFI (cfiCond41) V3 load(1, XDATA, add(CFA_XSP16, literal(-7)))
          CFI (cfiCond41) R7 load(1, XDATA, add(CFA_XSP16, literal(-6)))
          CFI (cfiCond41) ?RET_LOW load(1, XDATA, add(CFA_XSP16, literal(-5)))
          CFI (cfiCond41) ?RET_HIGH load(1, XDATA, add(CFA_XSP16, literal(-4)))
          CFI (cfiCond41) ?BRET_EXT load(1, XDATA, add(CFA_XSP16, literal(-3)))
          CFI (cfiCond41) DPL0 load(1, XDATA, add(CFA_XSP16, literal(-2)))
          CFI (cfiCond41) DPH0 load(1, XDATA, add(CFA_XSP16, literal(-1)))
          CFI (cfiCond41) CFA_SP SP+-2
          CFI (cfiCond41) CFA_XSP16 add(XSP16, 12)
          CFI Block cfiPicker42 Using cfiCommon1
          CFI (cfiPicker42) NoFunction
          CFI (cfiPicker42) Picker
        MOV       A,R0
        MOVX      @DPTR,A
        INC       DPTR
        MOV       A,R1
        MOVX      @DPTR,A
        MOV       R1,#0x0
        RET
          CFI EndBlock cfiCond38
          CFI EndBlock cfiCond39
          CFI EndBlock cfiCond40
          CFI EndBlock cfiCond41
          CFI EndBlock cfiPicker42
//  917 
//  918 /*********************************************************************
//  919  * @fn          zcl_registerClusterOptionList
//  920  *
//  921  * @brief       Register a Cluster Option List with ZCL Foundation
//  922  *
//  923  * @param       endpoint - endpoint the option list belongs to
//  924  * @param       numOption - number of options in list
//  925  * @param       optionList - array of cluster option records.
//  926  *
//  927  *              NOTE: This API should be called to enable 'Application
//  928  *                    Link Key' security and/or 'APS ACK' for a specific
//  929  *                    Cluster. The 'Application Link Key' is discarded
//  930  *                    if security isn't enabled on the device.
//  931  *                    The default behavior is 'Network Key' when security
//  932  *                    is enabled and no 'APS ACK' for the ZCL messages.
//  933  *
//  934  * @return      ZSuccess if OK
//  935  */

        RSEG BANKED_CODE:HUGECODE:NOROOT(0)
//  936 ZStatus_t zcl_registerClusterOptionList( uint8 endpoint, uint8 numOption, zclOptionRec_t optionList[] )
zcl_registerClusterOptionList:
          CFI Block cfiBlock43 Using cfiCommon0
          CFI Function zcl_registerClusterOptionList
        CODE
//  937 {
        FUNCALL zcl_registerClusterOptionList, osal_mem_alloc
        LOCFRAME ISTACK, 0, STACK
        LOCFRAME PSTACK, 0, STACK
        LOCFRAME XSTACK, 12, STACK
        LOCFRAME IOVERLAY, 0, STATIC
        LOCFRAME DOVERLAY, 0, STATIC
        ARGFRAME ISTACK, 0, STACK
        ARGFRAME PSTACK, 0, STACK
        ARGFRAME XSTACK, 12, STACK
        ARGFRAME IOVERLAY, 0, STATIC
        ARGFRAME DOVERLAY, 0, STATIC
        REQUIRE ?V0
        REQUIRE ?V1
        REQUIRE ?V2
        REQUIRE ?V3
        MOV       A,#-0xc
        LCALL     ?BANKED_ENTER_XDATA
          CFI DPH0 load(1, XDATA, add(CFA_XSP16, literal(-1)))
          CFI DPL0 load(1, XDATA, add(CFA_XSP16, literal(-2)))
          CFI ?BRET_EXT load(1, XDATA, add(CFA_XSP16, literal(-3)))
          CFI ?RET_HIGH load(1, XDATA, add(CFA_XSP16, literal(-4)))
          CFI ?RET_LOW load(1, XDATA, add(CFA_XSP16, literal(-5)))
          CFI R7 load(1, XDATA, add(CFA_XSP16, literal(-6)))
          CFI V3 load(1, XDATA, add(CFA_XSP16, literal(-7)))
          CFI V2 load(1, XDATA, add(CFA_XSP16, literal(-8)))
          CFI V1 load(1, XDATA, add(CFA_XSP16, literal(-9)))
          CFI V0 load(1, XDATA, add(CFA_XSP16, literal(-10)))
          CFI VB load(1, XDATA, add(CFA_XSP16, literal(-11)))
          CFI R6 load(1, XDATA, add(CFA_XSP16, literal(-12)))
          CFI CFA_SP SP+0
          CFI CFA_XSP16 add(XSP16, 12)
        ; Saved register size: 12
        ; Auto size: 0
        MOV       ?V0,R1
        MOV       ?V1,R2
        MOV       A,R4
        MOV       R6,A
        MOV       A,R5
        MOV       R7,A
//  938   zclClusterOptionList *pNewItem;
//  939   zclClusterOptionList *pLoop;
//  940 
//  941   // Fill in the new profile list
//  942   pNewItem = zcl_mem_alloc( sizeof( zclClusterOptionList ) );
        ; Setup parameters for call to function osal_mem_alloc
        MOV       R2,#0x6
        MOV       R3,#0x0
        LCALL     `??osal_mem_alloc::?relay`; Banked call to: osal_mem_alloc
        MOV       ?V2,R2
        MOV       ?V3,R3
        MOV       R0,?V2
        MOV       R1,?V3
//  943   if ( pNewItem == NULL )
        MOV       A,R0
        ORL       A,R1
        JNZ       ??zcl_registerClusterOptionList_0
//  944   {
//  945     return (ZMemError);
        MOV       R1,#0x10
        SJMP      ??CrossCallReturnLabel_35
//  946   }
//  947 
//  948   pNewItem->next = (zclClusterOptionList *)NULL;
??zcl_registerClusterOptionList_0:
        LCALL     ?Subroutine11 & 0xFFFF
//  949   pNewItem->endpoint = endpoint;
//  950   pNewItem->numOptions = numOption;
//  951   pNewItem->options = optionList;
//  952 
//  953   // Find spot in list
//  954   if ( clusterOptionList == NULL )
??CrossCallReturnLabel_5:
        MOV       DPTR,#clusterOptionList
        LCALL     ??Subroutine189_0 & 0xFFFF
??CrossCallReturnLabel_325:
        MOV       DPTR,#clusterOptionList
        JZ        ??zcl_registerClusterOptionList_1
//  955   {
//  956     clusterOptionList = pNewItem;
//  957   }
//  958   else
//  959   {
//  960     // Look for end of list
//  961     pLoop = clusterOptionList;
        LCALL     ?Subroutine177 & 0xFFFF
??CrossCallReturnLabel_302:
        SJMP      ??zcl_registerClusterOptionList_2
//  962     while ( pLoop->next != NULL )
//  963     {
//  964       pLoop = pLoop->next;
??zcl_registerClusterOptionList_3:
        MOV       A,R2
        MOV       R4,A
        MOV       A,R3
//  965     }
??zcl_registerClusterOptionList_2:
        LCALL     ?Subroutine52 & 0xFFFF
??CrossCallReturnLabel_317:
        JNZ       ??zcl_registerClusterOptionList_3
//  966 
//  967     // Put new item at end of list
//  968     pLoop->next = pNewItem;
        MOV       DPL,R4
        MOV       DPH,R5
//  969   }
??zcl_registerClusterOptionList_1:
        LCALL     ?Subroutine27 & 0xFFFF
//  970 
//  971   return ( ZSuccess );
??CrossCallReturnLabel_35:
          CFI EndBlock cfiBlock43
        REQUIRE ?Subroutine4
        ; // Fall through to label ?Subroutine4
//  972 }

        RSEG BANKED_CODE:HUGECODE:NOROOT(0)
?Subroutine4:
          CFI Block cfiBlock44 Using cfiCommon0
          CFI NoFunction
          CFI CFA_SP SP+0
          CFI CFA_XSP16 add(XSP16, 12)
          CFI VB load(1, XDATA, add(CFA_XSP16, literal(-11)))
          CFI DPL0 load(1, XDATA, add(CFA_XSP16, literal(-2)))
          CFI DPH0 load(1, XDATA, add(CFA_XSP16, literal(-1)))
          CFI R6 load(1, XDATA, add(CFA_XSP16, literal(-12)))
          CFI R7 load(1, XDATA, add(CFA_XSP16, literal(-6)))
          CFI V0 load(1, XDATA, add(CFA_XSP16, literal(-10)))
          CFI V1 load(1, XDATA, add(CFA_XSP16, literal(-9)))
          CFI V2 load(1, XDATA, add(CFA_XSP16, literal(-8)))
          CFI V3 load(1, XDATA, add(CFA_XSP16, literal(-7)))
          CFI ?BRET_EXT load(1, XDATA, add(CFA_XSP16, literal(-3)))
          CFI ?RET_HIGH load(1, XDATA, add(CFA_XSP16, literal(-4)))
          CFI ?RET_LOW load(1, XDATA, add(CFA_XSP16, literal(-5)))
        MOV       R7,#0x4
        LJMP      ?BANKED_LEAVE_XDATA
          CFI EndBlock cfiBlock44

        RSEG BANKED_CODE:HUGECODE:NOROOT(0)
?Subroutine177:
          CFI Block cfiCond45 Using cfiCommon0
          CFI Function zcl_registerPlugin
          CFI Conditional ??CrossCallReturnLabel_299
          CFI R6 load(1, XDATA, add(CFA_XSP16, literal(-12)))
          CFI VB load(1, XDATA, add(CFA_XSP16, literal(-11)))
          CFI V0 load(1, XDATA, add(CFA_XSP16, literal(-10)))
          CFI V1 load(1, XDATA, add(CFA_XSP16, literal(-9)))
          CFI V2 load(1, XDATA, add(CFA_XSP16, literal(-8)))
          CFI V3 load(1, XDATA, add(CFA_XSP16, literal(-7)))
          CFI R7 load(1, XDATA, add(CFA_XSP16, literal(-6)))
          CFI ?RET_LOW load(1, XDATA, add(CFA_XSP16, literal(-5)))
          CFI ?RET_HIGH load(1, XDATA, add(CFA_XSP16, literal(-4)))
          CFI ?BRET_EXT load(1, XDATA, add(CFA_XSP16, literal(-3)))
          CFI DPL0 load(1, XDATA, add(CFA_XSP16, literal(-2)))
          CFI DPH0 load(1, XDATA, add(CFA_XSP16, literal(-1)))
          CFI CFA_SP SP+-2
          CFI CFA_XSP16 add(XSP16, 12)
          CFI Block cfiCond46 Using cfiCommon0
          CFI (cfiCond46) Function zcl_registerCmdList
          CFI (cfiCond46) Conditional ??CrossCallReturnLabel_300
          CFI (cfiCond46) R6 load(1, XDATA, add(CFA_XSP16, literal(-12)))
          CFI (cfiCond46) VB load(1, XDATA, add(CFA_XSP16, literal(-11)))
          CFI (cfiCond46) V0 load(1, XDATA, add(CFA_XSP16, literal(-10)))
          CFI (cfiCond46) V1 load(1, XDATA, add(CFA_XSP16, literal(-9)))
          CFI (cfiCond46) V2 load(1, XDATA, add(CFA_XSP16, literal(-8)))
          CFI (cfiCond46) V3 load(1, XDATA, add(CFA_XSP16, literal(-7)))
          CFI (cfiCond46) R7 load(1, XDATA, add(CFA_XSP16, literal(-6)))
          CFI (cfiCond46) ?RET_LOW load(1, XDATA, add(CFA_XSP16, literal(-5)))
          CFI (cfiCond46) ?RET_HIGH load(1, XDATA, add(CFA_XSP16, literal(-4)))
          CFI (cfiCond46) ?BRET_EXT load(1, XDATA, add(CFA_XSP16, literal(-3)))
          CFI (cfiCond46) DPL0 load(1, XDATA, add(CFA_XSP16, literal(-2)))
          CFI (cfiCond46) DPH0 load(1, XDATA, add(CFA_XSP16, literal(-1)))
          CFI (cfiCond46) CFA_SP SP+-2
          CFI (cfiCond46) CFA_XSP16 add(XSP16, 12)
          CFI Block cfiCond47 Using cfiCommon0
          CFI (cfiCond47) Function zcl_registerAttrList
          CFI (cfiCond47) Conditional ??CrossCallReturnLabel_301
          CFI (cfiCond47) R6 load(1, XDATA, add(CFA_XSP16, literal(-12)))
          CFI (cfiCond47) VB load(1, XDATA, add(CFA_XSP16, literal(-11)))
          CFI (cfiCond47) V0 load(1, XDATA, add(CFA_XSP16, literal(-10)))
          CFI (cfiCond47) V1 load(1, XDATA, add(CFA_XSP16, literal(-9)))
          CFI (cfiCond47) V2 load(1, XDATA, add(CFA_XSP16, literal(-8)))
          CFI (cfiCond47) V3 load(1, XDATA, add(CFA_XSP16, literal(-7)))
          CFI (cfiCond47) R7 load(1, XDATA, add(CFA_XSP16, literal(-6)))
          CFI (cfiCond47) ?RET_LOW load(1, XDATA, add(CFA_XSP16, literal(-5)))
          CFI (cfiCond47) ?RET_HIGH load(1, XDATA, add(CFA_XSP16, literal(-4)))
          CFI (cfiCond47) ?BRET_EXT load(1, XDATA, add(CFA_XSP16, literal(-3)))
          CFI (cfiCond47) DPL0 load(1, XDATA, add(CFA_XSP16, literal(-2)))
          CFI (cfiCond47) DPH0 load(1, XDATA, add(CFA_XSP16, literal(-1)))
          CFI (cfiCond47) CFA_SP SP+-2
          CFI (cfiCond47) CFA_XSP16 add(XSP16, 12)
          CFI Block cfiCond48 Using cfiCommon0
          CFI (cfiCond48) Function zcl_registerClusterOptionList
          CFI (cfiCond48) Conditional ??CrossCallReturnLabel_302
          CFI (cfiCond48) R6 load(1, XDATA, add(CFA_XSP16, literal(-12)))
          CFI (cfiCond48) VB load(1, XDATA, add(CFA_XSP16, literal(-11)))
          CFI (cfiCond48) V0 load(1, XDATA, add(CFA_XSP16, literal(-10)))
          CFI (cfiCond48) V1 load(1, XDATA, add(CFA_XSP16, literal(-9)))
          CFI (cfiCond48) V2 load(1, XDATA, add(CFA_XSP16, literal(-8)))
          CFI (cfiCond48) V3 load(1, XDATA, add(CFA_XSP16, literal(-7)))
          CFI (cfiCond48) R7 load(1, XDATA, add(CFA_XSP16, literal(-6)))
          CFI (cfiCond48) ?RET_LOW load(1, XDATA, add(CFA_XSP16, literal(-5)))
          CFI (cfiCond48) ?RET_HIGH load(1, XDATA, add(CFA_XSP16, literal(-4)))
          CFI (cfiCond48) ?BRET_EXT load(1, XDATA, add(CFA_XSP16, literal(-3)))
          CFI (cfiCond48) DPL0 load(1, XDATA, add(CFA_XSP16, literal(-2)))
          CFI (cfiCond48) DPH0 load(1, XDATA, add(CFA_XSP16, literal(-1)))
          CFI (cfiCond48) CFA_SP SP+-2
          CFI (cfiCond48) CFA_XSP16 add(XSP16, 12)
          CFI Block cfiCond49 Using cfiCommon0
          CFI (cfiCond49) Function zclSerializeData
          CFI (cfiCond49) Conditional ??CrossCallReturnLabel_304, ??CrossCallReturnLabel_237
          CFI (cfiCond49) R6 load(1, XDATA, add(CFA_XSP16, literal(-15)))
          CFI (cfiCond49) VB load(1, XDATA, add(CFA_XSP16, literal(-14)))
          CFI (cfiCond49) V0 load(1, XDATA, add(CFA_XSP16, literal(-13)))
          CFI (cfiCond49) V1 load(1, XDATA, add(CFA_XSP16, literal(-12)))
          CFI (cfiCond49) V2 load(1, XDATA, add(CFA_XSP16, literal(-11)))
          CFI (cfiCond49) V3 load(1, XDATA, add(CFA_XSP16, literal(-10)))
          CFI (cfiCond49) V4 load(1, XDATA, add(CFA_XSP16, literal(-9)))
          CFI (cfiCond49) V5 load(1, XDATA, add(CFA_XSP16, literal(-8)))
          CFI (cfiCond49) V6 load(1, XDATA, add(CFA_XSP16, literal(-7)))
          CFI (cfiCond49) R7 load(1, XDATA, add(CFA_XSP16, literal(-6)))
          CFI (cfiCond49) ?RET_LOW load(1, XDATA, add(CFA_XSP16, literal(-5)))
          CFI (cfiCond49) ?RET_HIGH load(1, XDATA, add(CFA_XSP16, literal(-4)))
          CFI (cfiCond49) ?BRET_EXT load(1, XDATA, add(CFA_XSP16, literal(-3)))
          CFI (cfiCond49) DPL0 load(1, XDATA, add(CFA_XSP16, literal(-2)))
          CFI (cfiCond49) DPH0 load(1, XDATA, add(CFA_XSP16, literal(-1)))
          CFI (cfiCond49) CFA_SP SP+-4
          CFI (cfiCond49) CFA_XSP16 add(XSP16, 18)
          CFI Block cfiCond50 Using cfiCommon0
          CFI (cfiCond50) Function zclGetAttrDataLength
          CFI (cfiCond50) Conditional ??CrossCallReturnLabel_304, ??CrossCallReturnLabel_238
          CFI (cfiCond50) R6 load(1, XDATA, add(CFA_XSP16, literal(-9)))
          CFI (cfiCond50) VB load(1, XDATA, add(CFA_XSP16, literal(-8)))
          CFI (cfiCond50) V0 load(1, XDATA, add(CFA_XSP16, literal(-7)))
          CFI (cfiCond50) R7 load(1, XDATA, add(CFA_XSP16, literal(-6)))
          CFI (cfiCond50) ?RET_LOW load(1, XDATA, add(CFA_XSP16, literal(-5)))
          CFI (cfiCond50) ?RET_HIGH load(1, XDATA, add(CFA_XSP16, literal(-4)))
          CFI (cfiCond50) ?BRET_EXT load(1, XDATA, add(CFA_XSP16, literal(-3)))
          CFI (cfiCond50) DPL0 load(1, XDATA, add(CFA_XSP16, literal(-2)))
          CFI (cfiCond50) DPH0 load(1, XDATA, add(CFA_XSP16, literal(-1)))
          CFI (cfiCond50) CFA_SP SP+-4
          CFI (cfiCond50) CFA_XSP16 add(XSP16, 9)
          CFI Block cfiCond51 Using cfiCommon0
          CFI (cfiCond51) Function zclParseInDiscAttrsCmd
          CFI (cfiCond51) Conditional ??CrossCallReturnLabel_303
          CFI (cfiCond51) R6 load(1, XDATA, add(CFA_XSP16, literal(-10)))
          CFI (cfiCond51) VB load(1, XDATA, add(CFA_XSP16, literal(-9)))
          CFI (cfiCond51) V0 load(1, XDATA, add(CFA_XSP16, literal(-8)))
          CFI (cfiCond51) V1 load(1, XDATA, add(CFA_XSP16, literal(-7)))
          CFI (cfiCond51) R7 load(1, XDATA, add(CFA_XSP16, literal(-6)))
          CFI (cfiCond51) ?RET_LOW load(1, XDATA, add(CFA_XSP16, literal(-5)))
          CFI (cfiCond51) ?RET_HIGH load(1, XDATA, add(CFA_XSP16, literal(-4)))
          CFI (cfiCond51) ?BRET_EXT load(1, XDATA, add(CFA_XSP16, literal(-3)))
          CFI (cfiCond51) DPL0 load(1, XDATA, add(CFA_XSP16, literal(-2)))
          CFI (cfiCond51) DPH0 load(1, XDATA, add(CFA_XSP16, literal(-1)))
          CFI (cfiCond51) CFA_SP SP+-2
          CFI (cfiCond51) CFA_XSP16 add(XSP16, 10)
          CFI Block cfiPicker52 Using cfiCommon1
          CFI (cfiPicker52) NoFunction
          CFI (cfiPicker52) Picker
        MOVX      A,@DPTR
        MOV       R4,A
        INC       DPTR
        MOVX      A,@DPTR
        RET
          CFI EndBlock cfiCond45
          CFI EndBlock cfiCond46
          CFI EndBlock cfiCond47
          CFI EndBlock cfiCond48
          CFI EndBlock cfiCond49
          CFI EndBlock cfiCond50
          CFI EndBlock cfiCond51
          CFI EndBlock cfiPicker52

        RSEG BANKED_CODE:HUGECODE:NOROOT(0)
?Subroutine11:
          CFI Block cfiCond53 Using cfiCommon0
          CFI Function zcl_registerCmdList
          CFI Conditional ??CrossCallReturnLabel_4
          CFI R6 load(1, XDATA, add(CFA_XSP16, literal(-12)))
          CFI VB load(1, XDATA, add(CFA_XSP16, literal(-11)))
          CFI V0 load(1, XDATA, add(CFA_XSP16, literal(-10)))
          CFI V1 load(1, XDATA, add(CFA_XSP16, literal(-9)))
          CFI V2 load(1, XDATA, add(CFA_XSP16, literal(-8)))
          CFI V3 load(1, XDATA, add(CFA_XSP16, literal(-7)))
          CFI R7 load(1, XDATA, add(CFA_XSP16, literal(-6)))
          CFI ?RET_LOW load(1, XDATA, add(CFA_XSP16, literal(-5)))
          CFI ?RET_HIGH load(1, XDATA, add(CFA_XSP16, literal(-4)))
          CFI ?BRET_EXT load(1, XDATA, add(CFA_XSP16, literal(-3)))
          CFI DPL0 load(1, XDATA, add(CFA_XSP16, literal(-2)))
          CFI DPH0 load(1, XDATA, add(CFA_XSP16, literal(-1)))
          CFI CFA_SP SP+-2
          CFI CFA_XSP16 add(XSP16, 12)
          CFI Block cfiCond54 Using cfiCommon0
          CFI (cfiCond54) Function zcl_registerClusterOptionList
          CFI (cfiCond54) Conditional ??CrossCallReturnLabel_5
          CFI (cfiCond54) R6 load(1, XDATA, add(CFA_XSP16, literal(-12)))
          CFI (cfiCond54) VB load(1, XDATA, add(CFA_XSP16, literal(-11)))
          CFI (cfiCond54) V0 load(1, XDATA, add(CFA_XSP16, literal(-10)))
          CFI (cfiCond54) V1 load(1, XDATA, add(CFA_XSP16, literal(-9)))
          CFI (cfiCond54) V2 load(1, XDATA, add(CFA_XSP16, literal(-8)))
          CFI (cfiCond54) V3 load(1, XDATA, add(CFA_XSP16, literal(-7)))
          CFI (cfiCond54) R7 load(1, XDATA, add(CFA_XSP16, literal(-6)))
          CFI (cfiCond54) ?RET_LOW load(1, XDATA, add(CFA_XSP16, literal(-5)))
          CFI (cfiCond54) ?RET_HIGH load(1, XDATA, add(CFA_XSP16, literal(-4)))
          CFI (cfiCond54) ?BRET_EXT load(1, XDATA, add(CFA_XSP16, literal(-3)))
          CFI (cfiCond54) DPL0 load(1, XDATA, add(CFA_XSP16, literal(-2)))
          CFI (cfiCond54) DPH0 load(1, XDATA, add(CFA_XSP16, literal(-1)))
          CFI (cfiCond54) CFA_SP SP+-2
          CFI (cfiCond54) CFA_XSP16 add(XSP16, 12)
          CFI Block cfiPicker55 Using cfiCommon1
          CFI (cfiPicker55) NoFunction
          CFI (cfiPicker55) Picker
        LCALL     ?Subroutine145 & 0xFFFF
??CrossCallReturnLabel_269:
        LCALL     ?Subroutine147 & 0xFFFF
??CrossCallReturnLabel_309:
        MOV       A,R6
        MOVX      @DPTR,A
        INC       DPTR
        MOV       A,R7
        MOVX      @DPTR,A
        RET
          CFI EndBlock cfiCond53
          CFI EndBlock cfiCond54
          CFI EndBlock cfiPicker55

        RSEG BANKED_CODE:HUGECODE:NOROOT(0)
?Subroutine145:
          CFI Block cfiCond56 Using cfiCommon0
          CFI Function zcl_registerAttrList
          CFI Conditional ??CrossCallReturnLabel_268
          CFI R6 load(1, XDATA, add(CFA_XSP16, literal(-12)))
          CFI VB load(1, XDATA, add(CFA_XSP16, literal(-11)))
          CFI V0 load(1, XDATA, add(CFA_XSP16, literal(-10)))
          CFI V1 load(1, XDATA, add(CFA_XSP16, literal(-9)))
          CFI V2 load(1, XDATA, add(CFA_XSP16, literal(-8)))
          CFI V3 load(1, XDATA, add(CFA_XSP16, literal(-7)))
          CFI R7 load(1, XDATA, add(CFA_XSP16, literal(-6)))
          CFI ?RET_LOW load(1, XDATA, add(CFA_XSP16, literal(-5)))
          CFI ?RET_HIGH load(1, XDATA, add(CFA_XSP16, literal(-4)))
          CFI ?BRET_EXT load(1, XDATA, add(CFA_XSP16, literal(-3)))
          CFI DPL0 load(1, XDATA, add(CFA_XSP16, literal(-2)))
          CFI DPH0 load(1, XDATA, add(CFA_XSP16, literal(-1)))
          CFI CFA_SP SP+-2
          CFI CFA_XSP16 add(XSP16, 12)
          CFI Block cfiCond57 Using cfiCommon0
          CFI (cfiCond57) Function zcl_registerCmdList
          CFI (cfiCond57) Conditional ??CrossCallReturnLabel_269, ??CrossCallReturnLabel_4
          CFI (cfiCond57) R6 load(1, XDATA, add(CFA_XSP16, literal(-12)))
          CFI (cfiCond57) VB load(1, XDATA, add(CFA_XSP16, literal(-11)))
          CFI (cfiCond57) V0 load(1, XDATA, add(CFA_XSP16, literal(-10)))
          CFI (cfiCond57) V1 load(1, XDATA, add(CFA_XSP16, literal(-9)))
          CFI (cfiCond57) V2 load(1, XDATA, add(CFA_XSP16, literal(-8)))
          CFI (cfiCond57) V3 load(1, XDATA, add(CFA_XSP16, literal(-7)))
          CFI (cfiCond57) R7 load(1, XDATA, add(CFA_XSP16, literal(-6)))
          CFI (cfiCond57) ?RET_LOW load(1, XDATA, add(CFA_XSP16, literal(-5)))
          CFI (cfiCond57) ?RET_HIGH load(1, XDATA, add(CFA_XSP16, literal(-4)))
          CFI (cfiCond57) ?BRET_EXT load(1, XDATA, add(CFA_XSP16, literal(-3)))
          CFI (cfiCond57) DPL0 load(1, XDATA, add(CFA_XSP16, literal(-2)))
          CFI (cfiCond57) DPH0 load(1, XDATA, add(CFA_XSP16, literal(-1)))
          CFI (cfiCond57) CFA_SP SP+-4
          CFI (cfiCond57) CFA_XSP16 add(XSP16, 12)
          CFI Block cfiCond58 Using cfiCommon0
          CFI (cfiCond58) Function zcl_registerClusterOptionList
          CFI (cfiCond58) Conditional ??CrossCallReturnLabel_269, ??CrossCallReturnLabel_5
          CFI (cfiCond58) R6 load(1, XDATA, add(CFA_XSP16, literal(-12)))
          CFI (cfiCond58) VB load(1, XDATA, add(CFA_XSP16, literal(-11)))
          CFI (cfiCond58) V0 load(1, XDATA, add(CFA_XSP16, literal(-10)))
          CFI (cfiCond58) V1 load(1, XDATA, add(CFA_XSP16, literal(-9)))
          CFI (cfiCond58) V2 load(1, XDATA, add(CFA_XSP16, literal(-8)))
          CFI (cfiCond58) V3 load(1, XDATA, add(CFA_XSP16, literal(-7)))
          CFI (cfiCond58) R7 load(1, XDATA, add(CFA_XSP16, literal(-6)))
          CFI (cfiCond58) ?RET_LOW load(1, XDATA, add(CFA_XSP16, literal(-5)))
          CFI (cfiCond58) ?RET_HIGH load(1, XDATA, add(CFA_XSP16, literal(-4)))
          CFI (cfiCond58) ?BRET_EXT load(1, XDATA, add(CFA_XSP16, literal(-3)))
          CFI (cfiCond58) DPL0 load(1, XDATA, add(CFA_XSP16, literal(-2)))
          CFI (cfiCond58) DPH0 load(1, XDATA, add(CFA_XSP16, literal(-1)))
          CFI (cfiCond58) CFA_SP SP+-4
          CFI (cfiCond58) CFA_XSP16 add(XSP16, 12)
          CFI Block cfiPicker59 Using cfiCommon1
          CFI (cfiPicker59) NoFunction
          CFI (cfiPicker59) Picker
        MOV       DPL,R0
        MOV       DPH,R1
        CLR       A
        MOVX      @DPTR,A
        INC       DPTR
        MOVX      @DPTR,A
        MOV       DPL,R0
        MOV       DPH,R1
        INC       DPTR
        INC       DPTR
        MOV       A,?V0
        LCALL     ?Subroutine183 & 0xFFFF
??CrossCallReturnLabel_312:
        RET
          CFI EndBlock cfiCond56
          CFI EndBlock cfiCond57
          CFI EndBlock cfiCond58
          CFI EndBlock cfiPicker59

        RSEG BANKED_CODE:HUGECODE:NOROOT(0)
?Subroutine183:
          CFI Block cfiCond60 Using cfiCommon0
          CFI Function zcl_registerAttrList
          CFI Conditional ??CrossCallReturnLabel_312, ??CrossCallReturnLabel_268
          CFI R6 load(1, XDATA, add(CFA_XSP16, literal(-12)))
          CFI VB load(1, XDATA, add(CFA_XSP16, literal(-11)))
          CFI V0 load(1, XDATA, add(CFA_XSP16, literal(-10)))
          CFI V1 load(1, XDATA, add(CFA_XSP16, literal(-9)))
          CFI V2 load(1, XDATA, add(CFA_XSP16, literal(-8)))
          CFI V3 load(1, XDATA, add(CFA_XSP16, literal(-7)))
          CFI R7 load(1, XDATA, add(CFA_XSP16, literal(-6)))
          CFI ?RET_LOW load(1, XDATA, add(CFA_XSP16, literal(-5)))
          CFI ?RET_HIGH load(1, XDATA, add(CFA_XSP16, literal(-4)))
          CFI ?BRET_EXT load(1, XDATA, add(CFA_XSP16, literal(-3)))
          CFI DPL0 load(1, XDATA, add(CFA_XSP16, literal(-2)))
          CFI DPH0 load(1, XDATA, add(CFA_XSP16, literal(-1)))
          CFI CFA_SP SP+-4
          CFI CFA_XSP16 add(XSP16, 12)
          CFI Block cfiCond61 Using cfiCommon0
          CFI (cfiCond61) Function zcl_registerCmdList
          CFI (cfiCond61) Conditional ??CrossCallReturnLabel_312, ??CrossCallReturnLabel_269, ??CrossCallReturnLabel_4
          CFI (cfiCond61) R6 load(1, XDATA, add(CFA_XSP16, literal(-12)))
          CFI (cfiCond61) VB load(1, XDATA, add(CFA_XSP16, literal(-11)))
          CFI (cfiCond61) V0 load(1, XDATA, add(CFA_XSP16, literal(-10)))
          CFI (cfiCond61) V1 load(1, XDATA, add(CFA_XSP16, literal(-9)))
          CFI (cfiCond61) V2 load(1, XDATA, add(CFA_XSP16, literal(-8)))
          CFI (cfiCond61) V3 load(1, XDATA, add(CFA_XSP16, literal(-7)))
          CFI (cfiCond61) R7 load(1, XDATA, add(CFA_XSP16, literal(-6)))
          CFI (cfiCond61) ?RET_LOW load(1, XDATA, add(CFA_XSP16, literal(-5)))
          CFI (cfiCond61) ?RET_HIGH load(1, XDATA, add(CFA_XSP16, literal(-4)))
          CFI (cfiCond61) ?BRET_EXT load(1, XDATA, add(CFA_XSP16, literal(-3)))
          CFI (cfiCond61) DPL0 load(1, XDATA, add(CFA_XSP16, literal(-2)))
          CFI (cfiCond61) DPH0 load(1, XDATA, add(CFA_XSP16, literal(-1)))
          CFI (cfiCond61) CFA_SP SP+-6
          CFI (cfiCond61) CFA_XSP16 add(XSP16, 12)
          CFI Block cfiCond62 Using cfiCommon0
          CFI (cfiCond62) Function zcl_registerClusterOptionList
          CFI (cfiCond62) Conditional ??CrossCallReturnLabel_312, ??CrossCallReturnLabel_269, ??CrossCallReturnLabel_5
          CFI (cfiCond62) R6 load(1, XDATA, add(CFA_XSP16, literal(-12)))
          CFI (cfiCond62) VB load(1, XDATA, add(CFA_XSP16, literal(-11)))
          CFI (cfiCond62) V0 load(1, XDATA, add(CFA_XSP16, literal(-10)))
          CFI (cfiCond62) V1 load(1, XDATA, add(CFA_XSP16, literal(-9)))
          CFI (cfiCond62) V2 load(1, XDATA, add(CFA_XSP16, literal(-8)))
          CFI (cfiCond62) V3 load(1, XDATA, add(CFA_XSP16, literal(-7)))
          CFI (cfiCond62) R7 load(1, XDATA, add(CFA_XSP16, literal(-6)))
          CFI (cfiCond62) ?RET_LOW load(1, XDATA, add(CFA_XSP16, literal(-5)))
          CFI (cfiCond62) ?RET_HIGH load(1, XDATA, add(CFA_XSP16, literal(-4)))
          CFI (cfiCond62) ?BRET_EXT load(1, XDATA, add(CFA_XSP16, literal(-3)))
          CFI (cfiCond62) DPL0 load(1, XDATA, add(CFA_XSP16, literal(-2)))
          CFI (cfiCond62) DPH0 load(1, XDATA, add(CFA_XSP16, literal(-1)))
          CFI (cfiCond62) CFA_SP SP+-6
          CFI (cfiCond62) CFA_XSP16 add(XSP16, 12)
          CFI Block cfiCond63 Using cfiCommon0
          CFI (cfiCond63) Function zcl_registerCmdList
          CFI (cfiCond63) Conditional ??CrossCallReturnLabel_313, ??CrossCallReturnLabel_309, ??CrossCallReturnLabel_4
          CFI (cfiCond63) R6 load(1, XDATA, add(CFA_XSP16, literal(-12)))
          CFI (cfiCond63) VB load(1, XDATA, add(CFA_XSP16, literal(-11)))
          CFI (cfiCond63) V0 load(1, XDATA, add(CFA_XSP16, literal(-10)))
          CFI (cfiCond63) V1 load(1, XDATA, add(CFA_XSP16, literal(-9)))
          CFI (cfiCond63) V2 load(1, XDATA, add(CFA_XSP16, literal(-8)))
          CFI (cfiCond63) V3 load(1, XDATA, add(CFA_XSP16, literal(-7)))
          CFI (cfiCond63) R7 load(1, XDATA, add(CFA_XSP16, literal(-6)))
          CFI (cfiCond63) ?RET_LOW load(1, XDATA, add(CFA_XSP16, literal(-5)))
          CFI (cfiCond63) ?RET_HIGH load(1, XDATA, add(CFA_XSP16, literal(-4)))
          CFI (cfiCond63) ?BRET_EXT load(1, XDATA, add(CFA_XSP16, literal(-3)))
          CFI (cfiCond63) DPL0 load(1, XDATA, add(CFA_XSP16, literal(-2)))
          CFI (cfiCond63) DPH0 load(1, XDATA, add(CFA_XSP16, literal(-1)))
          CFI (cfiCond63) CFA_SP SP+-6
          CFI (cfiCond63) CFA_XSP16 add(XSP16, 12)
          CFI Block cfiCond64 Using cfiCommon0
          CFI (cfiCond64) Function zcl_registerClusterOptionList
          CFI (cfiCond64) Conditional ??CrossCallReturnLabel_313, ??CrossCallReturnLabel_309, ??CrossCallReturnLabel_5
          CFI (cfiCond64) R6 load(1, XDATA, add(CFA_XSP16, literal(-12)))
          CFI (cfiCond64) VB load(1, XDATA, add(CFA_XSP16, literal(-11)))
          CFI (cfiCond64) V0 load(1, XDATA, add(CFA_XSP16, literal(-10)))
          CFI (cfiCond64) V1 load(1, XDATA, add(CFA_XSP16, literal(-9)))
          CFI (cfiCond64) V2 load(1, XDATA, add(CFA_XSP16, literal(-8)))
          CFI (cfiCond64) V3 load(1, XDATA, add(CFA_XSP16, literal(-7)))
          CFI (cfiCond64) R7 load(1, XDATA, add(CFA_XSP16, literal(-6)))
          CFI (cfiCond64) ?RET_LOW load(1, XDATA, add(CFA_XSP16, literal(-5)))
          CFI (cfiCond64) ?RET_HIGH load(1, XDATA, add(CFA_XSP16, literal(-4)))
          CFI (cfiCond64) ?BRET_EXT load(1, XDATA, add(CFA_XSP16, literal(-3)))
          CFI (cfiCond64) DPL0 load(1, XDATA, add(CFA_XSP16, literal(-2)))
          CFI (cfiCond64) DPH0 load(1, XDATA, add(CFA_XSP16, literal(-1)))
          CFI (cfiCond64) CFA_SP SP+-6
          CFI (cfiCond64) CFA_XSP16 add(XSP16, 12)
          CFI Block cfiCond65 Using cfiCommon0
          CFI (cfiCond65) Function zcl_registerPlugin
          CFI (cfiCond65) Conditional ??CrossCallReturnLabel_313, ??CrossCallReturnLabel_310, ??CrossCallReturnLabel_24
          CFI (cfiCond65) R6 load(1, XDATA, add(CFA_XSP16, literal(-12)))
          CFI (cfiCond65) VB load(1, XDATA, add(CFA_XSP16, literal(-11)))
          CFI (cfiCond65) V0 load(1, XDATA, add(CFA_XSP16, literal(-10)))
          CFI (cfiCond65) V1 load(1, XDATA, add(CFA_XSP16, literal(-9)))
          CFI (cfiCond65) V2 load(1, XDATA, add(CFA_XSP16, literal(-8)))
          CFI (cfiCond65) V3 load(1, XDATA, add(CFA_XSP16, literal(-7)))
          CFI (cfiCond65) R7 load(1, XDATA, add(CFA_XSP16, literal(-6)))
          CFI (cfiCond65) ?RET_LOW load(1, XDATA, add(CFA_XSP16, literal(-5)))
          CFI (cfiCond65) ?RET_HIGH load(1, XDATA, add(CFA_XSP16, literal(-4)))
          CFI (cfiCond65) ?BRET_EXT load(1, XDATA, add(CFA_XSP16, literal(-3)))
          CFI (cfiCond65) DPL0 load(1, XDATA, add(CFA_XSP16, literal(-2)))
          CFI (cfiCond65) DPH0 load(1, XDATA, add(CFA_XSP16, literal(-1)))
          CFI (cfiCond65) CFA_SP SP+-6
          CFI (cfiCond65) CFA_XSP16 add(XSP16, 12)
          CFI Block cfiCond66 Using cfiCommon0
          CFI (cfiCond66) Function zcl_registerReadWriteCB
          CFI (cfiCond66) Conditional ??CrossCallReturnLabel_313, ??CrossCallReturnLabel_310, ??CrossCallReturnLabel_25
          CFI (cfiCond66) R6 load(1, XDATA, add(CFA_XSP16, literal(-14)))
          CFI (cfiCond66) VB load(1, XDATA, add(CFA_XSP16, literal(-13)))
          CFI (cfiCond66) V0 load(1, XDATA, add(CFA_XSP16, literal(-12)))
          CFI (cfiCond66) V1 load(1, XDATA, add(CFA_XSP16, literal(-11)))
          CFI (cfiCond66) V2 load(1, XDATA, add(CFA_XSP16, literal(-10)))
          CFI (cfiCond66) V3 load(1, XDATA, add(CFA_XSP16, literal(-9)))
          CFI (cfiCond66) V4 load(1, XDATA, add(CFA_XSP16, literal(-8)))
          CFI (cfiCond66) V5 load(1, XDATA, add(CFA_XSP16, literal(-7)))
          CFI (cfiCond66) R7 load(1, XDATA, add(CFA_XSP16, literal(-6)))
          CFI (cfiCond66) ?RET_LOW load(1, XDATA, add(CFA_XSP16, literal(-5)))
          CFI (cfiCond66) ?RET_HIGH load(1, XDATA, add(CFA_XSP16, literal(-4)))
          CFI (cfiCond66) ?BRET_EXT load(1, XDATA, add(CFA_XSP16, literal(-3)))
          CFI (cfiCond66) DPL0 load(1, XDATA, add(CFA_XSP16, literal(-2)))
          CFI (cfiCond66) DPH0 load(1, XDATA, add(CFA_XSP16, literal(-1)))
          CFI (cfiCond66) CFA_SP SP+-6
          CFI (cfiCond66) CFA_XSP16 add(XSP16, 14)
          CFI Block cfiCond67 Using cfiCommon0
          CFI (cfiCond67) Function zcl_registerAttrList
          CFI (cfiCond67) Conditional ??CrossCallReturnLabel_313, ??CrossCallReturnLabel_311, ??CrossCallReturnLabel_36
          CFI (cfiCond67) R6 load(1, XDATA, add(CFA_XSP16, literal(-12)))
          CFI (cfiCond67) VB load(1, XDATA, add(CFA_XSP16, literal(-11)))
          CFI (cfiCond67) V0 load(1, XDATA, add(CFA_XSP16, literal(-10)))
          CFI (cfiCond67) V1 load(1, XDATA, add(CFA_XSP16, literal(-9)))
          CFI (cfiCond67) V2 load(1, XDATA, add(CFA_XSP16, literal(-8)))
          CFI (cfiCond67) V3 load(1, XDATA, add(CFA_XSP16, literal(-7)))
          CFI (cfiCond67) R7 load(1, XDATA, add(CFA_XSP16, literal(-6)))
          CFI (cfiCond67) ?RET_LOW load(1, XDATA, add(CFA_XSP16, literal(-5)))
          CFI (cfiCond67) ?RET_HIGH load(1, XDATA, add(CFA_XSP16, literal(-4)))
          CFI (cfiCond67) ?BRET_EXT load(1, XDATA, add(CFA_XSP16, literal(-3)))
          CFI (cfiCond67) DPL0 load(1, XDATA, add(CFA_XSP16, literal(-2)))
          CFI (cfiCond67) DPH0 load(1, XDATA, add(CFA_XSP16, literal(-1)))
          CFI (cfiCond67) CFA_SP SP+-6
          CFI (cfiCond67) CFA_XSP16 add(XSP16, 12)
          CFI Block cfiCond68 Using cfiCommon0
          CFI (cfiCond68) Function zcl_registerAttrList
          CFI (cfiCond68) Conditional ??CrossCallReturnLabel_313, ??CrossCallReturnLabel_311, ??CrossCallReturnLabel_37
          CFI (cfiCond68) R6 load(1, XDATA, add(CFA_XSP16, literal(-12)))
          CFI (cfiCond68) VB load(1, XDATA, add(CFA_XSP16, literal(-11)))
          CFI (cfiCond68) V0 load(1, XDATA, add(CFA_XSP16, literal(-10)))
          CFI (cfiCond68) V1 load(1, XDATA, add(CFA_XSP16, literal(-9)))
          CFI (cfiCond68) V2 load(1, XDATA, add(CFA_XSP16, literal(-8)))
          CFI (cfiCond68) V3 load(1, XDATA, add(CFA_XSP16, literal(-7)))
          CFI (cfiCond68) R7 load(1, XDATA, add(CFA_XSP16, literal(-6)))
          CFI (cfiCond68) ?RET_LOW load(1, XDATA, add(CFA_XSP16, literal(-5)))
          CFI (cfiCond68) ?RET_HIGH load(1, XDATA, add(CFA_XSP16, literal(-4)))
          CFI (cfiCond68) ?BRET_EXT load(1, XDATA, add(CFA_XSP16, literal(-3)))
          CFI (cfiCond68) DPL0 load(1, XDATA, add(CFA_XSP16, literal(-2)))
          CFI (cfiCond68) DPH0 load(1, XDATA, add(CFA_XSP16, literal(-1)))
          CFI (cfiCond68) CFA_SP SP+-6
          CFI (cfiCond68) CFA_XSP16 add(XSP16, 12)
          CFI Block cfiPicker69 Using cfiCommon1
          CFI (cfiPicker69) NoFunction
          CFI (cfiPicker69) Picker
        MOVX      @DPTR,A
        MOV       DPL,R0
        MOV       DPH,R1
        INC       DPTR
        INC       DPTR
        INC       DPTR
        RET
          CFI EndBlock cfiCond60
          CFI EndBlock cfiCond61
          CFI EndBlock cfiCond62
          CFI EndBlock cfiCond63
          CFI EndBlock cfiCond64
          CFI EndBlock cfiCond65
          CFI EndBlock cfiCond66
          CFI EndBlock cfiCond67
          CFI EndBlock cfiCond68
          CFI EndBlock cfiPicker69
//  973 
//  974 /*********************************************************************
//  975  * @fn          zcl_registerValidateAttrData
//  976  *
//  977  * @brief       Add a validation function for attribute data
//  978  *
//  979  * @param       pfnValidateAttrData - function pointer to validate routine
//  980  *
//  981  * @return      ZSuccess if OK
//  982  */

        RSEG BANKED_CODE:HUGECODE:NOROOT(0)
//  983 ZStatus_t zcl_registerValidateAttrData( zclValidateAttrData_t pfnValidateAttrData )
zcl_registerValidateAttrData:
          CFI Block cfiBlock70 Using cfiCommon0
          CFI Function zcl_registerValidateAttrData
        CODE
//  984 {
        PUSH      DPL
          CFI DPL0 Frame(CFA_SP, 4)
          CFI CFA_SP SP+-4
        PUSH      DPH
          CFI DPH0 Frame(CFA_SP, 5)
          CFI CFA_SP SP+-5
        ; Saved register size: 2
        ; Auto size: 0
//  985   zcl_ValidateAttrDataCB = pfnValidateAttrData;
        MOV       DPTR,#zcl_ValidateAttrDataCB
        LCALL     ??Subroutine214_0 & 0xFFFF
//  986 
//  987   return ( ZSuccess );
??CrossCallReturnLabel_447:
        MOV       R1,#0x0
        LJMP      ?Subroutine0 & 0xFFFF
//  988 }
          CFI EndBlock cfiBlock70
//  989 
//  990 /*********************************************************************
//  991  * @fn          zcl_registerReadWriteCB
//  992  *
//  993  * @brief       Register the application's callback function to read/write
//  994  *              attribute data, and authorize read/write operation.
//  995  *
//  996  *              Note: The pfnReadWriteCB callback function is only required
//  997  *                    when the attribute data format is unknown to ZCL. The
//  998  *                    callback function gets called when the pointer 'dataPtr'
//  999  *                    to the attribute value is NULL in the attribute database
// 1000  *                    registered with the ZCL.
// 1001  *
// 1002  *              Note: The pfnAuthorizeCB callback function is only required
// 1003  *                    when the Read/Write operation on an attribute requires
// 1004  *                    authorization (i.e., attributes with ACCESS_CONTROL_AUTH_READ
// 1005  *                    or ACCESS_CONTROL_AUTH_WRITE access permissions).
// 1006  *
// 1007  * @param       endpoint - application's endpoint
// 1008  * @param       pfnReadWriteCB - function pointer to read/write routine
// 1009  * @param       pfnAuthorizeCB - function pointer to authorize read/write operation
// 1010  *
// 1011  * @return      ZSuccess if successful. ZFailure, otherwise.
// 1012  */

        RSEG BANKED_CODE:HUGECODE:NOROOT(0)
// 1013 ZStatus_t zcl_registerReadWriteCB( uint8 endpoint, zclReadWriteCB_t pfnReadWriteCB,
zcl_registerReadWriteCB:
          CFI Block cfiBlock71 Using cfiCommon0
          CFI Function zcl_registerReadWriteCB
        CODE
// 1014                                    zclAuthorizeCB_t pfnAuthorizeCB )
// 1015 {
        FUNCALL zcl_registerReadWriteCB, zclFindAttrRecsList
        LOCFRAME ISTACK, 0, STACK
        LOCFRAME PSTACK, 0, STACK
        LOCFRAME XSTACK, 14, STACK
        LOCFRAME IOVERLAY, 0, STATIC
        LOCFRAME DOVERLAY, 0, STATIC
        ARGFRAME ISTACK, 0, STACK
        ARGFRAME PSTACK, 0, STACK
        ARGFRAME XSTACK, 14, STACK
        ARGFRAME IOVERLAY, 0, STATIC
        ARGFRAME DOVERLAY, 0, STATIC
        REQUIRE ?V0
        REQUIRE ?V1
        REQUIRE ?V2
        REQUIRE ?V4
        REQUIRE ?V5
        MOV       A,#-0xe
        LCALL     ?BANKED_ENTER_XDATA
          CFI DPH0 load(1, XDATA, add(CFA_XSP16, literal(-1)))
          CFI DPL0 load(1, XDATA, add(CFA_XSP16, literal(-2)))
          CFI ?BRET_EXT load(1, XDATA, add(CFA_XSP16, literal(-3)))
          CFI ?RET_HIGH load(1, XDATA, add(CFA_XSP16, literal(-4)))
          CFI ?RET_LOW load(1, XDATA, add(CFA_XSP16, literal(-5)))
          CFI R7 load(1, XDATA, add(CFA_XSP16, literal(-6)))
          CFI V5 load(1, XDATA, add(CFA_XSP16, literal(-7)))
          CFI V4 load(1, XDATA, add(CFA_XSP16, literal(-8)))
          CFI V3 load(1, XDATA, add(CFA_XSP16, literal(-9)))
          CFI V2 load(1, XDATA, add(CFA_XSP16, literal(-10)))
          CFI V1 load(1, XDATA, add(CFA_XSP16, literal(-11)))
          CFI V0 load(1, XDATA, add(CFA_XSP16, literal(-12)))
          CFI VB load(1, XDATA, add(CFA_XSP16, literal(-13)))
          CFI R6 load(1, XDATA, add(CFA_XSP16, literal(-14)))
          CFI CFA_SP SP+0
          CFI CFA_XSP16 add(XSP16, 14)
        ; Saved register size: 14
        ; Auto size: 0
        MOV       ?V0,R2
        MOV       ?V1,R3
        MOV       A,R4
        MOV       R6,A
        MOV       A,R5
        MOV       R7,A
// 1016   zclAttrRecsList *pRec = zclFindAttrRecsList( endpoint );
        ; Setup parameters for call to function zclFindAttrRecsList
        LCALL     `??zclFindAttrRecsList::?relay`; Banked call to: zclFindAttrRecsList
        MOV       ?V4,R2
        MOV       ?V5,R3
        MOV       R0,?V4
        MOV       R1,?V5
// 1017 
// 1018   if ( pRec != NULL )
        MOV       A,R0
        ORL       A,R1
        JZ        ??zcl_registerReadWriteCB_0
// 1019   {
// 1020     pRec->pfnReadWriteCB = pfnReadWriteCB;
        MOV       DPL,R0
        MOV       DPH,R1
        INC       DPTR
        LCALL     ?Subroutine23 & 0xFFFF
// 1021     pRec->pfnAuthorizeCB = pfnAuthorizeCB;
??CrossCallReturnLabel_25:
        LCALL     ?Subroutine43 & 0xFFFF
// 1022 
// 1023     return ( ZSuccess );
??CrossCallReturnLabel_388:
        MOV       R1,#0x0
        SJMP      ??zcl_registerReadWriteCB_1
// 1024   }
// 1025 
// 1026   return ( ZFailure );
??zcl_registerReadWriteCB_0:
        MOV       R1,#0x1
??zcl_registerReadWriteCB_1:
        LJMP      ??Subroutine205_0 & 0xFFFF
// 1027 }
          CFI EndBlock cfiBlock71

        RSEG BANKED_CODE:HUGECODE:NOROOT(0)
?Subroutine23:
          CFI Block cfiCond72 Using cfiCommon0
          CFI Function zcl_registerPlugin
          CFI Conditional ??CrossCallReturnLabel_24
          CFI R6 load(1, XDATA, add(CFA_XSP16, literal(-12)))
          CFI VB load(1, XDATA, add(CFA_XSP16, literal(-11)))
          CFI V0 load(1, XDATA, add(CFA_XSP16, literal(-10)))
          CFI V1 load(1, XDATA, add(CFA_XSP16, literal(-9)))
          CFI V2 load(1, XDATA, add(CFA_XSP16, literal(-8)))
          CFI V3 load(1, XDATA, add(CFA_XSP16, literal(-7)))
          CFI R7 load(1, XDATA, add(CFA_XSP16, literal(-6)))
          CFI ?RET_LOW load(1, XDATA, add(CFA_XSP16, literal(-5)))
          CFI ?RET_HIGH load(1, XDATA, add(CFA_XSP16, literal(-4)))
          CFI ?BRET_EXT load(1, XDATA, add(CFA_XSP16, literal(-3)))
          CFI DPL0 load(1, XDATA, add(CFA_XSP16, literal(-2)))
          CFI DPH0 load(1, XDATA, add(CFA_XSP16, literal(-1)))
          CFI CFA_SP SP+-2
          CFI CFA_XSP16 add(XSP16, 12)
          CFI Block cfiCond73 Using cfiCommon0
          CFI (cfiCond73) Function zcl_registerReadWriteCB
          CFI (cfiCond73) Conditional ??CrossCallReturnLabel_25
          CFI (cfiCond73) R6 load(1, XDATA, add(CFA_XSP16, literal(-14)))
          CFI (cfiCond73) VB load(1, XDATA, add(CFA_XSP16, literal(-13)))
          CFI (cfiCond73) V0 load(1, XDATA, add(CFA_XSP16, literal(-12)))
          CFI (cfiCond73) V1 load(1, XDATA, add(CFA_XSP16, literal(-11)))
          CFI (cfiCond73) V2 load(1, XDATA, add(CFA_XSP16, literal(-10)))
          CFI (cfiCond73) V3 load(1, XDATA, add(CFA_XSP16, literal(-9)))
          CFI (cfiCond73) V4 load(1, XDATA, add(CFA_XSP16, literal(-8)))
          CFI (cfiCond73) V5 load(1, XDATA, add(CFA_XSP16, literal(-7)))
          CFI (cfiCond73) R7 load(1, XDATA, add(CFA_XSP16, literal(-6)))
          CFI (cfiCond73) ?RET_LOW load(1, XDATA, add(CFA_XSP16, literal(-5)))
          CFI (cfiCond73) ?RET_HIGH load(1, XDATA, add(CFA_XSP16, literal(-4)))
          CFI (cfiCond73) ?BRET_EXT load(1, XDATA, add(CFA_XSP16, literal(-3)))
          CFI (cfiCond73) DPL0 load(1, XDATA, add(CFA_XSP16, literal(-2)))
          CFI (cfiCond73) DPH0 load(1, XDATA, add(CFA_XSP16, literal(-1)))
          CFI (cfiCond73) CFA_SP SP+-2
          CFI (cfiCond73) CFA_XSP16 add(XSP16, 14)
          CFI Block cfiPicker74 Using cfiCommon1
          CFI (cfiPicker74) NoFunction
          CFI (cfiPicker74) Picker
        INC       DPTR
        INC       DPTR
        MOV       A,?V0
        MOVX      @DPTR,A
        INC       DPTR
        LCALL     ?Subroutine147 & 0xFFFF
??CrossCallReturnLabel_310:
        RET
          CFI EndBlock cfiCond72
          CFI EndBlock cfiCond73
          CFI EndBlock cfiPicker74

        RSEG BANKED_CODE:HUGECODE:NOROOT(0)
?Subroutine147:
          CFI Block cfiCond75 Using cfiCommon0
          CFI Function zcl_registerCmdList
          CFI Conditional ??CrossCallReturnLabel_309, ??CrossCallReturnLabel_4
          CFI R6 load(1, XDATA, add(CFA_XSP16, literal(-12)))
          CFI VB load(1, XDATA, add(CFA_XSP16, literal(-11)))
          CFI V0 load(1, XDATA, add(CFA_XSP16, literal(-10)))
          CFI V1 load(1, XDATA, add(CFA_XSP16, literal(-9)))
          CFI V2 load(1, XDATA, add(CFA_XSP16, literal(-8)))
          CFI V3 load(1, XDATA, add(CFA_XSP16, literal(-7)))
          CFI R7 load(1, XDATA, add(CFA_XSP16, literal(-6)))
          CFI ?RET_LOW load(1, XDATA, add(CFA_XSP16, literal(-5)))
          CFI ?RET_HIGH load(1, XDATA, add(CFA_XSP16, literal(-4)))
          CFI ?BRET_EXT load(1, XDATA, add(CFA_XSP16, literal(-3)))
          CFI DPL0 load(1, XDATA, add(CFA_XSP16, literal(-2)))
          CFI DPH0 load(1, XDATA, add(CFA_XSP16, literal(-1)))
          CFI CFA_SP SP+-4
          CFI CFA_XSP16 add(XSP16, 12)
          CFI Block cfiCond76 Using cfiCommon0
          CFI (cfiCond76) Function zcl_registerClusterOptionList
          CFI (cfiCond76) Conditional ??CrossCallReturnLabel_309, ??CrossCallReturnLabel_5
          CFI (cfiCond76) R6 load(1, XDATA, add(CFA_XSP16, literal(-12)))
          CFI (cfiCond76) VB load(1, XDATA, add(CFA_XSP16, literal(-11)))
          CFI (cfiCond76) V0 load(1, XDATA, add(CFA_XSP16, literal(-10)))
          CFI (cfiCond76) V1 load(1, XDATA, add(CFA_XSP16, literal(-9)))
          CFI (cfiCond76) V2 load(1, XDATA, add(CFA_XSP16, literal(-8)))
          CFI (cfiCond76) V3 load(1, XDATA, add(CFA_XSP16, literal(-7)))
          CFI (cfiCond76) R7 load(1, XDATA, add(CFA_XSP16, literal(-6)))
          CFI (cfiCond76) ?RET_LOW load(1, XDATA, add(CFA_XSP16, literal(-5)))
          CFI (cfiCond76) ?RET_HIGH load(1, XDATA, add(CFA_XSP16, literal(-4)))
          CFI (cfiCond76) ?BRET_EXT load(1, XDATA, add(CFA_XSP16, literal(-3)))
          CFI (cfiCond76) DPL0 load(1, XDATA, add(CFA_XSP16, literal(-2)))
          CFI (cfiCond76) DPH0 load(1, XDATA, add(CFA_XSP16, literal(-1)))
          CFI (cfiCond76) CFA_SP SP+-4
          CFI (cfiCond76) CFA_XSP16 add(XSP16, 12)
          CFI Block cfiCond77 Using cfiCommon0
          CFI (cfiCond77) Function zcl_registerPlugin
          CFI (cfiCond77) Conditional ??CrossCallReturnLabel_310, ??CrossCallReturnLabel_24
          CFI (cfiCond77) R6 load(1, XDATA, add(CFA_XSP16, literal(-12)))
          CFI (cfiCond77) VB load(1, XDATA, add(CFA_XSP16, literal(-11)))
          CFI (cfiCond77) V0 load(1, XDATA, add(CFA_XSP16, literal(-10)))
          CFI (cfiCond77) V1 load(1, XDATA, add(CFA_XSP16, literal(-9)))
          CFI (cfiCond77) V2 load(1, XDATA, add(CFA_XSP16, literal(-8)))
          CFI (cfiCond77) V3 load(1, XDATA, add(CFA_XSP16, literal(-7)))
          CFI (cfiCond77) R7 load(1, XDATA, add(CFA_XSP16, literal(-6)))
          CFI (cfiCond77) ?RET_LOW load(1, XDATA, add(CFA_XSP16, literal(-5)))
          CFI (cfiCond77) ?RET_HIGH load(1, XDATA, add(CFA_XSP16, literal(-4)))
          CFI (cfiCond77) ?BRET_EXT load(1, XDATA, add(CFA_XSP16, literal(-3)))
          CFI (cfiCond77) DPL0 load(1, XDATA, add(CFA_XSP16, literal(-2)))
          CFI (cfiCond77) DPH0 load(1, XDATA, add(CFA_XSP16, literal(-1)))
          CFI (cfiCond77) CFA_SP SP+-4
          CFI (cfiCond77) CFA_XSP16 add(XSP16, 12)
          CFI Block cfiCond78 Using cfiCommon0
          CFI (cfiCond78) Function zcl_registerReadWriteCB
          CFI (cfiCond78) Conditional ??CrossCallReturnLabel_310, ??CrossCallReturnLabel_25
          CFI (cfiCond78) R6 load(1, XDATA, add(CFA_XSP16, literal(-14)))
          CFI (cfiCond78) VB load(1, XDATA, add(CFA_XSP16, literal(-13)))
          CFI (cfiCond78) V0 load(1, XDATA, add(CFA_XSP16, literal(-12)))
          CFI (cfiCond78) V1 load(1, XDATA, add(CFA_XSP16, literal(-11)))
          CFI (cfiCond78) V2 load(1, XDATA, add(CFA_XSP16, literal(-10)))
          CFI (cfiCond78) V3 load(1, XDATA, add(CFA_XSP16, literal(-9)))
          CFI (cfiCond78) V4 load(1, XDATA, add(CFA_XSP16, literal(-8)))
          CFI (cfiCond78) V5 load(1, XDATA, add(CFA_XSP16, literal(-7)))
          CFI (cfiCond78) R7 load(1, XDATA, add(CFA_XSP16, literal(-6)))
          CFI (cfiCond78) ?RET_LOW load(1, XDATA, add(CFA_XSP16, literal(-5)))
          CFI (cfiCond78) ?RET_HIGH load(1, XDATA, add(CFA_XSP16, literal(-4)))
          CFI (cfiCond78) ?BRET_EXT load(1, XDATA, add(CFA_XSP16, literal(-3)))
          CFI (cfiCond78) DPL0 load(1, XDATA, add(CFA_XSP16, literal(-2)))
          CFI (cfiCond78) DPH0 load(1, XDATA, add(CFA_XSP16, literal(-1)))
          CFI (cfiCond78) CFA_SP SP+-4
          CFI (cfiCond78) CFA_XSP16 add(XSP16, 14)
          CFI Block cfiPicker79 Using cfiCommon1
          CFI (cfiPicker79) NoFunction
          CFI (cfiPicker79) Picker
        MOV       A,?V1
          CFI EndBlock cfiCond75
          CFI EndBlock cfiCond76
          CFI EndBlock cfiCond77
          CFI EndBlock cfiCond78
          CFI EndBlock cfiPicker79
        REQUIRE ??Subroutine188_0
        ; // Fall through to label ??Subroutine188_0

        RSEG BANKED_CODE:HUGECODE:NOROOT(0)
??Subroutine188_0:
          CFI Block cfiCond80 Using cfiCommon0
          CFI Function zcl_registerAttrList
          CFI Conditional ??CrossCallReturnLabel_311, ??CrossCallReturnLabel_36
          CFI R6 load(1, XDATA, add(CFA_XSP16, literal(-12)))
          CFI VB load(1, XDATA, add(CFA_XSP16, literal(-11)))
          CFI V0 load(1, XDATA, add(CFA_XSP16, literal(-10)))
          CFI V1 load(1, XDATA, add(CFA_XSP16, literal(-9)))
          CFI V2 load(1, XDATA, add(CFA_XSP16, literal(-8)))
          CFI V3 load(1, XDATA, add(CFA_XSP16, literal(-7)))
          CFI R7 load(1, XDATA, add(CFA_XSP16, literal(-6)))
          CFI ?RET_LOW load(1, XDATA, add(CFA_XSP16, literal(-5)))
          CFI ?RET_HIGH load(1, XDATA, add(CFA_XSP16, literal(-4)))
          CFI ?BRET_EXT load(1, XDATA, add(CFA_XSP16, literal(-3)))
          CFI DPL0 load(1, XDATA, add(CFA_XSP16, literal(-2)))
          CFI DPH0 load(1, XDATA, add(CFA_XSP16, literal(-1)))
          CFI CFA_SP SP+-4
          CFI CFA_XSP16 add(XSP16, 12)
          CFI Block cfiCond81 Using cfiCommon0
          CFI (cfiCond81) Function zcl_registerAttrList
          CFI (cfiCond81) Conditional ??CrossCallReturnLabel_311, ??CrossCallReturnLabel_37
          CFI (cfiCond81) R6 load(1, XDATA, add(CFA_XSP16, literal(-12)))
          CFI (cfiCond81) VB load(1, XDATA, add(CFA_XSP16, literal(-11)))
          CFI (cfiCond81) V0 load(1, XDATA, add(CFA_XSP16, literal(-10)))
          CFI (cfiCond81) V1 load(1, XDATA, add(CFA_XSP16, literal(-9)))
          CFI (cfiCond81) V2 load(1, XDATA, add(CFA_XSP16, literal(-8)))
          CFI (cfiCond81) V3 load(1, XDATA, add(CFA_XSP16, literal(-7)))
          CFI (cfiCond81) R7 load(1, XDATA, add(CFA_XSP16, literal(-6)))
          CFI (cfiCond81) ?RET_LOW load(1, XDATA, add(CFA_XSP16, literal(-5)))
          CFI (cfiCond81) ?RET_HIGH load(1, XDATA, add(CFA_XSP16, literal(-4)))
          CFI (cfiCond81) ?BRET_EXT load(1, XDATA, add(CFA_XSP16, literal(-3)))
          CFI (cfiCond81) DPL0 load(1, XDATA, add(CFA_XSP16, literal(-2)))
          CFI (cfiCond81) DPH0 load(1, XDATA, add(CFA_XSP16, literal(-1)))
          CFI (cfiCond81) CFA_SP SP+-4
          CFI (cfiCond81) CFA_XSP16 add(XSP16, 12)
          CFI Block cfiCond82 Using cfiCommon0
          CFI (cfiCond82) Function zcl_registerCmdList
          CFI (cfiCond82) Conditional ??CrossCallReturnLabel_309, ??CrossCallReturnLabel_4
          CFI (cfiCond82) R6 load(1, XDATA, add(CFA_XSP16, literal(-12)))
          CFI (cfiCond82) VB load(1, XDATA, add(CFA_XSP16, literal(-11)))
          CFI (cfiCond82) V0 load(1, XDATA, add(CFA_XSP16, literal(-10)))
          CFI (cfiCond82) V1 load(1, XDATA, add(CFA_XSP16, literal(-9)))
          CFI (cfiCond82) V2 load(1, XDATA, add(CFA_XSP16, literal(-8)))
          CFI (cfiCond82) V3 load(1, XDATA, add(CFA_XSP16, literal(-7)))
          CFI (cfiCond82) R7 load(1, XDATA, add(CFA_XSP16, literal(-6)))
          CFI (cfiCond82) ?RET_LOW load(1, XDATA, add(CFA_XSP16, literal(-5)))
          CFI (cfiCond82) ?RET_HIGH load(1, XDATA, add(CFA_XSP16, literal(-4)))
          CFI (cfiCond82) ?BRET_EXT load(1, XDATA, add(CFA_XSP16, literal(-3)))
          CFI (cfiCond82) DPL0 load(1, XDATA, add(CFA_XSP16, literal(-2)))
          CFI (cfiCond82) DPH0 load(1, XDATA, add(CFA_XSP16, literal(-1)))
          CFI (cfiCond82) CFA_SP SP+-4
          CFI (cfiCond82) CFA_XSP16 add(XSP16, 12)
          CFI Block cfiCond83 Using cfiCommon0
          CFI (cfiCond83) Function zcl_registerClusterOptionList
          CFI (cfiCond83) Conditional ??CrossCallReturnLabel_309, ??CrossCallReturnLabel_5
          CFI (cfiCond83) R6 load(1, XDATA, add(CFA_XSP16, literal(-12)))
          CFI (cfiCond83) VB load(1, XDATA, add(CFA_XSP16, literal(-11)))
          CFI (cfiCond83) V0 load(1, XDATA, add(CFA_XSP16, literal(-10)))
          CFI (cfiCond83) V1 load(1, XDATA, add(CFA_XSP16, literal(-9)))
          CFI (cfiCond83) V2 load(1, XDATA, add(CFA_XSP16, literal(-8)))
          CFI (cfiCond83) V3 load(1, XDATA, add(CFA_XSP16, literal(-7)))
          CFI (cfiCond83) R7 load(1, XDATA, add(CFA_XSP16, literal(-6)))
          CFI (cfiCond83) ?RET_LOW load(1, XDATA, add(CFA_XSP16, literal(-5)))
          CFI (cfiCond83) ?RET_HIGH load(1, XDATA, add(CFA_XSP16, literal(-4)))
          CFI (cfiCond83) ?BRET_EXT load(1, XDATA, add(CFA_XSP16, literal(-3)))
          CFI (cfiCond83) DPL0 load(1, XDATA, add(CFA_XSP16, literal(-2)))
          CFI (cfiCond83) DPH0 load(1, XDATA, add(CFA_XSP16, literal(-1)))
          CFI (cfiCond83) CFA_SP SP+-4
          CFI (cfiCond83) CFA_XSP16 add(XSP16, 12)
          CFI Block cfiCond84 Using cfiCommon0
          CFI (cfiCond84) Function zcl_registerPlugin
          CFI (cfiCond84) Conditional ??CrossCallReturnLabel_310, ??CrossCallReturnLabel_24
          CFI (cfiCond84) R6 load(1, XDATA, add(CFA_XSP16, literal(-12)))
          CFI (cfiCond84) VB load(1, XDATA, add(CFA_XSP16, literal(-11)))
          CFI (cfiCond84) V0 load(1, XDATA, add(CFA_XSP16, literal(-10)))
          CFI (cfiCond84) V1 load(1, XDATA, add(CFA_XSP16, literal(-9)))
          CFI (cfiCond84) V2 load(1, XDATA, add(CFA_XSP16, literal(-8)))
          CFI (cfiCond84) V3 load(1, XDATA, add(CFA_XSP16, literal(-7)))
          CFI (cfiCond84) R7 load(1, XDATA, add(CFA_XSP16, literal(-6)))
          CFI (cfiCond84) ?RET_LOW load(1, XDATA, add(CFA_XSP16, literal(-5)))
          CFI (cfiCond84) ?RET_HIGH load(1, XDATA, add(CFA_XSP16, literal(-4)))
          CFI (cfiCond84) ?BRET_EXT load(1, XDATA, add(CFA_XSP16, literal(-3)))
          CFI (cfiCond84) DPL0 load(1, XDATA, add(CFA_XSP16, literal(-2)))
          CFI (cfiCond84) DPH0 load(1, XDATA, add(CFA_XSP16, literal(-1)))
          CFI (cfiCond84) CFA_SP SP+-4
          CFI (cfiCond84) CFA_XSP16 add(XSP16, 12)
          CFI Block cfiCond85 Using cfiCommon0
          CFI (cfiCond85) Function zcl_registerReadWriteCB
          CFI (cfiCond85) Conditional ??CrossCallReturnLabel_310, ??CrossCallReturnLabel_25
          CFI (cfiCond85) R6 load(1, XDATA, add(CFA_XSP16, literal(-14)))
          CFI (cfiCond85) VB load(1, XDATA, add(CFA_XSP16, literal(-13)))
          CFI (cfiCond85) V0 load(1, XDATA, add(CFA_XSP16, literal(-12)))
          CFI (cfiCond85) V1 load(1, XDATA, add(CFA_XSP16, literal(-11)))
          CFI (cfiCond85) V2 load(1, XDATA, add(CFA_XSP16, literal(-10)))
          CFI (cfiCond85) V3 load(1, XDATA, add(CFA_XSP16, literal(-9)))
          CFI (cfiCond85) V4 load(1, XDATA, add(CFA_XSP16, literal(-8)))
          CFI (cfiCond85) V5 load(1, XDATA, add(CFA_XSP16, literal(-7)))
          CFI (cfiCond85) R7 load(1, XDATA, add(CFA_XSP16, literal(-6)))
          CFI (cfiCond85) ?RET_LOW load(1, XDATA, add(CFA_XSP16, literal(-5)))
          CFI (cfiCond85) ?RET_HIGH load(1, XDATA, add(CFA_XSP16, literal(-4)))
          CFI (cfiCond85) ?BRET_EXT load(1, XDATA, add(CFA_XSP16, literal(-3)))
          CFI (cfiCond85) DPL0 load(1, XDATA, add(CFA_XSP16, literal(-2)))
          CFI (cfiCond85) DPH0 load(1, XDATA, add(CFA_XSP16, literal(-1)))
          CFI (cfiCond85) CFA_SP SP+-4
          CFI (cfiCond85) CFA_XSP16 add(XSP16, 14)
          CFI Block cfiPicker86 Using cfiCommon1
          CFI (cfiPicker86) NoFunction
          CFI (cfiPicker86) Picker
        LCALL     ?Subroutine183 & 0xFFFF
??CrossCallReturnLabel_313:
        INC       DPTR
        RET
          CFI EndBlock cfiCond80
          CFI EndBlock cfiCond81
          CFI EndBlock cfiCond82
          CFI EndBlock cfiCond83
          CFI EndBlock cfiCond84
          CFI EndBlock cfiCond85
          CFI EndBlock cfiPicker86
// 1028 
// 1029 /*********************************************************************
// 1030  * @fn      zcl_DeviceOperational
// 1031  *
// 1032  * @brief   Used to see whether or not the device can send or respond
// 1033  *          to application level commands.
// 1034  *
// 1035  * @param   srcEP - source endpoint
// 1036  * @param   clusterID - cluster ID
// 1037  * @param   frameType - command type
// 1038  * @param   cmd - command ID
// 1039  *
// 1040  * @return  TRUE if device is operational, FALSE otherwise
// 1041  */

        RSEG BANKED_CODE:HUGECODE:NOROOT(0)
// 1042 static uint8 zcl_DeviceOperational( uint8 srcEP, uint16 clusterID,
zcl_DeviceOperational:
          CFI Block cfiBlock87 Using cfiCommon0
          CFI Function zcl_DeviceOperational
        CODE
// 1043                                     uint8 frameType, uint8 cmd, uint16 profileID )
// 1044 {
        FUNCALL zcl_DeviceOperational, zclFindAttrRec
        LOCFRAME ISTACK, 0, STACK
        LOCFRAME PSTACK, 0, STACK
        LOCFRAME XSTACK, 23, STACK
        LOCFRAME IOVERLAY, 0, STATIC
        LOCFRAME DOVERLAY, 0, STATIC
        ARGFRAME ISTACK, 0, STACK
        ARGFRAME PSTACK, 0, STACK
        ARGFRAME XSTACK, 23, STACK
        ARGFRAME IOVERLAY, 0, STATIC
        ARGFRAME DOVERLAY, 0, STATIC
        FUNCALL zcl_DeviceOperational, zclReadAttrData
        LOCFRAME ISTACK, 0, STACK
        LOCFRAME PSTACK, 0, STACK
        LOCFRAME XSTACK, 23, STACK
        LOCFRAME IOVERLAY, 0, STATIC
        LOCFRAME DOVERLAY, 0, STATIC
        ARGFRAME ISTACK, 0, STACK
        ARGFRAME PSTACK, 0, STACK
        ARGFRAME XSTACK, 23, STACK
        ARGFRAME IOVERLAY, 0, STATIC
        ARGFRAME DOVERLAY, 0, STATIC
        REQUIRE ?V0
        REQUIRE ?V2
        REQUIRE ?V3
        MOV       A,#-0xc
        LCALL     ?BANKED_ENTER_XDATA
          CFI DPH0 load(1, XDATA, add(CFA_XSP16, literal(-1)))
          CFI DPL0 load(1, XDATA, add(CFA_XSP16, literal(-2)))
          CFI ?BRET_EXT load(1, XDATA, add(CFA_XSP16, literal(-3)))
          CFI ?RET_HIGH load(1, XDATA, add(CFA_XSP16, literal(-4)))
          CFI ?RET_LOW load(1, XDATA, add(CFA_XSP16, literal(-5)))
          CFI R7 load(1, XDATA, add(CFA_XSP16, literal(-6)))
          CFI V3 load(1, XDATA, add(CFA_XSP16, literal(-7)))
          CFI V2 load(1, XDATA, add(CFA_XSP16, literal(-8)))
          CFI V1 load(1, XDATA, add(CFA_XSP16, literal(-9)))
          CFI V0 load(1, XDATA, add(CFA_XSP16, literal(-10)))
          CFI VB load(1, XDATA, add(CFA_XSP16, literal(-11)))
          CFI R6 load(1, XDATA, add(CFA_XSP16, literal(-12)))
          CFI CFA_SP SP+0
          CFI CFA_XSP16 add(XSP16, 12)
        ; Saved register size: 12
        ; Auto size: 9
        MOV       A,#-0x9
        LCALL     ?ALLOC_XSTACK8
          CFI CFA_XSP16 add(XSP16, 21)
        MOV       A,R1
        MOV       R6,A
        MOV       A,R5
        MOV       R7,A
// 1045   zclAttrRec_t attrRec;
// 1046   uint8 deviceEnabled = DEVICE_ENABLED; // default value
        MOV       DPL,?XSP + 0
        MOV       DPH,?XSP + 1
        MOV       A,#0x1
        MOVX      @DPTR,A
// 1047 
// 1048   (void)profileID;  // Intentionally unreferenced parameter
// 1049 
// 1050   // If the device is Disabled (DeviceEnabled attribute is set to Disabled), it
// 1051   // cannot send or respond to application level commands, other than commands
// 1052   // to read or write attributes. Note that the Identify cluster cannot be
// 1053   // disabled, and remains functional regardless of this setting.
// 1054   if ( zcl_ProfileCmd( frameType ) && cmd <= ZCL_CMD_WRITE_NO_RSP )
        MOV       A,R4
        JNZ       ??zcl_DeviceOperational_0
        MOV       A,R7
        CLR       C
        SUBB      A,#0x6
        JC        ??zcl_DeviceOperational_1
// 1055   {
// 1056     return ( TRUE );
// 1057   }
// 1058 
// 1059   if ( clusterID == ZCL_CLUSTER_ID_GEN_IDENTIFY )
??zcl_DeviceOperational_0:
        MOV       A,#0x3
        XRL       A,R2
        ORL       A,R3
        JZ        ??zcl_DeviceOperational_1
// 1060   {
// 1061     return ( TRUE );
// 1062   }
// 1063 
// 1064   // Is device enabled?
// 1065   if ( zclFindAttrRec( srcEP, ZCL_CLUSTER_ID_GEN_BASIC,
// 1066                        ATTRID_BASIC_DEVICE_ENABLED, &attrRec ) )
        ; Setup parameters for call to function zclFindAttrRec
        MOV       A,#0x1
        LCALL     ?XSTACK_DISP100_8
        MOV       ?V2,R0
        MOV       ?V3,R1
        MOV       R0,#?V2
        LCALL     ?PUSH_XSTACK_I_TWO
          CFI CFA_XSP16 add(XSP16, 23)
        MOV       R4,#0x12
        MOV       R5,#0x0
        MOV       R2,#0x0
        MOV       R3,#0x0
        MOV       A,R6
        MOV       R1,A
        LCALL     `??zclFindAttrRec::?relay`; Banked call to: zclFindAttrRec
        MOV       A,#0x2
        LCALL     ?DEALLOC_XSTACK8
          CFI CFA_XSP16 add(XSP16, 21)
        MOV       A,R1
        JZ        ??zcl_DeviceOperational_2
// 1067   {
// 1068 #ifdef ZCL_READ
// 1069     zclReadAttrData( &deviceEnabled, &attrRec, NULL );
        ; Setup parameters for call to function zclReadAttrData
        CLR       A
        MOV       ?V2,A
        MOV       ?V3,A
        MOV       R0,#?V2
        LCALL     ?PUSH_XSTACK_I_TWO
          CFI CFA_XSP16 add(XSP16, 23)
        MOV       A,#0x3
        LCALL     ?XSTACK_DISP102_8
        MOV       A,#0x2
        LCALL     ?XSTACK_DISP101_8
        LCALL     `??zclReadAttrData::?relay`; Banked call to: zclReadAttrData
        MOV       A,#0x2
        LCALL     ?DEALLOC_XSTACK8
          CFI CFA_XSP16 add(XSP16, 21)
// 1070 #endif
// 1071   }
// 1072 
// 1073   return ( deviceEnabled == DEVICE_ENABLED ? TRUE : FALSE );
??zcl_DeviceOperational_2:
        MOV       DPL,?XSP + 0
        MOV       DPH,?XSP + 1
        MOVX      A,@DPTR
        XRL       A,#0x1
        JNZ       ??zcl_DeviceOperational_3
??zcl_DeviceOperational_1:
        MOV       R1,#0x1
        SJMP      ??zcl_DeviceOperational_4
??zcl_DeviceOperational_3:
        MOV       R1,#0x0
??zcl_DeviceOperational_4:
        MOV       A,#0x9
        LCALL     ?DEALLOC_XSTACK8
          CFI CFA_XSP16 add(XSP16, 12)
        LJMP      ?Subroutine4 & 0xFFFF
// 1074 }
          CFI EndBlock cfiBlock87
// 1075 
// 1076 /*********************************************************************
// 1077  * @fn      zcl_SendCommand
// 1078  *
// 1079  * @brief   Used to send Profile and Cluster Specific Command messages.
// 1080  *
// 1081  *          NOTE: The calling application is responsible for incrementing
// 1082  *                the Sequence Number.
// 1083  *
// 1084  * @param   srcEp - source endpoint
// 1085  * @param   destAddr - destination address
// 1086  * @param   clusterID - cluster ID
// 1087  * @param   cmd - command ID
// 1088  * @param   specific - whether the command is Cluster Specific
// 1089  * @param   direction - client/server direction of the command
// 1090  * @param   disableDefaultRsp - disable Default Response command
// 1091  * @param   manuCode - manufacturer code for proprietary extensions to a profile
// 1092  * @param   seqNumber - identification number for the transaction
// 1093  * @param   cmdFormatLen - length of the command to be sent
// 1094  * @param   cmdFormat - command to be sent
// 1095  *
// 1096  * @return  ZSuccess if OK
// 1097  */

        RSEG BANKED_CODE:HUGECODE:NOROOT(0)
// 1098 ZStatus_t zcl_SendCommand( uint8 srcEP, afAddrType_t *destAddr,
zcl_SendCommand:
          CFI Block cfiBlock88 Using cfiCommon0
          CFI Function zcl_SendCommand
        CODE
// 1099                            uint16 clusterID, uint8 cmd, uint8 specific, uint8 direction,
// 1100                            uint8 disableDefaultRsp, uint16 manuCode, uint8 seqNum,
// 1101                            uint16 cmdFormatLen, uint8 *cmdFormat )
// 1102 {
        FUNCALL zcl_SendCommand, afFindEndPointDesc
        LOCFRAME ISTACK, 0, STACK
        LOCFRAME PSTACK, 0, STACK
        LOCFRAME XSTACK, 27, STACK
        LOCFRAME IOVERLAY, 0, STATIC
        LOCFRAME DOVERLAY, 0, STATIC
        ARGFRAME ISTACK, 0, STACK
        ARGFRAME PSTACK, 0, STACK
        ARGFRAME XSTACK, 27, STACK
        ARGFRAME IOVERLAY, 0, STATIC
        ARGFRAME DOVERLAY, 0, STATIC
        FUNCALL zcl_SendCommand, zclGetClusterOption
        LOCFRAME ISTACK, 0, STACK
        LOCFRAME PSTACK, 0, STACK
        LOCFRAME XSTACK, 27, STACK
        LOCFRAME IOVERLAY, 0, STATIC
        LOCFRAME DOVERLAY, 0, STATIC
        ARGFRAME ISTACK, 0, STACK
        ARGFRAME PSTACK, 0, STACK
        ARGFRAME XSTACK, 27, STACK
        ARGFRAME IOVERLAY, 0, STATIC
        ARGFRAME DOVERLAY, 0, STATIC
        FUNCALL zcl_SendCommand, osal_memset
        LOCFRAME ISTACK, 0, STACK
        LOCFRAME PSTACK, 0, STACK
        LOCFRAME XSTACK, 27, STACK
        LOCFRAME IOVERLAY, 0, STATIC
        LOCFRAME DOVERLAY, 0, STATIC
        ARGFRAME ISTACK, 0, STACK
        ARGFRAME PSTACK, 0, STACK
        ARGFRAME XSTACK, 27, STACK
        ARGFRAME IOVERLAY, 0, STATIC
        ARGFRAME DOVERLAY, 0, STATIC
        FUNCALL zcl_SendCommand, zcl_DeviceOperational
        LOCFRAME ISTACK, 0, STACK
        LOCFRAME PSTACK, 0, STACK
        LOCFRAME XSTACK, 29, STACK
        LOCFRAME IOVERLAY, 0, STATIC
        LOCFRAME DOVERLAY, 0, STATIC
        ARGFRAME ISTACK, 0, STACK
        ARGFRAME PSTACK, 0, STACK
        ARGFRAME XSTACK, 29, STACK
        ARGFRAME IOVERLAY, 0, STATIC
        ARGFRAME DOVERLAY, 0, STATIC
        FUNCALL zcl_SendCommand, printf
        LOCFRAME ISTACK, 0, STACK
        LOCFRAME PSTACK, 0, STACK
        LOCFRAME XSTACK, 27, STACK
        LOCFRAME IOVERLAY, 0, STATIC
        LOCFRAME DOVERLAY, 0, STATIC
        ARGFRAME ISTACK, 0, STACK
        ARGFRAME PSTACK, 0, STACK
        ARGFRAME XSTACK, 27, STACK
        ARGFRAME IOVERLAY, 0, STATIC
        ARGFRAME DOVERLAY, 0, STATIC
        FUNCALL zcl_SendCommand, osal_mem_alloc
        LOCFRAME ISTACK, 0, STACK
        LOCFRAME PSTACK, 0, STACK
        LOCFRAME XSTACK, 27, STACK
        LOCFRAME IOVERLAY, 0, STATIC
        LOCFRAME DOVERLAY, 0, STATIC
        ARGFRAME ISTACK, 0, STACK
        ARGFRAME PSTACK, 0, STACK
        ARGFRAME XSTACK, 27, STACK
        ARGFRAME IOVERLAY, 0, STATIC
        ARGFRAME DOVERLAY, 0, STATIC
        FUNCALL zcl_SendCommand, zclBuildHdr
        LOCFRAME ISTACK, 0, STACK
        LOCFRAME PSTACK, 0, STACK
        LOCFRAME XSTACK, 27, STACK
        LOCFRAME IOVERLAY, 0, STATIC
        LOCFRAME DOVERLAY, 0, STATIC
        ARGFRAME ISTACK, 0, STACK
        ARGFRAME PSTACK, 0, STACK
        ARGFRAME XSTACK, 27, STACK
        ARGFRAME IOVERLAY, 0, STATIC
        ARGFRAME DOVERLAY, 0, STATIC
        FUNCALL zcl_SendCommand, osal_memcpy
        LOCFRAME ISTACK, 0, STACK
        LOCFRAME PSTACK, 0, STACK
        LOCFRAME XSTACK, 30, STACK
        LOCFRAME IOVERLAY, 0, STATIC
        LOCFRAME DOVERLAY, 0, STATIC
        ARGFRAME ISTACK, 0, STACK
        ARGFRAME PSTACK, 0, STACK
        ARGFRAME XSTACK, 30, STACK
        ARGFRAME IOVERLAY, 0, STATIC
        ARGFRAME DOVERLAY, 0, STATIC
        FUNCALL zcl_SendCommand, AF_DataRequest
        LOCFRAME ISTACK, 0, STACK
        LOCFRAME PSTACK, 0, STACK
        LOCFRAME XSTACK, 36, STACK
        LOCFRAME IOVERLAY, 0, STATIC
        LOCFRAME DOVERLAY, 0, STATIC
        ARGFRAME ISTACK, 0, STACK
        ARGFRAME PSTACK, 0, STACK
        ARGFRAME XSTACK, 36, STACK
        ARGFRAME IOVERLAY, 0, STATIC
        ARGFRAME DOVERLAY, 0, STATIC
        FUNCALL zcl_SendCommand, osal_mem_free
        LOCFRAME ISTACK, 0, STACK
        LOCFRAME PSTACK, 0, STACK
        LOCFRAME XSTACK, 27, STACK
        LOCFRAME IOVERLAY, 0, STATIC
        LOCFRAME DOVERLAY, 0, STATIC
        ARGFRAME ISTACK, 0, STACK
        ARGFRAME PSTACK, 0, STACK
        ARGFRAME XSTACK, 27, STACK
        ARGFRAME IOVERLAY, 0, STATIC
        ARGFRAME DOVERLAY, 0, STATIC
        REQUIRE ?V0
        REQUIRE ?V1
        REQUIRE ?V2
        REQUIRE ?V3
        REQUIRE ?V4
        REQUIRE ?V5
        REQUIRE ?V6
        REQUIRE ?V7
        MOV       A,#-0x10
        LCALL     ?BANKED_ENTER_XDATA
          CFI DPH0 load(1, XDATA, add(CFA_XSP16, literal(-1)))
          CFI DPL0 load(1, XDATA, add(CFA_XSP16, literal(-2)))
          CFI ?BRET_EXT load(1, XDATA, add(CFA_XSP16, literal(-3)))
          CFI ?RET_HIGH load(1, XDATA, add(CFA_XSP16, literal(-4)))
          CFI ?RET_LOW load(1, XDATA, add(CFA_XSP16, literal(-5)))
          CFI R7 load(1, XDATA, add(CFA_XSP16, literal(-6)))
          CFI V7 load(1, XDATA, add(CFA_XSP16, literal(-7)))
          CFI V6 load(1, XDATA, add(CFA_XSP16, literal(-8)))
          CFI V5 load(1, XDATA, add(CFA_XSP16, literal(-9)))
          CFI V4 load(1, XDATA, add(CFA_XSP16, literal(-10)))
          CFI V3 load(1, XDATA, add(CFA_XSP16, literal(-11)))
          CFI V2 load(1, XDATA, add(CFA_XSP16, literal(-12)))
          CFI V1 load(1, XDATA, add(CFA_XSP16, literal(-13)))
          CFI V0 load(1, XDATA, add(CFA_XSP16, literal(-14)))
          CFI VB load(1, XDATA, add(CFA_XSP16, literal(-15)))
          CFI R6 load(1, XDATA, add(CFA_XSP16, literal(-16)))
          CFI CFA_SP SP+0
          CFI CFA_XSP16 add(XSP16, 16)
        ; Saved register size: 16
        ; Auto size: 11
        MOV       A,#-0xb
        LCALL     ?ALLOC_XSTACK8
          CFI CFA_XSP16 add(XSP16, 27)
        MOV       A,R1
        MOV       DPL,?XSP + 0
        MOV       DPH,?XSP + 1
        MOVX      @DPTR,A
        MOV       A,#0x9
        LCALL     ?XSTACK_DISP0_8
        LCALL     ??Subroutine214_0 & 0xFFFF
??CrossCallReturnLabel_448:
        MOV       ?V4,R4
        MOV       ?V5,R5
// 1103   endPointDesc_t *epDesc;
// 1104   zclFrameHdr_t hdr;
// 1105   uint8 *msgBuf;
// 1106   uint16 msgLen;
// 1107   uint8 *pBuf;
// 1108   uint8 options;
// 1109   ZStatus_t status;
// 1110 
// 1111   epDesc = afFindEndPointDesc( srcEP );
        ; Setup parameters for call to function afFindEndPointDesc
        MOV       DPL,?XSP + 0
        MOV       DPH,?XSP + 1
        MOVX      A,@DPTR
        MOV       R1,A
        LCALL     `??afFindEndPointDesc::?relay`; Banked call to: afFindEndPointDesc
        MOV       A,#0x7
        LCALL     ?XSTACK_DISP0_8
        LCALL     ??Subroutine214_0 & 0xFFFF
// 1112   if ( epDesc == NULL )
??CrossCallReturnLabel_449:
        MOV       A,#0x7
        LCALL     ?XSTACK_DISP0_8
        LCALL     ??Subroutine212_0 & 0xFFFF
??CrossCallReturnLabel_426:
        JNZ       ??zcl_SendCommand_0
// 1113   {
// 1114     return ( ZInvalidParameter ); // EMBEDDED RETURN
        MOV       R1,#0x2
        LJMP      ??zcl_SendCommand_1 & 0xFFFF
// 1115   }
// 1116 
// 1117 #if defined ( INTER_PAN )
// 1118   if ( StubAPS_InterPan( destAddr->panId, destAddr->endPoint ) )
// 1119   {
// 1120     options = AF_TX_OPTIONS_NONE;
// 1121   }
// 1122   else
// 1123 #endif
// 1124   {
// 1125     options = zclGetClusterOption( srcEP, clusterID );
??zcl_SendCommand_0:
        ; Setup parameters for call to function zclGetClusterOption
        MOV       R2,?V4
        MOV       R3,?V5
        MOV       DPL,?XSP + 0
        MOV       DPH,?XSP + 1
        MOVX      A,@DPTR
        MOV       R1,A
        LCALL     `??zclGetClusterOption::?relay`; Banked call to: zclGetClusterOption
        MOV       A,R1
        MOV       ?V3,A
// 1126 
// 1127     // The cluster might not have been defined to use security but if this message
// 1128     // is in response to another message that was using APS security this message
// 1129     // will be sent with APS security
// 1130     if ( !( options & AF_EN_SECURITY ) )
        MOV       C,0xE0 /* A   */.6
        JC        ??zcl_SendCommand_2
// 1131     {
// 1132       afIncomingMSGPacket_t *origPkt = zcl_getRawAFMsg();
        MOV       DPTR,#rawAFMsg
        LCALL     ??Subroutine212_0 & 0xFFFF
// 1133 
// 1134       if ( ( origPkt != NULL ) && ( origPkt->SecurityUse == TRUE ) )
??CrossCallReturnLabel_423:
        JZ        ??zcl_SendCommand_2
        MOV       A,R0
        ADD       A,#0x19
        MOV       DPL,A
        CLR       A
        ADDC      A,R1
        MOV       DPH,A
        MOVX      A,@DPTR
        XRL       A,#0x1
        JNZ       ??zcl_SendCommand_2
// 1135       {
// 1136         options |= AF_EN_SECURITY;
        MOV       A,?V3
        SETB      0xE0 /* A   */.6
        MOV       ?V3,A
// 1137       }
// 1138     }
// 1139   }
// 1140 
// 1141   zcl_memset( &hdr, 0, sizeof( zclFrameHdr_t ) );
??zcl_SendCommand_2:
        ; Setup parameters for call to function osal_memset
        MOV       R4,#0x6
        MOV       R5,#0x0
        MOV       R1,#0x0
        MOV       A,#0x1
        LCALL     ?XSTACK_DISP101_8
        LCALL     `??osal_memset::?relay`; Banked call to: osal_memset
// 1142 
// 1143   // Not Profile wide command (like READ, WRITE)
// 1144   if ( specific )
        MOV       A,#0x1c
        LCALL     ?XSTACK_DISP0_8
        MOVX      A,@DPTR
        JZ        ??zcl_SendCommand_3
// 1145   {
// 1146     hdr.fc.type = ZCL_FRAME_TYPE_SPECIFIC_CMD;
        MOV       A,#0x1
        LCALL     ?XSTACK_DISP0_8
        MOVX      A,@DPTR
        ANL       A,#0xfc
        MOVX      @DPTR,A
        ORL       A,#0x1
        SJMP      ??zcl_SendCommand_4
// 1147   }
// 1148   else
// 1149   {
// 1150     hdr.fc.type = ZCL_FRAME_TYPE_PROFILE_CMD;
??zcl_SendCommand_3:
        MOV       A,#0x1
        LCALL     ?XSTACK_DISP0_8
        MOVX      A,@DPTR
        ANL       A,#0xfc
??zcl_SendCommand_4:
        MOVX      @DPTR,A
// 1151   }
// 1152 
// 1153   if ( ( epDesc->simpleDesc == NULL ) ||
// 1154        ( zcl_DeviceOperational( srcEP, clusterID, hdr.fc.type,
// 1155                                 cmd, epDesc->simpleDesc->AppProfId ) == FALSE ) )
        MOV       A,#0x7
        LCALL     ?XSTACK_DISP0_8
        LCALL     ?Subroutine74 & 0xFFFF
??CrossCallReturnLabel_131:
        LCALL     ??Subroutine211_0 & 0xFFFF
??CrossCallReturnLabel_437:
        JZ        ??zcl_SendCommand_5
        MOV       A,#0x1b
        LCALL     ?XSTACK_DISP0_8
        MOVX      A,@DPTR
        MOV       R6,A
        ; Setup parameters for call to function zcl_DeviceOperational
        MOV       DPL,R0
        MOV       DPH,R1
        INC       DPTR
        LCALL     ?PUSH_XSTACK8_X_TWO
          CFI CFA_XSP16 add(XSP16, 29)
        MOV       A,R6
        MOV       R5,A
        MOV       A,#0x3
        LCALL     ?XSTACK_DISP0_8
        MOVX      A,@DPTR
        ANL       A,#0x3
        MOV       R4,A
        MOV       R2,?V4
        MOV       R3,?V5
        MOV       A,#0x2
        LCALL     ?XSTACK_DISP0_8
        MOVX      A,@DPTR
        MOV       R1,A
        LCALL     `??zcl_DeviceOperational::?relay`; Banked call to: zcl_DeviceOperational
        MOV       A,#0x2
        LCALL     ?DEALLOC_XSTACK8
          CFI CFA_XSP16 add(XSP16, 27)
        MOV       A,R1
        JNZ       ??zcl_SendCommand_6
// 1156   {
// 1157     return ( ZFailure ); // EMBEDDED RETURN
??zcl_SendCommand_5:
        MOV       R1,#0x1
        LJMP      ??zcl_SendCommand_1 & 0xFFFF
// 1158   }
??zcl_SendCommand_6:
        MOV       A,#0x1f
        LCALL     ?XSTACK_DISP0_8
        LCALL     ??Subroutine212_0 & 0xFFFF
// 1159 
// 1160   // Fill in the Maufacturer Code
// 1161   if ( manuCode != 0 )
??CrossCallReturnLabel_424:
        JZ        ??CrossCallReturnLabel_469
// 1162   {
// 1163     hdr.fc.manuSpecific = 1;
        MOV       A,#0x1
        LCALL     ?XSTACK_DISP0_8
        MOVX      A,@DPTR
        ORL       A,#0x4
        MOVX      @DPTR,A
// 1164     hdr.manuCode = manuCode;
        MOV       A,#0x3
        LCALL     ?XSTACK_DISP0_8
        LCALL     ??Subroutine216_0 & 0xFFFF
// 1165   }
// 1166 
// 1167   // Set the Command Direction
// 1168   if ( direction )
??CrossCallReturnLabel_469:
        MOV       A,#0x1d
        LCALL     ?XSTACK_DISP0_8
        MOVX      A,@DPTR
        JZ        ??zcl_SendCommand_7
// 1169   {
// 1170     hdr.fc.direction = ZCL_FRAME_SERVER_CLIENT_DIR;
        MOV       A,#0x1
        LCALL     ?XSTACK_DISP0_8
        MOVX      A,@DPTR
        ORL       A,#0x8
        SJMP      ??zcl_SendCommand_8
// 1171   }
// 1172   else
// 1173   {
// 1174     hdr.fc.direction = ZCL_FRAME_CLIENT_SERVER_DIR;
??zcl_SendCommand_7:
        MOV       A,#0x1
        LCALL     ?XSTACK_DISP0_8
        MOVX      A,@DPTR
        ANL       A,#0xf7
??zcl_SendCommand_8:
        MOVX      @DPTR,A
// 1175   }
// 1176 
// 1177   // Set the Disable Default Response field
// 1178   if ( disableDefaultRsp )
        MOV       A,#0x1e
        LCALL     ?XSTACK_DISP0_8
        MOVX      A,@DPTR
        JZ        ??zcl_SendCommand_9
// 1179   {
// 1180     hdr.fc.disableDefaultRsp = 1;
        MOV       A,#0x1
        LCALL     ?XSTACK_DISP0_8
        MOVX      A,@DPTR
        ORL       A,#0x10
        SJMP      ??zcl_SendCommand_10
// 1181   }
// 1182   else
// 1183   {
// 1184     hdr.fc.disableDefaultRsp = 0;
??zcl_SendCommand_9:
        MOV       A,#0x1
        LCALL     ?XSTACK_DISP0_8
        MOVX      A,@DPTR
        ANL       A,#0xef
??zcl_SendCommand_10:
        MOVX      @DPTR,A
// 1185   }
// 1186 
// 1187   // Fill in the Transaction Sequence Number
// 1188   hdr.transSeqNum = seqNum;
        MOV       A,#0x21
        LCALL     ?XSTACK_DISP0_8
        MOVX      A,@DPTR
        PUSH      A
          CFI CFA_SP SP+-1
        MOV       A,#0x5
        LCALL     ?XSTACK_DISP0_8
        POP       A
          CFI CFA_SP SP+0
        MOVX      @DPTR,A
// 1189 
// 1190   // Fill in the command
// 1191   hdr.commandID = cmd;
        MOV       A,#0x6
        LCALL     ?XSTACK_DISP0_8
        MOV       A,R6
        MOVX      @DPTR,A
// 1192 
// 1193   // calculate the needed buffer size
// 1194   msgLen = zclCalcHdrSize( &hdr );
        MOV       R0,#0x3
        MOV       A,#0x1
        LCALL     ?XSTACK_DISP0_8
        MOVX      A,@DPTR
        ANL       A,#0x4
        JZ        ??zcl_SendCommand_11
        MOV       R0,#0x5
// 1195   msgLen += cmdFormatLen;
??zcl_SendCommand_11:
        MOV       A,#0x22
        LCALL     ?XSTACK_DISP0_8
        MOVX      A,@DPTR
        ADD       A,R0
        MOV       R6,A
        INC       DPTR
        MOVX      A,@DPTR
        ADDC      A,#0x0
        MOV       R7,A
// 1196 
// 1197   // Allocate the buffer needed
// 1198   printf("Arrived 1198!\n");
        ; Setup parameters for call to function printf
        MOV       R2,#`?<Constant "Arrived 1198!\\n">` & 0xff
        MOV       R3,#(`?<Constant "Arrived 1198!\\n">` >> 8) & 0xff
        LCALL     `??printf::?relay`; Banked call to: printf
// 1199   msgBuf = zcl_mem_alloc( msgLen );
        ; Setup parameters for call to function osal_mem_alloc
        MOV       A,R6
        MOV       R2,A
        MOV       A,R7
        MOV       R3,A
        LCALL     `??osal_mem_alloc::?relay`; Banked call to: osal_mem_alloc
        MOV       ?V6,R2
        MOV       ?V7,R3
// 1200   if ( msgBuf != NULL )
        MOV       A,R2
        ORL       A,?V7
        JZ        ??zcl_SendCommand_12
// 1201   {
// 1202     // Fill in the ZCL Header
// 1203     pBuf = zclBuildHdr( &hdr, msgBuf );
        ; Setup parameters for call to function zclBuildHdr
        MOV       R4,?V6
        MOV       R5,?V7
        MOV       A,#0x1
        LCALL     ?XSTACK_DISP101_8
        LCALL     `??zclBuildHdr::?relay`; Banked call to: zclBuildHdr
// 1204 
// 1205     // Fill in the command frame
// 1206     zcl_memcpy( pBuf, cmdFormat, cmdFormatLen );
        ; Setup parameters for call to function osal_memcpy
        MOV       A,#0x24
        LCALL     ?XSTACK_DISP0_8
        LCALL     ??Subroutine203_0 & 0xFFFF
??CrossCallReturnLabel_376:
        LCALL     ?PUSH_XSTACK_I_THREE
          CFI CFA_XSP16 add(XSP16, 30)
        MOV       A,#0x25
        LCALL     ?XSTACK_DISP0_8
        LCALL     ??Subroutine222_0 & 0xFFFF
??CrossCallReturnLabel_506:
        LCALL     `??osal_memcpy::?relay`; Banked call to: osal_memcpy
        MOV       A,#0x3
        LCALL     ?DEALLOC_XSTACK8
          CFI CFA_XSP16 add(XSP16, 27)
// 1207 
// 1208     status = AF_DataRequest( destAddr, epDesc, clusterID, msgLen, msgBuf,
// 1209                              &APS_Counter, options, zcl_radius );
        ; Setup parameters for call to function AF_DataRequest
        MOV       DPTR,#zcl_radius
        LCALL     ?Subroutine53 & 0xFFFF
??CrossCallReturnLabel_74:
        LCALL     ?PUSH_XSTACK_I_ONE
          CFI CFA_XSP16 add(XSP16, 28)
        MOV       ?V0,#APS_Counter & 0xff
        MOV       ?V1,#(APS_Counter >> 8) & 0xff
        MOV       R0,#?V0
        LCALL     ?PUSH_XSTACK_I_TWO
          CFI CFA_XSP16 add(XSP16, 30)
        MOV       R0,#?V6
        LCALL     ?PUSH_XSTACK_I_TWO
          CFI CFA_XSP16 add(XSP16, 32)
        MOV       ?V0,R6
        MOV       ?V1,R7
        MOV       R0,#?V0
        LCALL     ?PUSH_XSTACK_I_TWO
          CFI CFA_XSP16 add(XSP16, 34)
        MOV       R0,#?V4
        LCALL     ?PUSH_XSTACK_I_TWO
          CFI CFA_XSP16 add(XSP16, 36)
        MOV       R1,?V3
        MOV       A,#0x10
        LCALL     ?XSTACK_DISP0_8
        LCALL     ??Subroutine222_0 & 0xFFFF
??CrossCallReturnLabel_507:
        MOV       A,#0x12
        LCALL     ?XSTACK_DISP0_8
        LCALL     ??Subroutine209_0 & 0xFFFF
??CrossCallReturnLabel_393:
